	.file	"utils_hmac_sha1_fast.c"
	.option nopic
	.attribute arch, "rv32i2p1_m2p0_f2p2_c2p0_zicsr2p0_zmmul1p0_zca1p0_zcf1p0"
	.attribute unaligned_access, 0
	.attribute stack_align, 16
	.text
.Ltext0:
	.cfi_sections	.debug_frame
	.file 0 "/home/chandu/sdk/bl602_iot_sdk/customer_app/suas_app_pqkem_gateway/build_out/utils" "/home/chandu/sdk/bl602_iot_sdk/components/utils/src/utils_hmac_sha1_fast.c"
	.section	.text.utils_hmac_sha1_fast,"ax",@progbits
	.align	1
	.globl	utils_hmac_sha1_fast
	.type	utils_hmac_sha1_fast, @function
utils_hmac_sha1_fast:
.LFB2:
	.file 1 "/home/chandu/sdk/bl602_iot_sdk/components/utils/src/utils_hmac_sha1_fast.c"
	.loc 1 44 1
	.cfi_startproc
	addi	sp,sp,-320
	.cfi_def_cfa_offset 320
	sw	ra,316(sp)
	sw	s0,312(sp)
	sw	s2,308(sp)
	sw	s3,304(sp)
	sw	s4,300(sp)
	sw	s5,296(sp)
	.cfi_offset 1, -4
	.cfi_offset 8, -8
	.cfi_offset 18, -12
	.cfi_offset 19, -16
	.cfi_offset 20, -20
	.cfi_offset 21, -24
	addi	s0,sp,320
	.cfi_def_cfa 8, 0
	sw	a0,-292(s0)
	sw	a1,-296(s0)
	sw	a2,-300(s0)
	sw	a3,-304(s0)
	sw	a4,-308(s0)
	sw	a5,-312(s0)
	sw	a6,-316(s0)
	.loc 1 52 11
	addi	a5,s0,-136
	sw	a5,-40(s0)
	.loc 1 53 12
	lw	a5,-40(s0)
	addi	a5,a5,64
	sw	a5,-44(s0)
	.loc 1 56 8
	lw	a4,-308(s0)
	li	a5,64
	ble	a4,a5,.L2
	.loc 1 58 9
	addi	a5,s0,-284
	li	a1,2
	mv	a0,a5
	call	bl_sha_init
	.loc 1 59 9
	lw	a4,-308(s0)
	addi	a5,s0,-284
	mv	a2,a4
	lw	a1,-304(s0)
	mv	a0,a5
	call	bl_sha_update
	.loc 1 60 9
	addi	a5,s0,-284
	lw	a1,-304(s0)
	mv	a0,a5
	call	bl_sha_finish
	.loc 1 62 17
	li	a5,20
	sw	a5,-308(s0)
.L2:
	.loc 1 78 5
	li	a2,64
	li	a1,0
	lw	a0,-40(s0)
	call	memset
	.loc 1 79 5
	lw	a5,-308(s0)
	mv	a2,a5
	lw	a1,-304(s0)
	lw	a0,-40(s0)
	call	memcpy
	.loc 1 82 12
	sw	zero,-36(s0)
	.loc 1 82 5
	j	.L3
.L4:
	.loc 1 84 28
	lw	a5,-36(s0)
	slli	a5,a5,3
	lw	a4,-40(s0)
	add	a5,a4,a5
	lw	a4,0(a5)
	lw	a5,4(a5)
	lw	a3,-36(s0)
	slli	a3,a3,3
	lw	a2,-40(s0)
	add	a3,a2,a3
	.loc 1 84 32
	li	a2,909520896
	addi	a2,a2,1590
	xor	s4,a4,a2
	li	a2,909520896
	addi	a2,a2,1590
	xor	s5,a5,a2
	sw	s4,0(a3)
	sw	s5,4(a3)
	.loc 1 82 25 discriminator 3
	lw	a5,-36(s0)
	addi	a5,a5,1
	sw	a5,-36(s0)
.L3:
	.loc 1 82 19 discriminator 1
	lw	a4,-36(s0)
	li	a5,7
	ble	a4,a5,.L4
	.loc 1 87 5
	addi	a5,s0,-284
	li	a1,2
	mv	a0,a5
	call	bl_sha_init
	.loc 1 88 5
	addi	a5,s0,-284
	li	a2,64
	lw	a1,-40(s0)
	mv	a0,a5
	call	bl_sha_update
	.loc 1 89 12
	sw	zero,-36(s0)
	.loc 1 89 5
	j	.L5
.L6:
	.loc 1 92 39
	lw	a5,-36(s0)
	slli	a5,a5,2
	lw	a4,-292(s0)
	add	a5,a4,a5
	.loc 1 92 9
	lw	a3,0(a5)
	.loc 1 92 52
	lw	a5,-36(s0)
	slli	a5,a5,2
	lw	a4,-296(s0)
	add	a5,a4,a5
	lw	a5,0(a5)
	.loc 1 92 9
	mv	a4,a5
	addi	a5,s0,-284
	mv	a2,a4
	mv	a1,a3
	mv	a0,a5
	call	bl_sha_update
	.loc 1 89 31 discriminator 3
	lw	a5,-36(s0)
	addi	a5,a5,1
	sw	a5,-36(s0)
.L5:
	.loc 1 89 19 discriminator 1
	lw	a4,-36(s0)
	lw	a5,-300(s0)
	blt	a4,a5,.L6
	.loc 1 95 5
	addi	a5,s0,-284
	lw	a1,-44(s0)
	mv	a0,a5
	call	bl_sha_finish
	.loc 1 99 5
	li	a2,64
	li	a1,0
	lw	a0,-40(s0)
	call	memset
	.loc 1 100 5
	lw	a5,-308(s0)
	mv	a2,a5
	lw	a1,-304(s0)
	lw	a0,-40(s0)
	call	memcpy
	.loc 1 103 12
	sw	zero,-36(s0)
	.loc 1 103 5
	j	.L7
.L8:
	.loc 1 105 28
	lw	a5,-36(s0)
	slli	a5,a5,3
	lw	a4,-40(s0)
	add	a5,a4,a5
	lw	a4,0(a5)
	lw	a5,4(a5)
	lw	a3,-36(s0)
	slli	a3,a3,3
	lw	a2,-40(s0)
	add	a3,a2,a3
	.loc 1 105 32
	li	a2,1549557760
	addi	a2,a2,-932
	xor	s2,a4,a2
	li	a2,1549557760
	addi	a2,a2,-932
	xor	s3,a5,a2
	sw	s2,0(a3)
	sw	s3,4(a3)
	.loc 1 103 25 discriminator 3
	lw	a5,-36(s0)
	addi	a5,a5,1
	sw	a5,-36(s0)
.L7:
	.loc 1 103 19 discriminator 1
	lw	a4,-36(s0)
	li	a5,7
	ble	a4,a5,.L8
	.loc 1 108 5
	addi	a5,s0,-284
	li	a1,2
	mv	a0,a5
	call	bl_sha_init
	.loc 1 109 5
	addi	a5,s0,-284
	li	a2,64
	lw	a1,-40(s0)
	mv	a0,a5
	call	bl_sha_update
	.loc 1 110 5
	addi	a5,s0,-284
	li	a2,20
	lw	a1,-44(s0)
	mv	a0,a5
	call	bl_sha_update
	.loc 1 111 5
	addi	a5,s0,-284
	lw	a1,-44(s0)
	mv	a0,a5
	call	bl_sha_finish
	.loc 1 112 5
	lw	a5,-316(s0)
	mv	a2,a5
	lw	a1,-44(s0)
	lw	a0,-312(s0)
	call	memcpy
	.loc 1 113 1
	nop
	lw	ra,316(sp)
	.cfi_restore 1
	lw	s0,312(sp)
	.cfi_restore 8
	.cfi_def_cfa 2, 320
	lw	s2,308(sp)
	.cfi_restore 18
	lw	s3,304(sp)
	.cfi_restore 19
	lw	s4,300(sp)
	.cfi_restore 20
	lw	s5,296(sp)
	.cfi_restore 21
	addi	sp,sp,320
	.cfi_def_cfa_offset 0
	jr	ra
	.cfi_endproc
.LFE2:
	.size	utils_hmac_sha1_fast, .-utils_hmac_sha1_fast
	.text
.Letext0:
	.file 2 "/home/chandu/sdk/bl602_iot_sdk/toolchain/compiler/lib/gcc/riscv32-unknown-elf/15.1.0/include/stdint-gcc.h"
	.file 3 "/home/chandu/sdk/bl602_iot_sdk/toolchain/compiler/lib/gcc/riscv32-unknown-elf/15.1.0/include/stddef.h"
	.file 4 "/home/chandu/sdk/bl602_iot_sdk/components/hal_drv/bl602_hal/bl_sec.h"
	.file 5 "/home/chandu/sdk/bl602_iot_sdk/toolchain/compiler/riscv32-unknown-elf/include/string.h"
	.section	.note.GNU-stack,"",@progbits
