	.file	"utils_hexdump.c"
	.option nopic
	.attribute arch, "rv32i2p1_m2p0_f2p2_c2p0_zicsr2p0_zmmul1p0_zca1p0_zcf1p0"
	.attribute unaligned_access, 0
	.attribute stack_align, 16
	.text
.Ltext0:
	.cfi_sections	.debug_frame
	.file 0 "/home/chandu/sdk/bl602_iot_sdk/customer_app/suas_app_pqkem_gateway/build_out/utils" "/home/chandu/sdk/bl602_iot_sdk/components/utils/src/utils_hexdump.c"
	.section	.rodata
	.align	2
.LC0:
	.string	"0x%06x: "
	.align	2
.LC1:
	.string	"%02x "
	.align	2
.LC2:
	.string	"   "
	.align	2
.LC3:
	.string	"\r\n"
	.section	.text.utils_hexdump,"ax",@progbits
	.align	1
	.globl	utils_hexdump
	.type	utils_hexdump, @function
utils_hexdump:
.LFB4:
	.file 1 "/home/chandu/sdk/bl602_iot_sdk/components/utils/src/utils_hexdump.c"
	.loc 1 42 1
	.cfi_startproc
	addi	sp,sp,-48
	.cfi_def_cfa_offset 48
	sw	ra,44(sp)
	sw	s0,40(sp)
	.cfi_offset 1, -4
	.cfi_offset 8, -8
	addi	s0,sp,48
	.cfi_def_cfa 8, 0
	sw	a0,-36(s0)
	sw	a1,-40(s0)
	.loc 1 45 12
	sw	zero,-20(s0)
	.loc 1 45 5
	j	.L2
.L14:
	.loc 1 47 15
	lw	a5,-20(s0)
	andi	a5,a5,15
	.loc 1 47 12
	bne	a5,zero,.L3
	.loc 1 48 13
	lw	a1,-20(s0)
	lui	a5,%hi(.LC0)
	addi	a0,a5,%lo(.LC0)
	call	printf
.L3:
	.loc 1 52 12
	lw	a4,-20(s0)
	lw	a5,-40(s0)
	bgeu	a4,a5,.L4
	.loc 1 53 48
	lw	a4,-36(s0)
	lw	a5,-20(s0)
	add	a5,a4,a5
	lbu	a5,0(a5)
	.loc 1 53 13
	mv	a1,a5
	lui	a5,%hi(.LC1)
	addi	a0,a5,%lo(.LC1)
	call	printf
	j	.L5
.L4:
	.loc 1 56 13
	lui	a5,%hi(.LC2)
	addi	a0,a5,%lo(.LC2)
	call	printf
.L5:
	.loc 1 60 15
	lw	a5,-20(s0)
	andi	a4,a5,15
	.loc 1 60 12
	li	a5,15
	bne	a4,a5,.L6
	.loc 1 61 20
	lw	a5,-20(s0)
	addi	a5,a5,-15
	sw	a5,-24(s0)
	.loc 1 61 13
	j	.L7
.L11:
	.loc 1 62 20
	lw	a4,-24(s0)
	lw	a5,-40(s0)
	bltu	a4,a5,.L8
	.loc 1 64 21
	li	a0,32
	call	bl_putchar
	j	.L9
.L8:
	.loc 1 65 43
	lw	a4,-36(s0)
	lw	a5,-24(s0)
	add	a5,a4,a5
	lbu	a5,0(a5)
	.loc 1 65 29
	addi	a4,a5,1
	lui	a5,%hi(_ctype_)
	addi	a5,a5,%lo(_ctype_)
	add	a5,a4,a5
	lbu	a5,0(a5)
	.loc 1 65 29
	andi	a5,a5,151
	.loc 1 65 26
	beq	a5,zero,.L10
	.loc 1 67 51
	lw	a4,-36(s0)
	lw	a5,-24(s0)
	add	a5,a4,a5
	lbu	a5,0(a5)
	.loc 1 67 21
	mv	a0,a5
	call	bl_putchar
	j	.L9
.L10:
	.loc 1 70 21
	li	a0,46
	call	bl_putchar
.L9:
	.loc 1 61 45 discriminator 2
	lw	a5,-24(s0)
	addi	a5,a5,1
	sw	a5,-24(s0)
.L7:
	.loc 1 61 38 discriminator 1
	lw	a4,-24(s0)
	lw	a5,-20(s0)
	bleu	a4,a5,.L11
	.loc 1 73 13
	lui	a5,%hi(.LC3)
	addi	a0,a5,%lo(.LC3)
	call	puts
.L6:
	.loc 1 45 64 discriminator 2
	lw	a5,-20(s0)
	addi	a5,a5,1
	sw	a5,-20(s0)
.L2:
	.loc 1 45 33 discriminator 1
	lw	a5,-40(s0)
	andi	a5,a5,15
	.loc 1 45 57 discriminator 1
	beq	a5,zero,.L12
	.loc 1 45 51 discriminator 3
	lw	a5,-40(s0)
	andi	a5,a5,15
	.loc 1 45 57 discriminator 3
	li	a4,16
	sub	a5,a4,a5
	j	.L13
.L12:
	.loc 1 45 57 is_stmt 0 discriminator 4
	li	a5,0
.L13:
	.loc 1 45 25 is_stmt 1 discriminator 6
	lw	a4,-40(s0)
	add	a5,a5,a4
	.loc 1 45 19 discriminator 6
	lw	a4,-20(s0)
	bltu	a4,a5,.L14
	.loc 1 76 1
	nop
	nop
	lw	ra,44(sp)
	.cfi_restore 1
	lw	s0,40(sp)
	.cfi_restore 8
	.cfi_def_cfa 2, 48
	addi	sp,sp,48
	.cfi_def_cfa_offset 0
	jr	ra
	.cfi_endproc
.LFE4:
	.size	utils_hexdump, .-utils_hexdump
	.text
.Letext0:
	.file 2 "/home/chandu/sdk/bl602_iot_sdk/toolchain/compiler/riscv32-unknown-elf/include/stdio.h"
	.file 3 "/home/chandu/sdk/bl602_iot_sdk/toolchain/compiler/riscv32-unknown-elf/include/ctype.h"
	.section	.note.GNU-stack,"",@progbits
