	.file	"utils_psk_fast.c"
	.option nopic
	.attribute arch, "rv32i2p1_m2p0_f2p2_c2p0_zicsr2p0_zmmul1p0_zca1p0_zcf1p0"
	.attribute unaligned_access, 0
	.attribute stack_align, 16
	.text
.Ltext0:
	.cfi_sections	.debug_frame
	.file 0 "/home/chandu/sdk/bl602_iot_sdk/customer_app/suas_app_pqkem_gateway/build_out/utils" "/home/chandu/sdk/bl602_iot_sdk/components/utils/src/utils_psk_fast.c"
	.section	.text.Bl_F_fast,"ax",@progbits
	.align	1
	.type	Bl_F_fast, @function
Bl_F_fast:
.LFB2:
	.file 1 "/home/chandu/sdk/bl602_iot_sdk/components/utils/src/utils_psk_fast.c"
	.loc 1 40 1
	.cfi_startproc
	addi	sp,sp,-80
	.cfi_def_cfa_offset 80
	sw	ra,76(sp)
	sw	s0,72(sp)
	.cfi_offset 1, -4
	.cfi_offset 8, -8
	addi	s0,sp,80
	.cfi_def_cfa 8, 0
	sw	a0,-52(s0)
	sw	a1,-56(s0)
	sw	a2,-60(s0)
	sw	a3,-64(s0)
	sw	a4,-68(s0)
	sw	a5,-72(s0)
	sw	a6,-76(s0)
	sw	a7,-80(s0)
	.loc 1 42 15
	lw	a0,-60(s0)
	call	strlen
	mv	a5,a0
	.loc 1 42 9 discriminator 1
	sw	a5,-28(s0)
	.loc 1 43 29
	lw	a5,-68(s0)
	addi	a5,a5,4
	.loc 1 43 9
	sw	a5,-32(s0)
	.loc 1 44 21
	lw	a5,-52(s0)
	sw	a5,-36(s0)
	.loc 1 47 5
	lw	a5,-68(s0)
	mv	a2,a5
	lw	a1,-64(s0)
	lw	a0,-52(s0)
	call	memcpy
	.loc 1 48 48
	lw	a5,-76(s0)
	srai	a3,a5,24
	.loc 1 48 11
	lw	a5,-68(s0)
	lw	a4,-52(s0)
	add	a5,a4,a5
	.loc 1 48 26
	andi	a4,a3,0xff
	.loc 1 48 24
	sb	a4,0(a5)
	.loc 1 49 50
	lw	a5,-76(s0)
	srai	a3,a5,16
	.loc 1 49 11
	lw	a5,-68(s0)
	addi	a5,a5,1
	lw	a4,-52(s0)
	add	a5,a4,a5
	.loc 1 49 28
	andi	a4,a3,0xff
	.loc 1 49 26
	sb	a4,0(a5)
	.loc 1 50 50
	lw	a5,-76(s0)
	srai	a3,a5,8
	.loc 1 50 11
	lw	a5,-68(s0)
	addi	a5,a5,2
	lw	a4,-52(s0)
	add	a5,a4,a5
	.loc 1 50 28
	andi	a4,a3,0xff
	.loc 1 50 26
	sb	a4,0(a5)
	.loc 1 51 11
	lw	a5,-68(s0)
	addi	a5,a5,3
	lw	a4,-52(s0)
	add	a5,a4,a5
	.loc 1 51 28
	lw	a4,-76(s0)
	andi	a4,a4,0xff
	.loc 1 51 26
	sb	a4,0(a5)
	.loc 1 53 5
	call	bl_sha_mutex_take
	.loc 1 54 5
	addi	a1,s0,-32
	addi	a0,s0,-36
	li	a6,20
	lw	a5,-56(s0)
	lw	a4,-28(s0)
	lw	a3,-60(s0)
	li	a2,1
	call	utils_hmac_sha1_fast
	.loc 1 63 5
	li	a2,20
	lw	a1,-56(s0)
	lw	a0,-80(s0)
	call	memcpy
	.loc 1 64 11
	lw	a5,-56(s0)
	sw	a5,-36(s0)
	.loc 1 65 12
	li	a5,1
	sw	a5,-20(s0)
	.loc 1 65 5
	j	.L2
.L5:
	.loc 1 67 16
	li	a5,20
	sw	a5,-32(s0)
	.loc 1 70 9
	addi	a1,s0,-32
	addi	a0,s0,-36
	li	a6,20
	lw	a5,-52(s0)
	lw	a4,-28(s0)
	lw	a3,-60(s0)
	li	a2,1
	call	utils_hmac_sha1_fast
	.loc 1 78 9
	li	a2,20
	lw	a1,-52(s0)
	lw	a0,-56(s0)
	call	memcpy
	.loc 1 81 16
	sw	zero,-24(s0)
	.loc 1 81 9
	j	.L3
.L4:
	.loc 1 83 19
	lw	a5,-24(s0)
	lw	a4,-80(s0)
	add	a5,a4,a5
	lbu	a3,0(a5)
	.loc 1 83 32
	lw	a5,-24(s0)
	lw	a4,-52(s0)
	add	a5,a4,a5
	lbu	a4,0(a5)
	.loc 1 83 19
	lw	a5,-24(s0)
	lw	a2,-80(s0)
	add	a5,a2,a5
	.loc 1 83 23
	xor	a4,a3,a4
	andi	a4,a4,0xff
	sb	a4,0(a5)
	.loc 1 81 30 discriminator 3
	lw	a5,-24(s0)
	addi	a5,a5,1
	sw	a5,-24(s0)
.L3:
	.loc 1 81 23 discriminator 1
	lw	a4,-24(s0)
	li	a5,19
	ble	a4,a5,.L4
	.loc 1 65 34 discriminator 2
	lw	a5,-20(s0)
	addi	a5,a5,1
	sw	a5,-20(s0)
.L2:
	.loc 1 65 19 discriminator 1
	lw	a4,-20(s0)
	lw	a5,-72(s0)
	blt	a4,a5,.L5
	.loc 1 86 5
	call	bl_sha_mutex_give
	.loc 1 87 1
	nop
	lw	ra,76(sp)
	.cfi_restore 1
	lw	s0,72(sp)
	.cfi_restore 8
	.cfi_def_cfa 2, 80
	addi	sp,sp,80
	.cfi_def_cfa_offset 0
	jr	ra
	.cfi_endproc
.LFE2:
	.size	Bl_F_fast, .-Bl_F_fast
	.section	.text.utils_wifi_psk_cal_fast_bin,"ax",@progbits
	.align	1
	.globl	utils_wifi_psk_cal_fast_bin
	.type	utils_wifi_psk_cal_fast_bin, @function
utils_wifi_psk_cal_fast_bin:
.LFB3:
	.loc 1 90 1
	.cfi_startproc
	addi	sp,sp,-96
	.cfi_def_cfa_offset 96
	sw	ra,92(sp)
	sw	s0,88(sp)
	.cfi_offset 1, -4
	.cfi_offset 8, -8
	addi	s0,sp,96
	.cfi_def_cfa 8, 0
	sw	a0,-84(s0)
	sw	a1,-88(s0)
	sw	a2,-92(s0)
	sw	a3,-96(s0)
	.loc 1 93 10
	lw	a0,-84(s0)
	call	strlen
	mv	a4,a0
	.loc 1 93 8 discriminator 1
	li	a5,63
	bgtu	a4,a5,.L7
	.loc 1 93 33 discriminator 2
	lw	a4,-92(s0)
	li	a5,32
	ble	a4,a5,.L8
.L7:
	.loc 1 94 16
	li	a5,-1
	j	.L10
.L8:
	.loc 1 97 5
	addi	a1,s0,-72
	addi	a0,s0,-52
	lw	a7,-96(s0)
	li	a6,2
	li	a5,4096
	lw	a4,-92(s0)
	lw	a3,-88(s0)
	lw	a2,-84(s0)
	call	Bl_F_fast
	.loc 1 98 19
	lw	a5,-96(s0)
	addi	a5,a5,20
	.loc 1 98 5
	li	a2,12
	lw	a1,-96(s0)
	mv	a0,a5
	call	memcpy
	.loc 1 99 5
	addi	a1,s0,-72
	addi	a0,s0,-52
	lw	a7,-96(s0)
	li	a6,1
	li	a5,4096
	lw	a4,-92(s0)
	lw	a3,-88(s0)
	lw	a2,-84(s0)
	call	Bl_F_fast
	.loc 1 101 12
	li	a5,0
.L10:
	.loc 1 102 1
	mv	a0,a5
	lw	ra,92(sp)
	.cfi_restore 1
	lw	s0,88(sp)
	.cfi_restore 8
	.cfi_def_cfa 2, 96
	addi	sp,sp,96
	.cfi_def_cfa_offset 0
	jr	ra
	.cfi_endproc
.LFE3:
	.size	utils_wifi_psk_cal_fast_bin, .-utils_wifi_psk_cal_fast_bin
	.section	.text.utils_wifi_psk_cal_fast,"ax",@progbits
	.align	1
	.globl	utils_wifi_psk_cal_fast
	.type	utils_wifi_psk_cal_fast, @function
utils_wifi_psk_cal_fast:
.LFB4:
	.loc 1 105 1
	.cfi_startproc
	addi	sp,sp,-80
	.cfi_def_cfa_offset 80
	sw	ra,76(sp)
	sw	s0,72(sp)
	.cfi_offset 1, -4
	.cfi_offset 8, -8
	addi	s0,sp,80
	.cfi_def_cfa 8, 0
	sw	a0,-68(s0)
	sw	a1,-72(s0)
	sw	a2,-76(s0)
	sw	a3,-80(s0)
	.loc 1 109 11
	addi	a5,s0,-52
	mv	a3,a5
	lw	a2,-76(s0)
	lw	a1,-72(s0)
	lw	a0,-68(s0)
	call	utils_wifi_psk_cal_fast_bin
	sw	a0,-20(s0)
	.loc 1 110 8
	lw	a5,-20(s0)
	bne	a5,zero,.L12
	.loc 1 111 9
	addi	a5,s0,-52
	li	a2,32
	mv	a1,a5
	lw	a0,-80(s0)
	call	utils_bin2hex
.L12:
	.loc 1 114 12
	lw	a5,-20(s0)
	.loc 1 115 1
	mv	a0,a5
	lw	ra,76(sp)
	.cfi_restore 1
	lw	s0,72(sp)
	.cfi_restore 8
	.cfi_def_cfa 2, 80
	addi	sp,sp,80
	.cfi_def_cfa_offset 0
	jr	ra
	.cfi_endproc
.LFE4:
	.size	utils_wifi_psk_cal_fast, .-utils_wifi_psk_cal_fast
	.text
.Letext0:
	.file 2 "/home/chandu/sdk/bl602_iot_sdk/components/hal_drv/bl602_hal/bl_sec.h"
	.file 3 "/home/chandu/sdk/bl602_iot_sdk/components/utils/include/utils_hex.h"
	.file 4 "/home/chandu/sdk/bl602_iot_sdk/toolchain/compiler/riscv32-unknown-elf/include/string.h"
	.file 5 "/home/chandu/sdk/bl602_iot_sdk/toolchain/compiler/lib/gcc/riscv32-unknown-elf/15.1.0/include/stddef.h"
	.file 6 "/home/chandu/sdk/bl602_iot_sdk/components/utils/include/utils_hmac_sha1_fast.h"
	.section	.note.GNU-stack,"",@progbits
