	.file	"bridgeif_fdb.c"
	.option nopic
	.attribute arch, "rv32i2p1_m2p0_f2p2_c2p0_zicsr2p0_zmmul1p0_zca1p0_zcf1p0"
	.attribute unaligned_access, 0
	.attribute stack_align, 16
	.text
.Ltext0:
	.cfi_sections	.debug_frame
	.section	.text.bridgeif_age_tmr,"ax",@progbits
	.align	1
	.type	bridgeif_age_tmr, @function
bridgeif_age_tmr:
.LVL0:
.LFB54:
.LM1:
	.cfi_startproc
.LM2:
.LM3:
	mv	a2,a0
.LVL1:
.LM4:
.LM5:
.LM6:
.LBB5:
.LBI5:
.LM7:
.LBB6:
.LM8:
.LM9:
.LM10:
.LM11:
.LM12:
.LM13:
.LM14:
	li	a3,0
.LVL2:
.L2:
.LM15:
.LM16:
	lhu	a5,0(a2)
.LM17:
	blt	a3,a5,.L6
.LM18:
.LVL3:
.LM19:
.LBE6:
.LBE5:
.LM20:
	lui	a1,%hi(bridgeif_age_tmr)
	addi	a1,a1,%lo(bridgeif_age_tmr)
	li	a0,1000
.LVL4:
.LM21:
	tail	sys_timeout
.LVL5:
.L6:
.LBB9:
.LBB8:
.LBB7:
.LM22:
.LM23:
	lw	a5,4(a2)
	slli	a4,a3,4
	add	a5,a5,a4
.LVL6:
.LM24:
.LM25:
	lbu	a4,0(a5)
	beq	a4,zero,.L4
.LM26:
	lw	a4,4(a5)
.LM27:
	beq	a4,zero,.L4
.LM28:
.LM29:
.LM30:
.LM31:
	addi	a4,a4,-1
.LM32:
	sw	a4,4(a5)
	bne	a4,zero,.L4
.LM33:
.LM34:
	sb	zero,0(a5)
.L4:
.LM35:
.LBE7:
.LM36:
	addi	a3,a3,1
.LVL7:
.LM37:
	j	.L2
.LBE8:
.LBE9:
	.cfi_endproc
.LFE54:
	.size	bridgeif_age_tmr, .-bridgeif_age_tmr
	.section	.text.bridgeif_fdb_update_src,"ax",@progbits
	.align	1
	.globl	bridgeif_fdb_update_src
	.type	bridgeif_fdb_update_src, @function
bridgeif_fdb_update_src:
.LVL8:
.LFB51:
.LM38:
	.cfi_startproc
.LM39:
.LM40:
.LM41:
	addi	sp,sp,-48
	.cfi_def_cfa_offset 48
	sw	s1,36(sp)
	sw	s2,32(sp)
	sw	s3,28(sp)
	sw	ra,44(sp)
	sw	s0,40(sp)
	.cfi_offset 9, -12
	.cfi_offset 18, -16
	.cfi_offset 19, -20
	.cfi_offset 1, -4
	.cfi_offset 8, -8
.LM42:
	mv	s2,a0
.LVL9:
.LM43:
.LM44:
.LM45:
.LM46:
	mv	s3,a2
.LM47:
	li	s1,0
.LVL10:
.L11:
.LM48:
.LM49:
	lhu	a3,0(s2)
.LM50:
	bgt	a3,s1,.L14
.LM51:
	li	a5,0
.LVL11:
.L15:
.LM52:
	beq	a3,a5,.L10
.LBB10:
.LM53:
.LM54:
	lw	s0,4(s2)
	slli	a4,a5,4
	add	s0,s0,a4
.LVL12:
.LM55:
.LM56:
	lbu	a4,0(s0)
	beq	a4,zero,.L16
.LM57:
	lw	a4,4(s0)
	bne	a4,zero,.L17
.L16:
.LM58:
.LM59:
.LM60:
.LM61:
	li	a2,6
	addi	a0,s0,8
	call	memcpy
.LVL13:
.LM62:
.LM63:
	li	a5,300
	sw	a5,4(s0)
.LM64:
.LM65:
	li	a5,1
.LM66:
	sb	s3,1(s0)
.LM67:
.LM68:
	sb	a5,0(s0)
.LM69:
.LM70:
.LM71:
	j	.L10
.LVL14:
.L14:
.LM72:
.LBE10:
.LBB11:
.LM73:
.LM74:
	lw	s0,4(s2)
	slli	a5,s1,4
	add	s0,s0,a5
.LVL15:
.LM75:
.LM76:
	lbu	a5,0(s0)
	beq	a5,zero,.L12
.LM77:
	lw	a5,4(s0)
	beq	a5,zero,.L12
.LM78:
.LM79:
	li	a2,6
	addi	a0,s0,8
	sw	a1,12(sp)
	call	memcmp
.LVL16:
.LM80:
	lw	a1,12(sp)
	bne	a0,zero,.L12
.LM81:
.LM82:
.LM83:
.LM84:
	li	a5,300
	sw	a5,4(s0)
.LM85:
.LM86:
	sb	s3,1(s0)
.LM87:
.LM88:
.LM89:
.LVL17:
.L10:
.LM90:
.LBE11:
.LM91:
	lw	ra,44(sp)
	.cfi_remember_state
	.cfi_restore 1
	lw	s0,40(sp)
	.cfi_restore 8
	lw	s1,36(sp)
	.cfi_restore 9
	lw	s2,32(sp)
	.cfi_restore 18
.LVL18:
.LM92:
	lw	s3,28(sp)
	.cfi_restore 19
.LVL19:
.LM93:
	addi	sp,sp,48
	.cfi_def_cfa_offset 0
	jr	ra
.LVL20:
.L12:
	.cfi_restore_state
.LM94:
	addi	s1,s1,1
.LVL21:
.LM95:
	j	.L11
.LVL22:
.L17:
.LBB12:
.LM96:
.LBE12:
.LM97:
	addi	a5,a5,1
.LVL23:
.LM98:
	j	.L15
	.cfi_endproc
.LFE51:
	.size	bridgeif_fdb_update_src, .-bridgeif_fdb_update_src
	.section	.text.bridgeif_fdb_get_dst_ports,"ax",@progbits
	.align	1
	.globl	bridgeif_fdb_get_dst_ports
	.type	bridgeif_fdb_get_dst_ports, @function
bridgeif_fdb_get_dst_ports:
.LVL24:
.LFB52:
.LM99:
	.cfi_startproc
.LM100:
.LM101:
.LM102:
	addi	sp,sp,-32
	.cfi_def_cfa_offset 32
	sw	s1,20(sp)
	sw	s2,16(sp)
	sw	ra,28(sp)
	sw	s0,24(sp)
	.cfi_offset 9, -12
	.cfi_offset 18, -16
	.cfi_offset 1, -4
	.cfi_offset 8, -8
.LM103:
	mv	s2,a0
.LVL25:
.LM104:
.LM105:
.LM106:
.LM107:
	li	s1,0
.LVL26:
.L30:
.LM108:
.LM109:
	lhu	a5,0(s2)
.LM110:
	bgt	a5,s1,.L33
.LM111:
	li	a0,255
	j	.L32
.L33:
.LBB13:
.LM112:
.LM113:
	lw	s0,4(s2)
	slli	a5,s1,4
	add	s0,s0,a5
.LVL27:
.LM114:
.LM115:
	lbu	a5,0(s0)
	beq	a5,zero,.L31
.LM116:
	lw	a5,4(s0)
	beq	a5,zero,.L31
.LM117:
.LM118:
	li	a2,6
	addi	a0,s0,8
	sw	a1,12(sp)
	call	memcmp
.LVL28:
.LM119:
	lw	a1,12(sp)
	bne	a0,zero,.L31
.LBB14:
.LM120:
.LM121:
	lbu	a5,1(s0)
.LM122:
	li	a0,1
	sll	a0,a0,a5
.LM123:
	andi	a0,a0,0xff
.LVL29:
.LM124:
.LM125:
.L32:
.LM126:
.LBE14:
.LBE13:
.LM127:
	lw	ra,28(sp)
	.cfi_remember_state
	.cfi_restore 1
	lw	s0,24(sp)
	.cfi_restore 8
	lw	s1,20(sp)
	.cfi_restore 9
.LVL30:
.LM128:
	lw	s2,16(sp)
	.cfi_restore 18
.LVL31:
.LM129:
	addi	sp,sp,32
	.cfi_def_cfa_offset 0
	jr	ra
.LVL32:
.L31:
	.cfi_restore_state
.LM130:
	addi	s1,s1,1
.LVL33:
.LM131:
	j	.L30
	.cfi_endproc
.LFE52:
	.size	bridgeif_fdb_get_dst_ports, .-bridgeif_fdb_get_dst_ports
	.section	.text.bridgeif_fdb_init,"ax",@progbits
	.align	1
	.globl	bridgeif_fdb_init
	.type	bridgeif_fdb_init, @function
bridgeif_fdb_init:
.LVL34:
.LFB55:
.LM132:
	.cfi_startproc
.LM133:
.LM134:
.LM135:
.LM136:
.LM137:
.LM138:
.LM139:
.LM140:
	slli	a1,a0,4
.LM141:
	addi	a1,a1,8
.LM142:
	addi	sp,sp,-32
	.cfi_def_cfa_offset 32
.LM143:
	slli	a1,a1,16
.LM144:
	sw	s0,24(sp)
.LM145:
	srli	a1,a1,16
	.cfi_offset 8, -8
.LM146:
	mv	s0,a0
.LM147:
	li	a0,1
.LVL35:
.LM148:
	sw	ra,28(sp)
	.cfi_offset 1, -4
.LM149:
	call	mem_calloc
.LVL36:
	mv	a2,a0
.LVL37:
.LM150:
.LM151:
	beq	a0,zero,.L41
.LM152:
.LM153:
	addi	a5,a0,8
.LM154:
	lui	a1,%hi(bridgeif_age_tmr)
.LM155:
	sh	s0,0(a0)
.LM156:
.LM157:
	sw	a5,4(a0)
.LM158:
	sw	a0,12(sp)
	addi	a1,a1,%lo(bridgeif_age_tmr)
	li	a0,1000
.LVL38:
.LM159:
	call	sys_timeout
.LVL39:
.LM160:
	lw	a2,12(sp)
.LM161:
.LVL40:
.L41:
.LM162:
	lw	ra,28(sp)
	.cfi_restore 1
	lw	s0,24(sp)
	.cfi_restore 8
.LVL41:
.LM163:
	mv	a0,a2
	addi	sp,sp,32
	.cfi_def_cfa_offset 0
	jr	ra
	.cfi_endproc
.LFE55:
	.size	bridgeif_fdb_init, .-bridgeif_fdb_init
	.text
.Letext0:
	.section	.note.GNU-stack,"",@progbits
