	.file	"slipif.c"
	.option nopic
	.attribute arch, "rv32i2p1_m2p0_f2p2_c2p0_zicsr2p0_zmmul1p0_zca1p0_zcf1p0"
	.attribute unaligned_access, 0
	.attribute stack_align, 16
	.text
.Ltext0:
	.cfi_sections	.debug_frame
	.section	.text.slipif_rxbyte_input,"ax",@progbits
	.align	1
	.type	slipif_rxbyte_input, @function
slipif_rxbyte_input:
.LVL0:
.LFB54:
.LM1:
	.cfi_startproc
.LM2:
.LM3:
.LM4:
	addi	sp,sp,-16
	.cfi_def_cfa_offset 16
	sw	s1,4(sp)
	sw	ra,12(sp)
	sw	s0,8(sp)
	sw	s2,0(sp)
	.cfi_offset 9, -12
	.cfi_offset 1, -4
	.cfi_offset 8, -8
	.cfi_offset 18, -16
	lw	s0,36(a0)
.LVL1:
.LBB4:
.LBI4:
.LM5:
.LBB5:
.LM6:
.LM7:
.LM8:
.LM9:
.LM10:
.LM11:
.LM12:
.LM13:
.LBE5:
.LBE4:
.LM14:
	mv	s1,a1
.LBB11:
.LBB6:
.LM15:
	lbu	a5,12(s0)
.LM16:
	beq	a5,zero,.L2
	li	a4,1
	beq	a5,a4,.L3
.LVL2:
.L4:
.LM17:
.LM18:
	lw	a5,4(s0)
	bne	a5,zero,.L12
.LM19:
.LM20:
.LM21:
	li	a1,618
.LVL3:
.LM22:
	li	a2,386
	li	a0,142
.LVL4:
.LM23:
	call	pbuf_alloc
.LVL5:
.LM24:
	sw	a0,4(s0)
.LM25:
.LM26:
	mv	a1,a0
.LM27:
	bne	a0,zero,.L13
.LM28:
	lui	a5,%hi(lwip_stats)
	addi	a5,a5,%lo(lwip_stats)
	lhu	a4,6(a5)
	addi	a4,a4,1
	sh	a4,6(a5)
.LM29:
.LM30:
.LVL6:
.LM31:
.LBE6:
.LBE11:
.LM32:
	j	.L1
.LVL7:
.L2:
.LBB12:
.LBB7:
.LM33:
	li	a5,192
	beq	a1,a5,.L5
	li	a5,219
	bne	a1,a5,.L4
.LM34:
.LM35:
	li	a5,1
	sb	a5,12(s0)
.LM36:
.LVL8:
.LM37:
.LBE7:
.LBE12:
.LM38:
	j	.L1
.LVL9:
.L5:
.LBB13:
.LBB8:
.LM39:
.LM40:
	lhu	a1,16(s0)
.LVL10:
.LM41:
	beq	a1,zero,.L1
	mv	s2,a0
.LM42:
	lw	a0,8(s0)
.LVL11:
.LM43:
	call	pbuf_realloc
.LVL12:
.LM44:
	lui	a5,%hi(lwip_stats)
	addi	a5,a5,%lo(lwip_stats)
	lhu	a4,2(a5)
.LM45:
	lw	s1,8(s0)
.LVL13:
.LM46:
	sw	zero,4(s0)
.LM47:
	addi	a4,a4,1
	sh	a4,2(a5)
.LM48:
.LM49:
.LVL14:
.LM50:
.LM51:
.LM52:
	sw	zero,8(s0)
.LM53:
	sh	zero,16(s0)
.LM54:
	sh	zero,14(s0)
.LM55:
.LVL15:
.LM56:
.LBE8:
.LBE13:
.LM57:
.LM58:
	bne	s1,zero,.L9
.LVL16:
.L1:
.LM59:
	lw	ra,12(sp)
	.cfi_remember_state
	.cfi_restore 1
	lw	s0,8(sp)
	.cfi_restore 8
	lw	s1,4(sp)
	.cfi_restore 9
	lw	s2,0(sp)
	.cfi_restore 18
	addi	sp,sp,16
	.cfi_def_cfa_offset 0
	jr	ra
.LVL17:
.L3:
	.cfi_restore_state
.LBB14:
.LBB9:
.LM60:
	li	a5,220
	beq	a1,a5,.L16
	li	a5,221
	beq	a1,a5,.L17
.L11:
.LVL18:
.LM61:
.LM62:
	sb	zero,12(s0)
.LM63:
	j	.L4
.LVL19:
.L16:
.LM64:
	li	s1,192
	j	.L11
.L17:
.LM65:
	li	s1,219
	j	.L11
.LVL20:
.L13:
.LM66:
.LM67:
	lw	a0,8(s0)
.LM68:
	beq	a0,zero,.L14
.LM69:
	call	pbuf_cat
.LVL21:
.L12:
.LM70:
.LM71:
	lw	a5,4(s0)
.LM72:
	beq	a5,zero,.L1
.LM73:
	lhu	a3,16(s0)
	li	a4,1500
	bgtu	a3,a4,.L1
.LM74:
.LM75:
	lhu	a4,14(s0)
.LM76:
	lw	a5,4(a5)
	add	a5,a5,a4
	sb	s1,0(a5)
.LM77:
.LM78:
	lhu	a5,16(s0)
.LM79:
	lw	a4,4(s0)
.LM80:
	addi	a5,a5,1
	sh	a5,16(s0)
.LM81:
.LM82:
	lhu	a5,14(s0)
	addi	a5,a5,1
	slli	a5,a5,16
	srli	a5,a5,16
	sh	a5,14(s0)
.LM83:
.LM84:
	lhu	a3,10(a4)
	bgtu	a3,a5,.L1
.LM85:
.LM86:
	sh	zero,14(s0)
.LM87:
.LM88:
	lw	a5,0(a4)
.LM89:
	beq	a5,zero,.L15
.LM90:
	lhu	a4,10(a5)
	beq	a4,zero,.L15
.LM91:
.LM92:
	sw	a5,4(s0)
.LVL22:
.LM93:
.LBE9:
.LBE14:
.LM94:
	j	.L1
.LVL23:
.L14:
.LBB15:
.LBB10:
.LM95:
.LM96:
	sw	a1,8(s0)
	j	.L12
.L15:
.LM97:
.LM98:
	sw	zero,4(s0)
.LVL24:
.LM99:
.LBE10:
.LBE15:
.LM100:
	j	.L1
.LVL25:
.L9:
.LM101:
.LM102:
	lw	a5,16(s2)
	mv	a1,s2
	mv	a0,s1
	jalr	a5
.LVL26:
.LM103:
	beq	a0,zero,.L1
.LM104:
.LM105:
	lw	s0,8(sp)
	.cfi_restore 8
	lw	ra,12(sp)
	.cfi_restore 1
	lw	s2,0(sp)
	.cfi_restore 18
.LVL27:
.LM106:
	mv	a0,s1
.LM107:
	lw	s1,4(sp)
	.cfi_restore 9
.LVL28:
.LM108:
	addi	sp,sp,16
	.cfi_def_cfa_offset 0
.LM109:
	tail	pbuf_free
.LVL29:
.LM110:
	.cfi_endproc
.LFE54:
	.size	slipif_rxbyte_input, .-slipif_rxbyte_input
	.section	.text.slipif_loop_thread,"ax",@progbits
	.align	1
	.type	slipif_loop_thread, @function
slipif_loop_thread:
.LVL30:
.LFB55:
.LM111:
	.cfi_startproc
.LM112:
.LM113:
.LM114:
.LM115:
	addi	sp,sp,-32
	.cfi_def_cfa_offset 32
	sw	s1,20(sp)
	sw	ra,28(sp)
	sw	s0,24(sp)
	.cfi_offset 9, -12
	.cfi_offset 1, -4
	.cfi_offset 8, -8
.LM116:
	lw	s0,36(a0)
.LVL31:
.LM117:
	mv	s1,a0
.LVL32:
.L32:
.LM118:
.LM119:
.LM120:
	lw	a0,0(s0)
	li	a2,1
	addi	a1,sp,15
	call	sio_read
.LVL33:
.LM121:
	beq	a0,zero,.L32
.LM122:
	lbu	a1,15(sp)
	mv	a0,s1
	call	slipif_rxbyte_input
.LVL34:
	j	.L32
	.cfi_endproc
.LFE55:
	.size	slipif_loop_thread, .-slipif_loop_thread
	.section	.text.slipif_output_v4,"ax",@progbits
	.align	1
	.type	slipif_output_v4, @function
slipif_output_v4:
.LVL35:
.LFB52:
.LM123:
	.cfi_startproc
.LM124:
.LM125:
.LM126:
	addi	sp,sp,-32
	.cfi_def_cfa_offset 32
	sw	s0,24(sp)
	sw	s3,12(sp)
	sw	s4,8(sp)
	sw	ra,28(sp)
	sw	s1,20(sp)
	sw	s2,16(sp)
	.cfi_offset 8, -8
	.cfi_offset 19, -20
	.cfi_offset 20, -24
	.cfi_offset 1, -4
	.cfi_offset 9, -12
	.cfi_offset 18, -16
	lw	s2,36(a0)
.LM127:
	mv	s0,a1
.LVL36:
.LBB18:
.LBI18:
.LM128:
.LBB19:
.LM129:
.LM130:
.LM131:
.LM132:
.LM133:
.LM134:
.LM135:
.LM136:
.LM137:
.LM138:
.LM139:
.LM140:
.LM141:
	li	a0,192
.LVL37:
.LM142:
	lw	a1,0(s2)
.LVL38:
.LM143:
	li	s4,192
.LM144:
	li	s3,219
.LM145:
	call	sio_send
.LVL39:
.LM146:
.L38:
.LM147:
	bne	s0,zero,.L45
.LM148:
	lw	a1,0(s2)
	li	a0,192
	call	sio_send
.LVL40:
.LM149:
.LM150:
.LBE19:
.LBE18:
.LM151:
	lw	ra,28(sp)
	.cfi_remember_state
	.cfi_restore 1
	lw	s0,24(sp)
	.cfi_restore 8
	lw	s1,20(sp)
	.cfi_restore 9
	lw	s2,16(sp)
	.cfi_restore 18
	lw	s3,12(sp)
	.cfi_restore 19
	lw	s4,8(sp)
	.cfi_restore 20
	li	a0,0
	addi	sp,sp,32
	.cfi_def_cfa_offset 0
	jr	ra
.LVL41:
.L43:
	.cfi_restore_state
.LBB21:
.LBB20:
.LM152:
.LM153:
	lw	a5,4(s0)
.LM154:
	lw	a1,0(s2)
.LM155:
	add	a5,a5,s1
	lbu	a0,0(a5)
.LVL42:
.LM156:
	beq	a0,s4,.L39
	beq	a0,s3,.L40
.LVL43:
.L46:
.LM157:
.LM158:
	addi	s1,s1,1
.LVL44:
.LM159:
	slli	s1,s1,16
.LM160:
	call	sio_send
.LVL45:
.LM161:
.LM162:
	srli	s1,s1,16
.LVL46:
.L44:
.LM163:
	lhu	a5,10(s0)
	bgtu	a5,s1,.L43
.LM164:
	lw	s0,0(s0)
.LVL47:
.LM165:
	j	.L38
.LVL48:
.L39:
.LM166:
	li	a0,219
.LVL49:
.LM167:
	call	sio_send
.LVL50:
.LM168:
	lw	a1,0(s2)
	li	a0,220
	j	.L46
.LVL51:
.L40:
.LM169:
	call	sio_send
.LVL52:
.LM170:
	lw	a1,0(s2)
	li	a0,221
	j	.L46
.LVL53:
.L45:
.LM171:
	li	s1,0
	j	.L44
.LBE20:
.LBE21:
	.cfi_endproc
.LFE52:
	.size	slipif_output_v4, .-slipif_output_v4
	.section	.rodata.slipif_init.str1.4,"aMS",@progbits,1
	.align	2
.LC0:
	.string	"slipif_loop"
	.section	.text.slipif_init,"ax",@progbits
	.align	1
	.globl	slipif_init
	.type	slipif_init, @function
slipif_init:
.LVL54:
.LFB56:
.LM172:
	.cfi_startproc
.LM173:
.LM174:
.LM175:
.LM176:
.LM177:
.LM178:
	addi	sp,sp,-16
	.cfi_def_cfa_offset 16
	sw	s1,4(sp)
	sw	ra,12(sp)
	sw	s0,8(sp)
	sw	s2,0(sp)
	.cfi_offset 9, -12
	.cfi_offset 1, -4
	.cfi_offset 8, -8
	.cfi_offset 18, -16
.LM179:
	lw	s2,36(a0)
.LVL55:
.LM180:
.LM181:
.LM182:
	mv	s1,a0
.LM183:
	li	a0,20
.LVL56:
.LM184:
	call	mem_malloc
.LVL57:
.LM185:
.LM186:
	beq	a0,zero,.L51
.LM187:
	li	a5,28672
	addi	a5,a5,-909
	sh	a5,70(s1)
.LM188:
	lui	a5,%hi(slipif_output_v4)
	addi	a5,a5,%lo(slipif_output_v4)
	sw	a5,20(s1)
.LM189:
	li	a5,1500
	mv	s0,a0
.LM190:
.LM191:
.LM192:
.LM193:
.LM194:
	sh	a5,60(s1)
.LM195:
.LM196:
	andi	a0,s2,0xff
.LVL58:
.LM197:
	call	sio_open
.LVL59:
.LM198:
	sw	a0,0(s0)
.LM199:
.LM200:
	bne	a0,zero,.L50
.LM201:
	mv	a0,s0
	call	mem_free
.LVL60:
.LM202:
.LM203:
	li	a0,-12
.LVL61:
.L49:
.LM204:
	lw	ra,12(sp)
	.cfi_remember_state
	.cfi_restore 1
	lw	s0,8(sp)
	.cfi_restore 8
	lw	s1,4(sp)
	.cfi_restore 9
.LVL62:
.LM205:
	lw	s2,0(sp)
	.cfi_restore 18
.LVL63:
.LM206:
	addi	sp,sp,16
	.cfi_def_cfa_offset 0
	jr	ra
.LVL64:
.L50:
	.cfi_restore_state
.LM207:
.LM208:
	sw	zero,4(s0)
.LM209:
.LM210:
	sw	zero,8(s0)
.LM211:
.LM212:
	sb	zero,12(s0)
.LM213:
.LM214:
	sh	zero,14(s0)
.LM215:
.LM216:
	sh	zero,16(s0)
.LM217:
.LM218:
	lui	a1,%hi(slipif_loop_thread)
	lui	a0,%hi(.LC0)
.LM219:
	sw	s0,36(s1)
.LM220:
.LM221:
	li	a4,1
	li	a3,0
	mv	a2,s1
	addi	a1,a1,%lo(slipif_loop_thread)
	addi	a0,a0,%lo(.LC0)
	call	sys_thread_new
.LVL65:
.LM222:
.LM223:
	li	a0,0
	j	.L49
.LVL66:
.L51:
.LM224:
	li	a0,-1
.LVL67:
.LM225:
	j	.L49
	.cfi_endproc
.LFE56:
	.size	slipif_init, .-slipif_init
	.section	.text.slipif_poll,"ax",@progbits
	.align	1
	.globl	slipif_poll
	.type	slipif_poll, @function
slipif_poll:
.LVL68:
.LFB57:
.LM226:
	.cfi_startproc
.LM227:
.LM228:
.LM229:
.LM230:
.LM231:
.LM232:
.LM233:
.LM234:
	addi	sp,sp,-32
	.cfi_def_cfa_offset 32
	sw	s1,20(sp)
	sw	ra,28(sp)
	sw	s0,24(sp)
	.cfi_offset 9, -12
	.cfi_offset 1, -4
	.cfi_offset 8, -8
.LM235:
	lw	s0,36(a0)
.LVL69:
.LM236:
.LM237:
	mv	s1,a0
.LVL70:
.L54:
.LM238:
.LM239:
	lw	a0,0(s0)
	li	a2,1
	addi	a1,sp,15
	call	sio_tryread
.LVL71:
.LM240:
	bne	a0,zero,.L55
.LM241:
	lw	ra,28(sp)
	.cfi_remember_state
	.cfi_restore 1
	lw	s0,24(sp)
	.cfi_restore 8
.LVL72:
.LM242:
	lw	s1,20(sp)
	.cfi_restore 9
.LVL73:
.LM243:
	addi	sp,sp,32
	.cfi_def_cfa_offset 0
	jr	ra
.LVL74:
.L55:
	.cfi_restore_state
.LM244:
	lbu	a1,15(sp)
	mv	a0,s1
	call	slipif_rxbyte_input
.LVL75:
	j	.L54
	.cfi_endproc
.LFE57:
	.size	slipif_poll, .-slipif_poll
	.text
.Letext0:
	.section	.note.GNU-stack,"",@progbits
