	.file	"api_lib.c"
	.option nopic
	.attribute arch, "rv32i2p1_m2p0_f2p2_c2p0_zicsr2p0_zmmul1p0_zca1p0_zcf1p0"
	.attribute unaligned_access, 0
	.attribute stack_align, 16
	.text
.Ltext0:
	.cfi_sections	.debug_frame
	.file 0 "/home/chandu/sdk/bl602_iot_sdk/customer_app/suas_app_pqkem_gateway/build_out/lwip" "/home/chandu/sdk/bl602_iot_sdk/components/network/lwip/src/api/api_lib.c"
	.section	.text.netconn_apimsg,"ax",@progbits
	.align	1
	.type	netconn_apimsg, @function
netconn_apimsg:
.LFB6:
	.file 1 "/home/chandu/sdk/bl602_iot_sdk/components/network/lwip/src/api/api_lib.c"
	.loc 1 119 1
	.cfi_startproc
	addi	sp,sp,-48
	.cfi_def_cfa_offset 48
	sw	ra,44(sp)
	sw	s0,40(sp)
	.cfi_offset 1, -4
	.cfi_offset 8, -8
	addi	s0,sp,48
	.cfi_def_cfa 8, 0
	sw	a0,-36(s0)
	sw	a1,-40(s0)
	.loc 1 131 55
	lw	a5,-40(s0)
	lw	a5,0(a5)
	.loc 1 131 9
	addi	a5,a5,12
	mv	a2,a5
	lw	a1,-40(s0)
	lw	a0,-36(s0)
	call	tcpip_send_msg_wait_sem
	mv	a5,a0
	sb	a5,-17(s0)
	.loc 1 132 6
	lb	a5,-17(s0)
	bne	a5,zero,.L2
	.loc 1 133 18
	lw	a5,-40(s0)
	lb	a5,4(a5)
	j	.L3
.L2:
	.loc 1 135 10
	lb	a5,-17(s0)
.L3:
	.loc 1 136 1
	mv	a0,a5
	lw	ra,44(sp)
	.cfi_restore 1
	lw	s0,40(sp)
	.cfi_restore 8
	.cfi_def_cfa 2, 48
	addi	sp,sp,48
	.cfi_def_cfa_offset 0
	jr	ra
	.cfi_endproc
.LFE6:
	.size	netconn_apimsg, .-netconn_apimsg
	.section	.text.netconn_new_with_proto_and_callback,"ax",@progbits
	.align	1
	.globl	netconn_new_with_proto_and_callback
	.type	netconn_new_with_proto_and_callback, @function
netconn_new_with_proto_and_callback:
.LFB7:
	.loc 1 150 1
	.cfi_startproc
	addi	sp,sp,-80
	.cfi_def_cfa_offset 80
	sw	ra,76(sp)
	sw	s0,72(sp)
	.cfi_offset 1, -4
	.cfi_offset 8, -8
	addi	s0,sp,80
	.cfi_def_cfa 8, 0
	mv	a5,a0
	mv	a4,a1
	sw	a2,-72(s0)
	sb	a5,-65(s0)
	mv	a5,a4
	sb	a5,-66(s0)
	.loc 1 155 10
	lbu	a5,-65(s0)
	lw	a1,-72(s0)
	mv	a0,a5
	call	netconn_alloc
	sw	a0,-20(s0)
	.loc 1 156 6
	lw	a5,-20(s0)
	beq	a5,zero,.L5
.LBB2:
	.loc 1 159 21
	lbu	a5,-66(s0)
	sb	a5,-52(s0)
	.loc 1 160 14
	lw	a5,-20(s0)
	sw	a5,-60(s0)
	.loc 1 161 11
	addi	a5,s0,-60
	mv	a1,a5
	lui	a5,%hi(lwip_netconn_do_newconn)
	addi	a0,a5,%lo(lwip_netconn_do_newconn)
	call	netconn_apimsg
	mv	a5,a0
	sb	a5,-21(s0)
	.loc 1 162 8
	lb	a5,-21(s0)
	beq	a5,zero,.L5
	.loc 1 164 18
	lw	a5,-20(s0)
	addi	a5,a5,16
	mv	a0,a5
	call	sys_mbox_valid
	.loc 1 166 19
	lw	a5,-20(s0)
	addi	a5,a5,20
	mv	a0,a5
	call	sys_mbox_valid
	.loc 1 169 18
	lw	a5,-20(s0)
	addi	a5,a5,12
	mv	a0,a5
	call	sys_sem_valid
	.loc 1 170 7
	lw	a5,-20(s0)
	addi	a5,a5,12
	mv	a0,a5
	call	sys_sem_free
	.loc 1 172 7
	lw	a5,-20(s0)
	addi	a5,a5,16
	mv	a0,a5
	call	sys_mbox_free
	.loc 1 173 7
	lw	a1,-20(s0)
	li	a0,7
	call	memp_free
	.loc 1 175 13
	li	a5,0
	j	.L7
.L5:
.LBE2:
	.loc 1 179 10
	lw	a5,-20(s0)
.L7:
	.loc 1 180 1
	mv	a0,a5
	lw	ra,76(sp)
	.cfi_restore 1
	lw	s0,72(sp)
	.cfi_restore 8
	.cfi_def_cfa 2, 80
	addi	sp,sp,80
	.cfi_def_cfa_offset 0
	jr	ra
	.cfi_endproc
.LFE7:
	.size	netconn_new_with_proto_and_callback, .-netconn_new_with_proto_and_callback
	.section	.text.netconn_prepare_delete,"ax",@progbits
	.align	1
	.globl	netconn_prepare_delete
	.type	netconn_prepare_delete, @function
netconn_prepare_delete:
.LFB8:
	.loc 1 193 1
	.cfi_startproc
	addi	sp,sp,-80
	.cfi_def_cfa_offset 80
	sw	ra,76(sp)
	sw	s0,72(sp)
	.cfi_offset 1, -4
	.cfi_offset 8, -8
	addi	s0,sp,80
	.cfi_def_cfa 8, 0
	sw	a0,-68(s0)
	.loc 1 198 6
	lw	a5,-68(s0)
	bne	a5,zero,.L9
	.loc 1 199 12
	li	a5,0
	j	.L12
.L9:
	.loc 1 203 12
	lw	a5,-68(s0)
	sw	a5,-56(s0)
	.loc 1 208 29
	call	sys_now
	mv	a5,a0
	.loc 1 208 27 discriminator 1
	sw	a5,-44(s0)
	.loc 1 214 9
	addi	a5,s0,-56
	mv	a1,a5
	lui	a5,%hi(lwip_netconn_do_delconn)
	addi	a0,a5,%lo(lwip_netconn_do_delconn)
	call	netconn_apimsg
	mv	a5,a0
	sb	a5,-17(s0)
	.loc 1 217 6
	lb	a5,-17(s0)
	beq	a5,zero,.L11
	.loc 1 218 12
	lb	a5,-17(s0)
	j	.L12
.L11:
	.loc 1 220 10
	li	a5,0
.L12:
	.loc 1 221 1
	mv	a0,a5
	lw	ra,76(sp)
	.cfi_restore 1
	lw	s0,72(sp)
	.cfi_restore 8
	.cfi_def_cfa 2, 80
	addi	sp,sp,80
	.cfi_def_cfa_offset 0
	jr	ra
	.cfi_endproc
.LFE8:
	.size	netconn_prepare_delete, .-netconn_prepare_delete
	.section	.text.netconn_delete,"ax",@progbits
	.align	1
	.globl	netconn_delete
	.type	netconn_delete, @function
netconn_delete:
.LFB9:
	.loc 1 234 1
	.cfi_startproc
	addi	sp,sp,-48
	.cfi_def_cfa_offset 48
	sw	ra,44(sp)
	sw	s0,40(sp)
	.cfi_offset 1, -4
	.cfi_offset 8, -8
	addi	s0,sp,48
	.cfi_def_cfa 8, 0
	sw	a0,-36(s0)
	.loc 1 238 6
	lw	a5,-36(s0)
	bne	a5,zero,.L14
	.loc 1 239 12
	li	a5,0
	j	.L15
.L14:
	.loc 1 249 11
	lw	a0,-36(s0)
	call	netconn_prepare_delete
	mv	a5,a0
	sb	a5,-17(s0)
	.loc 1 251 6
	lb	a5,-17(s0)
	bne	a5,zero,.L16
	.loc 1 252 5
	lw	a0,-36(s0)
	call	netconn_free
.L16:
	.loc 1 254 10
	lb	a5,-17(s0)
.L15:
	.loc 1 255 1
	mv	a0,a5
	lw	ra,44(sp)
	.cfi_restore 1
	lw	s0,40(sp)
	.cfi_restore 8
	.cfi_def_cfa 2, 48
	addi	sp,sp,48
	.cfi_def_cfa_offset 0
	jr	ra
	.cfi_endproc
.LFE9:
	.size	netconn_delete, .-netconn_delete
	.section	.text.netconn_getaddr,"ax",@progbits
	.align	1
	.globl	netconn_getaddr
	.type	netconn_getaddr, @function
netconn_getaddr:
.LFB10:
	.loc 1 270 1
	.cfi_startproc
	addi	sp,sp,-80
	.cfi_def_cfa_offset 80
	sw	ra,76(sp)
	sw	s0,72(sp)
	.cfi_offset 1, -4
	.cfi_offset 8, -8
	addi	s0,sp,80
	.cfi_def_cfa 8, 0
	sw	a0,-68(s0)
	sw	a1,-72(s0)
	sw	a2,-76(s0)
	mv	a5,a3
	sb	a5,-77(s0)
	.loc 1 274 11
	lw	a5,-68(s0)
	bne	a5,zero,.L18
	.loc 1 274 17 discriminator 1
	li	a5,-16
	.loc 1 274 17 is_stmt 0
	j	.L22
.L18:
	.loc 1 275 11 is_stmt 1
	lw	a5,-72(s0)
	bne	a5,zero,.L20
	.loc 1 275 17 discriminator 1
	li	a5,-16
	.loc 1 275 17 is_stmt 0
	j	.L22
.L20:
	.loc 1 276 11 is_stmt 1
	lw	a5,-76(s0)
	bne	a5,zero,.L21
	.loc 1 276 17 discriminator 1
	li	a5,-16
	.loc 1 276 17 is_stmt 0
	j	.L22
.L21:
	.loc 1 279 12 is_stmt 1
	lw	a5,-68(s0)
	sw	a5,-56(s0)
	.loc 1 280 20
	lbu	a5,-77(s0)
	sb	a5,-40(s0)
	.loc 1 286 21
	lw	a5,-72(s0)
	sw	a5,-48(s0)
	.loc 1 287 19
	lw	a5,-76(s0)
	sw	a5,-44(s0)
	.loc 1 288 9
	addi	a5,s0,-56
	mv	a1,a5
	lui	a5,%hi(lwip_netconn_do_getaddr)
	addi	a0,a5,%lo(lwip_netconn_do_getaddr)
	call	netconn_apimsg
	mv	a5,a0
	sb	a5,-17(s0)
	.loc 1 292 10
	lb	a5,-17(s0)
.L22:
	.loc 1 293 1
	mv	a0,a5
	lw	ra,76(sp)
	.cfi_restore 1
	lw	s0,72(sp)
	.cfi_restore 8
	.cfi_def_cfa 2, 80
	addi	sp,sp,80
	.cfi_def_cfa_offset 0
	jr	ra
	.cfi_endproc
.LFE10:
	.size	netconn_getaddr, .-netconn_getaddr
	.section	.text.netconn_bind,"ax",@progbits
	.align	1
	.globl	netconn_bind
	.type	netconn_bind, @function
netconn_bind:
.LFB11:
	.loc 1 308 1
	.cfi_startproc
	addi	sp,sp,-80
	.cfi_def_cfa_offset 80
	sw	ra,76(sp)
	sw	s0,72(sp)
	.cfi_offset 1, -4
	.cfi_offset 8, -8
	addi	s0,sp,80
	.cfi_def_cfa 8, 0
	sw	a0,-68(s0)
	sw	a1,-72(s0)
	mv	a5,a2
	sh	a5,-74(s0)
	.loc 1 312 11
	lw	a5,-68(s0)
	bne	a5,zero,.L24
	.loc 1 312 17 discriminator 1
	li	a5,-16
	.loc 1 312 17 is_stmt 0
	j	.L27
.L24:
	.loc 1 316 6 is_stmt 1
	lw	a5,-72(s0)
	bne	a5,zero,.L26
	.loc 1 317 10
	lui	a5,%hi(ip_addr_any)
	addi	a5,a5,%lo(ip_addr_any)
	sw	a5,-72(s0)
.L26:
	.loc 1 332 12
	lw	a5,-68(s0)
	sw	a5,-56(s0)
	.loc 1 333 21
	lw	a5,-72(s0)
	sw	a5,-48(s0)
	.loc 1 334 19
	lhu	a5,-74(s0)
	sh	a5,-44(s0)
	.loc 1 335 9
	addi	a5,s0,-56
	mv	a1,a5
	lui	a5,%hi(lwip_netconn_do_bind)
	addi	a0,a5,%lo(lwip_netconn_do_bind)
	call	netconn_apimsg
	mv	a5,a0
	sb	a5,-17(s0)
	.loc 1 338 10
	lb	a5,-17(s0)
.L27:
	.loc 1 339 1
	mv	a0,a5
	lw	ra,76(sp)
	.cfi_restore 1
	lw	s0,72(sp)
	.cfi_restore 8
	.cfi_def_cfa 2, 80
	addi	sp,sp,80
	.cfi_def_cfa_offset 0
	jr	ra
	.cfi_endproc
.LFE11:
	.size	netconn_bind, .-netconn_bind
	.section	.text.netconn_bind_if,"ax",@progbits
	.align	1
	.globl	netconn_bind_if
	.type	netconn_bind_if, @function
netconn_bind_if:
.LFB12:
	.loc 1 352 1
	.cfi_startproc
	addi	sp,sp,-80
	.cfi_def_cfa_offset 80
	sw	ra,76(sp)
	sw	s0,72(sp)
	.cfi_offset 1, -4
	.cfi_offset 8, -8
	addi	s0,sp,80
	.cfi_def_cfa 8, 0
	sw	a0,-68(s0)
	mv	a5,a1
	sb	a5,-69(s0)
	.loc 1 356 11
	lw	a5,-68(s0)
	bne	a5,zero,.L29
	.loc 1 356 17 discriminator 1
	li	a5,-16
	.loc 1 356 17 is_stmt 0
	j	.L31
.L29:
	.loc 1 359 12 is_stmt 1
	lw	a5,-68(s0)
	sw	a5,-56(s0)
	.loc 1 360 21
	lbu	a5,-69(s0)
	sb	a5,-42(s0)
	.loc 1 361 9
	addi	a5,s0,-56
	mv	a1,a5
	lui	a5,%hi(lwip_netconn_do_bind_if)
	addi	a0,a5,%lo(lwip_netconn_do_bind_if)
	call	netconn_apimsg
	mv	a5,a0
	sb	a5,-17(s0)
	.loc 1 364 10
	lb	a5,-17(s0)
.L31:
	.loc 1 365 1
	mv	a0,a5
	lw	ra,76(sp)
	.cfi_restore 1
	lw	s0,72(sp)
	.cfi_restore 8
	.cfi_def_cfa 2, 80
	addi	sp,sp,80
	.cfi_def_cfa_offset 0
	jr	ra
	.cfi_endproc
.LFE12:
	.size	netconn_bind_if, .-netconn_bind_if
	.section	.text.netconn_connect,"ax",@progbits
	.align	1
	.globl	netconn_connect
	.type	netconn_connect, @function
netconn_connect:
.LFB13:
	.loc 1 378 1
	.cfi_startproc
	addi	sp,sp,-80
	.cfi_def_cfa_offset 80
	sw	ra,76(sp)
	sw	s0,72(sp)
	.cfi_offset 1, -4
	.cfi_offset 8, -8
	addi	s0,sp,80
	.cfi_def_cfa 8, 0
	sw	a0,-68(s0)
	sw	a1,-72(s0)
	mv	a5,a2
	sh	a5,-74(s0)
	.loc 1 382 11
	lw	a5,-68(s0)
	bne	a5,zero,.L33
	.loc 1 382 17 discriminator 1
	li	a5,-16
	.loc 1 382 17 is_stmt 0
	j	.L36
.L33:
	.loc 1 386 6 is_stmt 1
	lw	a5,-72(s0)
	bne	a5,zero,.L35
	.loc 1 387 10
	lui	a5,%hi(ip_addr_any)
	addi	a5,a5,%lo(ip_addr_any)
	sw	a5,-72(s0)
.L35:
	.loc 1 392 12
	lw	a5,-68(s0)
	sw	a5,-56(s0)
	.loc 1 393 21
	lw	a5,-72(s0)
	sw	a5,-48(s0)
	.loc 1 394 19
	lhu	a5,-74(s0)
	sh	a5,-44(s0)
	.loc 1 395 9
	addi	a5,s0,-56
	mv	a1,a5
	lui	a5,%hi(lwip_netconn_do_connect)
	addi	a0,a5,%lo(lwip_netconn_do_connect)
	call	netconn_apimsg
	mv	a5,a0
	sb	a5,-17(s0)
	.loc 1 398 10
	lb	a5,-17(s0)
.L36:
	.loc 1 399 1
	mv	a0,a5
	lw	ra,76(sp)
	.cfi_restore 1
	lw	s0,72(sp)
	.cfi_restore 8
	.cfi_def_cfa 2, 80
	addi	sp,sp,80
	.cfi_def_cfa_offset 0
	jr	ra
	.cfi_endproc
.LFE13:
	.size	netconn_connect, .-netconn_connect
	.section	.text.netconn_disconnect,"ax",@progbits
	.align	1
	.globl	netconn_disconnect
	.type	netconn_disconnect, @function
netconn_disconnect:
.LFB14:
	.loc 1 410 1
	.cfi_startproc
	addi	sp,sp,-80
	.cfi_def_cfa_offset 80
	sw	ra,76(sp)
	sw	s0,72(sp)
	.cfi_offset 1, -4
	.cfi_offset 8, -8
	addi	s0,sp,80
	.cfi_def_cfa 8, 0
	sw	a0,-68(s0)
	.loc 1 414 11
	lw	a5,-68(s0)
	bne	a5,zero,.L38
	.loc 1 414 17 discriminator 1
	li	a5,-16
	.loc 1 414 17 is_stmt 0
	j	.L40
.L38:
	.loc 1 417 12 is_stmt 1
	lw	a5,-68(s0)
	sw	a5,-56(s0)
	.loc 1 418 9
	addi	a5,s0,-56
	mv	a1,a5
	lui	a5,%hi(lwip_netconn_do_disconnect)
	addi	a0,a5,%lo(lwip_netconn_do_disconnect)
	call	netconn_apimsg
	mv	a5,a0
	sb	a5,-17(s0)
	.loc 1 421 10
	lb	a5,-17(s0)
.L40:
	.loc 1 422 1
	mv	a0,a5
	lw	ra,76(sp)
	.cfi_restore 1
	lw	s0,72(sp)
	.cfi_restore 8
	.cfi_def_cfa 2, 80
	addi	sp,sp,80
	.cfi_def_cfa_offset 0
	jr	ra
	.cfi_endproc
.LFE14:
	.size	netconn_disconnect, .-netconn_disconnect
	.section	.text.netconn_listen_with_backlog,"ax",@progbits
	.align	1
	.globl	netconn_listen_with_backlog
	.type	netconn_listen_with_backlog, @function
netconn_listen_with_backlog:
.LFB15:
	.loc 1 435 1
	.cfi_startproc
	addi	sp,sp,-80
	.cfi_def_cfa_offset 80
	sw	ra,76(sp)
	sw	s0,72(sp)
	.cfi_offset 1, -4
	.cfi_offset 8, -8
	addi	s0,sp,80
	.cfi_def_cfa 8, 0
	sw	a0,-68(s0)
	mv	a5,a1
	sb	a5,-69(s0)
	.loc 1 443 11
	lw	a5,-68(s0)
	bne	a5,zero,.L42
	.loc 1 443 17 discriminator 1
	li	a5,-16
	.loc 1 443 17 is_stmt 0
	j	.L44
.L42:
	.loc 1 446 12 is_stmt 1
	lw	a5,-68(s0)
	sw	a5,-56(s0)
	.loc 1 450 9
	addi	a5,s0,-56
	mv	a1,a5
	lui	a5,%hi(lwip_netconn_do_listen)
	addi	a0,a5,%lo(lwip_netconn_do_listen)
	call	netconn_apimsg
	mv	a5,a0
	sb	a5,-17(s0)
	.loc 1 453 10
	lb	a5,-17(s0)
.L44:
	.loc 1 459 1
	mv	a0,a5
	lw	ra,76(sp)
	.cfi_restore 1
	lw	s0,72(sp)
	.cfi_restore 8
	.cfi_def_cfa 2, 80
	addi	sp,sp,80
	.cfi_def_cfa_offset 0
	jr	ra
	.cfi_endproc
.LFE15:
	.size	netconn_listen_with_backlog, .-netconn_listen_with_backlog
	.section	.text.netconn_accept,"ax",@progbits
	.align	1
	.globl	netconn_accept
	.type	netconn_accept, @function
netconn_accept:
.LFB16:
	.loc 1 472 1
	.cfi_startproc
	addi	sp,sp,-48
	.cfi_def_cfa_offset 48
	sw	ra,44(sp)
	sw	s0,40(sp)
	.cfi_offset 1, -4
	.cfi_offset 8, -8
	addi	s0,sp,48
	.cfi_def_cfa 8, 0
	sw	a0,-36(s0)
	sw	a1,-40(s0)
	.loc 1 481 11
	lw	a5,-40(s0)
	bne	a5,zero,.L46
	.loc 1 481 17 discriminator 1
	li	a5,-16
	.loc 1 481 17 is_stmt 0
	j	.L57
.L46:
	.loc 1 482 13 is_stmt 1
	lw	a5,-40(s0)
	sw	zero,0(a5)
	.loc 1 483 11
	lw	a5,-36(s0)
	bne	a5,zero,.L48
	.loc 1 483 17 discriminator 1
	li	a5,-16
	.loc 1 483 17 is_stmt 0
	j	.L57
.L48:
	.loc 1 488 9 is_stmt 1
	lw	a0,-36(s0)
	call	netconn_err
	mv	a5,a0
	.loc 1 488 7 discriminator 1
	sb	a5,-21(s0)
	.loc 1 489 11
	lb	a5,-21(s0)
	.loc 1 489 6
	beq	a5,zero,.L49
	.loc 1 491 12
	lb	a5,-21(s0)
	j	.L57
.L49:
	.loc 1 493 9
	lw	a5,-36(s0)
	addi	a5,a5,20
	mv	a0,a5
	call	sys_mbox_valid
	mv	a5,a0
	.loc 1 493 6 discriminator 1
	beq	a5,zero,.L50
	.loc 1 493 56 discriminator 2
	lw	a5,-36(s0)
	lbu	a5,36(a5)
	.loc 1 493 64 discriminator 2
	andi	a5,a5,1
	.loc 1 493 7 discriminator 2
	beq	a5,zero,.L51
.L50:
	.loc 1 496 12
	li	a5,-15
	j	.L57
.L51:
	.loc 1 502 15
	lw	a5,-36(s0)
	lbu	a5,36(a5)
	.loc 1 502 23
	andi	a5,a5,2
	.loc 1 502 6
	beq	a5,zero,.L52
	.loc 1 503 9
	lw	a5,-36(s0)
	addi	a5,a5,20
	addi	a4,s0,-28
	mv	a1,a4
	mv	a0,a5
	call	sys_arch_mbox_tryfetch
	mv	a4,a0
	.loc 1 503 8 discriminator 1
	li	a5,-1
	bne	a4,a5,.L53
	.loc 1 506 14
	li	a5,-7
	j	.L57
.L52:
	.loc 1 510 9
	lw	a5,-36(s0)
	addi	a4,a5,20
	lw	a5,-36(s0)
	lw	a3,32(a5)
	addi	a5,s0,-28
	mv	a2,a3
	mv	a1,a5
	mv	a0,a4
	call	sys_arch_mbox_fetch
	mv	a4,a0
	.loc 1 510 8 discriminator 1
	li	a5,-1
	bne	a4,a5,.L53
	.loc 1 513 14
	li	a5,-3
	j	.L57
.L53:
	.loc 1 531 11
	lw	a5,-36(s0)
	lw	a5,44(a5)
	.loc 1 531 6
	beq	a5,zero,.L54
	.loc 1 531 26 discriminator 1
	lw	a5,-36(s0)
	lw	a5,44(a5)
	li	a2,0
	li	a1,1
	lw	a0,-36(s0)
	jalr	a5
.LVL0:
.L54:
	.loc 1 533 7
	lw	a5,-28(s0)
	addi	a4,s0,-21
	mv	a1,a4
	mv	a0,a5
	call	lwip_netconn_is_err_msg
	mv	a5,a0
	.loc 1 533 6 discriminator 1
	beq	a5,zero,.L55
	.loc 1 536 12
	lb	a5,-21(s0)
	j	.L57
.L55:
	.loc 1 538 18
	lw	a5,-28(s0)
	.loc 1 538 6
	bne	a5,zero,.L56
	.loc 1 541 12
	li	a5,-15
	j	.L57
.L56:
	.loc 1 543 11
	lw	a5,-28(s0)
	sw	a5,-20(s0)
	.loc 1 552 13
	lw	a5,-40(s0)
	lw	a4,-20(s0)
	sw	a4,0(a5)
	.loc 1 554 10
	li	a5,0
.L57:
	.loc 1 560 1
	mv	a0,a5
	lw	ra,44(sp)
	.cfi_restore 1
	lw	s0,40(sp)
	.cfi_restore 8
	.cfi_def_cfa 2, 48
	addi	sp,sp,48
	.cfi_def_cfa_offset 0
	jr	ra
	.cfi_endproc
.LFE16:
	.size	netconn_accept, .-netconn_accept
	.section	.text.netconn_recv_data,"ax",@progbits
	.align	1
	.type	netconn_recv_data, @function
netconn_recv_data:
.LFB17:
	.loc 1 580 1
	.cfi_startproc
	addi	sp,sp,-48
	.cfi_def_cfa_offset 48
	sw	ra,44(sp)
	sw	s0,40(sp)
	.cfi_offset 1, -4
	.cfi_offset 8, -8
	addi	s0,sp,48
	.cfi_def_cfa 8, 0
	sw	a0,-36(s0)
	sw	a1,-40(s0)
	mv	a5,a2
	sb	a5,-41(s0)
	.loc 1 581 9
	sw	zero,-24(s0)
	.loc 1 584 11
	lw	a5,-40(s0)
	bne	a5,zero,.L59
	.loc 1 584 17 discriminator 1
	li	a5,-16
	.loc 1 584 17 is_stmt 0
	j	.L76
.L59:
	.loc 1 585 12 is_stmt 1
	lw	a5,-40(s0)
	sw	zero,0(a5)
	.loc 1 586 11
	lw	a5,-36(s0)
	bne	a5,zero,.L61
	.loc 1 586 17 discriminator 1
	li	a5,-16
	.loc 1 586 17 is_stmt 0
	j	.L76
.L61:
	.loc 1 588 8 is_stmt 1
	lw	a5,-36(s0)
	addi	a5,a5,16
	mv	a0,a5
	call	sys_mbox_valid
	mv	a5,a0
	.loc 1 588 6 discriminator 1
	bne	a5,zero,.L62
.LBB3:
	.loc 1 589 17
	lw	a0,-36(s0)
	call	netconn_err
	mv	a5,a0
	sb	a5,-20(s0)
	.loc 1 590 8
	lb	a5,-20(s0)
	beq	a5,zero,.L63
	.loc 1 592 14
	lb	a5,-20(s0)
	j	.L76
.L63:
	.loc 1 594 12
	li	a5,-11
	j	.L76
.L62:
.LBE3:
	.loc 1 598 15
	lw	a5,-36(s0)
	lbu	a5,36(a5)
	.loc 1 598 23
	andi	a5,a5,2
	.loc 1 598 6
	bne	a5,zero,.L64
	.loc 1 598 50 discriminator 1
	lbu	a5,-41(s0)
	andi	a5,a5,4
	.loc 1 598 37 discriminator 1
	bne	a5,zero,.L64
	.loc 1 599 12
	lw	a5,-36(s0)
	lbu	a5,36(a5)
	.loc 1 599 20
	andi	a5,a5,1
	.loc 1 598 58 discriminator 2
	bne	a5,zero,.L64
	.loc 1 599 36
	lw	a5,-36(s0)
	lb	a5,8(a5)
	.loc 1 599 28
	beq	a5,zero,.L65
.L64:
	.loc 1 600 9
	lw	a5,-36(s0)
	addi	a5,a5,16
	addi	a4,s0,-24
	mv	a1,a4
	mv	a0,a5
	call	sys_arch_mbox_tryfetch
	mv	a4,a0
	.loc 1 600 8 discriminator 1
	li	a5,-1
	bne	a4,a5,.L69
.LBB4:
	.loc 1 603 13
	lw	a0,-36(s0)
	call	netconn_err
	mv	a5,a0
	sb	a5,-19(s0)
	.loc 1 604 10
	lb	a5,-19(s0)
	beq	a5,zero,.L67
	.loc 1 606 16
	lb	a5,-19(s0)
	j	.L76
.L67:
	.loc 1 608 15
	lw	a5,-36(s0)
	lbu	a5,36(a5)
	.loc 1 608 23
	andi	a5,a5,1
	.loc 1 608 10
	beq	a5,zero,.L68
	.loc 1 609 16
	li	a5,-11
	j	.L76
.L68:
	.loc 1 611 14
	li	a5,-7
	j	.L76
.L65:
.LBE4:
	.loc 1 615 9
	lw	a5,-36(s0)
	addi	a4,a5,16
	lw	a5,-36(s0)
	lw	a3,32(a5)
	addi	a5,s0,-24
	mv	a2,a3
	mv	a1,a5
	mv	a0,a4
	call	sys_arch_mbox_fetch
	mv	a4,a0
	.loc 1 615 8 discriminator 1
	li	a5,-1
	bne	a4,a5,.L69
	.loc 1 617 14
	li	a5,-3
	j	.L76
.L69:
	.loc 1 636 13
	lw	a5,-36(s0)
	lbu	a5,0(a5)
	.loc 1 636 20
	andi	a4,a5,240
	.loc 1 636 6
	li	a5,16
	bne	a4,a5,.L70
.LBB5:
	.loc 1 641 9
	lw	a5,-24(s0)
	addi	a4,s0,-25
	mv	a1,a4
	mv	a0,a5
	call	lwip_netconn_is_err_msg
	mv	a5,a0
	.loc 1 641 8 discriminator 1
	beq	a5,zero,.L71
	.loc 1 643 15
	lb	a4,-25(s0)
	.loc 1 643 10
	li	a5,-15
	bne	a4,a5,.L72
	.loc 1 645 16
	li	a5,0
	j	.L76
.L72:
	.loc 1 647 14
	lb	a5,-25(s0)
	j	.L76
.L71:
	.loc 1 649 12
	lw	a5,-24(s0)
	.loc 1 649 9
	lhu	a5,8(a5)
	sh	a5,-18(s0)
.LBE5:
	j	.L74
.L70:
	.loc 1 658 13
	lw	a5,-24(s0)
	.loc 1 658 34
	lw	a5,0(a5)
	.loc 1 658 9
	lhu	a5,8(a5)
	sh	a5,-18(s0)
.L74:
	.loc 1 666 11
	lw	a5,-36(s0)
	lw	a5,44(a5)
	.loc 1 666 6
	beq	a5,zero,.L75
	.loc 1 666 26 discriminator 1
	lw	a5,-36(s0)
	lw	a5,44(a5)
	lhu	a4,-18(s0)
	mv	a2,a4
	li	a1,1
	lw	a0,-36(s0)
	jalr	a5
.LVL1:
.L75:
	.loc 1 670 12
	lw	a4,-24(s0)
	lw	a5,-40(s0)
	sw	a4,0(a5)
	.loc 1 672 10
	li	a5,0
.L76:
	.loc 1 673 1
	mv	a0,a5
	lw	ra,44(sp)
	.cfi_restore 1
	lw	s0,40(sp)
	.cfi_restore 8
	.cfi_def_cfa 2, 48
	addi	sp,sp,48
	.cfi_def_cfa_offset 0
	jr	ra
	.cfi_endproc
.LFE17:
	.size	netconn_recv_data, .-netconn_recv_data
	.section	.text.netconn_tcp_recvd_msg,"ax",@progbits
	.align	1
	.type	netconn_tcp_recvd_msg, @function
netconn_tcp_recvd_msg:
.LFB18:
	.loc 1 678 1
	.cfi_startproc
	addi	sp,sp,-32
	.cfi_def_cfa_offset 32
	sw	ra,28(sp)
	sw	s0,24(sp)
	.cfi_offset 1, -4
	.cfi_offset 8, -8
	addi	s0,sp,32
	.cfi_def_cfa 8, 0
	sw	a0,-20(s0)
	sw	a1,-24(s0)
	sw	a2,-28(s0)
	.loc 1 679 11
	lw	a5,-20(s0)
	beq	a5,zero,.L78
	.loc 1 679 14 discriminator 2
	lw	a5,-20(s0)
	lbu	a5,0(a5)
	.loc 1 679 22 discriminator 2
	andi	a4,a5,240
	.loc 1 679 12 discriminator 2
	li	a5,16
	beq	a4,a5,.L79
.L78:
	.loc 1 679 57 discriminator 3
	li	a5,-16
	.loc 1 679 57 is_stmt 0
	j	.L80
.L79:
	.loc 1 682 13 is_stmt 1
	lw	a5,-28(s0)
	lw	a4,-20(s0)
	sw	a4,0(a5)
	.loc 1 683 18
	lw	a5,-28(s0)
	lw	a4,-24(s0)
	sw	a4,8(a5)
	.loc 1 685 10
	lw	a1,-28(s0)
	lui	a5,%hi(lwip_netconn_do_recv)
	addi	a0,a5,%lo(lwip_netconn_do_recv)
	call	netconn_apimsg
	mv	a5,a0
.L80:
	.loc 1 686 1
	mv	a0,a5
	lw	ra,28(sp)
	.cfi_restore 1
	lw	s0,24(sp)
	.cfi_restore 8
	.cfi_def_cfa 2, 32
	addi	sp,sp,32
	.cfi_def_cfa_offset 0
	jr	ra
	.cfi_endproc
.LFE18:
	.size	netconn_tcp_recvd_msg, .-netconn_tcp_recvd_msg
	.section	.text.netconn_tcp_recvd,"ax",@progbits
	.align	1
	.globl	netconn_tcp_recvd
	.type	netconn_tcp_recvd, @function
netconn_tcp_recvd:
.LFB19:
	.loc 1 690 1
	.cfi_startproc
	addi	sp,sp,-80
	.cfi_def_cfa_offset 80
	sw	ra,76(sp)
	sw	s0,72(sp)
	.cfi_offset 1, -4
	.cfi_offset 8, -8
	addi	s0,sp,80
	.cfi_def_cfa 8, 0
	sw	a0,-68(s0)
	sw	a1,-72(s0)
	.loc 1 693 11
	lw	a5,-68(s0)
	beq	a5,zero,.L82
	.loc 1 693 14 discriminator 2
	lw	a5,-68(s0)
	lbu	a5,0(a5)
	.loc 1 693 22 discriminator 2
	andi	a4,a5,240
	.loc 1 693 12 discriminator 2
	li	a5,16
	beq	a4,a5,.L83
.L82:
	.loc 1 693 57 discriminator 3
	li	a5,-16
	.loc 1 693 57 is_stmt 0
	j	.L85
.L83:
	.loc 1 697 9 is_stmt 1
	addi	a5,s0,-56
	mv	a2,a5
	lw	a1,-72(s0)
	lw	a0,-68(s0)
	call	netconn_tcp_recvd_msg
	mv	a5,a0
	sb	a5,-17(s0)
	.loc 1 699 10
	lb	a5,-17(s0)
.L85:
	.loc 1 700 1
	mv	a0,a5
	lw	ra,76(sp)
	.cfi_restore 1
	lw	s0,72(sp)
	.cfi_restore 8
	.cfi_def_cfa 2, 80
	addi	sp,sp,80
	.cfi_def_cfa_offset 0
	jr	ra
	.cfi_endproc
.LFE19:
	.size	netconn_tcp_recvd, .-netconn_tcp_recvd
	.section	.text.netconn_recv_data_tcp,"ax",@progbits
	.align	1
	.type	netconn_recv_data_tcp, @function
netconn_recv_data_tcp:
.LFB20:
	.loc 1 704 1
	.cfi_startproc
	addi	sp,sp,-80
	.cfi_def_cfa_offset 80
	sw	ra,76(sp)
	sw	s0,72(sp)
	.cfi_offset 1, -4
	.cfi_offset 8, -8
	addi	s0,sp,80
	.cfi_def_cfa 8, 0
	sw	a0,-68(s0)
	sw	a1,-72(s0)
	mv	a5,a2
	sb	a5,-73(s0)
	.loc 1 712 8
	lw	a5,-68(s0)
	addi	a5,a5,16
	mv	a0,a5
	call	sys_mbox_valid
	mv	a5,a0
	.loc 1 712 6 discriminator 1
	bne	a5,zero,.L87
	.loc 1 714 12
	li	a5,-11
	j	.L99
.L87:
	.loc 1 716 15
	lw	a5,-68(s0)
	lbu	a5,36(a5)
	.loc 1 716 33
	slli	a5,a5,24
	srai	a5,a5,24
	.loc 1 716 6
	bge	a5,zero,.L89
	.loc 1 717 39
	lw	a5,-68(s0)
	lbu	a5,36(a5)
	.loc 1 717 26
	andi	a5,a5,127
	andi	a4,a5,0xff
	.loc 1 717 24
	lw	a5,-68(s0)
	sb	a4,36(a5)
	.loc 1 718 5
	j	.L90
.L89:
	.loc 1 727 9
	lbu	a5,-73(s0)
	mv	a2,a5
	lw	a1,-72(s0)
	lw	a0,-68(s0)
	call	netconn_recv_data
	mv	a5,a0
	sb	a5,-19(s0)
	.loc 1 728 6
	lb	a5,-19(s0)
	beq	a5,zero,.L91
	.loc 1 732 12
	lb	a5,-19(s0)
	j	.L99
.L91:
	.loc 1 734 7
	lw	a5,-72(s0)
	lw	a5,0(a5)
	sw	a5,-24(s0)
	.loc 1 735 18
	lbu	a5,-73(s0)
	andi	a5,a5,8
	.loc 1 735 6
	bne	a5,zero,.L92
.LBB6:
	.loc 1 737 11
	lw	a5,-24(s0)
	beq	a5,zero,.L93
	.loc 1 737 11 is_stmt 0 discriminator 1
	lw	a5,-24(s0)
	lhu	a5,8(a5)
	sh	a5,-18(s0)
	j	.L94
.L93:
	.loc 1 737 11 discriminator 2
	li	a5,1
	sh	a5,-18(s0)
.L94:
	.loc 1 740 5 is_stmt 1
	lhu	a5,-18(s0)
	addi	a4,s0,-60
	mv	a2,a4
	mv	a1,a5
	lw	a0,-68(s0)
	call	netconn_tcp_recvd_msg
.L92:
.LBE6:
	.loc 1 745 6
	lw	a5,-24(s0)
	bne	a5,zero,.L95
	.loc 1 746 18
	lbu	a5,-73(s0)
	andi	a5,a5,16
	.loc 1 746 8
	beq	a5,zero,.L100
	.loc 1 749 41
	lw	a5,-68(s0)
	lbu	a5,36(a5)
	.loc 1 749 28
	ori	a5,a5,-128
	andi	a4,a5,0xff
	.loc 1 749 26
	lw	a5,-68(s0)
	sb	a4,36(a5)
	.loc 1 750 14
	li	a5,-7
	j	.L99
.L100:
	.loc 1 752 1
	nop
.L90:
	.loc 1 753 15
	lw	a5,-68(s0)
	lw	a5,44(a5)
	.loc 1 753 10
	beq	a5,zero,.L96
	.loc 1 753 30 discriminator 1
	lw	a5,-68(s0)
	lw	a5,44(a5)
	li	a2,0
	li	a1,1
	lw	a0,-68(s0)
	jalr	a5
.LVL2:
.L96:
	.loc 1 754 20
	lw	a5,-68(s0)
	lw	a5,4(a5)
	.loc 1 754 10
	bne	a5,zero,.L97
	.loc 1 756 15
	lw	a0,-68(s0)
	call	netconn_err
	mv	a5,a0
	sb	a5,-19(s0)
	.loc 1 757 12
	lb	a5,-19(s0)
	beq	a5,zero,.L98
	.loc 1 758 18
	lb	a5,-19(s0)
	j	.L99
.L98:
	.loc 1 760 16
	li	a5,-14
	j	.L99
.L97:
	.loc 1 763 7
	li	a1,1
	lw	a0,-68(s0)
	call	netconn_close_shutdown
	.loc 1 765 14
	li	a5,-15
	j	.L99
.L95:
	.loc 1 768 10
	lb	a5,-19(s0)
.L99:
	.loc 1 769 1
	mv	a0,a5
	lw	ra,76(sp)
	.cfi_restore 1
	lw	s0,72(sp)
	.cfi_restore 8
	.cfi_def_cfa 2, 80
	addi	sp,sp,80
	.cfi_def_cfa_offset 0
	jr	ra
	.cfi_endproc
.LFE20:
	.size	netconn_recv_data_tcp, .-netconn_recv_data_tcp
	.section	.text.netconn_recv_tcp_pbuf,"ax",@progbits
	.align	1
	.globl	netconn_recv_tcp_pbuf
	.type	netconn_recv_tcp_pbuf, @function
netconn_recv_tcp_pbuf:
.LFB21:
	.loc 1 783 1
	.cfi_startproc
	addi	sp,sp,-32
	.cfi_def_cfa_offset 32
	sw	ra,28(sp)
	sw	s0,24(sp)
	.cfi_offset 1, -4
	.cfi_offset 8, -8
	addi	s0,sp,32
	.cfi_def_cfa 8, 0
	sw	a0,-20(s0)
	sw	a1,-24(s0)
	.loc 1 784 11
	lw	a5,-20(s0)
	beq	a5,zero,.L102
	.loc 1 784 14 discriminator 2
	lw	a5,-20(s0)
	lbu	a5,0(a5)
	.loc 1 784 22 discriminator 2
	andi	a4,a5,240
	.loc 1 784 12 discriminator 2
	li	a5,16
	beq	a4,a5,.L103
.L102:
	.loc 1 784 57 discriminator 3
	li	a5,-16
	.loc 1 784 57 is_stmt 0
	j	.L104
.L103:
	.loc 1 787 10 is_stmt 1
	li	a2,0
	lw	a1,-24(s0)
	lw	a0,-20(s0)
	call	netconn_recv_data_tcp
	mv	a5,a0
.L104:
	.loc 1 788 1
	mv	a0,a5
	lw	ra,28(sp)
	.cfi_restore 1
	lw	s0,24(sp)
	.cfi_restore 8
	.cfi_def_cfa 2, 32
	addi	sp,sp,32
	.cfi_def_cfa_offset 0
	jr	ra
	.cfi_endproc
.LFE21:
	.size	netconn_recv_tcp_pbuf, .-netconn_recv_tcp_pbuf
	.section	.text.netconn_recv_tcp_pbuf_flags,"ax",@progbits
	.align	1
	.globl	netconn_recv_tcp_pbuf_flags
	.type	netconn_recv_tcp_pbuf_flags, @function
netconn_recv_tcp_pbuf_flags:
.LFB22:
	.loc 1 804 1
	.cfi_startproc
	addi	sp,sp,-32
	.cfi_def_cfa_offset 32
	sw	ra,28(sp)
	sw	s0,24(sp)
	.cfi_offset 1, -4
	.cfi_offset 8, -8
	addi	s0,sp,32
	.cfi_def_cfa 8, 0
	sw	a0,-20(s0)
	sw	a1,-24(s0)
	mv	a5,a2
	sb	a5,-25(s0)
	.loc 1 805 11
	lw	a5,-20(s0)
	beq	a5,zero,.L106
	.loc 1 805 14 discriminator 2
	lw	a5,-20(s0)
	lbu	a5,0(a5)
	.loc 1 805 22 discriminator 2
	andi	a4,a5,240
	.loc 1 805 12 discriminator 2
	li	a5,16
	beq	a4,a5,.L107
.L106:
	.loc 1 805 57 discriminator 3
	li	a5,-16
	.loc 1 805 57 is_stmt 0
	j	.L108
.L107:
	.loc 1 808 10 is_stmt 1
	lbu	a5,-25(s0)
	mv	a2,a5
	lw	a1,-24(s0)
	lw	a0,-20(s0)
	call	netconn_recv_data_tcp
	mv	a5,a0
.L108:
	.loc 1 809 1
	mv	a0,a5
	lw	ra,28(sp)
	.cfi_restore 1
	lw	s0,24(sp)
	.cfi_restore 8
	.cfi_def_cfa 2, 32
	addi	sp,sp,32
	.cfi_def_cfa_offset 0
	jr	ra
	.cfi_endproc
.LFE22:
	.size	netconn_recv_tcp_pbuf_flags, .-netconn_recv_tcp_pbuf_flags
	.section	.text.netconn_recv_udp_raw_netbuf,"ax",@progbits
	.align	1
	.globl	netconn_recv_udp_raw_netbuf
	.type	netconn_recv_udp_raw_netbuf, @function
netconn_recv_udp_raw_netbuf:
.LFB23:
	.loc 1 823 1
	.cfi_startproc
	addi	sp,sp,-32
	.cfi_def_cfa_offset 32
	sw	ra,28(sp)
	sw	s0,24(sp)
	.cfi_offset 1, -4
	.cfi_offset 8, -8
	addi	s0,sp,32
	.cfi_def_cfa 8, 0
	sw	a0,-20(s0)
	sw	a1,-24(s0)
	.loc 1 824 11
	lw	a5,-20(s0)
	beq	a5,zero,.L110
	.loc 1 824 14 discriminator 2
	lw	a5,-20(s0)
	lbu	a5,0(a5)
	.loc 1 824 22 discriminator 2
	andi	a4,a5,240
	.loc 1 824 12 discriminator 2
	li	a5,16
	bne	a4,a5,.L111
.L110:
	.loc 1 824 57 discriminator 3
	li	a5,-16
	.loc 1 824 57 is_stmt 0
	j	.L112
.L111:
	.loc 1 827 10 is_stmt 1
	li	a2,0
	lw	a1,-24(s0)
	lw	a0,-20(s0)
	call	netconn_recv_data
	mv	a5,a0
.L112:
	.loc 1 828 1
	mv	a0,a5
	lw	ra,28(sp)
	.cfi_restore 1
	lw	s0,24(sp)
	.cfi_restore 8
	.cfi_def_cfa 2, 32
	addi	sp,sp,32
	.cfi_def_cfa_offset 0
	jr	ra
	.cfi_endproc
.LFE23:
	.size	netconn_recv_udp_raw_netbuf, .-netconn_recv_udp_raw_netbuf
	.section	.text.netconn_recv_udp_raw_netbuf_flags,"ax",@progbits
	.align	1
	.globl	netconn_recv_udp_raw_netbuf_flags
	.type	netconn_recv_udp_raw_netbuf_flags, @function
netconn_recv_udp_raw_netbuf_flags:
.LFB24:
	.loc 1 843 1
	.cfi_startproc
	addi	sp,sp,-32
	.cfi_def_cfa_offset 32
	sw	ra,28(sp)
	sw	s0,24(sp)
	.cfi_offset 1, -4
	.cfi_offset 8, -8
	addi	s0,sp,32
	.cfi_def_cfa 8, 0
	sw	a0,-20(s0)
	sw	a1,-24(s0)
	mv	a5,a2
	sb	a5,-25(s0)
	.loc 1 844 11
	lw	a5,-20(s0)
	beq	a5,zero,.L114
	.loc 1 844 14 discriminator 2
	lw	a5,-20(s0)
	lbu	a5,0(a5)
	.loc 1 844 22 discriminator 2
	andi	a4,a5,240
	.loc 1 844 12 discriminator 2
	li	a5,16
	bne	a4,a5,.L115
.L114:
	.loc 1 844 57 discriminator 3
	li	a5,-16
	.loc 1 844 57 is_stmt 0
	j	.L116
.L115:
	.loc 1 847 10 is_stmt 1
	lbu	a5,-25(s0)
	mv	a2,a5
	lw	a1,-24(s0)
	lw	a0,-20(s0)
	call	netconn_recv_data
	mv	a5,a0
.L116:
	.loc 1 848 1
	mv	a0,a5
	lw	ra,28(sp)
	.cfi_restore 1
	lw	s0,24(sp)
	.cfi_restore 8
	.cfi_def_cfa 2, 32
	addi	sp,sp,32
	.cfi_def_cfa_offset 0
	jr	ra
	.cfi_endproc
.LFE24:
	.size	netconn_recv_udp_raw_netbuf_flags, .-netconn_recv_udp_raw_netbuf_flags
	.section	.text.netconn_recv,"ax",@progbits
	.align	1
	.globl	netconn_recv
	.type	netconn_recv, @function
netconn_recv:
.LFB25:
	.loc 1 861 1
	.cfi_startproc
	addi	sp,sp,-48
	.cfi_def_cfa_offset 48
	sw	ra,44(sp)
	sw	s0,40(sp)
	.cfi_offset 1, -4
	.cfi_offset 8, -8
	addi	s0,sp,48
	.cfi_def_cfa 8, 0
	sw	a0,-36(s0)
	sw	a1,-40(s0)
	.loc 1 863 18
	sw	zero,-20(s0)
	.loc 1 867 11
	lw	a5,-40(s0)
	bne	a5,zero,.L118
	.loc 1 867 17 discriminator 1
	li	a5,-16
	.loc 1 867 17 is_stmt 0
	j	.L119
.L118:
	.loc 1 868 12 is_stmt 1
	lw	a5,-40(s0)
	sw	zero,0(a5)
	.loc 1 869 11
	lw	a5,-36(s0)
	bne	a5,zero,.L120
	.loc 1 869 17 discriminator 1
	li	a5,-16
	.loc 1 869 17 is_stmt 0
	j	.L119
.L120:
	.loc 1 873 13 is_stmt 1
	lw	a5,-36(s0)
	lbu	a5,0(a5)
	.loc 1 873 20
	andi	a4,a5,240
	.loc 1 873 6
	li	a5,16
	bne	a4,a5,.L121
.LBB7:
	.loc 1 876 18
	sw	zero,-28(s0)
	.loc 1 879 28
	li	a0,6
	call	memp_malloc
	sw	a0,-20(s0)
	.loc 1 880 8
	lw	a5,-20(s0)
	bne	a5,zero,.L122
	.loc 1 881 14
	li	a5,-1
	j	.L119
.L122:
	.loc 1 884 11
	addi	a5,s0,-28
	li	a2,0
	mv	a1,a5
	lw	a0,-36(s0)
	call	netconn_recv_data_tcp
	mv	a5,a0
	sb	a5,-21(s0)
	.loc 1 885 8
	lb	a5,-21(s0)
	beq	a5,zero,.L124
	.loc 1 886 7
	lw	a1,-20(s0)
	li	a0,6
	call	memp_free
	.loc 1 887 14
	lb	a5,-21(s0)
	j	.L119
.L124:
	.loc 1 891 12
	lw	a4,-28(s0)
	lw	a5,-20(s0)
	sw	a4,0(a5)
	.loc 1 892 14
	lw	a4,-28(s0)
	lw	a5,-20(s0)
	sw	a4,4(a5)
	.loc 1 893 15
	lw	a5,-20(s0)
	sh	zero,12(a5)
	.loc 1 894 25
	lw	a5,-20(s0)
	sw	zero,8(a5)
	.loc 1 895 14
	lw	a5,-40(s0)
	lw	a4,-20(s0)
	sw	a4,0(a5)
	.loc 1 897 12
	li	a5,0
	j	.L119
.L121:
.LBE7:
	.loc 1 905 12
	li	a2,0
	lw	a1,-40(s0)
	lw	a0,-36(s0)
	call	netconn_recv_data
	mv	a5,a0
.L119:
	.loc 1 908 1
	mv	a0,a5
	lw	ra,44(sp)
	.cfi_restore 1
	lw	s0,40(sp)
	.cfi_restore 8
	.cfi_def_cfa 2, 48
	addi	sp,sp,48
	.cfi_def_cfa_offset 0
	jr	ra
	.cfi_endproc
.LFE25:
	.size	netconn_recv, .-netconn_recv
	.section	.text.netconn_sendto,"ax",@progbits
	.align	1
	.globl	netconn_sendto
	.type	netconn_sendto, @function
netconn_sendto:
.LFB26:
	.loc 1 923 1
	.cfi_startproc
	addi	sp,sp,-32
	.cfi_def_cfa_offset 32
	sw	ra,28(sp)
	sw	s0,24(sp)
	.cfi_offset 1, -4
	.cfi_offset 8, -8
	addi	s0,sp,32
	.cfi_def_cfa 8, 0
	sw	a0,-20(s0)
	sw	a1,-24(s0)
	sw	a2,-28(s0)
	mv	a5,a3
	sh	a5,-30(s0)
	.loc 1 924 6
	lw	a5,-24(s0)
	beq	a5,zero,.L126
	.loc 1 925 8
	lw	a5,-28(s0)
	beq	a5,zero,.L127
	.loc 1 925 8 is_stmt 0 discriminator 1
	lw	a5,-28(s0)
	lw	a5,0(a5)
	j	.L128
.L127:
	.loc 1 925 8 discriminator 2
	li	a5,0
.L128:
	.loc 1 925 25 is_stmt 1 discriminator 4
	lw	a4,-24(s0)
	sw	a5,8(a4)
	.loc 1 926 15
	lw	a5,-24(s0)
	lhu	a4,-30(s0)
	sh	a4,12(a5)
	.loc 1 927 12
	lw	a1,-24(s0)
	lw	a0,-20(s0)
	call	netconn_send
	mv	a5,a0
	j	.L129
.L126:
	.loc 1 929 10
	li	a5,-6
.L129:
	.loc 1 930 1
	mv	a0,a5
	lw	ra,28(sp)
	.cfi_restore 1
	lw	s0,24(sp)
	.cfi_restore 8
	.cfi_def_cfa 2, 32
	addi	sp,sp,32
	.cfi_def_cfa_offset 0
	jr	ra
	.cfi_endproc
.LFE26:
	.size	netconn_sendto, .-netconn_sendto
	.section	.text.netconn_send,"ax",@progbits
	.align	1
	.globl	netconn_send
	.type	netconn_send, @function
netconn_send:
.LFB27:
	.loc 1 942 1
	.cfi_startproc
	addi	sp,sp,-80
	.cfi_def_cfa_offset 80
	sw	ra,76(sp)
	sw	s0,72(sp)
	.cfi_offset 1, -4
	.cfi_offset 8, -8
	addi	s0,sp,80
	.cfi_def_cfa 8, 0
	sw	a0,-68(s0)
	sw	a1,-72(s0)
	.loc 1 946 11
	lw	a5,-68(s0)
	bne	a5,zero,.L131
	.loc 1 946 17 discriminator 1
	li	a5,-16
	.loc 1 946 17 is_stmt 0
	j	.L133
.L131:
	.loc 1 951 12 is_stmt 1
	lw	a5,-68(s0)
	sw	a5,-56(s0)
	.loc 1 952 13
	lw	a5,-72(s0)
	sw	a5,-48(s0)
	.loc 1 953 9
	addi	a5,s0,-56
	mv	a1,a5
	lui	a5,%hi(lwip_netconn_do_send)
	addi	a0,a5,%lo(lwip_netconn_do_send)
	call	netconn_apimsg
	mv	a5,a0
	sb	a5,-17(s0)
	.loc 1 956 10
	lb	a5,-17(s0)
.L133:
	.loc 1 957 1
	mv	a0,a5
	lw	ra,76(sp)
	.cfi_restore 1
	lw	s0,72(sp)
	.cfi_restore 8
	.cfi_def_cfa 2, 80
	addi	sp,sp,80
	.cfi_def_cfa_offset 0
	jr	ra
	.cfi_endproc
.LFE27:
	.size	netconn_send, .-netconn_send
	.section	.text.netconn_write_partly,"ax",@progbits
	.align	1
	.globl	netconn_write_partly
	.type	netconn_write_partly, @function
netconn_write_partly:
.LFB28:
	.loc 1 976 1
	.cfi_startproc
	addi	sp,sp,-64
	.cfi_def_cfa_offset 64
	sw	ra,60(sp)
	sw	s0,56(sp)
	.cfi_offset 1, -4
	.cfi_offset 8, -8
	addi	s0,sp,64
	.cfi_def_cfa 8, 0
	sw	a0,-36(s0)
	sw	a1,-40(s0)
	sw	a2,-44(s0)
	mv	a5,a3
	sw	a4,-52(s0)
	sb	a5,-45(s0)
	.loc 1 978 14
	lw	a5,-40(s0)
	sw	a5,-24(s0)
	.loc 1 979 14
	lw	a5,-44(s0)
	sw	a5,-20(s0)
	.loc 1 980 10
	lbu	a3,-45(s0)
	addi	a5,s0,-24
	lw	a4,-52(s0)
	li	a2,1
	mv	a1,a5
	lw	a0,-36(s0)
	call	netconn_write_vectors_partly
	mv	a5,a0
	.loc 1 981 1
	mv	a0,a5
	lw	ra,60(sp)
	.cfi_restore 1
	lw	s0,56(sp)
	.cfi_restore 8
	.cfi_def_cfa 2, 64
	addi	sp,sp,64
	.cfi_def_cfa_offset 0
	jr	ra
	.cfi_endproc
.LFE28:
	.size	netconn_write_partly, .-netconn_write_partly
	.section	.text.netconn_write_vectors_partly,"ax",@progbits
	.align	1
	.globl	netconn_write_vectors_partly
	.type	netconn_write_vectors_partly, @function
netconn_write_vectors_partly:
.LFB29:
	.loc 1 999 1
	.cfi_startproc
	addi	sp,sp,-96
	.cfi_def_cfa_offset 96
	sw	ra,92(sp)
	sw	s0,88(sp)
	.cfi_offset 1, -4
	.cfi_offset 8, -8
	addi	s0,sp,96
	.cfi_def_cfa 8, 0
	sw	a0,-84(s0)
	sw	a1,-88(s0)
	mv	a5,a2
	sw	a4,-96(s0)
	sh	a5,-90(s0)
	mv	a5,a3
	sb	a5,-91(s0)
	.loc 1 1006 11
	lw	a5,-84(s0)
	bne	a5,zero,.L137
	.loc 1 1006 17 discriminator 1
	li	a5,-16
	.loc 1 1006 17 is_stmt 0
	j	.L154
.L137:
	.loc 1 1007 21 is_stmt 1
	lw	a5,-84(s0)
	lbu	a5,0(a5)
	.loc 1 1007 28
	andi	a4,a5,240
	.loc 1 1007 11
	li	a5,16
	beq	a4,a5,.L139
	.loc 1 1007 64 discriminator 1
	li	a5,-6
	.loc 1 1007 64 is_stmt 0
	j	.L154
.L139:
	.loc 1 1008 23 is_stmt 1
	lw	a5,-84(s0)
	lbu	a5,36(a5)
	.loc 1 1008 31
	andi	a5,a5,2
	.loc 1 1008 45
	bne	a5,zero,.L140
	.loc 1 1008 58 discriminator 2
	lbu	a5,-91(s0)
	andi	a5,a5,4
	.loc 1 1008 45 discriminator 2
	beq	a5,zero,.L141
.L140:
	.loc 1 1008 45 is_stmt 0 discriminator 3
	li	a5,1
	.loc 1 1008 45
	j	.L142
.L141:
	.loc 1 1008 45 discriminator 4
	li	a5,0
.L142:
	.loc 1 1008 13 is_stmt 1 discriminator 6
	sb	a5,-17(s0)
	.loc 1 1010 11
	lw	a5,-84(s0)
	lw	a5,28(a5)
	.loc 1 1010 6
	beq	a5,zero,.L143
	.loc 1 1011 15
	li	a5,1
	sb	a5,-17(s0)
.L143:
	.loc 1 1014 6
	lbu	a5,-17(s0)
	beq	a5,zero,.L144
	.loc 1 1014 17 discriminator 1
	lw	a5,-96(s0)
	bne	a5,zero,.L144
	.loc 1 1017 12
	li	a5,-6
	j	.L154
.L144:
	.loc 1 1021 8
	sw	zero,-24(s0)
	.loc 1 1022 10
	sw	zero,-28(s0)
	.loc 1 1022 3
	j	.L145
.L147:
	.loc 1 1023 20
	lw	a5,-28(s0)
	slli	a5,a5,3
	lw	a4,-88(s0)
	add	a5,a4,a5
	.loc 1 1023 23
	lw	a5,4(a5)
	.loc 1 1023 10
	lw	a4,-24(s0)
	add	a5,a4,a5
	sw	a5,-24(s0)
	.loc 1 1024 23
	lw	a5,-28(s0)
	slli	a5,a5,3
	lw	a4,-88(s0)
	add	a5,a4,a5
	.loc 1 1024 26
	lw	a5,4(a5)
	.loc 1 1024 8
	lw	a4,-24(s0)
	bgeu	a4,a5,.L146
	.loc 1 1026 14
	li	a5,-6
	j	.L154
.L146:
	.loc 1 1022 31 discriminator 2
	lw	a5,-28(s0)
	addi	a5,a5,1
	sw	a5,-28(s0)
.L145:
	.loc 1 1022 17 discriminator 1
	lhu	a5,-90(s0)
	lw	a4,-28(s0)
	blt	a4,a5,.L147
	.loc 1 1029 6
	lw	a5,-24(s0)
	bne	a5,zero,.L148
	.loc 1 1030 12
	li	a5,0
	j	.L154
.L148:
	.loc 1 1031 19
	lw	a5,-24(s0)
	.loc 1 1031 13
	bge	a5,zero,.L149
.LBB8:
	.loc 1 1034 8
	lw	a5,-96(s0)
	bne	a5,zero,.L150
	.loc 1 1035 14
	li	a5,-6
	j	.L154
.L150:
	.loc 1 1038 13
	li	a5,-2147483648
	addi	a5,a5,-1
	sw	a5,-32(s0)
	.loc 1 1039 10
	lw	a5,-32(s0)
	sw	a5,-24(s0)
.L149:
.LBE8:
	.loc 1 1044 12
	lw	a5,-84(s0)
	sw	a5,-72(s0)
	.loc 1 1045 20
	lw	a5,-88(s0)
	sw	a5,-64(s0)
	.loc 1 1046 24
	lhu	a5,-90(s0)
	sh	a5,-60(s0)
	.loc 1 1047 24
	sw	zero,-56(s0)
	.loc 1 1048 22
	lbu	a5,-91(s0)
	sb	a5,-44(s0)
	.loc 1 1049 17
	lw	a5,-24(s0)
	sw	a5,-52(s0)
	.loc 1 1050 20
	sw	zero,-48(s0)
	.loc 1 1052 11
	lw	a5,-84(s0)
	lw	a5,28(a5)
	.loc 1 1052 6
	beq	a5,zero,.L151
	.loc 1 1055 30
	call	sys_now
	mv	a5,a0
	.loc 1 1055 28 discriminator 1
	sw	a5,-40(s0)
	j	.L152
.L151:
	.loc 1 1057 28
	sw	zero,-40(s0)
.L152:
	.loc 1 1064 9
	addi	a5,s0,-72
	mv	a1,a5
	lui	a5,%hi(lwip_netconn_do_write)
	addi	a0,a5,%lo(lwip_netconn_do_write)
	call	netconn_apimsg
	mv	a5,a0
	sb	a5,-33(s0)
	.loc 1 1065 6
	lb	a5,-33(s0)
	bne	a5,zero,.L153
	.loc 1 1066 8
	lw	a5,-96(s0)
	beq	a5,zero,.L153
	.loc 1 1067 33
	lw	a4,-48(s0)
	.loc 1 1067 22
	lw	a5,-96(s0)
	sw	a4,0(a5)
.L153:
	.loc 1 1077 10
	lb	a5,-33(s0)
.L154:
	.loc 1 1078 1
	mv	a0,a5
	lw	ra,92(sp)
	.cfi_restore 1
	lw	s0,88(sp)
	.cfi_restore 8
	.cfi_def_cfa 2, 96
	addi	sp,sp,96
	.cfi_def_cfa_offset 0
	jr	ra
	.cfi_endproc
.LFE29:
	.size	netconn_write_vectors_partly, .-netconn_write_vectors_partly
	.section	.text.netconn_close_shutdown,"ax",@progbits
	.align	1
	.type	netconn_close_shutdown, @function
netconn_close_shutdown:
.LFB30:
	.loc 1 1090 1
	.cfi_startproc
	addi	sp,sp,-80
	.cfi_def_cfa_offset 80
	sw	ra,76(sp)
	sw	s0,72(sp)
	.cfi_offset 1, -4
	.cfi_offset 8, -8
	addi	s0,sp,80
	.cfi_def_cfa 8, 0
	sw	a0,-68(s0)
	mv	a5,a1
	sb	a5,-69(s0)
	.loc 1 1095 11
	lw	a5,-68(s0)
	bne	a5,zero,.L156
	.loc 1 1095 17 discriminator 1
	li	a5,-16
	.loc 1 1095 17 is_stmt 0
	j	.L158
.L156:
	.loc 1 1098 12 is_stmt 1
	lw	a5,-68(s0)
	sw	a5,-56(s0)
	.loc 1 1101 19
	lbu	a5,-69(s0)
	sb	a5,-48(s0)
	.loc 1 1105 29
	call	sys_now
	mv	a5,a0
	.loc 1 1105 27 discriminator 1
	sw	a5,-44(s0)
	.loc 1 1111 9
	addi	a5,s0,-56
	mv	a1,a5
	lui	a5,%hi(lwip_netconn_do_close)
	addi	a0,a5,%lo(lwip_netconn_do_close)
	call	netconn_apimsg
	mv	a5,a0
	sb	a5,-17(s0)
	.loc 1 1114 10
	lb	a5,-17(s0)
.L158:
	.loc 1 1115 1
	mv	a0,a5
	lw	ra,76(sp)
	.cfi_restore 1
	lw	s0,72(sp)
	.cfi_restore 8
	.cfi_def_cfa 2, 80
	addi	sp,sp,80
	.cfi_def_cfa_offset 0
	jr	ra
	.cfi_endproc
.LFE30:
	.size	netconn_close_shutdown, .-netconn_close_shutdown
	.section	.text.netconn_close,"ax",@progbits
	.align	1
	.globl	netconn_close
	.type	netconn_close, @function
netconn_close:
.LFB31:
	.loc 1 1126 1
	.cfi_startproc
	addi	sp,sp,-32
	.cfi_def_cfa_offset 32
	sw	ra,28(sp)
	sw	s0,24(sp)
	.cfi_offset 1, -4
	.cfi_offset 8, -8
	addi	s0,sp,32
	.cfi_def_cfa 8, 0
	sw	a0,-20(s0)
	.loc 1 1128 10
	li	a1,3
	lw	a0,-20(s0)
	call	netconn_close_shutdown
	mv	a5,a0
	.loc 1 1129 1
	mv	a0,a5
	lw	ra,28(sp)
	.cfi_restore 1
	lw	s0,24(sp)
	.cfi_restore 8
	.cfi_def_cfa 2, 32
	addi	sp,sp,32
	.cfi_def_cfa_offset 0
	jr	ra
	.cfi_endproc
.LFE31:
	.size	netconn_close, .-netconn_close
	.section	.text.netconn_err,"ax",@progbits
	.align	1
	.globl	netconn_err
	.type	netconn_err, @function
netconn_err:
.LFB32:
	.loc 1 1140 1
	.cfi_startproc
	addi	sp,sp,-48
	.cfi_def_cfa_offset 48
	sw	ra,44(sp)
	sw	s0,40(sp)
	.cfi_offset 1, -4
	.cfi_offset 8, -8
	addi	s0,sp,48
	.cfi_def_cfa 8, 0
	sw	a0,-36(s0)
	.loc 1 1143 6
	lw	a5,-36(s0)
	bne	a5,zero,.L162
	.loc 1 1144 12
	li	a5,0
	j	.L163
.L162:
	.loc 1 1146 9
	call	sys_arch_protect
	sw	a0,-20(s0)
	.loc 1 1147 7
	lw	a5,-36(s0)
	lbu	a5,8(a5)
	sb	a5,-21(s0)
	.loc 1 1148 21
	lw	a5,-36(s0)
	sb	zero,8(a5)
	.loc 1 1149 3
	lw	a0,-20(s0)
	call	sys_arch_unprotect
	.loc 1 1150 10
	lb	a5,-21(s0)
.L163:
	.loc 1 1151 1
	mv	a0,a5
	lw	ra,44(sp)
	.cfi_restore 1
	lw	s0,40(sp)
	.cfi_restore 8
	.cfi_def_cfa 2, 48
	addi	sp,sp,48
	.cfi_def_cfa_offset 0
	jr	ra
	.cfi_endproc
.LFE32:
	.size	netconn_err, .-netconn_err
	.section	.text.netconn_shutdown,"ax",@progbits
	.align	1
	.globl	netconn_shutdown
	.type	netconn_shutdown, @function
netconn_shutdown:
.LFB33:
	.loc 1 1164 1
	.cfi_startproc
	addi	sp,sp,-32
	.cfi_def_cfa_offset 32
	sw	ra,28(sp)
	sw	s0,24(sp)
	.cfi_offset 1, -4
	.cfi_offset 8, -8
	addi	s0,sp,32
	.cfi_def_cfa 8, 0
	sw	a0,-20(s0)
	mv	a5,a1
	mv	a4,a2
	sb	a5,-21(s0)
	mv	a5,a4
	sb	a5,-22(s0)
	.loc 1 1165 64
	lbu	a5,-21(s0)
	beq	a5,zero,.L165
	.loc 1 1165 64 is_stmt 0 discriminator 1
	li	a4,1
	j	.L166
.L165:
	.loc 1 1165 64 discriminator 2
	li	a4,0
.L166:
	.loc 1 1165 64 discriminator 4
	lbu	a5,-22(s0)
	beq	a5,zero,.L167
	.loc 1 1165 64 discriminator 5
	li	a5,2
	j	.L168
.L167:
	.loc 1 1165 64 discriminator 6
	li	a5,0
.L168:
	.loc 1 1165 64 discriminator 8
	or	a5,a4,a5
	slli	a5,a5,24
	srai	a5,a5,24
	.loc 1 1165 10 is_stmt 1 discriminator 8
	andi	a5,a5,0xff
	mv	a1,a5
	lw	a0,-20(s0)
	call	netconn_close_shutdown
	mv	a5,a0
	.loc 1 1166 1
	mv	a0,a5
	lw	ra,28(sp)
	.cfi_restore 1
	lw	s0,24(sp)
	.cfi_restore 8
	.cfi_def_cfa 2, 32
	addi	sp,sp,32
	.cfi_def_cfa_offset 0
	jr	ra
	.cfi_endproc
.LFE33:
	.size	netconn_shutdown, .-netconn_shutdown
	.section	.text.netconn_join_leave_group,"ax",@progbits
	.align	1
	.globl	netconn_join_leave_group
	.type	netconn_join_leave_group, @function
netconn_join_leave_group:
.LFB34:
	.loc 1 1185 1
	.cfi_startproc
	addi	sp,sp,-80
	.cfi_def_cfa_offset 80
	sw	ra,76(sp)
	sw	s0,72(sp)
	.cfi_offset 1, -4
	.cfi_offset 8, -8
	addi	s0,sp,80
	.cfi_def_cfa 8, 0
	sw	a0,-68(s0)
	sw	a1,-72(s0)
	sw	a2,-76(s0)
	mv	a5,a3
	sb	a5,-77(s0)
	.loc 1 1189 11
	lw	a5,-68(s0)
	bne	a5,zero,.L171
	.loc 1 1189 17 discriminator 1
	li	a5,-16
	.loc 1 1189 17 is_stmt 0
	j	.L175
.L171:
	.loc 1 1195 6 is_stmt 1
	lw	a5,-72(s0)
	bne	a5,zero,.L173
	.loc 1 1196 15
	lui	a5,%hi(ip_addr_any)
	addi	a5,a5,%lo(ip_addr_any)
	sw	a5,-72(s0)
.L173:
	.loc 1 1198 6
	lw	a5,-76(s0)
	bne	a5,zero,.L174
	.loc 1 1199 16
	lui	a5,%hi(ip_addr_any)
	addi	a5,a5,%lo(ip_addr_any)
	sw	a5,-76(s0)
.L174:
	.loc 1 1203 12
	lw	a5,-68(s0)
	sw	a5,-56(s0)
	.loc 1 1204 24
	lw	a5,-72(s0)
	sw	a5,-48(s0)
	.loc 1 1205 25
	lw	a5,-76(s0)
	sw	a5,-44(s0)
	.loc 1 1206 28
	lbu	a5,-77(s0)
	sb	a5,-39(s0)
	.loc 1 1207 9
	addi	a5,s0,-56
	mv	a1,a5
	lui	a5,%hi(lwip_netconn_do_join_leave_group)
	addi	a0,a5,%lo(lwip_netconn_do_join_leave_group)
	call	netconn_apimsg
	mv	a5,a0
	sb	a5,-17(s0)
	.loc 1 1210 10
	lb	a5,-17(s0)
.L175:
	.loc 1 1211 1
	mv	a0,a5
	lw	ra,76(sp)
	.cfi_restore 1
	lw	s0,72(sp)
	.cfi_restore 8
	.cfi_def_cfa 2, 80
	addi	sp,sp,80
	.cfi_def_cfa_offset 0
	jr	ra
	.cfi_endproc
.LFE34:
	.size	netconn_join_leave_group, .-netconn_join_leave_group
	.section	.text.netconn_join_leave_group_netif,"ax",@progbits
	.align	1
	.globl	netconn_join_leave_group_netif
	.type	netconn_join_leave_group_netif, @function
netconn_join_leave_group_netif:
.LFB35:
	.loc 1 1227 1
	.cfi_startproc
	addi	sp,sp,-80
	.cfi_def_cfa_offset 80
	sw	ra,76(sp)
	sw	s0,72(sp)
	.cfi_offset 1, -4
	.cfi_offset 8, -8
	addi	s0,sp,80
	.cfi_def_cfa 8, 0
	sw	a0,-68(s0)
	sw	a1,-72(s0)
	mv	a5,a2
	mv	a4,a3
	sb	a5,-73(s0)
	mv	a5,a4
	sb	a5,-74(s0)
	.loc 1 1231 11
	lw	a5,-68(s0)
	bne	a5,zero,.L177
	.loc 1 1231 17 discriminator 1
	li	a5,-16
	.loc 1 1231 17 is_stmt 0
	j	.L181
.L177:
	.loc 1 1237 6 is_stmt 1
	lw	a5,-72(s0)
	bne	a5,zero,.L179
	.loc 1 1238 15
	lui	a5,%hi(ip_addr_any)
	addi	a5,a5,%lo(ip_addr_any)
	sw	a5,-72(s0)
.L179:
	.loc 1 1240 6
	lbu	a5,-73(s0)
	bne	a5,zero,.L180
	.loc 1 1241 12
	li	a5,-12
	j	.L181
.L180:
	.loc 1 1245 12
	lw	a5,-68(s0)
	sw	a5,-56(s0)
	.loc 1 1246 24
	lw	a5,-72(s0)
	sw	a5,-48(s0)
	.loc 1 1247 21
	lbu	a5,-73(s0)
	sb	a5,-40(s0)
	.loc 1 1248 28
	lbu	a5,-74(s0)
	sb	a5,-39(s0)
	.loc 1 1249 9
	addi	a5,s0,-56
	mv	a1,a5
	lui	a5,%hi(lwip_netconn_do_join_leave_group_netif)
	addi	a0,a5,%lo(lwip_netconn_do_join_leave_group_netif)
	call	netconn_apimsg
	mv	a5,a0
	sb	a5,-17(s0)
	.loc 1 1252 10
	lb	a5,-17(s0)
.L181:
	.loc 1 1253 1
	mv	a0,a5
	lw	ra,76(sp)
	.cfi_restore 1
	lw	s0,72(sp)
	.cfi_restore 8
	.cfi_def_cfa 2, 80
	addi	sp,sp,80
	.cfi_def_cfa_offset 0
	jr	ra
	.cfi_endproc
.LFE35:
	.size	netconn_join_leave_group_netif, .-netconn_join_leave_group_netif
	.section	.text.netconn_gethostbyname,"ax",@progbits
	.align	1
	.globl	netconn_gethostbyname
	.type	netconn_gethostbyname, @function
netconn_gethostbyname:
.LFB36:
	.loc 1 1276 1
	.cfi_startproc
	addi	sp,sp,-64
	.cfi_def_cfa_offset 64
	sw	ra,60(sp)
	sw	s0,56(sp)
	.cfi_offset 1, -4
	.cfi_offset 8, -8
	addi	s0,sp,64
	.cfi_def_cfa 8, 0
	sw	a0,-52(s0)
	sw	a1,-56(s0)
	.loc 1 1284 11
	lw	a5,-52(s0)
	bne	a5,zero,.L183
	.loc 1 1284 17 discriminator 1
	li	a5,-16
	.loc 1 1284 17 is_stmt 0
	j	.L188
.L183:
	.loc 1 1285 11 is_stmt 1
	lw	a5,-56(s0)
	bne	a5,zero,.L185
	.loc 1 1285 17 discriminator 1
	li	a5,-16
	.loc 1 1285 17 is_stmt 0
	j	.L188
.L185:
	.loc 1 1307 11 is_stmt 1
	addi	a5,s0,-41
	sw	a5,-24(s0)
	.loc 1 1308 11
	addi	a5,s0,-40
	sw	a5,-28(s0)
	.loc 1 1309 12
	lw	a5,-56(s0)
	sw	a5,-32(s0)
	.loc 1 1310 12
	lw	a5,-52(s0)
	sw	a5,-36(s0)
	.loc 1 1318 9
	lw	a5,-28(s0)
	li	a1,0
	mv	a0,a5
	call	sys_sem_new
	mv	a5,a0
	.loc 1 1318 7 discriminator 1
	sb	a5,-41(s0)
	.loc 1 1319 11
	lb	a5,-41(s0)
	.loc 1 1319 6
	beq	a5,zero,.L186
	.loc 1 1321 12
	lb	a5,-41(s0)
	j	.L188
.L186:
	.loc 1 1325 11
	lw	a4,-28(s0)
	addi	a5,s0,-36
	mv	a2,a4
	mv	a1,a5
	lui	a5,%hi(lwip_netconn_do_gethostbyname)
	addi	a0,a5,%lo(lwip_netconn_do_gethostbyname)
	call	tcpip_send_msg_wait_sem
	mv	a5,a0
	sb	a5,-17(s0)
	.loc 1 1327 3
	lw	a5,-28(s0)
	mv	a0,a5
	call	sys_sem_free
	.loc 1 1329 6
	lb	a5,-17(s0)
	beq	a5,zero,.L187
	.loc 1 1331 12
	lb	a5,-17(s0)
	j	.L188
.L187:
	.loc 1 1340 10
	lb	a5,-41(s0)
.L188:
	.loc 1 1341 1
	mv	a0,a5
	lw	ra,60(sp)
	.cfi_restore 1
	lw	s0,56(sp)
	.cfi_restore 8
	.cfi_def_cfa 2, 64
	addi	sp,sp,64
	.cfi_def_cfa_offset 0
	jr	ra
	.cfi_endproc
.LFE36:
	.size	netconn_gethostbyname, .-netconn_gethostbyname
	.text
.Letext0:
	.file 2 "/home/chandu/sdk/bl602_iot_sdk/components/network/lwip/lwip-port/arch/cc.h"
	.file 3 "/home/chandu/sdk/bl602_iot_sdk/toolchain/compiler/lib/gcc/riscv32-unknown-elf/15.1.0/include/stddef.h"
	.file 4 "/home/chandu/sdk/bl602_iot_sdk/toolchain/compiler/riscv32-unknown-elf/include/sys/_types.h"
	.file 5 "/home/chandu/sdk/bl602_iot_sdk/toolchain/compiler/riscv32-unknown-elf/include/stdio.h"
	.file 6 "/home/chandu/sdk/bl602_iot_sdk/toolchain/compiler/lib/gcc/riscv32-unknown-elf/15.1.0/include/stdint-gcc.h"
	.file 7 "/home/chandu/sdk/bl602_iot_sdk/components/network/lwip/src/include/lwip/arch.h"
	.file 8 "/home/chandu/sdk/bl602_iot_sdk/components/network/lwip/src/include/lwip/err.h"
	.file 9 "/home/chandu/sdk/bl602_iot_sdk/components/network/lwip/src/include/lwip/pbuf.h"
	.file 10 "/home/chandu/sdk/bl602_iot_sdk/components/network/lwip/src/include/lwip/ip4_addr.h"
	.file 11 "/home/chandu/sdk/bl602_iot_sdk/components/network/lwip/src/include/lwip/ip_addr.h"
	.file 12 "/home/chandu/sdk/bl602_iot_sdk/components/network/lwip/src/include/lwip/netbuf.h"
	.file 13 "/home/chandu/sdk/bl602_iot_sdk/components/freertos/include/queue.h"
	.file 14 "/home/chandu/sdk/bl602_iot_sdk/components/freertos/include/semphr.h"
	.file 15 "/home/chandu/sdk/bl602_iot_sdk/components/network/lwip/lwip-port/arch/sys_arch.h"
	.file 16 "/home/chandu/sdk/bl602_iot_sdk/components/network/lwip/src/include/lwip/api.h"
	.file 17 "/home/chandu/sdk/bl602_iot_sdk/components/network/lwip/src/include/lwip/ip.h"
	.file 18 "/home/chandu/sdk/bl602_iot_sdk/components/network/lwip/src/include/lwip/tcp.h"
	.file 19 "/home/chandu/sdk/bl602_iot_sdk/components/network/lwip/src/include/lwip/udp.h"
	.file 20 "/home/chandu/sdk/bl602_iot_sdk/components/network/lwip/src/include/lwip/raw.h"
	.file 21 "/home/chandu/sdk/bl602_iot_sdk/components/network/lwip/src/include/lwip/priv/api_msg.h"
	.file 22 "/home/chandu/sdk/bl602_iot_sdk/components/network/lwip/src/include/lwip/memp.h"
	.file 23 "/home/chandu/sdk/bl602_iot_sdk/components/network/lwip/src/include/lwip/tcpip.h"
	.file 24 "/home/chandu/sdk/bl602_iot_sdk/components/network/lwip/src/include/lwip/tcpbase.h"
	.file 25 "/home/chandu/sdk/bl602_iot_sdk/components/network/lwip/src/include/lwip/priv/tcp_priv.h"
	.file 26 "/home/chandu/sdk/bl602_iot_sdk/components/network/lwip/src/include/lwip/prot/tcp.h"
	.file 27 "/home/chandu/sdk/bl602_iot_sdk/components/network/lwip/src/include/lwip/sys.h"
	.file 28 "/home/chandu/sdk/bl602_iot_sdk/components/network/lwip/src/include/lwip/priv/tcpip_priv.h"
	.section	.note.GNU-stack,"",@progbits
