	.file	"netdb.c"
	.option nopic
	.attribute arch, "rv32i2p1_m2p0_f2p2_c2p0_zicsr2p0_zmmul1p0_zca1p0_zcf1p0"
	.attribute unaligned_access, 0
	.attribute stack_align, 16
	.text
.Ltext0:
	.cfi_sections	.debug_frame
	.file 0 "/home/chandu/sdk/bl602_iot_sdk/customer_app/suas_app_pqkem_gateway/build_out/lwip" "/home/chandu/sdk/bl602_iot_sdk/components/network/lwip/src/api/netdb.c"
	.globl	h_errno
	.section	.sbss.h_errno,"aw",@nobits
	.align	2
	.type	h_errno, @object
	.size	h_errno, 4
h_errno:
	.zero	4
	.section	.text.lwip_gethostbyname,"ax",@progbits
	.align	1
	.globl	lwip_gethostbyname
	.type	lwip_gethostbyname, @function
lwip_gethostbyname:
.LFB6:
	.file 1 "/home/chandu/sdk/bl602_iot_sdk/components/network/lwip/src/api/netdb.c"
	.loc 1 94 1
	.cfi_startproc
	addi	sp,sp,-48
	.cfi_def_cfa_offset 48
	sw	ra,44(sp)
	sw	s0,40(sp)
	.cfi_offset 1, -4
	.cfi_offset 8, -8
	addi	s0,sp,48
	.cfi_def_cfa 8, 0
	sw	a0,-36(s0)
	.loc 1 106 9
	addi	a5,s0,-24
	mv	a1,a5
	lw	a0,-36(s0)
	call	netconn_gethostbyname
	mv	a5,a0
	sb	a5,-17(s0)
	.loc 1 107 6
	lb	a5,-17(s0)
	beq	a5,zero,.L2
	.loc 1 109 13
	lui	a5,%hi(h_errno)
	li	a4,210
	sw	a4,%lo(h_errno)(a5)
	.loc 1 110 11
	li	a5,0
	j	.L4
.L2:
	.loc 1 114 18
	lui	a5,%hi(s_hostent_addr.4)
	lw	a4,-24(s0)
	sw	a4,%lo(s_hostent_addr.4)(a5)
	.loc 1 115 22
	lui	a5,%hi(s_phostent_addr.3)
	addi	a5,a5,%lo(s_phostent_addr.3)
	lui	a4,%hi(s_hostent_addr.4)
	addi	a4,a4,%lo(s_hostent_addr.4)
	sw	a4,0(a5)
	.loc 1 116 22
	lui	a5,%hi(s_phostent_addr.3)
	addi	a5,a5,%lo(s_phostent_addr.3)
	sw	zero,4(a5)
	.loc 1 117 3
	li	a2,256
	lw	a1,-36(s0)
	lui	a5,%hi(s_hostname.2)
	addi	a0,a5,%lo(s_hostname.2)
	call	strncpy
	.loc 1 118 19
	lui	a5,%hi(s_hostname.2)
	addi	a5,a5,%lo(s_hostname.2)
	sb	zero,256(a5)
	.loc 1 119 20
	lui	a5,%hi(s_hostent.1)
	addi	a5,a5,%lo(s_hostent.1)
	lui	a4,%hi(s_hostname.2)
	addi	a4,a4,%lo(s_hostname.2)
	sw	a4,0(a5)
	.loc 1 120 13
	lui	a5,%hi(s_aliases.0)
	sw	zero,%lo(s_aliases.0)(a5)
	.loc 1 121 23
	lui	a5,%hi(s_hostent.1)
	addi	a5,a5,%lo(s_hostent.1)
	lui	a4,%hi(s_aliases.0)
	addi	a4,a4,%lo(s_aliases.0)
	sw	a4,4(a5)
	.loc 1 122 24
	lui	a5,%hi(s_hostent.1)
	addi	a5,a5,%lo(s_hostent.1)
	li	a4,2
	sw	a4,8(a5)
	.loc 1 123 22
	lui	a5,%hi(s_hostent.1)
	addi	a5,a5,%lo(s_hostent.1)
	li	a4,4
	sw	a4,12(a5)
	.loc 1 124 25
	lui	a5,%hi(s_hostent.1)
	addi	a5,a5,%lo(s_hostent.1)
	lui	a4,%hi(s_phostent_addr.3)
	addi	a4,a4,%lo(s_phostent_addr.3)
	sw	a4,16(a5)
	.loc 1 146 10
	lui	a5,%hi(s_hostent.1)
	addi	a5,a5,%lo(s_hostent.1)
.L4:
	.loc 1 148 1
	mv	a0,a5
	lw	ra,44(sp)
	.cfi_restore 1
	lw	s0,40(sp)
	.cfi_restore 8
	.cfi_def_cfa 2, 48
	addi	sp,sp,48
	.cfi_def_cfa_offset 0
	jr	ra
	.cfi_endproc
.LFE6:
	.size	lwip_gethostbyname, .-lwip_gethostbyname
	.section	.text.lwip_gethostbyname_r,"ax",@progbits
	.align	1
	.globl	lwip_gethostbyname_r
	.type	lwip_gethostbyname_r, @function
lwip_gethostbyname_r:
.LFB7:
	.loc 1 169 1
	.cfi_startproc
	addi	sp,sp,-80
	.cfi_def_cfa_offset 80
	sw	ra,76(sp)
	sw	s0,72(sp)
	.cfi_offset 1, -4
	.cfi_offset 8, -8
	addi	s0,sp,80
	.cfi_def_cfa 8, 0
	sw	a0,-52(s0)
	sw	a1,-56(s0)
	sw	a2,-60(s0)
	sw	a3,-64(s0)
	sw	a4,-68(s0)
	sw	a5,-72(s0)
	.loc 1 176 6
	lw	a5,-72(s0)
	bne	a5,zero,.L6
	.loc 1 178 14
	addi	a5,s0,-36
	sw	a5,-72(s0)
.L6:
	.loc 1 181 6
	lw	a5,-68(s0)
	bne	a5,zero,.L7
	.loc 1 183 15
	lw	a5,-72(s0)
	li	a4,22
	sw	a4,0(a5)
	.loc 1 184 12
	li	a5,-1
	j	.L13
.L7:
	.loc 1 187 11
	lw	a5,-68(s0)
	sw	zero,0(a5)
	.loc 1 188 6
	lw	a5,-52(s0)
	beq	a5,zero,.L9
	.loc 1 188 21 discriminator 1
	lw	a5,-56(s0)
	beq	a5,zero,.L9
	.loc 1 188 38 discriminator 2
	lw	a5,-60(s0)
	bne	a5,zero,.L10
.L9:
	.loc 1 190 15
	lw	a5,-72(s0)
	li	a4,22
	sw	a4,0(a5)
	.loc 1 191 12
	li	a5,-1
	j	.L13
.L10:
	.loc 1 194 13
	lw	a0,-52(s0)
	call	strlen
	sw	a0,-20(s0)
	.loc 1 195 55
	lw	a5,-20(s0)
	addi	a5,a5,20
	.loc 1 195 6
	lw	a4,-64(s0)
	bgeu	a4,a5,.L11
	.loc 1 197 15
	lw	a5,-72(s0)
	li	a4,34
	sw	a4,0(a5)
	.loc 1 198 12
	li	a5,-1
	j	.L13
.L11:
	.loc 1 201 51
	lw	a5,-60(s0)
	.loc 1 201 72
	addi	a5,a5,3
	.loc 1 201 77
	andi	a5,a5,-4
	.loc 1 201 5
	sw	a5,-24(s0)
	.loc 1 202 12
	lw	a5,-24(s0)
	addi	a5,a5,16
	sw	a5,-28(s0)
	.loc 1 205 9
	lw	a5,-24(s0)
	addi	a5,a5,8
	mv	a1,a5
	lw	a0,-52(s0)
	call	netconn_gethostbyname
	mv	a5,a0
	sb	a5,-29(s0)
	.loc 1 206 6
	lb	a5,-29(s0)
	beq	a5,zero,.L12
	.loc 1 208 15
	lw	a5,-72(s0)
	li	a4,210
	sw	a4,0(a5)
	.loc 1 209 12
	li	a5,-1
	j	.L13
.L12:
	.loc 1 213 3
	lw	a2,-20(s0)
	lw	a1,-52(s0)
	lw	a0,-28(s0)
	call	memcpy
	.loc 1 214 11
	lw	a4,-28(s0)
	lw	a5,-20(s0)
	add	a5,a4,a5
	.loc 1 214 21
	sb	zero,0(a5)
	.loc 1 217 21
	lw	a5,-24(s0)
	addi	a4,a5,8
	.loc 1 217 19
	lw	a5,-24(s0)
	sw	a4,0(a5)
	.loc 1 218 19
	lw	a5,-24(s0)
	sw	zero,4(a5)
	.loc 1 219 14
	lw	a5,-24(s0)
	sw	zero,12(a5)
	.loc 1 220 15
	lw	a5,-56(s0)
	lw	a4,-28(s0)
	sw	a4,0(a5)
	.loc 1 221 20
	lw	a5,-24(s0)
	addi	a4,a5,12
	.loc 1 221 18
	lw	a5,-56(s0)
	sw	a4,4(a5)
	.loc 1 222 19
	lw	a5,-56(s0)
	li	a4,2
	sw	a4,8(a5)
	.loc 1 223 17
	lw	a5,-56(s0)
	li	a4,4
	sw	a4,12(a5)
	.loc 1 224 31
	lw	a4,-24(s0)
	.loc 1 224 20
	lw	a5,-56(s0)
	sw	a4,16(a5)
	.loc 1 227 11
	lw	a5,-68(s0)
	lw	a4,-56(s0)
	sw	a4,0(a5)
	.loc 1 230 10
	li	a5,0
.L13:
	.loc 1 231 1
	mv	a0,a5
	lw	ra,76(sp)
	.cfi_restore 1
	lw	s0,72(sp)
	.cfi_restore 8
	.cfi_def_cfa 2, 80
	addi	sp,sp,80
	.cfi_def_cfa_offset 0
	jr	ra
	.cfi_endproc
.LFE7:
	.size	lwip_gethostbyname_r, .-lwip_gethostbyname_r
	.section	.text.lwip_freeaddrinfo,"ax",@progbits
	.align	1
	.globl	lwip_freeaddrinfo
	.type	lwip_freeaddrinfo, @function
lwip_freeaddrinfo:
.LFB8:
	.loc 1 242 1
	.cfi_startproc
	addi	sp,sp,-48
	.cfi_def_cfa_offset 48
	sw	ra,44(sp)
	sw	s0,40(sp)
	.cfi_offset 1, -4
	.cfi_offset 8, -8
	addi	s0,sp,48
	.cfi_def_cfa 8, 0
	sw	a0,-36(s0)
	.loc 1 245 9
	j	.L15
.L16:
	.loc 1 246 10
	lw	a5,-36(s0)
	lw	a5,28(a5)
	sw	a5,-20(s0)
	.loc 1 247 5
	lw	a1,-36(s0)
	li	a0,12
	call	memp_free
	.loc 1 248 8
	lw	a5,-20(s0)
	sw	a5,-36(s0)
.L15:
	.loc 1 245 13
	lw	a5,-36(s0)
	bne	a5,zero,.L16
	.loc 1 250 1
	nop
	nop
	lw	ra,44(sp)
	.cfi_restore 1
	lw	s0,40(sp)
	.cfi_restore 8
	.cfi_def_cfa 2, 48
	addi	sp,sp,48
	.cfi_def_cfa_offset 0
	jr	ra
	.cfi_endproc
.LFE8:
	.size	lwip_freeaddrinfo, .-lwip_freeaddrinfo
	.section	.text.lwip_getaddrinfo,"ax",@progbits
	.align	1
	.globl	lwip_getaddrinfo
	.type	lwip_getaddrinfo, @function
lwip_getaddrinfo:
.LFB9:
	.loc 1 276 1
	.cfi_startproc
	addi	sp,sp,-80
	.cfi_def_cfa_offset 80
	sw	ra,76(sp)
	sw	s0,72(sp)
	.cfi_offset 1, -4
	.cfi_offset 8, -8
	addi	s0,sp,80
	.cfi_def_cfa 8, 0
	sw	a0,-68(s0)
	sw	a1,-72(s0)
	sw	a2,-76(s0)
	sw	a3,-80(s0)
	.loc 1 280 28
	sw	zero,-32(s0)
	.loc 1 281 7
	sw	zero,-20(s0)
	.loc 1 283 10
	sw	zero,-28(s0)
	.loc 1 286 6
	lw	a5,-80(s0)
	bne	a5,zero,.L18
	.loc 1 287 12
	li	a5,202
	j	.L37
.L18:
	.loc 1 289 8
	lw	a5,-80(s0)
	sw	zero,0(a5)
	.loc 1 290 6
	lw	a5,-68(s0)
	bne	a5,zero,.L20
	.loc 1 290 25 discriminator 1
	lw	a5,-72(s0)
	bne	a5,zero,.L20
	.loc 1 291 12
	li	a5,200
	j	.L37
.L20:
	.loc 1 294 6
	lw	a5,-76(s0)
	beq	a5,zero,.L21
	.loc 1 295 15
	lw	a5,-76(s0)
	lw	a5,4(a5)
	sw	a5,-36(s0)
	.loc 1 296 8
	lw	a5,-36(s0)
	beq	a5,zero,.L22
	.loc 1 298 9
	lw	a4,-36(s0)
	li	a5,2
	beq	a4,a5,.L22
	.loc 1 304 14
	li	a5,204
	j	.L37
.L21:
	.loc 1 307 15
	sw	zero,-36(s0)
.L22:
	.loc 1 310 6
	lw	a5,-72(s0)
	beq	a5,zero,.L23
	.loc 1 313 15
	lw	a0,-72(s0)
	call	atoi
	sw	a0,-20(s0)
	.loc 1 314 8
	lw	a5,-20(s0)
	bne	a5,zero,.L24
	.loc 1 314 34 discriminator 1
	lw	a5,-72(s0)
	lbu	a4,0(a5)
	.loc 1 314 22 discriminator 1
	li	a5,48
	beq	a4,a5,.L24
	.loc 1 316 14
	li	a5,201
	j	.L37
.L24:
	.loc 1 318 8
	lw	a5,-20(s0)
	blt	a5,zero,.L25
	.loc 1 318 23 discriminator 1
	lw	a4,-20(s0)
	li	a5,65536
	blt	a4,a5,.L23
.L25:
	.loc 1 319 14
	li	a5,201
	j	.L37
.L23:
	.loc 1 323 6
	lw	a5,-68(s0)
	beq	a5,zero,.L26
	.loc 1 325 8
	lw	a5,-76(s0)
	beq	a5,zero,.L27
	.loc 1 325 33 discriminator 1
	lw	a5,-76(s0)
	lw	a5,0(a5)
	.loc 1 325 44 discriminator 1
	andi	a5,a5,4
	.loc 1 325 24 discriminator 1
	beq	a5,zero,.L27
	.loc 1 327 12
	addi	a5,s0,-52
	mv	a1,a5
	lw	a0,-68(s0)
	call	ip4addr_aton
	mv	a5,a0
	.loc 1 327 10 discriminator 1
	bne	a5,zero,.L30
	.loc 1 328 16
	li	a5,200
	j	.L37
.L27:
	.loc 1 346 13
	addi	a5,s0,-52
	mv	a1,a5
	lw	a0,-68(s0)
	call	netconn_gethostbyname
	mv	a5,a0
	sb	a5,-37(s0)
	.loc 1 347 10
	lb	a5,-37(s0)
	beq	a5,zero,.L30
	.loc 1 348 16
	li	a5,202
	j	.L37
.L26:
	.loc 1 353 8
	lw	a5,-76(s0)
	beq	a5,zero,.L31
	.loc 1 353 33 discriminator 1
	lw	a5,-76(s0)
	lw	a5,0(a5)
	.loc 1 353 44 discriminator 1
	andi	a5,a5,1
	.loc 1 353 24 discriminator 1
	beq	a5,zero,.L31
	.loc 1 354 24
	sw	zero,-52(s0)
	j	.L30
.L31:
	.loc 1 356 24
	li	a5,16777216
	addi	a5,a5,127
	sw	a5,-52(s0)
.L30:
	.loc 1 360 14
	li	a5,48
	sw	a5,-24(s0)
	.loc 1 361 6
	lw	a5,-68(s0)
	beq	a5,zero,.L32
	.loc 1 362 15
	lw	a0,-68(s0)
	call	strlen
	sw	a0,-28(s0)
	.loc 1 363 8
	lw	a4,-28(s0)
	li	a5,256
	bleu	a4,a5,.L33
	.loc 1 365 14
	li	a5,202
	j	.L37
.L33:
	.loc 1 368 16
	lw	a4,-28(s0)
	lw	a5,-24(s0)
	add	a5,a4,a5
	addi	a5,a5,1
	sw	a5,-24(s0)
.L32:
	.loc 1 373 27
	li	a0,12
	call	memp_malloc
	sw	a0,-44(s0)
	.loc 1 374 6
	lw	a5,-44(s0)
	bne	a5,zero,.L34
	.loc 1 375 12
	li	a5,203
	j	.L37
.L34:
	.loc 1 377 3
	lw	a2,-24(s0)
	li	a1,0
	lw	a0,-44(s0)
	call	memset
	.loc 1 379 6
	lw	a5,-44(s0)
	addi	a5,a5,32
	sw	a5,-32(s0)
.LBB2:
	.loc 1 395 25
	lw	a5,-32(s0)
	sw	a5,-48(s0)
	.loc 1 397 43
	lw	a4,-52(s0)
	.loc 1 397 31
	lw	a5,-48(s0)
	sw	a4,4(a5)
	.loc 1 398 21
	lw	a5,-48(s0)
	li	a4,2
	sb	a4,1(a5)
	.loc 1 400 18
	lw	a5,-48(s0)
	li	a4,16
	sb	a4,0(a5)
	.loc 1 402 21
	lw	a5,-20(s0)
	slli	a5,a5,16
	srli	a5,a5,16
	mv	a0,a5
	call	lwip_htons
	mv	a5,a0
	mv	a4,a5
	.loc 1 402 19 discriminator 1
	lw	a5,-48(s0)
	sh	a4,2(a5)
	.loc 1 403 19
	lw	a5,-44(s0)
	li	a4,2
	sw	a4,4(a5)
.LBE2:
	.loc 1 408 6
	lw	a5,-76(s0)
	beq	a5,zero,.L35
	.loc 1 410 28
	lw	a5,-76(s0)
	lw	a4,8(a5)
	.loc 1 410 21
	lw	a5,-44(s0)
	sw	a4,8(a5)
	.loc 1 411 28
	lw	a5,-76(s0)
	lw	a4,12(a5)
	.loc 1 411 21
	lw	a5,-44(s0)
	sw	a4,12(a5)
.L35:
	.loc 1 413 6
	lw	a5,-68(s0)
	beq	a5,zero,.L36
	.loc 1 415 62
	lw	a5,-44(s0)
	addi	a4,a5,48
	.loc 1 415 22
	lw	a5,-44(s0)
	sw	a4,24(a5)
	.loc 1 416 14
	lw	a5,-44(s0)
	lw	a5,24(a5)
	.loc 1 416 5
	lw	a2,-28(s0)
	lw	a1,-68(s0)
	mv	a0,a5
	call	memcpy
	.loc 1 417 7
	lw	a5,-44(s0)
	lw	a4,24(a5)
	.loc 1 417 21
	lw	a5,-28(s0)
	add	a5,a4,a5
	.loc 1 417 31
	sb	zero,0(a5)
.L36:
	.loc 1 419 18
	lw	a5,-44(s0)
	li	a4,16
	sw	a4,16(a5)
	.loc 1 420 15
	lw	a5,-44(s0)
	lw	a4,-32(s0)
	sw	a4,20(a5)
	.loc 1 422 8
	lw	a5,-80(s0)
	lw	a4,-44(s0)
	sw	a4,0(a5)
	.loc 1 424 10
	li	a5,0
.L37:
	.loc 1 425 1
	mv	a0,a5
	lw	ra,76(sp)
	.cfi_restore 1
	lw	s0,72(sp)
	.cfi_restore 8
	.cfi_def_cfa 2, 80
	addi	sp,sp,80
	.cfi_def_cfa_offset 0
	jr	ra
	.cfi_endproc
.LFE9:
	.size	lwip_getaddrinfo, .-lwip_getaddrinfo
	.section	.sbss.s_hostent_addr.4,"aw",@nobits
	.align	2
	.type	s_hostent_addr.4, @object
	.size	s_hostent_addr.4, 4
s_hostent_addr.4:
	.zero	4
	.section	.sbss.s_phostent_addr.3,"aw",@nobits
	.align	2
	.type	s_phostent_addr.3, @object
	.size	s_phostent_addr.3, 8
s_phostent_addr.3:
	.zero	8
	.section	.bss.s_hostname.2,"aw",@nobits
	.align	2
	.type	s_hostname.2, @object
	.size	s_hostname.2, 257
s_hostname.2:
	.zero	257
	.section	.bss.s_hostent.1,"aw",@nobits
	.align	2
	.type	s_hostent.1, @object
	.size	s_hostent.1, 20
s_hostent.1:
	.zero	20
	.section	.sbss.s_aliases.0,"aw",@nobits
	.align	2
	.type	s_aliases.0, @object
	.size	s_aliases.0, 4
s_aliases.0:
	.zero	4
	.text
.Letext0:
	.file 2 "/home/chandu/sdk/bl602_iot_sdk/toolchain/compiler/lib/gcc/riscv32-unknown-elf/15.1.0/include/stddef.h"
	.file 3 "/home/chandu/sdk/bl602_iot_sdk/toolchain/compiler/lib/gcc/riscv32-unknown-elf/15.1.0/include/stdint-gcc.h"
	.file 4 "/home/chandu/sdk/bl602_iot_sdk/components/network/lwip/src/include/lwip/arch.h"
	.file 5 "/home/chandu/sdk/bl602_iot_sdk/components/network/lwip/src/include/lwip/ip4_addr.h"
	.file 6 "/home/chandu/sdk/bl602_iot_sdk/components/network/lwip/src/include/lwip/ip_addr.h"
	.file 7 "/home/chandu/sdk/bl602_iot_sdk/components/network/lwip/src/include/lwip/inet.h"
	.file 8 "/home/chandu/sdk/bl602_iot_sdk/components/network/lwip/src/include/lwip/err.h"
	.file 9 "/home/chandu/sdk/bl602_iot_sdk/components/network/lwip/src/include/lwip/memp.h"
	.file 10 "/home/chandu/sdk/bl602_iot_sdk/components/network/lwip/src/include/lwip/sockets.h"
	.file 11 "/home/chandu/sdk/bl602_iot_sdk/components/network/lwip/src/include/lwip/netdb.h"
	.file 12 "/home/chandu/sdk/bl602_iot_sdk/components/network/lwip/src/include/lwip/def.h"
	.file 13 "/home/chandu/sdk/bl602_iot_sdk/toolchain/compiler/riscv32-unknown-elf/include/string.h"
	.file 14 "/home/chandu/sdk/bl602_iot_sdk/toolchain/compiler/riscv32-unknown-elf/include/stdlib.h"
	.file 15 "/home/chandu/sdk/bl602_iot_sdk/components/network/lwip/src/include/lwip/api.h"
	.file 16 "/home/chandu/sdk/bl602_iot_sdk/components/network/lwip/src/include/lwip/netif.h"
	.section	.note.GNU-stack,"",@progbits
