	.file	"tcpip.c"
	.option nopic
	.attribute arch, "rv32i2p1_m2p0_f2p2_c2p0_zicsr2p0_zmmul1p0_zca1p0_zcf1p0"
	.attribute unaligned_access, 0
	.attribute stack_align, 16
	.text
.Ltext0:
	.cfi_sections	.debug_frame
	.file 0 "/home/chandu/sdk/bl602_iot_sdk/customer_app/suas_app_pqkem_gateway/build_out/lwip" "/home/chandu/sdk/bl602_iot_sdk/components/network/lwip/src/api/tcpip.c"
	.section	.sbss.tcpip_init_done,"aw",@nobits
	.align	2
	.type	tcpip_init_done, @object
	.size	tcpip_init_done, 4
tcpip_init_done:
	.zero	4
	.section	.sbss.tcpip_init_done_arg,"aw",@nobits
	.align	2
	.type	tcpip_init_done_arg, @object
	.size	tcpip_init_done_arg, 4
tcpip_init_done_arg:
	.zero	4
	.section	.sbss.tcpip_mbox,"aw",@nobits
	.align	2
	.type	tcpip_mbox, @object
	.size	tcpip_mbox, 4
tcpip_mbox:
	.zero	4
	.section	.text.tcpip_mbox_fetch,"ax",@progbits
	.align	1
	.type	tcpip_mbox_fetch, @function
tcpip_mbox_fetch:
.LFB5:
	.file 1 "/home/chandu/sdk/bl602_iot_sdk/components/network/lwip/src/api/tcpip.c"
	.loc 1 94 1
	.cfi_startproc
	addi	sp,sp,-48
	.cfi_def_cfa_offset 48
	sw	ra,44(sp)
	sw	s0,40(sp)
	.cfi_offset 1, -4
	.cfi_offset 8, -8
	addi	s0,sp,48
	.cfi_def_cfa 8, 0
	sw	a0,-36(s0)
	sw	a1,-40(s0)
.L3:
.L2:
	.loc 1 100 15
	call	sys_timeouts_sleeptime
	sw	a0,-20(s0)
	.loc 1 101 6
	lw	a4,-20(s0)
	li	a5,-1
	bne	a4,a5,.L4
	.loc 1 103 5
	li	a2,0
	lw	a1,-40(s0)
	lw	a0,-36(s0)
	call	sys_arch_mbox_fetch
	.loc 1 105 5
	j	.L1
.L4:
	.loc 1 106 13
	lw	a5,-20(s0)
	bne	a5,zero,.L6
	.loc 1 107 5
	call	sys_check_timeouts
	.loc 1 109 5
	j	.L2
.L6:
	.loc 1 113 9
	lw	a2,-20(s0)
	lw	a1,-40(s0)
	lw	a0,-36(s0)
	call	sys_arch_mbox_fetch
	sw	a0,-24(s0)
	.loc 1 115 6
	lw	a4,-24(s0)
	li	a5,-1
	bne	a4,a5,.L1
	.loc 1 118 5
	call	sys_check_timeouts
	.loc 1 120 5
	j	.L2
.L1:
	.loc 1 122 1
	lw	ra,44(sp)
	.cfi_restore 1
	lw	s0,40(sp)
	.cfi_restore 8
	.cfi_def_cfa 2, 48
	addi	sp,sp,48
	.cfi_def_cfa_offset 0
	jr	ra
	.cfi_endproc
.LFE5:
	.size	tcpip_mbox_fetch, .-tcpip_mbox_fetch
	.section	.text.tcpip_thread,"ax",@progbits
	.align	1
	.type	tcpip_thread, @function
tcpip_thread:
.LFB6:
	.loc 1 137 1
	.cfi_startproc
	addi	sp,sp,-48
	.cfi_def_cfa_offset 48
	sw	ra,44(sp)
	sw	s0,40(sp)
	.cfi_offset 1, -4
	.cfi_offset 8, -8
	addi	s0,sp,48
	.cfi_def_cfa 8, 0
	sw	a0,-36(s0)
	.loc 1 144 23
	lui	a5,%hi(tcpip_init_done)
	lw	a5,%lo(tcpip_init_done)(a5)
	.loc 1 144 6
	beq	a5,zero,.L11
	.loc 1 145 5
	lui	a5,%hi(tcpip_init_done)
	lw	a5,%lo(tcpip_init_done)(a5)
	lui	a4,%hi(tcpip_init_done_arg)
	lw	a4,%lo(tcpip_init_done_arg)(a4)
	mv	a0,a4
	jalr	a5
.LVL0:
.L11:
	.loc 1 151 5
	addi	a5,s0,-20
	mv	a1,a5
	lui	a5,%hi(tcpip_mbox)
	addi	a0,a5,%lo(tcpip_mbox)
	call	tcpip_mbox_fetch
	.loc 1 152 13
	lw	a5,-20(s0)
	.loc 1 152 8
	beq	a5,zero,.L12
	.loc 1 157 5
	lw	a5,-20(s0)
	mv	a0,a5
	call	tcpip_thread_handle_msg
	j	.L11
.L12:
	.loc 1 155 7
	nop
	.loc 1 151 5
	j	.L11
	.cfi_endproc
.LFE6:
	.size	tcpip_thread, .-tcpip_thread
	.section	.text.tcpip_thread_handle_msg,"ax",@progbits
	.align	1
	.type	tcpip_thread_handle_msg, @function
tcpip_thread_handle_msg:
.LFB7:
	.loc 1 166 1
	.cfi_startproc
	addi	sp,sp,-32
	.cfi_def_cfa_offset 32
	sw	ra,28(sp)
	sw	s0,24(sp)
	sw	s1,20(sp)
	.cfi_offset 1, -4
	.cfi_offset 8, -8
	.cfi_offset 9, -12
	addi	s0,sp,32
	.cfi_def_cfa 8, 0
	sw	a0,-20(s0)
	.loc 1 167 14
	lw	a5,-20(s0)
	lbu	a5,0(a5)
	.loc 1 167 3
	li	a4,5
	beq	a5,a4,.L14
	li	a4,5
	bgt	a5,a4,.L23
	li	a4,4
	beq	a5,a4,.L16
	li	a4,4
	bgt	a5,a4,.L23
	li	a4,3
	beq	a5,a4,.L17
	li	a4,3
	bgt	a5,a4,.L23
	li	a4,2
	beq	a5,a4,.L18
	li	a4,2
	bgt	a5,a4,.L23
	beq	a5,zero,.L19
	li	a4,1
	beq	a5,a4,.L20
	.loc 1 222 7
	j	.L23
.L19:
	.loc 1 171 23
	lw	a5,-20(s0)
	lw	a5,4(a5)
	.loc 1 171 7
	lw	a4,-20(s0)
	lw	a4,8(a4)
	mv	a0,a4
	jalr	a5
.LVL1:
	.loc 1 172 7
	j	.L21
.L20:
	.loc 1 175 53
	lw	a5,-20(s0)
	lw	a5,4(a5)
	.loc 1 175 36
	lw	a4,-20(s0)
	lw	a3,8(a4)
	.loc 1 175 24
	lw	a4,-20(s0)
	lw	s1,8(a4)
	.loc 1 175 36
	mv	a0,a3
	jalr	a5
.LVL2:
	mv	a5,a0
	.loc 1 175 34 discriminator 1
	sb	a5,0(s1)
	.loc 1 176 7
	lw	a5,-20(s0)
	lw	a5,12(a5)
	mv	a0,a5
	call	sys_sem_signal
	.loc 1 177 7
	j	.L21
.L14:
	.loc 1 180 23
	lw	a5,-20(s0)
	lw	a5,4(a5)
	.loc 1 180 7
	lw	a4,-20(s0)
	lw	a4,8(a4)
	mv	a0,a4
	jalr	a5
.LVL3:
	.loc 1 181 7
	lw	a5,-20(s0)
	lw	a5,12(a5)
	mv	a0,a5
	call	sys_sem_signal
	.loc 1 182 7
	j	.L21
.L18:
	.loc 1 188 23
	lw	a5,-20(s0)
	lw	a5,12(a5)
	.loc 1 188 11
	lw	a4,-20(s0)
	lw	a3,4(a4)
	lw	a4,-20(s0)
	lw	a4,8(a4)
	mv	a1,a4
	mv	a0,a3
	jalr	a5
.LVL4:
	mv	a5,a0
	.loc 1 188 10 discriminator 1
	beq	a5,zero,.L22
	.loc 1 189 9
	lw	a5,-20(s0)
	lw	a5,4(a5)
	mv	a0,a5
	call	pbuf_free
.L22:
	.loc 1 191 7
	lw	a1,-20(s0)
	li	a0,9
	call	memp_free
	.loc 1 192 7
	j	.L21
.L17:
	.loc 1 210 18
	lw	a5,-20(s0)
	lw	a5,4(a5)
	.loc 1 210 7
	lw	a4,-20(s0)
	lw	a4,8(a4)
	mv	a0,a4
	jalr	a5
.LVL5:
	.loc 1 211 7
	lw	a1,-20(s0)
	li	a0,8
	call	memp_free
	.loc 1 212 7
	j	.L21
.L16:
	.loc 1 216 18
	lw	a5,-20(s0)
	lw	a5,4(a5)
	.loc 1 216 7
	lw	a4,-20(s0)
	lw	a4,8(a4)
	mv	a0,a4
	jalr	a5
.LVL6:
	.loc 1 217 7
	j	.L21
.L23:
	.loc 1 222 7
	nop
.L21:
	.loc 1 224 1
	nop
	lw	ra,28(sp)
	.cfi_restore 1
	lw	s0,24(sp)
	.cfi_restore 8
	.cfi_def_cfa 2, 32
	lw	s1,20(sp)
	.cfi_restore 9
	addi	sp,sp,32
	.cfi_def_cfa_offset 0
	jr	ra
	.cfi_endproc
.LFE7:
	.size	tcpip_thread_handle_msg, .-tcpip_thread_handle_msg
	.section	.text.tcpip_inpkt,"ax",@progbits
	.align	1
	.globl	tcpip_inpkt
	.type	tcpip_inpkt, @function
tcpip_inpkt:
.LFB8:
	.loc 1 255 1
	.cfi_startproc
	addi	sp,sp,-48
	.cfi_def_cfa_offset 48
	sw	ra,44(sp)
	sw	s0,40(sp)
	.cfi_offset 1, -4
	.cfi_offset 8, -8
	addi	s0,sp,48
	.cfi_def_cfa 8, 0
	sw	a0,-36(s0)
	sw	a1,-40(s0)
	sw	a2,-44(s0)
	.loc 1 266 14
	lui	a5,%hi(tcpip_mbox)
	addi	a0,a5,%lo(tcpip_mbox)
	call	sys_mbox_valid
	.loc 1 268 29
	li	a0,9
	call	memp_malloc
	sw	a0,-20(s0)
	.loc 1 269 6
	lw	a5,-20(s0)
	bne	a5,zero,.L25
	.loc 1 270 12
	li	a5,-1
	j	.L26
.L25:
	.loc 1 273 13
	lw	a5,-20(s0)
	li	a4,2
	sb	a4,0(a5)
	.loc 1 274 18
	lw	a5,-20(s0)
	lw	a4,-36(s0)
	sw	a4,4(a5)
	.loc 1 275 22
	lw	a5,-20(s0)
	lw	a4,-40(s0)
	sw	a4,8(a5)
	.loc 1 276 25
	lw	a5,-20(s0)
	lw	a4,-44(s0)
	sw	a4,12(a5)
	.loc 1 277 7
	lw	a1,-20(s0)
	lui	a5,%hi(tcpip_mbox)
	addi	a0,a5,%lo(tcpip_mbox)
	call	sys_mbox_trypost
	mv	a5,a0
	.loc 1 277 6 discriminator 1
	beq	a5,zero,.L27
	.loc 1 278 5
	lw	a1,-20(s0)
	li	a0,9
	call	memp_free
	.loc 1 279 12
	li	a5,-1
	j	.L26
.L27:
	.loc 1 281 10
	li	a5,0
.L26:
	.loc 1 283 1
	mv	a0,a5
	lw	ra,44(sp)
	.cfi_restore 1
	lw	s0,40(sp)
	.cfi_restore 8
	.cfi_def_cfa 2, 48
	addi	sp,sp,48
	.cfi_def_cfa_offset 0
	jr	ra
	.cfi_endproc
.LFE8:
	.size	tcpip_inpkt, .-tcpip_inpkt
	.section	.text.tcpip_input,"ax",@progbits
	.align	1
	.globl	tcpip_input
	.type	tcpip_input, @function
tcpip_input:
.LFB9:
	.loc 1 298 1
	.cfi_startproc
	addi	sp,sp,-32
	.cfi_def_cfa_offset 32
	sw	ra,28(sp)
	sw	s0,24(sp)
	.cfi_offset 1, -4
	.cfi_offset 8, -8
	addi	s0,sp,32
	.cfi_def_cfa 8, 0
	sw	a0,-20(s0)
	sw	a1,-24(s0)
	.loc 1 300 10
	lw	a5,-24(s0)
	lbu	a5,69(a5)
	.loc 1 300 18
	andi	a5,a5,24
	.loc 1 300 6
	beq	a5,zero,.L29
	.loc 1 301 12
	lui	a5,%hi(ethernet_input)
	addi	a2,a5,%lo(ethernet_input)
	lw	a1,-24(s0)
	lw	a0,-20(s0)
	call	tcpip_inpkt
	mv	a5,a0
	j	.L30
.L29:
	.loc 1 304 12
	lui	a5,%hi(ip4_input)
	addi	a2,a5,%lo(ip4_input)
	lw	a1,-24(s0)
	lw	a0,-20(s0)
	call	tcpip_inpkt
	mv	a5,a0
.L30:
	.loc 1 305 1
	mv	a0,a5
	lw	ra,28(sp)
	.cfi_restore 1
	lw	s0,24(sp)
	.cfi_restore 8
	.cfi_def_cfa 2, 32
	addi	sp,sp,32
	.cfi_def_cfa_offset 0
	jr	ra
	.cfi_endproc
.LFE9:
	.size	tcpip_input, .-tcpip_input
	.section	.text.tcpip_callback,"ax",@progbits
	.align	1
	.globl	tcpip_callback
	.type	tcpip_callback, @function
tcpip_callback:
.LFB10:
	.loc 1 324 1
	.cfi_startproc
	addi	sp,sp,-48
	.cfi_def_cfa_offset 48
	sw	ra,44(sp)
	sw	s0,40(sp)
	.cfi_offset 1, -4
	.cfi_offset 8, -8
	addi	s0,sp,48
	.cfi_def_cfa 8, 0
	sw	a0,-36(s0)
	sw	a1,-40(s0)
	.loc 1 327 14
	lui	a5,%hi(tcpip_mbox)
	addi	a0,a5,%lo(tcpip_mbox)
	call	sys_mbox_valid
	.loc 1 329 29
	li	a0,8
	call	memp_malloc
	sw	a0,-20(s0)
	.loc 1 330 6
	lw	a5,-20(s0)
	bne	a5,zero,.L32
	.loc 1 331 12
	li	a5,-1
	j	.L33
.L32:
	.loc 1 334 13
	lw	a5,-20(s0)
	li	a4,3
	sb	a4,0(a5)
	.loc 1 335 24
	lw	a5,-20(s0)
	lw	a4,-36(s0)
	sw	a4,4(a5)
	.loc 1 336 19
	lw	a5,-20(s0)
	lw	a4,-40(s0)
	sw	a4,8(a5)
	.loc 1 338 3
	lw	a1,-20(s0)
	lui	a5,%hi(tcpip_mbox)
	addi	a0,a5,%lo(tcpip_mbox)
	call	sys_mbox_post
	.loc 1 339 10
	li	a5,0
.L33:
	.loc 1 340 1
	mv	a0,a5
	lw	ra,44(sp)
	.cfi_restore 1
	lw	s0,40(sp)
	.cfi_restore 8
	.cfi_def_cfa 2, 48
	addi	sp,sp,48
	.cfi_def_cfa_offset 0
	jr	ra
	.cfi_endproc
.LFE10:
	.size	tcpip_callback, .-tcpip_callback
	.section	.text.tcpip_try_callback,"ax",@progbits
	.align	1
	.globl	tcpip_try_callback
	.type	tcpip_try_callback, @function
tcpip_try_callback:
.LFB11:
	.loc 1 360 1
	.cfi_startproc
	addi	sp,sp,-48
	.cfi_def_cfa_offset 48
	sw	ra,44(sp)
	sw	s0,40(sp)
	.cfi_offset 1, -4
	.cfi_offset 8, -8
	addi	s0,sp,48
	.cfi_def_cfa 8, 0
	sw	a0,-36(s0)
	sw	a1,-40(s0)
	.loc 1 363 14
	lui	a5,%hi(tcpip_mbox)
	addi	a0,a5,%lo(tcpip_mbox)
	call	sys_mbox_valid
	.loc 1 365 29
	li	a0,8
	call	memp_malloc
	sw	a0,-20(s0)
	.loc 1 366 6
	lw	a5,-20(s0)
	bne	a5,zero,.L35
	.loc 1 367 12
	li	a5,-1
	j	.L36
.L35:
	.loc 1 370 13
	lw	a5,-20(s0)
	li	a4,3
	sb	a4,0(a5)
	.loc 1 371 24
	lw	a5,-20(s0)
	lw	a4,-36(s0)
	sw	a4,4(a5)
	.loc 1 372 19
	lw	a5,-20(s0)
	lw	a4,-40(s0)
	sw	a4,8(a5)
	.loc 1 374 7
	lw	a1,-20(s0)
	lui	a5,%hi(tcpip_mbox)
	addi	a0,a5,%lo(tcpip_mbox)
	call	sys_mbox_trypost
	mv	a5,a0
	.loc 1 374 6 discriminator 1
	beq	a5,zero,.L37
	.loc 1 375 5
	lw	a1,-20(s0)
	li	a0,8
	call	memp_free
	.loc 1 376 12
	li	a5,-1
	j	.L36
.L37:
	.loc 1 378 10
	li	a5,0
.L36:
	.loc 1 379 1
	mv	a0,a5
	lw	ra,44(sp)
	.cfi_restore 1
	lw	s0,40(sp)
	.cfi_restore 8
	.cfi_def_cfa 2, 48
	addi	sp,sp,48
	.cfi_def_cfa_offset 0
	jr	ra
	.cfi_endproc
.LFE11:
	.size	tcpip_try_callback, .-tcpip_try_callback
	.section	.text.tcpip_send_msg_wait_sem,"ax",@progbits
	.align	1
	.globl	tcpip_send_msg_wait_sem
	.type	tcpip_send_msg_wait_sem, @function
tcpip_send_msg_wait_sem:
.LFB12:
	.loc 1 452 1
	.cfi_startproc
	addi	sp,sp,-48
	.cfi_def_cfa_offset 48
	sw	ra,44(sp)
	sw	s0,40(sp)
	.cfi_offset 1, -4
	.cfi_offset 8, -8
	addi	s0,sp,48
	.cfi_def_cfa 8, 0
	sw	a0,-36(s0)
	sw	a1,-40(s0)
	sw	a2,-44(s0)
	.loc 1 462 14
	lw	a0,-44(s0)
	call	sys_sem_valid
	.loc 1 463 14
	lui	a5,%hi(tcpip_mbox)
	addi	a0,a5,%lo(tcpip_mbox)
	call	sys_mbox_valid
	.loc 1 466 12
	sb	zero,-32(s0)
	.loc 1 467 28
	lw	a5,-36(s0)
	sw	a5,-28(s0)
	.loc 1 468 23
	lw	a5,-40(s0)
	sw	a5,-24(s0)
	.loc 1 469 3
	addi	a5,s0,-32
	mv	a1,a5
	lui	a5,%hi(tcpip_mbox)
	addi	a0,a5,%lo(tcpip_mbox)
	call	sys_mbox_post
	.loc 1 470 3
	li	a1,0
	lw	a0,-44(s0)
	call	sys_arch_sem_wait
	.loc 1 472 10
	li	a5,0
	.loc 1 474 1
	mv	a0,a5
	lw	ra,44(sp)
	.cfi_restore 1
	lw	s0,40(sp)
	.cfi_restore 8
	.cfi_def_cfa 2, 48
	addi	sp,sp,48
	.cfi_def_cfa_offset 0
	jr	ra
	.cfi_endproc
.LFE12:
	.size	tcpip_send_msg_wait_sem, .-tcpip_send_msg_wait_sem
	.section	.text.tcpip_api_call,"ax",@progbits
	.align	1
	.globl	tcpip_api_call
	.type	tcpip_api_call, @function
tcpip_api_call:
.LFB13:
	.loc 1 488 1
	.cfi_startproc
	addi	sp,sp,-64
	.cfi_def_cfa_offset 64
	sw	ra,60(sp)
	sw	s0,56(sp)
	.cfi_offset 1, -4
	.cfi_offset 8, -8
	addi	s0,sp,64
	.cfi_def_cfa 8, 0
	sw	a0,-52(s0)
	sw	a1,-56(s0)
	.loc 1 499 15
	lw	a5,-56(s0)
	addi	a5,a5,4
	li	a1,0
	mv	a0,a5
	call	sys_sem_new
	mv	a5,a0
	sb	a5,-17(s0)
	.loc 1 500 6
	lb	a5,-17(s0)
	beq	a5,zero,.L41
	.loc 1 501 12
	lb	a5,-17(s0)
	j	.L43
.L41:
	.loc 1 505 14
	lui	a5,%hi(tcpip_mbox)
	addi	a0,a5,%lo(tcpip_mbox)
	call	sys_mbox_valid
	.loc 1 508 12
	li	a5,1
	sb	a5,-36(s0)
	.loc 1 509 24
	lw	a5,-56(s0)
	sw	a5,-28(s0)
	.loc 1 510 29
	lw	a5,-52(s0)
	sw	a5,-32(s0)
	.loc 1 514 26
	lw	a5,-56(s0)
	addi	a5,a5,4
	.loc 1 514 24
	sw	a5,-24(s0)
	.loc 1 516 3
	addi	a5,s0,-36
	mv	a1,a5
	lui	a5,%hi(tcpip_mbox)
	addi	a0,a5,%lo(tcpip_mbox)
	call	sys_mbox_post
	.loc 1 517 3
	lw	a5,-24(s0)
	li	a1,0
	mv	a0,a5
	call	sys_arch_sem_wait
	.loc 1 521 3
	lw	a5,-56(s0)
	addi	a5,a5,4
	mv	a0,a5
	call	sys_sem_free
	.loc 1 524 14
	lw	a5,-56(s0)
	lb	a5,0(a5)
.L43:
	.loc 1 526 1
	mv	a0,a5
	lw	ra,60(sp)
	.cfi_restore 1
	lw	s0,56(sp)
	.cfi_restore 8
	.cfi_def_cfa 2, 64
	addi	sp,sp,64
	.cfi_def_cfa_offset 0
	jr	ra
	.cfi_endproc
.LFE13:
	.size	tcpip_api_call, .-tcpip_api_call
	.section	.text.tcpip_callbackmsg_new,"ax",@progbits
	.align	1
	.globl	tcpip_callbackmsg_new
	.type	tcpip_callbackmsg_new, @function
tcpip_callbackmsg_new:
.LFB14:
	.loc 1 546 1
	.cfi_startproc
	addi	sp,sp,-48
	.cfi_def_cfa_offset 48
	sw	ra,44(sp)
	sw	s0,40(sp)
	.cfi_offset 1, -4
	.cfi_offset 8, -8
	addi	s0,sp,48
	.cfi_def_cfa 8, 0
	sw	a0,-36(s0)
	sw	a1,-40(s0)
	.loc 1 547 47
	li	a0,8
	call	memp_malloc
	sw	a0,-20(s0)
	.loc 1 548 6
	lw	a5,-20(s0)
	bne	a5,zero,.L45
	.loc 1 549 11
	li	a5,0
	j	.L46
.L45:
	.loc 1 551 13
	lw	a5,-20(s0)
	li	a4,4
	sb	a4,0(a5)
	.loc 1 552 24
	lw	a5,-20(s0)
	lw	a4,-36(s0)
	sw	a4,4(a5)
	.loc 1 553 19
	lw	a5,-20(s0)
	lw	a4,-40(s0)
	sw	a4,8(a5)
	.loc 1 554 10
	lw	a5,-20(s0)
.L46:
	.loc 1 555 1
	mv	a0,a5
	lw	ra,44(sp)
	.cfi_restore 1
	lw	s0,40(sp)
	.cfi_restore 8
	.cfi_def_cfa 2, 48
	addi	sp,sp,48
	.cfi_def_cfa_offset 0
	jr	ra
	.cfi_endproc
.LFE14:
	.size	tcpip_callbackmsg_new, .-tcpip_callbackmsg_new
	.section	.text.tcpip_callbackmsg_delete,"ax",@progbits
	.align	1
	.globl	tcpip_callbackmsg_delete
	.type	tcpip_callbackmsg_delete, @function
tcpip_callbackmsg_delete:
.LFB15:
	.loc 1 567 1
	.cfi_startproc
	addi	sp,sp,-32
	.cfi_def_cfa_offset 32
	sw	ra,28(sp)
	sw	s0,24(sp)
	.cfi_offset 1, -4
	.cfi_offset 8, -8
	addi	s0,sp,32
	.cfi_def_cfa 8, 0
	sw	a0,-20(s0)
	.loc 1 568 3
	lw	a1,-20(s0)
	li	a0,8
	call	memp_free
	.loc 1 569 1
	nop
	lw	ra,28(sp)
	.cfi_restore 1
	lw	s0,24(sp)
	.cfi_restore 8
	.cfi_def_cfa 2, 32
	addi	sp,sp,32
	.cfi_def_cfa_offset 0
	jr	ra
	.cfi_endproc
.LFE15:
	.size	tcpip_callbackmsg_delete, .-tcpip_callbackmsg_delete
	.section	.text.tcpip_callbackmsg_trycallback,"ax",@progbits
	.align	1
	.globl	tcpip_callbackmsg_trycallback
	.type	tcpip_callbackmsg_trycallback, @function
tcpip_callbackmsg_trycallback:
.LFB16:
	.loc 1 582 1
	.cfi_startproc
	addi	sp,sp,-32
	.cfi_def_cfa_offset 32
	sw	ra,28(sp)
	sw	s0,24(sp)
	.cfi_offset 1, -4
	.cfi_offset 8, -8
	addi	s0,sp,32
	.cfi_def_cfa 8, 0
	sw	a0,-20(s0)
	.loc 1 583 14
	lui	a5,%hi(tcpip_mbox)
	addi	a0,a5,%lo(tcpip_mbox)
	call	sys_mbox_valid
	.loc 1 584 10
	lw	a1,-20(s0)
	lui	a5,%hi(tcpip_mbox)
	addi	a0,a5,%lo(tcpip_mbox)
	call	sys_mbox_trypost
	mv	a5,a0
	.loc 1 585 1
	mv	a0,a5
	lw	ra,28(sp)
	.cfi_restore 1
	lw	s0,24(sp)
	.cfi_restore 8
	.cfi_def_cfa 2, 32
	addi	sp,sp,32
	.cfi_def_cfa_offset 0
	jr	ra
	.cfi_endproc
.LFE16:
	.size	tcpip_callbackmsg_trycallback, .-tcpip_callbackmsg_trycallback
	.section	.text.tcpip_callbackmsg_trycallback_fromisr,"ax",@progbits
	.align	1
	.globl	tcpip_callbackmsg_trycallback_fromisr
	.type	tcpip_callbackmsg_trycallback_fromisr, @function
tcpip_callbackmsg_trycallback_fromisr:
.LFB17:
	.loc 1 601 1
	.cfi_startproc
	addi	sp,sp,-32
	.cfi_def_cfa_offset 32
	sw	ra,28(sp)
	sw	s0,24(sp)
	.cfi_offset 1, -4
	.cfi_offset 8, -8
	addi	s0,sp,32
	.cfi_def_cfa 8, 0
	sw	a0,-20(s0)
	.loc 1 602 14
	lui	a5,%hi(tcpip_mbox)
	addi	a0,a5,%lo(tcpip_mbox)
	call	sys_mbox_valid
	.loc 1 603 10
	lw	a1,-20(s0)
	lui	a5,%hi(tcpip_mbox)
	addi	a0,a5,%lo(tcpip_mbox)
	call	sys_mbox_trypost_fromisr
	mv	a5,a0
	.loc 1 604 1
	mv	a0,a5
	lw	ra,28(sp)
	.cfi_restore 1
	lw	s0,24(sp)
	.cfi_restore 8
	.cfi_def_cfa 2, 32
	addi	sp,sp,32
	.cfi_def_cfa_offset 0
	jr	ra
	.cfi_endproc
.LFE17:
	.size	tcpip_callbackmsg_trycallback_fromisr, .-tcpip_callbackmsg_trycallback_fromisr
	.section	.text.tcpip_callback_wait,"ax",@progbits
	.align	1
	.globl	tcpip_callback_wait
	.type	tcpip_callback_wait, @function
tcpip_callback_wait:
.LFB18:
	.loc 1 620 1
	.cfi_startproc
	addi	sp,sp,-64
	.cfi_def_cfa_offset 64
	sw	ra,60(sp)
	sw	s0,56(sp)
	.cfi_offset 1, -4
	.cfi_offset 8, -8
	addi	s0,sp,64
	.cfi_def_cfa 8, 0
	sw	a0,-52(s0)
	sw	a1,-56(s0)
	.loc 1 631 14
	lui	a5,%hi(tcpip_mbox)
	addi	a0,a5,%lo(tcpip_mbox)
	call	sys_mbox_valid
	.loc 1 633 9
	addi	a5,s0,-24
	li	a1,0
	mv	a0,a5
	call	sys_sem_new
	mv	a5,a0
	sb	a5,-17(s0)
	.loc 1 634 6
	lb	a5,-17(s0)
	beq	a5,zero,.L53
	.loc 1 635 12
	lb	a5,-17(s0)
	j	.L55
.L53:
	.loc 1 638 12
	li	a5,5
	sb	a5,-40(s0)
	.loc 1 639 28
	lw	a5,-52(s0)
	sw	a5,-36(s0)
	.loc 1 640 23
	lw	a5,-56(s0)
	sw	a5,-32(s0)
	.loc 1 641 23
	addi	a5,s0,-24
	sw	a5,-28(s0)
	.loc 1 642 3
	addi	a5,s0,-40
	mv	a1,a5
	lui	a5,%hi(tcpip_mbox)
	addi	a0,a5,%lo(tcpip_mbox)
	call	sys_mbox_post
	.loc 1 643 3
	addi	a5,s0,-24
	li	a1,0
	mv	a0,a5
	call	sys_arch_sem_wait
	.loc 1 644 3
	addi	a5,s0,-24
	mv	a0,a5
	call	sys_sem_free
	.loc 1 645 10
	li	a5,0
.L55:
	.loc 1 647 1
	mv	a0,a5
	lw	ra,60(sp)
	.cfi_restore 1
	lw	s0,56(sp)
	.cfi_restore 8
	.cfi_def_cfa 2, 64
	addi	sp,sp,64
	.cfi_def_cfa_offset 0
	jr	ra
	.cfi_endproc
.LFE18:
	.size	tcpip_callback_wait, .-tcpip_callback_wait
	.section	.rodata
	.align	2
.LC0:
	.string	"TCP/IP"
	.section	.text.tcpip_init,"ax",@progbits
	.align	1
	.globl	tcpip_init
	.type	tcpip_init, @function
tcpip_init:
.LFB19:
	.loc 1 660 1
	.cfi_startproc
	addi	sp,sp,-32
	.cfi_def_cfa_offset 32
	sw	ra,28(sp)
	sw	s0,24(sp)
	.cfi_offset 1, -4
	.cfi_offset 8, -8
	addi	s0,sp,32
	.cfi_def_cfa 8, 0
	sw	a0,-20(s0)
	sw	a1,-24(s0)
	.loc 1 661 3
	call	lwip_init
	.loc 1 663 19
	lui	a5,%hi(tcpip_init_done)
	lw	a4,-20(s0)
	sw	a4,%lo(tcpip_init_done)(a5)
	.loc 1 664 23
	lui	a5,%hi(tcpip_init_done_arg)
	lw	a4,-24(s0)
	sw	a4,%lo(tcpip_init_done_arg)(a5)
	.loc 1 665 7
	li	a1,50
	lui	a5,%hi(tcpip_mbox)
	addi	a0,a5,%lo(tcpip_mbox)
	call	sys_mbox_new
	.loc 1 674 3
	li	a4,30
	li	a5,4096
	addi	a3,a5,-96
	li	a2,0
	lui	a5,%hi(tcpip_thread)
	addi	a1,a5,%lo(tcpip_thread)
	lui	a5,%hi(.LC0)
	addi	a0,a5,%lo(.LC0)
	call	sys_thread_new
	.loc 1 675 1
	nop
	lw	ra,28(sp)
	.cfi_restore 1
	lw	s0,24(sp)
	.cfi_restore 8
	.cfi_def_cfa 2, 32
	addi	sp,sp,32
	.cfi_def_cfa_offset 0
	jr	ra
	.cfi_endproc
.LFE19:
	.size	tcpip_init, .-tcpip_init
	.section	.text.pbuf_free_int,"ax",@progbits
	.align	1
	.type	pbuf_free_int, @function
pbuf_free_int:
.LFB20:
	.loc 1 685 1
	.cfi_startproc
	addi	sp,sp,-48
	.cfi_def_cfa_offset 48
	sw	ra,44(sp)
	sw	s0,40(sp)
	.cfi_offset 1, -4
	.cfi_offset 8, -8
	addi	s0,sp,48
	.cfi_def_cfa 8, 0
	sw	a0,-36(s0)
	.loc 1 686 16
	lw	a5,-36(s0)
	sw	a5,-20(s0)
	.loc 1 687 3
	lw	a0,-20(s0)
	call	pbuf_free
	.loc 1 688 1
	nop
	lw	ra,44(sp)
	.cfi_restore 1
	lw	s0,40(sp)
	.cfi_restore 8
	.cfi_def_cfa 2, 48
	addi	sp,sp,48
	.cfi_def_cfa_offset 0
	jr	ra
	.cfi_endproc
.LFE20:
	.size	pbuf_free_int, .-pbuf_free_int
	.section	.text.pbuf_free_callback,"ax",@progbits
	.align	1
	.globl	pbuf_free_callback
	.type	pbuf_free_callback, @function
pbuf_free_callback:
.LFB21:
	.loc 1 698 1
	.cfi_startproc
	addi	sp,sp,-32
	.cfi_def_cfa_offset 32
	sw	ra,28(sp)
	sw	s0,24(sp)
	.cfi_offset 1, -4
	.cfi_offset 8, -8
	addi	s0,sp,32
	.cfi_def_cfa 8, 0
	sw	a0,-20(s0)
	.loc 1 699 10
	lw	a1,-20(s0)
	lui	a5,%hi(pbuf_free_int)
	addi	a0,a5,%lo(pbuf_free_int)
	call	tcpip_try_callback
	mv	a5,a0
	.loc 1 700 1
	mv	a0,a5
	lw	ra,28(sp)
	.cfi_restore 1
	lw	s0,24(sp)
	.cfi_restore 8
	.cfi_def_cfa 2, 32
	addi	sp,sp,32
	.cfi_def_cfa_offset 0
	jr	ra
	.cfi_endproc
.LFE21:
	.size	pbuf_free_callback, .-pbuf_free_callback
	.section	.text.mem_free_callback,"ax",@progbits
	.align	1
	.globl	mem_free_callback
	.type	mem_free_callback, @function
mem_free_callback:
.LFB22:
	.loc 1 711 1
	.cfi_startproc
	addi	sp,sp,-32
	.cfi_def_cfa_offset 32
	sw	ra,28(sp)
	sw	s0,24(sp)
	.cfi_offset 1, -4
	.cfi_offset 8, -8
	addi	s0,sp,32
	.cfi_def_cfa 8, 0
	sw	a0,-20(s0)
	.loc 1 712 10
	lw	a1,-20(s0)
	lui	a5,%hi(mem_free)
	addi	a0,a5,%lo(mem_free)
	call	tcpip_try_callback
	mv	a5,a0
	.loc 1 713 1
	mv	a0,a5
	lw	ra,28(sp)
	.cfi_restore 1
	lw	s0,24(sp)
	.cfi_restore 8
	.cfi_def_cfa 2, 32
	addi	sp,sp,32
	.cfi_def_cfa_offset 0
	jr	ra
	.cfi_endproc
.LFE22:
	.size	mem_free_callback, .-mem_free_callback
	.text
.Letext0:
	.file 2 "/home/chandu/sdk/bl602_iot_sdk/toolchain/compiler/lib/gcc/riscv32-unknown-elf/15.1.0/include/stdint-gcc.h"
	.file 3 "/home/chandu/sdk/bl602_iot_sdk/components/network/lwip/src/include/lwip/arch.h"
	.file 4 "/home/chandu/sdk/bl602_iot_sdk/components/network/lwip/src/include/lwip/err.h"
	.file 5 "/home/chandu/sdk/bl602_iot_sdk/components/freertos/include/task.h"
	.file 6 "/home/chandu/sdk/bl602_iot_sdk/components/freertos/include/queue.h"
	.file 7 "/home/chandu/sdk/bl602_iot_sdk/components/freertos/include/semphr.h"
	.file 8 "/home/chandu/sdk/bl602_iot_sdk/components/network/lwip/lwip-port/arch/sys_arch.h"
	.file 9 "/home/chandu/sdk/bl602_iot_sdk/components/network/lwip/src/include/lwip/sys.h"
	.file 10 "/home/chandu/sdk/bl602_iot_sdk/components/network/lwip/src/include/lwip/ip4_addr.h"
	.file 11 "/home/chandu/sdk/bl602_iot_sdk/components/network/lwip/src/include/lwip/ip_addr.h"
	.file 12 "/home/chandu/sdk/bl602_iot_sdk/components/network/lwip/src/include/lwip/pbuf.h"
	.file 13 "/home/chandu/sdk/bl602_iot_sdk/components/network/lwip/src/include/lwip/memp.h"
	.file 14 "/home/chandu/sdk/bl602_iot_sdk/components/network/lwip/src/include/lwip/netif.h"
	.file 15 "/home/chandu/sdk/bl602_iot_sdk/components/network/lwip/src/include/lwip/tcpip.h"
	.file 16 "/home/chandu/sdk/bl602_iot_sdk/components/network/lwip/src/include/lwip/priv/tcpip_priv.h"
	.file 17 "/home/chandu/sdk/bl602_iot_sdk/components/network/lwip/src/include/lwip/mem.h"
	.file 18 "/home/chandu/sdk/bl602_iot_sdk/components/network/lwip/src/include/lwip/ip4.h"
	.file 19 "/home/chandu/sdk/bl602_iot_sdk/components/network/lwip/src/include/netif/ethernet.h"
	.file 20 "/home/chandu/sdk/bl602_iot_sdk/components/network/lwip/src/include/lwip/init.h"
	.file 21 "/home/chandu/sdk/bl602_iot_sdk/components/network/lwip/src/include/lwip/timeouts.h"
	.section	.note.GNU-stack,"",@progbits
