	.file	"bl_mtd.c"
	.option nopic
	.attribute arch, "rv32i2p1_m2p0_f2p2_c2p0_zicsr2p0_zmmul1p0_zca1p0_zcf1p0"
	.attribute unaligned_access, 0
	.attribute stack_align, 16
	.text
.Ltext0:
	.cfi_sections	.debug_frame
	.file 0 "/home/chandu/sdk/bl602_iot_sdk/customer_app/suas_app_pqkem_gateway/build_out/blmtd" "/home/chandu/sdk/bl602_iot_sdk/components/sys/blmtd/bl_mtd.c"
	.section	.rodata
	.align	2
.LC0:
	.string	"[MTD] >>>>>> Hanlde info Dump >>>>>>\r\n"
	.align	2
.LC1:
	.string	"      name %s\r\n"
	.align	2
.LC2:
	.string	"      id %d\r\n"
	.align	2
.LC3:
	.string	"      offset %p(%u)\r\n"
	.align	2
.LC4:
	.string	"      size %p(%uKbytes)\r\n"
	.align	2
.LC5:
	.string	"      xip_addr %p\r\n"
	.align	2
.LC6:
	.string	"[MTD] <<<<<< Hanlde info End <<<<<<\r\n"
	.section	.text.__dump_mtd_handle,"ax",@progbits
	.align	1
	.type	__dump_mtd_handle, @function
__dump_mtd_handle:
.LFB5:
	.file 1 "/home/chandu/sdk/bl602_iot_sdk/components/sys/blmtd/bl_mtd.c"
	.loc 1 50 1
	.cfi_startproc
	addi	sp,sp,-32
	.cfi_def_cfa_offset 32
	sw	ra,28(sp)
	sw	s0,24(sp)
	.cfi_offset 1, -4
	.cfi_offset 8, -8
	addi	s0,sp,32
	.cfi_def_cfa 8, 0
	sw	a0,-20(s0)
	.loc 1 51 5
	lui	a5,%hi(.LC0)
	addi	a0,a5,%lo(.LC0)
	call	puts
	.loc 1 52 43
	lw	a5,-20(s0)
	.loc 1 52 5
	mv	a1,a5
	lui	a5,%hi(.LC1)
	addi	a0,a5,%lo(.LC1)
	call	printf
	.loc 1 53 5
	lw	a5,-20(s0)
	lw	a5,16(a5)
	mv	a1,a5
	lui	a5,%hi(.LC2)
	addi	a0,a5,%lo(.LC2)
	call	printf
	.loc 1 54 56
	lw	a5,-20(s0)
	lw	a5,20(a5)
	.loc 1 54 5
	mv	a4,a5
	lw	a5,-20(s0)
	lw	a5,20(a5)
	mv	a2,a5
	mv	a1,a4
	lui	a5,%hi(.LC3)
	addi	a0,a5,%lo(.LC3)
	call	printf
	.loc 1 55 60
	lw	a5,-20(s0)
	lw	a5,24(a5)
	.loc 1 55 5
	mv	a4,a5
	.loc 1 55 78
	lw	a5,-20(s0)
	lw	a5,24(a5)
	.loc 1 55 5
	srli	a5,a5,10
	mv	a2,a5
	mv	a1,a4
	lui	a5,%hi(.LC4)
	addi	a0,a5,%lo(.LC4)
	call	printf
	.loc 1 56 5
	lw	a5,-20(s0)
	lw	a5,28(a5)
	mv	a1,a5
	lui	a5,%hi(.LC5)
	addi	a0,a5,%lo(.LC5)
	call	printf
	.loc 1 57 5
	lui	a5,%hi(.LC6)
	addi	a0,a5,%lo(.LC6)
	call	puts
	.loc 1 58 1
	nop
	lw	ra,28(sp)
	.cfi_restore 1
	lw	s0,24(sp)
	.cfi_restore 8
	.cfi_def_cfa 2, 32
	addi	sp,sp,32
	.cfi_def_cfa_offset 0
	jr	ra
	.cfi_endproc
.LFE5:
	.size	__dump_mtd_handle, .-__dump_mtd_handle
	.section	.text._mtd_write_copy2ram,"ax",@progbits
	.align	1
	.type	_mtd_write_copy2ram, @function
_mtd_write_copy2ram:
.LFB6:
	.loc 1 61 1
	.cfi_startproc
	addi	sp,sp,-112
	.cfi_def_cfa_offset 112
	sw	ra,108(sp)
	sw	s0,104(sp)
	.cfi_offset 1, -4
	.cfi_offset 8, -8
	addi	s0,sp,112
	.cfi_def_cfa 8, 0
	sw	a0,-100(s0)
	sw	a1,-104(s0)
	sw	a2,-108(s0)
	.loc 1 65 11
	j	.L3
.L6:
	.loc 1 66 12
	lw	a4,-108(s0)
	li	a5,63
	bleu	a4,a5,.L4
	.loc 1 67 21
	li	a5,64
	sw	a5,-20(s0)
	j	.L5
.L4:
	.loc 1 69 21
	lw	a5,-108(s0)
	sw	a5,-20(s0)
.L5:
	.loc 1 72 9
	addi	a5,s0,-84
	lw	a2,-20(s0)
	lw	a1,-104(s0)
	mv	a0,a5
	call	memcpy
	.loc 1 73 9
	lw	a4,-20(s0)
	addi	a5,s0,-84
	mv	a2,a4
	mv	a1,a5
	lw	a0,-100(s0)
	call	bl_flash_write
	.loc 1 75 14
	lw	a4,-100(s0)
	lw	a5,-20(s0)
	add	a5,a4,a5
	sw	a5,-100(s0)
	.loc 1 76 13
	lw	a4,-104(s0)
	lw	a5,-20(s0)
	add	a5,a4,a5
	sw	a5,-104(s0)
	.loc 1 77 13
	lw	a4,-108(s0)
	lw	a5,-20(s0)
	sub	a5,a4,a5
	sw	a5,-108(s0)
.L3:
	.loc 1 65 16
	lw	a5,-108(s0)
	bne	a5,zero,.L6
	.loc 1 80 12
	li	a5,0
	.loc 1 81 1
	mv	a0,a5
	lw	ra,108(sp)
	.cfi_restore 1
	lw	s0,104(sp)
	.cfi_restore 8
	.cfi_def_cfa 2, 112
	addi	sp,sp,112
	.cfi_def_cfa_offset 0
	jr	ra
	.cfi_endproc
.LFE6:
	.size	_mtd_write_copy2ram, .-_mtd_write_copy2ram
	.section	.text._mtd_write,"ax",@progbits
	.align	1
	.type	_mtd_write, @function
_mtd_write:
.LFB7:
	.loc 1 84 1
	.cfi_startproc
	addi	sp,sp,-32
	.cfi_def_cfa_offset 32
	sw	ra,28(sp)
	sw	s0,24(sp)
	.cfi_offset 1, -4
	.cfi_offset 8, -8
	addi	s0,sp,32
	.cfi_def_cfa 8, 0
	sw	a0,-20(s0)
	sw	a1,-24(s0)
	sw	a2,-28(s0)
	.loc 1 85 5
	lw	a5,-28(s0)
	mv	a2,a5
	lw	a1,-24(s0)
	lw	a0,-20(s0)
	call	bl_flash_write
	.loc 1 86 12
	li	a5,0
	.loc 1 87 1
	mv	a0,a5
	lw	ra,28(sp)
	.cfi_restore 1
	lw	s0,24(sp)
	.cfi_restore 8
	.cfi_def_cfa 2, 32
	addi	sp,sp,32
	.cfi_def_cfa_offset 0
	jr	ra
	.cfi_endproc
.LFE7:
	.size	_mtd_write, .-_mtd_write
	.section	.rodata
	.align	2
.LC7:
	.string	"[MTD] [PART] [XIP] error when get %s partition %d\r\n"
	.align	2
.LC8:
	.string	"[MTD] [PART] [XIP] Dead Loop. Reason: no Valid %s partition found\r\n"
	.section	.text.bl_mtd_open,"ax",@progbits
	.align	1
	.globl	bl_mtd_open
	.type	bl_mtd_open, @function
bl_mtd_open:
.LFB8:
	.loc 1 90 1
	.cfi_startproc
	addi	sp,sp,-48
	.cfi_def_cfa_offset 48
	sw	ra,44(sp)
	sw	s0,40(sp)
	.cfi_offset 1, -4
	.cfi_offset 8, -8
	addi	s0,sp,48
	.cfi_def_cfa 8, 0
	sw	a0,-36(s0)
	sw	a1,-40(s0)
	sw	a2,-44(s0)
	.loc 1 91 14
	sw	zero,-28(s0)
	.loc 1 92 14
	sw	zero,-32(s0)
	.loc 1 96 40
	li	a0,32
	call	pvPortMalloc
	sw	a0,-20(s0)
	.loc 1 98 8
	lw	a5,-20(s0)
	bne	a5,zero,.L11
	.loc 1 99 16
	li	a5,-1
	j	.L31
.L11:
	.loc 1 101 5
	li	a2,32
	li	a1,0
	lw	a0,-20(s0)
	call	memset
	.loc 1 102 23
	lw	a5,-20(s0)
	.loc 1 102 5
	li	a2,16
	lw	a1,-36(s0)
	mv	a0,a5
	call	strncpy
	.loc 1 104 15
	lw	a5,-44(s0)
	andi	a5,a5,1
	.loc 1 104 8
	beq	a5,zero,.L13
	.loc 1 106 19
	lw	a5,-44(s0)
	andi	a5,a5,2
	.loc 1 106 12
	beq	a5,zero,.L14
	.loc 1 107 24
	addi	a4,s0,-32
	addi	a5,s0,-28
	mv	a2,a4
	mv	a1,a5
	lw	a0,-36(s0)
	call	hal_boot2_partition_bus_addr_inactive
	sw	a0,-24(s0)
	.loc 1 107 16 discriminator 1
	lw	a5,-24(s0)
	bne	a5,zero,.L15
	.loc 1 107 88 discriminator 2
	lw	a5,-28(s0)
	.loc 1 107 83 discriminator 2
	bne	a5,zero,.L16
.L15:
	.loc 1 108 17
	lw	a2,-24(s0)
	lw	a1,-36(s0)
	lui	a5,%hi(.LC7)
	addi	a0,a5,%lo(.LC7)
	call	printf
	.loc 1 109 17
	lw	a1,-36(s0)
	lui	a5,%hi(.LC8)
	addi	a0,a5,%lo(.LC8)
	call	printf
.L17:
	.loc 1 110 23
	nop
	j	.L17
.L16:
	.loc 1 113 36
	lw	a5,-28(s0)
	mv	a4,a5
	.loc 1 113 34
	lw	a5,-20(s0)
	sw	a4,28(a5)
	j	.L18
.L14:
	.loc 1 115 34
	lw	a5,-20(s0)
	sw	zero,28(a5)
.L18:
	.loc 1 117 20
	addi	a4,s0,-32
	addi	a5,s0,-28
	mv	a2,a4
	mv	a1,a5
	lw	a0,-36(s0)
	call	hal_boot2_partition_addr_inactive
	sw	a0,-24(s0)
	.loc 1 117 12 discriminator 1
	lw	a5,-24(s0)
	bne	a5,zero,.L19
	.loc 1 117 80 discriminator 2
	lw	a5,-28(s0)
	.loc 1 117 75 discriminator 2
	bne	a5,zero,.L20
.L19:
	.loc 1 118 13
	lw	a2,-24(s0)
	lw	a1,-36(s0)
	lui	a5,%hi(.LC7)
	addi	a0,a5,%lo(.LC7)
	call	printf
	.loc 1 119 13
	lw	a1,-36(s0)
	lui	a5,%hi(.LC8)
	addi	a0,a5,%lo(.LC8)
	call	printf
.L21:
	.loc 1 120 19
	nop
	j	.L21
.L20:
	.loc 1 123 28
	lw	a4,-28(s0)
	lw	a5,-20(s0)
	sw	a4,20(a5)
	.loc 1 124 26
	lw	a4,-32(s0)
	lw	a5,-20(s0)
	sw	a4,24(a5)
	j	.L22
.L13:
	.loc 1 127 19
	lw	a5,-44(s0)
	andi	a5,a5,2
	.loc 1 127 12
	beq	a5,zero,.L23
	.loc 1 128 24
	addi	a4,s0,-32
	addi	a5,s0,-28
	mv	a2,a4
	mv	a1,a5
	lw	a0,-36(s0)
	call	hal_boot2_partition_bus_addr_active
	sw	a0,-24(s0)
	.loc 1 128 16 discriminator 1
	lw	a5,-24(s0)
	bne	a5,zero,.L24
	.loc 1 128 86 discriminator 2
	lw	a5,-28(s0)
	.loc 1 128 81 discriminator 2
	bne	a5,zero,.L25
.L24:
	.loc 1 129 17
	lw	a2,-24(s0)
	lw	a1,-36(s0)
	lui	a5,%hi(.LC7)
	addi	a0,a5,%lo(.LC7)
	call	printf
	.loc 1 130 17
	lw	a1,-36(s0)
	lui	a5,%hi(.LC8)
	addi	a0,a5,%lo(.LC8)
	call	printf
.L26:
	.loc 1 131 23
	nop
	j	.L26
.L25:
	.loc 1 134 36
	lw	a5,-28(s0)
	mv	a4,a5
	.loc 1 134 34
	lw	a5,-20(s0)
	sw	a4,28(a5)
	j	.L27
.L23:
	.loc 1 136 34
	lw	a5,-20(s0)
	sw	zero,28(a5)
.L27:
	.loc 1 138 20
	addi	a4,s0,-32
	addi	a5,s0,-28
	mv	a2,a4
	mv	a1,a5
	lw	a0,-36(s0)
	call	hal_boot2_partition_addr_active
	sw	a0,-24(s0)
	.loc 1 138 12 discriminator 1
	lw	a5,-24(s0)
	bne	a5,zero,.L28
	.loc 1 138 78 discriminator 2
	lw	a5,-28(s0)
	.loc 1 138 73 discriminator 2
	bne	a5,zero,.L29
.L28:
	.loc 1 139 13
	lw	a2,-24(s0)
	lw	a1,-36(s0)
	lui	a5,%hi(.LC7)
	addi	a0,a5,%lo(.LC7)
	call	printf
	.loc 1 140 13
	lw	a1,-36(s0)
	lui	a5,%hi(.LC8)
	addi	a0,a5,%lo(.LC8)
	call	printf
.L30:
	.loc 1 141 19
	nop
	j	.L30
.L29:
	.loc 1 144 28
	lw	a4,-28(s0)
	lw	a5,-20(s0)
	sw	a4,20(a5)
	.loc 1 145 26
	lw	a4,-32(s0)
	lw	a5,-20(s0)
	sw	a4,24(a5)
.L22:
	.loc 1 147 5
	lw	a0,-20(s0)
	call	__dump_mtd_handle
	.loc 1 148 13
	lw	a5,-40(s0)
	lw	a4,-20(s0)
	sw	a4,0(a5)
	.loc 1 150 12
	li	a5,0
.L31:
	.loc 1 151 1
	mv	a0,a5
	lw	ra,44(sp)
	.cfi_restore 1
	lw	s0,40(sp)
	.cfi_restore 8
	.cfi_def_cfa 2, 48
	addi	sp,sp,48
	.cfi_def_cfa_offset 0
	jr	ra
	.cfi_endproc
.LFE8:
	.size	bl_mtd_open, .-bl_mtd_open
	.section	.text.bl_mtd_close,"ax",@progbits
	.align	1
	.globl	bl_mtd_close
	.type	bl_mtd_close, @function
bl_mtd_close:
.LFB9:
	.loc 1 154 1
	.cfi_startproc
	addi	sp,sp,-32
	.cfi_def_cfa_offset 32
	sw	ra,28(sp)
	sw	s0,24(sp)
	.cfi_offset 1, -4
	.cfi_offset 8, -8
	addi	s0,sp,32
	.cfi_def_cfa 8, 0
	sw	a0,-20(s0)
	.loc 1 155 5
	lw	a0,-20(s0)
	call	vPortFree
	.loc 1 157 12
	li	a5,0
	.loc 1 158 1
	mv	a0,a5
	lw	ra,28(sp)
	.cfi_restore 1
	lw	s0,24(sp)
	.cfi_restore 8
	.cfi_def_cfa 2, 32
	addi	sp,sp,32
	.cfi_def_cfa_offset 0
	jr	ra
	.cfi_endproc
.LFE9:
	.size	bl_mtd_close, .-bl_mtd_close
	.section	.text.bl_mtd_info,"ax",@progbits
	.align	1
	.globl	bl_mtd_info
	.type	bl_mtd_info, @function
bl_mtd_info:
.LFB10:
	.loc 1 161 1
	.cfi_startproc
	addi	sp,sp,-48
	.cfi_def_cfa_offset 48
	sw	ra,44(sp)
	sw	s0,40(sp)
	.cfi_offset 1, -4
	.cfi_offset 8, -8
	addi	s0,sp,48
	.cfi_def_cfa 8, 0
	sw	a0,-36(s0)
	sw	a1,-40(s0)
	.loc 1 162 26
	lw	a5,-36(s0)
	sw	a5,-20(s0)
	.loc 1 164 16
	lw	a5,-40(s0)
	.loc 1 164 34
	lw	a4,-20(s0)
	.loc 1 164 5
	mv	a1,a4
	mv	a0,a5
	call	strcpy
	.loc 1 165 30
	lw	a5,-20(s0)
	lw	a4,20(a5)
	.loc 1 165 18
	lw	a5,-40(s0)
	sw	a4,16(a5)
	.loc 1 166 28
	lw	a5,-20(s0)
	lw	a4,24(a5)
	.loc 1 166 16
	lw	a5,-40(s0)
	sw	a4,20(a5)
	.loc 1 167 32
	lw	a5,-20(s0)
	lw	a4,28(a5)
	.loc 1 167 20
	lw	a5,-40(s0)
	sw	a4,24(a5)
	.loc 1 169 12
	li	a5,0
	.loc 1 170 1
	mv	a0,a5
	lw	ra,44(sp)
	.cfi_restore 1
	lw	s0,40(sp)
	.cfi_restore 8
	.cfi_def_cfa 2, 48
	addi	sp,sp,48
	.cfi_def_cfa_offset 0
	jr	ra
	.cfi_endproc
.LFE10:
	.size	bl_mtd_info, .-bl_mtd_info
	.section	.text.bl_mtd_erase,"ax",@progbits
	.align	1
	.globl	bl_mtd_erase
	.type	bl_mtd_erase, @function
bl_mtd_erase:
.LFB11:
	.loc 1 173 1
	.cfi_startproc
	addi	sp,sp,-48
	.cfi_def_cfa_offset 48
	sw	ra,44(sp)
	sw	s0,40(sp)
	.cfi_offset 1, -4
	.cfi_offset 8, -8
	addi	s0,sp,48
	.cfi_def_cfa 8, 0
	sw	a0,-36(s0)
	sw	a1,-40(s0)
	sw	a2,-44(s0)
	.loc 1 174 26
	lw	a5,-36(s0)
	sw	a5,-20(s0)
	.loc 1 177 23
	lw	a5,-20(s0)
	lw	a4,20(a5)
	.loc 1 177 32
	lw	a5,-40(s0)
	add	a5,a4,a5
	.loc 1 176 5
	lw	a4,-44(s0)
	mv	a1,a4
	mv	a0,a5
	call	bl_flash_erase
	.loc 1 180 12
	li	a5,0
	.loc 1 181 1
	mv	a0,a5
	lw	ra,44(sp)
	.cfi_restore 1
	lw	s0,40(sp)
	.cfi_restore 8
	.cfi_def_cfa 2, 48
	addi	sp,sp,48
	.cfi_def_cfa_offset 0
	jr	ra
	.cfi_endproc
.LFE11:
	.size	bl_mtd_erase, .-bl_mtd_erase
	.section	.text.bl_mtd_erase_all,"ax",@progbits
	.align	1
	.globl	bl_mtd_erase_all
	.type	bl_mtd_erase_all, @function
bl_mtd_erase_all:
.LFB12:
	.loc 1 184 1
	.cfi_startproc
	addi	sp,sp,-48
	.cfi_def_cfa_offset 48
	sw	ra,44(sp)
	sw	s0,40(sp)
	.cfi_offset 1, -4
	.cfi_offset 8, -8
	addi	s0,sp,48
	.cfi_def_cfa 8, 0
	sw	a0,-36(s0)
	.loc 1 185 26
	lw	a5,-36(s0)
	sw	a5,-20(s0)
	.loc 1 188 32
	lw	a5,-20(s0)
	lw	a4,20(a5)
	.loc 1 189 23
	lw	a5,-20(s0)
	lw	a5,24(a5)
	.loc 1 187 5
	mv	a1,a5
	mv	a0,a4
	call	bl_flash_erase
	.loc 1 192 12
	li	a5,0
	.loc 1 193 1
	mv	a0,a5
	lw	ra,44(sp)
	.cfi_restore 1
	lw	s0,40(sp)
	.cfi_restore 8
	.cfi_def_cfa 2, 48
	addi	sp,sp,48
	.cfi_def_cfa_offset 0
	jr	ra
	.cfi_endproc
.LFE12:
	.size	bl_mtd_erase_all, .-bl_mtd_erase_all
	.section	.rodata
	.align	2
.LC9:
	.string	"bl_mtd.c"
	.align	2
.LC10:
	.string	"\033[33mWARN  \033[0m"
	.align	2
.LC11:
	.string	"[%10u][%s: %s:%4d] addr@%p is xip flash, size %d\r\n"
	.section	.text.bl_mtd_write,"ax",@progbits
	.align	1
	.globl	bl_mtd_write
	.type	bl_mtd_write, @function
bl_mtd_write:
.LFB13:
	.loc 1 196 1
	.cfi_startproc
	addi	sp,sp,-48
	.cfi_def_cfa_offset 48
	sw	ra,44(sp)
	sw	s0,40(sp)
	.cfi_offset 1, -4
	.cfi_offset 8, -8
	addi	s0,sp,48
	.cfi_def_cfa 8, 0
	sw	a0,-36(s0)
	sw	a1,-40(s0)
	sw	a2,-44(s0)
	sw	a3,-48(s0)
	.loc 1 197 26
	lw	a5,-36(s0)
	sw	a5,-20(s0)
	.loc 1 198 36
	lw	a5,-20(s0)
	lw	a5,20(a5)
	.loc 1 198 14
	lw	a4,-40(s0)
	add	a5,a4,a5
	sw	a5,-24(s0)
	.loc 1 200 9
	lw	a5,-48(s0)
	mv	a0,a5
	call	bl_sys_isxipaddr
	mv	a5,a0
	.loc 1 200 8 discriminator 1
	beq	a5,zero,.L41
.LBB4:
.LBB5:
	.file 2 "/home/chandu/sdk/bl602_iot_sdk/components/freertos/portable/GCC/RISC-V/portmacro.h"
	.loc 2 181 31
	lui	a5,%hi(TrapNetCounter)
	lw	a5,%lo(TrapNetCounter)(a5)
	snez	a5,a5
	andi	a5,a5,0xff
.LBE5:
.LBE4:
	.loc 1 201 16 discriminator 1
	beq	a5,zero,.L43
	.loc 1 201 113 discriminator 2
	call	xTaskGetTickCountFromISR
	mv	a1,a0
	j	.L44
.L43:
	.loc 1 201 142 discriminator 3
	call	xTaskGetTickCount
	mv	a1,a0
.L44:
	.loc 1 201 16 discriminator 7
	lw	a6,-44(s0)
	lw	a5,-48(s0)
	li	a4,201
	lui	a3,%hi(.LC9)
	addi	a3,a3,%lo(.LC9)
	lui	a2,%hi(.LC10)
	addi	a2,a2,%lo(.LC10)
	lui	a0,%hi(.LC11)
	addi	a0,a0,%lo(.LC11)
	call	bl_printk
	.loc 1 202 9
	lw	a2,-44(s0)
	lw	a1,-48(s0)
	lw	a0,-24(s0)
	call	_mtd_write_copy2ram
	j	.L45
.L41:
	.loc 1 204 9
	lw	a2,-44(s0)
	lw	a1,-48(s0)
	lw	a0,-24(s0)
	call	_mtd_write
.L45:
	.loc 1 207 12
	li	a5,0
	.loc 1 208 1
	mv	a0,a5
	lw	ra,44(sp)
	.cfi_restore 1
	lw	s0,40(sp)
	.cfi_restore 8
	.cfi_def_cfa 2, 48
	addi	sp,sp,48
	.cfi_def_cfa_offset 0
	jr	ra
	.cfi_endproc
.LFE13:
	.size	bl_mtd_write, .-bl_mtd_write
	.section	.text.bl_mtd_read,"ax",@progbits
	.align	1
	.globl	bl_mtd_read
	.type	bl_mtd_read, @function
bl_mtd_read:
.LFB14:
	.loc 1 211 1
	.cfi_startproc
	addi	sp,sp,-48
	.cfi_def_cfa_offset 48
	sw	ra,44(sp)
	sw	s0,40(sp)
	.cfi_offset 1, -4
	.cfi_offset 8, -8
	addi	s0,sp,48
	.cfi_def_cfa 8, 0
	sw	a0,-36(s0)
	sw	a1,-40(s0)
	sw	a2,-44(s0)
	sw	a3,-48(s0)
	.loc 1 212 26
	lw	a5,-36(s0)
	sw	a5,-20(s0)
	.loc 1 215 23
	lw	a5,-20(s0)
	lw	a4,20(a5)
	.loc 1 215 32
	lw	a5,-40(s0)
	add	a5,a4,a5
	.loc 1 214 5
	lw	a4,-44(s0)
	mv	a2,a4
	lw	a1,-48(s0)
	mv	a0,a5
	call	bl_flash_read
	.loc 1 220 12
	li	a5,0
	.loc 1 221 1
	mv	a0,a5
	lw	ra,44(sp)
	.cfi_restore 1
	lw	s0,40(sp)
	.cfi_restore 8
	.cfi_def_cfa 2, 48
	addi	sp,sp,48
	.cfi_def_cfa_offset 0
	jr	ra
	.cfi_endproc
.LFE14:
	.size	bl_mtd_read, .-bl_mtd_read
	.section	.text.bl_mtd_size,"ax",@progbits
	.align	1
	.globl	bl_mtd_size
	.type	bl_mtd_size, @function
bl_mtd_size:
.LFB15:
	.loc 1 224 1
	.cfi_startproc
	addi	sp,sp,-48
	.cfi_def_cfa_offset 48
	sw	ra,44(sp)
	sw	s0,40(sp)
	.cfi_offset 1, -4
	.cfi_offset 8, -8
	addi	s0,sp,48
	.cfi_def_cfa 8, 0
	sw	a0,-36(s0)
	sw	a1,-40(s0)
	.loc 1 225 26
	lw	a5,-36(s0)
	sw	a5,-20(s0)
	.loc 1 226 8
	lw	a5,-36(s0)
	bne	a5,zero,.L50
	.loc 1 227 16
	li	a5,-1
	j	.L51
.L50:
	.loc 1 229 23
	lw	a5,-20(s0)
	lw	a4,24(a5)
	.loc 1 229 11
	lw	a5,-40(s0)
	sw	a4,0(a5)
	.loc 1 231 12
	li	a5,0
.L51:
	.loc 1 232 1
	mv	a0,a5
	lw	ra,44(sp)
	.cfi_restore 1
	lw	s0,40(sp)
	.cfi_restore 8
	.cfi_def_cfa 2, 48
	addi	sp,sp,48
	.cfi_def_cfa_offset 0
	jr	ra
	.cfi_endproc
.LFE15:
	.size	bl_mtd_size, .-bl_mtd_size
	.text
.Letext0:
	.file 3 "/home/chandu/sdk/bl602_iot_sdk/toolchain/compiler/lib/gcc/riscv32-unknown-elf/15.1.0/include/stddef.h"
	.file 4 "/home/chandu/sdk/bl602_iot_sdk/toolchain/compiler/lib/gcc/riscv32-unknown-elf/15.1.0/include/stdint-gcc.h"
	.file 5 "/home/chandu/sdk/bl602_iot_sdk/components/sys/blmtd/include/bl_mtd.h"
	.file 6 "/home/chandu/sdk/bl602_iot_sdk/components/freertos/include/task.h"
	.file 7 "/home/chandu/sdk/bl602_iot_sdk/components/hal_drv/bl602_hal/bl_flash.h"
	.file 8 "/home/chandu/sdk/bl602_iot_sdk/components/hal_drv/bl602_hal/bl_sys.h"
	.file 9 "/home/chandu/sdk/bl602_iot_sdk/toolchain/compiler/riscv32-unknown-elf/include/string.h"
	.file 10 "/home/chandu/sdk/bl602_iot_sdk/components/utils/include/utils_log.h"
	.file 11 "/home/chandu/sdk/bl602_iot_sdk/components/freertos/include/portable.h"
	.file 12 "/home/chandu/sdk/bl602_iot_sdk/components/hal_drv/bl602_hal/hal_boot2.h"
	.file 13 "/home/chandu/sdk/bl602_iot_sdk/toolchain/compiler/riscv32-unknown-elf/include/stdio.h"
	.section	.note.GNU-stack,"",@progbits
