	.file	"bflb_dsa.c"
	.option nopic
	.attribute arch, "rv32i2p1_m2p0_f2p2_c2p0_zicsr2p0_zmmul1p0_zca1p0_zcf1p0"
	.attribute unaligned_access, 0
	.attribute stack_align, 16
	.text
.Ltext0:
	.cfi_sections	.debug_frame
	.file 0 "/home/chandu/sdk/bl602_iot_sdk/customer_app/suas_app_pqkem_gateway/build_out/bl602_std" "/home/chandu/sdk/bl602_iot_sdk/components/bl602/bl602_std/bl602_std/Common/cipher_suite/src/bflb_dsa.c"
	.section	.text.bflb_dsa_get_reg_size,"ax",@progbits
	.align	1
	.type	bflb_dsa_get_reg_size, @function
bflb_dsa_get_reg_size:
.LFB8:
	.file 1 "/home/chandu/sdk/bl602_iot_sdk/components/bl602/bl602_std/bl602_std/Common/cipher_suite/src/bflb_dsa.c"
	.loc 1 27 1
	.cfi_startproc
	addi	sp,sp,-32
	.cfi_def_cfa_offset 32
	sw	ra,28(sp)
	sw	s0,24(sp)
	.cfi_offset 1, -4
	.cfi_offset 8, -8
	addi	s0,sp,32
	.cfi_def_cfa 8, 0
	sw	a0,-20(s0)
	.loc 1 28 5
	lw	a4,-20(s0)
	li	a5,4096
	beq	a4,a5,.L2
	lw	a4,-20(s0)
	li	a5,4096
	bgtu	a4,a5,.L3
	lw	a4,-20(s0)
	li	a5,4096
	addi	a5,a5,-1024
	beq	a4,a5,.L4
	lw	a4,-20(s0)
	li	a5,4096
	addi	a5,a5,-1024
	bgtu	a4,a5,.L3
	lw	a5,-20(s0)
	addi	a5,a5,-2048
	beq	a5,zero,.L5
	lw	a4,-20(s0)
	li	a5,4096
	addi	a5,a5,-2048
	bgtu	a4,a5,.L3
	lw	a4,-20(s0)
	li	a5,1536
	beq	a4,a5,.L6
	lw	a4,-20(s0)
	li	a5,1536
	bgtu	a4,a5,.L3
	lw	a4,-20(s0)
	li	a5,1024
	beq	a4,a5,.L7
	lw	a4,-20(s0)
	li	a5,1024
	bgtu	a4,a5,.L3
	lw	a4,-20(s0)
	li	a5,768
	beq	a4,a5,.L8
	lw	a4,-20(s0)
	li	a5,768
	bgtu	a4,a5,.L3
	lw	a4,-20(s0)
	li	a5,512
	beq	a4,a5,.L9
	lw	a4,-20(s0)
	li	a5,512
	bgtu	a4,a5,.L3
	lw	a4,-20(s0)
	li	a5,256
	beq	a4,a5,.L10
	lw	a4,-20(s0)
	li	a5,256
	bgtu	a4,a5,.L3
	lw	a4,-20(s0)
	li	a5,64
	beq	a4,a5,.L11
	lw	a4,-20(s0)
	li	a5,128
	beq	a4,a5,.L12
	j	.L3
.L11:
	.loc 1 30 16
	li	a5,1
	j	.L13
.L12:
	.loc 1 32 16
	li	a5,2
	j	.L13
.L10:
	.loc 1 34 16
	li	a5,3
	j	.L13
.L9:
	.loc 1 36 16
	li	a5,4
	j	.L13
.L8:
	.loc 1 38 16
	li	a5,5
	j	.L13
.L7:
	.loc 1 40 16
	li	a5,6
	j	.L13
.L6:
	.loc 1 42 16
	li	a5,7
	j	.L13
.L5:
	.loc 1 44 16
	li	a5,8
	j	.L13
.L4:
	.loc 1 46 16
	li	a5,9
	j	.L13
.L2:
	.loc 1 48 16
	li	a5,10
	j	.L13
.L3:
	.loc 1 50 15
	li	a5,3
.L13:
	.loc 1 53 1
	mv	a0,a5
	lw	ra,28(sp)
	.cfi_restore 1
	lw	s0,24(sp)
	.cfi_restore 8
	.cfi_def_cfa 2, 32
	addi	sp,sp,32
	.cfi_def_cfa_offset 0
	jr	ra
	.cfi_endproc
.LFE8:
	.size	bflb_dsa_get_reg_size, .-bflb_dsa_get_reg_size
	.section	.rodata
	.align	2
.LC0:
	.zero	127
	.ascii	"\001"
	.section	.text.bflb_dsa_mexp_binary,"ax",@progbits
	.align	1
	.globl	bflb_dsa_mexp_binary
	.type	bflb_dsa_mexp_binary, @function
bflb_dsa_mexp_binary:
.LFB9:
	.loc 1 66 1
	.cfi_startproc
	addi	sp,sp,-208
	.cfi_def_cfa_offset 208
	sw	ra,204(sp)
	sw	s0,200(sp)
	.cfi_offset 1, -4
	.cfi_offset 8, -8
	addi	s0,sp,208
	.cfi_def_cfa 8, 0
	sw	a0,-180(s0)
	sw	a1,-184(s0)
	sw	a2,-188(s0)
	sw	a3,-192(s0)
	sw	a4,-196(s0)
	.loc 1 69 14
	sw	zero,-32(s0)
	.loc 1 70 14
	lw	a5,-188(s0)
	sw	a5,-36(s0)
	.loc 1 71 40
	lw	a0,-180(s0)
	call	bflb_dsa_get_reg_size
	mv	a5,a0
	sb	a5,-37(s0)
	.loc 1 72 66
	lw	a5,-180(s0)
	slli	a5,a5,1
	.loc 1 72 40
	mv	a0,a5
	call	bflb_dsa_get_reg_size
	mv	a5,a0
	sb	a5,-38(s0)
	.loc 1 73 14
	lw	a5,-180(s0)
	srli	a5,a5,5
	sw	a5,-44(s0)
	.loc 1 75 13
	lui	a5,%hi(.LC0)
	addi	a4,a5,%lo(.LC0)
	addi	a5,s0,-176
	mv	a3,a4
	li	a4,128
	mv	a2,a4
	mv	a1,a3
	mv	a0,a5
	call	memcpy
	.loc 1 99 5
	lw	a5,-44(s0)
	slli	a3,a5,16
	srli	a3,a3,16
	lbu	a5,-37(s0)
	li	a4,0
	lw	a2,-184(s0)
	li	a1,4
	mv	a0,a5
	call	Sec_Eng_PKA_Write_Data
	.loc 1 102 5
	addi	a2,s0,-176
	lbu	a5,-37(s0)
	li	a4,0
	li	a3,32
	li	a1,5
	mv	a0,a5
	call	Sec_Eng_PKA_Write_Data
	.loc 1 110 5
	lw	a5,-44(s0)
	slli	a3,a5,16
	srli	a3,a3,16
	lbu	a5,-37(s0)
	li	a4,0
	lw	a2,-192(s0)
	li	a1,0
	mv	a0,a5
	call	Sec_Eng_PKA_Write_Data
	.loc 1 112 5
	lw	a5,-44(s0)
	andi	a4,a5,0xff
	lbu	a5,-37(s0)
	li	a3,0
	mv	a2,a4
	li	a1,6
	mv	a0,a5
	call	Sec_Eng_PKA_CREG
	.loc 1 113 5
	lw	a5,-44(s0)
	andi	a4,a5,0xff
	lbu	a5,-37(s0)
	li	a3,1
	mv	a2,a4
	li	a1,7
	mv	a0,a5
	call	Sec_Eng_PKA_CREG
	.loc 1 120 6
	sw	zero,-28(s0)
	.loc 1 121 10
	j	.L15
.L17:
	.loc 1 122 9
	lw	a5,-28(s0)
	addi	a5,a5,1
	sw	a5,-28(s0)
.L15:
	.loc 1 121 12
	lw	a4,-36(s0)
	lw	a5,-28(s0)
	add	a5,a4,a5
	lbu	a5,0(a5)
	.loc 1 121 18
	bne	a5,zero,.L16
	.loc 1 121 27 discriminator 1
	lw	a5,-180(s0)
	srli	a5,a5,3
	.loc 1 121 18 discriminator 1
	lw	a4,-28(s0)
	bltu	a4,a5,.L17
.L16:
	.loc 1 124 12
	lw	a5,-180(s0)
	srli	a5,a5,3
	.loc 1 124 6
	addi	a5,a5,-1
	sw	a5,-20(s0)
	.loc 1 125 5
	j	.L18
.L22:
	.loc 1 126 13
	lw	a4,-36(s0)
	lw	a5,-20(s0)
	add	a5,a4,a5
	lbu	a5,0(a5)
	.loc 1 126 11
	sw	a5,-48(s0)
	.loc 1 127 9
	sw	zero,-24(s0)
	.loc 1 128 13
	sw	zero,-24(s0)
	.loc 1 128 8
	j	.L19
.L21:
	.loc 1 129 25
	lw	a5,-24(s0)
	li	a4,1
	sll	a5,a4,a5
	mv	a4,a5
	.loc 1 129 18
	lw	a5,-48(s0)
	and	a5,a5,a4
	sw	a5,-32(s0)
	.loc 1 130 15
	lw	a5,-32(s0)
	beq	a5,zero,.L20
	.loc 1 132 17
	lbu	a4,-37(s0)
	lbu	a2,-37(s0)
	lbu	a0,-38(s0)
	li	a6,0
	li	a5,4
	li	a3,5
	li	a1,3
	call	Sec_Eng_PKA_LMUL
	.loc 1 133 17
	lbu	a4,-37(s0)
	lbu	a2,-38(s0)
	lbu	a0,-37(s0)
	li	a6,1
	li	a5,0
	li	a3,3
	li	a1,5
	call	Sec_Eng_PKA_MREM
.L20:
	.loc 1 141 13
	lbu	a2,-37(s0)
	lbu	a5,-38(s0)
	li	a4,0
	li	a3,4
	li	a1,3
	mv	a0,a5
	call	Sec_Eng_PKA_LSQR
	.loc 1 142 13
	lbu	a4,-37(s0)
	lbu	a2,-38(s0)
	lbu	a0,-37(s0)
	li	a6,1
	li	a5,0
	li	a3,3
	li	a1,4
	call	Sec_Eng_PKA_MREM
	.loc 1 128 21 discriminator 2
	lw	a5,-24(s0)
	addi	a5,a5,1
	sw	a5,-24(s0)
.L19:
	.loc 1 128 17 discriminator 1
	lw	a4,-24(s0)
	li	a5,7
	bleu	a4,a5,.L21
	.loc 1 125 16
	lw	a5,-20(s0)
	addi	a5,a5,-1
	sw	a5,-20(s0)
.L18:
	.loc 1 125 11 discriminator 1
	lw	a4,-20(s0)
	lw	a5,-28(s0)
	bgeu	a4,a5,.L22
	.loc 1 150 5
	lw	a5,-44(s0)
	andi	a4,a5,0xff
	lbu	a5,-37(s0)
	mv	a3,a4
	lw	a2,-196(s0)
	li	a1,5
	mv	a0,a5
	call	Sec_Eng_PKA_Read_Data
	.loc 1 155 12
	li	a5,0
	.loc 1 156 1
	mv	a0,a5
	lw	ra,204(sp)
	.cfi_restore 1
	lw	s0,200(sp)
	.cfi_restore 8
	.cfi_def_cfa 2, 208
	addi	sp,sp,208
	.cfi_def_cfa_offset 0
	jr	ra
	.cfi_endproc
.LFE9:
	.size	bflb_dsa_mexp_binary, .-bflb_dsa_mexp_binary
	.section	.text.bflb_dsa_mexp_mont,"ax",@progbits
	.align	1
	.globl	bflb_dsa_mexp_mont
	.type	bflb_dsa_mexp_mont, @function
bflb_dsa_mexp_mont:
.LFB10:
	.loc 1 160 1
	.cfi_startproc
	addi	sp,sp,-80
	.cfi_def_cfa_offset 80
	sw	ra,76(sp)
	sw	s0,72(sp)
	.cfi_offset 1, -4
	.cfi_offset 8, -8
	addi	s0,sp,80
	.cfi_def_cfa 8, 0
	sw	a0,-36(s0)
	sw	a1,-40(s0)
	sw	a2,-44(s0)
	sw	a3,-48(s0)
	sw	a4,-52(s0)
	sw	a5,-56(s0)
	sw	a6,-60(s0)
	.loc 1 161 40
	lw	a0,-36(s0)
	call	bflb_dsa_get_reg_size
	mv	a5,a0
	sb	a5,-17(s0)
	.loc 1 162 66
	lw	a5,-36(s0)
	slli	a5,a5,1
	.loc 1 162 40
	mv	a0,a5
	call	bflb_dsa_get_reg_size
	mv	a5,a0
	sb	a5,-18(s0)
	.loc 1 163 14
	lw	a5,-36(s0)
	srli	a5,a5,5
	sw	a5,-24(s0)
	.loc 1 173 5
	lw	a5,-24(s0)
	slli	a3,a5,16
	srli	a3,a3,16
	lbu	a5,-17(s0)
	li	a4,0
	lw	a2,-48(s0)
	li	a1,0
	mv	a0,a5
	call	Sec_Eng_PKA_Write_Data
	.loc 1 174 5
	lw	a5,-24(s0)
	slli	a3,a5,16
	srli	a3,a3,16
	lbu	a5,-17(s0)
	li	a4,1
	lw	a2,-56(s0)
	li	a1,1
	mv	a0,a5
	call	Sec_Eng_PKA_Write_Data
	.loc 1 175 5
	lw	a5,-24(s0)
	slli	a3,a5,16
	srli	a3,a3,16
	lbu	a5,-17(s0)
	li	a4,1
	lw	a2,-52(s0)
	li	a1,2
	mv	a0,a5
	call	Sec_Eng_PKA_Write_Data
	.loc 1 178 5
	lw	a5,-24(s0)
	slli	a3,a5,16
	srli	a3,a3,16
	lbu	a5,-17(s0)
	li	a4,0
	lw	a2,-40(s0)
	li	a1,4
	mv	a0,a5
	call	Sec_Eng_PKA_Write_Data
	.loc 1 179 5
	lw	a5,-24(s0)
	andi	a4,a5,0xff
	lbu	a5,-17(s0)
	li	a3,0
	mv	a2,a4
	li	a1,10
	mv	a0,a5
	call	Sec_Eng_PKA_CREG
	.loc 1 180 5
	lw	a5,-24(s0)
	andi	a4,a5,0xff
	lbu	a5,-17(s0)
	li	a3,0
	mv	a2,a4
	li	a1,11
	mv	a0,a5
	call	Sec_Eng_PKA_CREG
	.loc 1 181 5
	lbu	a4,-17(s0)
	lbu	a5,-18(s0)
	lbu	a2,-17(s0)
	lbu	a0,-17(s0)
	sw	zero,0(sp)
	mv	a7,a4
	li	a6,5
	lw	a4,-36(s0)
	li	a3,4
	li	a1,4
	call	Sec_Eng_PKA_GF2Mont
	.loc 1 188 5
	lw	a5,-24(s0)
	slli	a3,a5,16
	srli	a3,a3,16
	lbu	a5,-17(s0)
	li	a4,0
	lw	a2,-44(s0)
	li	a1,5
	mv	a0,a5
	call	Sec_Eng_PKA_Write_Data
	.loc 1 190 5
	lbu	a3,-17(s0)
	lbu	a4,-17(s0)
	lbu	a2,-17(s0)
	lbu	a0,-17(s0)
	li	a5,1
	sw	a5,0(sp)
	li	a7,0
	mv	a6,a3
	li	a5,5
	li	a3,4
	li	a1,6
	call	Sec_Eng_PKA_MEXP
	.loc 1 193 5
	lw	a5,-24(s0)
	andi	a4,a5,0xff
	lbu	a5,-17(s0)
	li	a3,0
	mv	a2,a4
	li	a1,10
	mv	a0,a5
	call	Sec_Eng_PKA_CREG
	.loc 1 194 5
	lw	a5,-24(s0)
	andi	a4,a5,0xff
	lbu	a5,-17(s0)
	li	a3,0
	mv	a2,a4
	li	a1,11
	mv	a0,a5
	call	Sec_Eng_PKA_CREG
	.loc 1 196 5
	lbu	a3,-18(s0)
	lbu	a4,-17(s0)
	lbu	a2,-17(s0)
	lbu	a0,-17(s0)
	sw	zero,4(sp)
	lbu	a5,-17(s0)
	sw	a5,0(sp)
	li	a7,5
	mv	a6,a3
	li	a5,2
	li	a3,6
	li	a1,7
	call	Sec_Eng_PKA_Mont2GF
	.loc 1 197 5
	lw	a5,-24(s0)
	andi	a4,a5,0xff
	lbu	a5,-17(s0)
	mv	a3,a4
	lw	a2,-60(s0)
	li	a1,7
	mv	a0,a5
	call	Sec_Eng_PKA_Read_Data
	.loc 1 202 12
	li	a5,0
	.loc 1 203 1
	mv	a0,a5
	lw	ra,76(sp)
	.cfi_restore 1
	lw	s0,72(sp)
	.cfi_restore 8
	.cfi_def_cfa 2, 80
	addi	sp,sp,80
	.cfi_def_cfa_offset 0
	jr	ra
	.cfi_endproc
.LFE10:
	.size	bflb_dsa_mexp_mont, .-bflb_dsa_mexp_mont
	.section	.text.bflb_dsa_decrypt_crt,"ax",@progbits
	.align	1
	.globl	bflb_dsa_decrypt_crt
	.type	bflb_dsa_decrypt_crt, @function
bflb_dsa_decrypt_crt:
.LFB11:
	.loc 1 214 1
	.cfi_startproc
	addi	sp,sp,-336
	.cfi_def_cfa_offset 336
	sw	ra,332(sp)
	sw	s0,328(sp)
	.cfi_offset 1, -4
	.cfi_offset 8, -8
	addi	s0,sp,336
	.cfi_def_cfa 8, 0
	sw	a0,-292(s0)
	sw	a1,-296(s0)
	sw	a2,-300(s0)
	sw	a3,-304(s0)
	sw	a4,-308(s0)
	.loc 1 221 40
	lw	a0,-292(s0)
	call	bflb_dsa_get_reg_size
	mv	a5,a0
	sb	a5,-17(s0)
	.loc 1 222 66
	lw	a5,-292(s0)
	slli	a5,a5,1
	.loc 1 222 40
	mv	a0,a5
	call	bflb_dsa_get_reg_size
	mv	a5,a0
	sb	a5,-18(s0)
	.loc 1 223 14
	lw	a5,-292(s0)
	srli	a5,a5,5
	sw	a5,-24(s0)
	.loc 1 246 5
	lw	a5,-300(s0)
	lw	a2,0(a5)
	lw	a5,-300(s0)
	lw	a3,12(a5)
	lw	a5,-300(s0)
	lw	a4,16(a5)
	lw	a5,-300(s0)
	lw	a5,20(a5)
	addi	a1,s0,-152
	mv	a6,a1
	lw	a1,-296(s0)
	lw	a0,-292(s0)
	call	bflb_dsa_mexp_mont
	.loc 1 247 5
	lw	a5,-300(s0)
	lw	a2,4(a5)
	lw	a5,-300(s0)
	lw	a3,24(a5)
	lw	a5,-300(s0)
	lw	a4,28(a5)
	lw	a5,-300(s0)
	lw	a5,32(a5)
	addi	a1,s0,-280
	mv	a6,a1
	lw	a1,-296(s0)
	lw	a0,-292(s0)
	call	bflb_dsa_mexp_mont
	.loc 1 249 5
	lw	a5,-24(s0)
	slli	a3,a5,16
	srli	a3,a3,16
	addi	a2,s0,-152
	lbu	a5,-17(s0)
	li	a4,0
	li	a1,4
	mv	a0,a5
	call	Sec_Eng_PKA_Write_Data
	.loc 1 250 5
	lw	a5,-24(s0)
	slli	a3,a5,16
	srli	a3,a3,16
	addi	a2,s0,-280
	lbu	a5,-17(s0)
	li	a4,0
	li	a1,5
	mv	a0,a5
	call	Sec_Eng_PKA_Write_Data
	.loc 1 251 39
	lw	a5,-300(s0)
	lw	a2,8(a5)
	.loc 1 251 5
	lw	a5,-24(s0)
	slli	a3,a5,16
	srli	a3,a3,16
	lbu	a5,-17(s0)
	li	a4,0
	li	a1,6
	mv	a0,a5
	call	Sec_Eng_PKA_Write_Data
	.loc 1 252 39
	lw	a5,-300(s0)
	lw	a2,12(a5)
	.loc 1 252 5
	lw	a5,-24(s0)
	slli	a3,a5,16
	srli	a3,a3,16
	lbu	a5,-17(s0)
	li	a4,0
	li	a1,7
	mv	a0,a5
	call	Sec_Eng_PKA_Write_Data
	.loc 1 253 39
	lw	a5,-300(s0)
	lw	a2,24(a5)
	.loc 1 253 5
	lw	a5,-24(s0)
	slli	a3,a5,16
	srli	a3,a3,16
	lbu	a5,-17(s0)
	li	a4,0
	li	a1,8
	mv	a0,a5
	call	Sec_Eng_PKA_Write_Data
	.loc 1 256 4
	lbu	a3,-17(s0)
	lbu	a4,-17(s0)
	lbu	a2,-17(s0)
	lbu	a0,-17(s0)
	li	a5,1
	sw	a5,0(sp)
	li	a7,7
	mv	a6,a3
	li	a5,5
	li	a3,4
	li	a1,4
	call	Sec_Eng_PKA_MSUB
	.loc 1 263 5
	lw	a5,-24(s0)
	andi	a4,a5,0xff
	lbu	a5,-17(s0)
	li	a3,0
	mv	a2,a4
	li	a1,10
	mv	a0,a5
	call	Sec_Eng_PKA_CREG
	.loc 1 264 5
	lw	a5,-24(s0)
	andi	a4,a5,0xff
	lbu	a5,-17(s0)
	li	a3,0
	mv	a2,a4
	li	a1,11
	mv	a0,a5
	call	Sec_Eng_PKA_CREG
	.loc 1 265 5
	lbu	a4,-17(s0)
	lbu	a2,-17(s0)
	lbu	a0,-18(s0)
	li	a6,1
	li	a5,4
	li	a3,6
	li	a1,5
	call	Sec_Eng_PKA_LMUL
	.loc 1 271 5
	lbu	a4,-17(s0)
	lbu	a2,-18(s0)
	lbu	a0,-17(s0)
	li	a6,1
	li	a5,7
	li	a3,5
	li	a1,9
	call	Sec_Eng_PKA_MREM
	.loc 1 279 5
	lw	a5,-24(s0)
	andi	a4,a5,0xff
	lbu	a5,-17(s0)
	li	a3,0
	mv	a2,a4
	li	a1,10
	mv	a0,a5
	call	Sec_Eng_PKA_CREG
	.loc 1 280 5
	lw	a5,-24(s0)
	andi	a4,a5,0xff
	lbu	a5,-17(s0)
	li	a3,0
	mv	a2,a4
	li	a1,11
	mv	a0,a5
	call	Sec_Eng_PKA_CREG
	.loc 1 281 5
	lbu	a4,-17(s0)
	lbu	a2,-17(s0)
	lbu	a0,-18(s0)
	li	a6,1
	li	a5,8
	li	a3,9
	li	a1,5
	call	Sec_Eng_PKA_LMUL
	.loc 1 288 5
	lbu	a4,-17(s0)
	lbu	a2,-18(s0)
	lbu	a0,-18(s0)
	li	a6,1
	li	a5,5
	li	a3,5
	li	a1,5
	call	Sec_Eng_PKA_LADD
	.loc 1 290 5
	lw	a5,-24(s0)
	andi	a5,a5,0xff
	slli	a5,a5,1
	andi	a4,a5,0xff
	lbu	a5,-18(s0)
	mv	a3,a4
	lw	a2,-308(s0)
	li	a1,5
	mv	a0,a5
	call	Sec_Eng_PKA_Read_Data
	.loc 1 295 12
	li	a5,0
	.loc 1 296 1
	mv	a0,a5
	lw	ra,332(sp)
	.cfi_restore 1
	lw	s0,328(sp)
	.cfi_restore 8
	.cfi_def_cfa 2, 336
	addi	sp,sp,336
	.cfi_def_cfa_offset 0
	jr	ra
	.cfi_endproc
.LFE11:
	.size	bflb_dsa_decrypt_crt, .-bflb_dsa_decrypt_crt
	.section	.text.bflb_dsa_init,"ax",@progbits
	.align	1
	.globl	bflb_dsa_init
	.type	bflb_dsa_init, @function
bflb_dsa_init:
.LFB12:
	.loc 1 299 1
	.cfi_startproc
	addi	sp,sp,-32
	.cfi_def_cfa_offset 32
	sw	ra,28(sp)
	sw	s0,24(sp)
	.cfi_offset 1, -4
	.cfi_offset 8, -8
	addi	s0,sp,32
	.cfi_def_cfa 8, 0
	sw	a0,-20(s0)
	.loc 1 300 12
	li	a5,0
	.loc 1 301 1
	mv	a0,a5
	lw	ra,28(sp)
	.cfi_restore 1
	lw	s0,24(sp)
	.cfi_restore 8
	.cfi_def_cfa 2, 32
	addi	sp,sp,32
	.cfi_def_cfa_offset 0
	jr	ra
	.cfi_endproc
.LFE12:
	.size	bflb_dsa_init, .-bflb_dsa_init
	.text
.Letext0:
	.file 2 "/home/chandu/sdk/bl602_iot_sdk/toolchain/compiler/lib/gcc/riscv32-unknown-elf/15.1.0/include/stdint-gcc.h"
	.file 3 "/home/chandu/sdk/bl602_iot_sdk/components/bl602/bl602_std/bl602_std/Common/cipher_suite/inc/bflb_dsa.h"
	.file 4 "/home/chandu/sdk/bl602_iot_sdk/components/bl602/bl602_std/bl602_std/StdDriver/Inc/bl602_sec_eng.h"
	.section	.note.GNU-stack,"",@progbits
