	.file	"bflb_crypt.c"
	.option nopic
	.attribute arch, "rv32i2p1_m2p0_f2p2_c2p0_zicsr2p0_zmmul1p0_zca1p0_zcf1p0"
	.attribute unaligned_access, 0
	.attribute stack_align, 16
	.text
.Ltext0:
	.cfi_sections	.debug_frame
	.file 0 "/home/chandu/sdk/bl602_iot_sdk/customer_app/suas_app_pqkem_gateway/build_out/bl602_std" "/home/chandu/sdk/bl602_iot_sdk/components/bl602/bl602_std/bl602_std/Common/cipher_suite/src/bflb_crypt.c"
	.section	.sbss.aesCtx,"aw",@nobits
	.align	2
	.type	aesCtx, @object
	.size	aesCtx, 2
aesCtx:
	.zero	2
	.section	.text.bflb_crypt_init_do,"ax",@progbits
	.align	1
	.globl	bflb_crypt_init_do
	.type	bflb_crypt_init_do, @function
bflb_crypt_init_do:
.LFB8:
	.file 1 "/home/chandu/sdk/bl602_iot_sdk/components/bl602/bl602_std/bl602_std/Common/cipher_suite/src/bflb_crypt.c"
	.loc 1 301 1
	.cfi_startproc
	addi	sp,sp,-48
	.cfi_def_cfa_offset 48
	sw	ra,44(sp)
	sw	s0,40(sp)
	.cfi_offset 1, -4
	.cfi_offset 8, -8
	addi	s0,sp,48
	.cfi_def_cfa 8, 0
	sw	a0,-36(s0)
	mv	a5,a1
	sb	a5,-37(s0)
	.loc 1 302 13
	sw	zero,-20(s0)
	.loc 1 304 12
	lw	a5,-20(s0)
	.loc 1 305 1
	mv	a0,a5
	lw	ra,44(sp)
	.cfi_restore 1
	lw	s0,40(sp)
	.cfi_restore 8
	.cfi_def_cfa 2, 48
	addi	sp,sp,48
	.cfi_def_cfa_offset 0
	jr	ra
	.cfi_endproc
.LFE8:
	.size	bflb_crypt_init_do, .-bflb_crypt_init_do
	.section	.rodata
	.align	2
.LC0:
	.string	"unsupported type\r\n"
	.section	.text.bflb_crypt_setkey_do,"ax",@progbits
	.align	1
	.globl	bflb_crypt_setkey_do
	.type	bflb_crypt_setkey_do, @function
bflb_crypt_setkey_do:
.LFB9:
	.loc 1 309 1
	.cfi_startproc
	addi	sp,sp,-48
	.cfi_def_cfa_offset 48
	sw	ra,44(sp)
	sw	s0,40(sp)
	.cfi_offset 1, -4
	.cfi_offset 8, -8
	addi	s0,sp,48
	.cfi_def_cfa 8, 0
	sw	a0,-36(s0)
	sw	a1,-40(s0)
	mv	a1,a2
	mv	a2,a3
	sw	a4,-48(s0)
	mv	a3,a5
	mv	a4,a6
	mv	a5,a1
	sb	a5,-41(s0)
	mv	a5,a2
	sb	a5,-42(s0)
	mv	a5,a3
	sb	a5,-43(s0)
	mv	a5,a4
	sb	a5,-44(s0)
	.loc 1 310 13
	sw	zero,-20(s0)
	.loc 1 312 35
	lw	a5,-36(s0)
	lbu	a5,0(a5)
	.loc 1 312 5
	li	a4,5
	beq	a5,a4,.L14
	li	a4,5
	bgt	a5,a4,.L5
	li	a4,4
	beq	a5,a4,.L15
	li	a4,4
	bgt	a5,a4,.L5
	li	a4,3
	beq	a5,a4,.L16
	li	a4,3
	bgt	a5,a4,.L5
	li	a4,2
	beq	a5,a4,.L14
	li	a4,2
	bgt	a5,a4,.L5
	beq	a5,zero,.L8
	li	a4,1
	beq	a5,a4,.L9
	j	.L5
.L8:
	.loc 1 315 13
	li	a0,0
	call	Sec_Eng_AES_Enable_BE
	.loc 1 316 13
	lbu	a5,-44(s0)
	addi	a5,a5,-1
	snez	a5,a5
	andi	a5,a5,0xff
	mv	a4,a5
	lbu	a5,-41(s0)
	mv	a3,a5
	li	a2,2
	li	a1,0
	lui	a5,%hi(aesCtx)
	addi	a0,a5,%lo(aesCtx)
	call	Sec_Eng_AES_Init
	.loc 1 318 13
	j	.L10
.L9:
	.loc 1 320 13
	li	a0,0
	call	Sec_Eng_AES_Enable_BE
	.loc 1 321 13
	lbu	a5,-44(s0)
	addi	a5,a5,-1
	snez	a5,a5
	andi	a5,a5,0xff
	mv	a4,a5
	lbu	a5,-41(s0)
	mv	a3,a5
	li	a2,1
	li	a1,0
	lui	a5,%hi(aesCtx)
	addi	a0,a5,%lo(aesCtx)
	call	Sec_Eng_AES_Init
	.loc 1 323 13
	j	.L10
.L5:
	.loc 1 332 13
	lui	a5,%hi(.LC0)
	addi	a0,a5,%lo(.LC0)
	call	bflb_platform_printf
	.loc 1 333 20
	li	a5,-1
	j	.L11
.L14:
	.loc 1 330 13
	nop
	j	.L10
.L15:
	.loc 1 327 13
	nop
	j	.L10
.L16:
	.loc 1 325 13
	nop
.L10:
	.loc 1 337 7
	lbu	a5,-42(s0)
	bne	a5,zero,.L12
	.loc 1 338 9
	lw	a3,-48(s0)
	lw	a2,-40(s0)
	li	a1,1
	li	a0,0
	call	Sec_Eng_AES_Set_Key_IV_BE
	j	.L13
.L12:
	.loc 1 340 9
	lw	a3,-48(s0)
	lw	a2,-40(s0)
	li	a1,0
	li	a0,0
	call	Sec_Eng_AES_Set_Key_IV_BE
.L13:
	.loc 1 343 12
	lw	a5,-20(s0)
.L11:
	.loc 1 344 1
	mv	a0,a5
	lw	ra,44(sp)
	.cfi_restore 1
	lw	s0,40(sp)
	.cfi_restore 8
	.cfi_def_cfa 2, 48
	addi	sp,sp,48
	.cfi_def_cfa_offset 0
	jr	ra
	.cfi_endproc
.LFE9:
	.size	bflb_crypt_setkey_do, .-bflb_crypt_setkey_do
	.section	.text.bflb_crypt_setadd_do,"ax",@progbits
	.align	1
	.globl	bflb_crypt_setadd_do
	.type	bflb_crypt_setadd_do, @function
bflb_crypt_setadd_do:
.LFB10:
	.loc 1 348 1
	.cfi_startproc
	addi	sp,sp,-48
	.cfi_def_cfa_offset 48
	sw	ra,44(sp)
	sw	s0,40(sp)
	.cfi_offset 1, -4
	.cfi_offset 8, -8
	addi	s0,sp,48
	.cfi_def_cfa 8, 0
	sw	a0,-36(s0)
	sw	a1,-40(s0)
	mv	a5,a2
	mv	a4,a3
	sb	a5,-41(s0)
	mv	a5,a4
	sb	a5,-42(s0)
	.loc 1 349 13
	sw	zero,-20(s0)
	.loc 1 350 12
	lw	a5,-20(s0)
	.loc 1 351 1
	mv	a0,a5
	lw	ra,44(sp)
	.cfi_restore 1
	lw	s0,40(sp)
	.cfi_restore 8
	.cfi_def_cfa 2, 48
	addi	sp,sp,48
	.cfi_def_cfa_offset 0
	jr	ra
	.cfi_endproc
.LFE10:
	.size	bflb_crypt_setadd_do, .-bflb_crypt_setadd_do
	.section	.text.bflb_crypt_encrypt_do,"ax",@progbits
	.align	1
	.globl	bflb_crypt_encrypt_do
	.type	bflb_crypt_encrypt_do, @function
bflb_crypt_encrypt_do:
.LFB11:
	.loc 1 355 1
	.cfi_startproc
	addi	sp,sp,-64
	.cfi_def_cfa_offset 64
	sw	ra,60(sp)
	sw	s0,56(sp)
	.cfi_offset 1, -4
	.cfi_offset 8, -8
	addi	s0,sp,64
	.cfi_def_cfa 8, 0
	sw	a0,-36(s0)
	sw	a1,-40(s0)
	sw	a2,-44(s0)
	sw	a3,-48(s0)
	sw	a4,-52(s0)
	.loc 1 356 9
	sw	zero,-20(s0)
	.loc 1 358 5
	lw	a4,-52(s0)
	lw	a3,-44(s0)
	lw	a2,-40(s0)
	li	a1,0
	lui	a5,%hi(aesCtx)
	addi	a0,a5,%lo(aesCtx)
	call	Sec_Eng_AES_Crypt
	.loc 1 360 12
	lw	a5,-20(s0)
	.loc 1 361 1
	mv	a0,a5
	lw	ra,60(sp)
	.cfi_restore 1
	lw	s0,56(sp)
	.cfi_restore 8
	.cfi_def_cfa 2, 64
	addi	sp,sp,64
	.cfi_def_cfa_offset 0
	jr	ra
	.cfi_endproc
.LFE11:
	.size	bflb_crypt_encrypt_do, .-bflb_crypt_encrypt_do
	.section	.text.bflb_crypt_encrypt_tag_do,"ax",@progbits
	.align	1
	.globl	bflb_crypt_encrypt_tag_do
	.type	bflb_crypt_encrypt_tag_do, @function
bflb_crypt_encrypt_tag_do:
.LFB12:
	.loc 1 367 1
	.cfi_startproc
	addi	sp,sp,-64
	.cfi_def_cfa_offset 64
	sw	ra,60(sp)
	sw	s0,56(sp)
	.cfi_offset 1, -4
	.cfi_offset 8, -8
	addi	s0,sp,64
	.cfi_def_cfa 8, 0
	sw	a0,-36(s0)
	sw	a1,-40(s0)
	sw	a2,-44(s0)
	sw	a3,-48(s0)
	sw	a4,-52(s0)
	sw	a5,-56(s0)
	sw	a6,-60(s0)
	sw	a7,-64(s0)
	.loc 1 368 9
	sw	zero,-20(s0)
	.loc 1 369 12
	lw	a5,-20(s0)
	.loc 1 370 1
	mv	a0,a5
	lw	ra,60(sp)
	.cfi_restore 1
	lw	s0,56(sp)
	.cfi_restore 8
	.cfi_def_cfa 2, 64
	addi	sp,sp,64
	.cfi_def_cfa_offset 0
	jr	ra
	.cfi_endproc
.LFE12:
	.size	bflb_crypt_encrypt_tag_do, .-bflb_crypt_encrypt_tag_do
	.section	.text.bflb_crypt_update_do,"ax",@progbits
	.align	1
	.globl	bflb_crypt_update_do
	.type	bflb_crypt_update_do, @function
bflb_crypt_update_do:
.LFB13:
	.loc 1 374 1
	.cfi_startproc
	addi	sp,sp,-48
	.cfi_def_cfa_offset 48
	sw	ra,44(sp)
	sw	s0,40(sp)
	.cfi_offset 1, -4
	.cfi_offset 8, -8
	addi	s0,sp,48
	.cfi_def_cfa 8, 0
	sw	a0,-36(s0)
	sw	a1,-40(s0)
	sw	a2,-44(s0)
	sw	a3,-48(s0)
	.loc 1 375 9
	sw	zero,-20(s0)
	.loc 1 377 5
	lw	a4,-48(s0)
	lw	a3,-44(s0)
	lw	a2,-40(s0)
	li	a1,0
	lui	a5,%hi(aesCtx)
	addi	a0,a5,%lo(aesCtx)
	call	Sec_Eng_AES_Crypt
	.loc 1 379 12
	lw	a5,-20(s0)
	.loc 1 380 1
	mv	a0,a5
	lw	ra,44(sp)
	.cfi_restore 1
	lw	s0,40(sp)
	.cfi_restore 8
	.cfi_def_cfa 2, 48
	addi	sp,sp,48
	.cfi_def_cfa_offset 0
	jr	ra
	.cfi_endproc
.LFE13:
	.size	bflb_crypt_update_do, .-bflb_crypt_update_do
	.section	.text.bflb_crypt_decrypt_do,"ax",@progbits
	.align	1
	.globl	bflb_crypt_decrypt_do
	.type	bflb_crypt_decrypt_do, @function
bflb_crypt_decrypt_do:
.LFB14:
	.loc 1 385 1
	.cfi_startproc
	addi	sp,sp,-64
	.cfi_def_cfa_offset 64
	sw	ra,60(sp)
	sw	s0,56(sp)
	.cfi_offset 1, -4
	.cfi_offset 8, -8
	addi	s0,sp,64
	.cfi_def_cfa 8, 0
	sw	a0,-36(s0)
	sw	a1,-40(s0)
	sw	a2,-44(s0)
	sw	a3,-48(s0)
	sw	a4,-52(s0)
	.loc 1 386 9
	sw	zero,-20(s0)
	.loc 1 388 5
	lw	a4,-52(s0)
	lw	a3,-44(s0)
	lw	a2,-40(s0)
	li	a1,0
	lui	a5,%hi(aesCtx)
	addi	a0,a5,%lo(aesCtx)
	call	Sec_Eng_AES_Crypt
	.loc 1 390 12
	lw	a5,-20(s0)
	.loc 1 391 1
	mv	a0,a5
	lw	ra,60(sp)
	.cfi_restore 1
	lw	s0,56(sp)
	.cfi_restore 8
	.cfi_def_cfa 2, 64
	addi	sp,sp,64
	.cfi_def_cfa_offset 0
	jr	ra
	.cfi_endproc
.LFE14:
	.size	bflb_crypt_decrypt_do, .-bflb_crypt_decrypt_do
	.section	.text.bflb_crypt_auth_decrypt_do,"ax",@progbits
	.align	1
	.globl	bflb_crypt_auth_decrypt_do
	.type	bflb_crypt_auth_decrypt_do, @function
bflb_crypt_auth_decrypt_do:
.LFB15:
	.loc 1 397 1
	.cfi_startproc
	addi	sp,sp,-64
	.cfi_def_cfa_offset 64
	sw	ra,60(sp)
	sw	s0,56(sp)
	.cfi_offset 1, -4
	.cfi_offset 8, -8
	addi	s0,sp,64
	.cfi_def_cfa 8, 0
	sw	a0,-36(s0)
	sw	a1,-40(s0)
	sw	a2,-44(s0)
	sw	a3,-48(s0)
	sw	a4,-52(s0)
	sw	a5,-56(s0)
	sw	a6,-60(s0)
	sw	a7,-64(s0)
	.loc 1 398 9
	sw	zero,-20(s0)
	.loc 1 399 12
	lw	a5,-20(s0)
	.loc 1 400 1
	mv	a0,a5
	lw	ra,60(sp)
	.cfi_restore 1
	lw	s0,56(sp)
	.cfi_restore 8
	.cfi_def_cfa 2, 64
	addi	sp,sp,64
	.cfi_def_cfa_offset 0
	jr	ra
	.cfi_endproc
.LFE15:
	.size	bflb_crypt_auth_decrypt_do, .-bflb_crypt_auth_decrypt_do
	.section	.text.bflb_crypt_finish_do,"ax",@progbits
	.align	1
	.globl	bflb_crypt_finish_do
	.type	bflb_crypt_finish_do, @function
bflb_crypt_finish_do:
.LFB16:
	.loc 1 403 1
	.cfi_startproc
	addi	sp,sp,-48
	.cfi_def_cfa_offset 48
	sw	ra,44(sp)
	sw	s0,40(sp)
	.cfi_offset 1, -4
	.cfi_offset 8, -8
	addi	s0,sp,48
	.cfi_def_cfa 8, 0
	sw	a0,-36(s0)
	sw	a1,-40(s0)
	sw	a2,-44(s0)
	.loc 1 404 9
	sw	zero,-20(s0)
	.loc 1 406 5
	li	a0,0
	call	Sec_Eng_AES_Finish
	.loc 1 408 12
	lw	a5,-20(s0)
	.loc 1 409 1
	mv	a0,a5
	lw	ra,44(sp)
	.cfi_restore 1
	lw	s0,40(sp)
	.cfi_restore 8
	.cfi_def_cfa 2, 48
	addi	sp,sp,48
	.cfi_def_cfa_offset 0
	jr	ra
	.cfi_endproc
.LFE16:
	.size	bflb_crypt_finish_do, .-bflb_crypt_finish_do
	.section	.text.bflb_crypt_deinit_do,"ax",@progbits
	.align	1
	.globl	bflb_crypt_deinit_do
	.type	bflb_crypt_deinit_do, @function
bflb_crypt_deinit_do:
.LFB17:
	.loc 1 413 1
	.cfi_startproc
	addi	sp,sp,-32
	.cfi_def_cfa_offset 32
	sw	ra,28(sp)
	sw	s0,24(sp)
	.cfi_offset 1, -4
	.cfi_offset 8, -8
	addi	s0,sp,32
	.cfi_def_cfa 8, 0
	sw	a0,-20(s0)
	.loc 1 414 35
	lw	a5,-20(s0)
	lbu	a5,0(a5)
	mv	a4,a5
	.loc 1 414 5
	li	a5,1
	bleu	a4,a5,.L36
	.loc 1 420 13
	lui	a5,%hi(.LC0)
	addi	a0,a5,%lo(.LC0)
	call	bflb_platform_printf
	.loc 1 421 20
	li	a5,-1
	j	.L34
.L36:
	.loc 1 418 13
	nop
	.loc 1 424 12
	li	a5,0
.L34:
	.loc 1 425 1
	mv	a0,a5
	lw	ra,28(sp)
	.cfi_restore 1
	lw	s0,24(sp)
	.cfi_restore 8
	.cfi_def_cfa 2, 32
	addi	sp,sp,32
	.cfi_def_cfa_offset 0
	jr	ra
	.cfi_endproc
.LFE17:
	.size	bflb_crypt_deinit_do, .-bflb_crypt_deinit_do
	.section	.text.bflb_crypt_init,"ax",@progbits
	.align	1
	.globl	bflb_crypt_init
	.type	bflb_crypt_init, @function
bflb_crypt_init:
.LFB18:
	.loc 1 429 1
	.cfi_startproc
	addi	sp,sp,-48
	.cfi_def_cfa_offset 48
	sw	ra,44(sp)
	sw	s0,40(sp)
	.cfi_offset 1, -4
	.cfi_offset 8, -8
	addi	s0,sp,48
	.cfi_def_cfa 8, 0
	sw	a0,-36(s0)
	mv	a5,a1
	sb	a5,-37(s0)
	.loc 1 430 22
	lbu	a5,-37(s0)
	mv	a1,a5
	lw	a0,-36(s0)
	call	bflb_crypt_init_do
	sw	a0,-20(s0)
	.loc 1 432 7
	lw	a5,-20(s0)
	bne	a5,zero,.L38
	.loc 1 433 37
	lw	a5,-36(s0)
	lbu	a4,-37(s0)
	sb	a4,0(a5)
.L38:
	.loc 1 436 12
	lw	a5,-20(s0)
	.loc 1 437 1
	mv	a0,a5
	lw	ra,44(sp)
	.cfi_restore 1
	lw	s0,40(sp)
	.cfi_restore 8
	.cfi_def_cfa 2, 48
	addi	sp,sp,48
	.cfi_def_cfa_offset 0
	jr	ra
	.cfi_endproc
.LFE18:
	.size	bflb_crypt_init, .-bflb_crypt_init
	.section	.rodata
	.align	2
.LC1:
	.string	"crypt set key fail\r\n"
	.section	.text.bflb_crypt_setkey,"ax",@progbits
	.align	1
	.globl	bflb_crypt_setkey
	.type	bflb_crypt_setkey, @function
bflb_crypt_setkey:
.LFB19:
	.loc 1 441 1
	.cfi_startproc
	addi	sp,sp,-48
	.cfi_def_cfa_offset 48
	sw	ra,44(sp)
	sw	s0,40(sp)
	.cfi_offset 1, -4
	.cfi_offset 8, -8
	addi	s0,sp,48
	.cfi_def_cfa 8, 0
	sw	a0,-36(s0)
	sw	a1,-40(s0)
	mv	a1,a2
	mv	a2,a3
	sw	a4,-48(s0)
	mv	a3,a5
	mv	a4,a6
	mv	a5,a1
	sb	a5,-41(s0)
	mv	a5,a2
	sb	a5,-42(s0)
	mv	a5,a3
	sb	a5,-43(s0)
	mv	a5,a4
	sb	a5,-44(s0)
	.loc 1 442 13
	sw	zero,-20(s0)
	.loc 1 444 12
	lbu	a4,-44(s0)
	lbu	a5,-43(s0)
	lbu	a3,-42(s0)
	lbu	a2,-41(s0)
	mv	a6,a4
	lw	a4,-48(s0)
	lw	a1,-40(s0)
	lw	a0,-36(s0)
	call	bflb_crypt_setkey_do
	sw	a0,-20(s0)
	.loc 1 446 7
	lw	a5,-20(s0)
	beq	a5,zero,.L41
	.loc 1 447 9
	lui	a5,%hi(.LC1)
	addi	a0,a5,%lo(.LC1)
	call	bflb_platform_printf
	.loc 1 448 15
	li	a5,-1
	sw	a5,-20(s0)
.L41:
	.loc 1 451 12
	lw	a5,-20(s0)
	.loc 1 452 1
	mv	a0,a5
	lw	ra,44(sp)
	.cfi_restore 1
	lw	s0,40(sp)
	.cfi_restore 8
	.cfi_def_cfa 2, 48
	addi	sp,sp,48
	.cfi_def_cfa_offset 0
	jr	ra
	.cfi_endproc
.LFE19:
	.size	bflb_crypt_setkey, .-bflb_crypt_setkey
	.section	.rodata
	.align	2
.LC2:
	.string	"crypt set add fail\r\n"
	.section	.text.bflb_crypt_setadd,"ax",@progbits
	.align	1
	.globl	bflb_crypt_setadd
	.type	bflb_crypt_setadd, @function
bflb_crypt_setadd:
.LFB20:
	.loc 1 456 1
	.cfi_startproc
	addi	sp,sp,-48
	.cfi_def_cfa_offset 48
	sw	ra,44(sp)
	sw	s0,40(sp)
	.cfi_offset 1, -4
	.cfi_offset 8, -8
	addi	s0,sp,48
	.cfi_def_cfa 8, 0
	sw	a0,-36(s0)
	sw	a1,-40(s0)
	mv	a5,a2
	mv	a4,a3
	sb	a5,-41(s0)
	mv	a5,a4
	sb	a5,-42(s0)
	.loc 1 459 14
	lbu	a4,-42(s0)
	lbu	a5,-41(s0)
	mv	a3,a4
	mv	a2,a5
	lw	a1,-40(s0)
	lw	a0,-36(s0)
	call	bflb_crypt_setadd_do
	sw	a0,-20(s0)
	.loc 1 461 7
	lw	a5,-20(s0)
	beq	a5,zero,.L44
	.loc 1 462 9
	lui	a5,%hi(.LC2)
	addi	a0,a5,%lo(.LC2)
	call	bflb_platform_printf
	.loc 1 463 15
	li	a5,-1
	sw	a5,-20(s0)
.L44:
	.loc 1 466 12
	lw	a5,-20(s0)
	.loc 1 467 1
	mv	a0,a5
	lw	ra,44(sp)
	.cfi_restore 1
	lw	s0,40(sp)
	.cfi_restore 8
	.cfi_def_cfa 2, 48
	addi	sp,sp,48
	.cfi_def_cfa_offset 0
	jr	ra
	.cfi_endproc
.LFE20:
	.size	bflb_crypt_setadd, .-bflb_crypt_setadd
	.section	.rodata
	.align	2
.LC3:
	.string	"crypt encrypt fail\r\n"
	.section	.text.bflb_crypt_encrypt,"ax",@progbits
	.align	1
	.globl	bflb_crypt_encrypt
	.type	bflb_crypt_encrypt, @function
bflb_crypt_encrypt:
.LFB21:
	.loc 1 471 1
	.cfi_startproc
	addi	sp,sp,-64
	.cfi_def_cfa_offset 64
	sw	ra,60(sp)
	sw	s0,56(sp)
	.cfi_offset 1, -4
	.cfi_offset 8, -8
	addi	s0,sp,64
	.cfi_def_cfa 8, 0
	sw	a0,-36(s0)
	sw	a1,-40(s0)
	sw	a2,-44(s0)
	sw	a3,-48(s0)
	sw	a4,-52(s0)
	.loc 1 474 12
	lw	a4,-52(s0)
	lw	a3,-48(s0)
	lw	a2,-44(s0)
	lw	a1,-40(s0)
	lw	a0,-36(s0)
	call	bflb_crypt_encrypt_do
	sw	a0,-20(s0)
	.loc 1 476 7
	lw	a5,-20(s0)
	beq	a5,zero,.L47
	.loc 1 478 9
	lui	a5,%hi(.LC3)
	addi	a0,a5,%lo(.LC3)
	call	bflb_platform_printf
	.loc 1 479 16
	li	a5,-1
	j	.L48
.L47:
	.loc 1 482 12
	li	a5,0
.L48:
	.loc 1 483 1
	mv	a0,a5
	lw	ra,60(sp)
	.cfi_restore 1
	lw	s0,56(sp)
	.cfi_restore 8
	.cfi_def_cfa 2, 64
	addi	sp,sp,64
	.cfi_def_cfa_offset 0
	jr	ra
	.cfi_endproc
.LFE21:
	.size	bflb_crypt_encrypt, .-bflb_crypt_encrypt
	.section	.rodata
	.align	2
.LC4:
	.string	"crypt encrypt and tag fail\r\n"
	.section	.text.bflb_crypt_encrypt_tag,"ax",@progbits
	.align	1
	.globl	bflb_crypt_encrypt_tag
	.type	bflb_crypt_encrypt_tag, @function
bflb_crypt_encrypt_tag:
.LFB22:
	.loc 1 488 1
	.cfi_startproc
	addi	sp,sp,-80
	.cfi_def_cfa_offset 80
	sw	ra,76(sp)
	sw	s0,72(sp)
	.cfi_offset 1, -4
	.cfi_offset 8, -8
	addi	s0,sp,80
	.cfi_def_cfa 8, 0
	sw	a0,-36(s0)
	sw	a1,-40(s0)
	sw	a2,-44(s0)
	sw	a3,-48(s0)
	sw	a4,-52(s0)
	sw	a5,-56(s0)
	sw	a6,-60(s0)
	sw	a7,-64(s0)
	.loc 1 491 13
	lbu	a5,0(s0)
	sw	a5,0(sp)
	lw	a7,-64(s0)
	lw	a6,-60(s0)
	lw	a5,-56(s0)
	lw	a4,-52(s0)
	lw	a3,-48(s0)
	lw	a2,-44(s0)
	lw	a1,-40(s0)
	lw	a0,-36(s0)
	call	bflb_crypt_encrypt_tag_do
	sw	a0,-20(s0)
	.loc 1 493 7
	lw	a5,-20(s0)
	beq	a5,zero,.L50
	.loc 1 495 9
	lui	a5,%hi(.LC4)
	addi	a0,a5,%lo(.LC4)
	call	bflb_platform_printf
	.loc 1 496 16
	li	a5,-1
	j	.L51
.L50:
	.loc 1 499 12
	li	a5,0
.L51:
	.loc 1 500 1
	mv	a0,a5
	lw	ra,76(sp)
	.cfi_restore 1
	lw	s0,72(sp)
	.cfi_restore 8
	.cfi_def_cfa 2, 80
	addi	sp,sp,80
	.cfi_def_cfa_offset 0
	jr	ra
	.cfi_endproc
.LFE22:
	.size	bflb_crypt_encrypt_tag, .-bflb_crypt_encrypt_tag
	.section	.rodata
	.align	2
.LC5:
	.string	"crypt update fail\r\n"
	.section	.text.bflb_crypt_update,"ax",@progbits
	.align	1
	.globl	bflb_crypt_update
	.type	bflb_crypt_update, @function
bflb_crypt_update:
.LFB23:
	.loc 1 504 1
	.cfi_startproc
	addi	sp,sp,-48
	.cfi_def_cfa_offset 48
	sw	ra,44(sp)
	sw	s0,40(sp)
	.cfi_offset 1, -4
	.cfi_offset 8, -8
	addi	s0,sp,48
	.cfi_def_cfa 8, 0
	sw	a0,-36(s0)
	sw	a1,-40(s0)
	sw	a2,-44(s0)
	sw	a3,-48(s0)
	.loc 1 507 12
	lw	a3,-48(s0)
	lw	a2,-44(s0)
	lw	a1,-40(s0)
	lw	a0,-36(s0)
	call	bflb_crypt_update_do
	sw	a0,-20(s0)
	.loc 1 509 7
	lw	a5,-20(s0)
	beq	a5,zero,.L53
	.loc 1 511 9
	lui	a5,%hi(.LC5)
	addi	a0,a5,%lo(.LC5)
	call	bflb_platform_printf
	.loc 1 512 16
	li	a5,-1
	j	.L54
.L53:
	.loc 1 515 12
	li	a5,0
.L54:
	.loc 1 516 1
	mv	a0,a5
	lw	ra,44(sp)
	.cfi_restore 1
	lw	s0,40(sp)
	.cfi_restore 8
	.cfi_def_cfa 2, 48
	addi	sp,sp,48
	.cfi_def_cfa_offset 0
	jr	ra
	.cfi_endproc
.LFE23:
	.size	bflb_crypt_update, .-bflb_crypt_update
	.section	.rodata
	.align	2
.LC6:
	.string	"crypt decrypt fail\r\n"
	.section	.text.bflb_crypt_decrypt,"ax",@progbits
	.align	1
	.globl	bflb_crypt_decrypt
	.type	bflb_crypt_decrypt, @function
bflb_crypt_decrypt:
.LFB24:
	.loc 1 521 1
	.cfi_startproc
	addi	sp,sp,-64
	.cfi_def_cfa_offset 64
	sw	ra,60(sp)
	sw	s0,56(sp)
	.cfi_offset 1, -4
	.cfi_offset 8, -8
	addi	s0,sp,64
	.cfi_def_cfa 8, 0
	sw	a0,-36(s0)
	sw	a1,-40(s0)
	sw	a2,-44(s0)
	sw	a3,-48(s0)
	sw	a4,-52(s0)
	.loc 1 524 12
	lw	a4,-52(s0)
	lw	a3,-48(s0)
	lw	a2,-44(s0)
	lw	a1,-40(s0)
	lw	a0,-36(s0)
	call	bflb_crypt_decrypt_do
	sw	a0,-20(s0)
	.loc 1 526 7
	lw	a5,-20(s0)
	beq	a5,zero,.L56
	.loc 1 528 9
	lui	a5,%hi(.LC6)
	addi	a0,a5,%lo(.LC6)
	call	bflb_platform_printf
	.loc 1 529 16
	li	a5,-1
	j	.L57
.L56:
	.loc 1 532 12
	li	a5,0
.L57:
	.loc 1 533 1
	mv	a0,a5
	lw	ra,60(sp)
	.cfi_restore 1
	lw	s0,56(sp)
	.cfi_restore 8
	.cfi_def_cfa 2, 64
	addi	sp,sp,64
	.cfi_def_cfa_offset 0
	jr	ra
	.cfi_endproc
.LFE24:
	.size	bflb_crypt_decrypt, .-bflb_crypt_decrypt
	.section	.rodata
	.align	2
.LC7:
	.string	"crypt auth and decrypt fail\r\n"
	.section	.text.bflb_crypt_auth_decrypt,"ax",@progbits
	.align	1
	.globl	bflb_crypt_auth_decrypt
	.type	bflb_crypt_auth_decrypt, @function
bflb_crypt_auth_decrypt:
.LFB25:
	.loc 1 538 1
	.cfi_startproc
	addi	sp,sp,-80
	.cfi_def_cfa_offset 80
	sw	ra,76(sp)
	sw	s0,72(sp)
	.cfi_offset 1, -4
	.cfi_offset 8, -8
	addi	s0,sp,80
	.cfi_def_cfa 8, 0
	sw	a0,-36(s0)
	sw	a1,-40(s0)
	sw	a2,-44(s0)
	sw	a3,-48(s0)
	sw	a4,-52(s0)
	sw	a5,-56(s0)
	sw	a6,-60(s0)
	sw	a7,-64(s0)
	.loc 1 541 13
	lbu	a5,0(s0)
	sw	a5,0(sp)
	lw	a7,-64(s0)
	lw	a6,-60(s0)
	lw	a5,-56(s0)
	lw	a4,-52(s0)
	lw	a3,-48(s0)
	lw	a2,-44(s0)
	lw	a1,-40(s0)
	lw	a0,-36(s0)
	call	bflb_crypt_auth_decrypt_do
	sw	a0,-20(s0)
	.loc 1 543 7
	lw	a5,-20(s0)
	beq	a5,zero,.L59
	.loc 1 545 9
	lui	a5,%hi(.LC7)
	addi	a0,a5,%lo(.LC7)
	call	bflb_platform_printf
	.loc 1 546 16
	li	a5,-1
	j	.L60
.L59:
	.loc 1 549 12
	li	a5,0
.L60:
	.loc 1 550 1
	mv	a0,a5
	lw	ra,76(sp)
	.cfi_restore 1
	lw	s0,72(sp)
	.cfi_restore 8
	.cfi_def_cfa 2, 80
	addi	sp,sp,80
	.cfi_def_cfa_offset 0
	jr	ra
	.cfi_endproc
.LFE25:
	.size	bflb_crypt_auth_decrypt, .-bflb_crypt_auth_decrypt
	.section	.rodata
	.align	2
.LC8:
	.string	"crypt finish fail\r\n"
	.section	.text.bflb_crypt_finish,"ax",@progbits
	.align	1
	.globl	bflb_crypt_finish
	.type	bflb_crypt_finish, @function
bflb_crypt_finish:
.LFB26:
	.loc 1 553 1
	.cfi_startproc
	addi	sp,sp,-48
	.cfi_def_cfa_offset 48
	sw	ra,44(sp)
	sw	s0,40(sp)
	.cfi_offset 1, -4
	.cfi_offset 8, -8
	addi	s0,sp,48
	.cfi_def_cfa 8, 0
	sw	a0,-36(s0)
	sw	a1,-40(s0)
	sw	a2,-44(s0)
	.loc 1 556 12
	lw	a2,-44(s0)
	lw	a1,-40(s0)
	lw	a0,-36(s0)
	call	bflb_crypt_finish_do
	sw	a0,-20(s0)
	.loc 1 558 7
	lw	a5,-20(s0)
	beq	a5,zero,.L62
	.loc 1 560 9
	lui	a5,%hi(.LC8)
	addi	a0,a5,%lo(.LC8)
	call	bflb_platform_printf
	.loc 1 561 16
	li	a5,-1
	j	.L63
.L62:
	.loc 1 564 12
	li	a5,0
.L63:
	.loc 1 565 1
	mv	a0,a5
	lw	ra,44(sp)
	.cfi_restore 1
	lw	s0,40(sp)
	.cfi_restore 8
	.cfi_def_cfa 2, 48
	addi	sp,sp,48
	.cfi_def_cfa_offset 0
	jr	ra
	.cfi_endproc
.LFE26:
	.size	bflb_crypt_finish, .-bflb_crypt_finish
	.section	.text.bflb_crypt_deinit,"ax",@progbits
	.align	1
	.globl	bflb_crypt_deinit
	.type	bflb_crypt_deinit, @function
bflb_crypt_deinit:
.LFB27:
	.loc 1 569 1
	.cfi_startproc
	addi	sp,sp,-32
	.cfi_def_cfa_offset 32
	sw	ra,28(sp)
	sw	s0,24(sp)
	.cfi_offset 1, -4
	.cfi_offset 8, -8
	addi	s0,sp,32
	.cfi_def_cfa 8, 0
	sw	a0,-20(s0)
	.loc 1 571 5
	lw	a0,-20(s0)
	call	bflb_crypt_deinit_do
	.loc 1 572 5
	li	a2,1
	li	a1,0
	lw	a0,-20(s0)
	call	memset
	.loc 1 574 12
	li	a5,0
	.loc 1 575 1
	mv	a0,a5
	lw	ra,28(sp)
	.cfi_restore 1
	lw	s0,24(sp)
	.cfi_restore 8
	.cfi_def_cfa 2, 32
	addi	sp,sp,32
	.cfi_def_cfa_offset 0
	jr	ra
	.cfi_endproc
.LFE27:
	.size	bflb_crypt_deinit, .-bflb_crypt_deinit
	.text
.Letext0:
	.file 2 "/home/chandu/sdk/bl602_iot_sdk/toolchain/compiler/lib/gcc/riscv32-unknown-elf/15.1.0/include/stddef.h"
	.file 3 "/home/chandu/sdk/bl602_iot_sdk/toolchain/compiler/lib/gcc/riscv32-unknown-elf/15.1.0/include/stdint-gcc.h"
	.file 4 "/home/chandu/sdk/bl602_iot_sdk/components/bl602/bl602_std/bl602_std/StdDriver/Inc/bl602_common.h"
	.file 5 "/home/chandu/sdk/bl602_iot_sdk/components/bl602/bl602_std/bl602_std/StdDriver/Inc/bl602_sec_eng.h"
	.file 6 "/home/chandu/sdk/bl602_iot_sdk/components/bl602/bl602_std/bl602_std/Common/cipher_suite/inc/bflb_crypt_port.h"
	.file 7 "/home/chandu/sdk/bl602_iot_sdk/components/bl602/bl602_std/bl602_std/Common/cipher_suite/inc/bflb_crypt.h"
	.file 8 "/home/chandu/sdk/bl602_iot_sdk/toolchain/compiler/riscv32-unknown-elf/include/string.h"
	.file 9 "/home/chandu/sdk/bl602_iot_sdk/components/bl602/bl602_std/bl602_std/Common/platform_print/bflb_platform.h"
	.section	.note.GNU-stack,"",@progbits
