	.file	"vfs.c"
	.option nopic
	.attribute arch, "rv32i2p1_m2p0_f2p2_c2p0_zicsr2p0_zmmul1p0_zca1p0_zcf1p0"
	.attribute unaligned_access, 0
	.attribute stack_align, 16
	.text
.Ltext0:
	.cfi_sections	.debug_frame
	.file 0 "/home/chandu/sdk/bl602_iot_sdk/customer_app/suas_app_pqkem_gateway/build_out/vfs" "/home/chandu/sdk/bl602_iot_sdk/components/fs/vfs/src/vfs.c"
	.section	.sbss.g_vfs_init,"aw",@nobits
	.type	g_vfs_init, @object
	.size	g_vfs_init, 1
g_vfs_init:
	.zero	1
	.section	.bss.xMutexBuffer,"aw",@nobits
	.align	2
	.type	xMutexBuffer, @object
	.size	xMutexBuffer, 80
xMutexBuffer:
	.zero	80
	.globl	g_vfs_mutex
	.section	.sbss.g_vfs_mutex,"aw",@nobits
	.align	2
	.type	g_vfs_mutex, @object
	.size	g_vfs_mutex, 4
g_vfs_mutex:
	.zero	4
	.section	.text.vfs_init,"ax",@progbits
	.align	1
	.globl	vfs_init
	.type	vfs_init, @function
vfs_init:
.LFB5:
	.file 1 "/home/chandu/sdk/bl602_iot_sdk/components/fs/vfs/src/vfs.c"
	.loc 1 29 1
	.cfi_startproc
	addi	sp,sp,-32
	.cfi_def_cfa_offset 32
	sw	ra,28(sp)
	sw	s0,24(sp)
	.cfi_offset 1, -4
	.cfi_offset 8, -8
	addi	s0,sp,32
	.cfi_def_cfa 8, 0
	.loc 1 30 9
	sw	zero,-20(s0)
	.loc 1 32 20
	lui	a5,%hi(g_vfs_init)
	lbu	a4,%lo(g_vfs_init)(a5)
	.loc 1 32 8
	li	a5,1
	bne	a4,a5,.L2
	.loc 1 33 16
	lw	a5,-20(s0)
	j	.L3
.L2:
	.loc 1 36 31
	lui	a5,%hi(xMutexBuffer)
	addi	a1,a5,%lo(xMutexBuffer)
	li	a0,1
	call	xQueueCreateMutexStatic
	mv	a4,a0
	.loc 1 36 29 discriminator 1
	lui	a5,%hi(g_vfs_mutex)
	sw	a4,%lo(g_vfs_mutex)(a5)
	lui	a5,%hi(g_vfs_mutex)
	lw	a5,%lo(g_vfs_mutex)(a5)
	.loc 1 36 8 discriminator 1
	bne	a5,zero,.L4
	.loc 1 37 16
	li	a5,-1
	j	.L3
.L4:
	.loc 1 40 5
	call	inode_init
	.loc 1 42 16
	lui	a5,%hi(g_vfs_init)
	li	a4,1
	sb	a4,%lo(g_vfs_init)(a5)
	.loc 1 44 12
	lw	a5,-20(s0)
.L3:
	.loc 1 45 1
	mv	a0,a5
	lw	ra,28(sp)
	.cfi_restore 1
	lw	s0,24(sp)
	.cfi_restore 8
	.cfi_def_cfa 2, 32
	addi	sp,sp,32
	.cfi_def_cfa_offset 0
	jr	ra
	.cfi_endproc
.LFE5:
	.size	vfs_init, .-vfs_init
	.section	.text.aos_open,"ax",@progbits
	.align	1
	.globl	aos_open
	.type	aos_open, @function
aos_open:
.LFB6:
	.loc 1 48 1
	.cfi_startproc
	addi	sp,sp,-48
	.cfi_def_cfa_offset 48
	sw	ra,44(sp)
	sw	s0,40(sp)
	.cfi_offset 1, -4
	.cfi_offset 8, -8
	addi	s0,sp,48
	.cfi_def_cfa 8, 0
	sw	a0,-36(s0)
	sw	a1,-40(s0)
	.loc 1 51 12
	sw	zero,-24(s0)
	.loc 1 52 9
	sw	zero,-20(s0)
	.loc 1 54 8
	lw	a5,-36(s0)
	bne	a5,zero,.L6
	.loc 1 55 16
	li	a5,-22
	j	.L7
.L6:
	.loc 1 58 11
	lw	a0,-36(s0)
	call	strlen
	sw	a0,-24(s0)
	.loc 1 59 8
	lw	a4,-24(s0)
	li	a5,1024
	bleu	a4,a5,.L8
	.loc 1 60 16
	li	a5,-91
	j	.L7
.L8:
	.loc 1 63 33
	lui	a5,%hi(g_vfs_mutex)
	lw	a5,%lo(g_vfs_mutex)(a5)
	li	a1,-1
	mv	a0,a5
	call	xQueueSemaphoreTake
	mv	a4,a0
	.loc 1 63 8 discriminator 1
	li	a5,1
	beq	a4,a5,.L9
	.loc 1 64 13
	li	a5,-1
	sw	a5,-20(s0)
	.loc 1 65 16
	lw	a5,-20(s0)
	j	.L7
.L9:
	.loc 1 68 12
	lw	a0,-36(s0)
	call	inode_open
	sw	a0,-28(s0)
	.loc 1 70 8
	lw	a5,-28(s0)
	bne	a5,zero,.L10
	.loc 1 71 9
	lui	a5,%hi(g_vfs_mutex)
	lw	a5,%lo(g_vfs_mutex)(a5)
	li	a3,0
	li	a2,0
	li	a1,0
	mv	a0,a5
	call	xQueueGenericSend
	.loc 1 76 16
	li	a5,-2
	j	.L7
.L10:
	.loc 1 80 19
	lw	a5,-28(s0)
	lw	a4,-40(s0)
	sw	a4,12(a5)
	.loc 1 81 12
	lw	a0,-28(s0)
	call	new_file
	sw	a0,-32(s0)
	.loc 1 83 5
	lui	a5,%hi(g_vfs_mutex)
	lw	a5,%lo(g_vfs_mutex)(a5)
	li	a3,0
	li	a2,0
	li	a1,0
	mv	a0,a5
	call	xQueueGenericSend
	.loc 1 85 8
	lw	a5,-32(s0)
	bne	a5,zero,.L11
	.loc 1 86 16
	li	a5,-23
	j	.L7
.L11:
	.loc 1 89 16
	lw	a5,-28(s0)
	lbu	a4,16(a5)
	.loc 1 89 8
	li	a5,3
	bne	a4,a5,.L12
	.loc 1 90 23
	lw	a5,-28(s0)
	lw	a5,0(a5)
	.loc 1 90 30
	lw	a5,0(a5)
	.loc 1 90 12
	beq	a5,zero,.L13
	.loc 1 91 29
	lw	a5,-28(s0)
	lw	a5,0(a5)
	.loc 1 91 36
	lw	a5,0(a5)
	lw	a2,-40(s0)
	lw	a1,-36(s0)
	lw	a0,-32(s0)
	jalr	a5
.LVL0:
	sw	a0,-20(s0)
	j	.L13
.L12:
	.loc 1 95 23
	lw	a5,-28(s0)
	lw	a5,0(a5)
	.loc 1 95 29
	lw	a5,0(a5)
	.loc 1 95 12
	beq	a5,zero,.L13
	.loc 1 96 29
	lw	a5,-28(s0)
	lw	a5,0(a5)
	.loc 1 96 35
	lw	a5,0(a5)
	lw	a1,-32(s0)
	lw	a0,-28(s0)
	jalr	a5
.LVL1:
	sw	a0,-20(s0)
.L13:
	.loc 1 100 8
	lw	a5,-20(s0)
	beq	a5,zero,.L14
	.loc 1 101 9
	lw	a0,-32(s0)
	call	del_file
	.loc 1 102 16
	lw	a5,-20(s0)
	j	.L7
.L14:
	.loc 1 105 12
	lw	a0,-32(s0)
	call	get_fd
	mv	a5,a0
.L7:
	.loc 1 106 1
	mv	a0,a5
	lw	ra,44(sp)
	.cfi_restore 1
	lw	s0,40(sp)
	.cfi_restore 8
	.cfi_def_cfa 2, 48
	addi	sp,sp,48
	.cfi_def_cfa_offset 0
	jr	ra
	.cfi_endproc
.LFE6:
	.size	aos_open, .-aos_open
	.section	.text.aos_close,"ax",@progbits
	.align	1
	.globl	aos_close
	.type	aos_close, @function
aos_close:
.LFB7:
	.loc 1 109 1
	.cfi_startproc
	addi	sp,sp,-48
	.cfi_def_cfa_offset 48
	sw	ra,44(sp)
	sw	s0,40(sp)
	.cfi_offset 1, -4
	.cfi_offset 8, -8
	addi	s0,sp,48
	.cfi_def_cfa 8, 0
	sw	a0,-36(s0)
	.loc 1 110 9
	sw	zero,-20(s0)
	.loc 1 114 9
	lw	a0,-36(s0)
	call	get_file
	sw	a0,-24(s0)
	.loc 1 116 8
	lw	a5,-24(s0)
	bne	a5,zero,.L16
	.loc 1 120 16
	li	a5,-2
	j	.L17
.L16:
	.loc 1 124 10
	lw	a5,-24(s0)
	lw	a5,0(a5)
	sw	a5,-28(s0)
	.loc 1 126 16
	lw	a5,-28(s0)
	lbu	a4,16(a5)
	.loc 1 126 8
	li	a5,3
	bne	a4,a5,.L18
	.loc 1 127 23
	lw	a5,-28(s0)
	lw	a5,0(a5)
	.loc 1 127 30
	lw	a5,4(a5)
	.loc 1 127 12
	beq	a5,zero,.L19
	.loc 1 128 29
	lw	a5,-28(s0)
	lw	a5,0(a5)
	.loc 1 128 36
	lw	a5,4(a5)
	lw	a0,-24(s0)
	jalr	a5
.LVL2:
	sw	a0,-20(s0)
	j	.L19
.L18:
	.loc 1 133 23
	lw	a5,-28(s0)
	lw	a5,0(a5)
	.loc 1 133 29
	lw	a5,4(a5)
	.loc 1 133 12
	beq	a5,zero,.L19
	.loc 1 134 29
	lw	a5,-28(s0)
	lw	a5,0(a5)
	.loc 1 134 35
	lw	a5,4(a5)
	lw	a0,-24(s0)
	jalr	a5
.LVL3:
	sw	a0,-20(s0)
.L19:
	.loc 1 138 34
	lui	a5,%hi(g_vfs_mutex)
	lw	a5,%lo(g_vfs_mutex)(a5)
	li	a1,-1
	mv	a0,a5
	call	xQueueSemaphoreTake
	mv	a4,a0
	.loc 1 138 8 discriminator 1
	li	a5,1
	beq	a4,a5,.L20
	.loc 1 139 13
	li	a5,-1
	sw	a5,-20(s0)
	.loc 1 140 16
	lw	a5,-20(s0)
	j	.L17
.L20:
	.loc 1 143 5
	lw	a0,-24(s0)
	call	del_file
	.loc 1 145 5
	lui	a5,%hi(g_vfs_mutex)
	lw	a5,%lo(g_vfs_mutex)(a5)
	li	a3,0
	li	a2,0
	li	a1,0
	mv	a0,a5
	call	xQueueGenericSend
	.loc 1 147 12
	lw	a5,-20(s0)
.L17:
	.loc 1 148 1
	mv	a0,a5
	lw	ra,44(sp)
	.cfi_restore 1
	lw	s0,40(sp)
	.cfi_restore 8
	.cfi_def_cfa 2, 48
	addi	sp,sp,48
	.cfi_def_cfa_offset 0
	jr	ra
	.cfi_endproc
.LFE7:
	.size	aos_close, .-aos_close
	.section	.text.aos_read,"ax",@progbits
	.align	1
	.globl	aos_read
	.type	aos_read, @function
aos_read:
.LFB8:
	.loc 1 151 1
	.cfi_startproc
	addi	sp,sp,-48
	.cfi_def_cfa_offset 48
	sw	ra,44(sp)
	sw	s0,40(sp)
	.cfi_offset 1, -4
	.cfi_offset 8, -8
	addi	s0,sp,48
	.cfi_def_cfa 8, 0
	sw	a0,-36(s0)
	sw	a1,-40(s0)
	sw	a2,-44(s0)
	.loc 1 152 13
	li	a5,-1
	sw	a5,-20(s0)
	.loc 1 156 9
	lw	a0,-36(s0)
	call	get_file
	sw	a0,-24(s0)
	.loc 1 158 8
	lw	a5,-24(s0)
	bne	a5,zero,.L22
	.loc 1 162 16
	li	a5,-2
	j	.L23
.L22:
	.loc 1 166 10
	lw	a5,-24(s0)
	lw	a5,0(a5)
	sw	a5,-28(s0)
	.loc 1 168 16
	lw	a5,-28(s0)
	lbu	a4,16(a5)
	.loc 1 168 8
	li	a5,3
	bne	a4,a5,.L24
	.loc 1 169 23
	lw	a5,-28(s0)
	lw	a5,0(a5)
	.loc 1 169 30
	lw	a5,8(a5)
	.loc 1 169 12
	beq	a5,zero,.L25
	.loc 1 170 31
	lw	a5,-28(s0)
	lw	a5,0(a5)
	.loc 1 170 38
	lw	a5,8(a5)
	lw	a2,-44(s0)
	lw	a1,-40(s0)
	lw	a0,-24(s0)
	jalr	a5
.LVL4:
	sw	a0,-20(s0)
	j	.L25
.L24:
	.loc 1 173 23
	lw	a5,-28(s0)
	lw	a5,0(a5)
	.loc 1 173 29
	lw	a5,8(a5)
	.loc 1 173 12
	beq	a5,zero,.L25
	.loc 1 174 31
	lw	a5,-28(s0)
	lw	a5,0(a5)
	.loc 1 174 37
	lw	a5,8(a5)
	lw	a2,-44(s0)
	lw	a1,-40(s0)
	lw	a0,-24(s0)
	jalr	a5
.LVL5:
	sw	a0,-20(s0)
.L25:
	.loc 1 178 12
	lw	a5,-20(s0)
.L23:
	.loc 1 179 1
	mv	a0,a5
	lw	ra,44(sp)
	.cfi_restore 1
	lw	s0,40(sp)
	.cfi_restore 8
	.cfi_def_cfa 2, 48
	addi	sp,sp,48
	.cfi_def_cfa_offset 0
	jr	ra
	.cfi_endproc
.LFE8:
	.size	aos_read, .-aos_read
	.section	.text.aos_write,"ax",@progbits
	.align	1
	.globl	aos_write
	.type	aos_write, @function
aos_write:
.LFB9:
	.loc 1 182 1
	.cfi_startproc
	addi	sp,sp,-48
	.cfi_def_cfa_offset 48
	sw	ra,44(sp)
	sw	s0,40(sp)
	.cfi_offset 1, -4
	.cfi_offset 8, -8
	addi	s0,sp,48
	.cfi_def_cfa 8, 0
	sw	a0,-36(s0)
	sw	a1,-40(s0)
	sw	a2,-44(s0)
	.loc 1 183 13
	li	a5,-1
	sw	a5,-20(s0)
	.loc 1 187 9
	lw	a0,-36(s0)
	call	get_file
	sw	a0,-24(s0)
	.loc 1 189 8
	lw	a5,-24(s0)
	bne	a5,zero,.L27
	.loc 1 193 16
	li	a5,-2
	j	.L28
.L27:
	.loc 1 197 10
	lw	a5,-24(s0)
	lw	a5,0(a5)
	sw	a5,-28(s0)
	.loc 1 199 16
	lw	a5,-28(s0)
	lbu	a4,16(a5)
	.loc 1 199 8
	li	a5,3
	bne	a4,a5,.L29
	.loc 1 200 23
	lw	a5,-28(s0)
	lw	a5,0(a5)
	.loc 1 200 30
	lw	a5,12(a5)
	.loc 1 200 12
	beq	a5,zero,.L30
	.loc 1 201 32
	lw	a5,-28(s0)
	lw	a5,0(a5)
	.loc 1 201 39
	lw	a5,12(a5)
	lw	a2,-44(s0)
	lw	a1,-40(s0)
	lw	a0,-24(s0)
	jalr	a5
.LVL6:
	sw	a0,-20(s0)
	j	.L30
.L29:
	.loc 1 204 23
	lw	a5,-28(s0)
	lw	a5,0(a5)
	.loc 1 204 29
	lw	a5,12(a5)
	.loc 1 204 12
	beq	a5,zero,.L30
	.loc 1 205 32
	lw	a5,-28(s0)
	lw	a5,0(a5)
	.loc 1 205 38
	lw	a5,12(a5)
	lw	a2,-44(s0)
	lw	a1,-40(s0)
	lw	a0,-24(s0)
	jalr	a5
.LVL7:
	sw	a0,-20(s0)
.L30:
	.loc 1 209 12
	lw	a5,-20(s0)
.L28:
	.loc 1 210 1
	mv	a0,a5
	lw	ra,44(sp)
	.cfi_restore 1
	lw	s0,40(sp)
	.cfi_restore 8
	.cfi_def_cfa 2, 48
	addi	sp,sp,48
	.cfi_def_cfa_offset 0
	jr	ra
	.cfi_endproc
.LFE9:
	.size	aos_write, .-aos_write
	.section	.text.aos_ioctl,"ax",@progbits
	.align	1
	.globl	aos_ioctl
	.type	aos_ioctl, @function
aos_ioctl:
.LFB10:
	.loc 1 213 1
	.cfi_startproc
	addi	sp,sp,-48
	.cfi_def_cfa_offset 48
	sw	ra,44(sp)
	sw	s0,40(sp)
	.cfi_offset 1, -4
	.cfi_offset 8, -8
	addi	s0,sp,48
	.cfi_def_cfa 8, 0
	sw	a0,-36(s0)
	sw	a1,-40(s0)
	sw	a2,-44(s0)
	.loc 1 214 9
	li	a5,-88
	sw	a5,-20(s0)
	.loc 1 218 8
	lw	a5,-36(s0)
	bge	a5,zero,.L32
	.loc 1 219 16
	li	a5,-22
	j	.L33
.L32:
	.loc 1 222 9
	lw	a0,-36(s0)
	call	get_file
	sw	a0,-24(s0)
	.loc 1 224 8
	lw	a5,-24(s0)
	bne	a5,zero,.L34
	.loc 1 225 16
	li	a5,-2
	j	.L33
.L34:
	.loc 1 228 10
	lw	a5,-24(s0)
	lw	a5,0(a5)
	sw	a5,-28(s0)
	.loc 1 230 16
	lw	a5,-28(s0)
	lbu	a4,16(a5)
	.loc 1 230 8
	li	a5,3
	bne	a4,a5,.L35
	.loc 1 231 23
	lw	a5,-28(s0)
	lw	a5,0(a5)
	.loc 1 231 30
	lw	a5,68(a5)
	.loc 1 231 12
	beq	a5,zero,.L36
	.loc 1 232 29
	lw	a5,-28(s0)
	lw	a5,0(a5)
	.loc 1 232 36
	lw	a5,68(a5)
	lw	a2,-44(s0)
	lw	a1,-40(s0)
	lw	a0,-24(s0)
	jalr	a5
.LVL8:
	sw	a0,-20(s0)
	j	.L36
.L35:
	.loc 1 235 23
	lw	a5,-28(s0)
	lw	a5,0(a5)
	.loc 1 235 29
	lw	a5,16(a5)
	.loc 1 235 12
	beq	a5,zero,.L36
	.loc 1 236 29
	lw	a5,-28(s0)
	lw	a5,0(a5)
	.loc 1 236 35
	lw	a5,16(a5)
	lw	a2,-44(s0)
	lw	a1,-40(s0)
	lw	a0,-24(s0)
	jalr	a5
.LVL9:
	sw	a0,-20(s0)
.L36:
	.loc 1 240 12
	lw	a5,-20(s0)
.L33:
	.loc 1 241 1
	mv	a0,a5
	lw	ra,44(sp)
	.cfi_restore 1
	lw	s0,40(sp)
	.cfi_restore 8
	.cfi_def_cfa 2, 48
	addi	sp,sp,48
	.cfi_def_cfa_offset 0
	jr	ra
	.cfi_endproc
.LFE10:
	.size	aos_ioctl, .-aos_ioctl
	.section	.text.aos_lseek,"ax",@progbits
	.align	1
	.globl	aos_lseek
	.type	aos_lseek, @function
aos_lseek:
.LFB11:
	.loc 1 244 1
	.cfi_startproc
	addi	sp,sp,-48
	.cfi_def_cfa_offset 48
	sw	ra,44(sp)
	sw	s0,40(sp)
	.cfi_offset 1, -4
	.cfi_offset 8, -8
	addi	s0,sp,48
	.cfi_def_cfa 8, 0
	sw	a0,-36(s0)
	sw	a1,-40(s0)
	sw	a2,-44(s0)
	.loc 1 247 9
	li	a5,-88
	sw	a5,-20(s0)
	.loc 1 249 9
	lw	a0,-36(s0)
	call	get_file
	sw	a0,-24(s0)
	.loc 1 251 8
	lw	a5,-24(s0)
	bne	a5,zero,.L38
	.loc 1 252 16
	li	a5,-2
	j	.L39
.L38:
	.loc 1 255 10
	lw	a5,-24(s0)
	lw	a5,0(a5)
	sw	a5,-28(s0)
	.loc 1 257 16
	lw	a5,-28(s0)
	lbu	a4,16(a5)
	.loc 1 257 8
	li	a5,3
	bne	a4,a5,.L40
	.loc 1 258 23
	lw	a5,-28(s0)
	lw	a5,0(a5)
	.loc 1 258 30
	lw	a5,16(a5)
	.loc 1 258 12
	beq	a5,zero,.L40
	.loc 1 259 29
	lw	a5,-28(s0)
	lw	a5,0(a5)
	.loc 1 259 36
	lw	a5,16(a5)
	lw	a2,-44(s0)
	lw	a1,-40(s0)
	lw	a0,-24(s0)
	jalr	a5
.LVL10:
	sw	a0,-20(s0)
.L40:
	.loc 1 263 12
	lw	a5,-20(s0)
.L39:
	.loc 1 264 1
	mv	a0,a5
	lw	ra,44(sp)
	.cfi_restore 1
	lw	s0,40(sp)
	.cfi_restore 8
	.cfi_def_cfa 2, 48
	addi	sp,sp,48
	.cfi_def_cfa_offset 0
	jr	ra
	.cfi_endproc
.LFE11:
	.size	aos_lseek, .-aos_lseek
	.section	.text.aos_sync,"ax",@progbits
	.align	1
	.globl	aos_sync
	.type	aos_sync, @function
aos_sync:
.LFB12:
	.loc 1 267 1
	.cfi_startproc
	addi	sp,sp,-48
	.cfi_def_cfa_offset 48
	sw	ra,44(sp)
	sw	s0,40(sp)
	.cfi_offset 1, -4
	.cfi_offset 8, -8
	addi	s0,sp,48
	.cfi_def_cfa 8, 0
	sw	a0,-36(s0)
	.loc 1 270 9
	li	a5,-88
	sw	a5,-20(s0)
	.loc 1 272 9
	lw	a0,-36(s0)
	call	get_file
	sw	a0,-24(s0)
	.loc 1 274 8
	lw	a5,-24(s0)
	bne	a5,zero,.L42
	.loc 1 275 16
	li	a5,-2
	j	.L43
.L42:
	.loc 1 278 10
	lw	a5,-24(s0)
	lw	a5,0(a5)
	sw	a5,-28(s0)
	.loc 1 280 16
	lw	a5,-28(s0)
	lbu	a4,16(a5)
	.loc 1 280 8
	li	a5,3
	bne	a4,a5,.L44
	.loc 1 281 23
	lw	a5,-28(s0)
	lw	a5,0(a5)
	.loc 1 281 30
	lw	a5,20(a5)
	.loc 1 281 12
	beq	a5,zero,.L45
	.loc 1 282 29
	lw	a5,-28(s0)
	lw	a5,0(a5)
	.loc 1 282 36
	lw	a5,20(a5)
	lw	a0,-24(s0)
	jalr	a5
.LVL11:
	sw	a0,-20(s0)
	j	.L45
.L44:
	.loc 1 285 23
	lw	a5,-28(s0)
	lw	a5,0(a5)
	.loc 1 285 29
	lw	a5,24(a5)
	.loc 1 285 12
	beq	a5,zero,.L45
	.loc 1 286 29
	lw	a5,-28(s0)
	lw	a5,0(a5)
	.loc 1 286 35
	lw	a5,24(a5)
	lw	a0,-24(s0)
	jalr	a5
.LVL12:
	sw	a0,-20(s0)
.L45:
	.loc 1 290 12
	lw	a5,-20(s0)
.L43:
	.loc 1 291 1
	mv	a0,a5
	lw	ra,44(sp)
	.cfi_restore 1
	lw	s0,40(sp)
	.cfi_restore 8
	.cfi_def_cfa 2, 48
	addi	sp,sp,48
	.cfi_def_cfa_offset 0
	jr	ra
	.cfi_endproc
.LFE12:
	.size	aos_sync, .-aos_sync
	.section	.text.aos_stat,"ax",@progbits
	.align	1
	.globl	aos_stat
	.type	aos_stat, @function
aos_stat:
.LFB13:
	.loc 1 294 1
	.cfi_startproc
	addi	sp,sp,-48
	.cfi_def_cfa_offset 48
	sw	ra,44(sp)
	sw	s0,40(sp)
	.cfi_offset 1, -4
	.cfi_offset 8, -8
	addi	s0,sp,48
	.cfi_def_cfa 8, 0
	sw	a0,-36(s0)
	sw	a1,-40(s0)
	.loc 1 297 9
	sw	zero,-24(s0)
	.loc 1 297 18
	li	a5,-88
	sw	a5,-20(s0)
	.loc 1 299 8
	lw	a5,-36(s0)
	bne	a5,zero,.L47
	.loc 1 300 16
	li	a5,-22
	j	.L48
.L47:
	.loc 1 303 34
	lui	a5,%hi(g_vfs_mutex)
	lw	a5,%lo(g_vfs_mutex)(a5)
	li	a1,-1
	mv	a0,a5
	call	xQueueSemaphoreTake
	mv	a4,a0
	.loc 1 303 8 discriminator 1
	li	a5,1
	beq	a4,a5,.L49
	.loc 1 304 13
	li	a5,-1
	sw	a5,-24(s0)
	.loc 1 305 16
	lw	a5,-24(s0)
	j	.L48
.L49:
	.loc 1 308 12
	lw	a0,-36(s0)
	call	inode_open
	sw	a0,-28(s0)
	.loc 1 310 8
	lw	a5,-28(s0)
	bne	a5,zero,.L50
	.loc 1 311 9
	lui	a5,%hi(g_vfs_mutex)
	lw	a5,%lo(g_vfs_mutex)(a5)
	li	a3,0
	li	a2,0
	li	a1,0
	mv	a0,a5
	call	xQueueGenericSend
	.loc 1 312 16
	li	a5,-19
	j	.L48
.L50:
	.loc 1 315 12
	lw	a0,-28(s0)
	call	new_file
	sw	a0,-32(s0)
	.loc 1 317 5
	lui	a5,%hi(g_vfs_mutex)
	lw	a5,%lo(g_vfs_mutex)(a5)
	li	a3,0
	li	a2,0
	li	a1,0
	mv	a0,a5
	call	xQueueGenericSend
	.loc 1 319 8
	lw	a5,-32(s0)
	bne	a5,zero,.L51
	.loc 1 320 16
	li	a5,-2
	j	.L48
.L51:
	.loc 1 323 16
	lw	a5,-28(s0)
	lbu	a4,16(a5)
	.loc 1 323 8
	li	a5,3
	bne	a4,a5,.L52
	.loc 1 324 23
	lw	a5,-28(s0)
	lw	a5,0(a5)
	.loc 1 324 30
	lw	a5,24(a5)
	.loc 1 324 12
	beq	a5,zero,.L52
	.loc 1 325 29
	lw	a5,-28(s0)
	lw	a5,0(a5)
	.loc 1 325 36
	lw	a5,24(a5)
	lw	a2,-40(s0)
	lw	a1,-36(s0)
	lw	a0,-32(s0)
	jalr	a5
.LVL13:
	sw	a0,-20(s0)
.L52:
	.loc 1 329 34
	lui	a5,%hi(g_vfs_mutex)
	lw	a5,%lo(g_vfs_mutex)(a5)
	li	a1,-1
	mv	a0,a5
	call	xQueueSemaphoreTake
	mv	a4,a0
	.loc 1 329 8 discriminator 1
	li	a5,1
	beq	a4,a5,.L53
	.loc 1 330 13
	li	a5,-1
	sw	a5,-24(s0)
	.loc 1 331 16
	lw	a5,-24(s0)
	j	.L48
.L53:
	.loc 1 334 5
	lw	a0,-32(s0)
	call	del_file
	.loc 1 336 5
	lui	a5,%hi(g_vfs_mutex)
	lw	a5,%lo(g_vfs_mutex)(a5)
	li	a3,0
	li	a2,0
	li	a1,0
	mv	a0,a5
	call	xQueueGenericSend
	.loc 1 337 12
	lw	a5,-20(s0)
.L48:
	.loc 1 338 1
	mv	a0,a5
	lw	ra,44(sp)
	.cfi_restore 1
	lw	s0,40(sp)
	.cfi_restore 8
	.cfi_def_cfa 2, 48
	addi	sp,sp,48
	.cfi_def_cfa_offset 0
	jr	ra
	.cfi_endproc
.LFE13:
	.size	aos_stat, .-aos_stat
	.section	.text.aos_unlink,"ax",@progbits
	.align	1
	.globl	aos_unlink
	.type	aos_unlink, @function
aos_unlink:
.LFB14:
	.loc 1 341 1
	.cfi_startproc
	addi	sp,sp,-48
	.cfi_def_cfa_offset 48
	sw	ra,44(sp)
	sw	s0,40(sp)
	.cfi_offset 1, -4
	.cfi_offset 8, -8
	addi	s0,sp,48
	.cfi_def_cfa 8, 0
	sw	a0,-36(s0)
	.loc 1 344 14
	li	a5,-88
	sw	a5,-20(s0)
	.loc 1 346 8
	lw	a5,-36(s0)
	bne	a5,zero,.L55
	.loc 1 347 16
	li	a5,-22
	j	.L56
.L55:
	.loc 1 350 34
	lui	a5,%hi(g_vfs_mutex)
	lw	a5,%lo(g_vfs_mutex)(a5)
	li	a1,-1
	mv	a0,a5
	call	xQueueSemaphoreTake
	mv	a4,a0
	.loc 1 350 8 discriminator 1
	li	a5,1
	beq	a4,a5,.L57
	.loc 1 351 13
	li	a5,-1
	sw	a5,-32(s0)
	.loc 1 352 16
	lw	a5,-32(s0)
	j	.L56
.L57:
	.loc 1 355 12
	lw	a0,-36(s0)
	call	inode_open
	sw	a0,-24(s0)
	.loc 1 357 8
	lw	a5,-24(s0)
	bne	a5,zero,.L58
	.loc 1 358 9
	lui	a5,%hi(g_vfs_mutex)
	lw	a5,%lo(g_vfs_mutex)(a5)
	li	a3,0
	li	a2,0
	li	a1,0
	mv	a0,a5
	call	xQueueGenericSend
	.loc 1 359 16
	li	a5,-19
	j	.L56
.L58:
	.loc 1 362 9
	lw	a0,-24(s0)
	call	new_file
	sw	a0,-28(s0)
	.loc 1 364 5
	lui	a5,%hi(g_vfs_mutex)
	lw	a5,%lo(g_vfs_mutex)(a5)
	li	a3,0
	li	a2,0
	li	a1,0
	mv	a0,a5
	call	xQueueGenericSend
	.loc 1 366 8
	lw	a5,-28(s0)
	bne	a5,zero,.L59
	.loc 1 367 16
	li	a5,-2
	j	.L56
.L59:
	.loc 1 370 16
	lw	a5,-24(s0)
	lbu	a4,16(a5)
	.loc 1 370 8
	li	a5,3
	bne	a4,a5,.L60
	.loc 1 371 23
	lw	a5,-24(s0)
	lw	a5,0(a5)
	.loc 1 371 30
	lw	a5,28(a5)
	.loc 1 371 12
	beq	a5,zero,.L60
	.loc 1 372 29
	lw	a5,-24(s0)
	lw	a5,0(a5)
	.loc 1 372 36
	lw	a5,28(a5)
	lw	a1,-36(s0)
	lw	a0,-28(s0)
	jalr	a5
.LVL14:
	sw	a0,-20(s0)
.L60:
	.loc 1 376 34
	lui	a5,%hi(g_vfs_mutex)
	lw	a5,%lo(g_vfs_mutex)(a5)
	li	a1,-1
	mv	a0,a5
	call	xQueueSemaphoreTake
	mv	a4,a0
	.loc 1 376 8 discriminator 1
	li	a5,1
	beq	a4,a5,.L61
	.loc 1 377 13
	li	a5,-1
	sw	a5,-32(s0)
	.loc 1 378 16
	lw	a5,-32(s0)
	j	.L56
.L61:
	.loc 1 381 5
	lw	a0,-28(s0)
	call	del_file
	.loc 1 383 5
	lui	a5,%hi(g_vfs_mutex)
	lw	a5,%lo(g_vfs_mutex)(a5)
	li	a3,0
	li	a2,0
	li	a1,0
	mv	a0,a5
	call	xQueueGenericSend
	.loc 1 384 12
	lw	a5,-20(s0)
.L56:
	.loc 1 385 1
	mv	a0,a5
	lw	ra,44(sp)
	.cfi_restore 1
	lw	s0,40(sp)
	.cfi_restore 8
	.cfi_def_cfa 2, 48
	addi	sp,sp,48
	.cfi_def_cfa_offset 0
	jr	ra
	.cfi_endproc
.LFE14:
	.size	aos_unlink, .-aos_unlink
	.section	.text.aos_rename,"ax",@progbits
	.align	1
	.globl	aos_rename
	.type	aos_rename, @function
aos_rename:
.LFB15:
	.loc 1 388 1
	.cfi_startproc
	addi	sp,sp,-48
	.cfi_def_cfa_offset 48
	sw	ra,44(sp)
	sw	s0,40(sp)
	.cfi_offset 1, -4
	.cfi_offset 8, -8
	addi	s0,sp,48
	.cfi_def_cfa 8, 0
	sw	a0,-36(s0)
	sw	a1,-40(s0)
	.loc 1 391 14
	li	a5,-88
	sw	a5,-20(s0)
	.loc 1 393 8
	lw	a5,-36(s0)
	beq	a5,zero,.L63
	.loc 1 393 24 discriminator 1
	lw	a5,-40(s0)
	bne	a5,zero,.L64
.L63:
	.loc 1 394 16
	li	a5,-22
	j	.L65
.L64:
	.loc 1 397 34
	lui	a5,%hi(g_vfs_mutex)
	lw	a5,%lo(g_vfs_mutex)(a5)
	li	a1,-1
	mv	a0,a5
	call	xQueueSemaphoreTake
	mv	a4,a0
	.loc 1 397 8 discriminator 1
	li	a5,1
	beq	a4,a5,.L66
	.loc 1 398 13
	li	a5,-1
	sw	a5,-32(s0)
	.loc 1 399 16
	lw	a5,-32(s0)
	j	.L65
.L66:
	.loc 1 402 12
	lw	a0,-36(s0)
	call	inode_open
	sw	a0,-24(s0)
	.loc 1 404 8
	lw	a5,-24(s0)
	bne	a5,zero,.L67
	.loc 1 405 9
	lui	a5,%hi(g_vfs_mutex)
	lw	a5,%lo(g_vfs_mutex)(a5)
	li	a3,0
	li	a2,0
	li	a1,0
	mv	a0,a5
	call	xQueueGenericSend
	.loc 1 406 16
	li	a5,-19
	j	.L65
.L67:
	.loc 1 409 9
	lw	a0,-24(s0)
	call	new_file
	sw	a0,-28(s0)
	.loc 1 411 5
	lui	a5,%hi(g_vfs_mutex)
	lw	a5,%lo(g_vfs_mutex)(a5)
	li	a3,0
	li	a2,0
	li	a1,0
	mv	a0,a5
	call	xQueueGenericSend
	.loc 1 413 8
	lw	a5,-28(s0)
	bne	a5,zero,.L68
	.loc 1 414 16
	li	a5,-2
	j	.L65
.L68:
	.loc 1 417 16
	lw	a5,-24(s0)
	lbu	a4,16(a5)
	.loc 1 417 8
	li	a5,3
	bne	a4,a5,.L69
	.loc 1 418 23
	lw	a5,-24(s0)
	lw	a5,0(a5)
	.loc 1 418 30
	lw	a5,32(a5)
	.loc 1 418 12
	beq	a5,zero,.L69
	.loc 1 419 29
	lw	a5,-24(s0)
	lw	a5,0(a5)
	.loc 1 419 36
	lw	a5,32(a5)
	lw	a2,-40(s0)
	lw	a1,-36(s0)
	lw	a0,-28(s0)
	jalr	a5
.LVL15:
	sw	a0,-20(s0)
.L69:
	.loc 1 423 34
	lui	a5,%hi(g_vfs_mutex)
	lw	a5,%lo(g_vfs_mutex)(a5)
	li	a1,-1
	mv	a0,a5
	call	xQueueSemaphoreTake
	mv	a4,a0
	.loc 1 423 8 discriminator 1
	li	a5,1
	beq	a4,a5,.L70
	.loc 1 424 13
	li	a5,-1
	sw	a5,-32(s0)
	.loc 1 425 16
	lw	a5,-32(s0)
	j	.L65
.L70:
	.loc 1 428 5
	lw	a0,-28(s0)
	call	del_file
	.loc 1 430 5
	lui	a5,%hi(g_vfs_mutex)
	lw	a5,%lo(g_vfs_mutex)(a5)
	li	a3,0
	li	a2,0
	li	a1,0
	mv	a0,a5
	call	xQueueGenericSend
	.loc 1 431 12
	lw	a5,-20(s0)
.L65:
	.loc 1 432 1
	mv	a0,a5
	lw	ra,44(sp)
	.cfi_restore 1
	lw	s0,40(sp)
	.cfi_restore 8
	.cfi_def_cfa 2, 48
	addi	sp,sp,48
	.cfi_def_cfa_offset 0
	jr	ra
	.cfi_endproc
.LFE15:
	.size	aos_rename, .-aos_rename
	.section	.text.aos_opendir,"ax",@progbits
	.align	1
	.globl	aos_opendir
	.type	aos_opendir, @function
aos_opendir:
.LFB16:
	.loc 1 435 1
	.cfi_startproc
	addi	sp,sp,-48
	.cfi_def_cfa_offset 48
	sw	ra,44(sp)
	sw	s0,40(sp)
	.cfi_offset 1, -4
	.cfi_offset 8, -8
	addi	s0,sp,48
	.cfi_def_cfa 8, 0
	sw	a0,-36(s0)
	.loc 1 438 16
	sw	zero,-20(s0)
	.loc 1 440 8
	lw	a5,-36(s0)
	bne	a5,zero,.L72
	.loc 1 441 15
	li	a5,0
	j	.L73
.L72:
	.loc 1 444 33
	lui	a5,%hi(g_vfs_mutex)
	lw	a5,%lo(g_vfs_mutex)(a5)
	li	a1,-1
	mv	a0,a5
	call	xQueueSemaphoreTake
	mv	a4,a0
	.loc 1 444 8 discriminator 1
	li	a5,1
	beq	a4,a5,.L74
	.loc 1 445 15
	li	a5,0
	j	.L73
.L74:
	.loc 1 448 12
	lw	a0,-36(s0)
	call	inode_open
	sw	a0,-24(s0)
	.loc 1 450 8
	lw	a5,-24(s0)
	bne	a5,zero,.L75
	.loc 1 451 9
	lui	a5,%hi(g_vfs_mutex)
	lw	a5,%lo(g_vfs_mutex)(a5)
	li	a3,0
	li	a2,0
	li	a1,0
	mv	a0,a5
	call	xQueueGenericSend
	.loc 1 452 15
	li	a5,0
	j	.L73
.L75:
	.loc 1 455 12
	lw	a0,-24(s0)
	call	new_file
	sw	a0,-28(s0)
	.loc 1 457 5
	lui	a5,%hi(g_vfs_mutex)
	lw	a5,%lo(g_vfs_mutex)(a5)
	li	a3,0
	li	a2,0
	li	a1,0
	mv	a0,a5
	call	xQueueGenericSend
	.loc 1 459 8
	lw	a5,-28(s0)
	bne	a5,zero,.L76
	.loc 1 460 15
	li	a5,0
	j	.L73
.L76:
	.loc 1 463 16
	lw	a5,-24(s0)
	lbu	a4,16(a5)
	.loc 1 463 8
	li	a5,3
	bne	a4,a5,.L77
	.loc 1 464 23
	lw	a5,-24(s0)
	lw	a5,0(a5)
	.loc 1 464 30
	lw	a5,36(a5)
	.loc 1 464 12
	beq	a5,zero,.L77
	.loc 1 465 28
	lw	a5,-24(s0)
	lw	a5,0(a5)
	.loc 1 465 35
	lw	a5,36(a5)
	lw	a1,-36(s0)
	lw	a0,-28(s0)
	jalr	a5
.LVL16:
	sw	a0,-20(s0)
.L77:
	.loc 1 469 8
	lw	a5,-20(s0)
	bne	a5,zero,.L78
	.loc 1 470 37
	lui	a5,%hi(g_vfs_mutex)
	lw	a5,%lo(g_vfs_mutex)(a5)
	li	a1,-1
	mv	a0,a5
	call	xQueueSemaphoreTake
	mv	a4,a0
	.loc 1 470 12 discriminator 1
	li	a5,1
	beq	a4,a5,.L79
	.loc 1 471 19
	li	a5,0
	j	.L73
.L79:
	.loc 1 474 9
	lw	a0,-28(s0)
	call	del_file
	.loc 1 476 9
	lui	a5,%hi(g_vfs_mutex)
	lw	a5,%lo(g_vfs_mutex)(a5)
	li	a3,0
	li	a2,0
	li	a1,0
	mv	a0,a5
	call	xQueueGenericSend
	.loc 1 477 15
	li	a5,0
	j	.L73
.L78:
	.loc 1 480 21
	lw	a0,-28(s0)
	call	get_fd
	mv	a4,a0
	.loc 1 480 19 discriminator 1
	lw	a5,-20(s0)
	sw	a4,0(a5)
	.loc 1 481 12
	lw	a5,-20(s0)
.L73:
	.loc 1 482 1
	mv	a0,a5
	lw	ra,44(sp)
	.cfi_restore 1
	lw	s0,40(sp)
	.cfi_restore 8
	.cfi_def_cfa 2, 48
	addi	sp,sp,48
	.cfi_def_cfa_offset 0
	jr	ra
	.cfi_endproc
.LFE16:
	.size	aos_opendir, .-aos_opendir
	.section	.text.aos_closedir,"ax",@progbits
	.align	1
	.globl	aos_closedir
	.type	aos_closedir, @function
aos_closedir:
.LFB17:
	.loc 1 485 1
	.cfi_startproc
	addi	sp,sp,-48
	.cfi_def_cfa_offset 48
	sw	ra,44(sp)
	sw	s0,40(sp)
	.cfi_offset 1, -4
	.cfi_offset 8, -8
	addi	s0,sp,48
	.cfi_def_cfa 8, 0
	sw	a0,-36(s0)
	.loc 1 488 14
	li	a5,-88
	sw	a5,-20(s0)
	.loc 1 490 8
	lw	a5,-36(s0)
	bne	a5,zero,.L81
	.loc 1 491 16
	li	a5,-22
	j	.L82
.L81:
	.loc 1 494 9
	lw	a5,-36(s0)
	lw	a5,0(a5)
	mv	a0,a5
	call	get_file
	sw	a0,-24(s0)
	.loc 1 496 8
	lw	a5,-24(s0)
	bne	a5,zero,.L83
	.loc 1 497 16
	li	a5,-2
	j	.L82
.L83:
	.loc 1 500 10
	lw	a5,-24(s0)
	lw	a5,0(a5)
	sw	a5,-28(s0)
	.loc 1 502 16
	lw	a5,-28(s0)
	lbu	a4,16(a5)
	.loc 1 502 8
	li	a5,3
	bne	a4,a5,.L84
	.loc 1 503 23
	lw	a5,-28(s0)
	lw	a5,0(a5)
	.loc 1 503 30
	lw	a5,44(a5)
	.loc 1 503 12
	beq	a5,zero,.L84
	.loc 1 504 29
	lw	a5,-28(s0)
	lw	a5,0(a5)
	.loc 1 504 36
	lw	a5,44(a5)
	lw	a1,-36(s0)
	lw	a0,-24(s0)
	jalr	a5
.LVL17:
	sw	a0,-20(s0)
.L84:
	.loc 1 508 34
	lui	a5,%hi(g_vfs_mutex)
	lw	a5,%lo(g_vfs_mutex)(a5)
	li	a1,-1
	mv	a0,a5
	call	xQueueSemaphoreTake
	mv	a4,a0
	.loc 1 508 8 discriminator 1
	li	a5,1
	beq	a4,a5,.L85
	.loc 1 509 13
	li	a5,-1
	sw	a5,-32(s0)
	.loc 1 510 16
	lw	a5,-32(s0)
	j	.L82
.L85:
	.loc 1 513 5
	lw	a0,-24(s0)
	call	del_file
	.loc 1 515 5
	lui	a5,%hi(g_vfs_mutex)
	lw	a5,%lo(g_vfs_mutex)(a5)
	li	a3,0
	li	a2,0
	li	a1,0
	mv	a0,a5
	call	xQueueGenericSend
	.loc 1 517 12
	lw	a5,-20(s0)
.L82:
	.loc 1 518 1
	mv	a0,a5
	lw	ra,44(sp)
	.cfi_restore 1
	lw	s0,40(sp)
	.cfi_restore 8
	.cfi_def_cfa 2, 48
	addi	sp,sp,48
	.cfi_def_cfa_offset 0
	jr	ra
	.cfi_endproc
.LFE17:
	.size	aos_closedir, .-aos_closedir
	.section	.text.aos_readdir,"ax",@progbits
	.align	1
	.globl	aos_readdir
	.type	aos_readdir, @function
aos_readdir:
.LFB18:
	.loc 1 521 1
	.cfi_startproc
	addi	sp,sp,-48
	.cfi_def_cfa_offset 48
	sw	ra,44(sp)
	sw	s0,40(sp)
	.cfi_offset 1, -4
	.cfi_offset 8, -8
	addi	s0,sp,48
	.cfi_def_cfa 8, 0
	sw	a0,-36(s0)
	.loc 1 524 19
	sw	zero,-20(s0)
	.loc 1 526 8
	lw	a5,-36(s0)
	bne	a5,zero,.L87
	.loc 1 527 15
	li	a5,0
	j	.L88
.L87:
	.loc 1 530 9
	lw	a5,-36(s0)
	lw	a5,0(a5)
	mv	a0,a5
	call	get_file
	sw	a0,-24(s0)
	.loc 1 531 8
	lw	a5,-24(s0)
	bne	a5,zero,.L89
	.loc 1 532 15
	li	a5,0
	j	.L88
.L89:
	.loc 1 535 10
	lw	a5,-24(s0)
	lw	a5,0(a5)
	sw	a5,-28(s0)
	.loc 1 537 16
	lw	a5,-28(s0)
	lbu	a4,16(a5)
	.loc 1 537 8
	li	a5,3
	bne	a4,a5,.L90
	.loc 1 538 23
	lw	a5,-28(s0)
	lw	a5,0(a5)
	.loc 1 538 30
	lw	a5,40(a5)
	.loc 1 538 12
	beq	a5,zero,.L90
	.loc 1 539 29
	lw	a5,-28(s0)
	lw	a5,0(a5)
	.loc 1 539 36
	lw	a5,40(a5)
	lw	a1,-36(s0)
	lw	a0,-24(s0)
	jalr	a5
.LVL18:
	sw	a0,-20(s0)
.L90:
	.loc 1 543 8
	lw	a5,-20(s0)
	beq	a5,zero,.L91
	.loc 1 544 16
	lw	a5,-20(s0)
	j	.L88
.L91:
	.loc 1 547 11
	li	a5,0
.L88:
	.loc 1 548 1
	mv	a0,a5
	lw	ra,44(sp)
	.cfi_restore 1
	lw	s0,40(sp)
	.cfi_restore 8
	.cfi_def_cfa 2, 48
	addi	sp,sp,48
	.cfi_def_cfa_offset 0
	jr	ra
	.cfi_endproc
.LFE18:
	.size	aos_readdir, .-aos_readdir
	.section	.text.aos_mkdir,"ax",@progbits
	.align	1
	.globl	aos_mkdir
	.type	aos_mkdir, @function
aos_mkdir:
.LFB19:
	.loc 1 551 1
	.cfi_startproc
	addi	sp,sp,-48
	.cfi_def_cfa_offset 48
	sw	ra,44(sp)
	sw	s0,40(sp)
	.cfi_offset 1, -4
	.cfi_offset 8, -8
	addi	s0,sp,48
	.cfi_def_cfa 8, 0
	sw	a0,-36(s0)
	.loc 1 554 14
	li	a5,-88
	sw	a5,-20(s0)
	.loc 1 556 8
	lw	a5,-36(s0)
	bne	a5,zero,.L93
	.loc 1 557 16
	li	a5,-22
	j	.L94
.L93:
	.loc 1 560 34
	lui	a5,%hi(g_vfs_mutex)
	lw	a5,%lo(g_vfs_mutex)(a5)
	li	a1,-1
	mv	a0,a5
	call	xQueueSemaphoreTake
	mv	a4,a0
	.loc 1 560 8 discriminator 1
	li	a5,1
	beq	a4,a5,.L95
	.loc 1 561 13
	li	a5,-1
	sw	a5,-32(s0)
	.loc 1 562 16
	lw	a5,-32(s0)
	j	.L94
.L95:
	.loc 1 565 12
	lw	a0,-36(s0)
	call	inode_open
	sw	a0,-24(s0)
	.loc 1 567 8
	lw	a5,-24(s0)
	bne	a5,zero,.L96
	.loc 1 568 9
	lui	a5,%hi(g_vfs_mutex)
	lw	a5,%lo(g_vfs_mutex)(a5)
	li	a3,0
	li	a2,0
	li	a1,0
	mv	a0,a5
	call	xQueueGenericSend
	.loc 1 569 16
	li	a5,-19
	j	.L94
.L96:
	.loc 1 572 12
	lw	a0,-24(s0)
	call	new_file
	sw	a0,-28(s0)
	.loc 1 574 5
	lui	a5,%hi(g_vfs_mutex)
	lw	a5,%lo(g_vfs_mutex)(a5)
	li	a3,0
	li	a2,0
	li	a1,0
	mv	a0,a5
	call	xQueueGenericSend
	.loc 1 576 8
	lw	a5,-28(s0)
	bne	a5,zero,.L97
	.loc 1 577 16
	li	a5,-2
	j	.L94
.L97:
	.loc 1 580 16
	lw	a5,-24(s0)
	lbu	a4,16(a5)
	.loc 1 580 8
	li	a5,3
	bne	a4,a5,.L98
	.loc 1 581 23
	lw	a5,-24(s0)
	lw	a5,0(a5)
	.loc 1 581 30
	lw	a5,48(a5)
	.loc 1 581 12
	beq	a5,zero,.L98
	.loc 1 582 29
	lw	a5,-24(s0)
	lw	a5,0(a5)
	.loc 1 582 36
	lw	a5,48(a5)
	lw	a1,-36(s0)
	lw	a0,-28(s0)
	jalr	a5
.LVL19:
	sw	a0,-20(s0)
.L98:
	.loc 1 586 34
	lui	a5,%hi(g_vfs_mutex)
	lw	a5,%lo(g_vfs_mutex)(a5)
	li	a1,-1
	mv	a0,a5
	call	xQueueSemaphoreTake
	mv	a4,a0
	.loc 1 586 8 discriminator 1
	li	a5,1
	beq	a4,a5,.L99
	.loc 1 587 13
	li	a5,-1
	sw	a5,-32(s0)
	.loc 1 588 16
	lw	a5,-32(s0)
	j	.L94
.L99:
	.loc 1 591 5
	lw	a0,-28(s0)
	call	del_file
	.loc 1 593 5
	lui	a5,%hi(g_vfs_mutex)
	lw	a5,%lo(g_vfs_mutex)(a5)
	li	a3,0
	li	a2,0
	li	a1,0
	mv	a0,a5
	call	xQueueGenericSend
	.loc 1 594 12
	lw	a5,-20(s0)
.L94:
	.loc 1 595 1
	mv	a0,a5
	lw	ra,44(sp)
	.cfi_restore 1
	lw	s0,40(sp)
	.cfi_restore 8
	.cfi_def_cfa 2, 48
	addi	sp,sp,48
	.cfi_def_cfa_offset 0
	jr	ra
	.cfi_endproc
.LFE19:
	.size	aos_mkdir, .-aos_mkdir
	.section	.text.aos_rmdir,"ax",@progbits
	.align	1
	.globl	aos_rmdir
	.type	aos_rmdir, @function
aos_rmdir:
.LFB20:
	.loc 1 598 1
	.cfi_startproc
	addi	sp,sp,-48
	.cfi_def_cfa_offset 48
	sw	ra,44(sp)
	sw	s0,40(sp)
	.cfi_offset 1, -4
	.cfi_offset 8, -8
	addi	s0,sp,48
	.cfi_def_cfa 8, 0
	sw	a0,-36(s0)
	.loc 1 601 9
	li	a5,-88
	sw	a5,-24(s0)
	.loc 1 602 9
	li	a5,-88
	sw	a5,-20(s0)
	.loc 1 604 8
	lw	a5,-36(s0)
	bne	a5,zero,.L101
	.loc 1 605 16
	li	a5,-22
	j	.L102
.L101:
	.loc 1 608 34
	lui	a5,%hi(g_vfs_mutex)
	lw	a5,%lo(g_vfs_mutex)(a5)
	li	a1,-1
	mv	a0,a5
	call	xQueueSemaphoreTake
	mv	a4,a0
	.loc 1 608 8 discriminator 1
	li	a5,1
	beq	a4,a5,.L103
	.loc 1 609 13
	li	a5,-1
	sw	a5,-24(s0)
	.loc 1 610 16
	lw	a5,-24(s0)
	j	.L102
.L103:
	.loc 1 613 12
	lw	a0,-36(s0)
	call	inode_open
	sw	a0,-28(s0)
	.loc 1 615 8
	lw	a5,-28(s0)
	bne	a5,zero,.L104
	.loc 1 616 9
	lui	a5,%hi(g_vfs_mutex)
	lw	a5,%lo(g_vfs_mutex)(a5)
	li	a3,0
	li	a2,0
	li	a1,0
	mv	a0,a5
	call	xQueueGenericSend
	.loc 1 617 16
	li	a5,-19
	j	.L102
.L104:
	.loc 1 620 12
	lw	a0,-28(s0)
	call	new_file
	sw	a0,-32(s0)
	.loc 1 622 5
	lui	a5,%hi(g_vfs_mutex)
	lw	a5,%lo(g_vfs_mutex)(a5)
	li	a3,0
	li	a2,0
	li	a1,0
	mv	a0,a5
	call	xQueueGenericSend
	.loc 1 624 8
	lw	a5,-32(s0)
	bne	a5,zero,.L105
	.loc 1 625 16
	li	a5,-2
	j	.L102
.L105:
	.loc 1 628 16
	lw	a5,-28(s0)
	lbu	a4,16(a5)
	.loc 1 628 8
	li	a5,3
	bne	a4,a5,.L106
	.loc 1 629 23
	lw	a5,-28(s0)
	lw	a5,0(a5)
	.loc 1 629 30
	lw	a5,52(a5)
	.loc 1 629 12
	beq	a5,zero,.L106
	.loc 1 630 29
	lw	a5,-28(s0)
	lw	a5,0(a5)
	.loc 1 630 36
	lw	a5,52(a5)
	lw	a1,-36(s0)
	lw	a0,-32(s0)
	jalr	a5
.LVL20:
	sw	a0,-20(s0)
.L106:
	.loc 1 634 34
	lui	a5,%hi(g_vfs_mutex)
	lw	a5,%lo(g_vfs_mutex)(a5)
	li	a1,-1
	mv	a0,a5
	call	xQueueSemaphoreTake
	mv	a4,a0
	.loc 1 634 8 discriminator 1
	li	a5,1
	beq	a4,a5,.L107
	.loc 1 635 13
	li	a5,-1
	sw	a5,-24(s0)
	.loc 1 636 16
	lw	a5,-24(s0)
	j	.L102
.L107:
	.loc 1 639 5
	lw	a0,-32(s0)
	call	del_file
	.loc 1 641 5
	lui	a5,%hi(g_vfs_mutex)
	lw	a5,%lo(g_vfs_mutex)(a5)
	li	a3,0
	li	a2,0
	li	a1,0
	mv	a0,a5
	call	xQueueGenericSend
	.loc 1 642 12
	lw	a5,-20(s0)
.L102:
	.loc 1 643 1
	mv	a0,a5
	lw	ra,44(sp)
	.cfi_restore 1
	lw	s0,40(sp)
	.cfi_restore 8
	.cfi_def_cfa 2, 48
	addi	sp,sp,48
	.cfi_def_cfa_offset 0
	jr	ra
	.cfi_endproc
.LFE20:
	.size	aos_rmdir, .-aos_rmdir
	.section	.text.aos_rewinddir,"ax",@progbits
	.align	1
	.globl	aos_rewinddir
	.type	aos_rewinddir, @function
aos_rewinddir:
.LFB21:
	.loc 1 646 1
	.cfi_startproc
	addi	sp,sp,-48
	.cfi_def_cfa_offset 48
	sw	ra,44(sp)
	sw	s0,40(sp)
	.cfi_offset 1, -4
	.cfi_offset 8, -8
	addi	s0,sp,48
	.cfi_def_cfa 8, 0
	sw	a0,-36(s0)
	.loc 1 650 8
	lw	a5,-36(s0)
	beq	a5,zero,.L113
	.loc 1 654 9
	lw	a5,-36(s0)
	lw	a5,0(a5)
	mv	a0,a5
	call	get_file
	sw	a0,-20(s0)
	.loc 1 656 8
	lw	a5,-20(s0)
	beq	a5,zero,.L114
	.loc 1 660 10
	lw	a5,-20(s0)
	lw	a5,0(a5)
	sw	a5,-24(s0)
	.loc 1 662 16
	lw	a5,-24(s0)
	lbu	a4,16(a5)
	.loc 1 662 8
	li	a5,3
	bne	a4,a5,.L115
	.loc 1 663 23
	lw	a5,-24(s0)
	lw	a5,0(a5)
	.loc 1 663 30
	lw	a5,56(a5)
	.loc 1 663 12
	beq	a5,zero,.L115
	.loc 1 664 23
	lw	a5,-24(s0)
	lw	a5,0(a5)
	.loc 1 664 30
	lw	a5,56(a5)
	lw	a1,-36(s0)
	lw	a0,-20(s0)
	jalr	a5
.LVL21:
	.loc 1 668 5
	j	.L115
.L113:
	.loc 1 651 9
	nop
	j	.L108
.L114:
	.loc 1 657 9
	nop
	j	.L108
.L115:
	.loc 1 668 5
	nop
.L108:
	.loc 1 669 1
	lw	ra,44(sp)
	.cfi_restore 1
	lw	s0,40(sp)
	.cfi_restore 8
	.cfi_def_cfa 2, 48
	addi	sp,sp,48
	.cfi_def_cfa_offset 0
	jr	ra
	.cfi_endproc
.LFE21:
	.size	aos_rewinddir, .-aos_rewinddir
	.section	.text.aos_telldir,"ax",@progbits
	.align	1
	.globl	aos_telldir
	.type	aos_telldir, @function
aos_telldir:
.LFB22:
	.loc 1 672 1
	.cfi_startproc
	addi	sp,sp,-48
	.cfi_def_cfa_offset 48
	sw	ra,44(sp)
	sw	s0,40(sp)
	.cfi_offset 1, -4
	.cfi_offset 8, -8
	addi	s0,sp,48
	.cfi_def_cfa 8, 0
	sw	a0,-36(s0)
	.loc 1 675 10
	sw	zero,-20(s0)
	.loc 1 677 8
	lw	a5,-36(s0)
	bne	a5,zero,.L117
	.loc 1 678 16
	li	a5,-22
	j	.L118
.L117:
	.loc 1 681 9
	lw	a5,-36(s0)
	lw	a5,0(a5)
	mv	a0,a5
	call	get_file
	sw	a0,-24(s0)
	.loc 1 683 8
	lw	a5,-24(s0)
	bne	a5,zero,.L119
	.loc 1 684 16
	li	a5,-2
	j	.L118
.L119:
	.loc 1 687 10
	lw	a5,-24(s0)
	lw	a5,0(a5)
	sw	a5,-28(s0)
	.loc 1 689 16
	lw	a5,-28(s0)
	lbu	a4,16(a5)
	.loc 1 689 8
	li	a5,3
	bne	a4,a5,.L120
	.loc 1 690 23
	lw	a5,-28(s0)
	lw	a5,0(a5)
	.loc 1 690 30
	lw	a5,60(a5)
	.loc 1 690 12
	beq	a5,zero,.L120
	.loc 1 691 29
	lw	a5,-28(s0)
	lw	a5,0(a5)
	.loc 1 691 36
	lw	a5,60(a5)
	lw	a1,-36(s0)
	lw	a0,-24(s0)
	jalr	a5
.LVL22:
	sw	a0,-20(s0)
.L120:
	.loc 1 694 12
	lw	a5,-20(s0)
.L118:
	.loc 1 695 1
	mv	a0,a5
	lw	ra,44(sp)
	.cfi_restore 1
	lw	s0,40(sp)
	.cfi_restore 8
	.cfi_def_cfa 2, 48
	addi	sp,sp,48
	.cfi_def_cfa_offset 0
	jr	ra
	.cfi_endproc
.LFE22:
	.size	aos_telldir, .-aos_telldir
	.section	.text.aos_seekdir,"ax",@progbits
	.align	1
	.globl	aos_seekdir
	.type	aos_seekdir, @function
aos_seekdir:
.LFB23:
	.loc 1 698 1
	.cfi_startproc
	addi	sp,sp,-48
	.cfi_def_cfa_offset 48
	sw	ra,44(sp)
	sw	s0,40(sp)
	.cfi_offset 1, -4
	.cfi_offset 8, -8
	addi	s0,sp,48
	.cfi_def_cfa 8, 0
	sw	a0,-36(s0)
	sw	a1,-40(s0)
	.loc 1 702 8
	lw	a5,-36(s0)
	beq	a5,zero,.L125
	.loc 1 706 9
	lw	a5,-36(s0)
	lw	a5,0(a5)
	mv	a0,a5
	call	get_file
	sw	a0,-20(s0)
	.loc 1 708 8
	lw	a5,-20(s0)
	beq	a5,zero,.L126
	.loc 1 712 10
	lw	a5,-20(s0)
	lw	a5,0(a5)
	sw	a5,-24(s0)
	.loc 1 714 16
	lw	a5,-24(s0)
	lbu	a4,16(a5)
	.loc 1 714 8
	li	a5,3
	bne	a4,a5,.L121
	.loc 1 715 23
	lw	a5,-24(s0)
	lw	a5,0(a5)
	.loc 1 715 30
	lw	a5,64(a5)
	.loc 1 715 12
	beq	a5,zero,.L121
	.loc 1 716 23
	lw	a5,-24(s0)
	lw	a5,0(a5)
	.loc 1 716 30
	lw	a5,64(a5)
	lw	a2,-40(s0)
	lw	a1,-36(s0)
	lw	a0,-20(s0)
	jalr	a5
.LVL23:
	j	.L121
.L125:
	.loc 1 703 9
	nop
	j	.L121
.L126:
	.loc 1 709 9
	nop
.L121:
	.loc 1 719 1
	lw	ra,44(sp)
	.cfi_restore 1
	lw	s0,40(sp)
	.cfi_restore 8
	.cfi_def_cfa 2, 48
	addi	sp,sp,48
	.cfi_def_cfa_offset 0
	jr	ra
	.cfi_endproc
.LFE23:
	.size	aos_seekdir, .-aos_seekdir
	.section	.text.aos_statfs,"ax",@progbits
	.align	1
	.globl	aos_statfs
	.type	aos_statfs, @function
aos_statfs:
.LFB24:
	.loc 1 722 1
	.cfi_startproc
	addi	sp,sp,-48
	.cfi_def_cfa_offset 48
	sw	ra,44(sp)
	sw	s0,40(sp)
	.cfi_offset 1, -4
	.cfi_offset 8, -8
	addi	s0,sp,48
	.cfi_def_cfa 8, 0
	sw	a0,-36(s0)
	sw	a1,-40(s0)
	.loc 1 725 9
	li	a5,-88
	sw	a5,-24(s0)
	.loc 1 726 9
	li	a5,-88
	sw	a5,-20(s0)
	.loc 1 728 8
	lw	a5,-36(s0)
	bne	a5,zero,.L128
	.loc 1 729 16
	li	a5,-22
	j	.L129
.L128:
	.loc 1 732 16
	lui	a5,%hi(g_vfs_mutex)
	lw	a5,%lo(g_vfs_mutex)(a5)
	li	a1,-1
	mv	a0,a5
	call	xQueueSemaphoreTake
	sw	a0,-24(s0)
	.loc 1 732 8 discriminator 1
	lw	a5,-24(s0)
	beq	a5,zero,.L130
	.loc 1 733 16
	lw	a5,-24(s0)
	j	.L129
.L130:
	.loc 1 736 12
	lw	a0,-36(s0)
	call	inode_open
	sw	a0,-28(s0)
	.loc 1 738 8
	lw	a5,-28(s0)
	bne	a5,zero,.L131
	.loc 1 739 9
	lui	a5,%hi(g_vfs_mutex)
	lw	a5,%lo(g_vfs_mutex)(a5)
	li	a3,0
	li	a2,0
	li	a1,0
	mv	a0,a5
	call	xQueueGenericSend
	.loc 1 740 16
	li	a5,-19
	j	.L129
.L131:
	.loc 1 743 12
	lw	a0,-28(s0)
	call	new_file
	sw	a0,-32(s0)
	.loc 1 745 5
	lui	a5,%hi(g_vfs_mutex)
	lw	a5,%lo(g_vfs_mutex)(a5)
	li	a3,0
	li	a2,0
	li	a1,0
	mv	a0,a5
	call	xQueueGenericSend
	.loc 1 747 8
	lw	a5,-32(s0)
	bne	a5,zero,.L132
	.loc 1 748 16
	li	a5,-2
	j	.L129
.L132:
	.loc 1 751 16
	lw	a5,-28(s0)
	lbu	a4,16(a5)
	.loc 1 751 8
	li	a5,3
	bne	a4,a5,.L133
	.loc 1 752 23
	lw	a5,-28(s0)
	lw	a5,0(a5)
	.loc 1 752 30
	lw	a5,72(a5)
	.loc 1 752 12
	beq	a5,zero,.L133
	.loc 1 753 29
	lw	a5,-28(s0)
	lw	a5,0(a5)
	.loc 1 753 36
	lw	a5,72(a5)
	lw	a2,-40(s0)
	lw	a1,-36(s0)
	lw	a0,-32(s0)
	jalr	a5
.LVL24:
	sw	a0,-20(s0)
.L133:
	.loc 1 757 16
	lui	a5,%hi(g_vfs_mutex)
	lw	a5,%lo(g_vfs_mutex)(a5)
	li	a1,-1
	mv	a0,a5
	call	xQueueSemaphoreTake
	sw	a0,-24(s0)
	.loc 1 757 8 discriminator 1
	lw	a5,-24(s0)
	beq	a5,zero,.L134
	.loc 1 758 16
	lw	a5,-24(s0)
	j	.L129
.L134:
	.loc 1 761 5
	lw	a0,-32(s0)
	call	del_file
	.loc 1 763 5
	lui	a5,%hi(g_vfs_mutex)
	lw	a5,%lo(g_vfs_mutex)(a5)
	li	a3,0
	li	a2,0
	li	a1,0
	mv	a0,a5
	call	xQueueGenericSend
	.loc 1 765 12
	lw	a5,-20(s0)
.L129:
	.loc 1 766 1
	mv	a0,a5
	lw	ra,44(sp)
	.cfi_restore 1
	lw	s0,40(sp)
	.cfi_restore 8
	.cfi_def_cfa 2, 48
	addi	sp,sp,48
	.cfi_def_cfa_offset 0
	jr	ra
	.cfi_endproc
.LFE24:
	.size	aos_statfs, .-aos_statfs
	.section	.text.aos_access,"ax",@progbits
	.align	1
	.globl	aos_access
	.type	aos_access, @function
aos_access:
.LFB25:
	.loc 1 769 1
	.cfi_startproc
	addi	sp,sp,-48
	.cfi_def_cfa_offset 48
	sw	ra,44(sp)
	sw	s0,40(sp)
	.cfi_offset 1, -4
	.cfi_offset 8, -8
	addi	s0,sp,48
	.cfi_def_cfa 8, 0
	sw	a0,-36(s0)
	sw	a1,-40(s0)
	.loc 1 772 9
	li	a5,-88
	sw	a5,-24(s0)
	.loc 1 773 9
	li	a5,-88
	sw	a5,-20(s0)
	.loc 1 775 8
	lw	a5,-36(s0)
	bne	a5,zero,.L136
	.loc 1 776 16
	li	a5,-22
	j	.L137
.L136:
	.loc 1 779 34
	lui	a5,%hi(g_vfs_mutex)
	lw	a5,%lo(g_vfs_mutex)(a5)
	li	a1,-1
	mv	a0,a5
	call	xQueueSemaphoreTake
	mv	a4,a0
	.loc 1 779 8 discriminator 1
	li	a5,1
	beq	a4,a5,.L138
	.loc 1 780 16
	lw	a5,-24(s0)
	j	.L137
.L138:
	.loc 1 783 12
	lw	a0,-36(s0)
	call	inode_open
	sw	a0,-28(s0)
	.loc 1 785 8
	lw	a5,-28(s0)
	bne	a5,zero,.L139
	.loc 1 786 9
	lui	a5,%hi(g_vfs_mutex)
	lw	a5,%lo(g_vfs_mutex)(a5)
	li	a3,0
	li	a2,0
	li	a1,0
	mv	a0,a5
	call	xQueueGenericSend
	.loc 1 787 16
	li	a5,-19
	j	.L137
.L139:
	.loc 1 790 12
	lw	a0,-28(s0)
	call	new_file
	sw	a0,-32(s0)
	.loc 1 792 5
	lui	a5,%hi(g_vfs_mutex)
	lw	a5,%lo(g_vfs_mutex)(a5)
	li	a3,0
	li	a2,0
	li	a1,0
	mv	a0,a5
	call	xQueueGenericSend
	.loc 1 794 8
	lw	a5,-32(s0)
	bne	a5,zero,.L140
	.loc 1 795 16
	li	a5,-2
	j	.L137
.L140:
	.loc 1 798 16
	lw	a5,-28(s0)
	lbu	a4,16(a5)
	.loc 1 798 8
	li	a5,3
	bne	a4,a5,.L141
	.loc 1 799 23
	lw	a5,-28(s0)
	lw	a5,0(a5)
	.loc 1 799 30
	lw	a5,76(a5)
	.loc 1 799 12
	beq	a5,zero,.L141
	.loc 1 800 29
	lw	a5,-28(s0)
	lw	a5,0(a5)
	.loc 1 800 36
	lw	a5,76(a5)
	lw	a2,-40(s0)
	lw	a1,-36(s0)
	lw	a0,-32(s0)
	jalr	a5
.LVL25:
	sw	a0,-20(s0)
.L141:
	.loc 1 804 34
	lui	a5,%hi(g_vfs_mutex)
	lw	a5,%lo(g_vfs_mutex)(a5)
	li	a1,-1
	mv	a0,a5
	call	xQueueSemaphoreTake
	mv	a4,a0
	.loc 1 804 8 discriminator 1
	li	a5,1
	beq	a4,a5,.L142
	.loc 1 805 16
	lw	a5,-24(s0)
	j	.L137
.L142:
	.loc 1 808 5
	lw	a0,-32(s0)
	call	del_file
	.loc 1 810 5
	lui	a5,%hi(g_vfs_mutex)
	lw	a5,%lo(g_vfs_mutex)(a5)
	li	a3,0
	li	a2,0
	li	a1,0
	mv	a0,a5
	call	xQueueGenericSend
	.loc 1 811 12
	lw	a5,-20(s0)
.L137:
	.loc 1 812 1
	mv	a0,a5
	lw	ra,44(sp)
	.cfi_restore 1
	lw	s0,40(sp)
	.cfi_restore 8
	.cfi_def_cfa 2, 48
	addi	sp,sp,48
	.cfi_def_cfa_offset 0
	jr	ra
	.cfi_endproc
.LFE25:
	.size	aos_access, .-aos_access
	.text
.Letext0:
	.file 2 "/home/chandu/sdk/bl602_iot_sdk/toolchain/compiler/lib/gcc/riscv32-unknown-elf/15.1.0/include/stddef.h"
	.file 3 "/home/chandu/sdk/bl602_iot_sdk/toolchain/compiler/lib/gcc/riscv32-unknown-elf/15.1.0/include/stdint-gcc.h"
	.file 4 "/home/chandu/sdk/bl602_iot_sdk/components/freertos/portable/GCC/RISC-V/portmacro.h"
	.file 5 "/home/chandu/sdk/bl602_iot_sdk/components/freertos/include/FreeRTOS.h"
	.file 6 "/home/chandu/sdk/bl602_iot_sdk/components/freertos/include/queue.h"
	.file 7 "/home/chandu/sdk/bl602_iot_sdk/components/freertos/include/semphr.h"
	.file 8 "/home/chandu/sdk/bl602_iot_sdk/toolchain/compiler/riscv32-unknown-elf/include/machine/_default_types.h"
	.file 9 "/home/chandu/sdk/bl602_iot_sdk/toolchain/compiler/riscv32-unknown-elf/include/sys/_types.h"
	.file 10 "/home/chandu/sdk/bl602_iot_sdk/toolchain/compiler/riscv32-unknown-elf/include/sys/_timeval.h"
	.file 11 "/home/chandu/sdk/bl602_iot_sdk/toolchain/compiler/riscv32-unknown-elf/include/sys/_timespec.h"
	.file 12 "/home/chandu/sdk/bl602_iot_sdk/toolchain/compiler/riscv32-unknown-elf/include/sys/types.h"
	.file 13 "/home/chandu/sdk/bl602_iot_sdk/toolchain/compiler/riscv32-unknown-elf/include/sys/stat.h"
	.file 14 "/home/chandu/sdk/bl602_iot_sdk/components/fs/vfs/include/vfs_dir.h"
	.file 15 "/home/chandu/sdk/bl602_iot_sdk/components/fs/vfs/include/vfs_inode.h"
	.file 16 "/home/chandu/sdk/bl602_iot_sdk/components/fs/vfs/include/vfs_file.h"
	.file 17 "/home/chandu/sdk/bl602_iot_sdk/toolchain/compiler/riscv32-unknown-elf/include/string.h"
	.section	.note.GNU-stack,"",@progbits
