	.file	"altcp_tcp.c"
	.option nopic
	.attribute arch, "rv32i2p1_m2p0_f2p2_c2p0_zicsr2p0_zmmul1p0_zca1p0_zcf1p0"
	.attribute unaligned_access, 0
	.attribute stack_align, 16
	.text
.Ltext0:
	.cfi_sections	.debug_frame
	.file 0 "/home/chandu/sdk/bl602_iot_sdk/customer_app/suas_app_pqkem_gateway/build_out/lwip" "/home/chandu/sdk/bl602_iot_sdk/components/network/lwip/src/core/altcp_tcp.c"
	.section	.text.altcp_tcp_accept,"ax",@progbits
	.align	1
	.type	altcp_tcp_accept, @function
altcp_tcp_accept:
.LFB5:
	.file 1 "/home/chandu/sdk/bl602_iot_sdk/components/network/lwip/src/core/altcp_tcp.c"
	.loc 1 76 1
	.cfi_startproc
	addi	sp,sp,-48
	.cfi_def_cfa_offset 48
	sw	ra,44(sp)
	sw	s0,40(sp)
	.cfi_offset 1, -4
	.cfi_offset 8, -8
	addi	s0,sp,48
	.cfi_def_cfa 8, 0
	sw	a0,-36(s0)
	sw	a1,-40(s0)
	mv	a5,a2
	sb	a5,-41(s0)
	.loc 1 77 21
	lw	a5,-36(s0)
	sw	a5,-20(s0)
	.loc 1 78 6
	lw	a5,-40(s0)
	beq	a5,zero,.L2
	.loc 1 78 16 discriminator 1
	lw	a5,-20(s0)
	beq	a5,zero,.L2
	.loc 1 78 45 discriminator 2
	lw	a5,-20(s0)
	lw	a5,16(a5)
	.loc 1 78 31 discriminator 2
	beq	a5,zero,.L2
.LBB2:
	.loc 1 80 34
	call	altcp_alloc
	sw	a0,-24(s0)
	.loc 1 81 8
	lw	a5,-24(s0)
	bne	a5,zero,.L3
	.loc 1 82 14
	li	a5,-1
	j	.L4
.L3:
	.loc 1 84 5
	lw	a1,-40(s0)
	lw	a0,-24(s0)
	call	altcp_tcp_setup
	.loc 1 85 23
	lw	a5,-20(s0)
	lw	a5,16(a5)
	.loc 1 85 12
	lw	a4,-20(s0)
	lw	a4,8(a4)
	lb	a3,-41(s0)
	mv	a2,a3
	lw	a1,-24(s0)
	mv	a0,a4
	jalr	a5
.LVL0:
	mv	a5,a0
	j	.L4
.L2:
.LBE2:
	.loc 1 87 10
	li	a5,-16
.L4:
	.loc 1 88 1
	mv	a0,a5
	lw	ra,44(sp)
	.cfi_restore 1
	lw	s0,40(sp)
	.cfi_restore 8
	.cfi_def_cfa 2, 48
	addi	sp,sp,48
	.cfi_def_cfa_offset 0
	jr	ra
	.cfi_endproc
.LFE5:
	.size	altcp_tcp_accept, .-altcp_tcp_accept
	.section	.text.altcp_tcp_connected,"ax",@progbits
	.align	1
	.type	altcp_tcp_connected, @function
altcp_tcp_connected:
.LFB6:
	.loc 1 92 1
	.cfi_startproc
	addi	sp,sp,-48
	.cfi_def_cfa_offset 48
	sw	ra,44(sp)
	sw	s0,40(sp)
	.cfi_offset 1, -4
	.cfi_offset 8, -8
	addi	s0,sp,48
	.cfi_def_cfa 8, 0
	sw	a0,-36(s0)
	sw	a1,-40(s0)
	mv	a5,a2
	sb	a5,-41(s0)
	.loc 1 93 21
	lw	a5,-36(s0)
	sw	a5,-20(s0)
	.loc 1 94 6
	lw	a5,-20(s0)
	beq	a5,zero,.L6
	.loc 1 96 13
	lw	a5,-20(s0)
	lw	a5,20(a5)
	.loc 1 96 8
	beq	a5,zero,.L6
	.loc 1 97 18
	lw	a5,-20(s0)
	lw	a5,20(a5)
	.loc 1 97 14
	lw	a4,-20(s0)
	lw	a4,8(a4)
	lb	a3,-41(s0)
	mv	a2,a3
	lw	a1,-20(s0)
	mv	a0,a4
	jalr	a5
.LVL1:
	mv	a5,a0
	j	.L7
.L6:
	.loc 1 100 10
	li	a5,0
.L7:
	.loc 1 101 1
	mv	a0,a5
	lw	ra,44(sp)
	.cfi_restore 1
	lw	s0,40(sp)
	.cfi_restore 8
	.cfi_def_cfa 2, 48
	addi	sp,sp,48
	.cfi_def_cfa_offset 0
	jr	ra
	.cfi_endproc
.LFE6:
	.size	altcp_tcp_connected, .-altcp_tcp_connected
	.section	.text.altcp_tcp_recv,"ax",@progbits
	.align	1
	.type	altcp_tcp_recv, @function
altcp_tcp_recv:
.LFB7:
	.loc 1 105 1
	.cfi_startproc
	addi	sp,sp,-48
	.cfi_def_cfa_offset 48
	sw	ra,44(sp)
	sw	s0,40(sp)
	.cfi_offset 1, -4
	.cfi_offset 8, -8
	addi	s0,sp,48
	.cfi_def_cfa 8, 0
	sw	a0,-36(s0)
	sw	a1,-40(s0)
	sw	a2,-44(s0)
	mv	a5,a3
	sb	a5,-45(s0)
	.loc 1 106 21
	lw	a5,-36(s0)
	sw	a5,-20(s0)
	.loc 1 107 6
	lw	a5,-20(s0)
	beq	a5,zero,.L9
	.loc 1 109 13
	lw	a5,-20(s0)
	lw	a5,24(a5)
	.loc 1 109 8
	beq	a5,zero,.L9
	.loc 1 110 18
	lw	a5,-20(s0)
	lw	a5,24(a5)
	.loc 1 110 14
	lw	a4,-20(s0)
	lw	a4,8(a4)
	lb	a3,-45(s0)
	lw	a2,-44(s0)
	lw	a1,-20(s0)
	mv	a0,a4
	jalr	a5
.LVL2:
	mv	a5,a0
	j	.L10
.L9:
	.loc 1 113 6
	lw	a5,-44(s0)
	beq	a5,zero,.L11
	.loc 1 115 5
	lw	a0,-44(s0)
	call	pbuf_free
.L11:
	.loc 1 117 10
	li	a5,0
.L10:
	.loc 1 118 1
	mv	a0,a5
	lw	ra,44(sp)
	.cfi_restore 1
	lw	s0,40(sp)
	.cfi_restore 8
	.cfi_def_cfa 2, 48
	addi	sp,sp,48
	.cfi_def_cfa_offset 0
	jr	ra
	.cfi_endproc
.LFE7:
	.size	altcp_tcp_recv, .-altcp_tcp_recv
	.section	.text.altcp_tcp_sent,"ax",@progbits
	.align	1
	.type	altcp_tcp_sent, @function
altcp_tcp_sent:
.LFB8:
	.loc 1 122 1
	.cfi_startproc
	addi	sp,sp,-48
	.cfi_def_cfa_offset 48
	sw	ra,44(sp)
	sw	s0,40(sp)
	.cfi_offset 1, -4
	.cfi_offset 8, -8
	addi	s0,sp,48
	.cfi_def_cfa 8, 0
	sw	a0,-36(s0)
	sw	a1,-40(s0)
	mv	a5,a2
	sh	a5,-42(s0)
	.loc 1 123 21
	lw	a5,-36(s0)
	sw	a5,-20(s0)
	.loc 1 124 6
	lw	a5,-20(s0)
	beq	a5,zero,.L13
	.loc 1 126 13
	lw	a5,-20(s0)
	lw	a5,28(a5)
	.loc 1 126 8
	beq	a5,zero,.L13
	.loc 1 127 18
	lw	a5,-20(s0)
	lw	a5,28(a5)
	.loc 1 127 14
	lw	a4,-20(s0)
	lw	a4,8(a4)
	lhu	a3,-42(s0)
	mv	a2,a3
	lw	a1,-20(s0)
	mv	a0,a4
	jalr	a5
.LVL3:
	mv	a5,a0
	j	.L14
.L13:
	.loc 1 130 10
	li	a5,0
.L14:
	.loc 1 131 1
	mv	a0,a5
	lw	ra,44(sp)
	.cfi_restore 1
	lw	s0,40(sp)
	.cfi_restore 8
	.cfi_def_cfa 2, 48
	addi	sp,sp,48
	.cfi_def_cfa_offset 0
	jr	ra
	.cfi_endproc
.LFE8:
	.size	altcp_tcp_sent, .-altcp_tcp_sent
	.section	.text.altcp_tcp_poll,"ax",@progbits
	.align	1
	.type	altcp_tcp_poll, @function
altcp_tcp_poll:
.LFB9:
	.loc 1 135 1
	.cfi_startproc
	addi	sp,sp,-48
	.cfi_def_cfa_offset 48
	sw	ra,44(sp)
	sw	s0,40(sp)
	.cfi_offset 1, -4
	.cfi_offset 8, -8
	addi	s0,sp,48
	.cfi_def_cfa 8, 0
	sw	a0,-36(s0)
	sw	a1,-40(s0)
	.loc 1 136 21
	lw	a5,-36(s0)
	sw	a5,-20(s0)
	.loc 1 137 6
	lw	a5,-20(s0)
	beq	a5,zero,.L16
	.loc 1 139 13
	lw	a5,-20(s0)
	lw	a5,32(a5)
	.loc 1 139 8
	beq	a5,zero,.L16
	.loc 1 140 18
	lw	a5,-20(s0)
	lw	a5,32(a5)
	.loc 1 140 14
	lw	a4,-20(s0)
	lw	a4,8(a4)
	lw	a1,-20(s0)
	mv	a0,a4
	jalr	a5
.LVL4:
	mv	a5,a0
	j	.L17
.L16:
	.loc 1 143 10
	li	a5,0
.L17:
	.loc 1 144 1
	mv	a0,a5
	lw	ra,44(sp)
	.cfi_restore 1
	lw	s0,40(sp)
	.cfi_restore 8
	.cfi_def_cfa 2, 48
	addi	sp,sp,48
	.cfi_def_cfa_offset 0
	jr	ra
	.cfi_endproc
.LFE9:
	.size	altcp_tcp_poll, .-altcp_tcp_poll
	.section	.text.altcp_tcp_err,"ax",@progbits
	.align	1
	.type	altcp_tcp_err, @function
altcp_tcp_err:
.LFB10:
	.loc 1 148 1
	.cfi_startproc
	addi	sp,sp,-48
	.cfi_def_cfa_offset 48
	sw	ra,44(sp)
	sw	s0,40(sp)
	.cfi_offset 1, -4
	.cfi_offset 8, -8
	addi	s0,sp,48
	.cfi_def_cfa 8, 0
	sw	a0,-36(s0)
	mv	a5,a1
	sb	a5,-37(s0)
	.loc 1 149 21
	lw	a5,-36(s0)
	sw	a5,-20(s0)
	.loc 1 150 6
	lw	a5,-20(s0)
	beq	a5,zero,.L21
	.loc 1 151 17
	lw	a5,-20(s0)
	sw	zero,12(a5)
	.loc 1 152 13
	lw	a5,-20(s0)
	lw	a5,36(a5)
	.loc 1 152 8
	beq	a5,zero,.L20
	.loc 1 153 11
	lw	a5,-20(s0)
	lw	a5,36(a5)
	.loc 1 153 7
	lw	a4,-20(s0)
	lw	a4,8(a4)
	lb	a3,-37(s0)
	mv	a1,a3
	mv	a0,a4
	jalr	a5
.LVL5:
.L20:
	.loc 1 155 5
	lw	a0,-20(s0)
	call	altcp_free
.L21:
	.loc 1 157 1
	nop
	lw	ra,44(sp)
	.cfi_restore 1
	lw	s0,40(sp)
	.cfi_restore 8
	.cfi_def_cfa 2, 48
	addi	sp,sp,48
	.cfi_def_cfa_offset 0
	jr	ra
	.cfi_endproc
.LFE10:
	.size	altcp_tcp_err, .-altcp_tcp_err
	.section	.text.altcp_tcp_remove_callbacks,"ax",@progbits
	.align	1
	.type	altcp_tcp_remove_callbacks, @function
altcp_tcp_remove_callbacks:
.LFB11:
	.loc 1 163 1
	.cfi_startproc
	addi	sp,sp,-32
	.cfi_def_cfa_offset 32
	sw	ra,28(sp)
	sw	s0,24(sp)
	.cfi_offset 1, -4
	.cfi_offset 8, -8
	addi	s0,sp,32
	.cfi_def_cfa 8, 0
	sw	a0,-20(s0)
	.loc 1 164 3
	li	a1,0
	lw	a0,-20(s0)
	call	tcp_arg
	.loc 1 165 11
	lw	a5,-20(s0)
	lbu	a4,20(a5)
	.loc 1 165 6
	li	a5,1
	beq	a4,a5,.L24
	.loc 1 166 5
	li	a1,0
	lw	a0,-20(s0)
	call	tcp_recv
	.loc 1 167 5
	li	a1,0
	lw	a0,-20(s0)
	call	tcp_sent
	.loc 1 168 5
	li	a1,0
	lw	a0,-20(s0)
	call	tcp_err
	.loc 1 169 5
	lw	a5,-20(s0)
	lbu	a5,29(a5)
	mv	a2,a5
	li	a1,0
	lw	a0,-20(s0)
	call	tcp_poll
.L24:
	.loc 1 171 1
	nop
	lw	ra,28(sp)
	.cfi_restore 1
	lw	s0,24(sp)
	.cfi_restore 8
	.cfi_def_cfa 2, 32
	addi	sp,sp,32
	.cfi_def_cfa_offset 0
	jr	ra
	.cfi_endproc
.LFE11:
	.size	altcp_tcp_remove_callbacks, .-altcp_tcp_remove_callbacks
	.section	.text.altcp_tcp_setup_callbacks,"ax",@progbits
	.align	1
	.type	altcp_tcp_setup_callbacks, @function
altcp_tcp_setup_callbacks:
.LFB12:
	.loc 1 175 1
	.cfi_startproc
	addi	sp,sp,-32
	.cfi_def_cfa_offset 32
	sw	ra,28(sp)
	sw	s0,24(sp)
	.cfi_offset 1, -4
	.cfi_offset 8, -8
	addi	s0,sp,32
	.cfi_def_cfa 8, 0
	sw	a0,-20(s0)
	sw	a1,-24(s0)
	.loc 1 176 3
	lw	a1,-20(s0)
	lw	a0,-24(s0)
	call	tcp_arg
	.loc 1 178 11
	lw	a5,-24(s0)
	lbu	a4,20(a5)
	.loc 1 178 6
	li	a5,1
	beq	a4,a5,.L27
	.loc 1 179 5
	lui	a5,%hi(altcp_tcp_recv)
	addi	a1,a5,%lo(altcp_tcp_recv)
	lw	a0,-24(s0)
	call	tcp_recv
	.loc 1 180 5
	lui	a5,%hi(altcp_tcp_sent)
	addi	a1,a5,%lo(altcp_tcp_sent)
	lw	a0,-24(s0)
	call	tcp_sent
	.loc 1 181 5
	lui	a5,%hi(altcp_tcp_err)
	addi	a1,a5,%lo(altcp_tcp_err)
	lw	a0,-24(s0)
	call	tcp_err
.L27:
	.loc 1 184 1
	nop
	lw	ra,28(sp)
	.cfi_restore 1
	lw	s0,24(sp)
	.cfi_restore 8
	.cfi_def_cfa 2, 32
	addi	sp,sp,32
	.cfi_def_cfa_offset 0
	jr	ra
	.cfi_endproc
.LFE12:
	.size	altcp_tcp_setup_callbacks, .-altcp_tcp_setup_callbacks
	.section	.text.altcp_tcp_setup,"ax",@progbits
	.align	1
	.type	altcp_tcp_setup, @function
altcp_tcp_setup:
.LFB13:
	.loc 1 188 1
	.cfi_startproc
	addi	sp,sp,-32
	.cfi_def_cfa_offset 32
	sw	ra,28(sp)
	sw	s0,24(sp)
	.cfi_offset 1, -4
	.cfi_offset 8, -8
	addi	s0,sp,32
	.cfi_def_cfa 8, 0
	sw	a0,-20(s0)
	sw	a1,-24(s0)
	.loc 1 189 3
	lw	a1,-24(s0)
	lw	a0,-20(s0)
	call	altcp_tcp_setup_callbacks
	.loc 1 190 15
	lw	a5,-20(s0)
	lw	a4,-24(s0)
	sw	a4,12(a5)
	.loc 1 191 13
	lw	a5,-20(s0)
	lui	a4,%hi(altcp_tcp_functions)
	addi	a4,a4,%lo(altcp_tcp_functions)
	sw	a4,0(a5)
	.loc 1 192 1
	nop
	lw	ra,28(sp)
	.cfi_restore 1
	lw	s0,24(sp)
	.cfi_restore 8
	.cfi_def_cfa 2, 32
	addi	sp,sp,32
	.cfi_def_cfa_offset 0
	jr	ra
	.cfi_endproc
.LFE13:
	.size	altcp_tcp_setup, .-altcp_tcp_setup
	.section	.text.altcp_tcp_new_ip_type,"ax",@progbits
	.align	1
	.globl	altcp_tcp_new_ip_type
	.type	altcp_tcp_new_ip_type, @function
altcp_tcp_new_ip_type:
.LFB14:
	.loc 1 196 1
	.cfi_startproc
	addi	sp,sp,-48
	.cfi_def_cfa_offset 48
	sw	ra,44(sp)
	sw	s0,40(sp)
	.cfi_offset 1, -4
	.cfi_offset 8, -8
	addi	s0,sp,48
	.cfi_def_cfa 8, 0
	mv	a5,a0
	sb	a5,-33(s0)
	.loc 1 199 26
	lbu	a5,-33(s0)
	mv	a0,a5
	call	tcp_new_ip_type
	sw	a0,-20(s0)
	.loc 1 200 6
	lw	a5,-20(s0)
	beq	a5,zero,.L30
.LBB3:
	.loc 1 201 29
	call	altcp_alloc
	sw	a0,-24(s0)
	.loc 1 202 8
	lw	a5,-24(s0)
	beq	a5,zero,.L31
	.loc 1 203 7
	lw	a1,-20(s0)
	lw	a0,-24(s0)
	call	altcp_tcp_setup
	.loc 1 204 14
	lw	a5,-24(s0)
	j	.L32
.L31:
	.loc 1 207 7
	lw	a0,-20(s0)
	call	tcp_close
.L30:
.LBE3:
	.loc 1 210 9
	li	a5,0
.L32:
	.loc 1 211 1
	mv	a0,a5
	lw	ra,44(sp)
	.cfi_restore 1
	lw	s0,40(sp)
	.cfi_restore 8
	.cfi_def_cfa 2, 48
	addi	sp,sp,48
	.cfi_def_cfa_offset 0
	jr	ra
	.cfi_endproc
.LFE14:
	.size	altcp_tcp_new_ip_type, .-altcp_tcp_new_ip_type
	.section	.text.altcp_tcp_alloc,"ax",@progbits
	.align	1
	.globl	altcp_tcp_alloc
	.type	altcp_tcp_alloc, @function
altcp_tcp_alloc:
.LFB15:
	.loc 1 219 1
	.cfi_startproc
	addi	sp,sp,-32
	.cfi_def_cfa_offset 32
	sw	ra,28(sp)
	sw	s0,24(sp)
	.cfi_offset 1, -4
	.cfi_offset 8, -8
	addi	s0,sp,32
	.cfi_def_cfa 8, 0
	sw	a0,-20(s0)
	mv	a5,a1
	sb	a5,-21(s0)
	.loc 1 221 10
	lbu	a5,-21(s0)
	mv	a0,a5
	call	altcp_tcp_new_ip_type
	mv	a5,a0
	.loc 1 222 1
	mv	a0,a5
	lw	ra,28(sp)
	.cfi_restore 1
	lw	s0,24(sp)
	.cfi_restore 8
	.cfi_def_cfa 2, 32
	addi	sp,sp,32
	.cfi_def_cfa_offset 0
	jr	ra
	.cfi_endproc
.LFE15:
	.size	altcp_tcp_alloc, .-altcp_tcp_alloc
	.section	.text.altcp_tcp_wrap,"ax",@progbits
	.align	1
	.globl	altcp_tcp_wrap
	.type	altcp_tcp_wrap, @function
altcp_tcp_wrap:
.LFB16:
	.loc 1 226 1
	.cfi_startproc
	addi	sp,sp,-48
	.cfi_def_cfa_offset 48
	sw	ra,44(sp)
	sw	s0,40(sp)
	.cfi_offset 1, -4
	.cfi_offset 8, -8
	addi	s0,sp,48
	.cfi_def_cfa 8, 0
	sw	a0,-36(s0)
	.loc 1 227 6
	lw	a5,-36(s0)
	beq	a5,zero,.L36
.LBB4:
	.loc 1 228 29
	call	altcp_alloc
	sw	a0,-20(s0)
	.loc 1 229 8
	lw	a5,-20(s0)
	beq	a5,zero,.L36
	.loc 1 230 7
	lw	a1,-36(s0)
	lw	a0,-20(s0)
	call	altcp_tcp_setup
	.loc 1 231 14
	lw	a5,-20(s0)
	j	.L37
.L36:
.LBE4:
	.loc 1 234 9
	li	a5,0
.L37:
	.loc 1 235 1
	mv	a0,a5
	lw	ra,44(sp)
	.cfi_restore 1
	lw	s0,40(sp)
	.cfi_restore 8
	.cfi_def_cfa 2, 48
	addi	sp,sp,48
	.cfi_def_cfa_offset 0
	jr	ra
	.cfi_endproc
.LFE16:
	.size	altcp_tcp_wrap, .-altcp_tcp_wrap
	.section	.text.altcp_tcp_set_poll,"ax",@progbits
	.align	1
	.type	altcp_tcp_set_poll, @function
altcp_tcp_set_poll:
.LFB17:
	.loc 1 241 1
	.cfi_startproc
	addi	sp,sp,-48
	.cfi_def_cfa_offset 48
	sw	ra,44(sp)
	sw	s0,40(sp)
	.cfi_offset 1, -4
	.cfi_offset 8, -8
	addi	s0,sp,48
	.cfi_def_cfa 8, 0
	sw	a0,-36(s0)
	mv	a5,a1
	sb	a5,-37(s0)
	.loc 1 242 6
	lw	a5,-36(s0)
	beq	a5,zero,.L40
.LBB5:
	.loc 1 243 21
	lw	a5,-36(s0)
	lw	a5,12(a5)
	sw	a5,-20(s0)
	.loc 1 245 5
	lbu	a5,-37(s0)
	mv	a2,a5
	lui	a5,%hi(altcp_tcp_poll)
	addi	a1,a5,%lo(altcp_tcp_poll)
	lw	a0,-20(s0)
	call	tcp_poll
.L40:
.LBE5:
	.loc 1 247 1
	nop
	lw	ra,44(sp)
	.cfi_restore 1
	lw	s0,40(sp)
	.cfi_restore 8
	.cfi_def_cfa 2, 48
	addi	sp,sp,48
	.cfi_def_cfa_offset 0
	jr	ra
	.cfi_endproc
.LFE17:
	.size	altcp_tcp_set_poll, .-altcp_tcp_set_poll
	.section	.text.altcp_tcp_recved,"ax",@progbits
	.align	1
	.type	altcp_tcp_recved, @function
altcp_tcp_recved:
.LFB18:
	.loc 1 251 1
	.cfi_startproc
	addi	sp,sp,-48
	.cfi_def_cfa_offset 48
	sw	ra,44(sp)
	sw	s0,40(sp)
	.cfi_offset 1, -4
	.cfi_offset 8, -8
	addi	s0,sp,48
	.cfi_def_cfa 8, 0
	sw	a0,-36(s0)
	mv	a5,a1
	sh	a5,-38(s0)
	.loc 1 252 6
	lw	a5,-36(s0)
	beq	a5,zero,.L43
.LBB6:
	.loc 1 253 21
	lw	a5,-36(s0)
	lw	a5,12(a5)
	sw	a5,-20(s0)
	.loc 1 255 5
	lhu	a5,-38(s0)
	mv	a1,a5
	lw	a0,-20(s0)
	call	tcp_recved
.L43:
.LBE6:
	.loc 1 257 1
	nop
	lw	ra,44(sp)
	.cfi_restore 1
	lw	s0,40(sp)
	.cfi_restore 8
	.cfi_def_cfa 2, 48
	addi	sp,sp,48
	.cfi_def_cfa_offset 0
	jr	ra
	.cfi_endproc
.LFE18:
	.size	altcp_tcp_recved, .-altcp_tcp_recved
	.section	.text.altcp_tcp_bind,"ax",@progbits
	.align	1
	.type	altcp_tcp_bind, @function
altcp_tcp_bind:
.LFB19:
	.loc 1 261 1
	.cfi_startproc
	addi	sp,sp,-48
	.cfi_def_cfa_offset 48
	sw	ra,44(sp)
	sw	s0,40(sp)
	.cfi_offset 1, -4
	.cfi_offset 8, -8
	addi	s0,sp,48
	.cfi_def_cfa 8, 0
	sw	a0,-36(s0)
	sw	a1,-40(s0)
	mv	a5,a2
	sh	a5,-42(s0)
	.loc 1 263 6
	lw	a5,-36(s0)
	bne	a5,zero,.L45
	.loc 1 264 12
	li	a5,-6
	j	.L46
.L45:
	.loc 1 267 7
	lw	a5,-36(s0)
	lw	a5,12(a5)
	sw	a5,-20(s0)
	.loc 1 268 10
	lhu	a5,-42(s0)
	mv	a2,a5
	lw	a1,-40(s0)
	lw	a0,-20(s0)
	call	tcp_bind
	mv	a5,a0
.L46:
	.loc 1 269 1
	mv	a0,a5
	lw	ra,44(sp)
	.cfi_restore 1
	lw	s0,40(sp)
	.cfi_restore 8
	.cfi_def_cfa 2, 48
	addi	sp,sp,48
	.cfi_def_cfa_offset 0
	jr	ra
	.cfi_endproc
.LFE19:
	.size	altcp_tcp_bind, .-altcp_tcp_bind
	.section	.text.altcp_tcp_connect,"ax",@progbits
	.align	1
	.type	altcp_tcp_connect, @function
altcp_tcp_connect:
.LFB20:
	.loc 1 273 1
	.cfi_startproc
	addi	sp,sp,-48
	.cfi_def_cfa_offset 48
	sw	ra,44(sp)
	sw	s0,40(sp)
	.cfi_offset 1, -4
	.cfi_offset 8, -8
	addi	s0,sp,48
	.cfi_def_cfa 8, 0
	sw	a0,-36(s0)
	sw	a1,-40(s0)
	mv	a5,a2
	sw	a3,-48(s0)
	sh	a5,-42(s0)
	.loc 1 275 6
	lw	a5,-36(s0)
	bne	a5,zero,.L48
	.loc 1 276 12
	li	a5,-6
	j	.L49
.L48:
	.loc 1 279 19
	lw	a5,-36(s0)
	lw	a4,-48(s0)
	sw	a4,20(a5)
	.loc 1 280 7
	lw	a5,-36(s0)
	lw	a5,12(a5)
	sw	a5,-20(s0)
	.loc 1 281 10
	lhu	a4,-42(s0)
	lui	a5,%hi(altcp_tcp_connected)
	addi	a3,a5,%lo(altcp_tcp_connected)
	mv	a2,a4
	lw	a1,-40(s0)
	lw	a0,-20(s0)
	call	tcp_connect
	mv	a5,a0
.L49:
	.loc 1 282 1
	mv	a0,a5
	lw	ra,44(sp)
	.cfi_restore 1
	lw	s0,40(sp)
	.cfi_restore 8
	.cfi_def_cfa 2, 48
	addi	sp,sp,48
	.cfi_def_cfa_offset 0
	jr	ra
	.cfi_endproc
.LFE20:
	.size	altcp_tcp_connect, .-altcp_tcp_connect
	.section	.text.altcp_tcp_listen,"ax",@progbits
	.align	1
	.type	altcp_tcp_listen, @function
altcp_tcp_listen:
.LFB21:
	.loc 1 286 1
	.cfi_startproc
	addi	sp,sp,-48
	.cfi_def_cfa_offset 48
	sw	ra,44(sp)
	sw	s0,40(sp)
	.cfi_offset 1, -4
	.cfi_offset 8, -8
	addi	s0,sp,48
	.cfi_def_cfa 8, 0
	sw	a0,-36(s0)
	mv	a5,a1
	sw	a2,-44(s0)
	sb	a5,-37(s0)
	.loc 1 289 6
	lw	a5,-36(s0)
	bne	a5,zero,.L51
	.loc 1 290 11
	li	a5,0
	j	.L52
.L51:
	.loc 1 293 7
	lw	a5,-36(s0)
	lw	a5,12(a5)
	sw	a5,-20(s0)
	.loc 1 294 10
	lbu	a5,-37(s0)
	lw	a2,-44(s0)
	mv	a1,a5
	lw	a0,-20(s0)
	call	tcp_listen_with_backlog_and_err
	sw	a0,-24(s0)
	.loc 1 295 6
	lw	a5,-24(s0)
	beq	a5,zero,.L53
	.loc 1 296 17
	lw	a5,-36(s0)
	lw	a4,-24(s0)
	sw	a4,12(a5)
	.loc 1 297 5
	lui	a5,%hi(altcp_tcp_accept)
	addi	a1,a5,%lo(altcp_tcp_accept)
	lw	a0,-24(s0)
	call	tcp_accept
	.loc 1 298 12
	lw	a5,-36(s0)
	j	.L52
.L53:
	.loc 1 300 9
	li	a5,0
.L52:
	.loc 1 301 1
	mv	a0,a5
	lw	ra,44(sp)
	.cfi_restore 1
	lw	s0,40(sp)
	.cfi_restore 8
	.cfi_def_cfa 2, 48
	addi	sp,sp,48
	.cfi_def_cfa_offset 0
	jr	ra
	.cfi_endproc
.LFE21:
	.size	altcp_tcp_listen, .-altcp_tcp_listen
	.section	.text.altcp_tcp_abort,"ax",@progbits
	.align	1
	.type	altcp_tcp_abort, @function
altcp_tcp_abort:
.LFB22:
	.loc 1 305 1
	.cfi_startproc
	addi	sp,sp,-48
	.cfi_def_cfa_offset 48
	sw	ra,44(sp)
	sw	s0,40(sp)
	.cfi_offset 1, -4
	.cfi_offset 8, -8
	addi	s0,sp,48
	.cfi_def_cfa 8, 0
	sw	a0,-36(s0)
	.loc 1 306 6
	lw	a5,-36(s0)
	beq	a5,zero,.L56
.LBB7:
	.loc 1 307 21
	lw	a5,-36(s0)
	lw	a5,12(a5)
	sw	a5,-20(s0)
	.loc 1 309 8
	lw	a5,-20(s0)
	beq	a5,zero,.L56
	.loc 1 310 7
	lw	a0,-20(s0)
	call	tcp_abort
.L56:
.LBE7:
	.loc 1 313 1
	nop
	lw	ra,44(sp)
	.cfi_restore 1
	lw	s0,40(sp)
	.cfi_restore 8
	.cfi_def_cfa 2, 48
	addi	sp,sp,48
	.cfi_def_cfa_offset 0
	jr	ra
	.cfi_endproc
.LFE22:
	.size	altcp_tcp_abort, .-altcp_tcp_abort
	.section	.text.altcp_tcp_close,"ax",@progbits
	.align	1
	.type	altcp_tcp_close, @function
altcp_tcp_close:
.LFB23:
	.loc 1 317 1
	.cfi_startproc
	addi	sp,sp,-48
	.cfi_def_cfa_offset 48
	sw	ra,44(sp)
	sw	s0,40(sp)
	.cfi_offset 1, -4
	.cfi_offset 8, -8
	addi	s0,sp,48
	.cfi_def_cfa 8, 0
	sw	a0,-36(s0)
	.loc 1 319 6
	lw	a5,-36(s0)
	bne	a5,zero,.L58
	.loc 1 320 12
	li	a5,-6
	j	.L59
.L58:
	.loc 1 323 7
	lw	a5,-36(s0)
	lw	a5,12(a5)
	sw	a5,-20(s0)
	.loc 1 324 6
	lw	a5,-20(s0)
	beq	a5,zero,.L60
.LBB8:
	.loc 1 326 17
	lw	a5,-20(s0)
	lw	a5,140(a5)
	sw	a5,-24(s0)
	.loc 1 327 5
	lw	a0,-20(s0)
	call	altcp_tcp_remove_callbacks
	.loc 1 328 11
	lw	a0,-20(s0)
	call	tcp_close
	mv	a5,a0
	sb	a5,-25(s0)
	.loc 1 329 8
	lb	a5,-25(s0)
	beq	a5,zero,.L61
	.loc 1 331 7
	lw	a1,-20(s0)
	lw	a0,-36(s0)
	call	altcp_tcp_setup_callbacks
	.loc 1 333 7
	lw	a5,-20(s0)
	lbu	a5,29(a5)
	mv	a2,a5
	lw	a1,-24(s0)
	lw	a0,-20(s0)
	call	tcp_poll
	.loc 1 334 14
	lb	a5,-25(s0)
	j	.L59
.L61:
	.loc 1 336 17
	lw	a5,-36(s0)
	sw	zero,12(a5)
.L60:
.LBE8:
	.loc 1 338 3
	lw	a0,-36(s0)
	call	altcp_free
	.loc 1 339 10
	li	a5,0
.L59:
	.loc 1 340 1
	mv	a0,a5
	lw	ra,44(sp)
	.cfi_restore 1
	lw	s0,40(sp)
	.cfi_restore 8
	.cfi_def_cfa 2, 48
	addi	sp,sp,48
	.cfi_def_cfa_offset 0
	jr	ra
	.cfi_endproc
.LFE23:
	.size	altcp_tcp_close, .-altcp_tcp_close
	.section	.text.altcp_tcp_shutdown,"ax",@progbits
	.align	1
	.type	altcp_tcp_shutdown, @function
altcp_tcp_shutdown:
.LFB24:
	.loc 1 344 1
	.cfi_startproc
	addi	sp,sp,-48
	.cfi_def_cfa_offset 48
	sw	ra,44(sp)
	sw	s0,40(sp)
	.cfi_offset 1, -4
	.cfi_offset 8, -8
	addi	s0,sp,48
	.cfi_def_cfa 8, 0
	sw	a0,-36(s0)
	sw	a1,-40(s0)
	sw	a2,-44(s0)
	.loc 1 346 6
	lw	a5,-36(s0)
	bne	a5,zero,.L63
	.loc 1 347 12
	li	a5,-6
	j	.L64
.L63:
	.loc 1 350 7
	lw	a5,-36(s0)
	lw	a5,12(a5)
	sw	a5,-20(s0)
	.loc 1 351 10
	lw	a2,-44(s0)
	lw	a1,-40(s0)
	lw	a0,-20(s0)
	call	tcp_shutdown
	mv	a5,a0
.L64:
	.loc 1 352 1
	mv	a0,a5
	lw	ra,44(sp)
	.cfi_restore 1
	lw	s0,40(sp)
	.cfi_restore 8
	.cfi_def_cfa 2, 48
	addi	sp,sp,48
	.cfi_def_cfa_offset 0
	jr	ra
	.cfi_endproc
.LFE24:
	.size	altcp_tcp_shutdown, .-altcp_tcp_shutdown
	.section	.text.altcp_tcp_write,"ax",@progbits
	.align	1
	.type	altcp_tcp_write, @function
altcp_tcp_write:
.LFB25:
	.loc 1 356 1
	.cfi_startproc
	addi	sp,sp,-48
	.cfi_def_cfa_offset 48
	sw	ra,44(sp)
	sw	s0,40(sp)
	.cfi_offset 1, -4
	.cfi_offset 8, -8
	addi	s0,sp,48
	.cfi_def_cfa 8, 0
	sw	a0,-36(s0)
	sw	a1,-40(s0)
	mv	a5,a2
	mv	a4,a3
	sh	a5,-42(s0)
	mv	a5,a4
	sb	a5,-43(s0)
	.loc 1 358 6
	lw	a5,-36(s0)
	bne	a5,zero,.L66
	.loc 1 359 12
	li	a5,-6
	j	.L67
.L66:
	.loc 1 362 7
	lw	a5,-36(s0)
	lw	a5,12(a5)
	sw	a5,-20(s0)
	.loc 1 363 10
	lbu	a4,-43(s0)
	lhu	a5,-42(s0)
	mv	a3,a4
	mv	a2,a5
	lw	a1,-40(s0)
	lw	a0,-20(s0)
	call	tcp_write
	mv	a5,a0
.L67:
	.loc 1 364 1
	mv	a0,a5
	lw	ra,44(sp)
	.cfi_restore 1
	lw	s0,40(sp)
	.cfi_restore 8
	.cfi_def_cfa 2, 48
	addi	sp,sp,48
	.cfi_def_cfa_offset 0
	jr	ra
	.cfi_endproc
.LFE25:
	.size	altcp_tcp_write, .-altcp_tcp_write
	.section	.text.altcp_tcp_output,"ax",@progbits
	.align	1
	.type	altcp_tcp_output, @function
altcp_tcp_output:
.LFB26:
	.loc 1 368 1
	.cfi_startproc
	addi	sp,sp,-48
	.cfi_def_cfa_offset 48
	sw	ra,44(sp)
	sw	s0,40(sp)
	.cfi_offset 1, -4
	.cfi_offset 8, -8
	addi	s0,sp,48
	.cfi_def_cfa 8, 0
	sw	a0,-36(s0)
	.loc 1 370 6
	lw	a5,-36(s0)
	bne	a5,zero,.L69
	.loc 1 371 12
	li	a5,-6
	j	.L70
.L69:
	.loc 1 374 7
	lw	a5,-36(s0)
	lw	a5,12(a5)
	sw	a5,-20(s0)
	.loc 1 375 10
	lw	a0,-20(s0)
	call	tcp_output
	mv	a5,a0
.L70:
	.loc 1 376 1
	mv	a0,a5
	lw	ra,44(sp)
	.cfi_restore 1
	lw	s0,40(sp)
	.cfi_restore 8
	.cfi_def_cfa 2, 48
	addi	sp,sp,48
	.cfi_def_cfa_offset 0
	jr	ra
	.cfi_endproc
.LFE26:
	.size	altcp_tcp_output, .-altcp_tcp_output
	.section	.text.altcp_tcp_mss,"ax",@progbits
	.align	1
	.type	altcp_tcp_mss, @function
altcp_tcp_mss:
.LFB27:
	.loc 1 380 1
	.cfi_startproc
	addi	sp,sp,-48
	.cfi_def_cfa_offset 48
	sw	ra,44(sp)
	sw	s0,40(sp)
	.cfi_offset 1, -4
	.cfi_offset 8, -8
	addi	s0,sp,48
	.cfi_def_cfa 8, 0
	sw	a0,-36(s0)
	.loc 1 382 6
	lw	a5,-36(s0)
	bne	a5,zero,.L72
	.loc 1 383 12
	li	a5,0
	j	.L73
.L72:
	.loc 1 386 7
	lw	a5,-36(s0)
	lw	a5,12(a5)
	sw	a5,-20(s0)
	.loc 1 387 16
	lw	a5,-20(s0)
	lhu	a5,50(a5)
.L73:
	.loc 1 388 1
	mv	a0,a5
	lw	ra,44(sp)
	.cfi_restore 1
	lw	s0,40(sp)
	.cfi_restore 8
	.cfi_def_cfa 2, 48
	addi	sp,sp,48
	.cfi_def_cfa_offset 0
	jr	ra
	.cfi_endproc
.LFE27:
	.size	altcp_tcp_mss, .-altcp_tcp_mss
	.section	.text.altcp_tcp_sndbuf,"ax",@progbits
	.align	1
	.type	altcp_tcp_sndbuf, @function
altcp_tcp_sndbuf:
.LFB28:
	.loc 1 392 1
	.cfi_startproc
	addi	sp,sp,-48
	.cfi_def_cfa_offset 48
	sw	ra,44(sp)
	sw	s0,40(sp)
	.cfi_offset 1, -4
	.cfi_offset 8, -8
	addi	s0,sp,48
	.cfi_def_cfa 8, 0
	sw	a0,-36(s0)
	.loc 1 394 6
	lw	a5,-36(s0)
	bne	a5,zero,.L75
	.loc 1 395 12
	li	a5,0
	j	.L76
.L75:
	.loc 1 398 7
	lw	a5,-36(s0)
	lw	a5,12(a5)
	sw	a5,-20(s0)
	.loc 1 399 17
	lw	a5,-20(s0)
	lhu	a5,100(a5)
.L76:
	.loc 1 400 1
	mv	a0,a5
	lw	ra,44(sp)
	.cfi_restore 1
	lw	s0,40(sp)
	.cfi_restore 8
	.cfi_def_cfa 2, 48
	addi	sp,sp,48
	.cfi_def_cfa_offset 0
	jr	ra
	.cfi_endproc
.LFE28:
	.size	altcp_tcp_sndbuf, .-altcp_tcp_sndbuf
	.section	.text.altcp_tcp_sndqueuelen,"ax",@progbits
	.align	1
	.type	altcp_tcp_sndqueuelen, @function
altcp_tcp_sndqueuelen:
.LFB29:
	.loc 1 404 1
	.cfi_startproc
	addi	sp,sp,-48
	.cfi_def_cfa_offset 48
	sw	ra,44(sp)
	sw	s0,40(sp)
	.cfi_offset 1, -4
	.cfi_offset 8, -8
	addi	s0,sp,48
	.cfi_def_cfa 8, 0
	sw	a0,-36(s0)
	.loc 1 406 6
	lw	a5,-36(s0)
	bne	a5,zero,.L78
	.loc 1 407 12
	li	a5,0
	j	.L79
.L78:
	.loc 1 410 7
	lw	a5,-36(s0)
	lw	a5,12(a5)
	sw	a5,-20(s0)
	.loc 1 411 16
	lw	a5,-20(s0)
	lhu	a5,102(a5)
.L79:
	.loc 1 412 1
	mv	a0,a5
	lw	ra,44(sp)
	.cfi_restore 1
	lw	s0,40(sp)
	.cfi_restore 8
	.cfi_def_cfa 2, 48
	addi	sp,sp,48
	.cfi_def_cfa_offset 0
	jr	ra
	.cfi_endproc
.LFE29:
	.size	altcp_tcp_sndqueuelen, .-altcp_tcp_sndqueuelen
	.section	.text.altcp_tcp_nagle_disable,"ax",@progbits
	.align	1
	.type	altcp_tcp_nagle_disable, @function
altcp_tcp_nagle_disable:
.LFB30:
	.loc 1 416 1
	.cfi_startproc
	addi	sp,sp,-48
	.cfi_def_cfa_offset 48
	sw	ra,44(sp)
	sw	s0,40(sp)
	.cfi_offset 1, -4
	.cfi_offset 8, -8
	addi	s0,sp,48
	.cfi_def_cfa 8, 0
	sw	a0,-36(s0)
	.loc 1 417 6
	lw	a5,-36(s0)
	beq	a5,zero,.L82
	.loc 1 417 19 discriminator 1
	lw	a5,-36(s0)
	lw	a5,12(a5)
	.loc 1 417 12 discriminator 1
	beq	a5,zero,.L82
.LBB9:
	.loc 1 418 21
	lw	a5,-36(s0)
	lw	a5,12(a5)
	sw	a5,-20(s0)
	.loc 1 420 43
	lw	a5,-20(s0)
	lhu	a5,26(a5)
	.loc 1 420 25
	ori	a5,a5,64
	slli	a4,a5,16
	srli	a4,a4,16
	.loc 1 420 23
	lw	a5,-20(s0)
	sh	a4,26(a5)
.L82:
.LBE9:
	.loc 1 422 1
	nop
	lw	ra,44(sp)
	.cfi_restore 1
	lw	s0,40(sp)
	.cfi_restore 8
	.cfi_def_cfa 2, 48
	addi	sp,sp,48
	.cfi_def_cfa_offset 0
	jr	ra
	.cfi_endproc
.LFE30:
	.size	altcp_tcp_nagle_disable, .-altcp_tcp_nagle_disable
	.section	.text.altcp_tcp_nagle_enable,"ax",@progbits
	.align	1
	.type	altcp_tcp_nagle_enable, @function
altcp_tcp_nagle_enable:
.LFB31:
	.loc 1 426 1
	.cfi_startproc
	addi	sp,sp,-48
	.cfi_def_cfa_offset 48
	sw	ra,44(sp)
	sw	s0,40(sp)
	.cfi_offset 1, -4
	.cfi_offset 8, -8
	addi	s0,sp,48
	.cfi_def_cfa 8, 0
	sw	a0,-36(s0)
	.loc 1 427 6
	lw	a5,-36(s0)
	beq	a5,zero,.L85
	.loc 1 427 19 discriminator 1
	lw	a5,-36(s0)
	lw	a5,12(a5)
	.loc 1 427 12 discriminator 1
	beq	a5,zero,.L85
.LBB10:
	.loc 1 428 21
	lw	a5,-36(s0)
	lw	a5,12(a5)
	sw	a5,-20(s0)
	.loc 1 430 43
	lw	a5,-20(s0)
	lhu	a5,26(a5)
	.loc 1 430 25
	andi	a5,a5,-65
	slli	a4,a5,16
	srli	a4,a4,16
	.loc 1 430 23
	lw	a5,-20(s0)
	sh	a4,26(a5)
.L85:
.LBE10:
	.loc 1 432 1
	nop
	lw	ra,44(sp)
	.cfi_restore 1
	lw	s0,40(sp)
	.cfi_restore 8
	.cfi_def_cfa 2, 48
	addi	sp,sp,48
	.cfi_def_cfa_offset 0
	jr	ra
	.cfi_endproc
.LFE31:
	.size	altcp_tcp_nagle_enable, .-altcp_tcp_nagle_enable
	.section	.text.altcp_tcp_nagle_disabled,"ax",@progbits
	.align	1
	.type	altcp_tcp_nagle_disabled, @function
altcp_tcp_nagle_disabled:
.LFB32:
	.loc 1 436 1
	.cfi_startproc
	addi	sp,sp,-48
	.cfi_def_cfa_offset 48
	sw	ra,44(sp)
	sw	s0,40(sp)
	.cfi_offset 1, -4
	.cfi_offset 8, -8
	addi	s0,sp,48
	.cfi_def_cfa 8, 0
	sw	a0,-36(s0)
	.loc 1 437 6
	lw	a5,-36(s0)
	beq	a5,zero,.L87
	.loc 1 437 19 discriminator 1
	lw	a5,-36(s0)
	lw	a5,12(a5)
	.loc 1 437 12 discriminator 1
	beq	a5,zero,.L87
.LBB11:
	.loc 1 438 21
	lw	a5,-36(s0)
	lw	a5,12(a5)
	sw	a5,-20(s0)
	.loc 1 440 19
	lw	a5,-20(s0)
	lhu	a5,26(a5)
	.loc 1 440 27
	andi	a5,a5,64
	.loc 1 440 38
	srli	a5,a5,6
	andi	a5,a5,1
	andi	a5,a5,0xff
	j	.L88
.L87:
.LBE11:
	.loc 1 442 10
	li	a5,0
.L88:
	.loc 1 443 1
	mv	a0,a5
	lw	ra,44(sp)
	.cfi_restore 1
	lw	s0,40(sp)
	.cfi_restore 8
	.cfi_def_cfa 2, 48
	addi	sp,sp,48
	.cfi_def_cfa_offset 0
	jr	ra
	.cfi_endproc
.LFE32:
	.size	altcp_tcp_nagle_disabled, .-altcp_tcp_nagle_disabled
	.section	.text.altcp_tcp_setprio,"ax",@progbits
	.align	1
	.type	altcp_tcp_setprio, @function
altcp_tcp_setprio:
.LFB33:
	.loc 1 447 1
	.cfi_startproc
	addi	sp,sp,-48
	.cfi_def_cfa_offset 48
	sw	ra,44(sp)
	sw	s0,40(sp)
	.cfi_offset 1, -4
	.cfi_offset 8, -8
	addi	s0,sp,48
	.cfi_def_cfa 8, 0
	sw	a0,-36(s0)
	mv	a5,a1
	sb	a5,-37(s0)
	.loc 1 448 6
	lw	a5,-36(s0)
	beq	a5,zero,.L91
.LBB12:
	.loc 1 449 21
	lw	a5,-36(s0)
	lw	a5,12(a5)
	sw	a5,-20(s0)
	.loc 1 451 5
	lbu	a5,-37(s0)
	mv	a1,a5
	lw	a0,-20(s0)
	call	tcp_setprio
.L91:
.LBE12:
	.loc 1 453 1
	nop
	lw	ra,44(sp)
	.cfi_restore 1
	lw	s0,40(sp)
	.cfi_restore 8
	.cfi_def_cfa 2, 48
	addi	sp,sp,48
	.cfi_def_cfa_offset 0
	jr	ra
	.cfi_endproc
.LFE33:
	.size	altcp_tcp_setprio, .-altcp_tcp_setprio
	.section	.text.altcp_tcp_keepalive_disable,"ax",@progbits
	.align	1
	.type	altcp_tcp_keepalive_disable, @function
altcp_tcp_keepalive_disable:
.LFB34:
	.loc 1 458 1
	.cfi_startproc
	addi	sp,sp,-48
	.cfi_def_cfa_offset 48
	sw	ra,44(sp)
	sw	s0,40(sp)
	.cfi_offset 1, -4
	.cfi_offset 8, -8
	addi	s0,sp,48
	.cfi_def_cfa 8, 0
	sw	a0,-36(s0)
	.loc 1 459 6
	lw	a5,-36(s0)
	beq	a5,zero,.L94
	.loc 1 459 19 discriminator 1
	lw	a5,-36(s0)
	lw	a5,12(a5)
	.loc 1 459 12 discriminator 1
	beq	a5,zero,.L94
.LBB13:
	.loc 1 460 21
	lw	a5,-36(s0)
	lw	a5,12(a5)
	sw	a5,-20(s0)
	.loc 1 462 38
	lw	a5,-20(s0)
	lbu	a5,9(a5)
	.loc 1 462 26
	andi	a5,a5,-9
	andi	a4,a5,0xff
	.loc 1 462 24
	lw	a5,-20(s0)
	sb	a4,9(a5)
.L94:
.LBE13:
	.loc 1 464 1
	nop
	lw	ra,44(sp)
	.cfi_restore 1
	lw	s0,40(sp)
	.cfi_restore 8
	.cfi_def_cfa 2, 48
	addi	sp,sp,48
	.cfi_def_cfa_offset 0
	jr	ra
	.cfi_endproc
.LFE34:
	.size	altcp_tcp_keepalive_disable, .-altcp_tcp_keepalive_disable
	.section	.text.altcp_tcp_keepalive_enable,"ax",@progbits
	.align	1
	.type	altcp_tcp_keepalive_enable, @function
altcp_tcp_keepalive_enable:
.LFB35:
	.loc 1 468 1
	.cfi_startproc
	addi	sp,sp,-48
	.cfi_def_cfa_offset 48
	sw	ra,44(sp)
	sw	s0,40(sp)
	.cfi_offset 1, -4
	.cfi_offset 8, -8
	addi	s0,sp,48
	.cfi_def_cfa 8, 0
	sw	a0,-36(s0)
	sw	a1,-40(s0)
	sw	a2,-44(s0)
	sw	a3,-48(s0)
	.loc 1 469 6
	lw	a5,-36(s0)
	beq	a5,zero,.L103
	.loc 1 469 19 discriminator 1
	lw	a5,-36(s0)
	lw	a5,12(a5)
	.loc 1 469 12 discriminator 1
	beq	a5,zero,.L103
.LBB14:
	.loc 1 470 21
	lw	a5,-36(s0)
	lw	a5,12(a5)
	sw	a5,-20(s0)
	.loc 1 472 38
	lw	a5,-20(s0)
	lbu	a5,9(a5)
	.loc 1 472 26
	ori	a5,a5,8
	andi	a4,a5,0xff
	.loc 1 472 24
	lw	a5,-20(s0)
	sb	a4,9(a5)
	.loc 1 473 34
	lw	a5,-40(s0)
	beq	a5,zero,.L97
	.loc 1 473 34 is_stmt 0 discriminator 1
	lw	a5,-40(s0)
	j	.L98
.L97:
	.loc 1 473 34 discriminator 2
	li	a5,7200768
	addi	a5,a5,-768
.L98:
	.loc 1 473 20 is_stmt 1 discriminator 4
	lw	a4,-20(s0)
	sw	a5,148(a4)
	.loc 1 474 37
	lw	a5,-44(s0)
	beq	a5,zero,.L99
	.loc 1 474 37 is_stmt 0 discriminator 1
	lw	a5,-44(s0)
	j	.L100
.L99:
	.loc 1 474 37 discriminator 2
	li	a5,73728
	addi	a5,a5,1272
.L100:
	.loc 1 474 21 is_stmt 1 discriminator 4
	lw	a4,-20(s0)
	sw	a5,152(a4)
	.loc 1 475 31
	lw	a5,-48(s0)
	beq	a5,zero,.L101
	.loc 1 475 31 is_stmt 0 discriminator 1
	lw	a5,-48(s0)
	j	.L102
.L101:
	.loc 1 475 31 discriminator 2
	li	a5,9
.L102:
	.loc 1 475 19 is_stmt 1 discriminator 4
	lw	a4,-20(s0)
	sw	a5,156(a4)
.L103:
.LBE14:
	.loc 1 477 1
	nop
	lw	ra,44(sp)
	.cfi_restore 1
	lw	s0,40(sp)
	.cfi_restore 8
	.cfi_def_cfa 2, 48
	addi	sp,sp,48
	.cfi_def_cfa_offset 0
	jr	ra
	.cfi_endproc
.LFE35:
	.size	altcp_tcp_keepalive_enable, .-altcp_tcp_keepalive_enable
	.section	.text.altcp_tcp_dealloc,"ax",@progbits
	.align	1
	.type	altcp_tcp_dealloc, @function
altcp_tcp_dealloc:
.LFB36:
	.loc 1 482 1
	.cfi_startproc
	addi	sp,sp,-32
	.cfi_def_cfa_offset 32
	sw	ra,28(sp)
	sw	s0,24(sp)
	.cfi_offset 1, -4
	.cfi_offset 8, -8
	addi	s0,sp,32
	.cfi_def_cfa 8, 0
	sw	a0,-20(s0)
	.loc 1 486 1
	nop
	lw	ra,28(sp)
	.cfi_restore 1
	lw	s0,24(sp)
	.cfi_restore 8
	.cfi_def_cfa 2, 32
	addi	sp,sp,32
	.cfi_def_cfa_offset 0
	jr	ra
	.cfi_endproc
.LFE36:
	.size	altcp_tcp_dealloc, .-altcp_tcp_dealloc
	.section	.text.altcp_tcp_get_tcp_addrinfo,"ax",@progbits
	.align	1
	.type	altcp_tcp_get_tcp_addrinfo, @function
altcp_tcp_get_tcp_addrinfo:
.LFB37:
	.loc 1 490 1
	.cfi_startproc
	addi	sp,sp,-48
	.cfi_def_cfa_offset 48
	sw	ra,44(sp)
	sw	s0,40(sp)
	.cfi_offset 1, -4
	.cfi_offset 8, -8
	addi	s0,sp,48
	.cfi_def_cfa 8, 0
	sw	a0,-36(s0)
	sw	a1,-40(s0)
	sw	a2,-44(s0)
	sw	a3,-48(s0)
	.loc 1 491 6
	lw	a5,-36(s0)
	beq	a5,zero,.L106
.LBB15:
	.loc 1 492 21
	lw	a5,-36(s0)
	lw	a5,12(a5)
	sw	a5,-20(s0)
	.loc 1 494 12
	lw	a3,-48(s0)
	lw	a2,-44(s0)
	lw	a1,-40(s0)
	lw	a0,-20(s0)
	call	tcp_tcp_get_tcp_addrinfo
	mv	a5,a0
	j	.L107
.L106:
.LBE15:
	.loc 1 496 10
	li	a5,-6
.L107:
	.loc 1 497 1
	mv	a0,a5
	lw	ra,44(sp)
	.cfi_restore 1
	lw	s0,40(sp)
	.cfi_restore 8
	.cfi_def_cfa 2, 48
	addi	sp,sp,48
	.cfi_def_cfa_offset 0
	jr	ra
	.cfi_endproc
.LFE37:
	.size	altcp_tcp_get_tcp_addrinfo, .-altcp_tcp_get_tcp_addrinfo
	.section	.text.altcp_tcp_get_ip,"ax",@progbits
	.align	1
	.type	altcp_tcp_get_ip, @function
altcp_tcp_get_ip:
.LFB38:
	.loc 1 501 1
	.cfi_startproc
	addi	sp,sp,-48
	.cfi_def_cfa_offset 48
	sw	ra,44(sp)
	sw	s0,40(sp)
	.cfi_offset 1, -4
	.cfi_offset 8, -8
	addi	s0,sp,48
	.cfi_def_cfa 8, 0
	sw	a0,-36(s0)
	sw	a1,-40(s0)
	.loc 1 502 6
	lw	a5,-36(s0)
	beq	a5,zero,.L109
.LBB16:
	.loc 1 503 21
	lw	a5,-36(s0)
	lw	a5,12(a5)
	sw	a5,-20(s0)
	.loc 1 505 8
	lw	a5,-20(s0)
	beq	a5,zero,.L109
	.loc 1 506 10
	lw	a5,-40(s0)
	beq	a5,zero,.L110
	.loc 1 507 16
	lw	a5,-20(s0)
	j	.L111
.L110:
	.loc 1 509 16
	lw	a5,-20(s0)
	addi	a5,a5,4
	j	.L111
.L109:
.LBE16:
	.loc 1 513 9
	li	a5,0
.L111:
	.loc 1 514 1
	mv	a0,a5
	lw	ra,44(sp)
	.cfi_restore 1
	lw	s0,40(sp)
	.cfi_restore 8
	.cfi_def_cfa 2, 48
	addi	sp,sp,48
	.cfi_def_cfa_offset 0
	jr	ra
	.cfi_endproc
.LFE38:
	.size	altcp_tcp_get_ip, .-altcp_tcp_get_ip
	.section	.text.altcp_tcp_get_port,"ax",@progbits
	.align	1
	.type	altcp_tcp_get_port, @function
altcp_tcp_get_port:
.LFB39:
	.loc 1 518 1
	.cfi_startproc
	addi	sp,sp,-48
	.cfi_def_cfa_offset 48
	sw	ra,44(sp)
	sw	s0,40(sp)
	.cfi_offset 1, -4
	.cfi_offset 8, -8
	addi	s0,sp,48
	.cfi_def_cfa 8, 0
	sw	a0,-36(s0)
	sw	a1,-40(s0)
	.loc 1 519 6
	lw	a5,-36(s0)
	beq	a5,zero,.L113
.LBB17:
	.loc 1 520 21
	lw	a5,-36(s0)
	lw	a5,12(a5)
	sw	a5,-20(s0)
	.loc 1 522 8
	lw	a5,-20(s0)
	beq	a5,zero,.L113
	.loc 1 523 10
	lw	a5,-40(s0)
	beq	a5,zero,.L114
	.loc 1 524 19
	lw	a5,-20(s0)
	lhu	a5,22(a5)
	j	.L115
.L114:
	.loc 1 526 19
	lw	a5,-20(s0)
	lhu	a5,24(a5)
	j	.L115
.L113:
.LBE17:
	.loc 1 530 10
	li	a5,0
.L115:
	.loc 1 531 1
	mv	a0,a5
	lw	ra,44(sp)
	.cfi_restore 1
	lw	s0,40(sp)
	.cfi_restore 8
	.cfi_def_cfa 2, 48
	addi	sp,sp,48
	.cfi_def_cfa_offset 0
	jr	ra
	.cfi_endproc
.LFE39:
	.size	altcp_tcp_get_port, .-altcp_tcp_get_port
	.globl	altcp_tcp_functions
	.section	.rodata.altcp_tcp_functions,"a"
	.align	2
	.type	altcp_tcp_functions, @object
	.size	altcp_tcp_functions, 92
altcp_tcp_functions:
	.word	altcp_tcp_set_poll
	.word	altcp_tcp_recved
	.word	altcp_tcp_bind
	.word	altcp_tcp_connect
	.word	altcp_tcp_listen
	.word	altcp_tcp_abort
	.word	altcp_tcp_close
	.word	altcp_tcp_shutdown
	.word	altcp_tcp_write
	.word	altcp_tcp_output
	.word	altcp_tcp_mss
	.word	altcp_tcp_sndbuf
	.word	altcp_tcp_sndqueuelen
	.word	altcp_tcp_nagle_disable
	.word	altcp_tcp_nagle_enable
	.word	altcp_tcp_nagle_disabled
	.word	altcp_tcp_setprio
	.word	altcp_tcp_dealloc
	.word	altcp_tcp_get_tcp_addrinfo
	.word	altcp_tcp_get_ip
	.word	altcp_tcp_get_port
	.word	altcp_tcp_keepalive_disable
	.word	altcp_tcp_keepalive_enable
	.text
.Letext0:
	.file 2 "/home/chandu/sdk/bl602_iot_sdk/toolchain/compiler/lib/gcc/riscv32-unknown-elf/15.1.0/include/stdint-gcc.h"
	.file 3 "/home/chandu/sdk/bl602_iot_sdk/components/network/lwip/src/include/lwip/arch.h"
	.file 4 "/home/chandu/sdk/bl602_iot_sdk/components/network/lwip/src/include/lwip/tcpbase.h"
	.file 5 "/home/chandu/sdk/bl602_iot_sdk/components/network/lwip/src/include/lwip/err.h"
	.file 6 "/home/chandu/sdk/bl602_iot_sdk/components/network/lwip/src/include/lwip/pbuf.h"
	.file 7 "/home/chandu/sdk/bl602_iot_sdk/components/network/lwip/src/include/lwip/ip4_addr.h"
	.file 8 "/home/chandu/sdk/bl602_iot_sdk/components/network/lwip/src/include/lwip/ip_addr.h"
	.file 9 "/home/chandu/sdk/bl602_iot_sdk/components/network/lwip/src/include/lwip/altcp.h"
	.file 10 "/home/chandu/sdk/bl602_iot_sdk/components/network/lwip/src/include/lwip/priv/altcp_priv.h"
	.file 11 "/home/chandu/sdk/bl602_iot_sdk/components/network/lwip/src/include/lwip/memp.h"
	.file 12 "/home/chandu/sdk/bl602_iot_sdk/components/network/lwip/src/include/lwip/netif.h"
	.file 13 "/home/chandu/sdk/bl602_iot_sdk/components/network/lwip/src/include/lwip/tcp.h"
	.file 14 "/home/chandu/sdk/bl602_iot_sdk/components/network/lwip/src/include/lwip/priv/tcp_priv.h"
	.file 15 "/home/chandu/sdk/bl602_iot_sdk/components/network/lwip/src/include/lwip/prot/tcp.h"
	.section	.note.GNU-stack,"",@progbits
