	.file	"dns.c"
	.option nopic
	.attribute arch, "rv32i2p1_m2p0_f2p2_c2p0_zicsr2p0_zmmul1p0_zca1p0_zcf1p0"
	.attribute unaligned_access, 0
	.attribute stack_align, 16
	.text
.Ltext0:
	.cfi_sections	.debug_frame
	.file 0 "/home/chandu/sdk/bl602_iot_sdk/customer_app/suas_app_pqkem_gateway/build_out/lwip" "/home/chandu/sdk/bl602_iot_sdk/components/network/lwip/src/core/dns.c"
	.section	.sbss.dns_txid,"aw",@nobits
	.align	1
	.type	dns_txid, @object
	.size	dns_txid, 2
dns_txid:
	.zero	2
	.section	.sbss.dns_pcbs,"aw",@nobits
	.align	2
	.type	dns_pcbs, @object
	.size	dns_pcbs, 4
dns_pcbs:
	.zero	4
	.section	.sbss.dns_seqno,"aw",@nobits
	.type	dns_seqno, @object
	.size	dns_seqno, 1
dns_seqno:
	.zero	1
	.section	.bss.dns_table,"aw",@nobits
	.align	2
	.type	dns_table, @object
	.size	dns_table, 1088
dns_table:
	.zero	1088
	.section	.bss.dns_requests,"aw",@nobits
	.align	2
	.type	dns_requests, @object
	.size	dns_requests, 32
dns_requests:
	.zero	32
	.section	.sbss.dns_servers,"aw",@nobits
	.align	2
	.type	dns_servers, @object
	.size	dns_servers, 8
dns_servers:
	.zero	8
	.globl	dns_mquery_v4group
	.section	.srodata.dns_mquery_v4group,"a"
	.align	2
	.type	dns_mquery_v4group, @object
	.size	dns_mquery_v4group, 4
dns_mquery_v4group:
	.word	-83885856
	.section	.text.dns_init,"ax",@progbits
	.align	1
	.globl	dns_init
	.type	dns_init, @function
dns_init:
.LFB5:
	.file 1 "/home/chandu/sdk/bl602_iot_sdk/components/network/lwip/src/core/dns.c"
	.loc 1 316 1
	.cfi_startproc
	addi	sp,sp,-16
	.cfi_def_cfa_offset 16
	sw	ra,12(sp)
	sw	s0,8(sp)
	.cfi_offset 1, -4
	.cfi_offset 8, -8
	addi	s0,sp,16
	.cfi_def_cfa 8, 0
	.loc 1 333 15
	lui	a5,%hi(dns_pcbs)
	lw	a5,%lo(dns_pcbs)(a5)
	.loc 1 333 6
	bne	a5,zero,.L3
	.loc 1 334 19
	li	a0,46
	call	udp_new_ip_type
	mv	a4,a0
	.loc 1 334 17 discriminator 1
	lui	a5,%hi(dns_pcbs)
	sw	a4,%lo(dns_pcbs)(a5)
	.loc 1 343 5
	lui	a5,%hi(dns_pcbs)
	lw	a4,%lo(dns_pcbs)(a5)
	li	a2,0
	lui	a5,%hi(ip_addr_any)
	addi	a1,a5,%lo(ip_addr_any)
	mv	a0,a4
	call	udp_bind
	.loc 1 344 5
	lui	a5,%hi(dns_pcbs)
	lw	a4,%lo(dns_pcbs)(a5)
	li	a2,0
	lui	a5,%hi(dns_recv)
	addi	a1,a5,%lo(dns_recv)
	mv	a0,a4
	call	udp_recv
.L3:
	.loc 1 351 1
	nop
	lw	ra,12(sp)
	.cfi_restore 1
	lw	s0,8(sp)
	.cfi_restore 8
	.cfi_def_cfa 2, 16
	addi	sp,sp,16
	.cfi_def_cfa_offset 0
	jr	ra
	.cfi_endproc
.LFE5:
	.size	dns_init, .-dns_init
	.section	.text.dns_setserver,"ax",@progbits
	.align	1
	.globl	dns_setserver
	.type	dns_setserver, @function
dns_setserver:
.LFB6:
	.loc 1 362 1
	.cfi_startproc
	addi	sp,sp,-32
	.cfi_def_cfa_offset 32
	sw	ra,28(sp)
	sw	s0,24(sp)
	.cfi_offset 1, -4
	.cfi_offset 8, -8
	addi	s0,sp,32
	.cfi_def_cfa 8, 0
	mv	a5,a0
	sw	a1,-24(s0)
	sb	a5,-17(s0)
	.loc 1 363 6
	lbu	a4,-17(s0)
	li	a5,1
	bgtu	a4,a5,.L7
	.loc 1 364 8
	lw	a5,-24(s0)
	beq	a5,zero,.L6
	.loc 1 365 18
	lbu	a5,-17(s0)
	.loc 1 365 27
	lui	a4,%hi(dns_servers)
	addi	a4,a4,%lo(dns_servers)
	slli	a5,a5,2
	add	a5,a4,a5
	lw	a4,-24(s0)
	lw	a4,0(a4)
	sw	a4,0(a5)
	.loc 1 370 1
	j	.L7
.L6:
	.loc 1 367 18
	lbu	a5,-17(s0)
	.loc 1 367 27
	lui	a4,%hi(dns_servers)
	addi	a4,a4,%lo(dns_servers)
	slli	a5,a5,2
	add	a5,a4,a5
	lui	a4,%hi(ip_addr_any)
	lw	a4,%lo(ip_addr_any)(a4)
	sw	a4,0(a5)
.L7:
	.loc 1 370 1
	nop
	lw	ra,28(sp)
	.cfi_restore 1
	lw	s0,24(sp)
	.cfi_restore 8
	.cfi_def_cfa 2, 32
	addi	sp,sp,32
	.cfi_def_cfa_offset 0
	jr	ra
	.cfi_endproc
.LFE6:
	.size	dns_setserver, .-dns_setserver
	.section	.text.dns_getserver,"ax",@progbits
	.align	1
	.globl	dns_getserver
	.type	dns_getserver, @function
dns_getserver:
.LFB7:
	.loc 1 382 1
	.cfi_startproc
	addi	sp,sp,-32
	.cfi_def_cfa_offset 32
	sw	ra,28(sp)
	sw	s0,24(sp)
	.cfi_offset 1, -4
	.cfi_offset 8, -8
	addi	s0,sp,32
	.cfi_def_cfa 8, 0
	mv	a5,a0
	sb	a5,-17(s0)
	.loc 1 383 6
	lbu	a4,-17(s0)
	li	a5,1
	bgtu	a4,a5,.L9
	.loc 1 384 24
	lbu	a5,-17(s0)
	.loc 1 384 12
	slli	a4,a5,2
	lui	a5,%hi(dns_servers)
	addi	a5,a5,%lo(dns_servers)
	add	a5,a4,a5
	j	.L10
.L9:
	.loc 1 386 13
	lui	a5,%hi(ip_addr_any)
	addi	a5,a5,%lo(ip_addr_any)
.L10:
	.loc 1 388 1
	mv	a0,a5
	lw	ra,28(sp)
	.cfi_restore 1
	lw	s0,24(sp)
	.cfi_restore 8
	.cfi_def_cfa 2, 32
	addi	sp,sp,32
	.cfi_def_cfa_offset 0
	jr	ra
	.cfi_endproc
.LFE7:
	.size	dns_getserver, .-dns_getserver
	.section	.text.dns_tmr,"ax",@progbits
	.align	1
	.globl	dns_tmr
	.type	dns_tmr, @function
dns_tmr:
.LFB8:
	.loc 1 396 1
	.cfi_startproc
	addi	sp,sp,-16
	.cfi_def_cfa_offset 16
	sw	ra,12(sp)
	sw	s0,8(sp)
	.cfi_offset 1, -4
	.cfi_offset 8, -8
	addi	s0,sp,16
	.cfi_def_cfa 8, 0
	.loc 1 398 3
	call	dns_check_entries
	.loc 1 399 1
	nop
	lw	ra,12(sp)
	.cfi_restore 1
	lw	s0,8(sp)
	.cfi_restore 8
	.cfi_def_cfa 2, 16
	addi	sp,sp,16
	.cfi_def_cfa_offset 0
	jr	ra
	.cfi_endproc
.LFE8:
	.size	dns_tmr, .-dns_tmr
	.section	.text.dns_lookup,"ax",@progbits
	.align	1
	.type	dns_lookup, @function
dns_lookup:
.LFB9:
	.loc 1 619 1
	.cfi_startproc
	addi	sp,sp,-48
	.cfi_def_cfa_offset 48
	sw	ra,44(sp)
	sw	s0,40(sp)
	.cfi_offset 1, -4
	.cfi_offset 8, -8
	addi	s0,sp,48
	.cfi_def_cfa 8, 0
	sw	a0,-36(s0)
	sw	a1,-40(s0)
	sw	a2,-44(s0)
	.loc 1 633 11
	lw	a5,-40(s0)
	li	a4,255
	bleu	a5,a4,.L13
	li	a5,255
.L13:
	sw	a5,-24(s0)
	.loc 1 635 10
	sb	zero,-17(s0)
	.loc 1 635 3
	j	.L14
.L18:
	.loc 1 636 22
	lbu	a4,-17(s0)
	lui	a5,%hi(dns_table)
	addi	a3,a5,%lo(dns_table)
	mv	a5,a4
	slli	a5,a5,4
	add	a5,a5,a4
	slli	a5,a5,4
	add	a5,a3,a5
	lbu	a4,10(a5)
	.loc 1 636 8
	li	a5,3
	bne	a4,a5,.L15
	.loc 1 637 42
	lbu	a4,-17(s0)
	mv	a5,a4
	slli	a5,a5,4
	add	a5,a5,a4
	slli	a5,a5,4
	lui	a4,%hi(dns_table)
	addi	a4,a4,%lo(dns_table)
	add	a5,a5,a4
	addi	a5,a5,15
	.loc 1 637 10
	lw	a2,-24(s0)
	mv	a1,a5
	lw	a0,-36(s0)
	call	lwip_strnicmp
	mv	a5,a0
	.loc 1 636 48 discriminator 1
	bne	a5,zero,.L15
	.loc 1 638 27
	lbu	a4,-17(s0)
	lui	a5,%hi(dns_table)
	addi	a3,a5,%lo(dns_table)
	mv	a5,a4
	slli	a5,a5,4
	add	a5,a5,a4
	slli	a5,a5,4
	add	a4,a3,a5
	lw	a5,-24(s0)
	add	a5,a4,a5
	lbu	a5,15(a5)
	.loc 1 637 64
	bne	a5,zero,.L15
	.loc 1 643 10
	lw	a5,-44(s0)
	beq	a5,zero,.L16
	.loc 1 644 46
	lbu	a4,-17(s0)
	lui	a5,%hi(dns_table)
	addi	a3,a5,%lo(dns_table)
	mv	a5,a4
	slli	a5,a5,4
	add	a5,a5,a4
	slli	a5,a5,4
	add	a5,a3,a5
	lw	a4,4(a5)
	.loc 1 644 23
	lw	a5,-44(s0)
	sw	a4,0(a5)
.L16:
	.loc 1 646 14
	li	a5,0
	j	.L17
.L15:
	.loc 1 635 22 discriminator 2
	lbu	a5,-17(s0)
	addi	a5,a5,1
	sb	a5,-17(s0)
.L14:
	.loc 1 635 17 discriminator 1
	lbu	a4,-17(s0)
	li	a5,3
	bleu	a4,a5,.L18
	.loc 1 650 10
	li	a5,-16
.L17:
	.loc 1 651 1
	mv	a0,a5
	lw	ra,44(sp)
	.cfi_restore 1
	lw	s0,40(sp)
	.cfi_restore 8
	.cfi_def_cfa 2, 48
	addi	sp,sp,48
	.cfi_def_cfa_offset 0
	jr	ra
	.cfi_endproc
.LFE9:
	.size	dns_lookup, .-dns_lookup
	.section	.text.dns_compare_name,"ax",@progbits
	.align	1
	.type	dns_compare_name, @function
dns_compare_name:
.LFB10:
	.loc 1 671 1
	.cfi_startproc
	addi	sp,sp,-48
	.cfi_def_cfa_offset 48
	sw	ra,44(sp)
	sw	s0,40(sp)
	.cfi_offset 1, -4
	.cfi_offset 8, -8
	addi	s0,sp,48
	.cfi_def_cfa 8, 0
	sw	a0,-36(s0)
	sw	a1,-40(s0)
	mv	a5,a2
	sh	a5,-42(s0)
	.loc 1 673 9
	lhu	a5,-42(s0)
	sh	a5,-22(s0)
.L34:
	.loc 1 676 9
	lhu	a5,-22(s0)
	mv	a1,a5
	lw	a0,-40(s0)
	call	pbuf_try_get_at
	sw	a0,-20(s0)
	.loc 1 677 8
	lw	a5,-20(s0)
	blt	a5,zero,.L20
	.loc 1 677 17 discriminator 1
	lhu	a4,-22(s0)
	li	a5,65536
	addi	a5,a5,-1
	bne	a4,a5,.L21
.L20:
	.loc 1 679 14
	li	a5,65536
	addi	a5,a5,-1
	j	.L22
.L21:
	.loc 1 681 20
	lhu	a5,-22(s0)
	addi	a5,a5,1
	sh	a5,-22(s0)
	.loc 1 683 12
	lw	a5,-20(s0)
	andi	a4,a5,192
	.loc 1 683 8
	li	a5,192
	bne	a4,a5,.L24
	.loc 1 685 14
	li	a5,65536
	addi	a5,a5,-1
	j	.L22
.L32:
.LBB2:
	.loc 1 689 17
	lhu	a5,-22(s0)
	mv	a1,a5
	lw	a0,-40(s0)
	call	pbuf_try_get_at
	sw	a0,-28(s0)
	.loc 1 690 12
	lw	a5,-28(s0)
	bge	a5,zero,.L25
	.loc 1 691 18
	li	a5,65536
	addi	a5,a5,-1
	j	.L22
.L25:
.LBB3:
	.loc 1 693 14
	lw	a5,-36(s0)
	lbu	a5,0(a5)
	sb	a5,-29(s0)
	.loc 1 693 46
	lbu	a5,-29(s0)
	.loc 1 693 45
	addi	a4,a5,1
	lui	a5,%hi(_ctype_)
	addi	a5,a5,%lo(_ctype_)
	add	a5,a4,a5
	lbu	a5,0(a5)
	.loc 1 693 58
	andi	a4,a5,3
	.loc 1 693 97
	li	a5,1
	bne	a4,a5,.L26
	.loc 1 693 75 discriminator 1
	lbu	a5,-29(s0)
	.loc 1 693 97 discriminator 1
	addi	a4,a5,32
	j	.L27
.L26:
	.loc 1 693 97 is_stmt 0 discriminator 2
	lbu	a4,-29(s0)
.L27:
.LBE3:
.LBB4:
	.loc 1 693 40 is_stmt 1 discriminator 4
	lw	a5,-28(s0)
	sb	a5,-30(s0)
	.loc 1 693 72 discriminator 4
	lbu	a5,-30(s0)
	.loc 1 693 71 discriminator 4
	addi	a3,a5,1
	lui	a5,%hi(_ctype_)
	addi	a5,a5,%lo(_ctype_)
	add	a5,a3,a5
	lbu	a5,0(a5)
	.loc 1 693 84 discriminator 4
	andi	a3,a5,3
	.loc 1 693 123 discriminator 4
	li	a5,1
	bne	a3,a5,.L28
	.loc 1 693 101 discriminator 5
	lbu	a5,-30(s0)
	.loc 1 693 123 discriminator 5
	addi	a5,a5,32
	j	.L29
.L28:
	.loc 1 693 123 is_stmt 0 discriminator 6
	lbu	a5,-30(s0)
.L29:
.LBE4:
	.loc 1 693 12 is_stmt 1 discriminator 8
	beq	a4,a5,.L30
	.loc 1 694 18
	li	a5,65536
	addi	a5,a5,-1
	j	.L22
.L30:
	.loc 1 696 12
	lhu	a4,-22(s0)
	li	a5,65536
	addi	a5,a5,-1
	bne	a4,a5,.L31
	.loc 1 698 18
	li	a5,65536
	addi	a5,a5,-1
	j	.L22
.L31:
	.loc 1 700 24
	lhu	a5,-22(s0)
	addi	a5,a5,1
	sh	a5,-22(s0)
	.loc 1 701 9
	lw	a5,-36(s0)
	addi	a5,a5,1
	sw	a5,-36(s0)
	.loc 1 702 9
	lw	a5,-20(s0)
	addi	a5,a5,-1
	sw	a5,-20(s0)
.L24:
.LBE2:
	.loc 1 688 16
	lw	a5,-20(s0)
	bgt	a5,zero,.L32
	.loc 1 704 7
	lw	a5,-36(s0)
	addi	a5,a5,1
	sw	a5,-36(s0)
	.loc 1 706 9
	lhu	a5,-22(s0)
	mv	a1,a5
	lw	a0,-40(s0)
	call	pbuf_try_get_at
	sw	a0,-20(s0)
	.loc 1 707 8
	lw	a5,-20(s0)
	bge	a5,zero,.L33
	.loc 1 708 14
	li	a5,65536
	addi	a5,a5,-1
	j	.L22
.L33:
	.loc 1 710 14
	lw	a5,-20(s0)
	bne	a5,zero,.L34
	.loc 1 712 6
	lhu	a4,-22(s0)
	li	a5,65536
	addi	a5,a5,-1
	bne	a4,a5,.L35
	.loc 1 714 12
	li	a5,65536
	addi	a5,a5,-1
	j	.L22
.L35:
	.loc 1 716 10
	lhu	a5,-22(s0)
	addi	a5,a5,1
	slli	a5,a5,16
	srli	a5,a5,16
.L22:
	.loc 1 717 1
	mv	a0,a5
	lw	ra,44(sp)
	.cfi_restore 1
	lw	s0,40(sp)
	.cfi_restore 8
	.cfi_def_cfa 2, 48
	addi	sp,sp,48
	.cfi_def_cfa_offset 0
	jr	ra
	.cfi_endproc
.LFE10:
	.size	dns_compare_name, .-dns_compare_name
	.section	.text.dns_skip_name,"ax",@progbits
	.align	1
	.type	dns_skip_name, @function
dns_skip_name:
.LFB11:
	.loc 1 728 1
	.cfi_startproc
	addi	sp,sp,-48
	.cfi_def_cfa_offset 48
	sw	ra,44(sp)
	sw	s0,40(sp)
	.cfi_offset 1, -4
	.cfi_offset 8, -8
	addi	s0,sp,48
	.cfi_def_cfa 8, 0
	sw	a0,-36(s0)
	mv	a5,a1
	sh	a5,-38(s0)
	.loc 1 730 9
	lhu	a5,-38(s0)
	sh	a5,-18(s0)
.L44:
	.loc 1 733 9
	lhu	a5,-18(s0)
	addi	a4,a5,1
	sh	a4,-18(s0)
	mv	a1,a5
	lw	a0,-36(s0)
	call	pbuf_try_get_at
	sw	a0,-24(s0)
	.loc 1 734 8
	lw	a5,-24(s0)
	blt	a5,zero,.L37
	.loc 1 734 17 discriminator 1
	lhu	a5,-18(s0)
	bne	a5,zero,.L38
.L37:
	.loc 1 735 14
	li	a5,65536
	addi	a5,a5,-1
	j	.L39
.L38:
	.loc 1 738 12
	lw	a5,-24(s0)
	andi	a4,a5,192
	.loc 1 738 8
	li	a5,192
	beq	a4,a5,.L46
	.loc 1 743 18
	lhu	a4,-18(s0)
	lw	a5,-24(s0)
	add	a5,a4,a5
	.loc 1 743 26
	lw	a4,-36(s0)
	lhu	a4,8(a4)
	.loc 1 743 10
	blt	a5,a4,.L42
	.loc 1 744 16
	li	a5,65536
	addi	a5,a5,-1
	j	.L39
.L42:
	.loc 1 746 16
	lw	a5,-24(s0)
	slli	a5,a5,16
	srli	a5,a5,16
	.loc 1 746 14
	lhu	a4,-18(s0)
	add	a5,a5,a4
	sh	a5,-18(s0)
	.loc 1 748 9
	lhu	a5,-18(s0)
	mv	a1,a5
	lw	a0,-36(s0)
	call	pbuf_try_get_at
	sw	a0,-24(s0)
	.loc 1 749 8
	lw	a5,-24(s0)
	bge	a5,zero,.L43
	.loc 1 750 14
	li	a5,65536
	addi	a5,a5,-1
	j	.L39
.L43:
	.loc 1 752 14
	lw	a5,-24(s0)
	bne	a5,zero,.L44
	j	.L41
.L46:
	.loc 1 740 7
	nop
.L41:
	.loc 1 754 6
	lhu	a4,-18(s0)
	li	a5,65536
	addi	a5,a5,-1
	bne	a4,a5,.L45
	.loc 1 755 12
	li	a5,65536
	addi	a5,a5,-1
	j	.L39
.L45:
	.loc 1 757 10
	lhu	a5,-18(s0)
	addi	a5,a5,1
	slli	a5,a5,16
	srli	a5,a5,16
.L39:
	.loc 1 758 1
	mv	a0,a5
	lw	ra,44(sp)
	.cfi_restore 1
	lw	s0,40(sp)
	.cfi_restore 8
	.cfi_def_cfa 2, 48
	addi	sp,sp,48
	.cfi_def_cfa_offset 0
	jr	ra
	.cfi_endproc
.LFE11:
	.size	dns_skip_name, .-dns_skip_name
	.section	.text.dns_send,"ax",@progbits
	.align	1
	.type	dns_send, @function
dns_send:
.LFB12:
	.loc 1 768 1
	.cfi_startproc
	addi	sp,sp,-96
	.cfi_def_cfa_offset 96
	sw	ra,92(sp)
	sw	s0,88(sp)
	.cfi_offset 1, -4
	.cfi_offset 8, -8
	addi	s0,sp,96
	.cfi_def_cfa 8, 0
	mv	a5,a0
	sb	a5,-81(s0)
	.loc 1 777 45
	lbu	a4,-81(s0)
	.loc 1 777 27
	mv	a5,a4
	slli	a5,a5,4
	add	a5,a5,a4
	slli	a5,a5,4
	lui	a4,%hi(dns_table)
	addi	a4,a4,%lo(dns_table)
	add	a5,a5,a4
	sw	a5,-32(s0)
	.loc 1 782 26
	lw	a5,-32(s0)
	lbu	a5,11(a5)
	mv	a3,a5
	.loc 1 782 40
	lui	a5,%hi(dns_servers)
	addi	a4,a5,%lo(dns_servers)
	slli	a5,a3,2
	add	a5,a4,a5
	lw	a5,0(a5)
	.loc 1 782 6
	bne	a5,zero,.L48
	.loc 1 789 5
	lbu	a5,-81(s0)
	li	a1,0
	mv	a0,a5
	call	dns_call_found
	.loc 1 791 18
	lw	a5,-32(s0)
	sb	zero,10(a5)
	.loc 1 792 12
	li	a5,0
	j	.L58
.L48:
	.loc 1 796 59
	lw	a5,-32(s0)
	addi	a5,a5,15
	.loc 1 796 47
	mv	a0,a5
	call	strlen
	mv	a5,a0
	.loc 1 796 7 discriminator 1
	slli	a5,a5,16
	srli	a5,a5,16
	.loc 1 796 34 discriminator 1
	addi	a5,a5,18
	slli	a5,a5,16
	srli	a5,a5,16
	.loc 1 796 7 discriminator 1
	li	a2,640
	mv	a1,a5
	li	a0,182
	call	pbuf_alloc
	sw	a0,-36(s0)
	.loc 1 798 6
	lw	a5,-36(s0)
	beq	a5,zero,.L50
.LBB5:
	.loc 1 802 5
	addi	a5,s0,-64
	li	a2,12
	li	a1,0
	mv	a0,a5
	call	memset
	.loc 1 803 14
	lw	a5,-32(s0)
	lhu	a5,8(a5)
	mv	a0,a5
	call	lwip_htons
	mv	a5,a0
	.loc 1 803 12 discriminator 1
	sh	a5,-64(s0)
	.loc 1 804 16
	li	a5,1
	sb	a5,-62(s0)
	.loc 1 805 22
	li	a5,256
	sh	a5,-60(s0)
	.loc 1 806 5
	addi	a5,s0,-64
	li	a2,12
	mv	a1,a5
	lw	a0,-36(s0)
	call	pbuf_take
	.loc 1 807 14
	lw	a5,-32(s0)
	addi	a5,a5,15
	sw	a5,-24(s0)
	.loc 1 808 5
	lw	a5,-24(s0)
	addi	a5,a5,-1
	sw	a5,-24(s0)
	.loc 1 811 15
	li	a5,12
	sh	a5,-20(s0)
.L56:
	.loc 1 813 7
	lw	a5,-24(s0)
	addi	a5,a5,1
	sw	a5,-24(s0)
	.loc 1 814 21
	lw	a5,-24(s0)
	sw	a5,-40(s0)
	.loc 1 815 14
	sb	zero,-25(s0)
	.loc 1 815 7
	j	.L51
.L53:
	.loc 1 816 9
	lbu	a5,-25(s0)
	addi	a5,a5,1
	sb	a5,-25(s0)
	.loc 1 815 55 discriminator 4
	lw	a5,-24(s0)
	addi	a5,a5,1
	sw	a5,-24(s0)
.L51:
	.loc 1 815 19 discriminator 1
	lw	a5,-24(s0)
	lbu	a4,0(a5)
	.loc 1 815 36 discriminator 1
	li	a5,46
	beq	a4,a5,.L52
	.loc 1 815 39 discriminator 3
	lw	a5,-24(s0)
	lbu	a5,0(a5)
	.loc 1 815 36 discriminator 3
	bne	a5,zero,.L53
.L52:
	.loc 1 818 35
	lw	a4,-24(s0)
	lw	a5,-40(s0)
	sub	a5,a4,a5
	.loc 1 818 16
	sh	a5,-42(s0)
	.loc 1 819 21
	lhu	a4,-20(s0)
	lbu	a5,-25(s0)
	add	a4,a4,a5
	.loc 1 819 10
	li	a5,65536
	addi	a5,a5,-2
	bgt	a4,a5,.L60
	.loc 1 823 7
	lbu	a4,-25(s0)
	lhu	a5,-20(s0)
	mv	a2,a4
	mv	a1,a5
	lw	a0,-36(s0)
	call	pbuf_put_at
	.loc 1 824 48
	lhu	a5,-20(s0)
	addi	a5,a5,1
	slli	a4,a5,16
	srli	a4,a4,16
	.loc 1 824 7
	lhu	a5,-42(s0)
	mv	a3,a4
	mv	a2,a5
	lw	a1,-40(s0)
	lw	a0,-36(s0)
	call	pbuf_take_at
	.loc 1 825 37
	lbu	a5,-25(s0)
	slli	a5,a5,16
	srli	a5,a5,16
	lhu	a4,-20(s0)
	add	a5,a5,a4
	slli	a5,a5,16
	srli	a5,a5,16
	.loc 1 825 17
	addi	a5,a5,1
	sh	a5,-20(s0)
	.loc 1 826 14
	lw	a5,-24(s0)
	lbu	a5,0(a5)
	.loc 1 826 24
	bne	a5,zero,.L56
	.loc 1 827 5
	lhu	a5,-20(s0)
	li	a2,0
	mv	a1,a5
	lw	a0,-36(s0)
	call	pbuf_put_at
	.loc 1 828 14
	lhu	a5,-20(s0)
	addi	a5,a5,1
	sh	a5,-20(s0)
	.loc 1 834 16
	li	a5,256
	sh	a5,-68(s0)
	.loc 1 836 13
	li	a5,256
	sh	a5,-66(s0)
	.loc 1 837 5
	lhu	a4,-20(s0)
	addi	a5,s0,-68
	mv	a3,a4
	li	a2,4
	mv	a1,a5
	lw	a0,-36(s0)
	call	pbuf_take_at
	.loc 1 842 13
	sb	zero,-43(s0)
	.loc 1 866 16
	li	a5,53
	sh	a5,-46(s0)
	.loc 1 867 31
	lw	a5,-32(s0)
	lbu	a5,11(a5)
	.loc 1 867 11
	slli	a4,a5,2
	lui	a5,%hi(dns_servers)
	addi	a5,a5,%lo(dns_servers)
	add	a5,a4,a5
	sw	a5,-52(s0)
	.loc 1 869 11
	lbu	a4,-43(s0)
	lui	a5,%hi(dns_pcbs)
	slli	a4,a4,2
	addi	a5,a5,%lo(dns_pcbs)
	add	a5,a4,a5
	lw	a5,0(a5)
	lhu	a4,-46(s0)
	mv	a3,a4
	lw	a2,-52(s0)
	lw	a1,-36(s0)
	mv	a0,a5
	call	udp_sendto
	mv	a5,a0
	sb	a5,-17(s0)
	.loc 1 872 5
	lw	a0,-36(s0)
	call	pbuf_free
.LBE5:
	j	.L57
.L50:
	.loc 1 874 9
	li	a5,-1
	sb	a5,-17(s0)
.L57:
	.loc 1 877 10
	lb	a5,-17(s0)
	j	.L58
.L60:
.LBB6:
	.loc 1 821 9
	nop
.L55:
.LBE6:
	.loc 1 879 3
	lw	a0,-36(s0)
	call	pbuf_free
	.loc 1 880 10
	li	a5,-6
.L58:
	.loc 1 881 1
	mv	a0,a5
	lw	ra,92(sp)
	.cfi_restore 1
	lw	s0,88(sp)
	.cfi_restore 8
	.cfi_def_cfa 2, 96
	addi	sp,sp,96
	.cfi_def_cfa_offset 0
	jr	ra
	.cfi_endproc
.LFE12:
	.size	dns_send, .-dns_send
	.section	.text.dns_call_found,"ax",@progbits
	.align	1
	.type	dns_call_found, @function
dns_call_found:
.LFB13:
	.loc 1 962 1
	.cfi_startproc
	addi	sp,sp,-32
	.cfi_def_cfa_offset 32
	sw	ra,28(sp)
	sw	s0,24(sp)
	.cfi_offset 1, -4
	.cfi_offset 8, -8
	addi	s0,sp,32
	.cfi_def_cfa 8, 0
	mv	a5,a0
	sw	a1,-24(s0)
	sb	a5,-17(s0)
	.loc 1 989 24
	lbu	a5,-17(s0)
	lui	a4,%hi(dns_requests)
	addi	a4,a4,%lo(dns_requests)
	slli	a5,a5,3
	add	a5,a4,a5
	lw	a5,0(a5)
	.loc 1 989 6
	beq	a5,zero,.L62
	.loc 1 990 6
	lbu	a5,-17(s0)
	lui	a4,%hi(dns_requests)
	addi	a4,a4,%lo(dns_requests)
	slli	a5,a5,3
	add	a5,a4,a5
	lw	a3,0(a5)
	.loc 1 990 46
	lbu	a4,-17(s0)
	mv	a5,a4
	slli	a5,a5,4
	add	a5,a5,a4
	slli	a5,a5,4
	lui	a4,%hi(dns_table)
	addi	a4,a4,%lo(dns_table)
	add	a5,a5,a4
	addi	a0,a5,15
	.loc 1 990 6
	lbu	a5,-17(s0)
	lui	a4,%hi(dns_requests)
	addi	a4,a4,%lo(dns_requests)
	slli	a5,a5,3
	add	a5,a4,a5
	lw	a5,4(a5)
	mv	a2,a5
	lw	a1,-24(s0)
	jalr	a3
.LVL0:
.L62:
	.loc 1 992 20
	lbu	a5,-17(s0)
	.loc 1 992 27
	lui	a4,%hi(dns_requests)
	addi	a4,a4,%lo(dns_requests)
	slli	a5,a5,3
	add	a5,a4,a5
	sw	zero,0(a5)
	.loc 1 1015 1
	nop
	lw	ra,28(sp)
	.cfi_restore 1
	lw	s0,24(sp)
	.cfi_restore 8
	.cfi_def_cfa 2, 32
	addi	sp,sp,32
	.cfi_def_cfa_offset 0
	jr	ra
	.cfi_endproc
.LFE13:
	.size	dns_call_found, .-dns_call_found
	.section	.text.dns_create_txid,"ax",@progbits
	.align	1
	.type	dns_create_txid, @function
dns_create_txid:
.LFB14:
	.loc 1 1020 1
	.cfi_startproc
	addi	sp,sp,-32
	.cfi_def_cfa_offset 32
	sw	ra,28(sp)
	sw	s0,24(sp)
	.cfi_offset 1, -4
	.cfi_offset 8, -8
	addi	s0,sp,32
	.cfi_def_cfa 8, 0
.L64:
	.loc 1 1025 18
	lui	a5,%hi(dns_txid)
	lhu	a5,%lo(dns_txid)(a5)
	addi	a5,a5,1
	slli	a4,a5,16
	srli	a4,a4,16
	.loc 1 1025 8
	lui	a5,%hi(dns_txid)
	sh	a4,%lo(dns_txid)(a5)
	lui	a5,%hi(dns_txid)
	lhu	a5,%lo(dns_txid)(a5)
	sh	a5,-20(s0)
	.loc 1 1028 10
	sb	zero,-17(s0)
	.loc 1 1028 3
	j	.L65
.L67:
	.loc 1 1029 22
	lbu	a4,-17(s0)
	lui	a5,%hi(dns_table)
	addi	a3,a5,%lo(dns_table)
	mv	a5,a4
	slli	a5,a5,4
	add	a5,a5,a4
	slli	a5,a5,4
	add	a5,a3,a5
	lbu	a4,10(a5)
	.loc 1 1029 8
	li	a5,2
	bne	a4,a5,.L66
	.loc 1 1030 22
	lbu	a4,-17(s0)
	lui	a5,%hi(dns_table)
	addi	a3,a5,%lo(dns_table)
	mv	a5,a4
	slli	a5,a5,4
	add	a5,a5,a4
	slli	a5,a5,4
	add	a5,a3,a5
	lhu	a5,8(a5)
	.loc 1 1029 50 discriminator 1
	lhu	a4,-20(s0)
	bne	a4,a5,.L66
	.loc 1 1032 7
	j	.L64
.L66:
	.loc 1 1028 23 discriminator 2
	lbu	a5,-17(s0)
	addi	a5,a5,1
	sb	a5,-17(s0)
.L65:
	.loc 1 1028 17 discriminator 1
	lbu	a4,-17(s0)
	li	a5,3
	bleu	a4,a5,.L67
	.loc 1 1036 10
	lhu	a5,-20(s0)
	.loc 1 1037 1
	mv	a0,a5
	lw	ra,28(sp)
	.cfi_restore 1
	lw	s0,24(sp)
	.cfi_restore 8
	.cfi_def_cfa 2, 32
	addi	sp,sp,32
	.cfi_def_cfa_offset 0
	jr	ra
	.cfi_endproc
.LFE14:
	.size	dns_create_txid, .-dns_create_txid
	.section	.text.dns_backupserver_available,"ax",@progbits
	.align	1
	.type	dns_backupserver_available, @function
dns_backupserver_available:
.LFB15:
	.loc 1 1044 1
	.cfi_startproc
	addi	sp,sp,-48
	.cfi_def_cfa_offset 48
	sw	ra,44(sp)
	sw	s0,40(sp)
	.cfi_offset 1, -4
	.cfi_offset 8, -8
	addi	s0,sp,48
	.cfi_def_cfa 8, 0
	sw	a0,-36(s0)
	.loc 1 1045 8
	sb	zero,-17(s0)
	.loc 1 1047 6
	lw	a5,-36(s0)
	beq	a5,zero,.L70
	.loc 1 1048 16
	lw	a5,-36(s0)
	lbu	a5,11(a5)
	.loc 1 1048 8
	bne	a5,zero,.L70
	.loc 1 1048 62 discriminator 1
	lw	a5,-36(s0)
	lbu	a5,11(a5)
	.loc 1 1048 75 discriminator 1
	addi	a5,a5,1
	.loc 1 1048 80 discriminator 1
	lui	a4,%hi(dns_servers)
	addi	a4,a4,%lo(dns_servers)
	slli	a5,a5,2
	add	a5,a4,a5
	lw	a5,0(a5)
	.loc 1 1048 38 discriminator 1
	beq	a5,zero,.L70
	.loc 1 1049 11
	li	a5,1
	sb	a5,-17(s0)
.L70:
	.loc 1 1053 10
	lbu	a5,-17(s0)
	.loc 1 1054 1
	mv	a0,a5
	lw	ra,44(sp)
	.cfi_restore 1
	lw	s0,40(sp)
	.cfi_restore 8
	.cfi_def_cfa 2, 48
	addi	sp,sp,48
	.cfi_def_cfa_offset 0
	jr	ra
	.cfi_endproc
.LFE15:
	.size	dns_backupserver_available, .-dns_backupserver_available
	.section	.text.dns_check_entry,"ax",@progbits
	.align	1
	.type	dns_check_entry, @function
dns_check_entry:
.LFB16:
	.loc 1 1067 1
	.cfi_startproc
	addi	sp,sp,-48
	.cfi_def_cfa_offset 48
	sw	ra,44(sp)
	sw	s0,40(sp)
	.cfi_offset 1, -4
	.cfi_offset 8, -8
	addi	s0,sp,48
	.cfi_def_cfa 8, 0
	mv	a5,a0
	sb	a5,-33(s0)
	.loc 1 1069 45
	lbu	a4,-33(s0)
	.loc 1 1069 27
	mv	a5,a4
	slli	a5,a5,4
	add	a5,a5,a4
	slli	a5,a5,4
	lui	a4,%hi(dns_table)
	addi	a4,a4,%lo(dns_table)
	add	a5,a5,a4
	sw	a5,-20(s0)
	.loc 1 1073 16
	lw	a5,-20(s0)
	lbu	a5,10(a5)
	.loc 1 1073 3
	li	a4,3
	beq	a5,a4,.L73
	li	a4,3
	bgt	a5,a4,.L84
	li	a4,2
	beq	a5,a4,.L75
	li	a4,2
	bgt	a5,a4,.L84
	beq	a5,zero,.L85
	li	a4,1
	bne	a5,a4,.L84
	.loc 1 1076 21
	call	dns_create_txid
	mv	a5,a0
	mv	a4,a5
	.loc 1 1076 19 discriminator 1
	lw	a5,-20(s0)
	sh	a4,8(a5)
	.loc 1 1077 20
	lw	a5,-20(s0)
	li	a4,2
	sb	a4,10(a5)
	.loc 1 1078 25
	lw	a5,-20(s0)
	sb	zero,11(a5)
	.loc 1 1079 18
	lw	a5,-20(s0)
	li	a4,1
	sb	a4,12(a5)
	.loc 1 1080 22
	lw	a5,-20(s0)
	sb	zero,13(a5)
	.loc 1 1083 13
	lbu	a5,-33(s0)
	mv	a0,a5
	call	dns_send
	mv	a5,a0
	sb	a5,-21(s0)
	.loc 1 1088 7
	j	.L77
.L75:
	.loc 1 1090 18
	lw	a5,-20(s0)
	lbu	a5,12(a5)
	.loc 1 1090 11
	addi	a5,a5,-1
	andi	a4,a5,0xff
	.loc 1 1090 10
	lw	a5,-20(s0)
	sb	a4,12(a5)
	.loc 1 1090 18
	lw	a5,-20(s0)
	lbu	a5,12(a5)
	.loc 1 1090 10
	bne	a5,zero,.L86
	.loc 1 1091 20
	lw	a5,-20(s0)
	lbu	a5,13(a5)
	.loc 1 1091 13
	addi	a5,a5,1
	andi	a4,a5,0xff
	.loc 1 1091 12
	lw	a5,-20(s0)
	sb	a4,13(a5)
	.loc 1 1091 20
	lw	a5,-20(s0)
	lbu	a4,13(a5)
	.loc 1 1091 12
	li	a5,4
	bne	a4,a5,.L79
	.loc 1 1092 15
	lw	a0,-20(s0)
	call	dns_backupserver_available
	mv	a5,a0
	.loc 1 1092 14 discriminator 1
	beq	a5,zero,.L80
	.loc 1 1098 18
	lw	a5,-20(s0)
	lbu	a5,11(a5)
	.loc 1 1098 30
	addi	a5,a5,1
	andi	a4,a5,0xff
	lw	a5,-20(s0)
	sb	a4,11(a5)
	.loc 1 1099 24
	lw	a5,-20(s0)
	li	a4,1
	sb	a4,12(a5)
	.loc 1 1100 28
	lw	a5,-20(s0)
	sb	zero,13(a5)
	j	.L81
.L80:
	.loc 1 1104 13
	lbu	a5,-33(s0)
	li	a1,0
	mv	a0,a5
	call	dns_call_found
	.loc 1 1106 26
	lw	a5,-20(s0)
	sb	zero,10(a5)
	.loc 1 1107 13
	j	.L77
.L79:
	.loc 1 1111 29
	lw	a5,-20(s0)
	lbu	a4,13(a5)
	.loc 1 1111 22
	lw	a5,-20(s0)
	sb	a4,12(a5)
.L81:
	.loc 1 1115 15
	lbu	a5,-33(s0)
	mv	a0,a5
	call	dns_send
	mv	a5,a0
	sb	a5,-21(s0)
	.loc 1 1121 7
	j	.L86
.L73:
	.loc 1 1124 17
	lw	a5,-20(s0)
	lw	a5,0(a5)
	.loc 1 1124 10
	beq	a5,zero,.L82
	.loc 1 1124 40 discriminator 1
	lw	a5,-20(s0)
	lw	a5,0(a5)
	.loc 1 1124 33 discriminator 1
	addi	a4,a5,-1
	.loc 1 1124 29 discriminator 1
	lw	a5,-20(s0)
	sw	a4,0(a5)
	.loc 1 1124 40 discriminator 1
	lw	a5,-20(s0)
	lw	a5,0(a5)
	.loc 1 1124 29 discriminator 1
	bne	a5,zero,.L87
.L82:
	.loc 1 1127 22
	lw	a5,-20(s0)
	sb	zero,10(a5)
	.loc 1 1129 7
	j	.L87
.L84:
	.loc 1 1135 7
	nop
	j	.L88
.L85:
	.loc 1 1132 7
	nop
	j	.L88
.L86:
	.loc 1 1121 7
	nop
	j	.L88
.L87:
	.loc 1 1129 7
	nop
.L77:
.L88:
	.loc 1 1137 1
	nop
	lw	ra,44(sp)
	.cfi_restore 1
	lw	s0,40(sp)
	.cfi_restore 8
	.cfi_def_cfa 2, 48
	addi	sp,sp,48
	.cfi_def_cfa_offset 0
	jr	ra
	.cfi_endproc
.LFE16:
	.size	dns_check_entry, .-dns_check_entry
	.section	.text.dns_check_entries,"ax",@progbits
	.align	1
	.type	dns_check_entries, @function
dns_check_entries:
.LFB17:
	.loc 1 1144 1
	.cfi_startproc
	addi	sp,sp,-32
	.cfi_def_cfa_offset 32
	sw	ra,28(sp)
	sw	s0,24(sp)
	.cfi_offset 1, -4
	.cfi_offset 8, -8
	addi	s0,sp,32
	.cfi_def_cfa 8, 0
	.loc 1 1147 10
	sb	zero,-17(s0)
	.loc 1 1147 3
	j	.L90
.L91:
	.loc 1 1148 5
	lbu	a5,-17(s0)
	mv	a0,a5
	call	dns_check_entry
	.loc 1 1147 22 discriminator 3
	lbu	a5,-17(s0)
	addi	a5,a5,1
	sb	a5,-17(s0)
.L90:
	.loc 1 1147 17 discriminator 1
	lbu	a4,-17(s0)
	li	a5,3
	bleu	a4,a5,.L91
	.loc 1 1150 1
	nop
	nop
	lw	ra,28(sp)
	.cfi_restore 1
	lw	s0,24(sp)
	.cfi_restore 8
	.cfi_def_cfa 2, 32
	addi	sp,sp,32
	.cfi_def_cfa_offset 0
	jr	ra
	.cfi_endproc
.LFE17:
	.size	dns_check_entries, .-dns_check_entries
	.section	.text.dns_correct_response,"ax",@progbits
	.align	1
	.type	dns_correct_response, @function
dns_correct_response:
.LFB18:
	.loc 1 1157 1
	.cfi_startproc
	addi	sp,sp,-48
	.cfi_def_cfa_offset 48
	sw	ra,44(sp)
	sw	s0,40(sp)
	.cfi_offset 1, -4
	.cfi_offset 8, -8
	addi	s0,sp,48
	.cfi_def_cfa 8, 0
	mv	a5,a0
	sw	a1,-40(s0)
	sb	a5,-33(s0)
	.loc 1 1158 45
	lbu	a4,-33(s0)
	.loc 1 1158 27
	mv	a5,a4
	slli	a5,a5,4
	add	a5,a5,a4
	slli	a5,a5,4
	lui	a4,%hi(dns_table)
	addi	a4,a4,%lo(dns_table)
	add	a5,a5,a4
	sw	a5,-20(s0)
	.loc 1 1160 16
	lw	a5,-20(s0)
	li	a4,3
	sb	a4,10(a5)
	.loc 1 1167 14
	lw	a5,-20(s0)
	lw	a4,-40(s0)
	sw	a4,0(a5)
	.loc 1 1168 12
	lw	a5,-20(s0)
	lw	a4,0(a5)
	.loc 1 1168 6
	li	a5,606208
	addi	a5,a5,-1408
	bleu	a4,a5,.L93
	.loc 1 1169 16
	lw	a5,-20(s0)
	li	a4,606208
	addi	a4,a4,-1408
	sw	a4,0(a5)
.L93:
	.loc 1 1171 3
	lw	a5,-20(s0)
	addi	a4,a5,4
	lbu	a5,-33(s0)
	mv	a1,a4
	mv	a0,a5
	call	dns_call_found
	.loc 1 1173 12
	lw	a5,-20(s0)
	lw	a5,0(a5)
	.loc 1 1173 6
	bne	a5,zero,.L95
	.loc 1 1179 14
	lw	a5,-20(s0)
	lbu	a4,10(a5)
	.loc 1 1179 8
	li	a5,3
	bne	a4,a5,.L95
	.loc 1 1180 20
	lw	a5,-20(s0)
	sb	zero,10(a5)
.L95:
	.loc 1 1183 1
	nop
	lw	ra,44(sp)
	.cfi_restore 1
	lw	s0,40(sp)
	.cfi_restore 8
	.cfi_def_cfa 2, 48
	addi	sp,sp,48
	.cfi_def_cfa_offset 0
	jr	ra
	.cfi_endproc
.LFE18:
	.size	dns_correct_response, .-dns_correct_response
	.section	.text.dns_recv,"ax",@progbits
	.align	1
	.type	dns_recv, @function
dns_recv:
.LFB19:
	.loc 1 1190 1
	.cfi_startproc
	addi	sp,sp,-96
	.cfi_def_cfa_offset 96
	sw	ra,92(sp)
	sw	s0,88(sp)
	sw	s1,84(sp)
	.cfi_offset 1, -4
	.cfi_offset 8, -8
	.cfi_offset 9, -12
	addi	s0,sp,96
	.cfi_def_cfa 8, 0
	sw	a0,-68(s0)
	sw	a1,-72(s0)
	sw	a2,-76(s0)
	sw	a3,-80(s0)
	mv	a5,a4
	sh	a5,-82(s0)
	.loc 1 1204 8
	lw	a5,-76(s0)
	lhu	a4,8(a5)
	.loc 1 1204 6
	li	a5,15
	bleu	a4,a5,.L122
	.loc 1 1211 7
	addi	a5,s0,-44
	li	a3,0
	li	a2,12
	mv	a1,a5
	lw	a0,-76(s0)
	call	pbuf_copy_partial
	mv	a5,a0
	mv	a4,a5
	.loc 1 1211 6 discriminator 1
	li	a5,12
	bne	a4,a5,.L123
	.loc 1 1213 12
	lhu	a5,-44(s0)
	mv	a0,a5
	call	lwip_htons
	mv	a5,a0
	sh	a5,-24(s0)
	.loc 1 1214 12
	sb	zero,-17(s0)
	.loc 1 1214 5
	j	.L99
.L120:
.LBB7:
	.loc 1 1215 49
	lbu	a4,-17(s0)
	.loc 1 1215 31
	mv	a5,a4
	slli	a5,a5,4
	add	a5,a5,a4
	slli	a5,a5,4
	lui	a4,%hi(dns_table)
	addi	a4,a4,%lo(dns_table)
	add	a5,a5,a4
	sw	a5,-28(s0)
	.loc 1 1216 17
	lw	a5,-28(s0)
	lbu	a4,10(a5)
	.loc 1 1216 10
	li	a5,2
	bne	a4,a5,.L100
	.loc 1 1217 17
	lw	a5,-28(s0)
	lhu	a5,8(a5)
	.loc 1 1216 46 discriminator 1
	lhu	a4,-24(s0)
	bne	a4,a5,.L100
	.loc 1 1221 22
	lhu	a5,-40(s0)
	mv	a0,a5
	call	lwip_htons
	mv	a5,a0
	sh	a5,-30(s0)
	.loc 1 1222 20
	lhu	a5,-38(s0)
	mv	a0,a5
	call	lwip_htons
	mv	a5,a0
	sh	a5,-22(s0)
	.loc 1 1225 17
	lbu	a5,-42(s0)
	.loc 1 1225 33
	slli	a5,a5,24
	srai	a5,a5,24
	.loc 1 1225 12
	bge	a5,zero,.L124
	.loc 1 1229 12
	lhu	a4,-30(s0)
	li	a5,1
	bne	a4,a5,.L125
	.loc 1 1240 23
	lw	a5,-80(s0)
	lw	a4,0(a5)
	.loc 1 1240 52
	lw	a5,-28(s0)
	lbu	a5,11(a5)
	mv	a2,a5
	.loc 1 1240 66
	lui	a5,%hi(dns_servers)
	addi	a3,a5,%lo(dns_servers)
	slli	a5,a2,2
	add	a5,a3,a5
	lw	a5,0(a5)
	.loc 1 1240 14
	bne	a4,a5,.L126
	.loc 1 1247 41
	lw	a5,-28(s0)
	addi	a5,a5,15
	.loc 1 1247 19
	li	a2,12
	lw	a1,-76(s0)
	mv	a0,a5
	call	dns_compare_name
	mv	a5,a0
	sh	a5,-20(s0)
	.loc 1 1248 12
	lhu	a4,-20(s0)
	li	a5,65536
	addi	a5,a5,-1
	beq	a4,a5,.L127
	.loc 1 1254 13
	lhu	a4,-20(s0)
	addi	a5,s0,-60
	mv	a3,a4
	li	a2,4
	mv	a1,a5
	lw	a0,-76(s0)
	call	pbuf_copy_partial
	mv	a5,a0
	mv	a4,a5
	.loc 1 1254 12 discriminator 1
	li	a5,4
	bne	a4,a5,.L128
	.loc 1 1257 17
	lhu	a4,-58(s0)
	.loc 1 1257 12
	li	a5,256
	bne	a4,a5,.L129
	.loc 1 1259 24
	lhu	a4,-60(s0)
	.loc 1 1258 109
	li	a5,256
	bne	a4,a5,.L129
	.loc 1 1264 12
	lhu	a4,-20(s0)
	li	a5,65536
	addi	a5,a5,-5
	bgtu	a4,a5,.L130
	.loc 1 1267 17
	lhu	a5,-20(s0)
	addi	a5,a5,4
	sh	a5,-20(s0)
	.loc 1 1270 16
	lbu	a5,-41(s0)
	.loc 1 1270 24
	andi	a5,a5,15
	.loc 1 1270 12
	beq	a5,zero,.L111
	.loc 1 1276 15
	lw	a0,-28(s0)
	call	dns_backupserver_available
	mv	a5,a0
	.loc 1 1276 14 discriminator 1
	beq	a5,zero,.L110
	.loc 1 1278 28
	lw	a5,-28(s0)
	li	a4,3
	sb	a4,13(a5)
	.loc 1 1279 24
	lw	a5,-28(s0)
	li	a4,1
	sb	a4,12(a5)
	.loc 1 1282 13
	lbu	a5,-17(s0)
	mv	a0,a5
	call	dns_check_entry
	.loc 1 1284 13
	j	.L98
.L119:
	.loc 1 1289 23
	lhu	a5,-20(s0)
	mv	a1,a5
	lw	a0,-76(s0)
	call	dns_skip_name
	mv	a5,a0
	sh	a5,-20(s0)
	.loc 1 1290 16
	lhu	a4,-20(s0)
	li	a5,65536
	addi	a5,a5,-1
	beq	a4,a5,.L131
	.loc 1 1295 17
	lhu	a4,-20(s0)
	addi	a5,s0,-56
	mv	a3,a4
	li	a2,10
	mv	a1,a5
	lw	a0,-76(s0)
	call	pbuf_copy_partial
	mv	a5,a0
	mv	a4,a5
	.loc 1 1295 16 discriminator 1
	li	a5,10
	bne	a4,a5,.L132
	.loc 1 1298 16
	lhu	a4,-20(s0)
	li	a5,65536
	addi	a5,a5,-11
	bgtu	a4,a5,.L133
	.loc 1 1301 21
	lhu	a5,-20(s0)
	addi	a5,a5,10
	sh	a5,-20(s0)
	.loc 1 1303 20
	lhu	a4,-54(s0)
	.loc 1 1303 16
	li	a5,256
	bne	a4,a5,.L115
	.loc 1 1305 23
	lhu	a4,-56(s0)
	.loc 1 1305 18
	li	a5,256
	bne	a4,a5,.L115
	.loc 1 1305 113 discriminator 1
	lhu	a4,-48(s0)
	.loc 1 1305 106 discriminator 1
	li	a5,1024
	bne	a4,a5,.L115
.LBB8:
	.loc 1 1312 23
	lhu	a4,-20(s0)
	addi	a5,s0,-64
	mv	a3,a4
	li	a2,4
	mv	a1,a5
	lw	a0,-76(s0)
	call	pbuf_copy_partial
	mv	a5,a0
	mv	a4,a5
	.loc 1 1312 22 discriminator 1
	li	a5,4
	bne	a4,a5,.L134
	.loc 1 1315 41
	lbu	a4,-17(s0)
	.loc 1 1315 58
	lw	a3,-64(s0)
	.loc 1 1315 47
	lui	a5,%hi(dns_table)
	addi	a2,a5,%lo(dns_table)
	mv	a5,a4
	slli	a5,a5,4
	add	a5,a5,a4
	slli	a5,a5,4
	add	a5,a2,a5
	sw	a3,4(a5)
	.loc 1 1316 19
	lw	a0,-76(s0)
	call	pbuf_free
	.loc 1 1318 19
	lw	a5,-52(s0)
	mv	a0,a5
	call	lwip_htonl
	mv	a4,a0
	.loc 1 1318 19 is_stmt 0 discriminator 1
	lbu	a5,-17(s0)
	mv	a1,a4
	mv	a0,a5
	call	dns_correct_response
	j	.L96
.L115:
.LBE8:
	.loc 1 1345 17 is_stmt 1
	lhu	s1,-20(s0)
	.loc 1 1345 33
	lhu	a5,-48(s0)
	mv	a0,a5
	call	lwip_htons
	mv	a5,a0
	.loc 1 1345 17 discriminator 1
	add	a4,s1,a5
	.loc 1 1345 16 discriminator 1
	li	a5,65536
	bge	a4,a5,.L135
	.loc 1 1348 41
	lhu	a5,-48(s0)
	mv	a0,a5
	call	lwip_htons
	mv	a5,a0
	mv	a4,a5
	.loc 1 1348 21 discriminator 1
	lhu	a5,-20(s0)
	add	a5,a4,a5
	sh	a5,-20(s0)
	.loc 1 1349 13
	lhu	a5,-22(s0)
	addi	a5,a5,-1
	sh	a5,-22(s0)
.L111:
	.loc 1 1287 33
	lhu	a5,-22(s0)
	beq	a5,zero,.L110
	.loc 1 1287 48 discriminator 1
	lw	a5,-76(s0)
	lhu	a5,8(a5)
	.loc 1 1287 33 discriminator 1
	lhu	a4,-20(s0)
	bltu	a4,a5,.L119
.L110:
	.loc 1 1370 9
	lw	a0,-76(s0)
	call	pbuf_free
	.loc 1 1371 9
	lbu	a5,-17(s0)
	li	a1,0
	mv	a0,a5
	call	dns_call_found
	.loc 1 1372 21
	lbu	a4,-17(s0)
	.loc 1 1372 28
	lui	a5,%hi(dns_table)
	addi	a3,a5,%lo(dns_table)
	mv	a5,a4
	slli	a5,a5,4
	add	a5,a5,a4
	slli	a5,a5,4
	add	a5,a3,a5
	sb	zero,10(a5)
	.loc 1 1373 9
	j	.L96
.L100:
.LBE7:
	.loc 1 1214 25 discriminator 2
	lbu	a5,-17(s0)
	addi	a5,a5,1
	sb	a5,-17(s0)
.L99:
	.loc 1 1214 19 discriminator 1
	lbu	a4,-17(s0)
	li	a5,3
	bleu	a4,a5,.L120
	.loc 1 1378 1
	j	.L123
.L122:
	.loc 1 1207 5
	nop
	j	.L98
.L123:
	.loc 1 1378 1
	nop
	j	.L98
.L124:
.LBB10:
	.loc 1 1227 11
	nop
	j	.L98
.L125:
	.loc 1 1231 11
	nop
	j	.L98
.L126:
	.loc 1 1241 13
	nop
	j	.L98
.L127:
	.loc 1 1250 11
	nop
	j	.L98
.L128:
	.loc 1 1255 11
	nop
	j	.L98
.L129:
	.loc 1 1261 11
	nop
	j	.L98
.L130:
	.loc 1 1265 11
	nop
	j	.L98
.L131:
	.loc 1 1291 15
	nop
	j	.L98
.L132:
	.loc 1 1296 15
	nop
	j	.L98
.L133:
	.loc 1 1299 15
	nop
	j	.L98
.L134:
.LBB9:
	.loc 1 1313 21 discriminator 1
	nop
	j	.L98
.L135:
.LBE9:
	.loc 1 1346 15
	nop
.L98:
.LBE10:
	.loc 1 1380 3
	lw	a0,-76(s0)
	call	pbuf_free
	.loc 1 1381 3
	nop
.L96:
	.loc 1 1382 1
	lw	ra,92(sp)
	.cfi_restore 1
	lw	s0,88(sp)
	.cfi_restore 8
	.cfi_def_cfa 2, 96
	lw	s1,84(sp)
	.cfi_restore 9
	addi	sp,sp,96
	.cfi_def_cfa_offset 0
	jr	ra
	.cfi_endproc
.LFE19:
	.size	dns_recv, .-dns_recv
	.section	.text.dns_enqueue,"ax",@progbits
	.align	1
	.type	dns_enqueue, @function
dns_enqueue:
.LFB20:
	.loc 1 1396 1
	.cfi_startproc
	addi	sp,sp,-64
	.cfi_def_cfa_offset 64
	sw	ra,60(sp)
	sw	s0,56(sp)
	.cfi_offset 1, -4
	.cfi_offset 8, -8
	addi	s0,sp,64
	.cfi_def_cfa 8, 0
	sw	a0,-52(s0)
	sw	a1,-56(s0)
	sw	a2,-60(s0)
	sw	a3,-64(s0)
	.loc 1 1399 27
	sw	zero,-24(s0)
	.loc 1 1406 11
	lw	a5,-56(s0)
	li	a4,255
	bleu	a5,a4,.L137
	li	a5,255
.L137:
	sw	a5,-28(s0)
	.loc 1 1439 8
	sb	zero,-18(s0)
	.loc 1 1440 9
	li	a5,4
	sb	a5,-19(s0)
	.loc 1 1441 10
	sb	zero,-17(s0)
	.loc 1 1441 3
	j	.L138
.L142:
	.loc 1 1442 23
	lbu	a4,-17(s0)
	.loc 1 1442 11
	mv	a5,a4
	slli	a5,a5,4
	add	a5,a5,a4
	slli	a5,a5,4
	lui	a4,%hi(dns_table)
	addi	a4,a4,%lo(dns_table)
	add	a5,a5,a4
	sw	a5,-24(s0)
	.loc 1 1444 14
	lw	a5,-24(s0)
	lbu	a5,10(a5)
	.loc 1 1444 8
	beq	a5,zero,.L147
	.loc 1 1448 14
	lw	a5,-24(s0)
	lbu	a4,10(a5)
	.loc 1 1448 8
	li	a5,3
	bne	a4,a5,.L141
.LBB11:
	.loc 1 1449 18
	lui	a5,%hi(dns_seqno)
	lbu	a4,%lo(dns_seqno)(a5)
	.loc 1 1449 42
	lw	a5,-24(s0)
	lbu	a5,14(a5)
	.loc 1 1449 12
	sub	a5,a4,a5
	sb	a5,-29(s0)
	.loc 1 1450 10
	lbu	a4,-29(s0)
	lbu	a5,-18(s0)
	bleu	a4,a5,.L141
	.loc 1 1451 14
	lbu	a5,-29(s0)
	sb	a5,-18(s0)
	.loc 1 1452 15
	lbu	a5,-17(s0)
	sb	a5,-19(s0)
.L141:
.LBE11:
	.loc 1 1441 22 discriminator 2
	lbu	a5,-17(s0)
	addi	a5,a5,1
	sb	a5,-17(s0)
.L138:
	.loc 1 1441 17 discriminator 1
	lbu	a4,-17(s0)
	li	a5,3
	bleu	a4,a5,.L142
	j	.L140
.L147:
	.loc 1 1445 7
	nop
.L140:
	.loc 1 1458 6
	lbu	a4,-17(s0)
	li	a5,4
	bne	a4,a5,.L143
	.loc 1 1459 8
	lbu	a4,-19(s0)
	li	a5,3
	bgtu	a4,a5,.L144
	.loc 1 1459 42 discriminator 1
	lbu	a4,-19(s0)
	lui	a5,%hi(dns_table)
	addi	a3,a5,%lo(dns_table)
	mv	a5,a4
	slli	a5,a5,4
	add	a5,a5,a4
	slli	a5,a5,4
	add	a5,a3,a5
	lbu	a4,10(a5)
	.loc 1 1459 22 discriminator 1
	li	a5,3
	beq	a4,a5,.L145
.L144:
	.loc 1 1462 14
	li	a5,-1
	j	.L146
.L145:
	.loc 1 1465 9
	lbu	a5,-19(s0)
	sb	a5,-17(s0)
	.loc 1 1466 25
	lbu	a4,-17(s0)
	.loc 1 1466 13
	mv	a5,a4
	slli	a5,a5,4
	add	a5,a5,a4
	slli	a5,a5,4
	lui	a4,%hi(dns_table)
	addi	a4,a4,%lo(dns_table)
	add	a5,a5,a4
	sw	a5,-24(s0)
.L143:
	.loc 1 1487 22
	lbu	a5,-17(s0)
	.loc 1 1487 7
	slli	a4,a5,3
	lui	a5,%hi(dns_requests)
	addi	a5,a5,%lo(dns_requests)
	add	a5,a4,a5
	sw	a5,-36(s0)
	.loc 1 1494 16
	lw	a5,-24(s0)
	li	a4,1
	sb	a4,10(a5)
	.loc 1 1495 16
	lui	a5,%hi(dns_seqno)
	lbu	a4,%lo(dns_seqno)(a5)
	lw	a5,-24(s0)
	sb	a4,14(a5)
	.loc 1 1498 14
	lw	a5,-36(s0)
	lw	a4,-60(s0)
	sw	a4,0(a5)
	.loc 1 1499 12
	lw	a5,-36(s0)
	lw	a4,-64(s0)
	sw	a4,4(a5)
	.loc 1 1500 15
	lw	a5,-24(s0)
	addi	a5,a5,15
	.loc 1 1500 3
	lw	a2,-28(s0)
	lw	a1,-52(s0)
	mv	a0,a5
	call	memcpy
	.loc 1 1501 24
	lw	a4,-24(s0)
	lw	a5,-28(s0)
	add	a5,a4,a5
	sb	zero,15(a5)
	.loc 1 1519 12
	lui	a5,%hi(dns_seqno)
	lbu	a5,%lo(dns_seqno)(a5)
	addi	a5,a5,1
	andi	a4,a5,0xff
	lui	a5,%hi(dns_seqno)
	sb	a4,%lo(dns_seqno)(a5)
	.loc 1 1522 3
	lbu	a5,-17(s0)
	mv	a0,a5
	call	dns_check_entry
	.loc 1 1525 10
	li	a5,-5
.L146:
	.loc 1 1526 1
	mv	a0,a5
	lw	ra,60(sp)
	.cfi_restore 1
	lw	s0,56(sp)
	.cfi_restore 8
	.cfi_def_cfa 2, 64
	addi	sp,sp,64
	.cfi_def_cfa_offset 0
	jr	ra
	.cfi_endproc
.LFE20:
	.size	dns_enqueue, .-dns_enqueue
	.section	.text.dns_gethostbyname,"ax",@progbits
	.align	1
	.globl	dns_gethostbyname
	.type	dns_gethostbyname, @function
dns_gethostbyname:
.LFB21:
	.loc 1 1551 1
	.cfi_startproc
	addi	sp,sp,-32
	.cfi_def_cfa_offset 32
	sw	ra,28(sp)
	sw	s0,24(sp)
	.cfi_offset 1, -4
	.cfi_offset 8, -8
	addi	s0,sp,32
	.cfi_def_cfa 8, 0
	sw	a0,-20(s0)
	sw	a1,-24(s0)
	sw	a2,-28(s0)
	sw	a3,-32(s0)
	.loc 1 1552 10
	li	a4,0
	lw	a3,-32(s0)
	lw	a2,-28(s0)
	lw	a1,-24(s0)
	lw	a0,-20(s0)
	call	dns_gethostbyname_addrtype
	mv	a5,a0
	.loc 1 1553 1
	mv	a0,a5
	lw	ra,28(sp)
	.cfi_restore 1
	lw	s0,24(sp)
	.cfi_restore 8
	.cfi_def_cfa 2, 32
	addi	sp,sp,32
	.cfi_def_cfa_offset 0
	jr	ra
	.cfi_endproc
.LFE21:
	.size	dns_gethostbyname, .-dns_gethostbyname
	.section	.text.dns_gethostbyname_addrtype,"ax",@progbits
	.align	1
	.globl	dns_gethostbyname_addrtype
	.type	dns_gethostbyname_addrtype, @function
dns_gethostbyname_addrtype:
.LFB22:
	.loc 1 1572 1
	.cfi_startproc
	addi	sp,sp,-64
	.cfi_def_cfa_offset 64
	sw	ra,60(sp)
	sw	s0,56(sp)
	.cfi_offset 1, -4
	.cfi_offset 8, -8
	addi	s0,sp,64
	.cfi_def_cfa 8, 0
	sw	a0,-36(s0)
	sw	a1,-40(s0)
	sw	a2,-44(s0)
	sw	a3,-48(s0)
	mv	a5,a4
	sb	a5,-49(s0)
	.loc 1 1579 6
	lw	a5,-40(s0)
	beq	a5,zero,.L151
	.loc 1 1579 21 discriminator 1
	lw	a5,-36(s0)
	beq	a5,zero,.L151
	.loc 1 1580 32
	lw	a5,-36(s0)
	lbu	a5,0(a5)
	.loc 1 1580 19
	bne	a5,zero,.L152
.L151:
	.loc 1 1581 12
	li	a5,-16
	j	.L153
.L152:
	.loc 1 1584 15
	lui	a5,%hi(dns_pcbs)
	lw	a5,%lo(dns_pcbs)(a5)
	.loc 1 1584 6
	bne	a5,zero,.L154
	.loc 1 1585 12
	li	a5,-16
	j	.L153
.L154:
	.loc 1 1588 17
	lw	a0,-36(s0)
	call	strlen
	sw	a0,-20(s0)
	.loc 1 1589 15
	lw	a5,-20(s0)
	addi	a5,a5,-1
	lw	a4,-36(s0)
	add	a5,a4,a5
	lbu	a4,0(a5)
	.loc 1 1589 6
	li	a5,46
	bne	a4,a5,.L155
	.loc 1 1590 16
	lw	a5,-20(s0)
	addi	a5,a5,-1
	sw	a5,-20(s0)
.L155:
	.loc 1 1592 6
	lw	a4,-20(s0)
	li	a5,255
	bleu	a4,a5,.L156
	.loc 1 1594 12
	li	a5,-16
	j	.L153
.L156:
	.loc 1 1606 7
	lw	a1,-40(s0)
	lw	a0,-36(s0)
	call	ip4addr_aton
	mv	a5,a0
	.loc 1 1606 6 discriminator 1
	beq	a5,zero,.L157
	.loc 1 1612 14
	li	a5,0
	j	.L153
.L157:
	.loc 1 1616 7
	lw	a2,-40(s0)
	lw	a1,-20(s0)
	lw	a0,-36(s0)
	call	dns_lookup
	mv	a5,a0
	.loc 1 1616 6 discriminator 1
	bne	a5,zero,.L158
	.loc 1 1617 12
	li	a5,0
	j	.L153
.L158:
	.loc 1 1647 26
	lui	a5,%hi(dns_servers)
	addi	a5,a5,%lo(dns_servers)
	lw	a5,0(a5)
	.loc 1 1647 8
	bne	a5,zero,.L159
	.loc 1 1648 14
	li	a5,-6
	j	.L153
.L159:
	.loc 1 1653 10
	lw	a3,-48(s0)
	lw	a2,-44(s0)
	lw	a1,-20(s0)
	lw	a0,-36(s0)
	call	dns_enqueue
	mv	a5,a0
.L153:
	.loc 1 1655 1
	mv	a0,a5
	lw	ra,60(sp)
	.cfi_restore 1
	lw	s0,56(sp)
	.cfi_restore 8
	.cfi_def_cfa 2, 64
	addi	sp,sp,64
	.cfi_def_cfa_offset 0
	jr	ra
	.cfi_endproc
.LFE22:
	.size	dns_gethostbyname_addrtype, .-dns_gethostbyname_addrtype
	.text
.Letext0:
	.file 2 "/home/chandu/sdk/bl602_iot_sdk/toolchain/compiler/lib/gcc/riscv32-unknown-elf/15.1.0/include/stddef.h"
	.file 3 "/home/chandu/sdk/bl602_iot_sdk/toolchain/compiler/lib/gcc/riscv32-unknown-elf/15.1.0/include/stdint-gcc.h"
	.file 4 "/home/chandu/sdk/bl602_iot_sdk/components/network/lwip/src/include/lwip/arch.h"
	.file 5 "/home/chandu/sdk/bl602_iot_sdk/components/network/lwip/src/include/lwip/err.h"
	.file 6 "/home/chandu/sdk/bl602_iot_sdk/components/network/lwip/src/include/lwip/pbuf.h"
	.file 7 "/home/chandu/sdk/bl602_iot_sdk/components/network/lwip/src/include/lwip/ip4_addr.h"
	.file 8 "/home/chandu/sdk/bl602_iot_sdk/components/network/lwip/src/include/lwip/ip_addr.h"
	.file 9 "/home/chandu/sdk/bl602_iot_sdk/toolchain/compiler/riscv32-unknown-elf/include/ctype.h"
	.file 10 "/home/chandu/sdk/bl602_iot_sdk/components/network/lwip/src/include/lwip/memp.h"
	.file 11 "/home/chandu/sdk/bl602_iot_sdk/components/network/lwip/src/include/lwip/netif.h"
	.file 12 "/home/chandu/sdk/bl602_iot_sdk/components/network/lwip/src/include/lwip/udp.h"
	.file 13 "/home/chandu/sdk/bl602_iot_sdk/components/network/lwip/src/include/lwip/dns.h"
	.file 14 "/home/chandu/sdk/bl602_iot_sdk/components/network/lwip/src/include/lwip/prot/dns.h"
	.file 15 "/home/chandu/sdk/bl602_iot_sdk/toolchain/compiler/riscv32-unknown-elf/include/string.h"
	.file 16 "/home/chandu/sdk/bl602_iot_sdk/components/network/lwip/src/include/lwip/def.h"
	.section	.note.GNU-stack,"",@progbits
