	.file	"inet_chksum.c"
	.option nopic
	.attribute arch, "rv32i2p1_m2p0_f2p2_c2p0_zicsr2p0_zmmul1p0_zca1p0_zcf1p0"
	.attribute unaligned_access, 0
	.attribute stack_align, 16
	.text
.Ltext0:
	.cfi_sections	.debug_frame
	.file 0 "/home/chandu/sdk/bl602_iot_sdk/customer_app/suas_app_pqkem_gateway/build_out/lwip" "/home/chandu/sdk/bl602_iot_sdk/components/network/lwip/src/core/inet_chksum.c"
	.section	.text.lwip_standard_chksum,"ax",@progbits
	.align	1
	.globl	lwip_standard_chksum
	.type	lwip_standard_chksum, @function
lwip_standard_chksum:
.LFB5:
	.file 1 "/home/chandu/sdk/bl602_iot_sdk/components/network/lwip/src/core/inet_chksum.c"
	.loc 1 190 1
	.cfi_startproc
	addi	sp,sp,-64
	.cfi_def_cfa_offset 64
	sw	ra,60(sp)
	sw	s0,56(sp)
	.cfi_offset 1, -4
	.cfi_offset 8, -8
	addi	s0,sp,64
	.cfi_def_cfa 8, 0
	sw	a0,-52(s0)
	sw	a1,-56(s0)
	.loc 1 191 15
	lw	a5,-52(s0)
	sw	a5,-20(s0)
	.loc 1 193 9
	sh	zero,-42(s0)
	.loc 1 195 9
	sw	zero,-32(s0)
	.loc 1 197 28
	lw	a5,-20(s0)
	.loc 1 197 7
	andi	a5,a5,1
	sw	a5,-40(s0)
	.loc 1 199 6
	lw	a5,-40(s0)
	beq	a5,zero,.L2
	.loc 1 199 11 discriminator 1
	lw	a5,-56(s0)
	ble	a5,zero,.L2
	.loc 1 200 26
	lw	a4,-20(s0)
	addi	a5,a4,1
	sw	a5,-20(s0)
	.loc 1 200 17
	addi	a5,s0,-42
	addi	a5,a5,1
	.loc 1 200 23
	lbu	a4,0(a4)
	.loc 1 200 21
	sb	a4,0(a5)
	.loc 1 201 8
	lw	a5,-56(s0)
	addi	a5,a5,-1
	sw	a5,-56(s0)
.L2:
	.loc 1 204 6
	lw	a5,-20(s0)
	sw	a5,-24(s0)
	.loc 1 206 8
	lw	a5,-24(s0)
	.loc 1 206 22
	andi	a5,a5,3
	.loc 1 206 6
	beq	a5,zero,.L3
	.loc 1 206 27 discriminator 1
	lw	a4,-56(s0)
	li	a5,1
	ble	a4,a5,.L3
	.loc 1 207 15
	lw	a5,-24(s0)
	addi	a4,a5,2
	sw	a4,-24(s0)
	.loc 1 207 12
	lhu	a5,0(a5)
	mv	a4,a5
	.loc 1 207 9
	lw	a5,-32(s0)
	add	a5,a5,a4
	sw	a5,-32(s0)
	.loc 1 208 9
	lw	a5,-56(s0)
	addi	a5,a5,-2
	sw	a5,-56(s0)
.L3:
	.loc 1 211 6
	lw	a5,-24(s0)
	sw	a5,-28(s0)
	.loc 1 213 9
	j	.L4
.L7:
	.loc 1 214 20
	lw	a5,-28(s0)
	addi	a4,a5,4
	sw	a4,-28(s0)
	.loc 1 214 17
	lw	a5,0(a5)
	.loc 1 214 9
	lw	a4,-32(s0)
	add	a5,a4,a5
	sw	a5,-36(s0)
	.loc 1 215 8
	lw	a4,-36(s0)
	lw	a5,-32(s0)
	bgeu	a4,a5,.L5
	.loc 1 216 10
	lw	a5,-36(s0)
	addi	a5,a5,1
	sw	a5,-36(s0)
.L5:
	.loc 1 219 20
	lw	a5,-28(s0)
	addi	a4,a5,4
	sw	a4,-28(s0)
	.loc 1 219 17
	lw	a5,0(a5)
	.loc 1 219 9
	lw	a4,-36(s0)
	add	a5,a4,a5
	sw	a5,-32(s0)
	.loc 1 220 8
	lw	a4,-32(s0)
	lw	a5,-36(s0)
	bgeu	a4,a5,.L6
	.loc 1 221 10
	lw	a5,-32(s0)
	addi	a5,a5,1
	sw	a5,-32(s0)
.L6:
	.loc 1 224 9
	lw	a5,-56(s0)
	addi	a5,a5,-8
	sw	a5,-56(s0)
.L4:
	.loc 1 213 14
	lw	a4,-56(s0)
	li	a5,7
	bgt	a4,a5,.L7
	.loc 1 228 25
	lw	a5,-32(s0)
	srli	a4,a5,16
	.loc 1 228 41
	lw	a5,-32(s0)
	slli	a5,a5,16
	srli	a5,a5,16
	.loc 1 228 7
	add	a5,a4,a5
	sw	a5,-32(s0)
	.loc 1 230 6
	lw	a5,-28(s0)
	sw	a5,-24(s0)
	.loc 1 233 9
	j	.L8
.L9:
	.loc 1 234 15
	lw	a5,-24(s0)
	addi	a4,a5,2
	sw	a4,-24(s0)
	.loc 1 234 12
	lhu	a5,0(a5)
	mv	a4,a5
	.loc 1 234 9
	lw	a5,-32(s0)
	add	a5,a5,a4
	sw	a5,-32(s0)
	.loc 1 235 9
	lw	a5,-56(s0)
	addi	a5,a5,-2
	sw	a5,-56(s0)
.L8:
	.loc 1 233 14
	lw	a4,-56(s0)
	li	a5,1
	bgt	a4,a5,.L9
	.loc 1 239 6
	lw	a5,-56(s0)
	ble	a5,zero,.L10
	.loc 1 240 14
	addi	a5,s0,-42
	.loc 1 240 23
	lw	a4,-24(s0)
	lbu	a4,0(a4)
	.loc 1 240 21
	sb	a4,0(a5)
.L10:
	.loc 1 243 7
	lhu	a5,-42(s0)
	mv	a4,a5
	lw	a5,-32(s0)
	add	a5,a5,a4
	sw	a5,-32(s0)
	.loc 1 247 25
	lw	a5,-32(s0)
	srli	a4,a5,16
	.loc 1 247 41
	lw	a5,-32(s0)
	slli	a5,a5,16
	srli	a5,a5,16
	.loc 1 247 7
	add	a5,a4,a5
	sw	a5,-32(s0)
	.loc 1 248 25
	lw	a5,-32(s0)
	srli	a4,a5,16
	.loc 1 248 41
	lw	a5,-32(s0)
	slli	a5,a5,16
	srli	a5,a5,16
	.loc 1 248 7
	add	a5,a4,a5
	sw	a5,-32(s0)
	.loc 1 250 6
	lw	a5,-40(s0)
	beq	a5,zero,.L11
	.loc 1 251 27
	lw	a5,-32(s0)
	slli	a5,a5,8
	slli	a4,a5,16
	srli	a4,a4,16
	.loc 1 251 53
	lw	a5,-32(s0)
	srli	a5,a5,8
	andi	a5,a5,255
	.loc 1 251 9
	or	a5,a4,a5
	sw	a5,-32(s0)
.L11:
	.loc 1 254 10
	lw	a5,-32(s0)
	slli	a5,a5,16
	srli	a5,a5,16
	.loc 1 255 1
	mv	a0,a5
	lw	ra,60(sp)
	.cfi_restore 1
	lw	s0,56(sp)
	.cfi_restore 8
	.cfi_def_cfa 2, 64
	addi	sp,sp,64
	.cfi_def_cfa_offset 0
	jr	ra
	.cfi_endproc
.LFE5:
	.size	lwip_standard_chksum, .-lwip_standard_chksum
	.section	.text.inet_cksum_pseudo_base,"ax",@progbits
	.align	1
	.type	inet_cksum_pseudo_base, @function
inet_cksum_pseudo_base:
.LFB6:
	.loc 1 261 1
	.cfi_startproc
	addi	sp,sp,-48
	.cfi_def_cfa_offset 48
	sw	ra,44(sp)
	sw	s0,40(sp)
	.cfi_offset 1, -4
	.cfi_offset 8, -8
	addi	s0,sp,48
	.cfi_def_cfa 8, 0
	sw	a0,-36(s0)
	mv	a5,a1
	mv	a4,a2
	sw	a3,-44(s0)
	sb	a5,-37(s0)
	mv	a5,a4
	sh	a5,-40(s0)
	.loc 1 263 7
	sw	zero,-24(s0)
	.loc 1 266 10
	lw	a5,-36(s0)
	sw	a5,-20(s0)
	.loc 1 266 3
	j	.L14
.L16:
	.loc 1 269 34
	lw	a5,-20(s0)
	lw	a4,4(a5)
	.loc 1 269 46
	lw	a5,-20(s0)
	lhu	a5,10(a5)
	.loc 1 269 12
	mv	a1,a5
	mv	a0,a4
	call	lwip_standard_chksum
	mv	a5,a0
	.loc 1 269 12 is_stmt 0 discriminator 1
	mv	a4,a5
	.loc 1 269 9 is_stmt 1 discriminator 1
	lw	a5,-44(s0)
	add	a5,a5,a4
	sw	a5,-44(s0)
	.loc 1 273 27
	lw	a5,-44(s0)
	srli	a4,a5,16
	.loc 1 273 43
	lw	a5,-44(s0)
	slli	a5,a5,16
	srli	a5,a5,16
	.loc 1 273 9
	add	a5,a4,a5
	sw	a5,-44(s0)
	.loc 1 274 10
	lw	a5,-20(s0)
	lhu	a5,10(a5)
	.loc 1 274 20
	andi	a5,a5,1
	slli	a5,a5,16
	srli	a5,a5,16
	.loc 1 274 8
	beq	a5,zero,.L15
	.loc 1 275 17
	lw	a5,-24(s0)
	seqz	a5,a5
	andi	a5,a5,0xff
	.loc 1 275 15
	sw	a5,-24(s0)
	.loc 1 276 29
	lw	a5,-44(s0)
	slli	a5,a5,8
	slli	a4,a5,16
	srli	a4,a4,16
	.loc 1 276 55
	lw	a5,-44(s0)
	srli	a5,a5,8
	andi	a5,a5,255
	.loc 1 276 11
	or	a5,a4,a5
	sw	a5,-44(s0)
.L15:
	.loc 1 266 27 discriminator 2
	lw	a5,-20(s0)
	lw	a5,0(a5)
	sw	a5,-20(s0)
.L14:
	.loc 1 266 17 discriminator 1
	lw	a5,-20(s0)
	bne	a5,zero,.L16
	.loc 1 281 6
	lw	a5,-24(s0)
	beq	a5,zero,.L17
	.loc 1 282 27
	lw	a5,-44(s0)
	slli	a5,a5,8
	slli	a4,a5,16
	srli	a4,a4,16
	.loc 1 282 53
	lw	a5,-44(s0)
	srli	a5,a5,8
	andi	a5,a5,255
	.loc 1 282 9
	or	a5,a4,a5
	sw	a5,-44(s0)
.L17:
	.loc 1 285 17
	lbu	a5,-37(s0)
	slli	a5,a5,16
	srli	a5,a5,16
	mv	a0,a5
	call	lwip_htons
	mv	a5,a0
	.loc 1 285 10 discriminator 1
	mv	a4,a5
	.loc 1 285 7 discriminator 1
	lw	a5,-44(s0)
	add	a5,a5,a4
	sw	a5,-44(s0)
	.loc 1 286 17
	lhu	a5,-40(s0)
	mv	a0,a5
	call	lwip_htons
	mv	a5,a0
	.loc 1 286 10 discriminator 1
	mv	a4,a5
	.loc 1 286 7 discriminator 1
	lw	a5,-44(s0)
	add	a5,a5,a4
	sw	a5,-44(s0)
	.loc 1 290 25
	lw	a5,-44(s0)
	srli	a4,a5,16
	.loc 1 290 41
	lw	a5,-44(s0)
	slli	a5,a5,16
	srli	a5,a5,16
	.loc 1 290 7
	add	a5,a4,a5
	sw	a5,-44(s0)
	.loc 1 291 25
	lw	a5,-44(s0)
	srli	a4,a5,16
	.loc 1 291 41
	lw	a5,-44(s0)
	slli	a5,a5,16
	srli	a5,a5,16
	.loc 1 291 7
	add	a5,a4,a5
	sw	a5,-44(s0)
	.loc 1 293 10
	lw	a5,-44(s0)
	slli	a5,a5,16
	srli	a5,a5,16
	not	a5,a5
	slli	a5,a5,16
	srli	a5,a5,16
	.loc 1 294 1
	mv	a0,a5
	lw	ra,44(sp)
	.cfi_restore 1
	lw	s0,40(sp)
	.cfi_restore 8
	.cfi_def_cfa 2, 48
	addi	sp,sp,48
	.cfi_def_cfa_offset 0
	jr	ra
	.cfi_endproc
.LFE6:
	.size	inet_cksum_pseudo_base, .-inet_cksum_pseudo_base
	.section	.text.inet_chksum_pseudo,"ax",@progbits
	.align	1
	.globl	inet_chksum_pseudo
	.type	inet_chksum_pseudo, @function
inet_chksum_pseudo:
.LFB7:
	.loc 1 312 1
	.cfi_startproc
	addi	sp,sp,-48
	.cfi_def_cfa_offset 48
	sw	ra,44(sp)
	sw	s0,40(sp)
	.cfi_offset 1, -4
	.cfi_offset 8, -8
	addi	s0,sp,48
	.cfi_def_cfa 8, 0
	sw	a0,-36(s0)
	mv	a5,a1
	sw	a3,-44(s0)
	sw	a4,-48(s0)
	sb	a5,-37(s0)
	mv	a5,a2
	sh	a5,-40(s0)
	.loc 1 316 8
	lw	a5,-44(s0)
	lw	a5,0(a5)
	sw	a5,-20(s0)
	.loc 1 317 7
	lw	a5,-20(s0)
	slli	a5,a5,16
	srli	a5,a5,16
	sw	a5,-24(s0)
	.loc 1 318 30
	lw	a5,-20(s0)
	srli	a5,a5,16
	.loc 1 318 7
	lw	a4,-24(s0)
	add	a5,a4,a5
	sw	a5,-24(s0)
	.loc 1 319 8
	lw	a5,-48(s0)
	lw	a5,0(a5)
	sw	a5,-20(s0)
	.loc 1 320 29
	lw	a5,-20(s0)
	slli	a5,a5,16
	srli	a5,a5,16
	.loc 1 320 7
	lw	a4,-24(s0)
	add	a5,a4,a5
	sw	a5,-24(s0)
	.loc 1 321 30
	lw	a5,-20(s0)
	srli	a5,a5,16
	.loc 1 321 7
	lw	a4,-24(s0)
	add	a5,a4,a5
	sw	a5,-24(s0)
	.loc 1 323 25
	lw	a5,-24(s0)
	srli	a4,a5,16
	.loc 1 323 41
	lw	a5,-24(s0)
	slli	a5,a5,16
	srli	a5,a5,16
	.loc 1 323 7
	add	a5,a4,a5
	sw	a5,-24(s0)
	.loc 1 324 25
	lw	a5,-24(s0)
	srli	a4,a5,16
	.loc 1 324 41
	lw	a5,-24(s0)
	slli	a5,a5,16
	srli	a5,a5,16
	.loc 1 324 7
	add	a5,a4,a5
	sw	a5,-24(s0)
	.loc 1 326 10
	lhu	a4,-40(s0)
	lbu	a5,-37(s0)
	lw	a3,-24(s0)
	mv	a2,a4
	mv	a1,a5
	lw	a0,-36(s0)
	call	inet_cksum_pseudo_base
	mv	a5,a0
	.loc 1 327 1
	mv	a0,a5
	lw	ra,44(sp)
	.cfi_restore 1
	lw	s0,40(sp)
	.cfi_restore 8
	.cfi_def_cfa 2, 48
	addi	sp,sp,48
	.cfi_def_cfa_offset 0
	jr	ra
	.cfi_endproc
.LFE7:
	.size	inet_chksum_pseudo, .-inet_chksum_pseudo
	.section	.text.ip_chksum_pseudo,"ax",@progbits
	.align	1
	.globl	ip_chksum_pseudo
	.type	ip_chksum_pseudo, @function
ip_chksum_pseudo:
.LFB8:
	.loc 1 381 1
	.cfi_startproc
	addi	sp,sp,-32
	.cfi_def_cfa_offset 32
	sw	ra,28(sp)
	sw	s0,24(sp)
	.cfi_offset 1, -4
	.cfi_offset 8, -8
	addi	s0,sp,32
	.cfi_def_cfa 8, 0
	sw	a0,-20(s0)
	mv	a5,a1
	sw	a3,-28(s0)
	sw	a4,-32(s0)
	sb	a5,-21(s0)
	mv	a5,a2
	sh	a5,-24(s0)
	.loc 1 392 12
	lhu	a2,-24(s0)
	lbu	a5,-21(s0)
	lw	a4,-32(s0)
	lw	a3,-28(s0)
	mv	a1,a5
	lw	a0,-20(s0)
	call	inet_chksum_pseudo
	mv	a5,a0
	.loc 1 395 1
	mv	a0,a5
	lw	ra,28(sp)
	.cfi_restore 1
	lw	s0,24(sp)
	.cfi_restore 8
	.cfi_def_cfa 2, 32
	addi	sp,sp,32
	.cfi_def_cfa_offset 0
	jr	ra
	.cfi_endproc
.LFE8:
	.size	ip_chksum_pseudo, .-ip_chksum_pseudo
	.section	.text.inet_cksum_pseudo_partial_base,"ax",@progbits
	.align	1
	.type	inet_cksum_pseudo_partial_base, @function
inet_cksum_pseudo_partial_base:
.LFB9:
	.loc 1 401 1
	.cfi_startproc
	addi	sp,sp,-48
	.cfi_def_cfa_offset 48
	sw	ra,44(sp)
	sw	s0,40(sp)
	.cfi_offset 1, -4
	.cfi_offset 8, -8
	addi	s0,sp,48
	.cfi_def_cfa 8, 0
	sw	a0,-36(s0)
	mv	a5,a1
	sw	a4,-48(s0)
	sb	a5,-37(s0)
	mv	a5,a2
	sh	a5,-40(s0)
	mv	a5,a3
	sh	a5,-42(s0)
	.loc 1 403 7
	sw	zero,-24(s0)
	.loc 1 407 10
	lw	a5,-36(s0)
	sw	a5,-20(s0)
	.loc 1 407 3
	j	.L24
.L28:
	.loc 1 410 12
	lw	a5,-20(s0)
	lhu	a5,10(a5)
	sh	a5,-26(s0)
	.loc 1 411 8
	lhu	a4,-26(s0)
	lhu	a5,-42(s0)
	bleu	a4,a5,.L25
	.loc 1 412 14
	lhu	a5,-42(s0)
	sh	a5,-26(s0)
.L25:
	.loc 1 414 34
	lw	a5,-20(s0)
	lw	a5,4(a5)
	.loc 1 414 12
	lhu	a4,-26(s0)
	mv	a1,a4
	mv	a0,a5
	call	lwip_standard_chksum
	mv	a5,a0
	.loc 1 414 12 is_stmt 0 discriminator 1
	mv	a4,a5
	.loc 1 414 9 is_stmt 1 discriminator 1
	lw	a5,-48(s0)
	add	a5,a5,a4
	sw	a5,-48(s0)
	.loc 1 415 16
	lhu	a5,-42(s0)
	mv	a4,a5
	lhu	a5,-26(s0)
	sub	a5,a4,a5
	sh	a5,-42(s0)
	.loc 1 419 27
	lw	a5,-48(s0)
	srli	a4,a5,16
	.loc 1 419 43
	lw	a5,-48(s0)
	slli	a5,a5,16
	srli	a5,a5,16
	.loc 1 419 9
	add	a5,a4,a5
	sw	a5,-48(s0)
	.loc 1 420 10
	lw	a5,-20(s0)
	lhu	a5,10(a5)
	.loc 1 420 20
	andi	a5,a5,1
	slli	a5,a5,16
	srli	a5,a5,16
	.loc 1 420 8
	beq	a5,zero,.L26
	.loc 1 421 17
	lw	a5,-24(s0)
	seqz	a5,a5
	andi	a5,a5,0xff
	.loc 1 421 15
	sw	a5,-24(s0)
	.loc 1 422 29
	lw	a5,-48(s0)
	slli	a5,a5,8
	slli	a4,a5,16
	srli	a4,a4,16
	.loc 1 422 55
	lw	a5,-48(s0)
	srli	a5,a5,8
	andi	a5,a5,255
	.loc 1 422 11
	or	a5,a4,a5
	sw	a5,-48(s0)
.L26:
	.loc 1 407 49 discriminator 2
	lw	a5,-20(s0)
	lw	a5,0(a5)
	sw	a5,-20(s0)
.L24:
	.loc 1 407 26 discriminator 1
	lw	a5,-20(s0)
	beq	a5,zero,.L27
	.loc 1 407 26 is_stmt 0 discriminator 3
	lhu	a5,-42(s0)
	bne	a5,zero,.L28
.L27:
	.loc 1 427 6 is_stmt 1
	lw	a5,-24(s0)
	beq	a5,zero,.L29
	.loc 1 428 27
	lw	a5,-48(s0)
	slli	a5,a5,8
	slli	a4,a5,16
	srli	a4,a4,16
	.loc 1 428 53
	lw	a5,-48(s0)
	srli	a5,a5,8
	andi	a5,a5,255
	.loc 1 428 9
	or	a5,a4,a5
	sw	a5,-48(s0)
.L29:
	.loc 1 431 17
	lbu	a5,-37(s0)
	slli	a5,a5,16
	srli	a5,a5,16
	mv	a0,a5
	call	lwip_htons
	mv	a5,a0
	.loc 1 431 10 discriminator 1
	mv	a4,a5
	.loc 1 431 7 discriminator 1
	lw	a5,-48(s0)
	add	a5,a5,a4
	sw	a5,-48(s0)
	.loc 1 432 17
	lhu	a5,-40(s0)
	mv	a0,a5
	call	lwip_htons
	mv	a5,a0
	.loc 1 432 10 discriminator 1
	mv	a4,a5
	.loc 1 432 7 discriminator 1
	lw	a5,-48(s0)
	add	a5,a5,a4
	sw	a5,-48(s0)
	.loc 1 436 25
	lw	a5,-48(s0)
	srli	a4,a5,16
	.loc 1 436 41
	lw	a5,-48(s0)
	slli	a5,a5,16
	srli	a5,a5,16
	.loc 1 436 7
	add	a5,a4,a5
	sw	a5,-48(s0)
	.loc 1 437 25
	lw	a5,-48(s0)
	srli	a4,a5,16
	.loc 1 437 41
	lw	a5,-48(s0)
	slli	a5,a5,16
	srli	a5,a5,16
	.loc 1 437 7
	add	a5,a4,a5
	sw	a5,-48(s0)
	.loc 1 439 10
	lw	a5,-48(s0)
	slli	a5,a5,16
	srli	a5,a5,16
	not	a5,a5
	slli	a5,a5,16
	srli	a5,a5,16
	.loc 1 440 1
	mv	a0,a5
	lw	ra,44(sp)
	.cfi_restore 1
	lw	s0,40(sp)
	.cfi_restore 8
	.cfi_def_cfa 2, 48
	addi	sp,sp,48
	.cfi_def_cfa_offset 0
	jr	ra
	.cfi_endproc
.LFE9:
	.size	inet_cksum_pseudo_partial_base, .-inet_cksum_pseudo_partial_base
	.section	.text.inet_chksum_pseudo_partial,"ax",@progbits
	.align	1
	.globl	inet_chksum_pseudo_partial
	.type	inet_chksum_pseudo_partial, @function
inet_chksum_pseudo_partial:
.LFB10:
	.loc 1 458 1
	.cfi_startproc
	addi	sp,sp,-64
	.cfi_def_cfa_offset 64
	sw	ra,60(sp)
	sw	s0,56(sp)
	.cfi_offset 1, -4
	.cfi_offset 8, -8
	addi	s0,sp,64
	.cfi_def_cfa 8, 0
	sw	a0,-36(s0)
	sw	a4,-48(s0)
	sw	a5,-52(s0)
	mv	a5,a1
	sb	a5,-37(s0)
	mv	a5,a2
	sh	a5,-40(s0)
	mv	a5,a3
	sh	a5,-42(s0)
	.loc 1 462 8
	lw	a5,-48(s0)
	lw	a5,0(a5)
	sw	a5,-20(s0)
	.loc 1 463 7
	lw	a5,-20(s0)
	slli	a5,a5,16
	srli	a5,a5,16
	sw	a5,-24(s0)
	.loc 1 464 30
	lw	a5,-20(s0)
	srli	a5,a5,16
	.loc 1 464 7
	lw	a4,-24(s0)
	add	a5,a4,a5
	sw	a5,-24(s0)
	.loc 1 465 8
	lw	a5,-52(s0)
	lw	a5,0(a5)
	sw	a5,-20(s0)
	.loc 1 466 29
	lw	a5,-20(s0)
	slli	a5,a5,16
	srli	a5,a5,16
	.loc 1 466 7
	lw	a4,-24(s0)
	add	a5,a4,a5
	sw	a5,-24(s0)
	.loc 1 467 30
	lw	a5,-20(s0)
	srli	a5,a5,16
	.loc 1 467 7
	lw	a4,-24(s0)
	add	a5,a4,a5
	sw	a5,-24(s0)
	.loc 1 469 25
	lw	a5,-24(s0)
	srli	a4,a5,16
	.loc 1 469 41
	lw	a5,-24(s0)
	slli	a5,a5,16
	srli	a5,a5,16
	.loc 1 469 7
	add	a5,a4,a5
	sw	a5,-24(s0)
	.loc 1 470 25
	lw	a5,-24(s0)
	srli	a4,a5,16
	.loc 1 470 41
	lw	a5,-24(s0)
	slli	a5,a5,16
	srli	a5,a5,16
	.loc 1 470 7
	add	a5,a4,a5
	sw	a5,-24(s0)
	.loc 1 472 10
	lhu	a3,-42(s0)
	lhu	a2,-40(s0)
	lbu	a5,-37(s0)
	lw	a4,-24(s0)
	mv	a1,a5
	lw	a0,-36(s0)
	call	inet_cksum_pseudo_partial_base
	mv	a5,a0
	.loc 1 473 1
	mv	a0,a5
	lw	ra,60(sp)
	.cfi_restore 1
	lw	s0,56(sp)
	.cfi_restore 8
	.cfi_def_cfa 2, 64
	addi	sp,sp,64
	.cfi_def_cfa_offset 0
	jr	ra
	.cfi_endproc
.LFE10:
	.size	inet_chksum_pseudo_partial, .-inet_chksum_pseudo_partial
	.section	.text.ip_chksum_pseudo_partial,"ax",@progbits
	.align	1
	.globl	ip_chksum_pseudo_partial
	.type	ip_chksum_pseudo_partial, @function
ip_chksum_pseudo_partial:
.LFB11:
	.loc 1 528 1
	.cfi_startproc
	addi	sp,sp,-48
	.cfi_def_cfa_offset 48
	sw	ra,44(sp)
	sw	s0,40(sp)
	.cfi_offset 1, -4
	.cfi_offset 8, -8
	addi	s0,sp,48
	.cfi_def_cfa 8, 0
	sw	a0,-20(s0)
	sw	a4,-32(s0)
	sw	a5,-36(s0)
	mv	a5,a1
	sb	a5,-21(s0)
	mv	a5,a2
	sh	a5,-24(s0)
	mv	a5,a3
	sh	a5,-26(s0)
	.loc 1 539 12
	lhu	a3,-26(s0)
	lhu	a2,-24(s0)
	lbu	a1,-21(s0)
	lw	a5,-36(s0)
	lw	a4,-32(s0)
	lw	a0,-20(s0)
	call	inet_chksum_pseudo_partial
	mv	a5,a0
	.loc 1 542 1
	mv	a0,a5
	lw	ra,44(sp)
	.cfi_restore 1
	lw	s0,40(sp)
	.cfi_restore 8
	.cfi_def_cfa 2, 48
	addi	sp,sp,48
	.cfi_def_cfa_offset 0
	jr	ra
	.cfi_endproc
.LFE11:
	.size	ip_chksum_pseudo_partial, .-ip_chksum_pseudo_partial
	.section	.text.inet_chksum,"ax",@progbits
	.align	1
	.globl	inet_chksum
	.type	inet_chksum, @function
inet_chksum:
.LFB12:
	.loc 1 556 1
	.cfi_startproc
	addi	sp,sp,-32
	.cfi_def_cfa_offset 32
	sw	ra,28(sp)
	sw	s0,24(sp)
	.cfi_offset 1, -4
	.cfi_offset 8, -8
	addi	s0,sp,32
	.cfi_def_cfa 8, 0
	sw	a0,-20(s0)
	mv	a5,a1
	sh	a5,-22(s0)
	.loc 1 557 32
	lhu	a5,-22(s0)
	mv	a1,a5
	lw	a0,-20(s0)
	call	lwip_standard_chksum
	mv	a5,a0
	.loc 1 557 10 discriminator 1
	not	a5,a5
	slli	a5,a5,16
	srli	a5,a5,16
	.loc 1 558 1
	mv	a0,a5
	lw	ra,28(sp)
	.cfi_restore 1
	lw	s0,24(sp)
	.cfi_restore 8
	.cfi_def_cfa 2, 32
	addi	sp,sp,32
	.cfi_def_cfa_offset 0
	jr	ra
	.cfi_endproc
.LFE12:
	.size	inet_chksum, .-inet_chksum
	.section	.text.inet_chksum_pbuf,"ax",@progbits
	.align	1
	.globl	inet_chksum_pbuf
	.type	inet_chksum_pbuf, @function
inet_chksum_pbuf:
.LFB13:
	.loc 1 569 1
	.cfi_startproc
	addi	sp,sp,-48
	.cfi_def_cfa_offset 48
	sw	ra,44(sp)
	sw	s0,40(sp)
	.cfi_offset 1, -4
	.cfi_offset 8, -8
	addi	s0,sp,48
	.cfi_def_cfa 8, 0
	sw	a0,-36(s0)
	.loc 1 572 7
	sw	zero,-28(s0)
	.loc 1 574 7
	sw	zero,-20(s0)
	.loc 1 575 10
	lw	a5,-36(s0)
	sw	a5,-24(s0)
	.loc 1 575 3
	j	.L38
.L40:
	.loc 1 576 34
	lw	a5,-24(s0)
	lw	a4,4(a5)
	.loc 1 576 46
	lw	a5,-24(s0)
	lhu	a5,10(a5)
	.loc 1 576 12
	mv	a1,a5
	mv	a0,a4
	call	lwip_standard_chksum
	mv	a5,a0
	.loc 1 576 12 is_stmt 0 discriminator 1
	mv	a4,a5
	.loc 1 576 9 is_stmt 1 discriminator 1
	lw	a5,-20(s0)
	add	a5,a5,a4
	sw	a5,-20(s0)
	.loc 1 577 27
	lw	a5,-20(s0)
	srli	a4,a5,16
	.loc 1 577 43
	lw	a5,-20(s0)
	slli	a5,a5,16
	srli	a5,a5,16
	.loc 1 577 9
	add	a5,a4,a5
	sw	a5,-20(s0)
	.loc 1 578 10
	lw	a5,-24(s0)
	lhu	a5,10(a5)
	.loc 1 578 20
	andi	a5,a5,1
	slli	a5,a5,16
	srli	a5,a5,16
	.loc 1 578 8
	beq	a5,zero,.L39
	.loc 1 579 17
	lw	a5,-28(s0)
	seqz	a5,a5
	andi	a5,a5,0xff
	.loc 1 579 15
	sw	a5,-28(s0)
	.loc 1 580 29
	lw	a5,-20(s0)
	slli	a5,a5,8
	slli	a4,a5,16
	srli	a4,a4,16
	.loc 1 580 55
	lw	a5,-20(s0)
	srli	a5,a5,8
	andi	a5,a5,255
	.loc 1 580 11
	or	a5,a4,a5
	sw	a5,-20(s0)
.L39:
	.loc 1 575 27 discriminator 2
	lw	a5,-24(s0)
	lw	a5,0(a5)
	sw	a5,-24(s0)
.L38:
	.loc 1 575 17 discriminator 1
	lw	a5,-24(s0)
	bne	a5,zero,.L40
	.loc 1 584 6
	lw	a5,-28(s0)
	beq	a5,zero,.L41
	.loc 1 585 27
	lw	a5,-20(s0)
	slli	a5,a5,8
	slli	a4,a5,16
	srli	a4,a4,16
	.loc 1 585 53
	lw	a5,-20(s0)
	srli	a5,a5,8
	andi	a5,a5,255
	.loc 1 585 9
	or	a5,a4,a5
	sw	a5,-20(s0)
.L41:
	.loc 1 587 10
	lw	a5,-20(s0)
	slli	a5,a5,16
	srli	a5,a5,16
	not	a5,a5
	slli	a5,a5,16
	srli	a5,a5,16
	.loc 1 588 1
	mv	a0,a5
	lw	ra,44(sp)
	.cfi_restore 1
	lw	s0,40(sp)
	.cfi_restore 8
	.cfi_def_cfa 2, 48
	addi	sp,sp,48
	.cfi_def_cfa_offset 0
	jr	ra
	.cfi_endproc
.LFE13:
	.size	inet_chksum_pbuf, .-inet_chksum_pbuf
	.section	.text.lwip_chksum_copy,"ax",@progbits
	.align	1
	.globl	lwip_chksum_copy
	.type	lwip_chksum_copy, @function
lwip_chksum_copy:
.LFB14:
	.loc 1 604 1
	.cfi_startproc
	addi	sp,sp,-32
	.cfi_def_cfa_offset 32
	sw	ra,28(sp)
	sw	s0,24(sp)
	.cfi_offset 1, -4
	.cfi_offset 8, -8
	addi	s0,sp,32
	.cfi_def_cfa 8, 0
	sw	a0,-20(s0)
	sw	a1,-24(s0)
	mv	a5,a2
	sh	a5,-26(s0)
	.loc 1 605 3
	lhu	a5,-26(s0)
	mv	a2,a5
	lw	a1,-24(s0)
	lw	a0,-20(s0)
	call	memcpy
	.loc 1 606 10
	lhu	a5,-26(s0)
	mv	a1,a5
	lw	a0,-20(s0)
	call	lwip_standard_chksum
	mv	a5,a0
	.loc 1 607 1
	mv	a0,a5
	lw	ra,28(sp)
	.cfi_restore 1
	lw	s0,24(sp)
	.cfi_restore 8
	.cfi_def_cfa 2, 32
	addi	sp,sp,32
	.cfi_def_cfa_offset 0
	jr	ra
	.cfi_endproc
.LFE14:
	.size	lwip_chksum_copy, .-lwip_chksum_copy
	.text
.Letext0:
	.file 2 "/home/chandu/sdk/bl602_iot_sdk/toolchain/compiler/lib/gcc/riscv32-unknown-elf/15.1.0/include/stddef.h"
	.file 3 "/home/chandu/sdk/bl602_iot_sdk/toolchain/compiler/lib/gcc/riscv32-unknown-elf/15.1.0/include/stdint-gcc.h"
	.file 4 "/home/chandu/sdk/bl602_iot_sdk/components/network/lwip/src/include/lwip/arch.h"
	.file 5 "/home/chandu/sdk/bl602_iot_sdk/components/network/lwip/src/include/lwip/pbuf.h"
	.file 6 "/home/chandu/sdk/bl602_iot_sdk/components/network/lwip/src/include/lwip/ip4_addr.h"
	.file 7 "/home/chandu/sdk/bl602_iot_sdk/components/network/lwip/src/include/lwip/ip_addr.h"
	.file 8 "/home/chandu/sdk/bl602_iot_sdk/toolchain/compiler/riscv32-unknown-elf/include/string.h"
	.file 9 "/home/chandu/sdk/bl602_iot_sdk/components/network/lwip/src/include/lwip/def.h"
	.section	.note.GNU-stack,"",@progbits
