	.file	"mem.c"
	.option nopic
	.attribute arch, "rv32i2p1_m2p0_f2p2_c2p0_zicsr2p0_zmmul1p0_zca1p0_zcf1p0"
	.attribute unaligned_access, 0
	.attribute stack_align, 16
	.text
.Ltext0:
	.cfi_sections	.debug_frame
	.file 0 "/home/chandu/sdk/bl602_iot_sdk/customer_app/suas_app_pqkem_gateway/build_out/lwip" "/home/chandu/sdk/bl602_iot_sdk/components/network/lwip/src/core/mem.c"
	.globl	ram_heap
	.section	.wifi_ram,"aw"
	.align	2
	.type	ram_heap, @object
	.size	ram_heap, 8211
ram_heap:
	.zero	8211
	.section	.sbss.ram,"aw",@nobits
	.align	2
	.type	ram, @object
	.size	ram, 4
ram:
	.zero	4
	.section	.sbss.ram_end,"aw",@nobits
	.align	2
	.type	ram_end, @object
	.size	ram_end, 4
ram_end:
	.zero	4
	.section	.sbss.mem_mutex,"aw",@nobits
	.align	2
	.type	mem_mutex, @object
	.size	mem_mutex, 4
mem_mutex:
	.zero	4
	.section	.sbss.lfree,"aw",@nobits
	.align	2
	.type	lfree, @object
	.size	lfree, 4
lfree:
	.zero	4
	.section	.text.ptr_to_mem,"ax",@progbits
	.align	1
	.type	ptr_to_mem, @function
ptr_to_mem:
.LFB6:
	.file 1 "/home/chandu/sdk/bl602_iot_sdk/components/network/lwip/src/core/mem.c"
	.loc 1 439 1
	.cfi_startproc
	addi	sp,sp,-32
	.cfi_def_cfa_offset 32
	sw	ra,28(sp)
	sw	s0,24(sp)
	.cfi_offset 1, -4
	.cfi_offset 8, -8
	addi	s0,sp,32
	.cfi_def_cfa 8, 0
	mv	a5,a0
	sh	a5,-18(s0)
	.loc 1 440 32
	lui	a5,%hi(ram)
	lw	a4,%lo(ram)(a5)
	lhu	a5,-18(s0)
	.loc 1 440 10
	add	a5,a4,a5
	.loc 1 441 1
	mv	a0,a5
	lw	ra,28(sp)
	.cfi_restore 1
	lw	s0,24(sp)
	.cfi_restore 8
	.cfi_def_cfa 2, 32
	addi	sp,sp,32
	.cfi_def_cfa_offset 0
	jr	ra
	.cfi_endproc
.LFE6:
	.size	ptr_to_mem, .-ptr_to_mem
	.section	.text.mem_to_ptr,"ax",@progbits
	.align	1
	.type	mem_to_ptr, @function
mem_to_ptr:
.LFB7:
	.loc 1 445 1
	.cfi_startproc
	addi	sp,sp,-32
	.cfi_def_cfa_offset 32
	sw	ra,28(sp)
	sw	s0,24(sp)
	.cfi_offset 1, -4
	.cfi_offset 8, -8
	addi	s0,sp,32
	.cfi_def_cfa 8, 0
	sw	a0,-20(s0)
	.loc 1 446 35
	lui	a5,%hi(ram)
	lw	a5,%lo(ram)(a5)
	lw	a4,-20(s0)
	sub	a5,a4,a5
	.loc 1 446 10
	slli	a5,a5,16
	srli	a5,a5,16
	.loc 1 447 1
	mv	a0,a5
	lw	ra,28(sp)
	.cfi_restore 1
	lw	s0,24(sp)
	.cfi_restore 8
	.cfi_def_cfa 2, 32
	addi	sp,sp,32
	.cfi_def_cfa_offset 0
	jr	ra
	.cfi_endproc
.LFE7:
	.size	mem_to_ptr, .-mem_to_ptr
	.section	.text.plug_holes,"ax",@progbits
	.align	1
	.type	plug_holes, @function
plug_holes:
.LFB8:
	.loc 1 462 1
	.cfi_startproc
	addi	sp,sp,-48
	.cfi_def_cfa_offset 48
	sw	ra,44(sp)
	sw	s0,40(sp)
	sw	s1,36(sp)
	.cfi_offset 1, -4
	.cfi_offset 8, -8
	.cfi_offset 9, -12
	addi	s0,sp,48
	.cfi_def_cfa 8, 0
	sw	a0,-36(s0)
	.loc 1 473 10
	lw	a5,-36(s0)
	lhu	a5,0(a5)
	mv	a0,a5
	call	ptr_to_mem
	sw	a0,-20(s0)
	.loc 1 474 6
	lw	a4,-36(s0)
	lw	a5,-20(s0)
	beq	a4,a5,.L6
	.loc 1 474 26 discriminator 1
	lw	a5,-20(s0)
	lbu	a5,4(a5)
	.loc 1 474 19 discriminator 1
	bne	a5,zero,.L6
	.loc 1 474 57 discriminator 2
	lui	a5,%hi(ram_end)
	lw	a5,%lo(ram_end)(a5)
	.loc 1 474 38 discriminator 2
	lw	a4,-20(s0)
	beq	a4,a5,.L6
	.loc 1 476 15
	lui	a5,%hi(lfree)
	lw	a5,%lo(lfree)(a5)
	.loc 1 476 8
	lw	a4,-20(s0)
	bne	a4,a5,.L7
	.loc 1 477 13
	lui	a5,%hi(lfree)
	lw	a4,-36(s0)
	sw	a4,%lo(lfree)(a5)
.L7:
	.loc 1 479 21
	lw	a5,-20(s0)
	lhu	a4,0(a5)
	.loc 1 479 15
	lw	a5,-36(s0)
	sh	a4,0(a5)
	.loc 1 480 13
	lw	a5,-20(s0)
	lhu	a4,0(a5)
	.loc 1 480 8
	li	a5,8192
	beq	a4,a5,.L6
	.loc 1 481 7
	lw	a5,-20(s0)
	lhu	a5,0(a5)
	mv	a0,a5
	call	ptr_to_mem
	mv	s1,a0
	.loc 1 481 38 discriminator 1
	lw	a0,-36(s0)
	call	mem_to_ptr
	mv	a5,a0
	.loc 1 481 36 discriminator 2
	sh	a5,2(s1)
.L6:
	.loc 1 486 10
	lw	a5,-36(s0)
	lhu	a5,2(a5)
	mv	a0,a5
	call	ptr_to_mem
	sw	a0,-24(s0)
	.loc 1 487 6
	lw	a4,-24(s0)
	lw	a5,-36(s0)
	beq	a4,a5,.L10
	.loc 1 487 26 discriminator 1
	lw	a5,-24(s0)
	lbu	a5,4(a5)
	.loc 1 487 19 discriminator 1
	bne	a5,zero,.L10
	.loc 1 489 15
	lui	a5,%hi(lfree)
	lw	a5,%lo(lfree)(a5)
	.loc 1 489 8
	lw	a4,-36(s0)
	bne	a4,a5,.L9
	.loc 1 490 13
	lui	a5,%hi(lfree)
	lw	a4,-24(s0)
	sw	a4,%lo(lfree)(a5)
.L9:
	.loc 1 492 21
	lw	a5,-36(s0)
	lhu	a4,0(a5)
	.loc 1 492 16
	lw	a5,-24(s0)
	sh	a4,0(a5)
	.loc 1 493 12
	lw	a5,-36(s0)
	lhu	a4,0(a5)
	.loc 1 493 8
	li	a5,8192
	beq	a4,a5,.L10
	.loc 1 494 7
	lw	a5,-36(s0)
	lhu	a5,0(a5)
	mv	a0,a5
	call	ptr_to_mem
	mv	s1,a0
	.loc 1 494 37 discriminator 1
	lw	a0,-24(s0)
	call	mem_to_ptr
	mv	a5,a0
	.loc 1 494 35 discriminator 2
	sh	a5,2(s1)
.L10:
	.loc 1 497 1
	nop
	lw	ra,44(sp)
	.cfi_restore 1
	lw	s0,40(sp)
	.cfi_restore 8
	.cfi_def_cfa 2, 48
	lw	s1,36(sp)
	.cfi_restore 9
	addi	sp,sp,48
	.cfi_def_cfa_offset 0
	jr	ra
	.cfi_endproc
.LFE8:
	.size	plug_holes, .-plug_holes
	.section	.text.mem_init,"ax",@progbits
	.align	1
	.globl	mem_init
	.type	mem_init, @function
mem_init:
.LFB9:
	.loc 1 504 1
	.cfi_startproc
	addi	sp,sp,-32
	.cfi_def_cfa_offset 32
	sw	ra,28(sp)
	sw	s0,24(sp)
	.cfi_offset 1, -4
	.cfi_offset 8, -8
	addi	s0,sp,32
	.cfi_def_cfa 8, 0
	.loc 1 511 28
	lui	a5,%hi(ram_heap)
	addi	a5,a5,%lo(ram_heap)
	.loc 1 511 54
	addi	a5,a5,3
	.loc 1 511 59
	andi	a5,a5,-4
	.loc 1 511 9
	mv	a4,a5
	.loc 1 511 7
	lui	a5,%hi(ram)
	sw	a4,%lo(ram)(a5)
	.loc 1 513 7
	lui	a5,%hi(ram)
	lw	a5,%lo(ram)(a5)
	sw	a5,-20(s0)
	.loc 1 514 13
	lw	a5,-20(s0)
	li	a4,8192
	sh	a4,0(a5)
	.loc 1 515 13
	lw	a5,-20(s0)
	sh	zero,2(a5)
	.loc 1 516 13
	lw	a5,-20(s0)
	sb	zero,4(a5)
	.loc 1 518 13
	li	a0,8192
	call	ptr_to_mem
	mv	a4,a0
	.loc 1 518 11 discriminator 1
	lui	a5,%hi(ram_end)
	sw	a4,%lo(ram_end)(a5)
	.loc 1 519 10
	lui	a5,%hi(ram_end)
	lw	a5,%lo(ram_end)(a5)
	.loc 1 519 17
	li	a4,1
	sb	a4,4(a5)
	.loc 1 520 10
	lui	a5,%hi(ram_end)
	lw	a5,%lo(ram_end)(a5)
	.loc 1 520 17
	li	a4,8192
	sh	a4,0(a5)
	.loc 1 521 10
	lui	a5,%hi(ram_end)
	lw	a5,%lo(ram_end)(a5)
	.loc 1 521 17
	li	a4,8192
	sh	a4,2(a5)
	.loc 1 525 9
	lui	a5,%hi(ram)
	lw	a4,%lo(ram)(a5)
	lui	a5,%hi(lfree)
	sw	a4,%lo(lfree)(a5)
	.loc 1 527 24
	lui	a5,%hi(lwip_stats)
	addi	a5,a5,%lo(lwip_stats)
	li	a4,8192
	sh	a4,174(a5)
	.loc 1 529 7
	lui	a5,%hi(mem_mutex)
	addi	a0,a5,%lo(mem_mutex)
	call	sys_mutex_new
	.loc 1 532 1
	nop
	lw	ra,28(sp)
	.cfi_restore 1
	lw	s0,24(sp)
	.cfi_restore 8
	.cfi_def_cfa 2, 32
	addi	sp,sp,32
	.cfi_def_cfa_offset 0
	jr	ra
	.cfi_endproc
.LFE9:
	.size	mem_init, .-mem_init
	.section	.text.mem_link_valid,"ax",@progbits
	.align	1
	.type	mem_link_valid, @function
mem_link_valid:
.LFB10:
	.loc 1 539 1
	.cfi_startproc
	addi	sp,sp,-48
	.cfi_def_cfa_offset 48
	sw	ra,44(sp)
	sw	s0,40(sp)
	.cfi_offset 1, -4
	.cfi_offset 8, -8
	addi	s0,sp,48
	.cfi_def_cfa 8, 0
	sw	a0,-36(s0)
	.loc 1 542 14
	lw	a0,-36(s0)
	call	mem_to_ptr
	mv	a5,a0
	sh	a5,-18(s0)
	.loc 1 543 10
	lw	a5,-36(s0)
	lhu	a5,0(a5)
	mv	a0,a5
	call	ptr_to_mem
	sw	a0,-24(s0)
	.loc 1 544 10
	lw	a5,-36(s0)
	lhu	a5,2(a5)
	mv	a0,a5
	call	ptr_to_mem
	sw	a0,-28(s0)
	.loc 1 545 11
	lw	a5,-36(s0)
	lhu	a4,0(a5)
	.loc 1 545 6
	li	a5,8192
	bgtu	a4,a5,.L13
	.loc 1 545 63 discriminator 1
	lw	a5,-36(s0)
	lhu	a4,2(a5)
	.loc 1 545 56 discriminator 1
	li	a5,8192
	bgtu	a4,a5,.L13
	.loc 1 546 12
	lw	a5,-36(s0)
	lhu	a5,2(a5)
	.loc 1 545 108 discriminator 2
	lhu	a4,-18(s0)
	beq	a4,a5,.L14
	.loc 1 546 40
	lw	a5,-28(s0)
	lhu	a5,0(a5)
	.loc 1 546 32
	lhu	a4,-18(s0)
	bne	a4,a5,.L13
.L14:
	.loc 1 547 14
	lui	a5,%hi(ram_end)
	lw	a5,%lo(ram_end)(a5)
	.loc 1 546 61 discriminator 1
	lw	a4,-24(s0)
	beq	a4,a5,.L15
	.loc 1 547 34
	lw	a5,-24(s0)
	lhu	a5,2(a5)
	.loc 1 547 26
	lhu	a4,-18(s0)
	beq	a4,a5,.L15
.L13:
	.loc 1 548 12
	li	a5,0
	j	.L16
.L15:
	.loc 1 550 10
	li	a5,1
.L16:
	.loc 1 551 1
	mv	a0,a5
	lw	ra,44(sp)
	.cfi_restore 1
	lw	s0,40(sp)
	.cfi_restore 8
	.cfi_def_cfa 2, 48
	addi	sp,sp,48
	.cfi_def_cfa_offset 0
	jr	ra
	.cfi_endproc
.LFE10:
	.size	mem_link_valid, .-mem_link_valid
	.section	.text.mem_free,"ax",@progbits
	.align	1
	.globl	mem_free
	.type	mem_free, @function
mem_free:
.LFB11:
	.loc 1 605 1
	.cfi_startproc
	addi	sp,sp,-64
	.cfi_def_cfa_offset 64
	sw	ra,60(sp)
	sw	s0,56(sp)
	.cfi_offset 1, -4
	.cfi_offset 8, -8
	addi	s0,sp,64
	.cfi_def_cfa 8, 0
	sw	a0,-52(s0)
	.loc 1 609 6
	lw	a5,-52(s0)
	beq	a5,zero,.L26
	.loc 1 613 9
	lw	a5,-52(s0)
	.loc 1 613 26
	andi	a5,a5,3
	.loc 1 613 6
	beq	a5,zero,.L20
.LBB2:
	.loc 1 617 44
	call	sys_arch_protect
	sw	a0,-36(s0)
	.loc 1 617 80 discriminator 1
	lui	a5,%hi(lwip_stats)
	addi	a5,a5,%lo(lwip_stats)
	lhu	a5,180(a5)
	.loc 1 617 64 discriminator 1
	addi	a5,a5,1
	slli	a4,a5,16
	srli	a4,a4,16
	lui	a5,%hi(lwip_stats)
	addi	a5,a5,%lo(lwip_stats)
	sh	a4,180(a5)
	.loc 1 617 90 discriminator 1
	lw	a0,-36(s0)
	call	sys_arch_unprotect
.LBE2:
	.loc 1 618 5
	j	.L17
.L20:
	.loc 1 623 7
	lw	a5,-52(s0)
	addi	a5,a5,-8
	sw	a5,-20(s0)
	.loc 1 625 19
	lui	a5,%hi(ram)
	lw	a5,%lo(ram)(a5)
	.loc 1 625 6
	lw	a4,-20(s0)
	bltu	a4,a5,.L21
	.loc 1 625 41 discriminator 1
	lw	a5,-52(s0)
	addi	a4,a5,12
	.loc 1 625 74 discriminator 1
	lui	a5,%hi(ram_end)
	lw	a5,%lo(ram_end)(a5)
	.loc 1 625 25 discriminator 1
	bleu	a4,a5,.L22
.L21:
.LBB3:
	.loc 1 629 44
	call	sys_arch_protect
	sw	a0,-32(s0)
	.loc 1 629 80 discriminator 1
	lui	a5,%hi(lwip_stats)
	addi	a5,a5,%lo(lwip_stats)
	lhu	a5,180(a5)
	.loc 1 629 64 discriminator 1
	addi	a5,a5,1
	slli	a4,a5,16
	srli	a4,a4,16
	lui	a5,%hi(lwip_stats)
	addi	a5,a5,%lo(lwip_stats)
	sh	a4,180(a5)
	.loc 1 629 90 discriminator 1
	lw	a0,-32(s0)
	call	sys_arch_unprotect
.LBE3:
	.loc 1 630 5
	j	.L17
.L22:
	.loc 1 636 3
	lui	a5,%hi(mem_mutex)
	addi	a0,a5,%lo(mem_mutex)
	call	sys_mutex_lock
	.loc 1 638 11
	lw	a5,-20(s0)
	lbu	a5,4(a5)
	.loc 1 638 6
	bne	a5,zero,.L23
	.loc 1 640 5
	lui	a5,%hi(mem_mutex)
	addi	a0,a5,%lo(mem_mutex)
	call	sys_mutex_unlock
.LBB4:
	.loc 1 643 44
	call	sys_arch_protect
	sw	a0,-28(s0)
	.loc 1 643 80 discriminator 1
	lui	a5,%hi(lwip_stats)
	addi	a5,a5,%lo(lwip_stats)
	lhu	a5,180(a5)
	.loc 1 643 64 discriminator 1
	addi	a5,a5,1
	slli	a4,a5,16
	srli	a4,a4,16
	lui	a5,%hi(lwip_stats)
	addi	a5,a5,%lo(lwip_stats)
	sh	a4,180(a5)
	.loc 1 643 90 discriminator 1
	lw	a0,-28(s0)
	call	sys_arch_unprotect
.LBE4:
	.loc 1 644 5
	j	.L17
.L23:
	.loc 1 647 8
	lw	a0,-20(s0)
	call	mem_link_valid
	mv	a5,a0
	.loc 1 647 6 discriminator 1
	bne	a5,zero,.L24
	.loc 1 649 5
	lui	a5,%hi(mem_mutex)
	addi	a0,a5,%lo(mem_mutex)
	call	sys_mutex_unlock
.LBB5:
	.loc 1 652 44
	call	sys_arch_protect
	sw	a0,-24(s0)
	.loc 1 652 80 discriminator 1
	lui	a5,%hi(lwip_stats)
	addi	a5,a5,%lo(lwip_stats)
	lhu	a5,180(a5)
	.loc 1 652 64 discriminator 1
	addi	a5,a5,1
	slli	a4,a5,16
	srli	a4,a4,16
	lui	a5,%hi(lwip_stats)
	addi	a5,a5,%lo(lwip_stats)
	sh	a4,180(a5)
	.loc 1 652 90 discriminator 1
	lw	a0,-24(s0)
	call	sys_arch_unprotect
.LBE5:
	.loc 1 653 5
	j	.L17
.L24:
	.loc 1 657 13
	lw	a5,-20(s0)
	sb	zero,4(a5)
	.loc 1 659 11
	lui	a5,%hi(lfree)
	lw	a5,%lo(lfree)(a5)
	.loc 1 659 6
	lw	a4,-20(s0)
	bgeu	a4,a5,.L25
	.loc 1 661 11
	lui	a5,%hi(lfree)
	lw	a4,-20(s0)
	sw	a4,%lo(lfree)(a5)
.L25:
	.loc 1 664 53
	lui	a5,%hi(lwip_stats)
	addi	a5,a5,%lo(lwip_stats)
	lhu	a4,176(a5)
	.loc 1 664 101
	lui	a5,%hi(ram)
	lw	a5,%lo(ram)(a5)
	lw	a3,-20(s0)
	sub	a5,a3,a5
	.loc 1 664 75
	slli	a3,a5,16
	srli	a3,a3,16
	.loc 1 664 66
	lw	a5,-20(s0)
	lhu	a5,0(a5)
	.loc 1 664 60
	sub	a5,a3,a5
	slli	a5,a5,16
	srli	a5,a5,16
	.loc 1 664 25
	add	a5,a4,a5
	slli	a4,a5,16
	srli	a4,a4,16
	.loc 1 664 23
	lui	a5,%hi(lwip_stats)
	addi	a5,a5,%lo(lwip_stats)
	sh	a4,176(a5)
	.loc 1 667 3
	lw	a0,-20(s0)
	call	plug_holes
	.loc 1 672 3
	lui	a5,%hi(mem_mutex)
	addi	a0,a5,%lo(mem_mutex)
	call	sys_mutex_unlock
	j	.L17
.L26:
	.loc 1 611 5
	nop
.L17:
	.loc 1 673 1
	lw	ra,60(sp)
	.cfi_restore 1
	lw	s0,56(sp)
	.cfi_restore 8
	.cfi_def_cfa 2, 64
	addi	sp,sp,64
	.cfi_def_cfa_offset 0
	jr	ra
	.cfi_endproc
.LFE11:
	.size	mem_free, .-mem_free
	.section	.text.mem_trim,"ax",@progbits
	.align	1
	.globl	mem_trim
	.type	mem_trim, @function
mem_trim:
.LFB12:
	.loc 1 687 1
	.cfi_startproc
	addi	sp,sp,-64
	.cfi_def_cfa_offset 64
	sw	ra,60(sp)
	sw	s0,56(sp)
	.cfi_offset 1, -4
	.cfi_offset 8, -8
	addi	s0,sp,64
	.cfi_def_cfa 8, 0
	sw	a0,-52(s0)
	mv	a5,a1
	sh	a5,-54(s0)
	.loc 1 696 42
	lhu	a5,-54(s0)
	addi	a5,a5,3
	slli	a5,a5,16
	srli	a5,a5,16
	.loc 1 696 11
	andi	a5,a5,-4
	sh	a5,-18(s0)
	.loc 1 697 6
	lhu	a4,-18(s0)
	li	a5,11
	bgtu	a4,a5,.L28
	.loc 1 699 13
	li	a5,12
	sh	a5,-18(s0)
.L28:
	.loc 1 704 6
	lhu	a4,-18(s0)
	li	a5,8192
	bgtu	a4,a5,.L29
	.loc 1 704 54 discriminator 1
	lhu	a4,-18(s0)
	lhu	a5,-54(s0)
	bgeu	a4,a5,.L30
.L29:
	.loc 1 705 11
	li	a5,0
	j	.L31
.L30:
	.loc 1 711 20
	lui	a5,%hi(ram)
	lw	a5,%lo(ram)(a5)
	.loc 1 711 6
	lw	a4,-52(s0)
	bltu	a4,a5,.L32
	.loc 1 711 53 discriminator 1
	lui	a5,%hi(ram_end)
	lw	a5,%lo(ram_end)(a5)
	.loc 1 711 34 discriminator 1
	lw	a4,-52(s0)
	bltu	a4,a5,.L33
.L32:
.LBB6:
	.loc 1 714 44
	call	sys_arch_protect
	sw	a0,-40(s0)
	.loc 1 714 80 discriminator 1
	lui	a5,%hi(lwip_stats)
	addi	a5,a5,%lo(lwip_stats)
	lhu	a5,180(a5)
	.loc 1 714 64 discriminator 1
	addi	a5,a5,1
	slli	a4,a5,16
	srli	a4,a4,16
	lui	a5,%hi(lwip_stats)
	addi	a5,a5,%lo(lwip_stats)
	sh	a4,180(a5)
	.loc 1 714 90 discriminator 1
	lw	a0,-40(s0)
	call	sys_arch_unprotect
.LBE6:
	.loc 1 715 12
	lw	a5,-52(s0)
	j	.L31
.L33:
	.loc 1 719 7
	lw	a5,-52(s0)
	addi	a5,a5,-8
	sw	a5,-24(s0)
	.loc 1 724 9
	lw	a0,-24(s0)
	call	mem_to_ptr
	mv	a5,a0
	sh	a5,-26(s0)
	.loc 1 726 39
	lw	a5,-24(s0)
	lhu	a5,0(a5)
	.loc 1 726 23
	lhu	a4,-26(s0)
	sub	a5,a5,a4
	slli	a5,a5,16
	srli	a5,a5,16
	.loc 1 726 8
	addi	a5,a5,-8
	sh	a5,-28(s0)
	.loc 1 728 6
	lhu	a4,-18(s0)
	lhu	a5,-28(s0)
	bleu	a4,a5,.L34
	.loc 1 730 11
	li	a5,0
	j	.L31
.L34:
	.loc 1 732 6
	lhu	a4,-18(s0)
	lhu	a5,-28(s0)
	bne	a4,a5,.L35
	.loc 1 734 12
	lw	a5,-52(s0)
	j	.L31
.L35:
	.loc 1 738 3
	lui	a5,%hi(mem_mutex)
	addi	a0,a5,%lo(mem_mutex)
	call	sys_mutex_lock
	.loc 1 740 10
	lw	a5,-24(s0)
	lhu	a5,0(a5)
	mv	a0,a5
	call	ptr_to_mem
	sw	a0,-32(s0)
	.loc 1 741 11
	lw	a5,-32(s0)
	lbu	a5,4(a5)
	.loc 1 741 6
	bne	a5,zero,.L36
.LBB7:
	.loc 1 746 10
	lw	a5,-32(s0)
	lhu	a5,0(a5)
	sh	a5,-36(s0)
	.loc 1 748 76
	lhu	a5,-26(s0)
	mv	a4,a5
	lhu	a5,-18(s0)
	add	a5,a4,a5
	slli	a5,a5,16
	srli	a5,a5,16
	.loc 1 748 10
	addi	a5,a5,8
	sh	a5,-34(s0)
	.loc 1 749 15
	lui	a5,%hi(lfree)
	lw	a5,%lo(lfree)(a5)
	.loc 1 749 8
	lw	a4,-32(s0)
	bne	a4,a5,.L37
	.loc 1 750 15
	lhu	a5,-34(s0)
	mv	a0,a5
	call	ptr_to_mem
	mv	a4,a0
	.loc 1 750 13 discriminator 1
	lui	a5,%hi(lfree)
	sw	a4,%lo(lfree)(a5)
.L37:
	.loc 1 752 12
	lhu	a5,-34(s0)
	mv	a0,a5
	call	ptr_to_mem
	sw	a0,-32(s0)
	.loc 1 753 16
	lw	a5,-32(s0)
	sb	zero,4(a5)
	.loc 1 755 16
	lw	a5,-32(s0)
	lhu	a4,-36(s0)
	sh	a4,0(a5)
	.loc 1 757 16
	lw	a5,-32(s0)
	lhu	a4,-26(s0)
	sh	a4,2(a5)
	.loc 1 759 15
	lw	a5,-24(s0)
	lhu	a4,-34(s0)
	sh	a4,0(a5)
	.loc 1 763 13
	lw	a5,-32(s0)
	lhu	a4,0(a5)
	.loc 1 763 8
	li	a5,8192
	beq	a4,a5,.L38
	.loc 1 764 7
	lw	a5,-32(s0)
	lhu	a5,0(a5)
	mv	a0,a5
	call	ptr_to_mem
	mv	a4,a0
	.loc 1 764 36 discriminator 1
	lhu	a5,-34(s0)
	sh	a5,2(a4)
.L38:
	.loc 1 766 55
	lui	a5,%hi(lwip_stats)
	addi	a5,a5,%lo(lwip_stats)
	lhu	a4,176(a5)
	.loc 1 766 62
	lhu	a5,-18(s0)
	mv	a3,a5
	lhu	a5,-28(s0)
	sub	a5,a3,a5
	slli	a5,a5,16
	srli	a5,a5,16
	.loc 1 766 27
	add	a5,a4,a5
	slli	a4,a5,16
	srli	a4,a4,16
	.loc 1 766 25
	lui	a5,%hi(lwip_stats)
	addi	a5,a5,%lo(lwip_stats)
	sh	a4,176(a5)
.LBE7:
	j	.L39
.L36:
	.loc 1 768 69
	lhu	a5,-18(s0)
	addi	a4,a5,20
	.loc 1 768 100
	lhu	a5,-28(s0)
	.loc 1 768 13
	bgtu	a4,a5,.L39
	.loc 1 776 76
	lhu	a5,-26(s0)
	mv	a4,a5
	lhu	a5,-18(s0)
	add	a5,a4,a5
	slli	a5,a5,16
	srli	a5,a5,16
	.loc 1 776 10
	addi	a5,a5,8
	sh	a5,-34(s0)
	.loc 1 778 12
	lhu	a5,-34(s0)
	mv	a0,a5
	call	ptr_to_mem
	sw	a0,-32(s0)
	.loc 1 779 14
	lui	a5,%hi(lfree)
	lw	a5,%lo(lfree)(a5)
	.loc 1 779 8
	lw	a4,-32(s0)
	bgeu	a4,a5,.L40
	.loc 1 780 13
	lui	a5,%hi(lfree)
	lw	a4,-32(s0)
	sw	a4,%lo(lfree)(a5)
.L40:
	.loc 1 782 16
	lw	a5,-32(s0)
	sb	zero,4(a5)
	.loc 1 783 21
	lw	a5,-24(s0)
	lhu	a4,0(a5)
	.loc 1 783 16
	lw	a5,-32(s0)
	sh	a4,0(a5)
	.loc 1 784 16
	lw	a5,-32(s0)
	lhu	a4,-26(s0)
	sh	a4,2(a5)
	.loc 1 785 15
	lw	a5,-24(s0)
	lhu	a4,-34(s0)
	sh	a4,0(a5)
	.loc 1 786 13
	lw	a5,-32(s0)
	lhu	a4,0(a5)
	.loc 1 786 8
	li	a5,8192
	beq	a4,a5,.L41
	.loc 1 787 7
	lw	a5,-32(s0)
	lhu	a5,0(a5)
	mv	a0,a5
	call	ptr_to_mem
	mv	a4,a0
	.loc 1 787 36 discriminator 1
	lhu	a5,-34(s0)
	sh	a5,2(a4)
.L41:
	.loc 1 789 55
	lui	a5,%hi(lwip_stats)
	addi	a5,a5,%lo(lwip_stats)
	lhu	a4,176(a5)
	.loc 1 789 62
	lhu	a5,-18(s0)
	mv	a3,a5
	lhu	a5,-28(s0)
	sub	a5,a3,a5
	slli	a5,a5,16
	srli	a5,a5,16
	.loc 1 789 27
	add	a5,a4,a5
	slli	a4,a5,16
	srli	a4,a4,16
	.loc 1 789 25
	lui	a5,%hi(lwip_stats)
	addi	a5,a5,%lo(lwip_stats)
	sh	a4,176(a5)
.L39:
	.loc 1 805 3
	lui	a5,%hi(mem_mutex)
	addi	a0,a5,%lo(mem_mutex)
	call	sys_mutex_unlock
	.loc 1 806 10
	lw	a5,-52(s0)
.L31:
	.loc 1 807 1
	mv	a0,a5
	lw	ra,60(sp)
	.cfi_restore 1
	lw	s0,56(sp)
	.cfi_restore 8
	.cfi_def_cfa 2, 64
	addi	sp,sp,64
	.cfi_def_cfa_offset 0
	jr	ra
	.cfi_endproc
.LFE12:
	.size	mem_trim, .-mem_trim
	.section	.text.mem_malloc,"ax",@progbits
	.align	1
	.globl	mem_malloc
	.type	mem_malloc, @function
mem_malloc:
.LFB13:
	.loc 1 819 1
	.cfi_startproc
	addi	sp,sp,-64
	.cfi_def_cfa_offset 64
	sw	ra,60(sp)
	sw	s0,56(sp)
	sw	s1,52(sp)
	.cfi_offset 1, -4
	.cfi_offset 8, -8
	.cfi_offset 9, -12
	addi	s0,sp,64
	.cfi_def_cfa 8, 0
	mv	a5,a0
	sh	a5,-50(s0)
	.loc 1 827 6
	lhu	a5,-50(s0)
	bne	a5,zero,.L43
	.loc 1 828 11
	li	a5,0
	j	.L44
.L43:
	.loc 1 833 38
	lhu	a5,-50(s0)
	addi	a5,a5,3
	slli	a5,a5,16
	srli	a5,a5,16
	.loc 1 833 8
	andi	a5,a5,-4
	sh	a5,-20(s0)
	.loc 1 834 6
	lhu	a4,-20(s0)
	li	a5,11
	bgtu	a4,a5,.L45
	.loc 1 836 10
	li	a5,12
	sh	a5,-20(s0)
.L45:
	.loc 1 841 6
	lhu	a4,-20(s0)
	li	a5,8192
	bgtu	a4,a5,.L46
	.loc 1 841 51 discriminator 1
	lhu	a4,-20(s0)
	lhu	a5,-50(s0)
	bgeu	a4,a5,.L47
.L46:
	.loc 1 842 11
	li	a5,0
	j	.L44
.L47:
	.loc 1 846 3
	lui	a5,%hi(mem_mutex)
	addi	a0,a5,%lo(mem_mutex)
	call	sys_mutex_lock
	.loc 1 857 16
	lui	a5,%hi(lfree)
	lw	a5,%lo(lfree)(a5)
	mv	a0,a5
	call	mem_to_ptr
	mv	a5,a0
	sh	a5,-18(s0)
	.loc 1 857 5
	j	.L48
.L57:
	.loc 1 859 13
	lhu	a5,-18(s0)
	mv	a0,a5
	call	ptr_to_mem
	sw	a0,-28(s0)
	.loc 1 873 16
	lw	a5,-28(s0)
	lbu	a5,4(a5)
	.loc 1 873 10
	bne	a5,zero,.L49
	.loc 1 874 15
	lw	a5,-28(s0)
	lhu	a5,0(a5)
	mv	a4,a5
	.loc 1 874 22
	lhu	a5,-18(s0)
	sub	a5,a4,a5
	addi	a4,a5,-8
	.loc 1 874 78
	lhu	a5,-20(s0)
	.loc 1 873 24 discriminator 1
	bltu	a4,a5,.L49
	.loc 1 878 16
	lw	a5,-28(s0)
	lhu	a5,0(a5)
	mv	a4,a5
	.loc 1 878 23
	lhu	a5,-18(s0)
	sub	a5,a4,a5
	addi	a4,a5,-8
	.loc 1 878 134
	lhu	a5,-20(s0)
	addi	a5,a5,20
	.loc 1 878 12
	bltu	a4,a5,.L50
	.loc 1 889 82
	lhu	a5,-18(s0)
	mv	a4,a5
	lhu	a5,-20(s0)
	add	a5,a4,a5
	slli	a5,a5,16
	srli	a5,a5,16
	.loc 1 889 16
	addi	a5,a5,8
	sh	a5,-30(s0)
	.loc 1 892 18
	lhu	a5,-30(s0)
	mv	a0,a5
	call	ptr_to_mem
	sw	a0,-36(s0)
	.loc 1 893 22
	lw	a5,-36(s0)
	sb	zero,4(a5)
	.loc 1 894 27
	lw	a5,-28(s0)
	lhu	a4,0(a5)
	.loc 1 894 22
	lw	a5,-36(s0)
	sh	a4,0(a5)
	.loc 1 895 22
	lw	a5,-36(s0)
	lhu	a4,-18(s0)
	sh	a4,2(a5)
	.loc 1 897 21
	lw	a5,-28(s0)
	lhu	a4,-30(s0)
	sh	a4,0(a5)
	.loc 1 898 21
	lw	a5,-28(s0)
	li	a4,1
	sb	a4,4(a5)
	.loc 1 900 19
	lw	a5,-36(s0)
	lhu	a4,0(a5)
	.loc 1 900 14
	li	a5,8192
	beq	a4,a5,.L51
	.loc 1 901 13
	lw	a5,-36(s0)
	lhu	a5,0(a5)
	mv	a0,a5
	call	ptr_to_mem
	mv	a4,a0
	.loc 1 901 42 discriminator 1
	lhu	a5,-30(s0)
	sh	a5,2(a4)
.L51:
	.loc 1 903 65
	lui	a5,%hi(lwip_stats)
	addi	a5,a5,%lo(lwip_stats)
	lhu	a5,176(a5)
	.loc 1 903 71
	lhu	a4,-20(s0)
	add	a5,a5,a4
	slli	a5,a5,16
	srli	a5,a5,16
	.loc 1 903 38
	addi	a5,a5,8
	slli	a4,a5,16
	srli	a4,a4,16
	.loc 1 903 36
	lui	a5,%hi(lwip_stats)
	addi	a5,a5,%lo(lwip_stats)
	sh	a4,176(a5)
	.loc 1 903 147
	lui	a5,%hi(lwip_stats)
	addi	a5,a5,%lo(lwip_stats)
	lhu	a4,178(a5)
	.loc 1 903 168
	lui	a5,%hi(lwip_stats)
	addi	a5,a5,%lo(lwip_stats)
	lhu	a5,176(a5)
	.loc 1 903 132
	bgeu	a4,a5,.L52
	.loc 1 903 212 discriminator 1
	lui	a5,%hi(lwip_stats)
	addi	a5,a5,%lo(lwip_stats)
	lhu	a4,176(a5)
	.loc 1 903 196 discriminator 1
	lui	a5,%hi(lwip_stats)
	addi	a5,a5,%lo(lwip_stats)
	sh	a4,178(a5)
	j	.L52
.L50:
	.loc 1 912 21
	lw	a5,-28(s0)
	li	a4,1
	sb	a4,4(a5)
	.loc 1 913 65
	lui	a5,%hi(lwip_stats)
	addi	a5,a5,%lo(lwip_stats)
	lhu	a4,176(a5)
	.loc 1 913 76
	lw	a5,-28(s0)
	lhu	a5,0(a5)
	.loc 1 913 71
	add	a5,a4,a5
	slli	s1,a5,16
	srli	s1,s1,16
	.loc 1 913 85
	lw	a0,-28(s0)
	call	mem_to_ptr
	mv	a5,a0
	.loc 1 913 38 discriminator 1
	sub	a5,s1,a5
	slli	a4,a5,16
	srli	a4,a4,16
	.loc 1 913 36 discriminator 1
	lui	a5,%hi(lwip_stats)
	addi	a5,a5,%lo(lwip_stats)
	sh	a4,176(a5)
	.loc 1 913 121 discriminator 1
	lui	a5,%hi(lwip_stats)
	addi	a5,a5,%lo(lwip_stats)
	lhu	a4,178(a5)
	.loc 1 913 142 discriminator 1
	lui	a5,%hi(lwip_stats)
	addi	a5,a5,%lo(lwip_stats)
	lhu	a5,176(a5)
	.loc 1 913 106 discriminator 1
	bgeu	a4,a5,.L52
	.loc 1 913 186 discriminator 2
	lui	a5,%hi(lwip_stats)
	addi	a5,a5,%lo(lwip_stats)
	lhu	a4,176(a5)
	.loc 1 913 170 discriminator 2
	lui	a5,%hi(lwip_stats)
	addi	a5,a5,%lo(lwip_stats)
	sh	a4,178(a5)
.L52:
	.loc 1 918 17
	lui	a5,%hi(lfree)
	lw	a5,%lo(lfree)(a5)
	.loc 1 918 12
	lw	a4,-28(s0)
	bne	a4,a5,.L53
.LBB8:
	.loc 1 919 23
	lui	a5,%hi(lfree)
	lw	a5,%lo(lfree)(a5)
	sw	a5,-24(s0)
	.loc 1 921 17
	j	.L54
.L56:
	.loc 1 933 19
	lw	a5,-24(s0)
	lhu	a5,0(a5)
	mv	a0,a5
	call	ptr_to_mem
	sw	a0,-24(s0)
.L54:
	.loc 1 921 21
	lw	a5,-24(s0)
	lbu	a5,4(a5)
	.loc 1 921 28
	beq	a5,zero,.L55
	.loc 1 921 35 discriminator 1
	lui	a5,%hi(ram_end)
	lw	a5,%lo(ram_end)(a5)
	.loc 1 921 28 discriminator 1
	lw	a4,-24(s0)
	bne	a4,a5,.L56
.L55:
	.loc 1 935 17
	lui	a5,%hi(lfree)
	lw	a4,-24(s0)
	sw	a4,%lo(lfree)(a5)
.L53:
.LBE8:
	.loc 1 939 9
	lui	a5,%hi(mem_mutex)
	addi	a0,a5,%lo(mem_mutex)
	call	sys_mutex_unlock
	.loc 1 951 75
	lw	a5,-28(s0)
	addi	a5,a5,8
	j	.L44
.L49:
	.loc 1 858 16
	lhu	a5,-18(s0)
	mv	a0,a5
	call	ptr_to_mem
	mv	a5,a0
	.loc 1 858 14 discriminator 1
	lhu	a5,0(a5)
	sh	a5,-18(s0)
.L48:
	.loc 1 857 39 discriminator 2
	lhu	a4,-18(s0)
	.loc 1 857 76 discriminator 2
	lhu	a5,-20(s0)
	li	a3,8192
	sub	a5,a3,a5
	.loc 1 857 39 discriminator 2
	bltu	a4,a5,.L57
	.loc 1 958 19
	lui	a5,%hi(lwip_stats)
	addi	a5,a5,%lo(lwip_stats)
	lhu	a5,172(a5)
	.loc 1 958 3
	addi	a5,a5,1
	slli	a4,a5,16
	srli	a4,a4,16
	lui	a5,%hi(lwip_stats)
	addi	a5,a5,%lo(lwip_stats)
	sh	a4,172(a5)
	.loc 1 960 3
	lui	a5,%hi(mem_mutex)
	addi	a0,a5,%lo(mem_mutex)
	call	sys_mutex_unlock
	.loc 1 962 9
	li	a5,0
.L44:
	.loc 1 963 1
	mv	a0,a5
	lw	ra,60(sp)
	.cfi_restore 1
	lw	s0,56(sp)
	.cfi_restore 8
	.cfi_def_cfa 2, 64
	lw	s1,52(sp)
	.cfi_restore 9
	addi	sp,sp,64
	.cfi_def_cfa_offset 0
	jr	ra
	.cfi_endproc
.LFE13:
	.size	mem_malloc, .-mem_malloc
	.section	.text.mem_calloc,"ax",@progbits
	.align	1
	.globl	mem_calloc
	.type	mem_calloc, @function
mem_calloc:
.LFB14:
	.loc 1 987 1
	.cfi_startproc
	addi	sp,sp,-48
	.cfi_def_cfa_offset 48
	sw	ra,44(sp)
	sw	s0,40(sp)
	.cfi_offset 1, -4
	.cfi_offset 8, -8
	addi	s0,sp,48
	.cfi_def_cfa 8, 0
	mv	a5,a0
	mv	a4,a1
	sh	a5,-34(s0)
	mv	a5,a4
	sh	a5,-36(s0)
	.loc 1 989 23
	lhu	a4,-34(s0)
	.loc 1 989 39
	lhu	a5,-36(s0)
	.loc 1 989 10
	mul	a5,a4,a5
	sw	a5,-20(s0)
	.loc 1 991 15
	lw	a5,-20(s0)
	slli	a5,a5,16
	srli	a5,a5,16
	.loc 1 991 7
	mv	a4,a5
	.loc 1 991 6
	lw	a5,-20(s0)
	beq	a5,a4,.L59
	.loc 1 993 11
	li	a5,0
	j	.L60
.L59:
	.loc 1 997 7
	lw	a5,-20(s0)
	slli	a5,a5,16
	srli	a5,a5,16
	mv	a0,a5
	call	mem_malloc
	sw	a0,-24(s0)
	.loc 1 998 6
	lw	a5,-24(s0)
	beq	a5,zero,.L61
	.loc 1 1000 5
	lw	a2,-20(s0)
	li	a1,0
	lw	a0,-24(s0)
	call	memset
.L61:
	.loc 1 1002 10
	lw	a5,-24(s0)
.L60:
	.loc 1 1003 1
	mv	a0,a5
	lw	ra,44(sp)
	.cfi_restore 1
	lw	s0,40(sp)
	.cfi_restore 8
	.cfi_def_cfa 2, 48
	addi	sp,sp,48
	.cfi_def_cfa_offset 0
	jr	ra
	.cfi_endproc
.LFE14:
	.size	mem_calloc, .-mem_calloc
	.text
.Letext0:
	.file 2 "/home/chandu/sdk/bl602_iot_sdk/components/network/lwip/lwip-port/arch/cc.h"
	.file 3 "/home/chandu/sdk/bl602_iot_sdk/toolchain/compiler/lib/gcc/riscv32-unknown-elf/15.1.0/include/stddef.h"
	.file 4 "/home/chandu/sdk/bl602_iot_sdk/toolchain/compiler/lib/gcc/riscv32-unknown-elf/15.1.0/include/stdint-gcc.h"
	.file 5 "/home/chandu/sdk/bl602_iot_sdk/components/network/lwip/src/include/lwip/arch.h"
	.file 6 "/home/chandu/sdk/bl602_iot_sdk/components/network/lwip/src/include/lwip/mem.h"
	.file 7 "/home/chandu/sdk/bl602_iot_sdk/components/network/lwip/src/include/lwip/err.h"
	.file 8 "/home/chandu/sdk/bl602_iot_sdk/components/freertos/include/queue.h"
	.file 9 "/home/chandu/sdk/bl602_iot_sdk/components/freertos/include/semphr.h"
	.file 10 "/home/chandu/sdk/bl602_iot_sdk/components/network/lwip/lwip-port/arch/sys_arch.h"
	.file 11 "/home/chandu/sdk/bl602_iot_sdk/components/network/lwip/src/include/lwip/memp.h"
	.file 12 "/home/chandu/sdk/bl602_iot_sdk/components/network/lwip/src/include/lwip/stats.h"
	.file 13 "/home/chandu/sdk/bl602_iot_sdk/components/network/lwip/src/include/lwip/sys.h"
	.file 14 "/home/chandu/sdk/bl602_iot_sdk/toolchain/compiler/riscv32-unknown-elf/include/string.h"
	.section	.note.GNU-stack,"",@progbits
