	.file	"netif.c"
	.option nopic
	.attribute arch, "rv32i2p1_m2p0_f2p2_c2p0_zicsr2p0_zmmul1p0_zca1p0_zcf1p0"
	.attribute unaligned_access, 0
	.attribute stack_align, 16
	.text
.Ltext0:
	.cfi_sections	.debug_frame
	.file 0 "/home/chandu/sdk/bl602_iot_sdk/customer_app/suas_app_pqkem_gateway/build_out/lwip" "/home/chandu/sdk/bl602_iot_sdk/components/network/lwip/src/core/netif.c"
	.globl	netif_list
	.section	.sbss.netif_list,"aw",@nobits
	.align	2
	.type	netif_list, @object
	.size	netif_list, 4
netif_list:
	.zero	4
	.globl	netif_default
	.section	.sbss.netif_default,"aw",@nobits
	.align	2
	.type	netif_default, @object
	.size	netif_default, 4
netif_default:
	.zero	4
	.section	.sbss.netif_num,"aw",@nobits
	.type	netif_num, @object
	.size	netif_num, 1
netif_num:
	.zero	1
	.section	.sbss.netif_client_id,"aw",@nobits
	.type	netif_client_id, @object
	.size	netif_client_id, 1
netif_client_id:
	.zero	1
	.section	.text.netif_init,"ax",@progbits
	.align	1
	.globl	netif_init
	.type	netif_init, @function
netif_init:
.LFB6:
	.file 1 "/home/chandu/sdk/bl602_iot_sdk/components/network/lwip/src/core/netif.c"
	.loc 1 189 1
	.cfi_startproc
	addi	sp,sp,-16
	.cfi_def_cfa_offset 16
	sw	ra,12(sp)
	sw	s0,8(sp)
	.cfi_offset 1, -4
	.cfi_offset 8, -8
	addi	s0,sp,16
	.cfi_def_cfa 8, 0
	.loc 1 216 1
	nop
	lw	ra,12(sp)
	.cfi_restore 1
	lw	s0,8(sp)
	.cfi_restore 8
	.cfi_def_cfa 2, 16
	addi	sp,sp,16
	.cfi_def_cfa_offset 0
	jr	ra
	.cfi_endproc
.LFE6:
	.size	netif_init, .-netif_init
	.section	.text.netif_input,"ax",@progbits
	.align	1
	.globl	netif_input
	.type	netif_input, @function
netif_input:
.LFB7:
	.loc 1 229 1
	.cfi_startproc
	addi	sp,sp,-32
	.cfi_def_cfa_offset 32
	sw	ra,28(sp)
	sw	s0,24(sp)
	.cfi_offset 1, -4
	.cfi_offset 8, -8
	addi	s0,sp,32
	.cfi_def_cfa 8, 0
	sw	a0,-20(s0)
	sw	a1,-24(s0)
	.loc 1 236 10
	lw	a5,-24(s0)
	lbu	a5,69(a5)
	.loc 1 236 18
	andi	a5,a5,24
	.loc 1 236 6
	beq	a5,zero,.L3
	.loc 1 237 12
	lw	a1,-24(s0)
	lw	a0,-20(s0)
	call	ethernet_input
	mv	a5,a0
	j	.L4
.L3:
	.loc 1 240 12
	lw	a1,-24(s0)
	lw	a0,-20(s0)
	call	ip4_input
	mv	a5,a0
.L4:
	.loc 1 241 1
	mv	a0,a5
	lw	ra,28(sp)
	.cfi_restore 1
	lw	s0,24(sp)
	.cfi_restore 8
	.cfi_def_cfa 2, 32
	addi	sp,sp,32
	.cfi_def_cfa_offset 0
	jr	ra
	.cfi_endproc
.LFE7:
	.size	netif_input, .-netif_input
	.section	.text.netif_add_noaddr,"ax",@progbits
	.align	1
	.globl	netif_add_noaddr
	.type	netif_add_noaddr, @function
netif_add_noaddr:
.LFB8:
	.loc 1 251 1
	.cfi_startproc
	addi	sp,sp,-32
	.cfi_def_cfa_offset 32
	sw	ra,28(sp)
	sw	s0,24(sp)
	.cfi_offset 1, -4
	.cfi_offset 8, -8
	addi	s0,sp,32
	.cfi_def_cfa 8, 0
	sw	a0,-20(s0)
	sw	a1,-24(s0)
	sw	a2,-28(s0)
	sw	a3,-32(s0)
	.loc 1 252 10
	lw	a6,-32(s0)
	lw	a5,-28(s0)
	lw	a4,-24(s0)
	li	a3,0
	li	a2,0
	li	a1,0
	lw	a0,-20(s0)
	call	netif_add
	mv	a5,a0
	.loc 1 257 1
	mv	a0,a5
	lw	ra,28(sp)
	.cfi_restore 1
	lw	s0,24(sp)
	.cfi_restore 8
	.cfi_def_cfa 2, 32
	addi	sp,sp,32
	.cfi_def_cfa_offset 0
	jr	ra
	.cfi_endproc
.LFE8:
	.size	netif_add_noaddr, .-netif_add_noaddr
	.section	.text.netif_add,"ax",@progbits
	.align	1
	.globl	netif_add
	.type	netif_add, @function
netif_add:
.LFB9:
	.loc 1 292 1
	.cfi_startproc
	addi	sp,sp,-64
	.cfi_def_cfa_offset 64
	sw	ra,60(sp)
	sw	s0,56(sp)
	.cfi_offset 1, -4
	.cfi_offset 8, -8
	addi	s0,sp,64
	.cfi_def_cfa 8, 0
	sw	a0,-36(s0)
	sw	a1,-40(s0)
	sw	a2,-44(s0)
	sw	a3,-48(s0)
	sw	a4,-52(s0)
	sw	a5,-56(s0)
	sw	a6,-60(s0)
	.loc 1 306 11
	lw	a5,-36(s0)
	bne	a5,zero,.L8
	.loc 1 306 2 discriminator 1
	li	a5,0
	.loc 1 306 2 is_stmt 0
	j	.L9
.L8:
	.loc 1 307 11 is_stmt 1
	lw	a5,-56(s0)
	bne	a5,zero,.L10
	.loc 1 307 2 discriminator 1
	li	a5,0
	.loc 1 307 2 is_stmt 0
	j	.L9
.L10:
	.loc 1 310 6 is_stmt 1
	lw	a5,-40(s0)
	bne	a5,zero,.L11
	.loc 1 311 12
	lui	a5,%hi(ip_addr_any)
	addi	a5,a5,%lo(ip_addr_any)
	sw	a5,-40(s0)
.L11:
	.loc 1 313 6
	lw	a5,-44(s0)
	bne	a5,zero,.L12
	.loc 1 314 13
	lui	a5,%hi(ip_addr_any)
	addi	a5,a5,%lo(ip_addr_any)
	sw	a5,-44(s0)
.L12:
	.loc 1 316 6
	lw	a5,-48(s0)
	bne	a5,zero,.L13
	.loc 1 317 8
	lui	a5,%hi(ip_addr_any)
	addi	a5,a5,%lo(ip_addr_any)
	sw	a5,-48(s0)
.L13:
	.loc 1 321 28
	lw	a5,-36(s0)
	sw	zero,4(a5)
	.loc 1 322 28
	lw	a5,-36(s0)
	sw	zero,8(a5)
	.loc 1 323 23
	lw	a5,-36(s0)
	sw	zero,12(a5)
	.loc 1 324 17
	lw	a5,-36(s0)
	lui	a4,%hi(netif_null_output_ip4)
	addi	a4,a4,%lo(netif_null_output_ip4)
	sw	a4,20(a5)
	.loc 1 338 14
	lw	a5,-36(s0)
	sh	zero,60(a5)
	.loc 1 339 16
	lw	a5,-36(s0)
	sb	zero,69(a5)
	.loc 1 341 15
	lw	a5,-36(s0)
	addi	a5,a5,40
	.loc 1 341 3
	li	a2,16
	li	a1,0
	mv	a0,a5
	call	memset
	.loc 1 351 26
	lw	a5,-36(s0)
	sw	zero,28(a5)
	.loc 1 354 24
	lw	a5,-36(s0)
	sw	zero,32(a5)
	.loc 1 357 26
	lw	a5,-36(s0)
	sw	zero,76(a5)
	.loc 1 364 16
	lw	a5,-36(s0)
	lw	a4,-52(s0)
	sw	a4,36(a5)
	.loc 1 365 14
	lui	a5,%hi(netif_num)
	lbu	a4,%lo(netif_num)(a5)
	lw	a5,-36(s0)
	sb	a4,72(a5)
	.loc 1 366 16
	lw	a5,-36(s0)
	lw	a4,-60(s0)
	sw	a4,16(a5)
	.loc 1 369 19
	lw	a5,-36(s0)
	sw	zero,80(a5)
	.loc 1 384 3
	lw	a3,-48(s0)
	lw	a2,-44(s0)
	lw	a1,-40(s0)
	lw	a0,-36(s0)
	call	netif_set_addr
	.loc 1 388 7
	lw	a5,-56(s0)
	lw	a0,-36(s0)
	jalr	a5
.LVL0:
	mv	a5,a0
	.loc 1 388 6 discriminator 1
	beq	a5,zero,.L14
	.loc 1 389 11
	li	a5,0
	j	.L9
.L14:
.LBB2:
	.loc 1 407 16
	lw	a5,-36(s0)
	lbu	a4,72(a5)
	.loc 1 407 10
	li	a5,255
	bne	a4,a5,.L15
	.loc 1 408 20
	lw	a5,-36(s0)
	sb	zero,72(a5)
.L15:
	.loc 1 410 18
	sw	zero,-24(s0)
	.loc 1 411 19
	lui	a5,%hi(netif_list)
	lw	a5,%lo(netif_list)(a5)
	sw	a5,-20(s0)
	.loc 1 411 7
	j	.L16
.L19:
	.loc 1 413 19
	lw	a5,-24(s0)
	addi	a5,a5,1
	sw	a5,-24(s0)
	.loc 1 415 19
	lw	a5,-20(s0)
	lbu	a4,72(a5)
	.loc 1 415 33
	lw	a5,-36(s0)
	lbu	a5,72(a5)
	.loc 1 415 12
	bne	a4,a5,.L17
	.loc 1 416 16
	lw	a5,-36(s0)
	lbu	a5,72(a5)
	.loc 1 416 21
	addi	a5,a5,1
	andi	a4,a5,0xff
	lw	a5,-36(s0)
	sb	a4,72(a5)
	.loc 1 417 11
	j	.L18
.L17:
	.loc 1 411 55 discriminator 2
	lw	a5,-20(s0)
	lw	a5,0(a5)
	sw	a5,-20(s0)
.L16:
	.loc 1 411 40 discriminator 1
	lw	a5,-20(s0)
	bne	a5,zero,.L19
.L18:
	.loc 1 420 21
	lw	a5,-20(s0)
	bne	a5,zero,.L14
.LBE2:
	.loc 1 422 12
	lw	a5,-36(s0)
	lbu	a4,72(a5)
	.loc 1 422 6
	li	a5,254
	bne	a4,a5,.L20
	.loc 1 423 15
	lui	a5,%hi(netif_num)
	sb	zero,%lo(netif_num)(a5)
	j	.L21
.L20:
	.loc 1 425 29
	lw	a5,-36(s0)
	lbu	a5,72(a5)
	.loc 1 425 17
	addi	a5,a5,1
	andi	a4,a5,0xff
	.loc 1 425 15
	lui	a5,%hi(netif_num)
	sb	a4,%lo(netif_num)(a5)
.L21:
	.loc 1 429 15
	lui	a5,%hi(netif_list)
	lw	a4,%lo(netif_list)(a5)
	lw	a5,-36(s0)
	sw	a4,0(a5)
	.loc 1 430 14
	lui	a5,%hi(netif_list)
	lw	a4,-36(s0)
	sw	a4,%lo(netif_list)(a5)
	.loc 1 436 12
	lw	a5,-36(s0)
	lbu	a5,69(a5)
	.loc 1 436 20
	andi	a5,a5,32
	.loc 1 436 6
	beq	a5,zero,.L22
	.loc 1 437 5
	lw	a0,-36(s0)
	call	igmp_start
.L22:
	.loc 1 455 10
	lw	a5,-36(s0)
.L9:
	.loc 1 456 1
	mv	a0,a5
	lw	ra,60(sp)
	.cfi_restore 1
	lw	s0,56(sp)
	.cfi_restore 8
	.cfi_def_cfa 2, 64
	addi	sp,sp,64
	.cfi_def_cfa_offset 0
	jr	ra
	.cfi_endproc
.LFE9:
	.size	netif_add, .-netif_add
	.section	.text.netif_do_ip_addr_changed,"ax",@progbits
	.align	1
	.type	netif_do_ip_addr_changed, @function
netif_do_ip_addr_changed:
.LFB10:
	.loc 1 460 1
	.cfi_startproc
	addi	sp,sp,-32
	.cfi_def_cfa_offset 32
	sw	ra,28(sp)
	sw	s0,24(sp)
	.cfi_offset 1, -4
	.cfi_offset 8, -8
	addi	s0,sp,32
	.cfi_def_cfa 8, 0
	sw	a0,-20(s0)
	sw	a1,-24(s0)
	.loc 1 462 3
	lw	a1,-24(s0)
	lw	a0,-20(s0)
	call	tcp_netif_ip_addr_changed
	.loc 1 465 3
	lw	a1,-24(s0)
	lw	a0,-20(s0)
	call	udp_netif_ip_addr_changed
	.loc 1 468 3
	lw	a1,-24(s0)
	lw	a0,-20(s0)
	call	raw_netif_ip_addr_changed
	.loc 1 470 1
	nop
	lw	ra,28(sp)
	.cfi_restore 1
	lw	s0,24(sp)
	.cfi_restore 8
	.cfi_def_cfa 2, 32
	addi	sp,sp,32
	.cfi_def_cfa_offset 0
	jr	ra
	.cfi_endproc
.LFE10:
	.size	netif_do_ip_addr_changed, .-netif_do_ip_addr_changed
	.section	.text.netif_do_set_ipaddr,"ax",@progbits
	.align	1
	.type	netif_do_set_ipaddr, @function
netif_do_set_ipaddr:
.LFB11:
	.loc 1 475 1
	.cfi_startproc
	addi	sp,sp,-48
	.cfi_def_cfa_offset 48
	sw	ra,44(sp)
	sw	s0,40(sp)
	.cfi_offset 1, -4
	.cfi_offset 8, -8
	addi	s0,sp,48
	.cfi_def_cfa 8, 0
	sw	a0,-36(s0)
	sw	a1,-40(s0)
	sw	a2,-44(s0)
	.loc 1 480 16
	lw	a5,-40(s0)
	lw	a4,0(a5)
	.loc 1 480 48
	lw	a5,-36(s0)
	addi	a5,a5,4
	.loc 1 480 70
	lw	a5,0(a5)
	.loc 1 480 6
	beq	a4,a5,.L25
.LBB3:
	.loc 1 482 18
	lw	a5,-40(s0)
	lw	a5,0(a5)
	sw	a5,-20(s0)
	.loc 1 485 46
	lw	a5,-36(s0)
	addi	a5,a5,4
	.loc 1 485 67
	lw	a4,0(a5)
	.loc 1 485 23
	lw	a5,-44(s0)
	sw	a4,0(a5)
	.loc 1 488 5
	addi	a5,s0,-20
	mv	a1,a5
	lw	a0,-44(s0)
	call	netif_do_ip_addr_changed
	.loc 1 491 5
	addi	a5,s0,-20
	mv	a2,a5
	lw	a1,-44(s0)
	lw	a0,-36(s0)
	call	acd_netif_ip_addr_changed
	.loc 1 497 8
	lw	a5,-40(s0)
	beq	a5,zero,.L26
	.loc 1 497 8 is_stmt 0 discriminator 1
	lw	a5,-40(s0)
	lw	a5,0(a5)
	j	.L27
.L26:
	.loc 1 497 8 discriminator 2
	li	a5,0
.L27:
	.loc 1 497 32 is_stmt 1 discriminator 4
	lw	a4,-36(s0)
	sw	a5,4(a4)
	.loc 1 502 5
	li	a1,1
	lw	a0,-36(s0)
	call	netif_issue_reports
	.loc 1 504 18
	lw	a5,-36(s0)
	lw	a5,28(a5)
	.loc 1 504 12
	beq	a5,zero,.L28
	.loc 1 504 45 discriminator 1
	lw	a5,-36(s0)
	lw	a5,28(a5)
	lw	a0,-36(s0)
	jalr	a5
.LVL1:
.L28:
	.loc 1 505 12
	li	a5,1
	j	.L29
.L25:
.LBE3:
	.loc 1 507 10
	li	a5,0
.L29:
	.loc 1 508 1
	mv	a0,a5
	lw	ra,44(sp)
	.cfi_restore 1
	lw	s0,40(sp)
	.cfi_restore 8
	.cfi_def_cfa 2, 48
	addi	sp,sp,48
	.cfi_def_cfa_offset 0
	jr	ra
	.cfi_endproc
.LFE11:
	.size	netif_do_set_ipaddr, .-netif_do_set_ipaddr
	.section	.text.netif_set_ipaddr,"ax",@progbits
	.align	1
	.globl	netif_set_ipaddr
	.type	netif_set_ipaddr, @function
netif_set_ipaddr:
.LFB12:
	.loc 1 522 1
	.cfi_startproc
	addi	sp,sp,-48
	.cfi_def_cfa_offset 48
	sw	ra,44(sp)
	sw	s0,40(sp)
	.cfi_offset 1, -4
	.cfi_offset 8, -8
	addi	s0,sp,48
	.cfi_def_cfa 8, 0
	sw	a0,-36(s0)
	sw	a1,-40(s0)
	.loc 1 525 11
	lw	a5,-36(s0)
	beq	a5,zero,.L35
	.loc 1 528 6
	lw	a5,-40(s0)
	bne	a5,zero,.L33
	.loc 1 529 12
	lui	a5,%hi(ip_addr_any)
	addi	a5,a5,%lo(ip_addr_any)
	sw	a5,-40(s0)
.L33:
	.loc 1 534 7
	addi	a5,s0,-20
	mv	a2,a5
	lw	a1,-40(s0)
	lw	a0,-36(s0)
	call	netif_do_set_ipaddr
	j	.L30
.L35:
	.loc 1 525 9
	nop
.L30:
	.loc 1 541 1
	lw	ra,44(sp)
	.cfi_restore 1
	lw	s0,40(sp)
	.cfi_restore 8
	.cfi_def_cfa 2, 48
	addi	sp,sp,48
	.cfi_def_cfa_offset 0
	jr	ra
	.cfi_endproc
.LFE12:
	.size	netif_set_ipaddr, .-netif_set_ipaddr
	.section	.text.netif_do_set_netmask,"ax",@progbits
	.align	1
	.type	netif_do_set_netmask, @function
netif_do_set_netmask:
.LFB13:
	.loc 1 545 1
	.cfi_startproc
	addi	sp,sp,-32
	.cfi_def_cfa_offset 32
	sw	ra,28(sp)
	sw	s0,24(sp)
	.cfi_offset 1, -4
	.cfi_offset 8, -8
	addi	s0,sp,32
	.cfi_def_cfa 8, 0
	sw	a0,-20(s0)
	sw	a1,-24(s0)
	sw	a2,-28(s0)
	.loc 1 547 17
	lw	a5,-24(s0)
	lw	a4,0(a5)
	.loc 1 547 49
	lw	a5,-20(s0)
	addi	a5,a5,8
	.loc 1 547 71
	lw	a5,0(a5)
	.loc 1 547 6
	beq	a4,a5,.L37
	.loc 1 556 8
	lw	a5,-24(s0)
	beq	a5,zero,.L38
	.loc 1 556 8 is_stmt 0 discriminator 1
	lw	a5,-24(s0)
	lw	a5,0(a5)
	j	.L39
.L38:
	.loc 1 556 8 discriminator 2
	li	a5,0
.L39:
	.loc 1 556 32 is_stmt 1 discriminator 4
	lw	a4,-20(s0)
	sw	a5,8(a4)
	.loc 1 565 12
	li	a5,1
	j	.L40
.L37:
	.loc 1 567 10
	li	a5,0
.L40:
	.loc 1 568 1
	mv	a0,a5
	lw	ra,28(sp)
	.cfi_restore 1
	lw	s0,24(sp)
	.cfi_restore 8
	.cfi_def_cfa 2, 32
	addi	sp,sp,32
	.cfi_def_cfa_offset 0
	jr	ra
	.cfi_endproc
.LFE13:
	.size	netif_do_set_netmask, .-netif_do_set_netmask
	.section	.text.netif_set_netmask,"ax",@progbits
	.align	1
	.globl	netif_set_netmask
	.type	netif_set_netmask, @function
netif_set_netmask:
.LFB14:
	.loc 1 582 1
	.cfi_startproc
	addi	sp,sp,-48
	.cfi_def_cfa_offset 48
	sw	ra,44(sp)
	sw	s0,40(sp)
	.cfi_offset 1, -4
	.cfi_offset 8, -8
	addi	s0,sp,48
	.cfi_def_cfa 8, 0
	sw	a0,-36(s0)
	sw	a1,-40(s0)
	.loc 1 587 14
	sw	zero,-20(s0)
	.loc 1 591 11
	lw	a5,-36(s0)
	beq	a5,zero,.L45
	.loc 1 594 6
	lw	a5,-40(s0)
	bne	a5,zero,.L44
	.loc 1 595 13
	lui	a5,%hi(ip_addr_any)
	addi	a5,a5,%lo(ip_addr_any)
	sw	a5,-40(s0)
.L44:
	.loc 1 598 7
	lw	a2,-20(s0)
	lw	a1,-40(s0)
	lw	a0,-36(s0)
	call	netif_do_set_netmask
	j	.L41
.L45:
	.loc 1 591 9
	nop
.L41:
	.loc 1 605 1
	lw	ra,44(sp)
	.cfi_restore 1
	lw	s0,40(sp)
	.cfi_restore 8
	.cfi_def_cfa 2, 48
	addi	sp,sp,48
	.cfi_def_cfa_offset 0
	jr	ra
	.cfi_endproc
.LFE14:
	.size	netif_set_netmask, .-netif_set_netmask
	.section	.text.netif_do_set_gw,"ax",@progbits
	.align	1
	.type	netif_do_set_gw, @function
netif_do_set_gw:
.LFB15:
	.loc 1 609 1
	.cfi_startproc
	addi	sp,sp,-32
	.cfi_def_cfa_offset 32
	sw	ra,28(sp)
	sw	s0,24(sp)
	.cfi_offset 1, -4
	.cfi_offset 8, -8
	addi	s0,sp,32
	.cfi_def_cfa 8, 0
	sw	a0,-20(s0)
	sw	a1,-24(s0)
	sw	a2,-28(s0)
	.loc 1 611 12
	lw	a5,-24(s0)
	lw	a4,0(a5)
	.loc 1 611 44
	lw	a5,-20(s0)
	addi	a5,a5,12
	.loc 1 611 61
	lw	a5,0(a5)
	.loc 1 611 6
	beq	a4,a5,.L47
	.loc 1 619 8
	lw	a5,-24(s0)
	beq	a5,zero,.L48
	.loc 1 619 8 is_stmt 0 discriminator 1
	lw	a5,-24(s0)
	lw	a5,0(a5)
	j	.L49
.L48:
	.loc 1 619 8 discriminator 2
	li	a5,0
.L49:
	.loc 1 619 27 is_stmt 1 discriminator 4
	lw	a4,-20(s0)
	sw	a5,12(a4)
	.loc 1 627 12
	li	a5,1
	j	.L50
.L47:
	.loc 1 629 10
	li	a5,0
.L50:
	.loc 1 630 1
	mv	a0,a5
	lw	ra,28(sp)
	.cfi_restore 1
	lw	s0,24(sp)
	.cfi_restore 8
	.cfi_def_cfa 2, 32
	addi	sp,sp,32
	.cfi_def_cfa_offset 0
	jr	ra
	.cfi_endproc
.LFE15:
	.size	netif_do_set_gw, .-netif_do_set_gw
	.section	.text.netif_set_gw,"ax",@progbits
	.align	1
	.globl	netif_set_gw
	.type	netif_set_gw, @function
netif_set_gw:
.LFB16:
	.loc 1 643 1
	.cfi_startproc
	addi	sp,sp,-48
	.cfi_def_cfa_offset 48
	sw	ra,44(sp)
	sw	s0,40(sp)
	.cfi_offset 1, -4
	.cfi_offset 8, -8
	addi	s0,sp,48
	.cfi_def_cfa 8, 0
	sw	a0,-36(s0)
	sw	a1,-40(s0)
	.loc 1 648 14
	sw	zero,-20(s0)
	.loc 1 652 11
	lw	a5,-36(s0)
	beq	a5,zero,.L55
	.loc 1 655 6
	lw	a5,-40(s0)
	bne	a5,zero,.L54
	.loc 1 656 8
	lui	a5,%hi(ip_addr_any)
	addi	a5,a5,%lo(ip_addr_any)
	sw	a5,-40(s0)
.L54:
	.loc 1 659 7
	lw	a2,-20(s0)
	lw	a1,-40(s0)
	lw	a0,-36(s0)
	call	netif_do_set_gw
	j	.L51
.L55:
	.loc 1 652 9
	nop
.L51:
	.loc 1 666 1
	lw	ra,44(sp)
	.cfi_restore 1
	lw	s0,40(sp)
	.cfi_restore 8
	.cfi_def_cfa 2, 48
	addi	sp,sp,48
	.cfi_def_cfa_offset 0
	jr	ra
	.cfi_endproc
.LFE16:
	.size	netif_set_gw, .-netif_set_gw
	.section	.text.netif_set_addr,"ax",@progbits
	.align	1
	.globl	netif_set_addr
	.type	netif_set_addr, @function
netif_set_addr:
.LFB17:
	.loc 1 681 1
	.cfi_startproc
	addi	sp,sp,-48
	.cfi_def_cfa_offset 48
	sw	ra,44(sp)
	sw	s0,40(sp)
	.cfi_offset 1, -4
	.cfi_offset 8, -8
	addi	s0,sp,48
	.cfi_def_cfa 8, 0
	sw	a0,-36(s0)
	sw	a1,-40(s0)
	sw	a2,-44(s0)
	sw	a3,-48(s0)
	.loc 1 690 14
	sw	zero,-20(s0)
	.loc 1 691 14
	sw	zero,-24(s0)
	.loc 1 699 6
	lw	a5,-40(s0)
	bne	a5,zero,.L57
	.loc 1 700 12
	lui	a5,%hi(ip_addr_any)
	addi	a5,a5,%lo(ip_addr_any)
	sw	a5,-40(s0)
.L57:
	.loc 1 702 6
	lw	a5,-44(s0)
	bne	a5,zero,.L58
	.loc 1 703 13
	lui	a5,%hi(ip_addr_any)
	addi	a5,a5,%lo(ip_addr_any)
	sw	a5,-44(s0)
.L58:
	.loc 1 705 6
	lw	a5,-48(s0)
	bne	a5,zero,.L59
	.loc 1 706 8
	lui	a5,%hi(ip_addr_any)
	addi	a5,a5,%lo(ip_addr_any)
	sw	a5,-48(s0)
.L59:
	.loc 1 709 11
	lw	a5,-40(s0)
	beq	a5,zero,.L60
	.loc 1 709 26 discriminator 2
	lw	a5,-40(s0)
	lw	a5,0(a5)
	.loc 1 709 11 discriminator 2
	bne	a5,zero,.L61
.L60:
	.loc 1 709 11 is_stmt 0 discriminator 3
	li	a5,1
	.loc 1 709 11
	j	.L62
.L61:
	.loc 1 709 11 discriminator 4
	li	a5,0
.L62:
	.loc 1 709 10 is_stmt 1 discriminator 6
	sw	a5,-28(s0)
	.loc 1 710 6
	lw	a5,-28(s0)
	beq	a5,zero,.L63
	.loc 1 713 9
	addi	a5,s0,-32
	mv	a2,a5
	lw	a1,-40(s0)
	lw	a0,-36(s0)
	call	netif_do_set_ipaddr
.L63:
	.loc 1 720 7
	lw	a2,-20(s0)
	lw	a1,-44(s0)
	lw	a0,-36(s0)
	call	netif_do_set_netmask
	.loc 1 726 7
	lw	a2,-24(s0)
	lw	a1,-48(s0)
	lw	a0,-36(s0)
	call	netif_do_set_gw
	.loc 1 732 6
	lw	a5,-28(s0)
	bne	a5,zero,.L65
	.loc 1 734 9
	addi	a5,s0,-32
	mv	a2,a5
	lw	a1,-40(s0)
	lw	a0,-36(s0)
	call	netif_do_set_ipaddr
.L65:
	.loc 1 754 1
	nop
	lw	ra,44(sp)
	.cfi_restore 1
	lw	s0,40(sp)
	.cfi_restore 8
	.cfi_def_cfa 2, 48
	addi	sp,sp,48
	.cfi_def_cfa_offset 0
	jr	ra
	.cfi_endproc
.LFE17:
	.size	netif_set_addr, .-netif_set_addr
	.section	.text.netif_remove,"ax",@progbits
	.align	1
	.globl	netif_remove
	.type	netif_remove, @function
netif_remove:
.LFB18:
	.loc 1 765 1
	.cfi_startproc
	addi	sp,sp,-48
	.cfi_def_cfa_offset 48
	sw	ra,44(sp)
	sw	s0,40(sp)
	.cfi_offset 1, -4
	.cfi_offset 8, -8
	addi	s0,sp,48
	.cfi_def_cfa 8, 0
	sw	a0,-36(s0)
	.loc 1 772 6
	lw	a5,-36(s0)
	beq	a5,zero,.L78
	.loc 1 779 32
	lw	a5,-36(s0)
	addi	a5,a5,4
	.loc 1 779 54
	lw	a5,0(a5)
	.loc 1 779 6
	beq	a5,zero,.L69
	.loc 1 780 49
	lw	a5,-36(s0)
	addi	a5,a5,4
	.loc 1 780 5
	li	a1,0
	mv	a0,a5
	call	netif_do_ip_addr_changed
.L69:
	.loc 1 785 12
	lw	a5,-36(s0)
	lbu	a5,69(a5)
	.loc 1 785 20
	andi	a5,a5,32
	.loc 1 785 6
	beq	a5,zero,.L70
	.loc 1 786 5
	lw	a0,-36(s0)
	call	igmp_stop
.L70:
	.loc 1 802 16
	lw	a5,-36(s0)
	lbu	a5,69(a5)
	.loc 1 802 7
	andi	a5,a5,1
	andi	a5,a5,0xff
	.loc 1 802 6
	beq	a5,zero,.L71
	.loc 1 804 5
	lw	a0,-36(s0)
	call	netif_set_down
.L71:
	.loc 1 810 21
	lui	a5,%hi(netif_default)
	lw	a5,%lo(netif_default)(a5)
	.loc 1 810 6
	lw	a4,-36(s0)
	bne	a4,a5,.L72
	.loc 1 812 5
	li	a0,0
	call	netif_set_default
.L72:
	.loc 1 816 18
	lui	a5,%hi(netif_list)
	lw	a5,%lo(netif_list)(a5)
	.loc 1 816 6
	lw	a4,-36(s0)
	bne	a4,a5,.L73
	.loc 1 817 23
	lw	a5,-36(s0)
	lw	a4,0(a5)
	.loc 1 817 16
	lui	a5,%hi(netif_list)
	sw	a4,%lo(netif_list)(a5)
	j	.L66
.L73:
.LBB4:
	.loc 1 821 22
	lui	a5,%hi(netif_list)
	lw	a5,%lo(netif_list)(a5)
	sw	a5,-20(s0)
	.loc 1 821 5
	j	.L74
.L77:
	.loc 1 822 20
	lw	a5,-20(s0)
	lw	a5,0(a5)
	.loc 1 822 10
	lw	a4,-36(s0)
	bne	a4,a5,.L75
	.loc 1 823 32
	lw	a5,-36(s0)
	lw	a4,0(a5)
	.loc 1 823 25
	lw	a5,-20(s0)
	sw	a4,0(a5)
	.loc 1 824 9
	j	.L66
.L75:
	.loc 1 821 18 discriminator 2
	lw	a5,-20(s0)
	lw	a5,0(a5)
	sw	a5,-20(s0)
.L74:
	.loc 1 821 48 discriminator 1
	lw	a5,-20(s0)
	bne	a5,zero,.L77
	j	.L66
.L78:
.LBE4:
	.loc 1 773 5
	nop
.L66:
	.loc 1 839 1
	lw	ra,44(sp)
	.cfi_restore 1
	lw	s0,40(sp)
	.cfi_restore 8
	.cfi_def_cfa 2, 48
	addi	sp,sp,48
	.cfi_def_cfa_offset 0
	jr	ra
	.cfi_endproc
.LFE18:
	.size	netif_remove, .-netif_remove
	.section	.text.netif_set_default,"ax",@progbits
	.align	1
	.globl	netif_set_default
	.type	netif_set_default, @function
netif_set_default:
.LFB19:
	.loc 1 850 1
	.cfi_startproc
	addi	sp,sp,-32
	.cfi_def_cfa_offset 32
	sw	ra,28(sp)
	sw	s0,24(sp)
	.cfi_offset 1, -4
	.cfi_offset 8, -8
	addi	s0,sp,32
	.cfi_def_cfa 8, 0
	sw	a0,-20(s0)
	.loc 1 860 17
	lui	a5,%hi(netif_default)
	lw	a4,-20(s0)
	sw	a4,%lo(netif_default)(a5)
	.loc 1 863 1
	nop
	lw	ra,28(sp)
	.cfi_restore 1
	lw	s0,24(sp)
	.cfi_restore 8
	.cfi_def_cfa 2, 32
	addi	sp,sp,32
	.cfi_def_cfa_offset 0
	jr	ra
	.cfi_endproc
.LFE19:
	.size	netif_set_default, .-netif_set_default
	.section	.text.netif_set_up,"ax",@progbits
	.align	1
	.globl	netif_set_up
	.type	netif_set_up, @function
netif_set_up:
.LFB20:
	.loc 1 872 1
	.cfi_startproc
	addi	sp,sp,-32
	.cfi_def_cfa_offset 32
	sw	ra,28(sp)
	sw	s0,24(sp)
	.cfi_offset 1, -4
	.cfi_offset 8, -8
	addi	s0,sp,32
	.cfi_def_cfa 8, 0
	sw	a0,-20(s0)
	.loc 1 875 11
	lw	a5,-20(s0)
	beq	a5,zero,.L84
	.loc 1 877 14
	lw	a5,-20(s0)
	lbu	a5,69(a5)
	.loc 1 877 22
	andi	a5,a5,1
	.loc 1 877 6
	bne	a5,zero,.L80
	.loc 1 878 41
	lw	a5,-20(s0)
	lbu	a5,69(a5)
	.loc 1 878 27
	ori	a5,a5,1
	andi	a4,a5,0xff
	.loc 1 878 25
	lw	a5,-20(s0)
	sb	a4,69(a5)
	.loc 1 882 18
	lw	a5,-20(s0)
	lw	a5,28(a5)
	.loc 1 882 12
	beq	a5,zero,.L83
	.loc 1 882 45 discriminator 1
	lw	a5,-20(s0)
	lw	a5,28(a5)
	lw	a0,-20(s0)
	jalr	a5
.LVL2:
.L83:
	.loc 1 892 5
	li	a1,3
	lw	a0,-20(s0)
	call	netif_issue_reports
	j	.L80
.L84:
	.loc 1 875 9
	nop
.L80:
	.loc 1 897 1
	lw	ra,28(sp)
	.cfi_restore 1
	lw	s0,24(sp)
	.cfi_restore 8
	.cfi_def_cfa 2, 32
	addi	sp,sp,32
	.cfi_def_cfa_offset 0
	jr	ra
	.cfi_endproc
.LFE20:
	.size	netif_set_up, .-netif_set_up
	.section	.text.netif_issue_reports,"ax",@progbits
	.align	1
	.type	netif_issue_reports, @function
netif_issue_reports:
.LFB21:
	.loc 1 903 1
	.cfi_startproc
	addi	sp,sp,-32
	.cfi_def_cfa_offset 32
	sw	ra,28(sp)
	sw	s0,24(sp)
	.cfi_offset 1, -4
	.cfi_offset 8, -8
	addi	s0,sp,32
	.cfi_def_cfa 8, 0
	sw	a0,-20(s0)
	mv	a5,a1
	sb	a5,-21(s0)
	.loc 1 907 14
	lw	a5,-20(s0)
	lbu	a5,69(a5)
	.loc 1 907 22
	andi	a5,a5,4
	.loc 1 907 6
	beq	a5,zero,.L89
	.loc 1 908 14
	lw	a5,-20(s0)
	lbu	a5,69(a5)
	.loc 1 908 22
	andi	a5,a5,1
	.loc 1 907 31 discriminator 1
	beq	a5,zero,.L89
	.loc 1 913 20
	lbu	a5,-21(s0)
	andi	a5,a5,1
	.loc 1 913 6
	beq	a5,zero,.L85
	.loc 1 914 32
	lw	a5,-20(s0)
	addi	a5,a5,4
	.loc 1 914 54
	lw	a5,0(a5)
	.loc 1 913 28 discriminator 1
	beq	a5,zero,.L85
	.loc 1 927 14
	lw	a5,-20(s0)
	lbu	a5,69(a5)
	.loc 1 927 22
	andi	a5,a5,32
	.loc 1 927 8
	beq	a5,zero,.L85
	.loc 1 928 7
	lw	a0,-20(s0)
	call	igmp_report_groups
	j	.L85
.L89:
	.loc 1 909 5
	nop
.L85:
	.loc 1 942 1
	lw	ra,28(sp)
	.cfi_restore 1
	lw	s0,24(sp)
	.cfi_restore 8
	.cfi_def_cfa 2, 32
	addi	sp,sp,32
	.cfi_def_cfa_offset 0
	jr	ra
	.cfi_endproc
.LFE21:
	.size	netif_issue_reports, .-netif_issue_reports
	.section	.text.netif_set_down,"ax",@progbits
	.align	1
	.globl	netif_set_down
	.type	netif_set_down, @function
netif_set_down:
.LFB22:
	.loc 1 950 1
	.cfi_startproc
	addi	sp,sp,-32
	.cfi_def_cfa_offset 32
	sw	ra,28(sp)
	sw	s0,24(sp)
	.cfi_offset 1, -4
	.cfi_offset 8, -8
	addi	s0,sp,32
	.cfi_def_cfa 8, 0
	sw	a0,-20(s0)
	.loc 1 953 11
	lw	a5,-20(s0)
	beq	a5,zero,.L94
	.loc 1 955 12
	lw	a5,-20(s0)
	lbu	a5,69(a5)
	.loc 1 955 20
	andi	a5,a5,1
	.loc 1 955 6
	beq	a5,zero,.L90
	.loc 1 964 41
	lw	a5,-20(s0)
	lbu	a5,69(a5)
	.loc 1 964 27
	andi	a5,a5,-2
	andi	a4,a5,0xff
	.loc 1 964 25
	lw	a5,-20(s0)
	sb	a4,69(a5)
	.loc 1 968 14
	lw	a5,-20(s0)
	lbu	a5,69(a5)
	.loc 1 968 22
	andi	a5,a5,8
	.loc 1 968 8
	beq	a5,zero,.L93
	.loc 1 969 7
	lw	a0,-20(s0)
	call	etharp_cleanup_netif
.L93:
	.loc 1 977 18
	lw	a5,-20(s0)
	lw	a5,28(a5)
	.loc 1 977 12
	beq	a5,zero,.L90
	.loc 1 977 45 discriminator 1
	lw	a5,-20(s0)
	lw	a5,28(a5)
	lw	a0,-20(s0)
	jalr	a5
.LVL3:
	j	.L90
.L94:
	.loc 1 953 9
	nop
.L90:
	.loc 1 979 1
	lw	ra,28(sp)
	.cfi_restore 1
	lw	s0,24(sp)
	.cfi_restore 8
	.cfi_def_cfa 2, 32
	addi	sp,sp,32
	.cfi_def_cfa_offset 0
	jr	ra
	.cfi_endproc
.LFE22:
	.size	netif_set_down, .-netif_set_down
	.section	.text.netif_set_status_callback,"ax",@progbits
	.align	1
	.globl	netif_set_status_callback
	.type	netif_set_status_callback, @function
netif_set_status_callback:
.LFB23:
	.loc 1 988 1
	.cfi_startproc
	addi	sp,sp,-32
	.cfi_def_cfa_offset 32
	sw	ra,28(sp)
	sw	s0,24(sp)
	.cfi_offset 1, -4
	.cfi_offset 8, -8
	addi	s0,sp,32
	.cfi_def_cfa 8, 0
	sw	a0,-20(s0)
	sw	a1,-24(s0)
	.loc 1 991 6
	lw	a5,-20(s0)
	beq	a5,zero,.L97
	.loc 1 992 28
	lw	a5,-20(s0)
	lw	a4,-24(s0)
	sw	a4,28(a5)
.L97:
	.loc 1 994 1
	nop
	lw	ra,28(sp)
	.cfi_restore 1
	lw	s0,24(sp)
	.cfi_restore 8
	.cfi_def_cfa 2, 32
	addi	sp,sp,32
	.cfi_def_cfa_offset 0
	jr	ra
	.cfi_endproc
.LFE23:
	.size	netif_set_status_callback, .-netif_set_status_callback
	.section	.text.netif_set_link_up,"ax",@progbits
	.align	1
	.globl	netif_set_link_up
	.type	netif_set_link_up, @function
netif_set_link_up:
.LFB24:
	.loc 1 1019 1
	.cfi_startproc
	addi	sp,sp,-32
	.cfi_def_cfa_offset 32
	sw	ra,28(sp)
	sw	s0,24(sp)
	.cfi_offset 1, -4
	.cfi_offset 8, -8
	addi	s0,sp,32
	.cfi_def_cfa 8, 0
	sw	a0,-20(s0)
	.loc 1 1022 11
	lw	a5,-20(s0)
	beq	a5,zero,.L101
	.loc 1 1024 14
	lw	a5,-20(s0)
	lbu	a5,69(a5)
	.loc 1 1024 22
	andi	a5,a5,4
	.loc 1 1024 6
	bne	a5,zero,.L98
	.loc 1 1025 41
	lw	a5,-20(s0)
	lbu	a5,69(a5)
	.loc 1 1025 27
	ori	a5,a5,4
	andi	a4,a5,0xff
	.loc 1 1025 25
	lw	a5,-20(s0)
	sb	a4,69(a5)
	.loc 1 1028 5
	lw	a0,-20(s0)
	call	dhcp_network_changed_link_up
	.loc 1 1035 5
	li	a1,3
	lw	a0,-20(s0)
	call	netif_issue_reports
	.loc 1 1040 18
	lw	a5,-20(s0)
	lw	a5,32(a5)
	.loc 1 1040 12
	beq	a5,zero,.L98
	.loc 1 1040 43 discriminator 1
	lw	a5,-20(s0)
	lw	a5,32(a5)
	lw	a0,-20(s0)
	jalr	a5
.LVL4:
	j	.L98
.L101:
	.loc 1 1022 9
	nop
.L98:
	.loc 1 1049 1
	lw	ra,28(sp)
	.cfi_restore 1
	lw	s0,24(sp)
	.cfi_restore 8
	.cfi_def_cfa 2, 32
	addi	sp,sp,32
	.cfi_def_cfa_offset 0
	jr	ra
	.cfi_endproc
.LFE24:
	.size	netif_set_link_up, .-netif_set_link_up
	.section	.text.netif_set_link_down,"ax",@progbits
	.align	1
	.globl	netif_set_link_down
	.type	netif_set_link_down, @function
netif_set_link_down:
.LFB25:
	.loc 1 1057 1
	.cfi_startproc
	addi	sp,sp,-32
	.cfi_def_cfa_offset 32
	sw	ra,28(sp)
	sw	s0,24(sp)
	.cfi_offset 1, -4
	.cfi_offset 8, -8
	addi	s0,sp,32
	.cfi_def_cfa 8, 0
	sw	a0,-20(s0)
	.loc 1 1060 11
	lw	a5,-20(s0)
	beq	a5,zero,.L105
	.loc 1 1062 12
	lw	a5,-20(s0)
	lbu	a5,69(a5)
	.loc 1 1062 20
	andi	a5,a5,4
	.loc 1 1062 6
	beq	a5,zero,.L102
	.loc 1 1063 41
	lw	a5,-20(s0)
	lbu	a5,69(a5)
	.loc 1 1063 27
	andi	a5,a5,-5
	andi	a4,a5,0xff
	.loc 1 1063 25
	lw	a5,-20(s0)
	sb	a4,69(a5)
	.loc 1 1070 5
	lw	a0,-20(s0)
	call	acd_network_changed_link_down
	.loc 1 1077 18
	lw	a5,-20(s0)
	lw	a5,32(a5)
	.loc 1 1077 12
	beq	a5,zero,.L102
	.loc 1 1077 43 discriminator 1
	lw	a5,-20(s0)
	lw	a5,32(a5)
	lw	a0,-20(s0)
	jalr	a5
.LVL5:
	j	.L102
.L105:
	.loc 1 1060 9
	nop
.L102:
	.loc 1 1086 1
	lw	ra,28(sp)
	.cfi_restore 1
	lw	s0,24(sp)
	.cfi_restore 8
	.cfi_def_cfa 2, 32
	addi	sp,sp,32
	.cfi_def_cfa_offset 0
	jr	ra
	.cfi_endproc
.LFE25:
	.size	netif_set_link_down, .-netif_set_link_down
	.section	.text.netif_set_link_callback,"ax",@progbits
	.align	1
	.globl	netif_set_link_callback
	.type	netif_set_link_callback, @function
netif_set_link_callback:
.LFB26:
	.loc 1 1095 1
	.cfi_startproc
	addi	sp,sp,-32
	.cfi_def_cfa_offset 32
	sw	ra,28(sp)
	sw	s0,24(sp)
	.cfi_offset 1, -4
	.cfi_offset 8, -8
	addi	s0,sp,32
	.cfi_def_cfa 8, 0
	sw	a0,-20(s0)
	sw	a1,-24(s0)
	.loc 1 1098 6
	lw	a5,-20(s0)
	beq	a5,zero,.L108
	.loc 1 1099 26
	lw	a5,-20(s0)
	lw	a4,-24(s0)
	sw	a4,32(a5)
.L108:
	.loc 1 1101 1
	nop
	lw	ra,28(sp)
	.cfi_restore 1
	lw	s0,24(sp)
	.cfi_restore 8
	.cfi_def_cfa 2, 32
	addi	sp,sp,32
	.cfi_def_cfa_offset 0
	jr	ra
	.cfi_endproc
.LFE26:
	.size	netif_set_link_callback, .-netif_set_link_callback
	.section	.text.netif_alloc_client_data_id,"ax",@progbits
	.align	1
	.globl	netif_alloc_client_data_id
	.type	netif_alloc_client_data_id, @function
netif_alloc_client_data_id:
.LFB27:
	.loc 1 1342 1
	.cfi_startproc
	addi	sp,sp,-32
	.cfi_def_cfa_offset 32
	sw	ra,28(sp)
	sw	s0,24(sp)
	.cfi_offset 1, -4
	.cfi_offset 8, -8
	addi	s0,sp,32
	.cfi_def_cfa 8, 0
	.loc 1 1343 8
	lui	a5,%hi(netif_client_id)
	lbu	a5,%lo(netif_client_id)(a5)
	sb	a5,-17(s0)
	.loc 1 1344 18
	lui	a5,%hi(netif_client_id)
	lbu	a5,%lo(netif_client_id)(a5)
	addi	a5,a5,1
	andi	a4,a5,0xff
	lui	a5,%hi(netif_client_id)
	sb	a4,%lo(netif_client_id)(a5)
	.loc 1 1352 10
	lbu	a5,-17(s0)
	addi	a5,a5,3
	andi	a5,a5,0xff
	.loc 1 1353 1
	mv	a0,a5
	lw	ra,28(sp)
	.cfi_restore 1
	lw	s0,24(sp)
	.cfi_restore 8
	.cfi_def_cfa 2, 32
	addi	sp,sp,32
	.cfi_def_cfa_offset 0
	jr	ra
	.cfi_endproc
.LFE27:
	.size	netif_alloc_client_data_id, .-netif_alloc_client_data_id
	.section	.text.netif_null_output_ip4,"ax",@progbits
	.align	1
	.type	netif_null_output_ip4, @function
netif_null_output_ip4:
.LFB28:
	.loc 1 1674 1
	.cfi_startproc
	addi	sp,sp,-32
	.cfi_def_cfa_offset 32
	sw	ra,28(sp)
	sw	s0,24(sp)
	.cfi_offset 1, -4
	.cfi_offset 8, -8
	addi	s0,sp,32
	.cfi_def_cfa 8, 0
	sw	a0,-20(s0)
	sw	a1,-24(s0)
	sw	a2,-28(s0)
	.loc 1 1679 10
	li	a5,-12
	.loc 1 1680 1
	mv	a0,a5
	lw	ra,28(sp)
	.cfi_restore 1
	lw	s0,24(sp)
	.cfi_restore 8
	.cfi_def_cfa 2, 32
	addi	sp,sp,32
	.cfi_def_cfa_offset 0
	jr	ra
	.cfi_endproc
.LFE28:
	.size	netif_null_output_ip4, .-netif_null_output_ip4
	.section	.text.netif_name_to_index,"ax",@progbits
	.align	1
	.globl	netif_name_to_index
	.type	netif_name_to_index, @function
netif_name_to_index:
.LFB29:
	.loc 1 1692 1
	.cfi_startproc
	addi	sp,sp,-48
	.cfi_def_cfa_offset 48
	sw	ra,44(sp)
	sw	s0,40(sp)
	.cfi_offset 1, -4
	.cfi_offset 8, -8
	addi	s0,sp,48
	.cfi_def_cfa 8, 0
	sw	a0,-36(s0)
	.loc 1 1693 25
	lw	a0,-36(s0)
	call	netif_find
	sw	a0,-20(s0)
	.loc 1 1694 6
	lw	a5,-20(s0)
	beq	a5,zero,.L114
	.loc 1 1695 27
	lw	a5,-20(s0)
	lbu	a5,72(a5)
	.loc 1 1695 13
	addi	a5,a5,1
	andi	a5,a5,0xff
	j	.L115
.L114:
	.loc 1 1698 10
	li	a5,0
.L115:
	.loc 1 1699 1
	mv	a0,a5
	lw	ra,44(sp)
	.cfi_restore 1
	lw	s0,40(sp)
	.cfi_restore 8
	.cfi_def_cfa 2, 48
	addi	sp,sp,48
	.cfi_def_cfa_offset 0
	jr	ra
	.cfi_endproc
.LFE29:
	.size	netif_name_to_index, .-netif_name_to_index
	.section	.text.netif_index_to_name,"ax",@progbits
	.align	1
	.globl	netif_index_to_name
	.type	netif_index_to_name, @function
netif_index_to_name:
.LFB30:
	.loc 1 1711 1
	.cfi_startproc
	addi	sp,sp,-48
	.cfi_def_cfa_offset 48
	sw	ra,44(sp)
	sw	s0,40(sp)
	.cfi_offset 1, -4
	.cfi_offset 8, -8
	addi	s0,sp,48
	.cfi_def_cfa 8, 0
	mv	a5,a0
	sw	a1,-40(s0)
	sb	a5,-33(s0)
	.loc 1 1712 25
	lbu	a5,-33(s0)
	mv	a0,a5
	call	netif_get_by_index
	sw	a0,-20(s0)
	.loc 1 1714 6
	lw	a5,-20(s0)
	beq	a5,zero,.L117
	.loc 1 1715 26
	lw	a5,-20(s0)
	lbu	a4,70(a5)
	.loc 1 1715 13
	lw	a5,-40(s0)
	sb	a4,0(a5)
	.loc 1 1716 9
	lw	a5,-40(s0)
	addi	a5,a5,1
	.loc 1 1716 26
	lw	a4,-20(s0)
	lbu	a4,71(a4)
	.loc 1 1716 13
	sb	a4,0(a5)
	.loc 1 1717 5
	lw	a5,-40(s0)
	addi	a4,a5,2
	lbu	a5,-33(s0)
	addi	a5,a5,-1
	mv	a2,a5
	li	a1,4
	mv	a0,a4
	call	lwip_itoa
	.loc 1 1718 12
	lw	a5,-40(s0)
	j	.L118
.L117:
	.loc 1 1720 9
	li	a5,0
.L118:
	.loc 1 1721 1
	mv	a0,a5
	lw	ra,44(sp)
	.cfi_restore 1
	lw	s0,40(sp)
	.cfi_restore 8
	.cfi_def_cfa 2, 48
	addi	sp,sp,48
	.cfi_def_cfa_offset 0
	jr	ra
	.cfi_endproc
.LFE30:
	.size	netif_index_to_name, .-netif_index_to_name
	.section	.text.netif_get_by_index,"ax",@progbits
	.align	1
	.globl	netif_get_by_index
	.type	netif_get_by_index, @function
netif_get_by_index:
.LFB31:
	.loc 1 1731 1
	.cfi_startproc
	addi	sp,sp,-48
	.cfi_def_cfa_offset 48
	sw	ra,44(sp)
	sw	s0,40(sp)
	.cfi_offset 1, -4
	.cfi_offset 8, -8
	addi	s0,sp,48
	.cfi_def_cfa 8, 0
	mv	a5,a0
	sb	a5,-33(s0)
	.loc 1 1736 6
	lbu	a5,-33(s0)
	beq	a5,zero,.L120
	.loc 1 1737 18
	lui	a5,%hi(netif_list)
	lw	a5,%lo(netif_list)(a5)
	sw	a5,-20(s0)
	.loc 1 1737 5
	j	.L121
.L124:
	.loc 1 1738 33
	lw	a5,-20(s0)
	lbu	a5,72(a5)
	.loc 1 1738 19
	addi	a5,a5,1
	andi	a5,a5,0xff
	.loc 1 1738 10
	lbu	a4,-33(s0)
	bne	a4,a5,.L122
	.loc 1 1739 16
	lw	a5,-20(s0)
	j	.L123
.L122:
	.loc 1 1737 14 discriminator 2
	lw	a5,-20(s0)
	lw	a5,0(a5)
	sw	a5,-20(s0)
.L121:
	.loc 1 1737 40 discriminator 1
	lw	a5,-20(s0)
	bne	a5,zero,.L124
.L120:
	.loc 1 1744 9
	li	a5,0
.L123:
	.loc 1 1745 1
	mv	a0,a5
	lw	ra,44(sp)
	.cfi_restore 1
	lw	s0,40(sp)
	.cfi_restore 8
	.cfi_def_cfa 2, 48
	addi	sp,sp,48
	.cfi_def_cfa_offset 0
	jr	ra
	.cfi_endproc
.LFE31:
	.size	netif_get_by_index, .-netif_get_by_index
	.section	.text.netif_find,"ax",@progbits
	.align	1
	.globl	netif_find
	.type	netif_find, @function
netif_find:
.LFB32:
	.loc 1 1756 1
	.cfi_startproc
	addi	sp,sp,-48
	.cfi_def_cfa_offset 48
	sw	ra,44(sp)
	sw	s0,40(sp)
	.cfi_offset 1, -4
	.cfi_offset 8, -8
	addi	s0,sp,48
	.cfi_def_cfa 8, 0
	sw	a0,-36(s0)
	.loc 1 1762 6
	lw	a5,-36(s0)
	bne	a5,zero,.L126
	.loc 1 1763 11
	li	a5,0
	j	.L127
.L126:
	.loc 1 1766 15
	lw	a5,-36(s0)
	addi	a5,a5,2
	mv	a0,a5
	call	atoi
	mv	a5,a0
	.loc 1 1766 7 discriminator 1
	sb	a5,-21(s0)
	.loc 1 1767 6
	lbu	a5,-21(s0)
	bne	a5,zero,.L128
	.loc 1 1767 20 discriminator 1
	lw	a5,-36(s0)
	addi	a5,a5,2
	lbu	a4,0(a5)
	.loc 1 1767 12 discriminator 1
	li	a5,48
	beq	a4,a5,.L128
	.loc 1 1769 11
	li	a5,0
	j	.L127
.L128:
	.loc 1 1772 16
	lui	a5,%hi(netif_list)
	lw	a5,%lo(netif_list)(a5)
	sw	a5,-20(s0)
	.loc 1 1772 3
	j	.L129
.L131:
	.loc 1 1773 21
	lw	a5,-20(s0)
	lbu	a5,72(a5)
	.loc 1 1773 8
	lbu	a4,-21(s0)
	bne	a4,a5,.L130
	.loc 1 1774 13
	lw	a5,-36(s0)
	lbu	a4,0(a5)
	.loc 1 1774 31
	lw	a5,-20(s0)
	lbu	a5,70(a5)
	.loc 1 1773 27 discriminator 1
	bne	a4,a5,.L130
	.loc 1 1775 13
	lw	a5,-36(s0)
	addi	a5,a5,1
	lbu	a4,0(a5)
	.loc 1 1775 31
	lw	a5,-20(s0)
	lbu	a5,71(a5)
	.loc 1 1774 35
	bne	a4,a5,.L130
	.loc 1 1777 14
	lw	a5,-20(s0)
	j	.L127
.L130:
	.loc 1 1772 12 discriminator 2
	lw	a5,-20(s0)
	lw	a5,0(a5)
	sw	a5,-20(s0)
.L129:
	.loc 1 1772 38 discriminator 1
	lw	a5,-20(s0)
	bne	a5,zero,.L131
	.loc 1 1781 9
	li	a5,0
.L127:
	.loc 1 1782 1
	mv	a0,a5
	lw	ra,44(sp)
	.cfi_restore 1
	lw	s0,40(sp)
	.cfi_restore 8
	.cfi_def_cfa 2, 48
	addi	sp,sp,48
	.cfi_def_cfa_offset 0
	jr	ra
	.cfi_endproc
.LFE32:
	.size	netif_find, .-netif_find
	.text
.Letext0:
	.file 2 "/home/chandu/sdk/bl602_iot_sdk/toolchain/compiler/lib/gcc/riscv32-unknown-elf/15.1.0/include/stddef.h"
	.file 3 "/home/chandu/sdk/bl602_iot_sdk/toolchain/compiler/lib/gcc/riscv32-unknown-elf/15.1.0/include/stdint-gcc.h"
	.file 4 "/home/chandu/sdk/bl602_iot_sdk/components/network/lwip/src/include/lwip/arch.h"
	.file 5 "/home/chandu/sdk/bl602_iot_sdk/components/network/lwip/src/include/lwip/ip4_addr.h"
	.file 6 "/home/chandu/sdk/bl602_iot_sdk/components/network/lwip/src/include/lwip/ip_addr.h"
	.file 7 "/home/chandu/sdk/bl602_iot_sdk/components/network/lwip/src/include/lwip/err.h"
	.file 8 "/home/chandu/sdk/bl602_iot_sdk/components/network/lwip/src/include/lwip/pbuf.h"
	.file 9 "/home/chandu/sdk/bl602_iot_sdk/components/network/lwip/src/include/lwip/memp.h"
	.file 10 "/home/chandu/sdk/bl602_iot_sdk/components/network/lwip/src/include/lwip/netif.h"
	.file 11 "/home/chandu/sdk/bl602_iot_sdk/components/network/lwip/src/include/lwip/acd.h"
	.file 12 "/home/chandu/sdk/bl602_iot_sdk/components/network/lwip/src/include/lwip/prot/acd.h"
	.file 13 "/home/chandu/sdk/bl602_iot_sdk/components/network/lwip/src/include/lwip/def.h"
	.file 14 "/home/chandu/sdk/bl602_iot_sdk/components/network/lwip/src/include/lwip/dhcp.h"
	.file 15 "/home/chandu/sdk/bl602_iot_sdk/components/network/lwip/src/include/lwip/etharp.h"
	.file 16 "/home/chandu/sdk/bl602_iot_sdk/components/network/lwip/src/include/lwip/igmp.h"
	.file 17 "/home/chandu/sdk/bl602_iot_sdk/toolchain/compiler/riscv32-unknown-elf/include/stdlib.h"
	.file 18 "/home/chandu/sdk/bl602_iot_sdk/components/network/lwip/src/include/lwip/priv/raw_priv.h"
	.file 19 "/home/chandu/sdk/bl602_iot_sdk/components/network/lwip/src/include/lwip/udp.h"
	.file 20 "/home/chandu/sdk/bl602_iot_sdk/components/network/lwip/src/include/lwip/priv/tcp_priv.h"
	.file 21 "/home/chandu/sdk/bl602_iot_sdk/toolchain/compiler/riscv32-unknown-elf/include/string.h"
	.file 22 "/home/chandu/sdk/bl602_iot_sdk/components/network/lwip/src/include/lwip/ip4.h"
	.file 23 "/home/chandu/sdk/bl602_iot_sdk/components/network/lwip/src/include/netif/ethernet.h"
	.section	.note.GNU-stack,"",@progbits
