	.file	"timeouts.c"
	.option nopic
	.attribute arch, "rv32i2p1_m2p0_f2p2_c2p0_zicsr2p0_zmmul1p0_zca1p0_zcf1p0"
	.attribute unaligned_access, 0
	.attribute stack_align, 16
	.text
.Ltext0:
	.cfi_sections	.debug_frame
	.file 0 "/home/chandu/sdk/bl602_iot_sdk/customer_app/suas_app_pqkem_gateway/build_out/lwip" "/home/chandu/sdk/bl602_iot_sdk/components/network/lwip/src/core/timeouts.c"
	.globl	lwip_cyclic_timers
	.section	.rodata.lwip_cyclic_timers,"a"
	.align	2
	.type	lwip_cyclic_timers, @object
	.size	lwip_cyclic_timers, 56
lwip_cyclic_timers:
	.word	250
	.word	tcp_tmr
	.word	1000
	.word	etharp_tmr
	.word	60000
	.word	dhcp_coarse_tmr
	.word	500
	.word	dhcp_fine_tmr
	.word	100
	.word	acd_tmr
	.word	100
	.word	igmp_tmr
	.word	1000
	.word	dns_tmr
	.globl	lwip_num_cyclic_timers
	.section	.srodata.lwip_num_cyclic_timers,"a"
	.align	2
	.type	lwip_num_cyclic_timers, @object
	.size	lwip_num_cyclic_timers, 4
lwip_num_cyclic_timers:
	.word	7
	.section	.sbss.next_timeout,"aw",@nobits
	.align	2
	.type	next_timeout, @object
	.size	next_timeout, 4
next_timeout:
	.zero	4
	.section	.sbss.current_timeout_due_time,"aw",@nobits
	.align	2
	.type	current_timeout_due_time, @object
	.size	current_timeout_due_time, 4
current_timeout_due_time:
	.zero	4
	.section	.sbss.tcpip_tcp_timer_active,"aw",@nobits
	.align	2
	.type	tcpip_tcp_timer_active, @object
	.size	tcpip_tcp_timer_active, 4
tcpip_tcp_timer_active:
	.zero	4
	.section	.text.tcpip_tcp_timer,"ax",@progbits
	.align	1
	.type	tcpip_tcp_timer, @function
tcpip_tcp_timer:
.LFB5:
	.file 1 "/home/chandu/sdk/bl602_iot_sdk/components/network/lwip/src/core/timeouts.c"
	.loc 1 145 1
	.cfi_startproc
	addi	sp,sp,-32
	.cfi_def_cfa_offset 32
	sw	ra,28(sp)
	sw	s0,24(sp)
	.cfi_offset 1, -4
	.cfi_offset 8, -8
	addi	s0,sp,32
	.cfi_def_cfa 8, 0
	sw	a0,-20(s0)
	.loc 1 149 3
	call	tcp_tmr
	.loc 1 151 7
	lui	a5,%hi(tcp_active_pcbs)
	lw	a5,%lo(tcp_active_pcbs)(a5)
	.loc 1 151 6
	bne	a5,zero,.L2
	.loc 1 151 23 discriminator 1
	lui	a5,%hi(tcp_tw_pcbs)
	lw	a5,%lo(tcp_tw_pcbs)(a5)
	beq	a5,zero,.L3
.L2:
	.loc 1 153 5
	li	a2,0
	lui	a5,%hi(tcpip_tcp_timer)
	addi	a1,a5,%lo(tcpip_tcp_timer)
	li	a0,250
	call	sys_timeout
	j	.L4
.L3:
	.loc 1 156 28
	lui	a5,%hi(tcpip_tcp_timer_active)
	sw	zero,%lo(tcpip_tcp_timer_active)(a5)
	.loc 1 158 1
	nop
.L4:
	nop
	lw	ra,28(sp)
	.cfi_restore 1
	lw	s0,24(sp)
	.cfi_restore 8
	.cfi_def_cfa 2, 32
	addi	sp,sp,32
	.cfi_def_cfa_offset 0
	jr	ra
	.cfi_endproc
.LFE5:
	.size	tcpip_tcp_timer, .-tcpip_tcp_timer
	.section	.text.tcp_timer_needed,"ax",@progbits
	.align	1
	.globl	tcp_timer_needed
	.type	tcp_timer_needed, @function
tcp_timer_needed:
.LFB6:
	.loc 1 167 1
	.cfi_startproc
	addi	sp,sp,-16
	.cfi_def_cfa_offset 16
	sw	ra,12(sp)
	sw	s0,8(sp)
	.cfi_offset 1, -4
	.cfi_offset 8, -8
	addi	s0,sp,16
	.cfi_def_cfa 8, 0
	.loc 1 171 7
	lui	a5,%hi(tcpip_tcp_timer_active)
	lw	a5,%lo(tcpip_tcp_timer_active)(a5)
	.loc 1 171 6
	bne	a5,zero,.L8
	.loc 1 171 35 discriminator 1
	lui	a5,%hi(tcp_active_pcbs)
	lw	a5,%lo(tcp_active_pcbs)(a5)
	.loc 1 171 31 discriminator 1
	bne	a5,zero,.L7
	.loc 1 171 51 discriminator 2
	lui	a5,%hi(tcp_tw_pcbs)
	lw	a5,%lo(tcp_tw_pcbs)(a5)
	beq	a5,zero,.L8
.L7:
	.loc 1 173 28
	lui	a5,%hi(tcpip_tcp_timer_active)
	li	a4,1
	sw	a4,%lo(tcpip_tcp_timer_active)(a5)
	.loc 1 174 5
	li	a2,0
	lui	a5,%hi(tcpip_tcp_timer)
	addi	a1,a5,%lo(tcpip_tcp_timer)
	li	a0,250
	call	sys_timeout
.L8:
	.loc 1 176 1
	nop
	lw	ra,12(sp)
	.cfi_restore 1
	lw	s0,8(sp)
	.cfi_restore 8
	.cfi_def_cfa 2, 16
	addi	sp,sp,16
	.cfi_def_cfa_offset 0
	jr	ra
	.cfi_endproc
.LFE6:
	.size	tcp_timer_needed, .-tcp_timer_needed
	.section	.text.sys_timeout_abs,"ax",@progbits
	.align	1
	.type	sys_timeout_abs, @function
sys_timeout_abs:
.LFB7:
	.loc 1 185 1
	.cfi_startproc
	addi	sp,sp,-48
	.cfi_def_cfa_offset 48
	sw	ra,44(sp)
	sw	s0,40(sp)
	.cfi_offset 1, -4
	.cfi_offset 8, -8
	addi	s0,sp,48
	.cfi_def_cfa 8, 0
	sw	a0,-36(s0)
	sw	a1,-40(s0)
	sw	a2,-44(s0)
	.loc 1 188 33
	li	a0,11
	call	memp_malloc
	sw	a0,-24(s0)
	.loc 1 189 6
	lw	a5,-24(s0)
	beq	a5,zero,.L18
	.loc 1 194 17
	lw	a5,-24(s0)
	sw	zero,0(a5)
	.loc 1 195 14
	lw	a5,-24(s0)
	lw	a4,-40(s0)
	sw	a4,8(a5)
	.loc 1 196 16
	lw	a5,-24(s0)
	lw	a4,-44(s0)
	sw	a4,12(a5)
	.loc 1 197 17
	lw	a5,-24(s0)
	lw	a4,-36(s0)
	sw	a4,4(a5)
	.loc 1 205 20
	lui	a5,%hi(next_timeout)
	lw	a5,%lo(next_timeout)(a5)
	.loc 1 205 6
	bne	a5,zero,.L12
	.loc 1 206 18
	lui	a5,%hi(next_timeout)
	lw	a4,-24(s0)
	sw	a4,%lo(next_timeout)(a5)
	.loc 1 207 5
	j	.L9
.L12:
	.loc 1 209 27
	lw	a5,-24(s0)
	lw	a4,4(a5)
	.loc 1 209 48
	lui	a5,%hi(next_timeout)
	lw	a5,%lo(next_timeout)(a5)
	lw	a5,4(a5)
	.loc 1 209 34
	sub	a5,a4,a5
	.loc 1 209 7
	srli	a5,a5,31
	andi	a5,a5,1
	andi	a5,a5,0xff
	.loc 1 209 6
	beq	a5,zero,.L13
	.loc 1 210 19
	lui	a5,%hi(next_timeout)
	lw	a4,%lo(next_timeout)(a5)
	lw	a5,-24(s0)
	sw	a4,0(a5)
	.loc 1 211 18
	lui	a5,%hi(next_timeout)
	lw	a4,-24(s0)
	sw	a4,%lo(next_timeout)(a5)
	j	.L9
.L13:
	.loc 1 213 12
	lui	a5,%hi(next_timeout)
	lw	a5,%lo(next_timeout)(a5)
	sw	a5,-20(s0)
	.loc 1 213 5
	j	.L14
.L17:
	.loc 1 214 13
	lw	a5,-20(s0)
	lw	a5,0(a5)
	.loc 1 214 10
	beq	a5,zero,.L15
	.loc 1 214 51 discriminator 1
	lw	a5,-24(s0)
	lw	a4,4(a5)
	.loc 1 214 61 discriminator 1
	lw	a5,-20(s0)
	lw	a5,0(a5)
	.loc 1 214 67 discriminator 1
	lw	a5,4(a5)
	.loc 1 214 58 discriminator 1
	sub	a5,a4,a5
	.loc 1 214 28 discriminator 1
	srli	a5,a5,31
	andi	a5,a5,1
	andi	a5,a5,0xff
	beq	a5,zero,.L16
.L15:
	.loc 1 215 26
	lw	a5,-20(s0)
	lw	a4,0(a5)
	.loc 1 215 23
	lw	a5,-24(s0)
	sw	a4,0(a5)
	.loc 1 216 17
	lw	a5,-20(s0)
	lw	a4,-24(s0)
	sw	a4,0(a5)
	.loc 1 217 9
	j	.L9
.L16:
	.loc 1 213 40 discriminator 2
	lw	a5,-20(s0)
	lw	a5,0(a5)
	sw	a5,-20(s0)
.L14:
	.loc 1 213 30 discriminator 1
	lw	a5,-20(s0)
	bne	a5,zero,.L17
	j	.L9
.L18:
	.loc 1 191 5
	nop
.L9:
	.loc 1 221 1
	lw	ra,44(sp)
	.cfi_restore 1
	lw	s0,40(sp)
	.cfi_restore 8
	.cfi_def_cfa 2, 48
	addi	sp,sp,48
	.cfi_def_cfa_offset 0
	jr	ra
	.cfi_endproc
.LFE7:
	.size	sys_timeout_abs, .-sys_timeout_abs
	.section	.text.lwip_cyclic_timer,"ax",@progbits
	.align	1
	.type	lwip_cyclic_timer, @function
lwip_cyclic_timer:
.LFB8:
	.loc 1 233 1
	.cfi_startproc
	addi	sp,sp,-48
	.cfi_def_cfa_offset 48
	sw	ra,44(sp)
	sw	s0,40(sp)
	.cfi_offset 1, -4
	.cfi_offset 8, -8
	addi	s0,sp,48
	.cfi_def_cfa 8, 0
	sw	a0,-36(s0)
	.loc 1 236 35
	lw	a5,-36(s0)
	sw	a5,-20(s0)
	.loc 1 241 9
	lw	a5,-20(s0)
	lw	a5,4(a5)
	.loc 1 241 3
	jalr	a5
.LVL0:
	.loc 1 243 9
	call	sys_now
	sw	a0,-24(s0)
	.loc 1 244 64
	lw	a5,-20(s0)
	lw	a4,0(a5)
	.loc 1 244 56
	lui	a5,%hi(current_timeout_due_time)
	lw	a5,%lo(current_timeout_due_time)(a5)
	.loc 1 244 21
	add	a5,a4,a5
	sw	a5,-28(s0)
	.loc 1 245 38
	lw	a4,-28(s0)
	lw	a5,-24(s0)
	sub	a5,a4,a5
	.loc 1 245 7
	srli	a5,a5,31
	andi	a5,a5,1
	andi	a5,a5,0xff
	.loc 1 245 6
	beq	a5,zero,.L20
	.loc 1 250 41
	lw	a5,-20(s0)
	lw	a4,0(a5)
	.loc 1 250 5
	lw	a5,-24(s0)
	add	a4,a4,a5
	lw	a2,-36(s0)
	lui	a5,%hi(lwip_cyclic_timer)
	addi	a1,a5,%lo(lwip_cyclic_timer)
	mv	a0,a4
	call	sys_timeout_abs
	.loc 1 261 1
	j	.L22
.L20:
	.loc 1 258 5
	lw	a2,-36(s0)
	lui	a5,%hi(lwip_cyclic_timer)
	addi	a1,a5,%lo(lwip_cyclic_timer)
	lw	a0,-28(s0)
	call	sys_timeout_abs
.L22:
	.loc 1 261 1
	nop
	lw	ra,44(sp)
	.cfi_restore 1
	lw	s0,40(sp)
	.cfi_restore 8
	.cfi_def_cfa 2, 48
	addi	sp,sp,48
	.cfi_def_cfa_offset 0
	jr	ra
	.cfi_endproc
.LFE8:
	.size	lwip_cyclic_timer, .-lwip_cyclic_timer
	.section	.text.sys_timeouts_init,"ax",@progbits
	.align	1
	.globl	sys_timeouts_init
	.type	sys_timeouts_init, @function
sys_timeouts_init:
.LFB9:
	.loc 1 265 1
	.cfi_startproc
	addi	sp,sp,-32
	.cfi_def_cfa_offset 32
	sw	ra,28(sp)
	sw	s0,24(sp)
	.cfi_offset 1, -4
	.cfi_offset 8, -8
	addi	s0,sp,32
	.cfi_def_cfa 8, 0
	.loc 1 268 10
	li	a5,1
	sw	a5,-20(s0)
	.loc 1 268 3
	j	.L24
.L25:
	.loc 1 271 38
	lui	a5,%hi(lwip_cyclic_timers)
	addi	a4,a5,%lo(lwip_cyclic_timers)
	lw	a5,-20(s0)
	slli	a5,a5,3
	add	a5,a4,a5
	lw	a3,0(a5)
	.loc 1 271 92
	lw	a5,-20(s0)
	slli	a4,a5,3
	lui	a5,%hi(lwip_cyclic_timers)
	addi	a5,a5,%lo(lwip_cyclic_timers)
	add	a5,a4,a5
	.loc 1 271 5
	mv	a2,a5
	lui	a5,%hi(lwip_cyclic_timer)
	addi	a1,a5,%lo(lwip_cyclic_timer)
	mv	a0,a3
	call	sys_timeout
	.loc 1 268 92 discriminator 3
	lw	a5,-20(s0)
	addi	a5,a5,1
	sw	a5,-20(s0)
.L24:
	.loc 1 268 27 discriminator 1
	lw	a4,-20(s0)
	li	a5,6
	bleu	a4,a5,.L25
	.loc 1 273 1
	nop
	nop
	lw	ra,28(sp)
	.cfi_restore 1
	lw	s0,24(sp)
	.cfi_restore 8
	.cfi_def_cfa 2, 32
	addi	sp,sp,32
	.cfi_def_cfa_offset 0
	jr	ra
	.cfi_endproc
.LFE9:
	.size	sys_timeouts_init, .-sys_timeouts_init
	.section	.text.sys_timeout,"ax",@progbits
	.align	1
	.globl	sys_timeout
	.type	sys_timeout, @function
sys_timeout:
.LFB10:
	.loc 1 292 1
	.cfi_startproc
	addi	sp,sp,-48
	.cfi_def_cfa_offset 48
	sw	ra,44(sp)
	sw	s0,40(sp)
	.cfi_offset 1, -4
	.cfi_offset 8, -8
	addi	s0,sp,48
	.cfi_def_cfa 8, 0
	sw	a0,-36(s0)
	sw	a1,-40(s0)
	sw	a2,-44(s0)
	.loc 1 299 31
	call	sys_now
	mv	a4,a0
	.loc 1 299 21 discriminator 1
	lw	a5,-36(s0)
	add	a5,a5,a4
	sw	a5,-20(s0)
	.loc 1 304 3
	lw	a2,-44(s0)
	lw	a1,-40(s0)
	lw	a0,-20(s0)
	call	sys_timeout_abs
	.loc 1 306 1
	nop
	lw	ra,44(sp)
	.cfi_restore 1
	lw	s0,40(sp)
	.cfi_restore 8
	.cfi_def_cfa 2, 48
	addi	sp,sp,48
	.cfi_def_cfa_offset 0
	jr	ra
	.cfi_endproc
.LFE10:
	.size	sys_timeout, .-sys_timeout
	.section	.text.sys_untimeout,"ax",@progbits
	.align	1
	.globl	sys_untimeout
	.type	sys_untimeout, @function
sys_untimeout:
.LFB11:
	.loc 1 318 1
	.cfi_startproc
	addi	sp,sp,-48
	.cfi_def_cfa_offset 48
	sw	ra,44(sp)
	sw	s0,40(sp)
	.cfi_offset 1, -4
	.cfi_offset 8, -8
	addi	s0,sp,48
	.cfi_def_cfa 8, 0
	sw	a0,-36(s0)
	sw	a1,-40(s0)
	.loc 1 323 20
	lui	a5,%hi(next_timeout)
	lw	a5,%lo(next_timeout)(a5)
	.loc 1 323 6
	beq	a5,zero,.L35
	.loc 1 327 10
	lui	a5,%hi(next_timeout)
	lw	a5,%lo(next_timeout)(a5)
	sw	a5,-24(s0)
	.loc 1 327 33
	sw	zero,-20(s0)
	.loc 1 327 3
	j	.L30
.L34:
	.loc 1 328 11
	lw	a5,-24(s0)
	lw	a5,8(a5)
	.loc 1 328 8
	lw	a4,-36(s0)
	bne	a4,a5,.L31
	.loc 1 328 32 discriminator 1
	lw	a5,-24(s0)
	lw	a5,12(a5)
	.loc 1 328 27 discriminator 1
	lw	a4,-40(s0)
	bne	a4,a5,.L31
	.loc 1 331 10
	lw	a5,-20(s0)
	bne	a5,zero,.L32
	.loc 1 332 25
	lw	a5,-24(s0)
	lw	a4,0(a5)
	.loc 1 332 22
	lui	a5,%hi(next_timeout)
	sw	a4,%lo(next_timeout)(a5)
	j	.L33
.L32:
	.loc 1 334 25
	lw	a5,-24(s0)
	lw	a4,0(a5)
	.loc 1 334 22
	lw	a5,-20(s0)
	sw	a4,0(a5)
.L33:
	.loc 1 336 7
	lw	a1,-24(s0)
	li	a0,11
	call	memp_free
	.loc 1 337 7
	j	.L27
.L31:
	.loc 1 327 58 discriminator 2
	lw	a5,-24(s0)
	sw	a5,-20(s0)
	.loc 1 327 65 discriminator 2
	lw	a5,-24(s0)
	lw	a5,0(a5)
	sw	a5,-24(s0)
.L30:
	.loc 1 327 42 discriminator 1
	lw	a5,-24(s0)
	bne	a5,zero,.L34
	.loc 1 340 3
	j	.L27
.L35:
	.loc 1 324 5
	nop
.L27:
	.loc 1 341 1
	lw	ra,44(sp)
	.cfi_restore 1
	lw	s0,40(sp)
	.cfi_restore 8
	.cfi_def_cfa 2, 48
	addi	sp,sp,48
	.cfi_def_cfa_offset 0
	jr	ra
	.cfi_endproc
.LFE11:
	.size	sys_untimeout, .-sys_untimeout
	.section	.text.sys_check_timeouts,"ax",@progbits
	.align	1
	.globl	sys_check_timeouts
	.type	sys_check_timeouts, @function
sys_check_timeouts:
.LFB12:
	.loc 1 353 1
	.cfi_startproc
	addi	sp,sp,-32
	.cfi_def_cfa_offset 32
	sw	ra,28(sp)
	sw	s0,24(sp)
	.cfi_offset 1, -4
	.cfi_offset 8, -8
	addi	s0,sp,32
	.cfi_def_cfa 8, 0
	.loc 1 359 9
	call	sys_now
	sw	a0,-20(s0)
.L41:
.LBB2:
	.loc 1 368 16
	lui	a5,%hi(next_timeout)
	lw	a5,%lo(next_timeout)(a5)
	sw	a5,-24(s0)
	.loc 1 369 8
	lw	a5,-24(s0)
	beq	a5,zero,.L42
	.loc 1 373 38
	lw	a5,-24(s0)
	lw	a5,4(a5)
	.loc 1 373 26
	lw	a4,-20(s0)
	sub	a5,a4,a5
	.loc 1 373 9
	srli	a5,a5,31
	andi	a5,a5,1
	andi	a5,a5,0xff
	.loc 1 373 8
	bne	a5,zero,.L43
	.loc 1 378 30
	lw	a5,-24(s0)
	lw	a4,0(a5)
	.loc 1 378 18
	lui	a5,%hi(next_timeout)
	sw	a4,%lo(next_timeout)(a5)
	.loc 1 379 13
	lw	a5,-24(s0)
	lw	a5,8(a5)
	sw	a5,-28(s0)
	.loc 1 380 9
	lw	a5,-24(s0)
	lw	a5,12(a5)
	sw	a5,-32(s0)
	.loc 1 381 42
	lw	a5,-24(s0)
	lw	a4,4(a5)
	.loc 1 381 30
	lui	a5,%hi(current_timeout_due_time)
	sw	a4,%lo(current_timeout_due_time)(a5)
	.loc 1 388 5
	lw	a1,-24(s0)
	li	a0,11
	call	memp_free
	.loc 1 389 8
	lw	a5,-28(s0)
	beq	a5,zero,.L41
	.loc 1 390 7
	lw	a5,-28(s0)
	lw	a0,-32(s0)
	jalr	a5
.LVL1:
.LBE2:
	.loc 1 361 6
	j	.L41
.L42:
.LBB3:
	.loc 1 370 7
	nop
	j	.L36
.L43:
	.loc 1 374 7
	nop
.L36:
.LBE3:
	.loc 1 396 1
	lw	ra,28(sp)
	.cfi_restore 1
	lw	s0,24(sp)
	.cfi_restore 8
	.cfi_def_cfa 2, 32
	addi	sp,sp,32
	.cfi_def_cfa_offset 0
	jr	ra
	.cfi_endproc
.LFE12:
	.size	sys_check_timeouts, .-sys_check_timeouts
	.section	.text.sys_restart_timeouts,"ax",@progbits
	.align	1
	.globl	sys_restart_timeouts
	.type	sys_restart_timeouts, @function
sys_restart_timeouts:
.LFB13:
	.loc 1 405 1
	.cfi_startproc
	addi	sp,sp,-32
	.cfi_def_cfa_offset 32
	sw	ra,28(sp)
	sw	s0,24(sp)
	.cfi_offset 1, -4
	.cfi_offset 8, -8
	addi	s0,sp,32
	.cfi_def_cfa 8, 0
	.loc 1 410 20
	lui	a5,%hi(next_timeout)
	lw	a5,%lo(next_timeout)(a5)
	.loc 1 410 6
	beq	a5,zero,.L49
	.loc 1 414 9
	call	sys_now
	sw	a0,-24(s0)
	.loc 1 415 22
	lui	a5,%hi(next_timeout)
	lw	a5,%lo(next_timeout)(a5)
	.loc 1 415 8
	lw	a5,4(a5)
	sw	a5,-28(s0)
	.loc 1 417 10
	lui	a5,%hi(next_timeout)
	lw	a5,%lo(next_timeout)(a5)
	sw	a5,-20(s0)
	.loc 1 417 3
	j	.L47
.L48:
	.loc 1 418 17
	lw	a5,-20(s0)
	lw	a4,4(a5)
	.loc 1 418 24
	lw	a5,-28(s0)
	sub	a4,a4,a5
	.loc 1 418 32
	lw	a5,-24(s0)
	add	a4,a4,a5
	.loc 1 418 13
	lw	a5,-20(s0)
	sw	a4,4(a5)
	.loc 1 417 38 discriminator 3
	lw	a5,-20(s0)
	lw	a5,0(a5)
	sw	a5,-20(s0)
.L47:
	.loc 1 417 28 discriminator 1
	lw	a5,-20(s0)
	bne	a5,zero,.L48
	j	.L44
.L49:
	.loc 1 411 5
	nop
.L44:
	.loc 1 420 1
	lw	ra,28(sp)
	.cfi_restore 1
	lw	s0,24(sp)
	.cfi_restore 8
	.cfi_def_cfa 2, 32
	addi	sp,sp,32
	.cfi_def_cfa_offset 0
	jr	ra
	.cfi_endproc
.LFE13:
	.size	sys_restart_timeouts, .-sys_restart_timeouts
	.section	.text.sys_timeouts_sleeptime,"ax",@progbits
	.align	1
	.globl	sys_timeouts_sleeptime
	.type	sys_timeouts_sleeptime, @function
sys_timeouts_sleeptime:
.LFB14:
	.loc 1 427 1
	.cfi_startproc
	addi	sp,sp,-32
	.cfi_def_cfa_offset 32
	sw	ra,28(sp)
	sw	s0,24(sp)
	.cfi_offset 1, -4
	.cfi_offset 8, -8
	addi	s0,sp,32
	.cfi_def_cfa 8, 0
	.loc 1 432 20
	lui	a5,%hi(next_timeout)
	lw	a5,%lo(next_timeout)(a5)
	.loc 1 432 6
	bne	a5,zero,.L51
	.loc 1 433 12
	li	a5,-1
	j	.L52
.L51:
	.loc 1 435 9
	call	sys_now
	sw	a0,-20(s0)
	.loc 1 436 32
	lui	a5,%hi(next_timeout)
	lw	a5,%lo(next_timeout)(a5)
	lw	a4,4(a5)
	.loc 1 436 39
	lw	a5,-20(s0)
	sub	a5,a4,a5
	.loc 1 436 7
	srli	a5,a5,31
	andi	a5,a5,1
	andi	a5,a5,0xff
	.loc 1 436 6
	beq	a5,zero,.L53
	.loc 1 437 12
	li	a5,0
	j	.L52
.L53:
.LBB4:
	.loc 1 439 37
	lui	a5,%hi(next_timeout)
	lw	a5,%lo(next_timeout)(a5)
	lw	a4,4(a5)
	.loc 1 439 11
	lw	a5,-20(s0)
	sub	a5,a4,a5
	sw	a5,-24(s0)
	.loc 1 441 12
	lw	a5,-24(s0)
.L52:
.LBE4:
	.loc 1 443 1
	mv	a0,a5
	lw	ra,28(sp)
	.cfi_restore 1
	lw	s0,24(sp)
	.cfi_restore 8
	.cfi_def_cfa 2, 32
	addi	sp,sp,32
	.cfi_def_cfa_offset 0
	jr	ra
	.cfi_endproc
.LFE14:
	.size	sys_timeouts_sleeptime, .-sys_timeouts_sleeptime
	.text
.Letext0:
	.file 2 "/home/chandu/sdk/bl602_iot_sdk/toolchain/compiler/lib/gcc/riscv32-unknown-elf/15.1.0/include/stddef.h"
	.file 3 "/home/chandu/sdk/bl602_iot_sdk/toolchain/compiler/lib/gcc/riscv32-unknown-elf/15.1.0/include/stdint-gcc.h"
	.file 4 "/home/chandu/sdk/bl602_iot_sdk/components/network/lwip/src/include/lwip/arch.h"
	.file 5 "/home/chandu/sdk/bl602_iot_sdk/components/network/lwip/src/include/lwip/err.h"
	.file 6 "/home/chandu/sdk/bl602_iot_sdk/components/network/lwip/src/include/lwip/timeouts.h"
	.file 7 "/home/chandu/sdk/bl602_iot_sdk/components/network/lwip/src/include/lwip/tcpbase.h"
	.file 8 "/home/chandu/sdk/bl602_iot_sdk/components/network/lwip/src/include/lwip/pbuf.h"
	.file 9 "/home/chandu/sdk/bl602_iot_sdk/components/network/lwip/src/include/lwip/ip4_addr.h"
	.file 10 "/home/chandu/sdk/bl602_iot_sdk/components/network/lwip/src/include/lwip/ip_addr.h"
	.file 11 "/home/chandu/sdk/bl602_iot_sdk/components/network/lwip/src/include/lwip/memp.h"
	.file 12 "/home/chandu/sdk/bl602_iot_sdk/components/network/lwip/src/include/lwip/netif.h"
	.file 13 "/home/chandu/sdk/bl602_iot_sdk/components/network/lwip/src/include/lwip/tcp.h"
	.file 14 "/home/chandu/sdk/bl602_iot_sdk/components/network/lwip/src/include/lwip/priv/tcp_priv.h"
	.file 15 "/home/chandu/sdk/bl602_iot_sdk/components/network/lwip/src/include/lwip/prot/tcp.h"
	.file 16 "/home/chandu/sdk/bl602_iot_sdk/components/network/lwip/src/include/lwip/dns.h"
	.file 17 "/home/chandu/sdk/bl602_iot_sdk/components/network/lwip/src/include/lwip/igmp.h"
	.file 18 "/home/chandu/sdk/bl602_iot_sdk/components/network/lwip/src/include/lwip/acd.h"
	.file 19 "/home/chandu/sdk/bl602_iot_sdk/components/network/lwip/src/include/lwip/dhcp.h"
	.file 20 "/home/chandu/sdk/bl602_iot_sdk/components/network/lwip/src/include/lwip/etharp.h"
	.file 21 "/home/chandu/sdk/bl602_iot_sdk/components/network/lwip/src/include/lwip/sys.h"
	.section	.note.GNU-stack,"",@progbits
