	.file	"acd.c"
	.option nopic
	.attribute arch, "rv32i2p1_m2p0_f2p2_c2p0_zicsr2p0_zmmul1p0_zca1p0_zcf1p0"
	.attribute unaligned_access, 0
	.attribute stack_align, 16
	.text
.Ltext0:
	.cfi_sections	.debug_frame
	.file 0 "/home/chandu/sdk/bl602_iot_sdk/customer_app/suas_app_pqkem_gateway/build_out/lwip" "/home/chandu/sdk/bl602_iot_sdk/components/network/lwip/src/core/ipv4/acd.c"
	.section	.text.acd_add,"ax",@progbits
	.align	1
	.globl	acd_add
	.type	acd_add, @function
acd_add:
.LFB5:
	.file 1 "/home/chandu/sdk/bl602_iot_sdk/components/network/lwip/src/core/ipv4/acd.c"
	.loc 1 120 1
	.cfi_startproc
	addi	sp,sp,-48
	.cfi_def_cfa_offset 48
	sw	ra,44(sp)
	sw	s0,40(sp)
	.cfi_offset 1, -4
	.cfi_offset 8, -8
	addi	s0,sp,48
	.cfi_def_cfa 8, 0
	sw	a0,-36(s0)
	sw	a1,-40(s0)
	sw	a2,-44(s0)
	.loc 1 126 30
	lw	a5,-40(s0)
	lw	a4,-44(s0)
	sw	a4,16(a5)
	.loc 1 129 13
	lw	a5,-36(s0)
	lw	a5,80(a5)
	sw	a5,-20(s0)
	.loc 1 129 3
	j	.L2
.L5:
	.loc 1 130 8
	lw	a4,-20(s0)
	lw	a5,-40(s0)
	bne	a4,a5,.L3
	.loc 1 133 14
	li	a5,0
	j	.L4
.L3:
	.loc 1 129 50 discriminator 2
	lw	a5,-20(s0)
	lw	a5,0(a5)
	sw	a5,-20(s0)
.L2:
	.loc 1 129 37 discriminator 1
	lw	a5,-20(s0)
	bne	a5,zero,.L5
	.loc 1 138 20
	lw	a5,-36(s0)
	lw	a4,80(a5)
	.loc 1 138 13
	lw	a5,-40(s0)
	sw	a4,0(a5)
	.loc 1 139 19
	lw	a5,-36(s0)
	lw	a4,-40(s0)
	sw	a4,80(a5)
	.loc 1 141 10
	li	a5,0
.L4:
	.loc 1 142 1
	mv	a0,a5
	lw	ra,44(sp)
	.cfi_restore 1
	lw	s0,40(sp)
	.cfi_restore 8
	.cfi_def_cfa 2, 48
	addi	sp,sp,48
	.cfi_def_cfa_offset 0
	jr	ra
	.cfi_endproc
.LFE5:
	.size	acd_add, .-acd_add
	.section	.text.acd_remove,"ax",@progbits
	.align	1
	.globl	acd_remove
	.type	acd_remove, @function
acd_remove:
.LFB6:
	.loc 1 153 1
	.cfi_startproc
	addi	sp,sp,-48
	.cfi_def_cfa_offset 48
	sw	ra,44(sp)
	sw	s0,40(sp)
	.cfi_offset 1, -4
	.cfi_offset 8, -8
	addi	s0,sp,48
	.cfi_def_cfa 8, 0
	sw	a0,-36(s0)
	sw	a1,-40(s0)
	.loc 1 154 22
	sw	zero,-24(s0)
	.loc 1 158 13
	lw	a5,-36(s0)
	lw	a5,80(a5)
	sw	a5,-20(s0)
	.loc 1 158 3
	j	.L7
.L12:
	.loc 1 159 8
	lw	a4,-20(s0)
	lw	a5,-40(s0)
	bne	a4,a5,.L8
	.loc 1 160 10
	lw	a5,-24(s0)
	beq	a5,zero,.L9
	.loc 1 161 25
	lw	a5,-40(s0)
	lw	a4,0(a5)
	.loc 1 161 20
	lw	a5,-24(s0)
	sw	a4,0(a5)
	.loc 1 165 7
	j	.L6
.L9:
	.loc 1 163 30
	lw	a5,-40(s0)
	lw	a4,0(a5)
	.loc 1 163 25
	lw	a5,-36(s0)
	sw	a4,80(a5)
	.loc 1 165 7
	j	.L6
.L8:
	.loc 1 167 10
	lw	a5,-20(s0)
	sw	a5,-24(s0)
	.loc 1 158 50 discriminator 2
	lw	a5,-20(s0)
	lw	a5,0(a5)
	sw	a5,-20(s0)
.L7:
	.loc 1 158 37 discriminator 1
	lw	a5,-20(s0)
	bne	a5,zero,.L12
.L6:
	.loc 1 170 1
	lw	ra,44(sp)
	.cfi_restore 1
	lw	s0,40(sp)
	.cfi_restore 8
	.cfi_def_cfa 2, 48
	addi	sp,sp,48
	.cfi_def_cfa_offset 0
	jr	ra
	.cfi_endproc
.LFE6:
	.size	acd_remove, .-acd_remove
	.section	.text.acd_start,"ax",@progbits
	.align	1
	.globl	acd_start
	.type	acd_start, @function
acd_start:
.LFB7:
	.loc 1 183 1
	.cfi_startproc
	addi	sp,sp,-48
	.cfi_def_cfa_offset 48
	sw	ra,44(sp)
	sw	s0,40(sp)
	.cfi_offset 1, -4
	.cfi_offset 8, -8
	addi	s0,sp,48
	.cfi_def_cfa 8, 0
	sw	a0,-36(s0)
	sw	a1,-40(s0)
	sw	a2,-44(s0)
	.loc 1 184 9
	sb	zero,-17(s0)
	.loc 1 193 17
	lw	a5,-40(s0)
	sb	zero,9(a5)
	.loc 1 194 21
	lw	a5,-40(s0)
	sb	zero,12(a5)
	.loc 1 195 33
	lw	a4,-44(s0)
	.loc 1 195 23
	lw	a5,-40(s0)
	sw	a4,4(a5)
	.loc 1 196 14
	lw	a5,-40(s0)
	li	a4,1
	sb	a4,8(a5)
	.loc 1 198 31
	call	bl_rand
	mv	a5,a0
	.loc 1 198 24 discriminator 1
	mv	a3,a5
	.loc 1 198 42 discriminator 1
	li	a5,-858992640
	addi	a5,a5,-819
	mulhu	a5,a3,a5
	srli	a4,a5,3
	mv	a5,a4
	slli	a5,a5,2
	add	a5,a5,a4
	slli	a5,a5,1
	sub	a4,a3,a5
	.loc 1 198 14 discriminator 1
	slli	a4,a4,16
	srli	a4,a4,16
	.loc 1 198 12 discriminator 1
	lw	a5,-40(s0)
	sh	a4,10(a5)
	.loc 1 200 10
	lb	a5,-17(s0)
	.loc 1 201 1
	mv	a0,a5
	lw	ra,44(sp)
	.cfi_restore 1
	lw	s0,40(sp)
	.cfi_restore 8
	.cfi_def_cfa 2, 48
	addi	sp,sp,48
	.cfi_def_cfa_offset 0
	jr	ra
	.cfi_endproc
.LFE7:
	.size	acd_start, .-acd_start
	.section	.text.acd_stop,"ax",@progbits
	.align	1
	.globl	acd_stop
	.type	acd_stop, @function
acd_stop:
.LFB8:
	.loc 1 211 1
	.cfi_startproc
	addi	sp,sp,-32
	.cfi_def_cfa_offset 32
	sw	ra,28(sp)
	sw	s0,24(sp)
	.cfi_offset 1, -4
	.cfi_offset 8, -8
	addi	s0,sp,32
	.cfi_def_cfa 8, 0
	sw	a0,-20(s0)
	.loc 1 214 6
	lw	a5,-20(s0)
	beq	a5,zero,.L16
	.loc 1 215 16
	lw	a5,-20(s0)
	sb	zero,8(a5)
.L16:
	.loc 1 217 10
	li	a5,0
	.loc 1 218 1
	mv	a0,a5
	lw	ra,28(sp)
	.cfi_restore 1
	lw	s0,24(sp)
	.cfi_restore 8
	.cfi_def_cfa 2, 32
	addi	sp,sp,32
	.cfi_def_cfa_offset 0
	jr	ra
	.cfi_endproc
.LFE8:
	.size	acd_stop, .-acd_stop
	.section	.text.acd_network_changed_link_down,"ax",@progbits
	.align	1
	.globl	acd_network_changed_link_down
	.type	acd_network_changed_link_down, @function
acd_network_changed_link_down:
.LFB9:
	.loc 1 228 1
	.cfi_startproc
	addi	sp,sp,-48
	.cfi_def_cfa_offset 48
	sw	ra,44(sp)
	sw	s0,40(sp)
	.cfi_offset 1, -4
	.cfi_offset 8, -8
	addi	s0,sp,48
	.cfi_def_cfa 8, 0
	sw	a0,-36(s0)
	.loc 1 231 14
	lw	a5,-36(s0)
	lw	a5,80(a5)
	sw	a5,-20(s0)
	.loc 1 231 3
	j	.L19
.L20:
	.loc 1 232 5
	lw	a0,-20(s0)
	call	acd_stop
	.loc 1 231 10 discriminator 3
	lw	a5,-20(s0)
	lw	a5,0(a5)
	sw	a5,-20(s0)
.L19:
	.loc 1 231 39 discriminator 1
	lw	a5,-20(s0)
	bne	a5,zero,.L20
	.loc 1 234 1
	nop
	nop
	lw	ra,44(sp)
	.cfi_restore 1
	lw	s0,40(sp)
	.cfi_restore 8
	.cfi_def_cfa 2, 48
	addi	sp,sp,48
	.cfi_def_cfa_offset 0
	jr	ra
	.cfi_endproc
.LFE9:
	.size	acd_network_changed_link_down, .-acd_network_changed_link_down
	.section	.text.acd_tmr,"ax",@progbits
	.align	1
	.globl	acd_tmr
	.type	acd_tmr, @function
acd_tmr:
.LFB10:
	.loc 1 241 1
	.cfi_startproc
	addi	sp,sp,-32
	.cfi_def_cfa_offset 32
	sw	ra,28(sp)
	sw	s0,24(sp)
	.cfi_offset 1, -4
	.cfi_offset 8, -8
	addi	s0,sp,32
	.cfi_def_cfa 8, 0
	.loc 1 245 16
	lui	a5,%hi(netif_list)
	lw	a5,%lo(netif_list)(a5)
	sw	a5,-20(s0)
	.loc 1 245 3
	j	.L22
.L38:
	.loc 1 246 16
	lw	a5,-20(s0)
	lw	a5,80(a5)
	sw	a5,-24(s0)
	.loc 1 246 5
	j	.L23
.L37:
	.loc 1 247 14
	lw	a5,-24(s0)
	lbu	a5,12(a5)
	.loc 1 247 10
	beq	a5,zero,.L24
	.loc 1 248 12
	lw	a5,-24(s0)
	lbu	a5,12(a5)
	.loc 1 248 26
	addi	a5,a5,-1
	andi	a4,a5,0xff
	lw	a5,-24(s0)
	sb	a4,12(a5)
.L24:
	.loc 1 255 14
	lw	a5,-24(s0)
	lhu	a5,10(a5)
	.loc 1 255 10
	beq	a5,zero,.L25
	.loc 1 256 12
	lw	a5,-24(s0)
	lhu	a5,10(a5)
	.loc 1 256 17
	addi	a5,a5,-1
	slli	a4,a5,16
	srli	a4,a4,16
	lw	a5,-24(s0)
	sh	a4,10(a5)
.L25:
	.loc 1 259 18
	lw	a5,-24(s0)
	lbu	a5,8(a5)
	.loc 1 259 7
	li	a4,7
	beq	a5,a4,.L26
	li	a4,7
	bgt	a5,a4,.L40
	li	a4,2
	bgt	a5,a4,.L28
	bgt	a5,zero,.L29
	.loc 1 332 11
	j	.L40
.L28:
	addi	a4,a5,-3
	.loc 1 259 7
	li	a5,1
	bgtu	a4,a5,.L40
	j	.L39
.L29:
	.loc 1 262 18
	lw	a5,-24(s0)
	lhu	a5,10(a5)
	.loc 1 262 14
	bne	a5,zero,.L41
	.loc 1 263 24
	lw	a5,-24(s0)
	li	a4,2
	sb	a4,8(a5)
	.loc 1 264 37
	lw	a5,-24(s0)
	addi	a5,a5,4
	.loc 1 264 13
	mv	a1,a5
	lw	a0,-20(s0)
	call	etharp_acd_probe
	.loc 1 267 16
	lw	a5,-24(s0)
	lbu	a5,9(a5)
	.loc 1 267 26
	addi	a5,a5,1
	andi	a4,a5,0xff
	lw	a5,-24(s0)
	sb	a4,9(a5)
	.loc 1 268 20
	lw	a5,-24(s0)
	lbu	a4,9(a5)
	.loc 1 268 16
	li	a5,2
	bleu	a4,a5,.L32
	.loc 1 270 26
	lw	a5,-24(s0)
	li	a4,3
	sb	a4,8(a5)
	.loc 1 272 29
	lw	a5,-24(s0)
	sb	zero,9(a5)
	.loc 1 275 24
	lw	a5,-24(s0)
	li	a4,20
	sh	a4,10(a5)
	.loc 1 281 11
	j	.L41
.L32:
	.loc 1 278 44
	call	bl_rand
	mv	a5,a0
	.loc 1 278 37 discriminator 1
	mv	a3,a5
	.loc 1 278 55 discriminator 1
	li	a5,-858992640
	addi	a5,a5,-819
	mulhu	a5,a3,a5
	srli	a4,a5,3
	mv	a5,a4
	slli	a5,a5,2
	add	a5,a5,a4
	slli	a5,a5,1
	sub	a4,a3,a5
	.loc 1 278 26 discriminator 1
	slli	a5,a4,16
	srli	a5,a5,16
	addi	a5,a5,10
	slli	a4,a5,16
	srli	a4,a4,16
	.loc 1 278 24 discriminator 1
	lw	a5,-24(s0)
	sh	a4,10(a5)
	.loc 1 281 11
	j	.L41
.L39:
	.loc 1 285 18
	lw	a5,-24(s0)
	lhu	a5,10(a5)
	.loc 1 285 14
	bne	a5,zero,.L42
	.loc 1 286 20
	lw	a5,-24(s0)
	lbu	a5,9(a5)
	.loc 1 286 16
	bne	a5,zero,.L35
	.loc 1 287 26
	lw	a5,-24(s0)
	li	a4,4
	sb	a4,8(a5)
	.loc 1 290 34
	lw	a5,-24(s0)
	sb	zero,13(a5)
.L35:
	.loc 1 298 40
	lw	a5,-24(s0)
	addi	a5,a5,4
	.loc 1 298 13
	mv	a1,a5
	lw	a0,-20(s0)
	call	etharp_acd_announce
	.loc 1 301 22
	lw	a5,-24(s0)
	li	a4,20
	sh	a4,10(a5)
	.loc 1 302 16
	lw	a5,-24(s0)
	lbu	a5,9(a5)
	.loc 1 302 26
	addi	a5,a5,1
	andi	a4,a5,0xff
	lw	a5,-24(s0)
	sb	a4,9(a5)
	.loc 1 304 20
	lw	a5,-24(s0)
	lbu	a4,9(a5)
	.loc 1 304 16
	li	a5,1
	bleu	a4,a5,.L42
	.loc 1 305 26
	lw	a5,-24(s0)
	li	a4,5
	sb	a4,8(a5)
	.loc 1 306 29
	lw	a5,-24(s0)
	sb	zero,9(a5)
	.loc 1 307 24
	lw	a5,-24(s0)
	sh	zero,10(a5)
	.loc 1 314 18
	lw	a5,-24(s0)
	lw	a5,16(a5)
	.loc 1 314 15
	li	a1,0
	lw	a0,-20(s0)
	jalr	a5
.LVL0:
	.loc 1 317 11
	j	.L42
.L26:
	.loc 1 320 18
	lw	a5,-24(s0)
	lhu	a5,10(a5)
	.loc 1 320 14
	bne	a5,zero,.L43
	.loc 1 322 13
	lw	a0,-24(s0)
	call	acd_stop
	.loc 1 326 16
	lw	a5,-24(s0)
	lw	a5,16(a5)
	.loc 1 326 13
	li	a1,1
	lw	a0,-20(s0)
	jalr	a5
.LVL1:
	.loc 1 328 11
	j	.L43
.L40:
	.loc 1 332 11
	nop
	j	.L33
.L41:
	.loc 1 281 11
	nop
	j	.L33
.L42:
	.loc 1 317 11
	nop
	j	.L33
.L43:
	.loc 1 328 11
	nop
.L33:
	.loc 1 246 12 discriminator 2
	lw	a5,-24(s0)
	lw	a5,0(a5)
	sw	a5,-24(s0)
.L23:
	.loc 1 246 41 discriminator 1
	lw	a5,-24(s0)
	bne	a5,zero,.L37
	.loc 1 245 12 discriminator 2
	lw	a5,-20(s0)
	lw	a5,0(a5)
	sw	a5,-20(s0)
.L22:
	.loc 1 245 38 discriminator 1
	lw	a5,-20(s0)
	bne	a5,zero,.L38
	.loc 1 336 1
	nop
	nop
	lw	ra,28(sp)
	.cfi_restore 1
	lw	s0,24(sp)
	.cfi_restore 8
	.cfi_def_cfa 2, 32
	addi	sp,sp,32
	.cfi_def_cfa_offset 0
	jr	ra
	.cfi_endproc
.LFE10:
	.size	acd_tmr, .-acd_tmr
	.section	.text.acd_restart,"ax",@progbits
	.align	1
	.type	acd_restart, @function
acd_restart:
.LFB11:
	.loc 1 345 1
	.cfi_startproc
	addi	sp,sp,-32
	.cfi_def_cfa_offset 32
	sw	ra,28(sp)
	sw	s0,24(sp)
	.cfi_offset 1, -4
	.cfi_offset 8, -8
	addi	s0,sp,32
	.cfi_def_cfa 8, 0
	sw	a0,-20(s0)
	sw	a1,-24(s0)
	.loc 1 347 6
	lw	a5,-24(s0)
	lbu	a5,13(a5)
	.loc 1 347 21
	addi	a5,a5,1
	andi	a4,a5,0xff
	lw	a5,-24(s0)
	sb	a4,13(a5)
	.loc 1 350 6
	lw	a5,-24(s0)
	lw	a5,16(a5)
	.loc 1 350 3
	li	a1,2
	lw	a0,-20(s0)
	jalr	a5
.LVL2:
	.loc 1 354 10
	lw	a5,-24(s0)
	lbu	a4,13(a5)
	.loc 1 354 6
	li	a5,9
	bleu	a4,a5,.L45
	.loc 1 355 16
	lw	a5,-24(s0)
	li	a4,7
	sb	a4,8(a5)
	.loc 1 356 14
	lw	a5,-24(s0)
	li	a4,600
	sh	a4,10(a5)
	.loc 1 367 1
	j	.L47
.L45:
	.loc 1 362 5
	lw	a0,-24(s0)
	call	acd_stop
	.loc 1 365 8
	lw	a5,-24(s0)
	lw	a5,16(a5)
	.loc 1 365 5
	li	a1,1
	lw	a0,-20(s0)
	jalr	a5
.LVL3:
.L47:
	.loc 1 367 1
	nop
	lw	ra,28(sp)
	.cfi_restore 1
	lw	s0,24(sp)
	.cfi_restore 8
	.cfi_def_cfa 2, 32
	addi	sp,sp,32
	.cfi_def_cfa_offset 0
	jr	ra
	.cfi_endproc
.LFE11:
	.size	acd_restart, .-acd_restart
	.section	.text.acd_arp_reply,"ax",@progbits
	.align	1
	.globl	acd_arp_reply
	.type	acd_arp_reply, @function
acd_arp_reply:
.LFB12:
	.loc 1 377 1
	.cfi_startproc
	addi	sp,sp,-64
	.cfi_def_cfa_offset 64
	sw	ra,60(sp)
	sw	s0,56(sp)
	.cfi_offset 1, -4
	.cfi_offset 8, -8
	addi	s0,sp,64
	.cfi_def_cfa 8, 0
	sw	a0,-52(s0)
	sw	a1,-56(s0)
	.loc 1 381 30
	lw	a5,-52(s0)
	addi	a4,a5,62
	.loc 1 381 3
	addi	a5,s0,-36
	li	a2,6
	mv	a1,a4
	mv	a0,a5
	call	memcpy
	.loc 1 387 19
	lw	a5,-56(s0)
	addi	a4,a5,14
	.loc 1 387 3
	addi	a5,s0,-24
	li	a2,4
	mv	a1,a4
	mv	a0,a5
	call	memcpy
	.loc 1 388 19
	lw	a5,-56(s0)
	addi	a4,a5,24
	.loc 1 388 3
	addi	a5,s0,-28
	li	a2,4
	mv	a1,a4
	mv	a0,a5
	call	memcpy
	.loc 1 393 14
	lw	a5,-52(s0)
	lw	a5,80(a5)
	sw	a5,-20(s0)
	.loc 1 393 3
	j	.L49
.L58:
	.loc 1 394 15
	lw	a5,-20(s0)
	lbu	a5,8(a5)
	.loc 1 394 5
	li	a4,3
	bgt	a5,a4,.L50
	bgt	a5,zero,.L51
	.loc 1 399 9
	j	.L54
.L50:
	addi	a4,a5,-4
	.loc 1 394 5
	li	a5,2
	bleu	a4,a5,.L53
	.loc 1 399 9
	j	.L54
.L51:
	.loc 1 410 25
	lw	a4,-24(s0)
	.loc 1 410 49
	lw	a5,-20(s0)
	lw	a5,4(a5)
	.loc 1 410 12
	beq	a4,a5,.L55
	.loc 1 411 24
	lw	a5,-24(s0)
	.loc 1 410 58 discriminator 1
	bne	a5,zero,.L59
	.loc 1 412 25
	lw	a4,-28(s0)
	.loc 1 412 49
	lw	a5,-20(s0)
	lw	a5,4(a5)
	.loc 1 411 56
	bne	a4,a5,.L59
	.loc 1 413 58
	lw	a5,-56(s0)
	addi	a4,a5,8
	.loc 1 413 16
	addi	a5,s0,-36
	li	a2,6
	mv	a1,a4
	mv	a0,a5
	call	memcmp
	mv	a5,a0
	.loc 1 412 57
	beq	a5,zero,.L59
.L55:
	.loc 1 416 11
	lw	a1,-20(s0)
	lw	a0,-52(s0)
	call	acd_restart
	.loc 1 418 9
	j	.L59
.L53:
	.loc 1 427 24
	lw	a4,-24(s0)
	.loc 1 427 48
	lw	a5,-20(s0)
	lw	a5,4(a5)
	.loc 1 427 12
	bne	a4,a5,.L60
	.loc 1 428 57
	lw	a5,-56(s0)
	addi	a4,a5,8
	.loc 1 428 15
	addi	a5,s0,-36
	li	a2,6
	mv	a1,a4
	mv	a0,a5
	call	memcmp
	mv	a5,a0
	.loc 1 427 56 discriminator 1
	beq	a5,zero,.L60
	.loc 1 431 11
	lw	a1,-20(s0)
	lw	a0,-52(s0)
	call	acd_handle_arp_conflict
	.loc 1 433 9
	j	.L60
.L59:
	.loc 1 418 9
	nop
	j	.L54
.L60:
	.loc 1 433 9
	nop
.L54:
	.loc 1 393 10 discriminator 2
	lw	a5,-20(s0)
	lw	a5,0(a5)
	sw	a5,-20(s0)
.L49:
	.loc 1 393 39 discriminator 1
	lw	a5,-20(s0)
	bne	a5,zero,.L58
	.loc 1 436 1
	nop
	nop
	lw	ra,60(sp)
	.cfi_restore 1
	lw	s0,56(sp)
	.cfi_restore 8
	.cfi_def_cfa 2, 64
	addi	sp,sp,64
	.cfi_def_cfa_offset 0
	jr	ra
	.cfi_endproc
.LFE12:
	.size	acd_arp_reply, .-acd_arp_reply
	.section	.text.acd_handle_arp_conflict,"ax",@progbits
	.align	1
	.type	acd_handle_arp_conflict, @function
acd_handle_arp_conflict:
.LFB13:
	.loc 1 443 1
	.cfi_startproc
	addi	sp,sp,-32
	.cfi_def_cfa_offset 32
	sw	ra,28(sp)
	sw	s0,24(sp)
	.cfi_offset 1, -4
	.cfi_offset 8, -8
	addi	s0,sp,32
	.cfi_def_cfa 8, 0
	sw	a0,-20(s0)
	sw	a1,-24(s0)
	.loc 1 461 10
	lw	a5,-24(s0)
	lbu	a4,8(a5)
	.loc 1 461 6
	li	a5,6
	bne	a4,a5,.L62
	.loc 1 465 5
	lw	a0,-24(s0)
	call	acd_stop
	.loc 1 466 8
	lw	a5,-24(s0)
	lw	a5,16(a5)
	.loc 1 466 5
	li	a1,2
	lw	a0,-20(s0)
	jalr	a5
.LVL4:
	.loc 1 484 1
	j	.L65
.L62:
	.loc 1 469 12
	lw	a5,-24(s0)
	lbu	a5,12(a5)
	.loc 1 469 8
	beq	a5,zero,.L64
	.loc 1 476 8
	lw	a1,-24(s0)
	lw	a0,-20(s0)
	call	acd_restart
	.loc 1 484 1
	j	.L65
.L64:
	.loc 1 480 34
	lw	a5,-24(s0)
	addi	a5,a5,4
	.loc 1 480 7
	mv	a1,a5
	lw	a0,-20(s0)
	call	etharp_acd_announce
	.loc 1 481 25
	lw	a5,-24(s0)
	li	a4,100
	sb	a4,12(a5)
.L65:
	.loc 1 484 1
	nop
	lw	ra,28(sp)
	.cfi_restore 1
	lw	s0,24(sp)
	.cfi_restore 8
	.cfi_def_cfa 2, 32
	addi	sp,sp,32
	.cfi_def_cfa_offset 0
	jr	ra
	.cfi_endproc
.LFE13:
	.size	acd_handle_arp_conflict, .-acd_handle_arp_conflict
	.section	.text.acd_put_in_passive_mode,"ax",@progbits
	.align	1
	.type	acd_put_in_passive_mode, @function
acd_put_in_passive_mode:
.LFB14:
	.loc 1 491 1
	.cfi_startproc
	addi	sp,sp,-32
	.cfi_def_cfa_offset 32
	sw	ra,28(sp)
	sw	s0,24(sp)
	.cfi_offset 1, -4
	.cfi_offset 8, -8
	addi	s0,sp,32
	.cfi_def_cfa 8, 0
	sw	a0,-20(s0)
	sw	a1,-24(s0)
	.loc 1 492 13
	lw	a5,-24(s0)
	lbu	a5,8(a5)
	.loc 1 492 3
	li	a4,7
	beq	a5,a4,.L67
	li	a4,7
	bgt	a5,a4,.L72
	li	a4,3
	bgt	a5,a4,.L69
	bgt	a5,zero,.L67
	.loc 1 497 7
	j	.L72
.L69:
	addi	a4,a5,-4
	.loc 1 492 3
	li	a5,1
	bleu	a4,a5,.L70
	.loc 1 497 7
	j	.L72
.L67:
	.loc 1 503 7
	lw	a0,-24(s0)
	call	acd_stop
	.loc 1 504 10
	lw	a5,-24(s0)
	lw	a5,16(a5)
	.loc 1 504 7
	li	a1,2
	lw	a0,-20(s0)
	jalr	a5
.LVL5:
	.loc 1 505 7
	j	.L71
.L70:
	.loc 1 509 18
	lw	a5,-24(s0)
	li	a4,6
	sb	a4,8(a5)
	.loc 1 512 7
	j	.L71
.L72:
	.loc 1 497 7
	nop
.L71:
	.loc 1 514 1
	nop
	lw	ra,28(sp)
	.cfi_restore 1
	lw	s0,24(sp)
	.cfi_restore 8
	.cfi_def_cfa 2, 32
	addi	sp,sp,32
	.cfi_def_cfa_offset 0
	jr	ra
	.cfi_endproc
.LFE14:
	.size	acd_put_in_passive_mode, .-acd_put_in_passive_mode
	.section	.text.acd_netif_ip_addr_changed,"ax",@progbits
	.align	1
	.globl	acd_netif_ip_addr_changed
	.type	acd_netif_ip_addr_changed, @function
acd_netif_ip_addr_changed:
.LFB15:
	.loc 1 527 1
	.cfi_startproc
	addi	sp,sp,-48
	.cfi_def_cfa_offset 48
	sw	ra,44(sp)
	sw	s0,40(sp)
	.cfi_offset 1, -4
	.cfi_offset 8, -8
	addi	s0,sp,48
	.cfi_def_cfa 8, 0
	sw	a0,-36(s0)
	sw	a1,-40(s0)
	sw	a2,-44(s0)
	.loc 1 539 6
	lw	a5,-40(s0)
	beq	a5,zero,.L80
	.loc 1 539 23 discriminator 1
	lw	a5,-40(s0)
	lw	a5,0(a5)
	.loc 1 539 6 discriminator 1
	beq	a5,zero,.L80
	.loc 1 539 56 discriminator 2
	lw	a5,-44(s0)
	beq	a5,zero,.L80
	.loc 1 539 50 discriminator 3
	lw	a5,-44(s0)
	lw	a5,0(a5)
	.loc 1 539 33 discriminator 3
	beq	a5,zero,.L80
	.loc 1 543 14
	lw	a5,-36(s0)
	lw	a5,80(a5)
	sw	a5,-20(s0)
	.loc 1 543 3
	j	.L77
.L79:
	.loc 1 545 23
	lw	a5,-20(s0)
	lw	a4,4(a5)
	.loc 1 545 45
	lw	a5,-40(s0)
	lw	a5,0(a5)
	.loc 1 545 7
	bne	a4,a5,.L78
	.loc 1 547 23
	lw	a5,-40(s0)
	lw	a5,0(a5)
	.loc 1 547 30
	slli	a4,a5,16
	srli	a4,a4,16
	.loc 1 547 10
	li	a5,65536
	addi	a5,a5,-343
	bne	a4,a5,.L78
	.loc 1 547 441 discriminator 1
	lw	a5,-44(s0)
	lw	a5,0(a5)
	.loc 1 547 448 discriminator 1
	slli	a4,a5,16
	srli	a4,a4,16
	.loc 1 547 425 discriminator 1
	li	a5,65536
	addi	a5,a5,-343
	beq	a4,a5,.L78
	.loc 1 551 9
	lw	a1,-20(s0)
	lw	a0,-36(s0)
	call	acd_put_in_passive_mode
.L78:
	.loc 1 543 10 discriminator 2
	lw	a5,-20(s0)
	lw	a5,0(a5)
	sw	a5,-20(s0)
.L77:
	.loc 1 543 39 discriminator 1
	lw	a5,-20(s0)
	bne	a5,zero,.L79
	j	.L73
.L80:
	.loc 1 540 5
	nop
.L73:
	.loc 1 555 1
	lw	ra,44(sp)
	.cfi_restore 1
	lw	s0,40(sp)
	.cfi_restore 8
	.cfi_def_cfa 2, 48
	addi	sp,sp,48
	.cfi_def_cfa_offset 0
	jr	ra
	.cfi_endproc
.LFE15:
	.size	acd_netif_ip_addr_changed, .-acd_netif_ip_addr_changed
	.text
.Letext0:
	.file 2 "/home/chandu/sdk/bl602_iot_sdk/toolchain/compiler/lib/gcc/riscv32-unknown-elf/15.1.0/include/stddef.h"
	.file 3 "/home/chandu/sdk/bl602_iot_sdk/toolchain/compiler/lib/gcc/riscv32-unknown-elf/15.1.0/include/stdint-gcc.h"
	.file 4 "/home/chandu/sdk/bl602_iot_sdk/components/network/lwip/src/include/lwip/arch.h"
	.file 5 "/home/chandu/sdk/bl602_iot_sdk/components/network/lwip/src/include/lwip/err.h"
	.file 6 "/home/chandu/sdk/bl602_iot_sdk/components/network/lwip/src/include/lwip/ip4_addr.h"
	.file 7 "/home/chandu/sdk/bl602_iot_sdk/components/network/lwip/src/include/lwip/ip_addr.h"
	.file 8 "/home/chandu/sdk/bl602_iot_sdk/components/network/lwip/src/include/lwip/pbuf.h"
	.file 9 "/home/chandu/sdk/bl602_iot_sdk/components/network/lwip/src/include/lwip/netif.h"
	.file 10 "/home/chandu/sdk/bl602_iot_sdk/components/network/lwip/src/include/lwip/acd.h"
	.file 11 "/home/chandu/sdk/bl602_iot_sdk/components/network/lwip/src/include/lwip/prot/ethernet.h"
	.file 12 "/home/chandu/sdk/bl602_iot_sdk/components/network/lwip/src/include/lwip/prot/etharp.h"
	.file 13 "/home/chandu/sdk/bl602_iot_sdk/components/network/lwip/src/include/lwip/prot/acd.h"
	.file 14 "/home/chandu/sdk/bl602_iot_sdk/toolchain/compiler/riscv32-unknown-elf/include/string.h"
	.file 15 "/home/chandu/sdk/bl602_iot_sdk/components/network/lwip/src/include/lwip/etharp.h"
	.file 16 "/home/chandu/sdk/bl602_iot_sdk/components/network/lwip/lwip-port/config/lwipopts.h"
	.section	.note.GNU-stack,"",@progbits
