	.file	"etharp.c"
	.option nopic
	.attribute arch, "rv32i2p1_m2p0_f2p2_c2p0_zicsr2p0_zmmul1p0_zca1p0_zcf1p0"
	.attribute unaligned_access, 0
	.attribute stack_align, 16
	.text
.Ltext0:
	.cfi_sections	.debug_frame
	.file 0 "/home/chandu/sdk/bl602_iot_sdk/customer_app/suas_app_pqkem_gateway/build_out/lwip" "/home/chandu/sdk/bl602_iot_sdk/components/network/lwip/src/core/ipv4/etharp.c"
	.section	.bss.arp_table,"aw",@nobits
	.align	2
	.type	arp_table, @object
	.size	arp_table, 240
arp_table:
	.zero	240
	.section	.sbss.etharp_cached_entry,"aw",@nobits
	.type	etharp_cached_entry, @object
	.size	etharp_cached_entry, 1
etharp_cached_entry:
	.zero	1
	.section	.text.etharp_free_entry,"ax",@progbits
	.align	1
	.type	etharp_free_entry, @function
etharp_free_entry:
.LFB5:
	.file 1 "/home/chandu/sdk/bl602_iot_sdk/components/network/lwip/src/core/ipv4/etharp.c"
	.loc 1 170 1
	.cfi_startproc
	addi	sp,sp,-32
	.cfi_def_cfa_offset 32
	sw	ra,28(sp)
	sw	s0,24(sp)
	.cfi_offset 1, -4
	.cfi_offset 8, -8
	addi	s0,sp,32
	.cfi_def_cfa 8, 0
	sw	a0,-20(s0)
	.loc 1 174 19
	lui	a5,%hi(arp_table)
	addi	a3,a5,%lo(arp_table)
	lw	a4,-20(s0)
	mv	a5,a4
	slli	a5,a5,1
	add	a5,a5,a4
	slli	a5,a5,3
	add	a5,a3,a5
	lw	a5,0(a5)
	.loc 1 174 6
	beq	a5,zero,.L2
	.loc 1 177 5
	lui	a5,%hi(arp_table)
	addi	a3,a5,%lo(arp_table)
	lw	a4,-20(s0)
	mv	a5,a4
	slli	a5,a5,1
	add	a5,a5,a4
	slli	a5,a5,3
	add	a5,a3,a5
	lw	a5,0(a5)
	mv	a0,a5
	call	pbuf_free
	.loc 1 178 20
	lui	a5,%hi(arp_table)
	addi	a3,a5,%lo(arp_table)
	lw	a4,-20(s0)
	mv	a5,a4
	slli	a5,a5,1
	add	a5,a5,a4
	slli	a5,a5,3
	add	a5,a3,a5
	sw	zero,0(a5)
.L2:
	.loc 1 181 22
	lui	a5,%hi(arp_table)
	addi	a3,a5,%lo(arp_table)
	lw	a4,-20(s0)
	mv	a5,a4
	slli	a5,a5,1
	add	a5,a5,a4
	slli	a5,a5,3
	add	a5,a3,a5
	sb	zero,20(a5)
	.loc 1 189 1
	nop
	lw	ra,28(sp)
	.cfi_restore 1
	lw	s0,24(sp)
	.cfi_restore 8
	.cfi_def_cfa 2, 32
	addi	sp,sp,32
	.cfi_def_cfa_offset 0
	jr	ra
	.cfi_endproc
.LFE5:
	.size	etharp_free_entry, .-etharp_free_entry
	.section	.text.etharp_tmr,"ax",@progbits
	.align	1
	.globl	etharp_tmr
	.type	etharp_tmr, @function
etharp_tmr:
.LFB6:
	.loc 1 199 1
	.cfi_startproc
	addi	sp,sp,-32
	.cfi_def_cfa_offset 32
	sw	ra,28(sp)
	sw	s0,24(sp)
	.cfi_offset 1, -4
	.cfi_offset 8, -8
	addi	s0,sp,32
	.cfi_def_cfa 8, 0
	.loc 1 204 10
	sw	zero,-20(s0)
	.loc 1 204 3
	j	.L4
.L10:
.LBB2:
	.loc 1 205 10
	lui	a5,%hi(arp_table)
	addi	a3,a5,%lo(arp_table)
	lw	a4,-20(s0)
	mv	a5,a4
	slli	a5,a5,1
	add	a5,a5,a4
	slli	a5,a5,3
	add	a5,a3,a5
	lbu	a5,20(a5)
	sb	a5,-21(s0)
	.loc 1 206 8
	lbu	a5,-21(s0)
	beq	a5,zero,.L5
	.loc 1 211 19
	lui	a5,%hi(arp_table)
	addi	a3,a5,%lo(arp_table)
	lw	a4,-20(s0)
	mv	a5,a4
	slli	a5,a5,1
	add	a5,a5,a4
	slli	a5,a5,3
	add	a5,a3,a5
	lhu	a5,18(a5)
	.loc 1 211 25
	addi	a5,a5,1
	slli	a3,a5,16
	srli	a3,a3,16
	lui	a5,%hi(arp_table)
	addi	a2,a5,%lo(arp_table)
	lw	a4,-20(s0)
	mv	a5,a4
	slli	a5,a5,1
	add	a5,a5,a4
	slli	a5,a5,3
	add	a5,a2,a5
	sh	a3,18(a5)
	.loc 1 212 24
	lui	a5,%hi(arp_table)
	addi	a3,a5,%lo(arp_table)
	lw	a4,-20(s0)
	mv	a5,a4
	slli	a5,a5,1
	add	a5,a5,a4
	slli	a5,a5,3
	add	a5,a3,a5
	lhu	a4,18(a5)
	.loc 1 212 10
	li	a5,299
	bgtu	a4,a5,.L6
	.loc 1 213 25
	lui	a5,%hi(arp_table)
	addi	a3,a5,%lo(arp_table)
	lw	a4,-20(s0)
	mv	a5,a4
	slli	a5,a5,1
	add	a5,a5,a4
	slli	a5,a5,3
	add	a5,a3,a5
	lbu	a4,20(a5)
	.loc 1 212 39 discriminator 1
	li	a5,1
	bne	a4,a5,.L7
	.loc 1 214 25
	lui	a5,%hi(arp_table)
	addi	a3,a5,%lo(arp_table)
	lw	a4,-20(s0)
	mv	a5,a4
	slli	a5,a5,1
	add	a5,a5,a4
	slli	a5,a5,3
	add	a5,a3,a5
	lhu	a4,18(a5)
	.loc 1 213 57
	li	a5,4
	bleu	a4,a5,.L7
.L6:
	.loc 1 219 9
	lw	a0,-20(s0)
	call	etharp_free_entry
	j	.L5
.L7:
	.loc 1 220 30
	lui	a5,%hi(arp_table)
	addi	a3,a5,%lo(arp_table)
	lw	a4,-20(s0)
	mv	a5,a4
	slli	a5,a5,1
	add	a5,a5,a4
	slli	a5,a5,3
	add	a5,a3,a5
	lbu	a4,20(a5)
	.loc 1 220 17
	li	a5,3
	bne	a4,a5,.L8
	.loc 1 222 28
	lui	a5,%hi(arp_table)
	addi	a3,a5,%lo(arp_table)
	lw	a4,-20(s0)
	mv	a5,a4
	slli	a5,a5,1
	add	a5,a5,a4
	slli	a5,a5,3
	add	a5,a3,a5
	li	a4,4
	sb	a4,20(a5)
	j	.L5
.L8:
	.loc 1 223 30
	lui	a5,%hi(arp_table)
	addi	a3,a5,%lo(arp_table)
	lw	a4,-20(s0)
	mv	a5,a4
	slli	a5,a5,1
	add	a5,a5,a4
	slli	a5,a5,3
	add	a5,a3,a5
	lbu	a4,20(a5)
	.loc 1 223 17
	li	a5,4
	bne	a4,a5,.L9
	.loc 1 226 28
	lui	a5,%hi(arp_table)
	addi	a3,a5,%lo(arp_table)
	lw	a4,-20(s0)
	mv	a5,a4
	slli	a5,a5,1
	add	a5,a5,a4
	slli	a5,a5,3
	add	a5,a3,a5
	li	a4,2
	sb	a4,20(a5)
	j	.L5
.L9:
	.loc 1 227 30
	lui	a5,%hi(arp_table)
	addi	a3,a5,%lo(arp_table)
	lw	a4,-20(s0)
	mv	a5,a4
	slli	a5,a5,1
	add	a5,a5,a4
	slli	a5,a5,3
	add	a5,a3,a5
	lbu	a4,20(a5)
	.loc 1 227 17
	li	a5,1
	bne	a4,a5,.L5
	.loc 1 229 9
	lui	a5,%hi(arp_table)
	addi	a3,a5,%lo(arp_table)
	lw	a4,-20(s0)
	mv	a5,a4
	slli	a5,a5,1
	add	a5,a5,a4
	slli	a5,a5,3
	add	a5,a3,a5
	lw	a3,8(a5)
	.loc 1 229 44
	lw	a4,-20(s0)
	mv	a5,a4
	slli	a5,a5,1
	add	a5,a5,a4
	slli	a5,a5,3
	lui	a4,%hi(arp_table)
	addi	a4,a4,%lo(arp_table)
	add	a5,a5,a4
	addi	a5,a5,4
	.loc 1 229 9
	mv	a1,a5
	mv	a0,a3
	call	etharp_request
.L5:
.LBE2:
	.loc 1 204 23 discriminator 2
	lw	a5,-20(s0)
	addi	a5,a5,1
	sw	a5,-20(s0)
.L4:
	.loc 1 204 17 discriminator 1
	lw	a4,-20(s0)
	li	a5,9
	ble	a4,a5,.L10
	.loc 1 233 1
	nop
	nop
	lw	ra,28(sp)
	.cfi_restore 1
	lw	s0,24(sp)
	.cfi_restore 8
	.cfi_def_cfa 2, 32
	addi	sp,sp,32
	.cfi_def_cfa_offset 0
	jr	ra
	.cfi_endproc
.LFE6:
	.size	etharp_tmr, .-etharp_tmr
	.section	.text.etharp_find_entry,"ax",@progbits
	.align	1
	.type	etharp_find_entry, @function
etharp_find_entry:
.LFB7:
	.loc 1 258 1
	.cfi_startproc
	addi	sp,sp,-64
	.cfi_def_cfa_offset 64
	sw	ra,60(sp)
	sw	s0,56(sp)
	.cfi_offset 1, -4
	.cfi_offset 8, -8
	addi	s0,sp,64
	.cfi_def_cfa 8, 0
	sw	a0,-52(s0)
	mv	a5,a1
	sw	a2,-60(s0)
	sb	a5,-53(s0)
	.loc 1 259 9
	li	a5,10
	sh	a5,-18(s0)
	.loc 1 259 27
	li	a5,10
	sh	a5,-20(s0)
	.loc 1 260 9
	li	a5,10
	sh	a5,-22(s0)
	.loc 1 261 9
	sh	zero,-24(s0)
	.loc 1 263 9
	li	a5,10
	sh	a5,-26(s0)
	.loc 1 265 9
	sh	zero,-28(s0)
	.loc 1 265 24
	sh	zero,-30(s0)
	.loc 1 265 41
	sh	zero,-32(s0)
	.loc 1 284 10
	sh	zero,-24(s0)
	.loc 1 284 3
	j	.L12
.L20:
.LBB3:
	.loc 1 285 30
	lh	a4,-24(s0)
	.loc 1 285 10
	lui	a5,%hi(arp_table)
	addi	a3,a5,%lo(arp_table)
	mv	a5,a4
	slli	a5,a5,1
	add	a5,a5,a4
	slli	a5,a5,3
	add	a5,a3,a5
	lbu	a5,20(a5)
	sb	a5,-33(s0)
	.loc 1 287 8
	lh	a4,-22(s0)
	li	a5,10
	bne	a4,a5,.L13
	.loc 1 287 23 discriminator 1
	lbu	a5,-33(s0)
	bne	a5,zero,.L13
	.loc 1 290 13
	lhu	a5,-24(s0)
	sh	a5,-22(s0)
	j	.L14
.L13:
	.loc 1 291 15
	lbu	a5,-33(s0)
	beq	a5,zero,.L14
	.loc 1 295 10
	lw	a5,-52(s0)
	beq	a5,zero,.L15
	.loc 1 295 30 discriminator 1
	lw	a5,-52(s0)
	lw	a3,0(a5)
	.loc 1 295 62 discriminator 1
	lh	a4,-24(s0)
	lui	a5,%hi(arp_table)
	addi	a2,a5,%lo(arp_table)
	mv	a5,a4
	slli	a5,a5,1
	add	a5,a5,a4
	slli	a5,a5,3
	add	a5,a2,a5
	lw	a5,4(a5)
	.loc 1 295 18 discriminator 1
	bne	a3,a5,.L15
	.loc 1 297 11
	lw	a5,-60(s0)
	beq	a5,zero,.L16
	.loc 1 297 55 discriminator 1
	lh	a4,-24(s0)
	lui	a5,%hi(arp_table)
	addi	a3,a5,%lo(arp_table)
	mv	a5,a4
	slli	a5,a5,1
	add	a5,a5,a4
	slli	a5,a5,3
	add	a5,a3,a5
	lw	a5,8(a5)
	.loc 1 297 30 discriminator 1
	lw	a4,-60(s0)
	bne	a4,a5,.L15
.L16:
	.loc 1 302 16
	lh	a5,-24(s0)
	j	.L17
.L15:
	.loc 1 305 10
	lbu	a4,-33(s0)
	li	a5,1
	bne	a4,a5,.L18
	.loc 1 307 25
	lh	a4,-24(s0)
	lui	a5,%hi(arp_table)
	addi	a3,a5,%lo(arp_table)
	mv	a5,a4
	slli	a5,a5,1
	add	a5,a5,a4
	slli	a5,a5,3
	add	a5,a3,a5
	lw	a5,0(a5)
	.loc 1 307 12
	beq	a5,zero,.L19
	.loc 1 308 27
	lh	a4,-24(s0)
	lui	a5,%hi(arp_table)
	addi	a3,a5,%lo(arp_table)
	mv	a5,a4
	slli	a5,a5,1
	add	a5,a5,a4
	slli	a5,a5,3
	add	a5,a3,a5
	lhu	a5,18(a5)
	.loc 1 308 14
	lhu	a4,-28(s0)
	bgtu	a4,a5,.L14
	.loc 1 309 23
	lhu	a5,-24(s0)
	sh	a5,-26(s0)
	.loc 1 310 37
	lh	a4,-24(s0)
	.loc 1 310 23
	lui	a5,%hi(arp_table)
	addi	a3,a5,%lo(arp_table)
	mv	a5,a4
	slli	a5,a5,1
	add	a5,a5,a4
	slli	a5,a5,3
	add	a5,a3,a5
	lhu	a5,18(a5)
	sh	a5,-28(s0)
	j	.L14
.L19:
	.loc 1 315 27
	lh	a4,-24(s0)
	lui	a5,%hi(arp_table)
	addi	a3,a5,%lo(arp_table)
	mv	a5,a4
	slli	a5,a5,1
	add	a5,a5,a4
	slli	a5,a5,3
	add	a5,a3,a5
	lhu	a5,18(a5)
	.loc 1 315 14
	lhu	a4,-30(s0)
	bgtu	a4,a5,.L14
	.loc 1 316 25
	lhu	a5,-24(s0)
	sh	a5,-18(s0)
	.loc 1 317 39
	lh	a4,-24(s0)
	.loc 1 317 25
	lui	a5,%hi(arp_table)
	addi	a3,a5,%lo(arp_table)
	mv	a5,a4
	slli	a5,a5,1
	add	a5,a5,a4
	slli	a5,a5,3
	add	a5,a3,a5
	lhu	a5,18(a5)
	sh	a5,-30(s0)
	j	.L14
.L18:
	.loc 1 321 17
	lbu	a4,-33(s0)
	li	a5,1
	bleu	a4,a5,.L14
	.loc 1 328 27
	lh	a4,-24(s0)
	lui	a5,%hi(arp_table)
	addi	a3,a5,%lo(arp_table)
	mv	a5,a4
	slli	a5,a5,1
	add	a5,a5,a4
	slli	a5,a5,3
	add	a5,a3,a5
	lhu	a5,18(a5)
	.loc 1 328 14
	lhu	a4,-32(s0)
	bgtu	a4,a5,.L14
	.loc 1 329 24
	lhu	a5,-24(s0)
	sh	a5,-20(s0)
	.loc 1 330 38
	lh	a4,-24(s0)
	.loc 1 330 24
	lui	a5,%hi(arp_table)
	addi	a3,a5,%lo(arp_table)
	mv	a5,a4
	slli	a5,a5,1
	add	a5,a5,a4
	slli	a5,a5,3
	add	a5,a3,a5
	lhu	a5,18(a5)
	sh	a5,-32(s0)
.L14:
.LBE3:
	.loc 1 284 23 discriminator 2
	lhu	a5,-24(s0)
	addi	a5,a5,1
	slli	a5,a5,16
	srli	a5,a5,16
	sh	a5,-24(s0)
.L12:
	.loc 1 284 17 discriminator 1
	lh	a4,-24(s0)
	li	a5,9
	ble	a4,a5,.L20
	.loc 1 339 15
	lbu	a5,-53(s0)
	andi	a5,a5,2
	.loc 1 339 6
	bne	a5,zero,.L21
	.loc 1 339 26 discriminator 1
	lh	a4,-22(s0)
	li	a5,10
	bne	a4,a5,.L22
	.loc 1 341 33
	lbu	a5,-53(s0)
	andi	a5,a5,1
	.loc 1 341 22
	bne	a5,zero,.L22
.L21:
	.loc 1 343 12
	li	a5,-1
	j	.L17
.L22:
	.loc 1 356 6
	lh	a4,-22(s0)
	li	a5,9
	bgt	a4,a5,.L23
	.loc 1 357 7
	lhu	a5,-22(s0)
	sh	a5,-24(s0)
	j	.L24
.L23:
	.loc 1 361 8
	lh	a4,-20(s0)
	li	a5,9
	bgt	a4,a5,.L25
	.loc 1 363 9
	lhu	a5,-20(s0)
	sh	a5,-24(s0)
	j	.L26
.L25:
	.loc 1 368 15
	lh	a4,-18(s0)
	li	a5,9
	bgt	a4,a5,.L27
	.loc 1 370 9
	lhu	a5,-18(s0)
	sh	a5,-24(s0)
	j	.L26
.L27:
	.loc 1 373 15
	lh	a4,-26(s0)
	li	a5,9
	bgt	a4,a5,.L28
	.loc 1 375 9
	lhu	a5,-26(s0)
	sh	a5,-24(s0)
	j	.L26
.L28:
	.loc 1 380 14
	li	a5,-1
	j	.L17
.L26:
	.loc 1 385 5
	lh	a5,-24(s0)
	mv	a0,a5
	call	etharp_free_entry
.L24:
	.loc 1 393 6
	lw	a5,-52(s0)
	beq	a5,zero,.L29
	.loc 1 395 27
	lh	a4,-24(s0)
	.loc 1 395 44
	lw	a5,-52(s0)
	lw	a3,0(a5)
	.loc 1 395 33
	lui	a5,%hi(arp_table)
	addi	a2,a5,%lo(arp_table)
	mv	a5,a4
	slli	a5,a5,1
	add	a5,a5,a4
	slli	a5,a5,3
	add	a5,a2,a5
	sw	a3,4(a5)
.L29:
	.loc 1 397 15
	lh	a4,-24(s0)
	.loc 1 397 22
	lui	a5,%hi(arp_table)
	addi	a3,a5,%lo(arp_table)
	mv	a5,a4
	slli	a5,a5,1
	add	a5,a5,a4
	slli	a5,a5,3
	add	a5,a3,a5
	sh	zero,18(a5)
	.loc 1 399 15
	lh	a4,-24(s0)
	.loc 1 399 22
	lui	a5,%hi(arp_table)
	addi	a3,a5,%lo(arp_table)
	mv	a5,a4
	slli	a5,a5,1
	add	a5,a5,a4
	slli	a5,a5,3
	add	a5,a3,a5
	lw	a4,-60(s0)
	sw	a4,8(a5)
	.loc 1 401 10
	lh	a5,-24(s0)
.L17:
	.loc 1 402 1
	mv	a0,a5
	lw	ra,60(sp)
	.cfi_restore 1
	lw	s0,56(sp)
	.cfi_restore 8
	.cfi_def_cfa 2, 64
	addi	sp,sp,64
	.cfi_def_cfa_offset 0
	jr	ra
	.cfi_endproc
.LFE7:
	.size	etharp_find_entry, .-etharp_find_entry
	.section	.text.etharp_update_arp_entry,"ax",@progbits
	.align	1
	.type	etharp_update_arp_entry, @function
etharp_update_arp_entry:
.LFB8:
	.loc 1 424 1
	.cfi_startproc
	addi	sp,sp,-48
	.cfi_def_cfa_offset 48
	sw	ra,44(sp)
	sw	s0,40(sp)
	.cfi_offset 1, -4
	.cfi_offset 8, -8
	addi	s0,sp,48
	.cfi_def_cfa 8, 0
	sw	a0,-36(s0)
	sw	a1,-40(s0)
	sw	a2,-44(s0)
	mv	a5,a3
	sb	a5,-45(s0)
	.loc 1 432 6
	lw	a5,-40(s0)
	beq	a5,zero,.L31
	.loc 1 432 21 discriminator 1
	lw	a5,-40(s0)
	lw	a5,0(a5)
	.loc 1 432 6 discriminator 1
	beq	a5,zero,.L31
	.loc 1 433 40
	lw	a5,-40(s0)
	lw	a5,0(a5)
	.loc 1 433 7
	lw	a1,-36(s0)
	mv	a0,a5
	call	ip4_addr_isbroadcast_u32
	mv	a5,a0
	.loc 1 432 54 discriminator 2
	bne	a5,zero,.L31
	.loc 1 434 17
	lw	a5,-40(s0)
	lw	a5,0(a5)
	.loc 1 434 24
	andi	a4,a5,240
	.loc 1 433 55
	li	a5,224
	bne	a4,a5,.L32
.L31:
	.loc 1 436 12
	li	a5,-16
	j	.L33
.L32:
	.loc 1 439 7
	lbu	a5,-45(s0)
	lw	a2,-36(s0)
	mv	a1,a5
	lw	a0,-40(s0)
	call	etharp_find_entry
	mv	a5,a0
	sh	a5,-18(s0)
	.loc 1 441 6
	lh	a5,-18(s0)
	bge	a5,zero,.L34
	.loc 1 442 12
	lhu	a5,-18(s0)
	slli	a5,a5,24
	srai	a5,a5,24
	j	.L33
.L34:
	.loc 1 456 17
	lh	a4,-18(s0)
	.loc 1 456 24
	lui	a5,%hi(arp_table)
	addi	a3,a5,%lo(arp_table)
	mv	a5,a4
	slli	a5,a5,1
	add	a5,a5,a4
	slli	a5,a5,3
	add	a5,a3,a5
	li	a4,2
	sb	a4,20(a5)
	.loc 1 460 15
	lh	a4,-18(s0)
	.loc 1 460 22
	lui	a5,%hi(arp_table)
	addi	a3,a5,%lo(arp_table)
	mv	a5,a4
	slli	a5,a5,1
	add	a5,a5,a4
	slli	a5,a5,3
	add	a5,a3,a5
	lw	a4,-36(s0)
	sw	a4,8(a5)
	.loc 1 466 23
	lh	a4,-18(s0)
	.loc 1 466 10
	mv	a5,a4
	slli	a5,a5,1
	add	a5,a5,a4
	slli	a5,a5,3
	lui	a4,%hi(arp_table)
	addi	a4,a4,%lo(arp_table)
	add	a5,a5,a4
	addi	a5,a5,12
	.loc 1 466 3
	li	a2,6
	lw	a1,-44(s0)
	mv	a0,a5
	call	memcpy
	.loc 1 468 15
	lh	a4,-18(s0)
	.loc 1 468 22
	lui	a5,%hi(arp_table)
	addi	a3,a5,%lo(arp_table)
	mv	a5,a4
	slli	a5,a5,1
	add	a5,a5,a4
	slli	a5,a5,3
	add	a5,a3,a5
	sh	zero,18(a5)
	.loc 1 482 19
	lh	a4,-18(s0)
	lui	a5,%hi(arp_table)
	addi	a3,a5,%lo(arp_table)
	mv	a5,a4
	slli	a5,a5,1
	add	a5,a5,a4
	slli	a5,a5,3
	add	a5,a3,a5
	lw	a5,0(a5)
	.loc 1 482 6
	beq	a5,zero,.L35
.LBB4:
	.loc 1 483 34
	lh	a4,-18(s0)
	.loc 1 483 18
	lui	a5,%hi(arp_table)
	addi	a3,a5,%lo(arp_table)
	mv	a5,a4
	slli	a5,a5,1
	add	a5,a5,a4
	slli	a5,a5,3
	add	a5,a3,a5
	lw	a5,0(a5)
	sw	a5,-24(s0)
	.loc 1 484 17
	lh	a4,-18(s0)
	.loc 1 484 20
	lui	a5,%hi(arp_table)
	addi	a3,a5,%lo(arp_table)
	mv	a5,a4
	slli	a5,a5,1
	add	a5,a5,a4
	slli	a5,a5,3
	add	a5,a3,a5
	sw	zero,0(a5)
	.loc 1 487 50
	lw	a5,-36(s0)
	addi	a2,a5,62
	.loc 1 487 5
	li	a5,4096
	addi	a4,a5,-2048
	lw	a3,-44(s0)
	lw	a1,-24(s0)
	lw	a0,-36(s0)
	call	ethernet_output
	.loc 1 489 5
	lw	a0,-24(s0)
	call	pbuf_free
.L35:
.LBE4:
	.loc 1 491 10
	li	a5,0
.L33:
	.loc 1 492 1
	mv	a0,a5
	lw	ra,44(sp)
	.cfi_restore 1
	lw	s0,40(sp)
	.cfi_restore 8
	.cfi_def_cfa 2, 48
	addi	sp,sp,48
	.cfi_def_cfa_offset 0
	jr	ra
	.cfi_endproc
.LFE8:
	.size	etharp_update_arp_entry, .-etharp_update_arp_entry
	.section	.text.etharp_cleanup_netif,"ax",@progbits
	.align	1
	.globl	etharp_cleanup_netif
	.type	etharp_cleanup_netif, @function
etharp_cleanup_netif:
.LFB9:
	.loc 1 561 1
	.cfi_startproc
	addi	sp,sp,-48
	.cfi_def_cfa_offset 48
	sw	ra,44(sp)
	sw	s0,40(sp)
	.cfi_offset 1, -4
	.cfi_offset 8, -8
	addi	s0,sp,48
	.cfi_def_cfa 8, 0
	sw	a0,-36(s0)
	.loc 1 564 10
	sw	zero,-20(s0)
	.loc 1 564 3
	j	.L37
.L39:
.LBB5:
	.loc 1 565 10
	lui	a5,%hi(arp_table)
	addi	a3,a5,%lo(arp_table)
	lw	a4,-20(s0)
	mv	a5,a4
	slli	a5,a5,1
	add	a5,a5,a4
	slli	a5,a5,3
	add	a5,a3,a5
	lbu	a5,20(a5)
	sb	a5,-21(s0)
	.loc 1 566 8
	lbu	a5,-21(s0)
	beq	a5,zero,.L38
	.loc 1 566 55 discriminator 1
	lui	a5,%hi(arp_table)
	addi	a3,a5,%lo(arp_table)
	lw	a4,-20(s0)
	mv	a5,a4
	slli	a5,a5,1
	add	a5,a5,a4
	slli	a5,a5,3
	add	a5,a3,a5
	lw	a5,8(a5)
	.loc 1 566 39 discriminator 1
	lw	a4,-36(s0)
	bne	a4,a5,.L38
	.loc 1 567 7
	lw	a0,-20(s0)
	call	etharp_free_entry
.L38:
.LBE5:
	.loc 1 564 23 discriminator 2
	lw	a5,-20(s0)
	addi	a5,a5,1
	sw	a5,-20(s0)
.L37:
	.loc 1 564 17 discriminator 1
	lw	a4,-20(s0)
	li	a5,9
	ble	a4,a5,.L39
	.loc 1 570 1
	nop
	nop
	lw	ra,44(sp)
	.cfi_restore 1
	lw	s0,40(sp)
	.cfi_restore 8
	.cfi_def_cfa 2, 48
	addi	sp,sp,48
	.cfi_def_cfa_offset 0
	jr	ra
	.cfi_endproc
.LFE9:
	.size	etharp_cleanup_netif, .-etharp_cleanup_netif
	.section	.text.etharp_find_addr,"ax",@progbits
	.align	1
	.globl	etharp_find_addr
	.type	etharp_find_addr, @function
etharp_find_addr:
.LFB10:
	.loc 1 586 1
	.cfi_startproc
	addi	sp,sp,-48
	.cfi_def_cfa_offset 48
	sw	ra,44(sp)
	sw	s0,40(sp)
	.cfi_offset 1, -4
	.cfi_offset 8, -8
	addi	s0,sp,48
	.cfi_def_cfa 8, 0
	sw	a0,-36(s0)
	sw	a1,-40(s0)
	sw	a2,-44(s0)
	sw	a3,-48(s0)
	.loc 1 594 7
	lw	a2,-36(s0)
	li	a1,2
	lw	a0,-40(s0)
	call	etharp_find_entry
	mv	a5,a0
	sh	a5,-18(s0)
	.loc 1 595 6
	lh	a5,-18(s0)
	blt	a5,zero,.L41
	.loc 1 595 32 discriminator 1
	lh	a4,-18(s0)
	lui	a5,%hi(arp_table)
	addi	a3,a5,%lo(arp_table)
	mv	a5,a4
	slli	a5,a5,1
	add	a5,a5,a4
	slli	a5,a5,3
	add	a5,a3,a5
	lbu	a4,20(a5)
	.loc 1 595 16 discriminator 1
	li	a5,1
	bleu	a4,a5,.L41
	.loc 1 596 29
	lh	a4,-18(s0)
	.loc 1 596 16
	mv	a5,a4
	slli	a5,a5,1
	add	a5,a5,a4
	slli	a5,a5,3
	lui	a4,%hi(arp_table)
	addi	a4,a4,%lo(arp_table)
	add	a5,a5,a4
	addi	a4,a5,12
	.loc 1 596 14
	lw	a5,-44(s0)
	sw	a4,0(a5)
	.loc 1 597 28
	lh	a4,-18(s0)
	.loc 1 597 15
	mv	a5,a4
	slli	a5,a5,1
	add	a5,a5,a4
	slli	a5,a5,3
	lui	a4,%hi(arp_table)
	addi	a4,a4,%lo(arp_table)
	add	a5,a5,a4
	addi	a4,a5,4
	.loc 1 597 13
	lw	a5,-48(s0)
	sw	a4,0(a5)
	.loc 1 598 12
	lh	a5,-18(s0)
	j	.L42
.L41:
	.loc 1 600 10
	li	a5,-1
.L42:
	.loc 1 601 1
	mv	a0,a5
	lw	ra,44(sp)
	.cfi_restore 1
	lw	s0,40(sp)
	.cfi_restore 8
	.cfi_def_cfa 2, 48
	addi	sp,sp,48
	.cfi_def_cfa_offset 0
	jr	ra
	.cfi_endproc
.LFE10:
	.size	etharp_find_addr, .-etharp_find_addr
	.section	.text.etharp_get_entry,"ax",@progbits
	.align	1
	.globl	etharp_get_entry
	.type	etharp_get_entry, @function
etharp_get_entry:
.LFB11:
	.loc 1 614 1
	.cfi_startproc
	addi	sp,sp,-32
	.cfi_def_cfa_offset 32
	sw	ra,28(sp)
	sw	s0,24(sp)
	.cfi_offset 1, -4
	.cfi_offset 8, -8
	addi	s0,sp,32
	.cfi_def_cfa 8, 0
	sw	a0,-20(s0)
	sw	a1,-24(s0)
	sw	a2,-28(s0)
	sw	a3,-32(s0)
	.loc 1 619 6
	lw	a4,-20(s0)
	li	a5,9
	bgtu	a4,a5,.L44
	.loc 1 619 32 discriminator 1
	lui	a5,%hi(arp_table)
	addi	a3,a5,%lo(arp_table)
	lw	a4,-20(s0)
	mv	a5,a4
	slli	a5,a5,1
	add	a5,a5,a4
	slli	a5,a5,3
	add	a5,a3,a5
	lbu	a4,20(a5)
	.loc 1 619 16 discriminator 1
	li	a5,1
	bleu	a4,a5,.L44
	.loc 1 620 15
	lw	a4,-20(s0)
	mv	a5,a4
	slli	a5,a5,1
	add	a5,a5,a4
	slli	a5,a5,3
	lui	a4,%hi(arp_table)
	addi	a4,a4,%lo(arp_table)
	add	a5,a5,a4
	addi	a4,a5,4
	.loc 1 620 13
	lw	a5,-24(s0)
	sw	a4,0(a5)
	.loc 1 621 26
	lui	a5,%hi(arp_table)
	addi	a3,a5,%lo(arp_table)
	lw	a4,-20(s0)
	mv	a5,a4
	slli	a5,a5,1
	add	a5,a5,a4
	slli	a5,a5,3
	add	a5,a3,a5
	lw	a4,8(a5)
	.loc 1 621 12
	lw	a5,-28(s0)
	sw	a4,0(a5)
	.loc 1 622 16
	lw	a4,-20(s0)
	mv	a5,a4
	slli	a5,a5,1
	add	a5,a5,a4
	slli	a5,a5,3
	lui	a4,%hi(arp_table)
	addi	a4,a4,%lo(arp_table)
	add	a5,a5,a4
	addi	a4,a5,12
	.loc 1 622 14
	lw	a5,-32(s0)
	sw	a4,0(a5)
	.loc 1 623 12
	li	a5,1
	j	.L45
.L44:
	.loc 1 625 12
	li	a5,0
.L45:
	.loc 1 627 1
	mv	a0,a5
	lw	ra,28(sp)
	.cfi_restore 1
	lw	s0,24(sp)
	.cfi_restore 8
	.cfi_def_cfa 2, 32
	addi	sp,sp,32
	.cfi_def_cfa_offset 0
	jr	ra
	.cfi_endproc
.LFE11:
	.size	etharp_get_entry, .-etharp_get_entry
	.section	.text.etharp_input,"ax",@progbits
	.align	1
	.globl	etharp_input
	.type	etharp_input, @function
etharp_input:
.LFB12:
	.loc 1 643 1
	.cfi_startproc
	addi	sp,sp,-48
	.cfi_def_cfa_offset 48
	sw	ra,44(sp)
	sw	s0,40(sp)
	.cfi_offset 1, -4
	.cfi_offset 8, -8
	addi	s0,sp,48
	.cfi_def_cfa 8, 0
	sw	a0,-36(s0)
	sw	a1,-40(s0)
	.loc 1 651 11
	lw	a5,-40(s0)
	beq	a5,zero,.L63
	.loc 1 653 7
	lw	a5,-36(s0)
	lw	a5,4(a5)
	sw	a5,-24(s0)
	.loc 1 656 11
	lw	a5,-24(s0)
	lbu	a4,0(a5)
	lbu	a5,1(a5)
	slli	a5,a5,8
	or	a5,a5,a4
	slli	a4,a5,16
	srli	a4,a4,16
	.loc 1 656 6
	li	a5,256
	bne	a4,a5,.L49
	.loc 1 657 11
	lw	a5,-24(s0)
	lbu	a4,4(a5)
	.loc 1 656 145 discriminator 1
	li	a5,6
	bne	a4,a5,.L49
	.loc 1 658 11
	lw	a5,-24(s0)
	lbu	a4,5(a5)
	.loc 1 657 25
	li	a5,4
	bne	a4,a5,.L49
	.loc 1 659 11
	lw	a5,-24(s0)
	lbu	a4,2(a5)
	lbu	a5,3(a5)
	slli	a5,a5,8
	or	a5,a5,a4
	slli	a4,a5,16
	srli	a4,a4,16
	.loc 1 658 45
	li	a5,8
	beq	a4,a5,.L50
.L49:
	.loc 1 663 24
	lui	a5,%hi(lwip_stats)
	addi	a5,a5,%lo(lwip_stats)
	lhu	a5,40(a5)
	.loc 1 663 5
	addi	a5,a5,1
	slli	a4,a5,16
	srli	a4,a4,16
	lui	a5,%hi(lwip_stats)
	addi	a5,a5,%lo(lwip_stats)
	sh	a4,40(a5)
	.loc 1 664 24
	lui	a5,%hi(lwip_stats)
	addi	a5,a5,%lo(lwip_stats)
	lhu	a5,30(a5)
	.loc 1 664 5
	addi	a5,a5,1
	slli	a4,a5,16
	srli	a4,a4,16
	lui	a5,%hi(lwip_stats)
	addi	a5,a5,%lo(lwip_stats)
	sh	a4,30(a5)
	.loc 1 665 5
	lw	a0,-36(s0)
	call	pbuf_free
	.loc 1 666 5
	j	.L46
.L50:
	.loc 1 668 22
	lui	a5,%hi(lwip_stats)
	addi	a5,a5,%lo(lwip_stats)
	lhu	a5,26(a5)
	.loc 1 668 3
	addi	a5,a5,1
	slli	a4,a5,16
	srli	a4,a4,16
	lui	a5,%hi(lwip_stats)
	addi	a5,a5,%lo(lwip_stats)
	sh	a4,26(a5)
	.loc 1 678 3
	lw	a1,-24(s0)
	lw	a0,-40(s0)
	call	acd_arp_reply
	.loc 1 683 19
	lw	a5,-24(s0)
	addi	a4,a5,14
	.loc 1 683 3
	addi	a5,s0,-28
	li	a2,4
	mv	a1,a4
	mv	a0,a5
	call	memcpy
	.loc 1 684 19
	lw	a5,-24(s0)
	addi	a4,a5,24
	.loc 1 684 3
	addi	a5,s0,-32
	li	a2,4
	mv	a1,a4
	mv	a0,a5
	call	memcpy
	.loc 1 687 31
	lw	a5,-40(s0)
	addi	a5,a5,4
	.loc 1 687 53
	lw	a5,0(a5)
	.loc 1 687 6
	bne	a5,zero,.L51
	.loc 1 688 12
	sb	zero,-17(s0)
	.loc 1 689 13
	sb	zero,-18(s0)
	j	.L52
.L51:
	.loc 1 692 31
	lw	a4,-32(s0)
	.loc 1 692 63
	lw	a5,-40(s0)
	addi	a5,a5,4
	.loc 1 692 85
	lw	a5,0(a5)
	.loc 1 692 14
	sub	a5,a4,a5
	seqz	a5,a5
	andi	a5,a5,0xff
	.loc 1 692 12
	sb	a5,-17(s0)
	.loc 1 694 32
	lw	a4,-28(s0)
	.loc 1 694 64
	lw	a5,-40(s0)
	addi	a5,a5,4
	.loc 1 694 86
	lw	a5,0(a5)
	.loc 1 694 15
	sub	a5,a4,a5
	seqz	a5,a5
	andi	a5,a5,0xff
	.loc 1 694 13
	sb	a5,-18(s0)
.L52:
	.loc 1 702 3
	lw	a5,-24(s0)
	addi	a2,a5,8
	lbu	a5,-17(s0)
	beq	a5,zero,.L53
	.loc 1 702 3 is_stmt 0 discriminator 1
	li	a5,1
	j	.L54
.L53:
	.loc 1 702 3 discriminator 2
	li	a5,2
.L54:
	.loc 1 702 3 discriminator 4
	addi	a4,s0,-28
	mv	a3,a5
	mv	a1,a4
	lw	a0,-40(s0)
	call	etharp_update_arp_entry
	.loc 1 706 14 is_stmt 1
	lw	a5,-24(s0)
	lbu	a4,6(a5)
	lbu	a5,7(a5)
	slli	a5,a5,8
	or	a5,a5,a4
	slli	a5,a5,16
	srli	a5,a5,16
	.loc 1 706 3
	li	a4,256
	beq	a5,a4,.L55
	li	a4,512
	beq	a5,a4,.L64
	j	.L62
.L55:
	.loc 1 715 10
	lbu	a5,-17(s0)
	beq	a5,zero,.L65
	.loc 1 715 18 discriminator 1
	lbu	a5,-18(s0)
	bne	a5,zero,.L65
	.loc 1 718 39
	lw	a5,-40(s0)
	addi	a1,a5,62
	.loc 1 718 54
	lw	a5,-24(s0)
	addi	a2,a5,8
	.loc 1 719 39
	lw	a5,-40(s0)
	addi	a3,a5,62
	.loc 1 719 75
	lw	a5,-40(s0)
	addi	a4,a5,4
	.loc 1 720 20
	lw	a5,-24(s0)
	addi	a5,a5,8
	.loc 1 717 9
	addi	a0,s0,-28
	li	a7,2
	mv	a6,a0
	lw	a0,-40(s0)
	call	etharp_raw
	.loc 1 731 7
	j	.L65
.L62:
	.loc 1 738 26
	lui	a5,%hi(lwip_stats)
	addi	a5,a5,%lo(lwip_stats)
	lhu	a5,44(a5)
	.loc 1 738 7
	addi	a5,a5,1
	slli	a4,a5,16
	srli	a4,a4,16
	lui	a5,%hi(lwip_stats)
	addi	a5,a5,%lo(lwip_stats)
	sh	a4,44(a5)
	.loc 1 739 7
	j	.L60
.L64:
	.loc 1 735 7
	nop
	j	.L60
.L65:
	.loc 1 731 7
	nop
.L60:
	.loc 1 742 3
	lw	a0,-36(s0)
	call	pbuf_free
	j	.L46
.L63:
	.loc 1 651 10
	nop
.L46:
	.loc 1 743 1
	lw	ra,44(sp)
	.cfi_restore 1
	lw	s0,40(sp)
	.cfi_restore 8
	.cfi_def_cfa 2, 48
	addi	sp,sp,48
	.cfi_def_cfa_offset 0
	jr	ra
	.cfi_endproc
.LFE12:
	.size	etharp_input, .-etharp_input
	.section	.text.etharp_output_to_arp_index,"ax",@progbits
	.align	1
	.type	etharp_output_to_arp_index, @function
etharp_output_to_arp_index:
.LFB13:
	.loc 1 750 1
	.cfi_startproc
	addi	sp,sp,-32
	.cfi_def_cfa_offset 32
	sw	ra,28(sp)
	sw	s0,24(sp)
	.cfi_offset 1, -4
	.cfi_offset 8, -8
	addi	s0,sp,32
	.cfi_def_cfa 8, 0
	sw	a0,-20(s0)
	sw	a1,-24(s0)
	mv	a5,a2
	sb	a5,-25(s0)
	.loc 1 756 25
	lbu	a4,-25(s0)
	lui	a5,%hi(arp_table)
	addi	a3,a5,%lo(arp_table)
	mv	a5,a4
	slli	a5,a5,1
	add	a5,a5,a4
	slli	a5,a5,3
	add	a5,a3,a5
	lbu	a4,20(a5)
	.loc 1 756 6
	li	a5,2
	bne	a4,a5,.L67
	.loc 1 757 27
	lbu	a4,-25(s0)
	lui	a5,%hi(arp_table)
	addi	a3,a5,%lo(arp_table)
	mv	a5,a4
	slli	a5,a5,1
	add	a5,a5,a4
	slli	a5,a5,3
	add	a5,a3,a5
	lhu	a4,18(a5)
	.loc 1 757 8
	li	a5,284
	bleu	a4,a5,.L68
	.loc 1 759 52
	lbu	a4,-25(s0)
	.loc 1 759 33
	mv	a5,a4
	slli	a5,a5,1
	add	a5,a5,a4
	slli	a5,a5,3
	lui	a4,%hi(arp_table)
	addi	a4,a4,%lo(arp_table)
	add	a5,a5,a4
	addi	a5,a5,4
	.loc 1 759 11
	mv	a1,a5
	lw	a0,-20(s0)
	call	etharp_request
	mv	a5,a0
	.loc 1 759 10 discriminator 1
	bne	a5,zero,.L67
	.loc 1 760 27
	lbu	a4,-25(s0)
	.loc 1 760 34
	lui	a5,%hi(arp_table)
	addi	a3,a5,%lo(arp_table)
	mv	a5,a4
	slli	a5,a5,1
	add	a5,a5,a4
	slli	a5,a5,3
	add	a5,a3,a5
	li	a4,3
	sb	a4,20(a5)
	j	.L67
.L68:
	.loc 1 762 34
	lbu	a4,-25(s0)
	lui	a5,%hi(arp_table)
	addi	a3,a5,%lo(arp_table)
	mv	a5,a4
	slli	a5,a5,1
	add	a5,a5,a4
	slli	a5,a5,3
	add	a5,a3,a5
	lhu	a4,18(a5)
	.loc 1 762 15
	li	a5,269
	bleu	a4,a5,.L67
	.loc 1 764 56
	lbu	a4,-25(s0)
	.loc 1 764 37
	mv	a5,a4
	slli	a5,a5,1
	add	a5,a5,a4
	slli	a5,a5,3
	lui	a4,%hi(arp_table)
	addi	a4,a4,%lo(arp_table)
	add	a5,a5,a4
	addi	a3,a5,4
	.loc 1 764 84
	lbu	a4,-25(s0)
	.loc 1 764 65
	mv	a5,a4
	slli	a5,a5,1
	add	a5,a5,a4
	slli	a5,a5,3
	lui	a4,%hi(arp_table)
	addi	a4,a4,%lo(arp_table)
	add	a5,a5,a4
	addi	a5,a5,12
	.loc 1 764 11
	mv	a2,a5
	mv	a1,a3
	lw	a0,-20(s0)
	call	etharp_request_dst
	mv	a5,a0
	.loc 1 764 10 discriminator 1
	bne	a5,zero,.L67
	.loc 1 765 27
	lbu	a4,-25(s0)
	.loc 1 765 34
	lui	a5,%hi(arp_table)
	addi	a3,a5,%lo(arp_table)
	mv	a5,a4
	slli	a5,a5,1
	add	a5,a5,a4
	slli	a5,a5,3
	add	a5,a3,a5
	li	a4,3
	sb	a4,20(a5)
.L67:
	.loc 1 770 55
	lw	a5,-20(s0)
	addi	a2,a5,62
	.loc 1 770 91
	lbu	a4,-25(s0)
	.loc 1 770 72
	mv	a5,a4
	slli	a5,a5,1
	add	a5,a5,a4
	slli	a5,a5,3
	lui	a4,%hi(arp_table)
	addi	a4,a4,%lo(arp_table)
	add	a5,a5,a4
	addi	a3,a5,12
	.loc 1 770 10
	li	a5,4096
	addi	a4,a5,-2048
	lw	a1,-24(s0)
	lw	a0,-20(s0)
	call	ethernet_output
	mv	a5,a0
	.loc 1 771 1
	mv	a0,a5
	lw	ra,28(sp)
	.cfi_restore 1
	lw	s0,24(sp)
	.cfi_restore 8
	.cfi_def_cfa 2, 32
	addi	sp,sp,32
	.cfi_def_cfa_offset 0
	jr	ra
	.cfi_endproc
.LFE13:
	.size	etharp_output_to_arp_index, .-etharp_output_to_arp_index
	.section	.text.etharp_output,"ax",@progbits
	.align	1
	.globl	etharp_output
	.type	etharp_output, @function
etharp_output:
.LFB14:
	.loc 1 793 1
	.cfi_startproc
	addi	sp,sp,-48
	.cfi_def_cfa_offset 48
	sw	ra,44(sp)
	sw	s0,40(sp)
	.cfi_offset 1, -4
	.cfi_offset 8, -8
	addi	s0,sp,48
	.cfi_def_cfa 8, 0
	sw	a0,-36(s0)
	sw	a1,-40(s0)
	sw	a2,-44(s0)
	.loc 1 796 21
	lw	a5,-44(s0)
	sw	a5,-24(s0)
	.loc 1 807 40
	lw	a5,-44(s0)
	lw	a5,0(a5)
	.loc 1 807 7
	lw	a1,-36(s0)
	mv	a0,a5
	call	ip4_addr_isbroadcast_u32
	mv	a5,a0
	.loc 1 807 6 discriminator 1
	beq	a5,zero,.L71
	.loc 1 809 10
	lui	a5,%hi(ethbroadcast)
	addi	a5,a5,%lo(ethbroadcast)
	sw	a5,-20(s0)
	j	.L72
.L71:
	.loc 1 811 24
	lw	a5,-44(s0)
	lw	a5,0(a5)
	.loc 1 811 31
	andi	a4,a5,240
	.loc 1 811 13
	li	a5,224
	bne	a4,a5,.L73
	.loc 1 813 23
	li	a5,1
	sb	a5,-32(s0)
	.loc 1 814 23
	sb	zero,-31(s0)
	.loc 1 815 23
	li	a5,94
	sb	a5,-30(s0)
	.loc 1 816 41
	lw	a5,-44(s0)
	.loc 1 816 58
	addi	a5,a5,1
	.loc 1 816 63
	lbu	a5,0(a5)
	andi	a5,a5,127
	andi	a5,a5,0xff
	.loc 1 816 23
	sb	a5,-29(s0)
	.loc 1 817 41
	lw	a5,-44(s0)
	.loc 1 817 58
	addi	a5,a5,2
	lbu	a5,0(a5)
	.loc 1 817 23
	sb	a5,-28(s0)
	.loc 1 818 41
	lw	a5,-44(s0)
	.loc 1 818 58
	addi	a5,a5,3
	lbu	a5,0(a5)
	.loc 1 818 23
	sb	a5,-27(s0)
	.loc 1 820 10
	addi	a5,s0,-32
	sw	a5,-20(s0)
	j	.L72
.L73:
.LBB6:
	.loc 1 826 20
	lw	a5,-44(s0)
	lw	a4,0(a5)
	.loc 1 826 107
	lw	a5,-36(s0)
	addi	a5,a5,4
	.loc 1 826 129
	lw	a5,0(a5)
	.loc 1 826 9
	xor	a4,a4,a5
	.loc 1 826 51
	lw	a5,-36(s0)
	addi	a5,a5,8
	.loc 1 826 73
	lw	a5,0(a5)
	.loc 1 826 9
	and	a5,a4,a5
	.loc 1 826 8
	beq	a5,zero,.L74
	.loc 1 827 20
	lw	a5,-44(s0)
	lw	a5,0(a5)
	.loc 1 827 27
	slli	a4,a5,16
	srli	a4,a4,16
	.loc 1 826 191 discriminator 1
	li	a5,65536
	addi	a5,a5,-343
	beq	a4,a5,.L74
	.loc 1 845 40
	lw	a5,-36(s0)
	addi	a5,a5,12
	.loc 1 845 57
	lw	a5,0(a5)
	.loc 1 845 14
	beq	a5,zero,.L75
	.loc 1 847 22
	lw	a5,-36(s0)
	addi	a5,a5,12
	sw	a5,-24(s0)
	j	.L74
.L75:
	.loc 1 851 20
	li	a5,-4
	j	.L81
.L74:
	.loc 1 862 44
	lui	a5,%hi(etharp_cached_entry)
	lbu	a5,%lo(etharp_cached_entry)(a5)
	mv	a3,a5
	lui	a5,%hi(arp_table)
	addi	a4,a5,%lo(arp_table)
	mv	a5,a3
	slli	a5,a5,1
	add	a5,a5,a3
	slli	a5,a5,3
	add	a5,a4,a5
	lbu	a4,20(a5)
	.loc 1 862 12
	li	a5,1
	bleu	a4,a5,.L77
	.loc 1 864 44
	lui	a5,%hi(etharp_cached_entry)
	lbu	a5,%lo(etharp_cached_entry)(a5)
	mv	a3,a5
	lui	a5,%hi(arp_table)
	addi	a4,a5,%lo(arp_table)
	mv	a5,a3
	slli	a5,a5,1
	add	a5,a5,a3
	slli	a5,a5,3
	add	a5,a4,a5
	lw	a5,8(a5)
	.loc 1 862 75 discriminator 1
	lw	a4,-36(s0)
	bne	a4,a5,.L77
	.loc 1 866 25
	lw	a5,-24(s0)
	lw	a4,0(a5)
	.loc 1 866 75
	lui	a5,%hi(etharp_cached_entry)
	lbu	a5,%lo(etharp_cached_entry)(a5)
	mv	a2,a5
	lui	a5,%hi(arp_table)
	addi	a3,a5,%lo(arp_table)
	mv	a5,a2
	slli	a5,a5,1
	add	a5,a5,a2
	slli	a5,a5,3
	add	a5,a3,a5
	lw	a5,4(a5)
	.loc 1 864 61
	bne	a4,a5,.L77
	.loc 1 868 30
	lui	a5,%hi(lwip_stats)
	addi	a5,a5,%lo(lwip_stats)
	lhu	a5,46(a5)
	.loc 1 868 11
	addi	a5,a5,1
	slli	a4,a5,16
	srli	a4,a4,16
	lui	a5,%hi(lwip_stats)
	addi	a5,a5,%lo(lwip_stats)
	sh	a4,46(a5)
	.loc 1 869 18
	lui	a5,%hi(etharp_cached_entry)
	lbu	a5,%lo(etharp_cached_entry)(a5)
	mv	a2,a5
	lw	a1,-40(s0)
	lw	a0,-36(s0)
	call	etharp_output_to_arp_index
	mv	a5,a0
	j	.L81
.L77:
	.loc 1 878 12
	sb	zero,-25(s0)
	.loc 1 878 5
	j	.L78
.L80:
	.loc 1 879 24
	lbu	a4,-25(s0)
	lui	a5,%hi(arp_table)
	addi	a3,a5,%lo(arp_table)
	mv	a5,a4
	slli	a5,a5,1
	add	a5,a5,a4
	slli	a5,a5,3
	add	a5,a3,a5
	lbu	a4,20(a5)
	.loc 1 879 10
	li	a5,1
	bleu	a4,a5,.L79
	.loc 1 881 24
	lbu	a4,-25(s0)
	lui	a5,%hi(arp_table)
	addi	a3,a5,%lo(arp_table)
	mv	a5,a4
	slli	a5,a5,1
	add	a5,a5,a4
	slli	a5,a5,3
	add	a5,a3,a5
	lw	a5,8(a5)
	.loc 1 879 55 discriminator 1
	lw	a4,-36(s0)
	bne	a4,a5,.L79
	.loc 1 883 23
	lw	a5,-24(s0)
	lw	a3,0(a5)
	.loc 1 883 55
	lbu	a4,-25(s0)
	lui	a5,%hi(arp_table)
	addi	a2,a5,%lo(arp_table)
	mv	a5,a4
	slli	a5,a5,1
	add	a5,a5,a4
	slli	a5,a5,3
	add	a5,a2,a5
	lw	a5,4(a5)
	.loc 1 881 41
	bne	a3,a5,.L79
	.loc 1 885 30
	lui	a5,%hi(etharp_cached_entry)
	lbu	a4,-25(s0)
	sb	a4,%lo(etharp_cached_entry)(a5)
	.loc 1 886 16
	lbu	a5,-25(s0)
	mv	a2,a5
	lw	a1,-40(s0)
	lw	a0,-36(s0)
	call	etharp_output_to_arp_index
	mv	a5,a0
	j	.L81
.L79:
	.loc 1 878 26 discriminator 2
	lbu	a5,-25(s0)
	addi	a5,a5,1
	sb	a5,-25(s0)
.L78:
	.loc 1 878 19 discriminator 1
	lbu	a4,-25(s0)
	li	a5,9
	bleu	a4,a5,.L80
	.loc 1 891 12
	lw	a2,-40(s0)
	lw	a1,-24(s0)
	lw	a0,-36(s0)
	call	etharp_query
	mv	a5,a0
	j	.L81
.L72:
.LBE6:
	.loc 1 897 55
	lw	a5,-36(s0)
	addi	a2,a5,62
	.loc 1 897 10
	li	a5,4096
	addi	a4,a5,-2048
	lw	a3,-20(s0)
	lw	a1,-40(s0)
	lw	a0,-36(s0)
	call	ethernet_output
	mv	a5,a0
.L81:
	.loc 1 898 1
	mv	a0,a5
	lw	ra,44(sp)
	.cfi_restore 1
	lw	s0,40(sp)
	.cfi_restore 8
	.cfi_def_cfa 2, 48
	addi	sp,sp,48
	.cfi_def_cfa_offset 0
	jr	ra
	.cfi_endproc
.LFE14:
	.size	etharp_output, .-etharp_output
	.section	.text.etharp_query,"ax",@progbits
	.align	1
	.globl	etharp_query
	.type	etharp_query, @function
etharp_query:
.LFB15:
	.loc 1 935 1
	.cfi_startproc
	addi	sp,sp,-64
	.cfi_def_cfa_offset 64
	sw	ra,60(sp)
	sw	s0,56(sp)
	.cfi_offset 1, -4
	.cfi_offset 8, -8
	addi	s0,sp,64
	.cfi_def_cfa 8, 0
	sw	a0,-52(s0)
	sw	a1,-56(s0)
	sw	a2,-60(s0)
	.loc 1 936 20
	lw	a5,-52(s0)
	addi	a5,a5,62
	sw	a5,-36(s0)
	.loc 1 937 9
	li	a5,-1
	sb	a5,-17(s0)
	.loc 1 938 7
	sw	zero,-24(s0)
	.loc 1 943 40
	lw	a5,-56(s0)
	lw	a5,0(a5)
	.loc 1 943 7
	lw	a1,-52(s0)
	mv	a0,a5
	call	ip4_addr_isbroadcast_u32
	mv	a5,a0
	.loc 1 943 6 discriminator 1
	bne	a5,zero,.L83
	.loc 1 944 17
	lw	a5,-56(s0)
	lw	a5,0(a5)
	.loc 1 944 24
	andi	a4,a5,240
	.loc 1 943 55 discriminator 2
	li	a5,224
	beq	a4,a5,.L83
	.loc 1 944 419
	lw	a5,-56(s0)
	beq	a5,zero,.L83
	.loc 1 945 21
	lw	a5,-56(s0)
	lw	a5,0(a5)
	.loc 1 945 6
	bne	a5,zero,.L84
.L83:
	.loc 1 947 12
	li	a5,-16
	j	.L85
.L84:
	.loc 1 951 11
	lw	a2,-52(s0)
	li	a1,1
	lw	a0,-56(s0)
	call	etharp_find_entry
	mv	a5,a0
	sh	a5,-38(s0)
	.loc 1 954 6
	lh	a5,-38(s0)
	bge	a5,zero,.L86
	.loc 1 956 8
	lw	a5,-60(s0)
	beq	a5,zero,.L87
	.loc 1 958 26
	lui	a5,%hi(lwip_stats)
	addi	a5,a5,%lo(lwip_stats)
	lhu	a5,36(a5)
	.loc 1 958 7
	addi	a5,a5,1
	slli	a4,a5,16
	srli	a4,a4,16
	lui	a5,%hi(lwip_stats)
	addi	a5,a5,%lo(lwip_stats)
	sh	a4,36(a5)
.L87:
	.loc 1 960 12
	lhu	a5,-38(s0)
	slli	a5,a5,24
	srai	a5,a5,24
	j	.L85
.L86:
	.loc 1 963 5
	lhu	a5,-38(s0)
	sb	a5,-39(s0)
	.loc 1 966 19
	lbu	a4,-39(s0)
	lui	a5,%hi(arp_table)
	addi	a3,a5,%lo(arp_table)
	mv	a5,a4
	slli	a5,a5,1
	add	a5,a5,a4
	slli	a5,a5,3
	add	a5,a3,a5
	lbu	a5,20(a5)
	.loc 1 966 6
	bne	a5,zero,.L88
	.loc 1 967 18
	li	a5,1
	sw	a5,-24(s0)
	.loc 1 968 17
	lbu	a4,-39(s0)
	.loc 1 968 24
	lui	a5,%hi(arp_table)
	addi	a3,a5,%lo(arp_table)
	mv	a5,a4
	slli	a5,a5,1
	add	a5,a5,a4
	slli	a5,a5,3
	add	a5,a3,a5
	li	a4,1
	sb	a4,20(a5)
	.loc 1 970 17
	lbu	a4,-39(s0)
	.loc 1 970 24
	lui	a5,%hi(arp_table)
	addi	a3,a5,%lo(arp_table)
	mv	a5,a4
	slli	a5,a5,1
	add	a5,a5,a4
	slli	a5,a5,3
	add	a5,a3,a5
	lw	a4,-52(s0)
	sw	a4,8(a5)
.L88:
	.loc 1 979 6
	lw	a5,-24(s0)
	bne	a5,zero,.L89
	.loc 1 979 20 discriminator 1
	lw	a5,-60(s0)
	bne	a5,zero,.L90
.L89:
	.loc 1 981 14
	lw	a1,-56(s0)
	lw	a0,-52(s0)
	call	etharp_request
	mv	a5,a0
	sb	a5,-17(s0)
	.loc 1 982 8
	lb	a5,-17(s0)
	bne	a5,zero,.L91
	.loc 1 989 24
	lbu	a4,-39(s0)
	lui	a5,%hi(arp_table)
	addi	a3,a5,%lo(arp_table)
	mv	a5,a4
	slli	a5,a5,1
	add	a5,a5,a4
	slli	a5,a5,3
	add	a5,a3,a5
	lbu	a4,20(a5)
	.loc 1 989 10
	li	a5,1
	bne	a4,a5,.L91
	.loc 1 989 56 discriminator 1
	lw	a5,-24(s0)
	bne	a5,zero,.L91
	.loc 1 993 21
	lbu	a4,-39(s0)
	.loc 1 993 28
	lui	a5,%hi(arp_table)
	addi	a3,a5,%lo(arp_table)
	mv	a5,a4
	slli	a5,a5,1
	add	a5,a5,a4
	slli	a5,a5,3
	add	a5,a3,a5
	sh	zero,18(a5)
.L91:
	.loc 1 996 8
	lw	a5,-60(s0)
	bne	a5,zero,.L90
	.loc 1 997 14
	lb	a5,-17(s0)
	j	.L85
.L90:
	.loc 1 1004 19
	lbu	a4,-39(s0)
	lui	a5,%hi(arp_table)
	addi	a3,a5,%lo(arp_table)
	mv	a5,a4
	slli	a5,a5,1
	add	a5,a5,a4
	slli	a5,a5,3
	add	a5,a3,a5
	lbu	a4,20(a5)
	.loc 1 1004 6
	li	a5,1
	bleu	a4,a5,.L92
	.loc 1 1006 26
	lui	a5,%hi(etharp_cached_entry)
	lbu	a4,-39(s0)
	sb	a4,%lo(etharp_cached_entry)(a5)
	.loc 1 1008 63
	lbu	a4,-39(s0)
	.loc 1 1008 49
	mv	a5,a4
	slli	a5,a5,1
	add	a5,a5,a4
	slli	a5,a5,3
	lui	a4,%hi(arp_table)
	addi	a4,a4,%lo(arp_table)
	add	a5,a5,a4
	addi	a3,a5,12
	.loc 1 1008 14
	li	a5,4096
	addi	a4,a5,-2048
	lw	a2,-36(s0)
	lw	a1,-60(s0)
	lw	a0,-52(s0)
	call	ethernet_output
	mv	a5,a0
	sb	a5,-17(s0)
	j	.L93
.L92:
	.loc 1 1010 26
	lbu	a4,-39(s0)
	lui	a5,%hi(arp_table)
	addi	a3,a5,%lo(arp_table)
	mv	a5,a4
	slli	a5,a5,1
	add	a5,a5,a4
	slli	a5,a5,3
	add	a5,a3,a5
	lbu	a4,20(a5)
	.loc 1 1010 13
	li	a5,1
	bne	a4,a5,.L93
.LBB7:
	.loc 1 1013 9
	sw	zero,-32(s0)
	.loc 1 1016 7
	lw	a5,-60(s0)
	sw	a5,-28(s0)
	.loc 1 1017 11
	j	.L94
.L97:
	.loc 1 1019 15
	lw	a5,-28(s0)
	lbu	a5,12(a5)
	.loc 1 1019 31
	andi	a5,a5,64
	.loc 1 1019 10
	beq	a5,zero,.L95
	.loc 1 1020 21
	li	a5,1
	sw	a5,-32(s0)
	.loc 1 1021 9
	j	.L96
.L95:
	.loc 1 1023 9
	lw	a5,-28(s0)
	lw	a5,0(a5)
	sw	a5,-28(s0)
.L94:
	.loc 1 1017 12
	lw	a5,-28(s0)
	bne	a5,zero,.L97
.L96:
	.loc 1 1025 8
	lw	a5,-32(s0)
	beq	a5,zero,.L98
	.loc 1 1027 11
	lw	a2,-60(s0)
	li	a1,640
	li	a0,142
	call	pbuf_clone
	sw	a0,-28(s0)
	j	.L99
.L98:
	.loc 1 1030 9
	lw	a5,-60(s0)
	sw	a5,-28(s0)
	.loc 1 1031 7
	lw	a0,-28(s0)
	call	pbuf_ref
.L99:
	.loc 1 1034 8
	lw	a5,-28(s0)
	beq	a5,zero,.L100
	.loc 1 1077 23
	lbu	a4,-39(s0)
	lui	a5,%hi(arp_table)
	addi	a3,a5,%lo(arp_table)
	mv	a5,a4
	slli	a5,a5,1
	add	a5,a5,a4
	slli	a5,a5,3
	add	a5,a3,a5
	lw	a5,0(a5)
	.loc 1 1077 10
	beq	a5,zero,.L101
	.loc 1 1079 9
	lbu	a4,-39(s0)
	lui	a5,%hi(arp_table)
	addi	a3,a5,%lo(arp_table)
	mv	a5,a4
	slli	a5,a5,1
	add	a5,a5,a4
	slli	a5,a5,3
	add	a5,a3,a5
	lw	a5,0(a5)
	mv	a0,a5
	call	pbuf_free
.L101:
	.loc 1 1081 19
	lbu	a4,-39(s0)
	.loc 1 1081 22
	lui	a5,%hi(arp_table)
	addi	a3,a5,%lo(arp_table)
	mv	a5,a4
	slli	a5,a5,1
	add	a5,a5,a4
	slli	a5,a5,3
	add	a5,a3,a5
	lw	a4,-28(s0)
	sw	a4,0(a5)
	.loc 1 1082 14
	sb	zero,-17(s0)
	j	.L93
.L100:
	.loc 1 1086 26
	lui	a5,%hi(lwip_stats)
	addi	a5,a5,%lo(lwip_stats)
	lhu	a5,36(a5)
	.loc 1 1086 7
	addi	a5,a5,1
	slli	a4,a5,16
	srli	a4,a4,16
	lui	a5,%hi(lwip_stats)
	addi	a5,a5,%lo(lwip_stats)
	sh	a4,36(a5)
	.loc 1 1088 14
	li	a5,-1
	sb	a5,-17(s0)
.L93:
.LBE7:
	.loc 1 1091 10
	lb	a5,-17(s0)
.L85:
	.loc 1 1092 1
	mv	a0,a5
	lw	ra,60(sp)
	.cfi_restore 1
	lw	s0,56(sp)
	.cfi_restore 8
	.cfi_def_cfa 2, 64
	addi	sp,sp,64
	.cfi_def_cfa_offset 0
	jr	ra
	.cfi_endproc
.LFE15:
	.size	etharp_query, .-etharp_query
	.section	.text.etharp_raw,"ax",@progbits
	.align	1
	.type	etharp_raw, @function
etharp_raw:
.LFB16:
	.loc 1 1115 1
	.cfi_startproc
	addi	sp,sp,-64
	.cfi_def_cfa_offset 64
	sw	ra,60(sp)
	sw	s0,56(sp)
	.cfi_offset 1, -4
	.cfi_offset 8, -8
	addi	s0,sp,64
	.cfi_def_cfa 8, 0
	sw	a0,-36(s0)
	sw	a1,-40(s0)
	sw	a2,-44(s0)
	sw	a3,-48(s0)
	sw	a4,-52(s0)
	sw	a5,-56(s0)
	sw	a6,-60(s0)
	mv	a5,a7
	sh	a5,-62(s0)
	.loc 1 1117 9
	sb	zero,-17(s0)
	.loc 1 1123 7
	li	a2,640
	li	a1,28
	li	a0,142
	call	pbuf_alloc
	sw	a0,-24(s0)
	.loc 1 1125 6
	lw	a5,-24(s0)
	bne	a5,zero,.L103
	.loc 1 1128 24
	lui	a5,%hi(lwip_stats)
	addi	a5,a5,%lo(lwip_stats)
	lhu	a5,36(a5)
	.loc 1 1128 5
	addi	a5,a5,1
	slli	a4,a5,16
	srli	a4,a4,16
	lui	a5,%hi(lwip_stats)
	addi	a5,a5,%lo(lwip_stats)
	sh	a4,36(a5)
	.loc 1 1129 12
	li	a5,-1
	j	.L104
.L103:
	.loc 1 1134 7
	lw	a5,-24(s0)
	lw	a5,4(a5)
	sw	a5,-28(s0)
	.loc 1 1136 17
	lhu	a5,-62(s0)
	mv	a0,a5
	call	lwip_htons
	mv	a5,a0
	mv	a4,a5
	.loc 1 1136 15 discriminator 1
	lw	a5,-28(s0)
	andi	a3,a4,255
	lbu	a2,6(a5)
	andi	a2,a2,0
	or	a3,a2,a3
	sb	a3,6(a5)
	srli	a4,a4,8
	slli	a4,a4,16
	srli	a4,a4,16
	lbu	a3,7(a5)
	andi	a3,a3,0
	or	a4,a3,a4
	sb	a4,7(a5)
	.loc 1 1142 10
	lw	a5,-28(s0)
	addi	a5,a5,8
	.loc 1 1142 3
	li	a2,6
	lw	a1,-48(s0)
	mv	a0,a5
	call	memcpy
	.loc 1 1143 10
	lw	a5,-28(s0)
	addi	a5,a5,18
	.loc 1 1143 3
	li	a2,6
	lw	a1,-56(s0)
	mv	a0,a5
	call	memcpy
	.loc 1 1146 10
	lw	a5,-28(s0)
	addi	a5,a5,14
	.loc 1 1146 3
	li	a2,4
	lw	a1,-52(s0)
	mv	a0,a5
	call	memcpy
	.loc 1 1147 10
	lw	a5,-28(s0)
	addi	a5,a5,24
	.loc 1 1147 3
	li	a2,4
	lw	a1,-60(s0)
	mv	a0,a5
	call	memcpy
	.loc 1 1149 15
	lw	a5,-28(s0)
	lbu	a4,0(a5)
	andi	a4,a4,0
	sb	a4,0(a5)
	lbu	a4,1(a5)
	andi	a4,a4,0
	ori	a4,a4,1
	sb	a4,1(a5)
	.loc 1 1150 14
	lw	a5,-28(s0)
	lbu	a4,2(a5)
	andi	a4,a4,0
	ori	a4,a4,8
	sb	a4,2(a5)
	lbu	a4,3(a5)
	andi	a4,a4,0
	sb	a4,3(a5)
	.loc 1 1152 14
	lw	a5,-28(s0)
	li	a4,6
	sb	a4,4(a5)
	.loc 1 1153 17
	lw	a5,-28(s0)
	li	a4,4
	sb	a4,5(a5)
	.loc 1 1165 5
	li	a5,4096
	addi	a4,a5,-2042
	lw	a3,-44(s0)
	lw	a2,-40(s0)
	lw	a1,-24(s0)
	lw	a0,-36(s0)
	call	ethernet_output
	.loc 1 1168 22
	lui	a5,%hi(lwip_stats)
	addi	a5,a5,%lo(lwip_stats)
	lhu	a5,24(a5)
	.loc 1 1168 3
	addi	a5,a5,1
	slli	a4,a5,16
	srli	a4,a4,16
	lui	a5,%hi(lwip_stats)
	addi	a5,a5,%lo(lwip_stats)
	sh	a4,24(a5)
	.loc 1 1170 3
	lw	a0,-24(s0)
	call	pbuf_free
	.loc 1 1171 5
	sw	zero,-24(s0)
	.loc 1 1174 10
	lb	a5,-17(s0)
.L104:
	.loc 1 1175 1
	mv	a0,a5
	lw	ra,60(sp)
	.cfi_restore 1
	lw	s0,56(sp)
	.cfi_restore 8
	.cfi_def_cfa 2, 64
	addi	sp,sp,64
	.cfi_def_cfa_offset 0
	jr	ra
	.cfi_endproc
.LFE16:
	.size	etharp_raw, .-etharp_raw
	.section	.text.etharp_request_dst,"ax",@progbits
	.align	1
	.type	etharp_request_dst, @function
etharp_request_dst:
.LFB17:
	.loc 1 1191 1
	.cfi_startproc
	addi	sp,sp,-32
	.cfi_def_cfa_offset 32
	sw	ra,28(sp)
	sw	s0,24(sp)
	.cfi_offset 1, -4
	.cfi_offset 8, -8
	addi	s0,sp,32
	.cfi_def_cfa 8, 0
	sw	a0,-20(s0)
	sw	a1,-24(s0)
	sw	a2,-28(s0)
	.loc 1 1192 47
	lw	a5,-20(s0)
	addi	a1,a5,62
	.loc 1 1193 40
	lw	a5,-20(s0)
	addi	a3,a5,62
	.loc 1 1193 76
	lw	a5,-20(s0)
	addi	a4,a5,4
	.loc 1 1192 10
	li	a7,1
	lw	a6,-24(s0)
	lui	a5,%hi(ethzero)
	addi	a5,a5,%lo(ethzero)
	lw	a2,-28(s0)
	lw	a0,-20(s0)
	call	etharp_raw
	mv	a5,a0
	.loc 1 1195 1
	mv	a0,a5
	lw	ra,28(sp)
	.cfi_restore 1
	lw	s0,24(sp)
	.cfi_restore 8
	.cfi_def_cfa 2, 32
	addi	sp,sp,32
	.cfi_def_cfa_offset 0
	jr	ra
	.cfi_endproc
.LFE17:
	.size	etharp_request_dst, .-etharp_request_dst
	.section	.text.etharp_request,"ax",@progbits
	.align	1
	.globl	etharp_request
	.type	etharp_request, @function
etharp_request:
.LFB18:
	.loc 1 1208 1
	.cfi_startproc
	addi	sp,sp,-32
	.cfi_def_cfa_offset 32
	sw	ra,28(sp)
	sw	s0,24(sp)
	.cfi_offset 1, -4
	.cfi_offset 8, -8
	addi	s0,sp,32
	.cfi_def_cfa 8, 0
	sw	a0,-20(s0)
	sw	a1,-24(s0)
	.loc 1 1210 10
	lui	a5,%hi(ethbroadcast)
	addi	a2,a5,%lo(ethbroadcast)
	lw	a1,-24(s0)
	lw	a0,-20(s0)
	call	etharp_request_dst
	mv	a5,a0
	.loc 1 1211 1
	mv	a0,a5
	lw	ra,28(sp)
	.cfi_restore 1
	lw	s0,24(sp)
	.cfi_restore 8
	.cfi_def_cfa 2, 32
	addi	sp,sp,32
	.cfi_def_cfa_offset 0
	jr	ra
	.cfi_endproc
.LFE18:
	.size	etharp_request, .-etharp_request
	.section	.text.etharp_acd_probe,"ax",@progbits
	.align	1
	.globl	etharp_acd_probe
	.type	etharp_acd_probe, @function
etharp_acd_probe:
.LFB19:
	.loc 1 1226 1
	.cfi_startproc
	addi	sp,sp,-32
	.cfi_def_cfa_offset 32
	sw	ra,28(sp)
	sw	s0,24(sp)
	.cfi_offset 1, -4
	.cfi_offset 8, -8
	addi	s0,sp,32
	.cfi_def_cfa 8, 0
	sw	a0,-20(s0)
	sw	a1,-24(s0)
	.loc 1 1227 47
	lw	a5,-20(s0)
	addi	a1,a5,62
	.loc 1 1228 40
	lw	a5,-20(s0)
	addi	a3,a5,62
	.loc 1 1227 10
	li	a7,1
	lw	a6,-24(s0)
	lui	a5,%hi(ethzero)
	addi	a5,a5,%lo(ethzero)
	lui	a4,%hi(ip_addr_any)
	addi	a4,a4,%lo(ip_addr_any)
	lui	a2,%hi(ethbroadcast)
	addi	a2,a2,%lo(ethbroadcast)
	lw	a0,-20(s0)
	call	etharp_raw
	mv	a5,a0
	.loc 1 1230 1
	mv	a0,a5
	lw	ra,28(sp)
	.cfi_restore 1
	lw	s0,24(sp)
	.cfi_restore 8
	.cfi_def_cfa 2, 32
	addi	sp,sp,32
	.cfi_def_cfa_offset 0
	jr	ra
	.cfi_endproc
.LFE19:
	.size	etharp_acd_probe, .-etharp_acd_probe
	.section	.text.etharp_acd_announce,"ax",@progbits
	.align	1
	.globl	etharp_acd_announce
	.type	etharp_acd_announce, @function
etharp_acd_announce:
.LFB20:
	.loc 1 1244 1
	.cfi_startproc
	addi	sp,sp,-32
	.cfi_def_cfa_offset 32
	sw	ra,28(sp)
	sw	s0,24(sp)
	.cfi_offset 1, -4
	.cfi_offset 8, -8
	addi	s0,sp,32
	.cfi_def_cfa 8, 0
	sw	a0,-20(s0)
	sw	a1,-24(s0)
	.loc 1 1245 47
	lw	a5,-20(s0)
	addi	a1,a5,62
	.loc 1 1246 40
	lw	a5,-20(s0)
	addi	a3,a5,62
	.loc 1 1245 10
	li	a7,1
	lw	a6,-24(s0)
	lui	a5,%hi(ethzero)
	addi	a5,a5,%lo(ethzero)
	lw	a4,-24(s0)
	lui	a2,%hi(ethbroadcast)
	addi	a2,a2,%lo(ethbroadcast)
	lw	a0,-20(s0)
	call	etharp_raw
	mv	a5,a0
	.loc 1 1248 1
	mv	a0,a5
	lw	ra,28(sp)
	.cfi_restore 1
	lw	s0,24(sp)
	.cfi_restore 8
	.cfi_def_cfa 2, 32
	addi	sp,sp,32
	.cfi_def_cfa_offset 0
	jr	ra
	.cfi_endproc
.LFE20:
	.size	etharp_acd_announce, .-etharp_acd_announce
	.text
.Letext0:
	.file 2 "/home/chandu/sdk/bl602_iot_sdk/toolchain/compiler/lib/gcc/riscv32-unknown-elf/15.1.0/include/stddef.h"
	.file 3 "/home/chandu/sdk/bl602_iot_sdk/toolchain/compiler/riscv32-unknown-elf/include/sys/_types.h"
	.file 4 "/home/chandu/sdk/bl602_iot_sdk/toolchain/compiler/riscv32-unknown-elf/include/stdio.h"
	.file 5 "/home/chandu/sdk/bl602_iot_sdk/toolchain/compiler/lib/gcc/riscv32-unknown-elf/15.1.0/include/stdint-gcc.h"
	.file 6 "/home/chandu/sdk/bl602_iot_sdk/components/network/lwip/src/include/lwip/arch.h"
	.file 7 "/home/chandu/sdk/bl602_iot_sdk/components/network/lwip/src/include/lwip/err.h"
	.file 8 "/home/chandu/sdk/bl602_iot_sdk/components/network/lwip/src/include/lwip/pbuf.h"
	.file 9 "/home/chandu/sdk/bl602_iot_sdk/components/network/lwip/src/include/lwip/ip4_addr.h"
	.file 10 "/home/chandu/sdk/bl602_iot_sdk/components/network/lwip/src/include/lwip/ip_addr.h"
	.file 11 "/home/chandu/sdk/bl602_iot_sdk/components/network/lwip/src/include/lwip/mem.h"
	.file 12 "/home/chandu/sdk/bl602_iot_sdk/components/network/lwip/src/include/lwip/memp.h"
	.file 13 "/home/chandu/sdk/bl602_iot_sdk/components/network/lwip/src/include/lwip/stats.h"
	.file 14 "/home/chandu/sdk/bl602_iot_sdk/components/network/lwip/src/include/lwip/netif.h"
	.file 15 "/home/chandu/sdk/bl602_iot_sdk/components/network/lwip/src/include/lwip/acd.h"
	.file 16 "/home/chandu/sdk/bl602_iot_sdk/components/network/lwip/src/include/lwip/prot/ieee.h"
	.file 17 "/home/chandu/sdk/bl602_iot_sdk/components/network/lwip/src/include/lwip/prot/ethernet.h"
	.file 18 "/home/chandu/sdk/bl602_iot_sdk/components/network/lwip/src/include/lwip/prot/etharp.h"
	.file 19 "/home/chandu/sdk/bl602_iot_sdk/components/network/lwip/src/include/lwip/prot/acd.h"
	.file 20 "/home/chandu/sdk/bl602_iot_sdk/components/network/lwip/src/include/lwip/prot/iana.h"
	.file 21 "/home/chandu/sdk/bl602_iot_sdk/components/network/lwip/src/include/netif/ethernet.h"
	.file 22 "/home/chandu/sdk/bl602_iot_sdk/components/network/lwip/src/include/lwip/def.h"
	.file 23 "/home/chandu/sdk/bl602_iot_sdk/toolchain/compiler/riscv32-unknown-elf/include/string.h"
	.section	.note.GNU-stack,"",@progbits
