	.file	"icmp.c"
	.option nopic
	.attribute arch, "rv32i2p1_m2p0_f2p2_c2p0_zicsr2p0_zmmul1p0_zca1p0_zcf1p0"
	.attribute unaligned_access, 0
	.attribute stack_align, 16
	.text
.Ltext0:
	.cfi_sections	.debug_frame
	.file 0 "/home/chandu/sdk/bl602_iot_sdk/customer_app/suas_app_pqkem_gateway/build_out/lwip" "/home/chandu/sdk/bl602_iot_sdk/components/network/lwip/src/core/ipv4/icmp.c"
	.section	.text.icmp_input,"ax",@progbits
	.align	1
	.globl	icmp_input
	.type	icmp_input, @function
icmp_input:
.LFB5:
	.file 1 "/home/chandu/sdk/bl602_iot_sdk/components/network/lwip/src/core/ipv4/icmp.c"
	.loc 1 81 1
	.cfi_startproc
	addi	sp,sp,-64
	.cfi_def_cfa_offset 64
	sw	ra,60(sp)
	sw	s0,56(sp)
	.cfi_offset 1, -4
	.cfi_offset 8, -8
	addi	s0,sp,64
	.cfi_def_cfa 8, 0
	sw	a0,-52(s0)
	sw	a1,-56(s0)
	.loc 1 91 20
	lui	a5,%hi(lwip_stats)
	addi	a5,a5,%lo(lwip_stats)
	lhu	a5,74(a5)
	.loc 1 91 3
	addi	a5,a5,1
	slli	a4,a5,16
	srli	a4,a4,16
	lui	a5,%hi(lwip_stats)
	addi	a5,a5,%lo(lwip_stats)
	sh	a4,74(a5)
	.loc 1 94 12
	lui	a5,%hi(ip_data)
	addi	a5,a5,%lo(ip_data)
	lw	a5,8(a5)
	sw	a5,-20(s0)
	.loc 1 95 29
	lw	a5,-20(s0)
	lbu	a5,0(a5)
	.loc 1 95 11
	andi	a5,a5,15
	andi	a5,a5,0xff
	slli	a5,a5,2
	andi	a5,a5,0xff
	.loc 1 95 8
	sh	a5,-22(s0)
	.loc 1 96 6
	lhu	a4,-22(s0)
	li	a5,19
	bleu	a4,a5,.L27
	.loc 1 100 8
	lw	a5,-52(s0)
	lhu	a4,10(a5)
	.loc 1 100 6
	li	a5,3
	bleu	a4,a5,.L28
	.loc 1 105 21
	lw	a5,-52(s0)
	lw	a5,4(a5)
	.loc 1 105 8
	lbu	a5,0(a5)
	sb	a5,-23(s0)
	.loc 1 111 3
	lbu	a5,-23(s0)
	beq	a5,zero,.L29
	li	a4,8
	bne	a5,a4,.L26
	.loc 1 119 11
	lui	a5,%hi(ip_data+20)
	addi	a5,a5,%lo(ip_data+20)
	sw	a5,-28(s0)
	.loc 1 121 44
	lui	a5,%hi(ip_data)
	addi	a5,a5,%lo(ip_data)
	lw	a5,20(a5)
	.loc 1 121 51
	andi	a4,a5,240
	.loc 1 121 10
	li	a5,224
	beq	a4,a5,.L30
	.loc 1 131 11
	lui	a5,%hi(ip_data)
	addi	a5,a5,%lo(ip_data)
	lw	a4,20(a5)
	.loc 1 131 83
	lui	a5,%hi(ip_data)
	addi	a5,a5,%lo(ip_data)
	lw	a5,0(a5)
	.loc 1 131 11
	mv	a1,a5
	mv	a0,a4
	call	ip4_addr_isbroadcast_u32
	mv	a5,a0
	.loc 1 131 10 discriminator 1
	bne	a5,zero,.L31
	.loc 1 141 12
	lw	a5,-52(s0)
	lhu	a4,8(a5)
	.loc 1 141 10
	li	a5,7
	bleu	a4,a5,.L32
	.loc 1 147 13
	lw	a0,-52(s0)
	call	inet_chksum_pbuf
	mv	a5,a0
	.loc 1 147 12 discriminator 1
	beq	a5,zero,.L13
	.loc 1 149 11
	lw	a0,-52(s0)
	call	pbuf_free
	.loc 1 150 28
	lui	a5,%hi(lwip_stats)
	addi	a5,a5,%lo(lwip_stats)
	lhu	a5,80(a5)
	.loc 1 150 11
	addi	a5,a5,1
	slli	a4,a5,16
	srli	a4,a4,16
	lui	a5,%hi(lwip_stats)
	addi	a5,a5,%lo(lwip_stats)
	sh	a4,80(a5)
	.loc 1 152 11
	j	.L1
.L13:
	.loc 1 157 46
	lhu	a5,-22(s0)
	addi	a5,a5,142
	.loc 1 157 11
	mv	a1,a5
	lw	a0,-52(s0)
	call	pbuf_add_header
	mv	a5,a0
	.loc 1 157 10 discriminator 1
	beq	a5,zero,.L15
.LBB2:
	.loc 1 162 36
	lw	a5,-52(s0)
	lhu	a5,8(a5)
	.loc 1 162 15
	lhu	a4,-22(s0)
	add	a5,a5,a4
	sh	a5,-30(s0)
	.loc 1 163 26
	lw	a5,-52(s0)
	lhu	a5,8(a5)
	.loc 1 163 12
	lhu	a4,-30(s0)
	bltu	a4,a5,.L33
	.loc 1 168 13
	lhu	a5,-30(s0)
	li	a2,640
	mv	a1,a5
	li	a0,142
	call	pbuf_alloc
	sw	a0,-36(s0)
	.loc 1 169 12
	lw	a5,-36(s0)
	beq	a5,zero,.L34
	.loc 1 173 14
	lw	a5,-36(s0)
	lhu	a5,10(a5)
	mv	a4,a5
	.loc 1 173 27
	lhu	a5,-22(s0)
	addi	a5,a5,8
	.loc 1 173 12
	bgeu	a4,a5,.L18
	.loc 1 175 11
	lw	a0,-36(s0)
	call	pbuf_free
	.loc 1 176 11
	j	.L10
.L18:
	.loc 1 179 17
	lw	a5,-36(s0)
	lw	a5,4(a5)
	.loc 1 179 9
	lhu	a4,-22(s0)
	mv	a2,a4
	lw	a1,-20(s0)
	mv	a0,a5
	call	memcpy
	.loc 1 181 13
	lhu	a5,-22(s0)
	mv	a1,a5
	lw	a0,-36(s0)
	call	pbuf_remove_header
	mv	a5,a0
	.loc 1 181 12 discriminator 1
	beq	a5,zero,.L19
	.loc 1 183 11
	lw	a0,-36(s0)
	call	pbuf_free
	.loc 1 184 11
	j	.L10
.L19:
	.loc 1 187 13
	lw	a1,-52(s0)
	lw	a0,-36(s0)
	call	pbuf_copy
	mv	a5,a0
	.loc 1 187 12 discriminator 1
	beq	a5,zero,.L20
	.loc 1 189 11
	lw	a0,-36(s0)
	call	pbuf_free
	.loc 1 190 11
	j	.L10
.L20:
	.loc 1 193 9
	lw	a0,-52(s0)
	call	pbuf_free
	.loc 1 195 11
	lw	a5,-36(s0)
	sw	a5,-52(s0)
.LBE2:
	j	.L21
.L15:
	.loc 1 198 51
	lhu	a5,-22(s0)
	addi	a5,a5,142
	.loc 1 198 13
	mv	a1,a5
	lw	a0,-52(s0)
	call	pbuf_remove_header
	mv	a5,a0
	.loc 1 198 12 discriminator 1
	bne	a5,zero,.L35
.L21:
	.loc 1 207 13
	lw	a5,-52(s0)
	lw	a5,4(a5)
	sw	a5,-40(s0)
	.loc 1 208 11
	lhu	a5,-22(s0)
	mv	a1,a5
	lw	a0,-52(s0)
	call	pbuf_add_header
	mv	a5,a0
	.loc 1 208 10 discriminator 1
	bne	a5,zero,.L36
.LBB3:
	.loc 1 212 24
	lw	a5,-52(s0)
	lw	a5,4(a5)
	sw	a5,-44(s0)
	.loc 1 213 36
	lw	a5,-28(s0)
	lw	a4,0(a5)
	.loc 1 213 28
	lw	a5,-44(s0)
	andi	a3,a4,255
	lbu	a2,12(a5)
	andi	a2,a2,0
	or	a3,a2,a3
	sb	a3,12(a5)
	srli	a3,a4,8
	andi	a3,a3,255
	lbu	a2,13(a5)
	andi	a2,a2,0
	or	a3,a2,a3
	sb	a3,13(a5)
	srli	a3,a4,16
	andi	a3,a3,255
	lbu	a2,14(a5)
	andi	a2,a2,0
	or	a3,a2,a3
	sb	a3,14(a5)
	srli	a4,a4,24
	lbu	a3,15(a5)
	andi	a3,a3,0
	or	a4,a3,a4
	sb	a4,15(a5)
	.loc 1 214 62
	lui	a5,%hi(ip_data)
	addi	a5,a5,%lo(ip_data)
	lw	a4,16(a5)
	.loc 1 214 29
	lw	a5,-44(s0)
	andi	a3,a4,255
	lbu	a2,16(a5)
	andi	a2,a2,0
	or	a3,a2,a3
	sb	a3,16(a5)
	srli	a3,a4,8
	andi	a3,a3,255
	lbu	a2,17(a5)
	andi	a2,a2,0
	or	a3,a2,a3
	sb	a3,17(a5)
	srli	a3,a4,16
	andi	a3,a3,255
	lbu	a2,18(a5)
	andi	a2,a2,0
	or	a3,a2,a3
	sb	a3,18(a5)
	srli	a4,a4,24
	lbu	a3,19(a5)
	andi	a3,a3,0
	or	a4,a3,a4
	sb	a4,19(a5)
	.loc 1 215 24
	lw	a5,-40(s0)
	sb	zero,0(a5)
	.loc 1 216 19
	lw	a5,-52(s0)
	sb	zero,15(a5)
	.loc 1 220 20
	lw	a5,-40(s0)
	lbu	a4,2(a5)
	lbu	a5,3(a5)
	slli	a5,a5,8
	or	a5,a5,a4
	slli	a4,a5,16
	srli	a4,a4,16
	.loc 1 220 14
	li	a5,65536
	addi	a5,a5,-9
	bleu	a4,a5,.L23
	.loc 1 221 42
	lw	a5,-40(s0)
	lbu	a4,2(a5)
	lbu	a5,3(a5)
	slli	a5,a5,8
	or	a5,a5,a4
	slli	a5,a5,16
	srli	a5,a5,16
	.loc 1 221 29
	addi	a5,a5,9
	slli	a4,a5,16
	srli	a4,a4,16
	.loc 1 221 27
	lw	a5,-40(s0)
	andi	a3,a4,255
	lbu	a2,2(a5)
	andi	a2,a2,0
	or	a3,a2,a3
	sb	a3,2(a5)
	srli	a4,a4,8
	slli	a4,a4,16
	srli	a4,a4,16
	lbu	a3,3(a5)
	andi	a3,a3,0
	or	a4,a3,a4
	sb	a4,3(a5)
	j	.L24
.L23:
	.loc 1 223 42
	lw	a5,-40(s0)
	lbu	a4,2(a5)
	lbu	a5,3(a5)
	slli	a5,a5,8
	or	a5,a5,a4
	slli	a5,a5,16
	srli	a5,a5,16
	.loc 1 223 29
	addi	a5,a5,8
	slli	a4,a5,16
	srli	a4,a4,16
	.loc 1 223 27
	lw	a5,-40(s0)
	andi	a3,a4,255
	lbu	a2,2(a5)
	andi	a2,a2,0
	or	a3,a2,a3
	sb	a3,2(a5)
	srli	a4,a4,8
	slli	a4,a4,16
	srli	a4,a4,16
	lbu	a3,3(a5)
	andi	a3,a3,0
	or	a4,a3,a4
	sb	a4,3(a5)
.L24:
	.loc 1 236 23
	lw	a5,-44(s0)
	li	a4,-1
	sb	a4,8(a5)
	.loc 1 237 26
	lw	a5,-44(s0)
	lbu	a4,10(a5)
	andi	a4,a4,0
	sb	a4,10(a5)
	lbu	a4,11(a5)
	andi	a4,a4,0
	sb	a4,11(a5)
	.loc 1 240 31
	lhu	a5,-22(s0)
	mv	a1,a5
	lw	a0,-44(s0)
	call	inet_chksum
	mv	a5,a0
	mv	a4,a5
	.loc 1 240 28 discriminator 1
	lw	a5,-44(s0)
	andi	a3,a4,255
	lbu	a2,10(a5)
	andi	a2,a2,0
	or	a3,a2,a3
	sb	a3,10(a5)
	srli	a4,a4,8
	slli	a4,a4,16
	srli	a4,a4,16
	lbu	a3,11(a5)
	andi	a3,a3,0
	or	a4,a3,a4
	sb	a4,11(a5)
	.loc 1 244 26
	lui	a5,%hi(lwip_stats)
	addi	a5,a5,%lo(lwip_stats)
	lhu	a5,72(a5)
	.loc 1 244 9
	addi	a5,a5,1
	slli	a4,a5,16
	srli	a4,a4,16
	lui	a5,%hi(lwip_stats)
	addi	a5,a5,%lo(lwip_stats)
	sh	a4,72(a5)
	.loc 1 251 15
	lw	a6,-56(s0)
	li	a5,1
	li	a4,0
	li	a3,255
	li	a2,0
	lw	a1,-28(s0)
	lw	a0,-52(s0)
	call	ip4_output_if
	mv	a5,a0
	sb	a5,-45(s0)
.LBE3:
	.loc 1 257 7
	j	.L36
.L26:
	.loc 1 280 24
	lui	a5,%hi(lwip_stats)
	addi	a5,a5,%lo(lwip_stats)
	lhu	a5,88(a5)
	.loc 1 280 7
	addi	a5,a5,1
	slli	a4,a5,16
	srli	a4,a4,16
	lui	a5,%hi(lwip_stats)
	addi	a5,a5,%lo(lwip_stats)
	sh	a4,88(a5)
	.loc 1 281 24
	lui	a5,%hi(lwip_stats)
	addi	a5,a5,%lo(lwip_stats)
	lhu	a5,78(a5)
	.loc 1 281 7
	addi	a5,a5,1
	slli	a4,a5,16
	srli	a4,a4,16
	lui	a5,%hi(lwip_stats)
	addi	a5,a5,%lo(lwip_stats)
	sh	a4,78(a5)
	j	.L8
.L29:
	.loc 1 116 7
	nop
	j	.L8
.L36:
	.loc 1 257 7
	nop
.L8:
	.loc 1 283 3
	lw	a0,-52(s0)
	call	pbuf_free
	.loc 1 284 3
	j	.L1
.L27:
	.loc 1 98 5
	nop
	j	.L3
.L28:
	.loc 1 102 5
	nop
	j	.L3
.L32:
	.loc 1 143 9
	nop
.L3:
	.loc 1 286 3
	lw	a0,-52(s0)
	call	pbuf_free
	.loc 1 287 20
	lui	a5,%hi(lwip_stats)
	addi	a5,a5,%lo(lwip_stats)
	lhu	a5,82(a5)
	.loc 1 287 3
	addi	a5,a5,1
	slli	a4,a5,16
	srli	a4,a4,16
	lui	a5,%hi(lwip_stats)
	addi	a5,a5,%lo(lwip_stats)
	sh	a4,82(a5)
	.loc 1 289 3
	j	.L1
.L30:
	.loc 1 127 9
	nop
	j	.L10
.L31:
	.loc 1 137 9
	nop
	j	.L10
.L33:
.LBB4:
	.loc 1 165 11
	nop
	j	.L10
.L34:
	.loc 1 171 11
	nop
	j	.L10
.L35:
.LBE4:
	.loc 1 200 11
	nop
.L10:
	.loc 1 292 3
	lw	a0,-52(s0)
	call	pbuf_free
	.loc 1 293 20
	lui	a5,%hi(lwip_stats)
	addi	a5,a5,%lo(lwip_stats)
	lhu	a5,92(a5)
	.loc 1 293 3
	addi	a5,a5,1
	slli	a4,a5,16
	srli	a4,a4,16
	lui	a5,%hi(lwip_stats)
	addi	a5,a5,%lo(lwip_stats)
	sh	a4,92(a5)
	.loc 1 295 3
	nop
.L1:
	.loc 1 297 1
	lw	ra,60(sp)
	.cfi_restore 1
	lw	s0,56(sp)
	.cfi_restore 8
	.cfi_def_cfa 2, 64
	addi	sp,sp,64
	.cfi_def_cfa_offset 0
	jr	ra
	.cfi_endproc
.LFE5:
	.size	icmp_input, .-icmp_input
	.section	.text.icmp_dest_unreach,"ax",@progbits
	.align	1
	.globl	icmp_dest_unreach
	.type	icmp_dest_unreach, @function
icmp_dest_unreach:
.LFB6:
	.loc 1 310 1
	.cfi_startproc
	addi	sp,sp,-32
	.cfi_def_cfa_offset 32
	sw	ra,28(sp)
	sw	s0,24(sp)
	.cfi_offset 1, -4
	.cfi_offset 8, -8
	addi	s0,sp,32
	.cfi_def_cfa 8, 0
	sw	a0,-20(s0)
	mv	a5,a1
	sb	a5,-21(s0)
	.loc 1 312 3
	lbu	a5,-21(s0)
	mv	a2,a5
	li	a1,3
	lw	a0,-20(s0)
	call	icmp_send_response
	.loc 1 313 1
	nop
	lw	ra,28(sp)
	.cfi_restore 1
	lw	s0,24(sp)
	.cfi_restore 8
	.cfi_def_cfa 2, 32
	addi	sp,sp,32
	.cfi_def_cfa_offset 0
	jr	ra
	.cfi_endproc
.LFE6:
	.size	icmp_dest_unreach, .-icmp_dest_unreach
	.section	.text.icmp_send_response,"ax",@progbits
	.align	1
	.type	icmp_send_response, @function
icmp_send_response:
.LFB7:
	.loc 1 342 1
	.cfi_startproc
	addi	sp,sp,-64
	.cfi_def_cfa_offset 64
	sw	ra,60(sp)
	sw	s0,56(sp)
	.cfi_offset 1, -4
	.cfi_offset 8, -8
	addi	s0,sp,64
	.cfi_def_cfa 8, 0
	sw	a0,-52(s0)
	mv	a5,a1
	mv	a4,a2
	sb	a5,-53(s0)
	mv	a5,a4
	sb	a5,-54(s0)
	.loc 1 354 20
	li	a5,28
	sh	a5,-18(s0)
	.loc 1 355 8
	lw	a5,-52(s0)
	lhu	a5,8(a5)
	.loc 1 355 6
	lhu	a4,-18(s0)
	bleu	a4,a5,.L39
	.loc 1 356 22
	lw	a5,-52(s0)
	lhu	a5,8(a5)
	sh	a5,-18(s0)
.L39:
	.loc 1 360 7
	lhu	a5,-18(s0)
	addi	a5,a5,8
	slli	a5,a5,16
	srli	a5,a5,16
	li	a2,640
	mv	a1,a5
	li	a0,162
	call	pbuf_alloc
	sw	a0,-24(s0)
	.loc 1 361 6
	lw	a5,-24(s0)
	beq	a5,zero,.L43
	.loc 1 369 9
	lw	a5,-52(s0)
	lw	a5,4(a5)
	sw	a5,-28(s0)
	.loc 1 376 11
	lw	a5,-24(s0)
	lw	a5,4(a5)
	sw	a5,-32(s0)
	.loc 1 377 17
	lw	a5,-32(s0)
	lbu	a4,-53(s0)
	sb	a4,0(a5)
	.loc 1 378 17
	lw	a5,-32(s0)
	lbu	a4,-54(s0)
	sb	a4,1(a5)
	.loc 1 379 17
	lw	a5,-32(s0)
	lbu	a4,4(a5)
	andi	a4,a4,0
	sb	a4,4(a5)
	lbu	a4,5(a5)
	andi	a4,a4,0
	sb	a4,5(a5)
	lbu	a4,6(a5)
	andi	a4,a4,0
	sb	a4,6(a5)
	lbu	a4,7(a5)
	andi	a4,a4,0
	sb	a4,7(a5)
	.loc 1 382 3
	lhu	a5,-18(s0)
	li	a3,8
	mv	a2,a5
	lw	a1,-52(s0)
	lw	a0,-24(s0)
	call	pbuf_copy_partial_pbuf
	.loc 1 384 35
	lw	a5,-28(s0)
	lbu	a4,12(a5)
	lbu	a3,13(a5)
	slli	a3,a3,8
	or	a4,a3,a4
	lbu	a3,14(a5)
	slli	a3,a3,16
	or	a4,a3,a4
	lbu	a5,15(a5)
	slli	a5,a5,24
	or	a5,a5,a4
	.loc 1 384 21
	sw	a5,-40(s0)
	.loc 1 392 11
	addi	a5,s0,-40
	mv	a0,a5
	call	ip4_route
	sw	a0,-36(s0)
	.loc 1 394 6
	lw	a5,-36(s0)
	beq	a5,zero,.L42
	.loc 1 396 21
	lw	a5,-32(s0)
	lbu	a4,2(a5)
	andi	a4,a4,0
	sb	a4,2(a5)
	lbu	a4,3(a5)
	andi	a4,a4,0
	sb	a4,3(a5)
	.loc 1 399 25
	lw	a5,-24(s0)
	lhu	a5,10(a5)
	mv	a1,a5
	lw	a0,-32(s0)
	call	inet_chksum
	mv	a5,a0
	mv	a4,a5
	.loc 1 399 23 discriminator 1
	lw	a5,-32(s0)
	andi	a3,a4,255
	lbu	a2,2(a5)
	andi	a2,a2,0
	or	a3,a2,a3
	sb	a3,2(a5)
	srli	a4,a4,8
	slli	a4,a4,16
	srli	a4,a4,16
	lbu	a3,3(a5)
	andi	a3,a3,0
	or	a4,a3,a4
	sb	a4,3(a5)
	.loc 1 402 22
	lui	a5,%hi(lwip_stats)
	addi	a5,a5,%lo(lwip_stats)
	lhu	a5,72(a5)
	.loc 1 402 5
	addi	a5,a5,1
	slli	a4,a5,16
	srli	a4,a4,16
	lui	a5,%hi(lwip_stats)
	addi	a5,a5,%lo(lwip_stats)
	sh	a4,72(a5)
	.loc 1 403 5
	addi	a2,s0,-40
	lw	a6,-36(s0)
	li	a5,1
	li	a4,0
	li	a3,255
	li	a1,0
	lw	a0,-24(s0)
	call	ip4_output_if
.L42:
	.loc 1 405 3
	lw	a0,-24(s0)
	call	pbuf_free
	j	.L38
.L43:
	.loc 1 364 5 discriminator 1
	nop
.L38:
	.loc 1 406 1
	lw	ra,60(sp)
	.cfi_restore 1
	lw	s0,56(sp)
	.cfi_restore 8
	.cfi_def_cfa 2, 64
	addi	sp,sp,64
	.cfi_def_cfa_offset 0
	jr	ra
	.cfi_endproc
.LFE7:
	.size	icmp_send_response, .-icmp_send_response
	.text
.Letext0:
	.file 2 "/home/chandu/sdk/bl602_iot_sdk/toolchain/compiler/lib/gcc/riscv32-unknown-elf/15.1.0/include/stddef.h"
	.file 3 "/home/chandu/sdk/bl602_iot_sdk/toolchain/compiler/lib/gcc/riscv32-unknown-elf/15.1.0/include/stdint-gcc.h"
	.file 4 "/home/chandu/sdk/bl602_iot_sdk/components/network/lwip/src/include/lwip/arch.h"
	.file 5 "/home/chandu/sdk/bl602_iot_sdk/components/network/lwip/src/include/lwip/err.h"
	.file 6 "/home/chandu/sdk/bl602_iot_sdk/components/network/lwip/src/include/lwip/pbuf.h"
	.file 7 "/home/chandu/sdk/bl602_iot_sdk/components/network/lwip/src/include/lwip/ip4_addr.h"
	.file 8 "/home/chandu/sdk/bl602_iot_sdk/components/network/lwip/src/include/lwip/ip_addr.h"
	.file 9 "/home/chandu/sdk/bl602_iot_sdk/components/network/lwip/src/include/lwip/mem.h"
	.file 10 "/home/chandu/sdk/bl602_iot_sdk/components/network/lwip/src/include/lwip/stats.h"
	.file 11 "/home/chandu/sdk/bl602_iot_sdk/components/network/lwip/src/include/lwip/netif.h"
	.file 12 "/home/chandu/sdk/bl602_iot_sdk/components/network/lwip/src/include/lwip/prot/icmp.h"
	.file 13 "/home/chandu/sdk/bl602_iot_sdk/components/network/lwip/src/include/lwip/icmp.h"
	.file 14 "/home/chandu/sdk/bl602_iot_sdk/components/network/lwip/src/include/lwip/prot/ip4.h"
	.file 15 "/home/chandu/sdk/bl602_iot_sdk/components/network/lwip/src/include/lwip/ip.h"
	.file 16 "/home/chandu/sdk/bl602_iot_sdk/components/network/lwip/src/include/lwip/ip4.h"
	.file 17 "/home/chandu/sdk/bl602_iot_sdk/components/network/lwip/src/include/lwip/inet_chksum.h"
	.file 18 "/home/chandu/sdk/bl602_iot_sdk/toolchain/compiler/riscv32-unknown-elf/include/string.h"
	.section	.note.GNU-stack,"",@progbits
