	.file	"ip4_addr.c"
	.option nopic
	.attribute arch, "rv32i2p1_m2p0_f2p2_c2p0_zicsr2p0_zmmul1p0_zca1p0_zcf1p0"
	.attribute unaligned_access, 0
	.attribute stack_align, 16
	.text
.Ltext0:
	.cfi_sections	.debug_frame
	.file 0 "/home/chandu/sdk/bl602_iot_sdk/customer_app/suas_app_pqkem_gateway/build_out/lwip" "/home/chandu/sdk/bl602_iot_sdk/components/network/lwip/src/core/ipv4/ip4_addr.c"
	.globl	ip_addr_any
	.section	.srodata.ip_addr_any,"a"
	.align	2
	.type	ip_addr_any, @object
	.size	ip_addr_any, 4
ip_addr_any:
	.zero	4
	.globl	ip_addr_broadcast
	.section	.srodata.ip_addr_broadcast,"a"
	.align	2
	.type	ip_addr_broadcast, @object
	.size	ip_addr_broadcast, 4
ip_addr_broadcast:
	.word	-1
	.section	.text.ip4_addr_isbroadcast_u32,"ax",@progbits
	.align	1
	.globl	ip4_addr_isbroadcast_u32
	.type	ip4_addr_isbroadcast_u32, @function
ip4_addr_isbroadcast_u32:
.LFB4:
	.file 1 "/home/chandu/sdk/bl602_iot_sdk/components/network/lwip/src/core/ipv4/ip4_addr.c"
	.loc 1 59 1
	.cfi_startproc
	addi	sp,sp,-48
	.cfi_def_cfa_offset 48
	sw	ra,44(sp)
	sw	s0,40(sp)
	.cfi_offset 1, -4
	.cfi_offset 8, -8
	addi	s0,sp,48
	.cfi_def_cfa 8, 0
	sw	a0,-36(s0)
	sw	a1,-40(s0)
	.loc 1 61 20
	lw	a5,-36(s0)
	sw	a5,-20(s0)
	.loc 1 64 6
	lw	a4,-36(s0)
	li	a5,-1
	beq	a4,a5,.L2
	.loc 1 64 40 discriminator 1
	lw	a5,-36(s0)
	bne	a5,zero,.L3
.L2:
	.loc 1 66 12
	li	a5,1
	j	.L8
.L3:
	.loc 1 68 20
	lw	a5,-40(s0)
	lbu	a5,69(a5)
	.loc 1 68 28
	andi	a5,a5,2
	.loc 1 68 13
	bne	a5,zero,.L5
	.loc 1 71 12
	li	a5,0
	j	.L8
.L5:
	.loc 1 73 45
	lw	a5,-40(s0)
	addi	a5,a5,4
	.loc 1 73 67
	lw	a5,0(a5)
	.loc 1 73 13
	lw	a4,-36(s0)
	bne	a4,a5,.L6
	.loc 1 74 12
	li	a5,0
	j	.L8
.L6:
	.loc 1 76 25
	lw	a4,-20(s0)
	.loc 1 76 112
	lw	a5,-40(s0)
	addi	a5,a5,4
	.loc 1 76 134
	lw	a5,0(a5)
	.loc 1 76 86
	xor	a4,a4,a5
	.loc 1 76 56
	lw	a5,-40(s0)
	addi	a5,a5,8
	.loc 1 76 78
	lw	a5,0(a5)
	.loc 1 76 86
	and	a5,a4,a5
	.loc 1 76 13
	bne	a5,zero,.L7
	.loc 1 78 50
	lw	a5,-40(s0)
	addi	a5,a5,8
	.loc 1 78 72
	lw	a5,0(a5)
	.loc 1 78 26
	not	a4,a5
	.loc 1 78 24
	lw	a5,-36(s0)
	and	a4,a4,a5
	.loc 1 79 67
	lw	a5,-40(s0)
	addi	a5,a5,8
	.loc 1 79 89
	lw	a5,0(a5)
	.loc 1 79 41
	not	a5,a5
	.loc 1 78 14
	bne	a4,a5,.L7
	.loc 1 81 12
	li	a5,1
	j	.L8
.L7:
	.loc 1 83 12
	li	a5,0
.L8:
	.loc 1 85 1
	mv	a0,a5
	lw	ra,44(sp)
	.cfi_restore 1
	lw	s0,40(sp)
	.cfi_restore 8
	.cfi_def_cfa 2, 48
	addi	sp,sp,48
	.cfi_def_cfa_offset 0
	jr	ra
	.cfi_endproc
.LFE4:
	.size	ip4_addr_isbroadcast_u32, .-ip4_addr_isbroadcast_u32
	.section	.text.ip4_addr_netmask_valid,"ax",@progbits
	.align	1
	.globl	ip4_addr_netmask_valid
	.type	ip4_addr_netmask_valid, @function
ip4_addr_netmask_valid:
.LFB5:
	.loc 1 94 1
	.cfi_startproc
	addi	sp,sp,-48
	.cfi_def_cfa_offset 48
	sw	ra,44(sp)
	sw	s0,40(sp)
	.cfi_offset 1, -4
	.cfi_offset 8, -8
	addi	s0,sp,48
	.cfi_def_cfa 8, 0
	sw	a0,-36(s0)
	.loc 1 96 24
	lw	a0,-36(s0)
	call	lwip_htonl
	sw	a0,-24(s0)
	.loc 1 99 13
	li	a5,-2147483648
	sw	a5,-20(s0)
	.loc 1 99 3
	j	.L10
.L13:
	.loc 1 100 23
	lw	a4,-24(s0)
	lw	a5,-20(s0)
	and	a5,a4,a5
	.loc 1 100 8
	beq	a5,zero,.L18
	.loc 1 99 43 discriminator 2
	lw	a5,-20(s0)
	srli	a5,a5,1
	sw	a5,-20(s0)
.L10:
	.loc 1 99 32 discriminator 1
	lw	a5,-20(s0)
	bne	a5,zero,.L13
	j	.L14
.L18:
	.loc 1 101 7
	nop
	.loc 1 105 3
	j	.L14
.L17:
	.loc 1 106 23
	lw	a4,-24(s0)
	lw	a5,-20(s0)
	and	a5,a4,a5
	.loc 1 106 8
	beq	a5,zero,.L15
	.loc 1 108 14
	li	a5,0
	j	.L16
.L15:
	.loc 1 105 26
	lw	a5,-20(s0)
	srli	a5,a5,1
	sw	a5,-20(s0)
.L14:
	.loc 1 105 15 discriminator 1
	lw	a5,-20(s0)
	bne	a5,zero,.L17
	.loc 1 112 10
	li	a5,1
.L16:
	.loc 1 113 1
	mv	a0,a5
	lw	ra,44(sp)
	.cfi_restore 1
	lw	s0,40(sp)
	.cfi_restore 8
	.cfi_def_cfa 2, 48
	addi	sp,sp,48
	.cfi_def_cfa_offset 0
	jr	ra
	.cfi_endproc
.LFE5:
	.size	ip4_addr_netmask_valid, .-ip4_addr_netmask_valid
	.section	.text.ipaddr_addr,"ax",@progbits
	.align	1
	.globl	ipaddr_addr
	.type	ipaddr_addr, @function
ipaddr_addr:
.LFB6:
	.loc 1 124 1
	.cfi_startproc
	addi	sp,sp,-48
	.cfi_def_cfa_offset 48
	sw	ra,44(sp)
	sw	s0,40(sp)
	.cfi_offset 1, -4
	.cfi_offset 8, -8
	addi	s0,sp,48
	.cfi_def_cfa 8, 0
	sw	a0,-36(s0)
	.loc 1 127 7
	addi	a5,s0,-20
	mv	a1,a5
	lw	a0,-36(s0)
	call	ip4addr_aton
	mv	a5,a0
	.loc 1 127 6 discriminator 1
	beq	a5,zero,.L20
	.loc 1 128 19
	lw	a5,-20(s0)
	j	.L22
.L20:
	.loc 1 130 10
	li	a5,-1
.L22:
	.loc 1 131 1
	mv	a0,a5
	lw	ra,44(sp)
	.cfi_restore 1
	lw	s0,40(sp)
	.cfi_restore 8
	.cfi_def_cfa 2, 48
	addi	sp,sp,48
	.cfi_def_cfa_offset 0
	jr	ra
	.cfi_endproc
.LFE6:
	.size	ipaddr_addr, .-ipaddr_addr
	.section	.text.ip4addr_aton,"ax",@progbits
	.align	1
	.globl	ip4addr_aton
	.type	ip4addr_aton, @function
ip4addr_aton:
.LFB7:
	.loc 1 146 1
	.cfi_startproc
	addi	sp,sp,-64
	.cfi_def_cfa_offset 64
	sw	ra,60(sp)
	sw	s0,56(sp)
	.cfi_offset 1, -4
	.cfi_offset 8, -8
	addi	s0,sp,64
	.cfi_def_cfa 8, 0
	sw	a0,-52(s0)
	sw	a1,-56(s0)
	.loc 1 151 10
	addi	a5,s0,-44
	sw	a5,-28(s0)
	.loc 1 153 5
	lw	a5,-52(s0)
	lbu	a5,0(a5)
	sb	a5,-22(s0)
.L40:
	.loc 1 160 13
	lbu	a5,-22(s0)
	.loc 1 160 12
	addi	a4,a5,1
	lui	a5,%hi(_ctype_)
	addi	a5,a5,%lo(_ctype_)
	add	a5,a4,a5
	lbu	a5,0(a5)
	.loc 1 160 12
	andi	a5,a5,4
	.loc 1 160 8
	bne	a5,zero,.L24
	.loc 1 161 14
	li	a5,0
	j	.L58
.L24:
	.loc 1 163 9
	sw	zero,-20(s0)
	.loc 1 164 10
	li	a5,10
	sb	a5,-21(s0)
	.loc 1 165 8
	lbu	a4,-22(s0)
	li	a5,48
	bne	a4,a5,.L35
	.loc 1 166 9
	lw	a5,-52(s0)
	addi	a5,a5,1
	sw	a5,-52(s0)
	lw	a5,-52(s0)
	lbu	a5,0(a5)
	sb	a5,-22(s0)
	.loc 1 167 10
	lbu	a4,-22(s0)
	li	a5,120
	beq	a4,a5,.L27
	.loc 1 167 20 discriminator 1
	lbu	a4,-22(s0)
	li	a5,88
	bne	a4,a5,.L28
.L27:
	.loc 1 168 14
	li	a5,16
	sb	a5,-21(s0)
	.loc 1 169 11
	lw	a5,-52(s0)
	addi	a5,a5,1
	sw	a5,-52(s0)
	lw	a5,-52(s0)
	lbu	a5,0(a5)
	sb	a5,-22(s0)
	j	.L35
.L28:
	.loc 1 171 14
	li	a5,8
	sb	a5,-21(s0)
.L35:
	.loc 1 175 14
	lbu	a5,-22(s0)
	.loc 1 175 13
	addi	a4,a5,1
	lui	a5,%hi(_ctype_)
	addi	a5,a5,%lo(_ctype_)
	add	a5,a4,a5
	lbu	a5,0(a5)
	.loc 1 175 13
	andi	a5,a5,4
	.loc 1 175 10
	beq	a5,zero,.L29
	.loc 1 176 11
	lbu	a4,-21(s0)
	li	a5,8
	bne	a4,a5,.L30
	.loc 1 176 38 discriminator 1
	lbu	a5,-22(s0)
	addi	a5,a5,-48
	.loc 1 176 28 discriminator 1
	mv	a4,a5
	.loc 1 176 24 discriminator 1
	li	a5,7
	bgtu	a4,a5,.L59
.L30:
	.loc 1 178 20
	lbu	a4,-21(s0)
	lw	a5,-20(s0)
	mul	a4,a4,a5
	.loc 1 178 28
	lbu	a5,-22(s0)
	add	a5,a4,a5
	.loc 1 178 13
	addi	a5,a5,-48
	sw	a5,-20(s0)
	.loc 1 179 11
	lw	a5,-52(s0)
	addi	a5,a5,1
	sw	a5,-52(s0)
	lw	a5,-52(s0)
	lbu	a5,0(a5)
	sb	a5,-22(s0)
	j	.L35
.L29:
	.loc 1 180 17
	lbu	a4,-21(s0)
	li	a5,16
	bne	a4,a5,.L31
	.loc 1 180 35 discriminator 1
	lbu	a5,-22(s0)
	.loc 1 180 34 discriminator 1
	addi	a4,a5,1
	lui	a5,%hi(_ctype_)
	addi	a5,a5,%lo(_ctype_)
	add	a5,a4,a5
	lbu	a5,0(a5)
	.loc 1 180 34 discriminator 1
	andi	a5,a5,68
	.loc 1 180 29 discriminator 1
	beq	a5,zero,.L31
	.loc 1 181 20
	lw	a5,-20(s0)
	slli	a4,a5,4
	.loc 1 181 38
	lbu	a5,-22(s0)
	addi	a3,a5,10
	.loc 1 181 49
	lbu	a5,-22(s0)
	.loc 1 181 48
	addi	a2,a5,1
	lui	a5,%hi(_ctype_)
	addi	a5,a5,%lo(_ctype_)
	add	a5,a2,a5
	lbu	a5,0(a5)
	.loc 1 181 48
	andi	a2,a5,3
	.loc 1 181 67
	li	a5,2
	bne	a2,a5,.L33
	.loc 1 181 67 is_stmt 0 discriminator 1
	li	a5,97
	j	.L34
.L33:
	.loc 1 181 67 discriminator 2
	li	a5,65
.L34:
	.loc 1 181 43 is_stmt 1 discriminator 4
	sub	a5,a3,a5
	.loc 1 181 13 discriminator 4
	or	a5,a4,a5
	sw	a5,-20(s0)
	.loc 1 182 11
	lw	a5,-52(s0)
	addi	a5,a5,1
	sw	a5,-52(s0)
	lw	a5,-52(s0)
	lbu	a5,0(a5)
	sb	a5,-22(s0)
	.loc 1 175 10
	j	.L35
.L59:
	.loc 1 177 11
	nop
.L31:
	.loc 1 187 8
	lbu	a4,-22(s0)
	li	a5,46
	bne	a4,a5,.L60
	.loc 1 194 23
	addi	a5,s0,-44
	addi	a5,a5,12
	.loc 1 194 10
	lw	a4,-28(s0)
	bltu	a4,a5,.L37
	.loc 1 195 16
	li	a5,0
	j	.L58
.L37:
	.loc 1 197 10
	lw	a5,-28(s0)
	addi	a4,a5,4
	sw	a4,-28(s0)
	.loc 1 197 13
	lw	a4,-20(s0)
	sw	a4,0(a5)
	.loc 1 198 9
	lw	a5,-52(s0)
	addi	a5,a5,1
	sw	a5,-52(s0)
	lw	a5,-52(s0)
	lbu	a5,0(a5)
	sb	a5,-22(s0)
	.loc 1 160 8
	j	.L40
.L60:
	.loc 1 200 7
	nop
	.loc 1 206 6
	lbu	a5,-22(s0)
	beq	a5,zero,.L41
	.loc 1 206 24 discriminator 1
	lbu	a5,-22(s0)
	.loc 1 206 23 discriminator 1
	addi	a4,a5,1
	lui	a5,%hi(_ctype_)
	addi	a5,a5,%lo(_ctype_)
	add	a5,a4,a5
	lbu	a5,0(a5)
	.loc 1 206 23 discriminator 1
	andi	a5,a5,8
	.loc 1 206 17 discriminator 1
	bne	a5,zero,.L41
	.loc 1 207 12
	li	a5,0
	j	.L58
.L41:
	.loc 1 213 14
	addi	a5,s0,-44
	lw	a4,-28(s0)
	sub	a5,a4,a5
	srai	a5,a5,2
	.loc 1 213 22
	addi	a5,a5,1
	.loc 1 213 3
	li	a4,4
	beq	a5,a4,.L42
	li	a4,4
	bgt	a5,a4,.L61
	li	a4,3
	beq	a5,a4,.L44
	li	a4,3
	bgt	a5,a4,.L61
	li	a4,2
	beq	a5,a4,.L45
	li	a4,2
	bgt	a5,a4,.L61
	beq	a5,zero,.L46
	li	a4,1
	beq	a5,a4,.L62
	.loc 1 252 7
	j	.L61
.L46:
	.loc 1 216 14
	li	a5,0
	j	.L58
.L45:
	.loc 1 222 10
	lw	a4,-20(s0)
	li	a5,16777216
	bltu	a4,a5,.L49
	.loc 1 223 16
	li	a5,0
	j	.L58
.L49:
	.loc 1 225 16
	lw	a4,-44(s0)
	.loc 1 225 10
	li	a5,255
	bleu	a4,a5,.L50
	.loc 1 226 16
	li	a5,0
	j	.L58
.L50:
	.loc 1 228 19
	lw	a5,-44(s0)
	.loc 1 228 23
	slli	a5,a5,24
	.loc 1 228 11
	lw	a4,-20(s0)
	or	a5,a4,a5
	sw	a5,-20(s0)
	.loc 1 229 7
	j	.L48
.L44:
	.loc 1 232 10
	lw	a4,-20(s0)
	li	a5,65536
	bltu	a4,a5,.L51
	.loc 1 233 16
	li	a5,0
	j	.L58
.L51:
	.loc 1 235 17
	lw	a4,-44(s0)
	.loc 1 235 10
	li	a5,255
	bgtu	a4,a5,.L52
	.loc 1 235 38 discriminator 1
	lw	a4,-40(s0)
	.loc 1 235 29 discriminator 1
	li	a5,255
	bleu	a4,a5,.L53
.L52:
	.loc 1 236 16
	li	a5,0
	j	.L58
.L53:
	.loc 1 238 20
	lw	a5,-44(s0)
	.loc 1 238 24
	slli	a4,a5,24
	.loc 1 238 39
	lw	a5,-40(s0)
	.loc 1 238 43
	slli	a5,a5,16
	.loc 1 238 31
	or	a5,a4,a5
	.loc 1 238 11
	lw	a4,-20(s0)
	or	a5,a4,a5
	sw	a5,-20(s0)
	.loc 1 239 7
	j	.L48
.L42:
	.loc 1 242 10
	lw	a4,-20(s0)
	li	a5,255
	bleu	a4,a5,.L54
	.loc 1 243 16
	li	a5,0
	j	.L58
.L54:
	.loc 1 245 17
	lw	a4,-44(s0)
	.loc 1 245 10
	li	a5,255
	bgtu	a4,a5,.L55
	.loc 1 245 38 discriminator 1
	lw	a4,-40(s0)
	.loc 1 245 29 discriminator 1
	li	a5,255
	bgtu	a4,a5,.L55
	.loc 1 245 59 discriminator 2
	lw	a4,-36(s0)
	.loc 1 245 50 discriminator 2
	li	a5,255
	bleu	a4,a5,.L56
.L55:
	.loc 1 246 16
	li	a5,0
	j	.L58
.L56:
	.loc 1 248 20
	lw	a5,-44(s0)
	.loc 1 248 24
	slli	a4,a5,24
	.loc 1 248 39
	lw	a5,-40(s0)
	.loc 1 248 43
	slli	a5,a5,16
	.loc 1 248 31
	or	a4,a4,a5
	.loc 1 248 58
	lw	a5,-36(s0)
	.loc 1 248 62
	slli	a5,a5,8
	.loc 1 248 50
	or	a5,a4,a5
	.loc 1 248 11
	lw	a4,-20(s0)
	or	a5,a4,a5
	sw	a5,-20(s0)
	.loc 1 249 7
	j	.L48
.L61:
	.loc 1 252 7
	nop
	j	.L48
.L62:
	.loc 1 219 7
	nop
.L48:
	.loc 1 254 6
	lw	a5,-56(s0)
	beq	a5,zero,.L57
	.loc 1 255 22
	lw	a0,-20(s0)
	call	lwip_htonl
	mv	a4,a0
	.loc 1 255 19 discriminator 1
	lw	a5,-56(s0)
	sw	a4,0(a5)
.L57:
	.loc 1 257 10
	li	a5,1
.L58:
	.loc 1 258 1
	mv	a0,a5
	lw	ra,60(sp)
	.cfi_restore 1
	lw	s0,56(sp)
	.cfi_restore 8
	.cfi_def_cfa 2, 64
	addi	sp,sp,64
	.cfi_def_cfa_offset 0
	jr	ra
	.cfi_endproc
.LFE7:
	.size	ip4addr_aton, .-ip4addr_aton
	.section	.text.ip4addr_ntoa,"ax",@progbits
	.align	1
	.globl	ip4addr_ntoa
	.type	ip4addr_ntoa, @function
ip4addr_ntoa:
.LFB8:
	.loc 1 270 1
	.cfi_startproc
	addi	sp,sp,-32
	.cfi_def_cfa_offset 32
	sw	ra,28(sp)
	sw	s0,24(sp)
	.cfi_offset 1, -4
	.cfi_offset 8, -8
	addi	s0,sp,32
	.cfi_def_cfa 8, 0
	sw	a0,-20(s0)
	.loc 1 272 10
	li	a2,16
	lui	a5,%hi(str.0)
	addi	a1,a5,%lo(str.0)
	lw	a0,-20(s0)
	call	ip4addr_ntoa_r
	mv	a5,a0
	.loc 1 273 1
	mv	a0,a5
	lw	ra,28(sp)
	.cfi_restore 1
	lw	s0,24(sp)
	.cfi_restore 8
	.cfi_def_cfa 2, 32
	addi	sp,sp,32
	.cfi_def_cfa_offset 0
	jr	ra
	.cfi_endproc
.LFE8:
	.size	ip4addr_ntoa, .-ip4addr_ntoa
	.section	.text.ip4addr_ntoa_r,"ax",@progbits
	.align	1
	.globl	ip4addr_ntoa_r
	.type	ip4addr_ntoa_r, @function
ip4addr_ntoa_r:
.LFB9:
	.loc 1 286 1
	.cfi_startproc
	addi	sp,sp,-64
	.cfi_def_cfa_offset 64
	sw	ra,60(sp)
	sw	s0,56(sp)
	.cfi_offset 1, -4
	.cfi_offset 8, -8
	addi	s0,sp,64
	.cfi_def_cfa 8, 0
	sw	a0,-52(s0)
	sw	a1,-56(s0)
	sw	a2,-60(s0)
	.loc 1 294 7
	sw	zero,-32(s0)
	.loc 1 296 19
	lw	a5,-52(s0)
	lw	a5,0(a5)
	.loc 1 296 10
	sw	a5,-40(s0)
	.loc 1 298 6
	lw	a5,-56(s0)
	sw	a5,-20(s0)
	.loc 1 299 6
	addi	a5,s0,-40
	sw	a5,-24(s0)
	.loc 1 300 10
	sb	zero,-25(s0)
	.loc 1 300 3
	j	.L66
.L73:
	.loc 1 301 7
	sb	zero,-26(s0)
.L67:
	.loc 1 303 13
	lw	a5,-24(s0)
	lbu	a4,0(a5)
	.loc 1 303 11
	li	a5,-858992640
	addi	a5,a5,-819
	mulhu	a5,a4,a5
	srli	a3,a5,3
	mv	a5,a3
	slli	a5,a5,2
	add	a5,a5,a3
	slli	a5,a5,1
	sub	a5,a4,a5
	sb	a5,-33(s0)
	.loc 1 304 7
	lw	a5,-24(s0)
	lbu	a4,0(a5)
	.loc 1 304 11
	li	a5,-858992640
	addi	a5,a5,-819
	mulhu	a5,a4,a5
	srli	a5,a5,3
	andi	a4,a5,0xff
	lw	a5,-24(s0)
	sb	a4,0(a5)
	.loc 1 305 12
	lbu	a5,-26(s0)
	addi	a4,a5,1
	sb	a4,-26(s0)
	.loc 1 305 18
	lbu	a4,-33(s0)
	addi	a4,a4,48
	andi	a4,a4,0xff
	.loc 1 305 16
	addi	a5,a5,-16
	add	a5,a5,s0
	sb	a4,-28(a5)
	.loc 1 306 14 discriminator 1
	lw	a5,-24(s0)
	lbu	a5,0(a5)
	bne	a5,zero,.L67
	.loc 1 307 11
	j	.L68
.L71:
	.loc 1 308 14
	lw	a5,-32(s0)
	addi	a4,a5,1
	sw	a4,-32(s0)
	.loc 1 308 10
	lw	a4,-60(s0)
	bgt	a4,a5,.L69
	.loc 1 309 15
	li	a5,0
	j	.L74
.L69:
	.loc 1 311 18
	lbu	a4,-26(s0)
	.loc 1 311 10
	lw	a5,-20(s0)
	addi	a3,a5,1
	sw	a3,-20(s0)
	.loc 1 311 18
	addi	a4,a4,-16
	add	a4,a4,s0
	lbu	a4,-28(a4)
	.loc 1 311 13
	sb	a4,0(a5)
.L68:
	.loc 1 307 13
	lbu	a5,-26(s0)
	addi	a4,a5,-1
	sb	a4,-26(s0)
	.loc 1 307 12
	bne	a5,zero,.L71
	.loc 1 313 12
	lw	a5,-32(s0)
	addi	a4,a5,1
	sw	a4,-32(s0)
	.loc 1 313 8
	lw	a4,-60(s0)
	bgt	a4,a5,.L72
	.loc 1 314 13
	li	a5,0
	j	.L74
.L72:
	.loc 1 316 8
	lw	a5,-20(s0)
	addi	a4,a5,1
	sw	a4,-20(s0)
	.loc 1 316 11
	li	a4,46
	sb	a4,0(a5)
	.loc 1 317 7
	lw	a5,-24(s0)
	addi	a5,a5,1
	sw	a5,-24(s0)
	.loc 1 300 23 discriminator 2
	lbu	a5,-25(s0)
	addi	a5,a5,1
	sb	a5,-25(s0)
.L66:
	.loc 1 300 17 discriminator 1
	lbu	a4,-25(s0)
	li	a5,3
	bleu	a4,a5,.L73
	.loc 1 319 9
	lw	a5,-20(s0)
	addi	a5,a5,-1
	sw	a5,-20(s0)
	lw	a5,-20(s0)
	sb	zero,0(a5)
	.loc 1 320 10
	lw	a5,-56(s0)
.L74:
	.loc 1 321 1
	mv	a0,a5
	lw	ra,60(sp)
	.cfi_restore 1
	lw	s0,56(sp)
	.cfi_restore 8
	.cfi_def_cfa 2, 64
	addi	sp,sp,64
	.cfi_def_cfa_offset 0
	jr	ra
	.cfi_endproc
.LFE9:
	.size	ip4addr_ntoa_r, .-ip4addr_ntoa_r
	.section	.bss.str.0,"aw",@nobits
	.align	2
	.type	str.0, @object
	.size	str.0, 16
str.0:
	.zero	16
	.text
.Letext0:
	.file 2 "/home/chandu/sdk/bl602_iot_sdk/toolchain/compiler/lib/gcc/riscv32-unknown-elf/15.1.0/include/stdint-gcc.h"
	.file 3 "/home/chandu/sdk/bl602_iot_sdk/components/network/lwip/src/include/lwip/arch.h"
	.file 4 "/home/chandu/sdk/bl602_iot_sdk/components/network/lwip/src/include/lwip/ip4_addr.h"
	.file 5 "/home/chandu/sdk/bl602_iot_sdk/components/network/lwip/src/include/lwip/ip_addr.h"
	.file 6 "/home/chandu/sdk/bl602_iot_sdk/toolchain/compiler/riscv32-unknown-elf/include/ctype.h"
	.file 7 "/home/chandu/sdk/bl602_iot_sdk/components/network/lwip/src/include/lwip/err.h"
	.file 8 "/home/chandu/sdk/bl602_iot_sdk/components/network/lwip/src/include/lwip/pbuf.h"
	.file 9 "/home/chandu/sdk/bl602_iot_sdk/components/network/lwip/src/include/lwip/netif.h"
	.file 10 "/home/chandu/sdk/bl602_iot_sdk/components/network/lwip/src/include/lwip/memp.h"
	.file 11 "/home/chandu/sdk/bl602_iot_sdk/components/network/lwip/src/include/lwip/def.h"
	.section	.note.GNU-stack,"",@progbits
