	.file	"xz_decompress.c"
	.option nopic
	.attribute arch, "rv32i2p1_m2p0_f2p2_c2p0_zicsr2p0_zmmul1p0_zca1p0_zcf1p0"
	.attribute unaligned_access, 0
	.attribute stack_align, 16
	.text
.Ltext0:
	.cfi_sections	.debug_frame
	.file 0 "/home/chandu/sdk/bl602_iot_sdk/customer_app/suas_app_pqkem_gateway/build_out/bl602_std" "/home/chandu/sdk/bl602_iot_sdk/components/bl602/bl602_std/bl602_std/Common/xz/xz_decompress.c"
	.section	.sbss.s,"aw",@nobits
	.align	2
	.type	s, @object
	.size	s, 4
s:
	.zero	4
	.section	.text.xz_uncompress_init,"ax",@progbits
	.align	1
	.globl	xz_uncompress_init
	.type	xz_uncompress_init, @function
xz_uncompress_init:
.LFB1:
	.file 1 "/home/chandu/sdk/bl602_iot_sdk/components/bl602/bl602_std/bl602_std/Common/xz/xz_decompress.c"
	.loc 1 9 1
	.cfi_startproc
	addi	sp,sp,-32
	.cfi_def_cfa_offset 32
	sw	ra,28(sp)
	sw	s0,24(sp)
	.cfi_offset 1, -4
	.cfi_offset 8, -8
	addi	s0,sp,32
	.cfi_def_cfa 8, 0
	sw	a0,-20(s0)
	sw	a1,-24(s0)
	sw	a2,-28(s0)
	.loc 1 10 5
	call	xz_crc32_init
	.loc 1 16 9
	li	a1,32768
	li	a0,2
	call	xz_dec_init
	mv	a4,a0
	.loc 1 16 7 discriminator 1
	lui	a5,%hi(s)
	sw	a4,%lo(s)(a5)
	.loc 1 17 11
	lui	a5,%hi(s)
	lw	a5,%lo(s)(a5)
	.loc 1 17 8
	bne	a5,zero,.L2
	.loc 1 18 20
	li	a5,1
	j	.L3
.L2:
	.loc 1 21 16
	lw	a5,-20(s0)
	lw	a4,-24(s0)
	sw	a4,0(a5)
	.loc 1 22 20
	lw	a5,-20(s0)
	sw	zero,4(a5)
	.loc 1 23 21
	lw	a5,-20(s0)
	sw	zero,8(a5)
	.loc 1 24 17
	lw	a5,-20(s0)
	lw	a4,-28(s0)
	sw	a4,12(a5)
	.loc 1 25 21
	lw	a5,-20(s0)
	sw	zero,16(a5)
	.loc 1 26 22
	lw	a5,-20(s0)
	sw	zero,20(a5)
	.loc 1 28 12
	li	a5,0
.L3:
	.loc 1 29 1
	mv	a0,a5
	lw	ra,28(sp)
	.cfi_restore 1
	lw	s0,24(sp)
	.cfi_restore 8
	.cfi_def_cfa 2, 32
	addi	sp,sp,32
	.cfi_def_cfa_offset 0
	jr	ra
	.cfi_endproc
.LFE1:
	.size	xz_uncompress_init, .-xz_uncompress_init
	.section	.text.xz_uncompress_stream,"ax",@progbits
	.align	1
	.globl	xz_uncompress_stream
	.type	xz_uncompress_stream, @function
xz_uncompress_stream:
.LFB2:
	.loc 1 33 1
	.cfi_startproc
	addi	sp,sp,-64
	.cfi_def_cfa_offset 64
	sw	ra,60(sp)
	sw	s0,56(sp)
	.cfi_offset 1, -4
	.cfi_offset 8, -8
	addi	s0,sp,64
	.cfi_def_cfa 8, 0
	sw	a0,-36(s0)
	sw	a1,-40(s0)
	sw	a2,-44(s0)
	sw	a3,-48(s0)
	sw	a4,-52(s0)
	sw	a5,-56(s0)
	.loc 1 35 17
	lw	a5,-56(s0)
	sw	zero,0(a5)
	.loc 1 37 15
	lw	a5,-36(s0)
	lw	a4,4(a5)
	.loc 1 37 33
	lw	a5,-36(s0)
	lw	a5,8(a5)
	.loc 1 37 8
	bne	a4,a5,.L5
	.loc 1 38 25
	lw	a5,-36(s0)
	lw	a4,-44(s0)
	sw	a4,8(a5)
	.loc 1 39 28
	lw	a5,-36(s0)
	sw	zero,4(a5)
.L5:
	.loc 1 42 15
	lw	a5,-36(s0)
	lw	a4,16(a5)
	.loc 1 42 34
	lw	a5,-36(s0)
	lw	a5,20(a5)
	.loc 1 42 8
	bne	a4,a5,.L6
	.loc 1 43 30
	lw	a5,-36(s0)
	lw	a4,-52(s0)
	sw	a4,20(a5)
	.loc 1 44 25
	lw	a5,-36(s0)
	sw	zero,16(a5)
.L6:
	.loc 1 47 14
	lui	a5,%hi(s)
	lw	a5,%lo(s)(a5)
	lw	a1,-36(s0)
	mv	a0,a5
	call	xz_dec_run
	mv	a5,a0
	.loc 1 47 12 discriminator 1
	sw	a5,-20(s0)
	.loc 1 49 8
	lw	a4,-20(s0)
	li	a5,1
	beq	a4,a5,.L7
	.loc 1 49 45 discriminator 1
	lw	a5,-36(s0)
	lw	a4,16(a5)
	.loc 1 49 64 discriminator 1
	lw	a5,-36(s0)
	lw	a5,20(a5)
	.loc 1 49 35 discriminator 1
	bne	a4,a5,.L8
.L7:
	.loc 1 50 29
	lw	a5,-36(s0)
	lw	a4,16(a5)
	.loc 1 50 21
	lw	a5,-56(s0)
	sw	a4,0(a5)
.L8:
	.loc 1 52 12
	lw	a5,-20(s0)
	.loc 1 53 1
	mv	a0,a5
	lw	ra,60(sp)
	.cfi_restore 1
	lw	s0,56(sp)
	.cfi_restore 8
	.cfi_def_cfa 2, 64
	addi	sp,sp,64
	.cfi_def_cfa_offset 0
	jr	ra
	.cfi_endproc
.LFE2:
	.size	xz_uncompress_stream, .-xz_uncompress_stream
	.section	.text.xz_uncompress_end,"ax",@progbits
	.align	1
	.globl	xz_uncompress_end
	.type	xz_uncompress_end, @function
xz_uncompress_end:
.LFB3:
	.loc 1 56 1
	.cfi_startproc
	addi	sp,sp,-16
	.cfi_def_cfa_offset 16
	sw	ra,12(sp)
	sw	s0,8(sp)
	.cfi_offset 1, -4
	.cfi_offset 8, -8
	addi	s0,sp,16
	.cfi_def_cfa 8, 0
	.loc 1 57 5
	lui	a5,%hi(s)
	lw	a5,%lo(s)(a5)
	mv	a0,a5
	call	xz_dec_end
	.loc 1 58 1
	nop
	lw	ra,12(sp)
	.cfi_restore 1
	lw	s0,8(sp)
	.cfi_restore 8
	.cfi_def_cfa 2, 16
	addi	sp,sp,16
	.cfi_def_cfa_offset 0
	jr	ra
	.cfi_endproc
.LFE3:
	.size	xz_uncompress_end, .-xz_uncompress_end
	.text
.Letext0:
	.file 2 "/home/chandu/sdk/bl602_iot_sdk/toolchain/compiler/lib/gcc/riscv32-unknown-elf/15.1.0/include/stddef.h"
	.file 3 "/home/chandu/sdk/bl602_iot_sdk/toolchain/compiler/lib/gcc/riscv32-unknown-elf/15.1.0/include/stdint-gcc.h"
	.file 4 "/home/chandu/sdk/bl602_iot_sdk/components/bl602/bl602_std/bl602_std/Common/xz/xz.h"
	.section	.note.GNU-stack,"",@progbits
