	.file	"bl_adc.c"
	.option nopic
	.attribute arch, "rv32i2p1_m2p0_f2p2_c2p0_zicsr2p0_zmmul1p0_zca1p0_zcf1p0"
	.attribute unaligned_access, 0
	.attribute stack_align, 16
	.text
.Ltext0:
	.cfi_sections	.debug_frame
	.file 0 "/home/chandu/sdk/bl602_iot_sdk/customer_app/suas_app_pqkem_gateway/build_out/hal_drv" "/home/chandu/sdk/bl602_iot_sdk/components/hal_drv/bl602_hal/bl_adc.c"
	.globl	adcCfg
	.section	.data.adcCfg,"aw"
	.align	2
	.type	adcCfg, @object
	.size	adcCfg, 14
adcCfg:
	.byte	2
	.byte	1
	.byte	4
	.byte	0
	.byte	0
	.byte	2
	.byte	0
	.byte	0
	.byte	1
	.byte	0
	.byte	4
	.byte	0
	.half	0
	.globl	adcFifoCfg
	.section	.sbss.adcFifoCfg,"aw",@nobits
	.align	2
	.type	adcFifoCfg, @object
	.size	adcFifoCfg, 2
adcFifoCfg:
	.zero	2
	.section	.text.ADC_Clock_Init,"ax",@progbits
	.align	1
	.globl	ADC_Clock_Init
	.type	ADC_Clock_Init, @function
ADC_Clock_Init:
.LFB27:
	.file 1 "/home/chandu/sdk/bl602_iot_sdk/components/hal_drv/bl602_hal/bl_adc.c"
	.loc 1 78 1
	.cfi_startproc
	addi	sp,sp,-32
	.cfi_def_cfa_offset 32
	sw	ra,28(sp)
	sw	s0,24(sp)
	.cfi_offset 1, -4
	.cfi_offset 8, -8
	addi	s0,sp,32
	.cfi_def_cfa 8, 0
	mv	a5,a0
	sb	a5,-17(s0)
	.loc 1 79 5
	lbu	a5,-17(s0)
	mv	a2,a5
	li	a1,0
	li	a0,1
	call	GLB_Set_ADC_CLK
	.loc 1 81 1
	nop
	lw	ra,28(sp)
	.cfi_restore 1
	lw	s0,24(sp)
	.cfi_restore 8
	.cfi_def_cfa 2, 32
	addi	sp,sp,32
	.cfi_def_cfa_offset 0
	jr	ra
	.cfi_endproc
.LFE27:
	.size	ADC_Clock_Init, .-ADC_Clock_Init
	.section	.text.TSEN_Calibration,"ax",@progbits
	.align	1
	.globl	TSEN_Calibration
	.type	TSEN_Calibration, @function
TSEN_Calibration:
.LFB28:
	.loc 1 84 1
	.cfi_startproc
	addi	sp,sp,-16
	.cfi_def_cfa_offset 16
	sw	ra,12(sp)
	sw	s0,8(sp)
	.cfi_offset 1, -4
	.cfi_offset 8, -8
	addi	s0,sp,16
	.cfi_def_cfa 8, 0
	.loc 1 85 5
	call	ADC_SET_TSVBE_LOW
	.loc 1 86 5
	call	ADC_Start
	.loc 1 87 5
	li	a0,100
	call	BL602_Delay_MS
	.loc 1 88 10
	nop
.L3:
	.loc 1 88 11 discriminator 2
	call	ADC_Get_FIFO_Count
	mv	a5,a0
	.loc 1 88 32 discriminator 2
	beq	a5,zero,.L3
	.loc 1 89 5
	call	ADC_Read_FIFO
	.loc 1 91 5
	call	ADC_SET_TSVBE_HIGH
	.loc 1 92 5
	call	ADC_Start
	.loc 1 93 5
	li	a0,100
	call	BL602_Delay_MS
	.loc 1 94 10
	nop
.L4:
	.loc 1 94 11 discriminator 2
	call	ADC_Get_FIFO_Count
	mv	a5,a0
	.loc 1 94 32 discriminator 2
	beq	a5,zero,.L4
	.loc 1 95 5
	call	ADC_Read_FIFO
	.loc 1 97 5
	call	ADC_SET_TSVBE_LOW
	.loc 1 98 1
	nop
	lw	ra,12(sp)
	.cfi_restore 1
	lw	s0,8(sp)
	.cfi_restore 8
	.cfi_def_cfa 2, 16
	addi	sp,sp,16
	.cfi_def_cfa_offset 0
	jr	ra
	.cfi_endproc
.LFE28:
	.size	TSEN_Calibration, .-TSEN_Calibration
	.section	.text.ADC_tsen_case,"ax",@progbits
	.align	1
	.type	ADC_tsen_case, @function
ADC_tsen_case:
.LFB29:
	.loc 1 101 1
	.cfi_startproc
	addi	sp,sp,-48
	.cfi_def_cfa_offset 48
	sw	ra,44(sp)
	sw	s0,40(sp)
	.cfi_offset 1, -4
	.cfi_offset 8, -8
	addi	s0,sp,48
	.cfi_def_cfa 8, 0
	.loc 1 103 14
	sw	zero,-44(s0)
	.loc 1 104 13
	sb	zero,-17(s0)
	.loc 1 105 14
	sw	zero,-24(s0)
	.loc 1 105 19
	sw	zero,-28(s0)
	.loc 1 106 11
	sw	zero,-32(s0)
	.loc 1 108 5
	call	ADC_Reset
	.loc 1 110 5
	call	ADC_Disable
	.loc 1 111 5
	call	ADC_Enable
	.loc 1 113 5
	lui	a5,%hi(adcCfg)
	addi	a0,a5,%lo(adcCfg)
	call	ADC_Init
	.loc 1 114 5
	li	a2,0
	li	a1,23
	li	a0,14
	call	ADC_Channel_Config
	.loc 1 115 5
	li	a0,0
	call	ADC_Tsen_Init
	.loc 1 117 5
	lui	a5,%hi(adcFifoCfg)
	addi	a0,a5,%lo(adcFifoCfg)
	call	ADC_FIFO_Cfg
	.loc 1 118 5
	call	TSEN_Calibration
	.loc 1 120 10
	sb	zero,-17(s0)
	.loc 1 120 5
	j	.L6
.L14:
	.loc 1 121 9
	call	ADC_Start
	.loc 1 123 14
	nop
.L7:
	.loc 1 123 15 discriminator 2
	call	ADC_Get_FIFO_Count
	mv	a5,a0
	.loc 1 123 36 discriminator 2
	beq	a5,zero,.L7
.L10:
	.loc 1 126 22
	call	ADC_Read_FIFO
	mv	a5,a0
	.loc 1 126 20 discriminator 1
	sw	a5,-44(s0)
	.loc 1 127 13
	addi	a4,s0,-40
	addi	a5,s0,-44
	mv	a2,a4
	li	a1,1
	mv	a0,a5
	call	ADC_Parse_Result
	.loc 1 129 20
	lbu	a5,-17(s0)
	andi	a5,a5,1
	andi	a5,a5,0xff
	.loc 1 129 15
	bne	a5,zero,.L8
	.loc 1 130 28
	lhu	a5,-38(s0)
	.loc 1 130 20
	sw	a5,-24(s0)
	j	.L9
.L8:
	.loc 1 132 28
	lhu	a5,-38(s0)
	.loc 1 132 20
	sw	a5,-28(s0)
.L9:
	.loc 1 134 16
	call	ADC_Get_FIFO_Count
	mv	a5,a0
	.loc 1 134 37 discriminator 1
	bne	a5,zero,.L10
	.loc 1 136 16
	lbu	a5,-17(s0)
	andi	a5,a5,1
	andi	a5,a5,0xff
	.loc 1 136 11
	beq	a5,zero,.L11
	.loc 1 137 25
	lw	a5,-24(s0)
	fcvt.s.wu	fa4,a5
	.loc 1 137 37
	lw	a5,-28(s0)
	fcvt.s.wu	fa5,a5
	.loc 1 137 23
	fsub.s	fa5,fa4,fa5
	fsw	fa5,-32(s0)
	.loc 1 138 23
	flw	fa4,-32(s0)
	lui	a5,%hi(.LC1)
	flw	fa5,%lo(.LC1)(a5)
	fsub.s	fa5,fa4,fa5
	fsw	fa5,-32(s0)
	.loc 1 139 33
	flw	fa0,-32(s0)
	call	__extendsfdf2
	mv	a4,a0
	mv	a5,a1
	lui	a3,%hi(.LC2)
	lw	a2,%lo(.LC2)(a3)
	lw	a3,%lo(.LC2+4)(a3)
	mv	a0,a4
	mv	a1,a5
	call	__divdf3
	mv	a4,a0
	mv	a5,a1
	.loc 1 139 23
	mv	a0,a4
	mv	a1,a5
	call	__truncdfsf2
	fmv.s	fa5,fa0
	fsw	fa5,-32(s0)
.L11:
	.loc 1 144 17
	lbu	a5,-17(s0)
	andi	a5,a5,1
	andi	a5,a5,0xff
	.loc 1 144 11
	bne	a5,zero,.L12
	.loc 1 145 13
	call	ADC_SET_TSVBE_HIGH
	j	.L13
.L12:
	.loc 1 147 13
	call	ADC_SET_TSVBE_LOW
.L13:
	.loc 1 149 9
	li	a0,500
	call	BL602_Delay_MS
	.loc 1 120 19 discriminator 2
	lbu	a5,-17(s0)
	addi	a5,a5,1
	sb	a5,-17(s0)
.L6:
	.loc 1 120 14 discriminator 1
	lbu	a4,-17(s0)
	li	a5,39
	bleu	a4,a5,.L14
	.loc 1 151 1
	nop
	nop
	lw	ra,44(sp)
	.cfi_restore 1
	lw	s0,40(sp)
	.cfi_restore 8
	.cfi_def_cfa 2, 48
	addi	sp,sp,48
	.cfi_def_cfa_offset 0
	jr	ra
	.cfi_endproc
.LFE29:
	.size	ADC_tsen_case, .-ADC_tsen_case
	.section	.text.test_adc_init,"ax",@progbits
	.align	1
	.globl	test_adc_init
	.type	test_adc_init, @function
test_adc_init:
.LFB30:
	.loc 1 155 1
	.cfi_startproc
	addi	sp,sp,-16
	.cfi_def_cfa_offset 16
	sw	ra,12(sp)
	sw	s0,8(sp)
	.cfi_offset 1, -4
	.cfi_offset 8, -8
	addi	s0,sp,16
	.cfi_def_cfa 8, 0
	.loc 1 156 5
	li	a0,2
	call	ADC_Clock_Init
	.loc 1 158 5
	call	ADC_Reset
	.loc 1 160 5
	call	ADC_Disable
	.loc 1 161 5
	call	ADC_Enable
	.loc 1 163 5
	lui	a5,%hi(adcCfg)
	addi	a0,a5,%lo(adcCfg)
	call	ADC_Init
	.loc 1 164 5
	li	a2,0
	li	a1,23
	li	a0,14
	call	ADC_Channel_Config
	.loc 1 165 5
	li	a0,0
	call	ADC_Tsen_Init
	.loc 1 167 5
	lui	a5,%hi(adcFifoCfg)
	addi	a0,a5,%lo(adcFifoCfg)
	call	ADC_FIFO_Cfg
	.loc 1 168 5
	call	TSEN_Calibration
	.loc 1 170 12
	li	a5,0
	.loc 1 171 1
	mv	a0,a5
	lw	ra,12(sp)
	.cfi_restore 1
	lw	s0,8(sp)
	.cfi_restore 8
	.cfi_def_cfa 2, 16
	addi	sp,sp,16
	.cfi_def_cfa_offset 0
	jr	ra
	.cfi_endproc
.LFE30:
	.size	test_adc_init, .-test_adc_init
	.section	.text.test_adc_get,"ax",@progbits
	.align	1
	.globl	test_adc_get
	.type	test_adc_get, @function
test_adc_get:
.LFB31:
	.loc 1 174 1
	.cfi_startproc
	addi	sp,sp,-64
	.cfi_def_cfa_offset 64
	sw	ra,60(sp)
	sw	s0,56(sp)
	.cfi_offset 1, -4
	.cfi_offset 8, -8
	addi	s0,sp,64
	.cfi_def_cfa 8, 0
	sw	a0,-52(s0)
	.loc 1 176 14
	sw	zero,-44(s0)
	.loc 1 177 13
	sb	zero,-17(s0)
	.loc 1 178 14
	sw	zero,-24(s0)
	.loc 1 178 19
	sw	zero,-28(s0)
	.loc 1 179 11
	sw	zero,-32(s0)
	.loc 1 181 12
	sb	zero,-17(s0)
	.loc 1 181 5
	j	.L18
.L27:
	.loc 1 182 9
	call	ADC_Start
	.loc 1 184 14
	j	.L19
.L20:
.LBB7:
	.loc 1 186 13
	li	a0,1
	call	aos_msleep
.L19:
.LBE7:
	.loc 1 184 15
	call	ADC_Get_FIFO_Count
	mv	a5,a0
	.loc 1 184 36 discriminator 1
	beq	a5,zero,.L20
.L23:
	.loc 1 190 22
	call	ADC_Read_FIFO
	mv	a5,a0
	.loc 1 190 20 discriminator 1
	sw	a5,-44(s0)
	.loc 1 191 13
	addi	a4,s0,-40
	addi	a5,s0,-44
	mv	a2,a4
	li	a1,1
	mv	a0,a5
	call	ADC_Parse_Result
	.loc 1 193 20
	lbu	a5,-17(s0)
	andi	a5,a5,1
	andi	a5,a5,0xff
	.loc 1 193 15
	bne	a5,zero,.L21
	.loc 1 194 28
	lhu	a5,-38(s0)
	.loc 1 194 20
	sw	a5,-24(s0)
	j	.L22
.L21:
	.loc 1 196 28
	lhu	a5,-38(s0)
	.loc 1 196 20
	sw	a5,-28(s0)
.L22:
	.loc 1 198 17
	call	ADC_Get_FIFO_Count
	mv	a5,a0
	.loc 1 198 38 discriminator 1
	bne	a5,zero,.L23
	.loc 1 200 17
	lbu	a5,-17(s0)
	andi	a5,a5,1
	andi	a5,a5,0xff
	.loc 1 200 12
	beq	a5,zero,.L24
	.loc 1 201 23
	lw	a5,-24(s0)
	fcvt.s.wu	fa4,a5
	.loc 1 201 35
	lw	a5,-28(s0)
	fcvt.s.wu	fa5,a5
	.loc 1 201 21
	fsub.s	fa5,fa4,fa5
	fsw	fa5,-32(s0)
	.loc 1 203 21
	flw	fa4,-32(s0)
	lui	a5,%hi(.LC1)
	flw	fa5,%lo(.LC1)(a5)
	fsub.s	fa5,fa4,fa5
	fsw	fa5,-32(s0)
	.loc 1 204 31
	flw	fa0,-32(s0)
	call	__extendsfdf2
	mv	a4,a0
	mv	a5,a1
	lui	a3,%hi(.LC2)
	lw	a2,%lo(.LC2)(a3)
	lw	a3,%lo(.LC2+4)(a3)
	mv	a0,a4
	mv	a1,a5
	call	__divdf3
	mv	a4,a0
	mv	a5,a1
	.loc 1 204 21
	mv	a0,a4
	mv	a1,a5
	call	__truncdfsf2
	fmv.s	fa5,fa0
	fsw	fa5,-32(s0)
	.loc 1 207 20
	flw	fa5,-32(s0)
	fcvt.w.s a5,fa5,rtz
	slli	a4,a5,16
	srai	a4,a4,16
	.loc 1 207 18
	lw	a5,-52(s0)
	sh	a4,0(a5)
.L24:
	.loc 1 209 17
	lbu	a5,-17(s0)
	andi	a5,a5,1
	andi	a5,a5,0xff
	.loc 1 209 12
	bne	a5,zero,.L25
	.loc 1 210 13
	call	ADC_SET_TSVBE_HIGH
	j	.L26
.L25:
	.loc 1 212 13
	call	ADC_SET_TSVBE_LOW
.L26:
	.loc 1 181 25 discriminator 2
	lbu	a5,-17(s0)
	addi	a5,a5,1
	sb	a5,-17(s0)
.L18:
	.loc 1 181 19 discriminator 1
	lbu	a4,-17(s0)
	li	a5,1
	bleu	a4,a5,.L27
	.loc 1 215 12
	li	a5,0
	.loc 1 216 1
	mv	a0,a5
	lw	ra,60(sp)
	.cfi_restore 1
	lw	s0,56(sp)
	.cfi_restore 8
	.cfi_def_cfa 2, 64
	addi	sp,sp,64
	.cfi_def_cfa_offset 0
	jr	ra
	.cfi_endproc
.LFE31:
	.size	test_adc_get, .-test_adc_get
	.section	.text.test_adc_test,"ax",@progbits
	.align	1
	.globl	test_adc_test
	.type	test_adc_test, @function
test_adc_test:
.LFB32:
	.loc 1 219 1
	.cfi_startproc
	addi	sp,sp,-16
	.cfi_def_cfa_offset 16
	sw	ra,12(sp)
	sw	s0,8(sp)
	.cfi_offset 1, -4
	.cfi_offset 8, -8
	addi	s0,sp,16
	.cfi_def_cfa 8, 0
	.loc 1 220 5
	call	ADC_tsen_case
	.loc 1 221 12
	li	a5,0
	.loc 1 222 1
	mv	a0,a5
	lw	ra,12(sp)
	.cfi_restore 1
	lw	s0,8(sp)
	.cfi_restore 8
	.cfi_def_cfa 2, 16
	addi	sp,sp,16
	.cfi_def_cfa_offset 0
	jr	ra
	.cfi_endproc
.LFE32:
	.size	test_adc_test, .-test_adc_test
	.section	.rodata
	.align	2
.LC3:
	.string	"bl_adc.c"
	.align	2
.LC4:
	.string	"\033[31mERROR \033[0m"
	.align	2
.LC5:
	.string	"[%10u][%s: %s:%4d] read efuse data failed\r\n"
	.align	2
.LC6:
	.string	"\033[32mINFO  \033[0m"
	.align	2
.LC7:
	.string	"[%10u][%s: %s:%4d] offset = %d\r\n"
	.align	2
.LC8:
	.string	"temperature = %f Celsius\r\n"
	.align	2
.LC0:
	.byte	2
	.byte	1
	.byte	7
	.byte	1
	.byte	1
	.byte	2
	.byte	0
	.byte	0
	.byte	1
	.byte	0
	.byte	4
	.byte	0
	.half	0
	.section	.text.bl_tsen_adc_get,"ax",@progbits
	.align	1
	.globl	bl_tsen_adc_get
	.type	bl_tsen_adc_get, @function
bl_tsen_adc_get:
.LFB33:
	.loc 1 225 1
	.cfi_startproc
	addi	sp,sp,-64
	.cfi_def_cfa_offset 64
	sw	ra,60(sp)
	sw	s0,56(sp)
	.cfi_offset 1, -4
	.cfi_offset 8, -8
	addi	s0,sp,64
	.cfi_def_cfa 8, 0
	sw	a0,-52(s0)
	mv	a5,a1
	sb	a5,-53(s0)
	.loc 1 227 11
	sw	zero,-20(s0)
	.loc 1 229 16
	lui	a5,%hi(tsen_offset.0)
	lhu	a4,%lo(tsen_offset.0)(a5)
	.loc 1 229 8
	li	a5,65536
	addi	a5,a5,-1
	bne	a4,a5,.L32
.LBB8:
	.loc 1 230 21
	lui	a5,%hi(tsen_offset.0)
	sh	zero,%lo(tsen_offset.0)(a5)
	.loc 1 231 22
	lui	a5,%hi(.LC0)
	addi	a5,a5,%lo(.LC0)
	lw	a3,0(a5)
	lw	a4,4(a5)
	sw	a3,-36(s0)
	sw	a4,-32(s0)
	lw	a4,8(a5)
	sw	a4,-28(s0)
	lhu	a5,12(a5)
	sh	a5,-24(s0)
	.loc 1 248 27
	sb	zero,-40(s0)
	sb	zero,-39(s0)
	.loc 1 253 9
	li	a2,7
	li	a1,0
	li	a0,1
	call	GLB_Set_ADC_CLK
	.loc 1 255 9
	call	ADC_Disable
	.loc 1 256 9
	call	ADC_Enable
	.loc 1 258 9
	call	ADC_Reset
	.loc 1 260 9
	addi	a5,s0,-36
	mv	a0,a5
	call	ADC_Init
	.loc 1 261 9
	li	a2,0
	li	a1,23
	li	a0,14
	call	ADC_Channel_Config
	.loc 1 262 9
	li	a0,0
	call	ADC_Tsen_Init
	.loc 1 264 9
	addi	a5,s0,-40
	mv	a0,a5
	call	ADC_FIFO_Cfg
	.loc 1 266 13
	lui	a5,%hi(tsen_offset.0)
	addi	a0,a5,%lo(tsen_offset.0)
	call	ADC_Trim_TSEN
	mv	a5,a0
	mv	a4,a5
	.loc 1 266 12 discriminator 1
	li	a5,1
	bne	a4,a5,.L33
.LBB9:
.LBB10:
	.file 2 "/home/chandu/sdk/bl602_iot_sdk/components/freertos/portable/GCC/RISC-V/portmacro.h"
	.loc 2 181 31
	lui	a5,%hi(TrapNetCounter)
	lw	a5,%lo(TrapNetCounter)(a5)
	snez	a5,a5
	andi	a5,a5,0xff
.LBE10:
.LBE9:
	.loc 1 267 20 discriminator 1
	beq	a5,zero,.L35
	.loc 1 267 110 discriminator 2
	call	xTaskGetTickCountFromISR
	mv	a1,a0
	j	.L36
.L35:
	.loc 1 267 139 discriminator 3
	call	xTaskGetTickCount
	mv	a1,a0
.L36:
	.loc 1 267 20 discriminator 7
	li	a4,267
	lui	a5,%hi(.LC3)
	addi	a3,a5,%lo(.LC3)
	lui	a5,%hi(.LC4)
	addi	a2,a5,%lo(.LC4)
	lui	a5,%hi(.LC5)
	addi	a0,a5,%lo(.LC5)
	call	bl_printk
	j	.L32
.L33:
.LBB11:
.LBB12:
	.loc 2 181 31
	lui	a5,%hi(TrapNetCounter)
	lw	a5,%lo(TrapNetCounter)(a5)
	snez	a5,a5
	andi	a5,a5,0xff
.LBE12:
.LBE11:
	.loc 1 269 20 discriminator 1
	beq	a5,zero,.L39
	.loc 1 269 99 discriminator 2
	call	xTaskGetTickCountFromISR
	mv	a1,a0
	j	.L40
.L39:
	.loc 1 269 128 discriminator 3
	call	xTaskGetTickCount
	mv	a1,a0
.L40:
	.loc 1 269 20 discriminator 7
	lui	a5,%hi(tsen_offset.0)
	lhu	a5,%lo(tsen_offset.0)(a5)
	li	a4,269
	lui	a3,%hi(.LC3)
	addi	a3,a3,%lo(.LC3)
	lui	a2,%hi(.LC6)
	addi	a2,a2,%lo(.LC6)
	lui	a0,%hi(.LC7)
	addi	a0,a0,%lo(.LC7)
	call	bl_printk
.L32:
.LBE8:
	.loc 1 272 11
	lui	a5,%hi(tsen_offset.0)
	lhu	a5,%lo(tsen_offset.0)(a5)
	mv	a0,a5
	call	TSEN_Get_Temp
	fsw	fa0,-20(s0)
	.loc 1 273 8
	lbu	a5,-53(s0)
	beq	a5,zero,.L41
	.loc 1 274 9
	flw	fa0,-20(s0)
	call	__extendsfdf2
	mv	a4,a0
	mv	a5,a1
	mv	a2,a4
	mv	a3,a5
	lui	a5,%hi(.LC8)
	addi	a0,a5,%lo(.LC8)
	call	printf
.L41:
	.loc 1 277 8
	lw	a5,-52(s0)
	beq	a5,zero,.L42
	.loc 1 278 17
	flw	fa5,-20(s0)
	fcvt.w.s a5,fa5,rtz
	slli	a4,a5,16
	srai	a4,a4,16
	.loc 1 278 15
	lw	a5,-52(s0)
	sh	a4,0(a5)
.L42:
	.loc 1 281 12
	li	a5,0
	.loc 1 282 1
	mv	a0,a5
	lw	ra,60(sp)
	.cfi_restore 1
	lw	s0,56(sp)
	.cfi_restore 8
	.cfi_def_cfa 2, 64
	addi	sp,sp,64
	.cfi_def_cfa_offset 0
	jr	ra
	.cfi_endproc
.LFE33:
	.size	bl_tsen_adc_get, .-bl_tsen_adc_get
	.section	.text.adc_data_update,"ax",@progbits
	.align	1
	.type	adc_data_update, @function
adc_data_update:
.LFB34:
	.loc 1 286 1
	.cfi_startproc
	addi	sp,sp,-32
	.cfi_def_cfa_offset 32
	sw	ra,28(sp)
	sw	s0,24(sp)
	.cfi_offset 1, -4
	.cfi_offset 8, -8
	addi	s0,sp,32
	.cfi_def_cfa 8, 0
	.loc 1 289 14
	li	a0,1
	call	bl_dma_find_ctx_by_channel
	sw	a0,-20(s0)
	.loc 1 290 8
	lw	a5,-20(s0)
	beq	a5,zero,.L50
	.loc 1 295 15
	lw	a5,-20(s0)
	lw	a5,12(a5)
	.loc 1 295 8
	bne	a5,zero,.L47
	.loc 1 296 73
	lw	a5,-20(s0)
	lw	a5,8(a5)
	.loc 1 296 87
	lw	a5,4(a5)
	.loc 1 296 32
	mv	a4,a5
	.loc 1 296 30
	lw	a5,-20(s0)
	sw	a4,4(a5)
	.loc 1 297 26
	lw	a5,-20(s0)
	li	a4,1
	sw	a4,12(a5)
	j	.L48
.L47:
	.loc 1 299 73
	lw	a5,-20(s0)
	lw	a5,8(a5)
	.loc 1 299 84
	addi	a5,a5,16
	.loc 1 299 87
	lw	a5,4(a5)
	.loc 1 299 32
	mv	a4,a5
	.loc 1 299 30
	lw	a5,-20(s0)
	sw	a4,4(a5)
	.loc 1 300 26
	lw	a5,-20(s0)
	sw	zero,12(a5)
.L48:
	.loc 1 303 15
	lw	a5,-20(s0)
	lw	a5,24(a5)
	.loc 1 303 8
	beq	a5,zero,.L51
	.loc 1 304 16
	lw	a5,-20(s0)
	lw	a5,24(a5)
	lw	a4,-20(s0)
	lw	a3,0(a4)
	lw	a4,-20(s0)
	lw	a1,4(a4)
	lw	a4,-20(s0)
	lw	a4,20(a4)
	mv	a2,a4
	mv	a0,a3
	jalr	a5
.LVL0:
	.loc 1 307 5
	j	.L51
.L50:
	.loc 1 292 9
	nop
	j	.L44
.L51:
	.loc 1 307 5
	nop
.L44:
	.loc 1 308 1
	lw	ra,28(sp)
	.cfi_restore 1
	lw	s0,24(sp)
	.cfi_restore 8
	.cfi_def_cfa 2, 32
	addi	sp,sp,32
	.cfi_def_cfa_offset 0
	jr	ra
	.cfi_endproc
.LFE34:
	.size	adc_data_update, .-adc_data_update
	.section	.text.bl_adc_freq_init,"ax",@progbits
	.align	1
	.globl	bl_adc_freq_init
	.type	bl_adc_freq_init, @function
bl_adc_freq_init:
.LFB35:
	.loc 1 313 1
	.cfi_startproc
	addi	sp,sp,-48
	.cfi_def_cfa_offset 48
	sw	ra,44(sp)
	sw	s0,40(sp)
	.cfi_offset 1, -4
	.cfi_offset 8, -8
	addi	s0,sp,48
	.cfi_def_cfa 8, 0
	sw	a0,-36(s0)
	sw	a1,-40(s0)
	.loc 1 318 8
	lw	a5,-36(s0)
	bne	a5,zero,.L53
	.loc 1 319 19
	li	a5,12
	sw	a5,-24(s0)
	j	.L54
.L53:
	.loc 1 321 19
	li	a5,1
	sw	a5,-24(s0)
.L54:
	.loc 1 324 40
	lw	a4,-24(s0)
	mv	a5,a4
	slli	a5,a5,1
	add	a5,a5,a4
	slli	a5,a5,10
	mv	a4,a5
	.loc 1 324 17
	li	a5,96002048
	addi	a5,a5,-2048
	divu	a5,a5,a4
	sw	a5,-28(s0)
	.loc 1 325 9
	lw	a4,-28(s0)
	lw	a5,-40(s0)
	divu	a5,a4,a5
	sw	a5,-20(s0)
	.loc 1 326 15
	lw	a5,-20(s0)
	addi	a4,a5,1
	.loc 1 326 20
	lw	a5,-40(s0)
	mul	a4,a4,a5
	.loc 1 326 27
	lw	a5,-28(s0)
	sub	a4,a4,a5
	.loc 1 326 64
	lw	a3,-40(s0)
	lw	a5,-20(s0)
	mul	a5,a3,a5
	.loc 1 326 57
	lw	a3,-28(s0)
	sub	a5,a3,a5
	.loc 1 326 8
	bgeu	a4,a5,.L55
	.loc 1 327 13
	lw	a5,-20(s0)
	addi	a5,a5,1
	sw	a5,-20(s0)
.L55:
	.loc 1 330 8
	lw	a4,-20(s0)
	li	a5,64
	bleu	a4,a5,.L56
	.loc 1 331 13
	li	a5,64
	sw	a5,-20(s0)
.L56:
	.loc 1 334 5
	lw	a5,-20(s0)
	andi	a5,a5,0xff
	addi	a5,a5,-1
	andi	a5,a5,0xff
	mv	a2,a5
	li	a1,0
	li	a0,1
	call	GLB_Set_ADC_CLK
	.loc 1 336 12
	li	a5,0
	.loc 1 337 1
	mv	a0,a5
	lw	ra,44(sp)
	.cfi_restore 1
	lw	s0,40(sp)
	.cfi_restore 8
	.cfi_def_cfa 2, 48
	addi	sp,sp,48
	.cfi_def_cfa_offset 0
	jr	ra
	.cfi_endproc
.LFE35:
	.size	bl_adc_freq_init, .-bl_adc_freq_init
	.section	.text.bl_adc_init,"ax",@progbits
	.align	1
	.globl	bl_adc_init
	.type	bl_adc_init, @function
bl_adc_init:
.LFB36:
	.loc 1 340 1
	.cfi_startproc
	addi	sp,sp,-96
	.cfi_def_cfa_offset 96
	sw	ra,92(sp)
	sw	s0,88(sp)
	.cfi_offset 1, -4
	.cfi_offset 8, -8
	addi	s0,sp,96
	.cfi_def_cfa 8, 0
	sw	a0,-84(s0)
	sw	a1,-88(s0)
	.loc 1 349 18
	li	a5,2
	sb	a5,-44(s0)
	.loc 1 350 18
	li	a5,1
	sb	a5,-43(s0)
	.loc 1 351 18
	li	a5,6
	sb	a5,-42(s0)
	.loc 1 352 17
	sb	zero,-41(s0)
	.loc 1 353 17
	sb	zero,-40(s0)
	.loc 1 354 20
	sb	zero,-39(s0)
	.loc 1 355 19
	sb	zero,-38(s0)
	.loc 1 356 15
	sb	zero,-37(s0)
	.loc 1 357 16
	sb	zero,-36(s0)
	.loc 1 358 21
	sb	zero,-35(s0)
	.loc 1 359 20
	li	a5,3
	sb	a5,-34(s0)
	.loc 1 360 25
	sb	zero,-33(s0)
	.loc 1 361 26
	sh	zero,-32(s0)
	.loc 1 363 5
	call	ADC_Disable
	.loc 1 364 5
	call	ADC_Enable
	.loc 1 365 5
	call	ADC_Reset
	.loc 1 367 5
	addi	a5,s0,-44
	mv	a0,a5
	call	ADC_Init
	.loc 1 369 8
	lw	a5,-84(s0)
	bne	a5,zero,.L59
	.loc 1 370 16
	sw	zero,-20(s0)
	.loc 1 370 9
	j	.L60
.L61:
	.loc 1 371 34
	lw	a5,-20(s0)
	andi	a4,a5,0xff
	lw	a5,-20(s0)
	addi	a5,a5,-16
	add	a5,a5,s0
	sb	a4,-40(a5)
	.loc 1 372 34
	lw	a5,-20(s0)
	addi	a5,a5,-16
	add	a5,a5,s0
	li	a4,23
	sb	a4,-52(a5)
	.loc 1 370 30 discriminator 3
	lw	a5,-20(s0)
	addi	a5,a5,1
	sw	a5,-20(s0)
.L60:
	.loc 1 370 23 discriminator 1
	lw	a4,-20(s0)
	li	a5,11
	ble	a4,a5,.L61
	.loc 1 375 21
	li	a5,12
	sw	a5,-24(s0)
	j	.L62
.L59:
	.loc 1 377 16
	lw	a0,-88(s0)
	call	bl_adc_get_channel_by_gpio
	sw	a0,-28(s0)
	.loc 1 378 30
	lw	a5,-28(s0)
	andi	a5,a5,0xff
	sb	a5,-56(s0)
	.loc 1 379 30
	li	a5,23
	sb	a5,-68(s0)
	.loc 1 380 21
	li	a5,1
	sw	a5,-24(s0)
.L62:
	.loc 1 382 5
	lw	a5,-24(s0)
	andi	a2,a5,0xff
	addi	a4,s0,-68
	addi	a5,s0,-56
	li	a3,1
	mv	a1,a4
	mv	a0,a5
	call	ADC_Scan_Channel_Config
	.loc 1 384 32
	sb	zero,-72(s0)
	.loc 1 385 24
	li	a5,1
	sb	a5,-71(s0)
	.loc 1 386 5
	addi	a5,s0,-72
	mv	a0,a5
	call	ADC_FIFO_Cfg
	.loc 1 388 12
	li	a5,0
	.loc 1 389 1
	mv	a0,a5
	lw	ra,92(sp)
	.cfi_restore 1
	lw	s0,88(sp)
	.cfi_restore 8
	.cfi_def_cfa 2, 96
	addi	sp,sp,96
	.cfi_def_cfa_offset 0
	jr	ra
	.cfi_endproc
.LFE36:
	.size	bl_adc_init, .-bl_adc_init
	.section	.text.adc_dma_lli_init,"ax",@progbits
	.align	1
	.type	adc_dma_lli_init, @function
adc_dma_lli_init:
.LFB37:
	.loc 1 392 1
	.cfi_startproc
	addi	sp,sp,-48
	.cfi_def_cfa_offset 48
	sw	ra,44(sp)
	sw	s0,40(sp)
	.cfi_offset 1, -4
	.cfi_offset 8, -8
	addi	s0,sp,48
	.cfi_def_cfa 8, 0
	sw	a0,-36(s0)
	sw	a1,-40(s0)
	sw	a2,-44(s0)
	.loc 1 395 31
	lw	a5,-44(s0)
	mv	a4,a5
	li	a5,4096
	addi	a5,a5,-1
	and	a5,a4,a5
	slli	a4,a5,16
	srli	a4,a4,16
	li	a5,4096
	addi	a5,a5,-1
	and	a5,a4,a5
	lw	a3,-20(s0)
	li	a4,-4096
	and	a4,a3,a4
	or	a5,a4,a5
	sw	a5,-20(s0)
	.loc 1 396 24
	lw	a4,-20(s0)
	li	a5,-28672
	addi	a5,a5,-1
	and	a5,a4,a5
	sw	a5,-20(s0)
	.loc 1 397 24
	lw	a4,-20(s0)
	li	a5,-229376
	addi	a5,a5,-1
	and	a5,a4,a5
	sw	a5,-20(s0)
	.loc 1 398 24
	lw	a4,-20(s0)
	li	a5,-1835008
	addi	a5,a5,-1
	and	a4,a4,a5
	li	a5,524288
	or	a5,a4,a5
	sw	a5,-20(s0)
	.loc 1 399 24
	lw	a4,-20(s0)
	li	a5,-14680064
	addi	a5,a5,-1
	and	a4,a4,a5
	li	a5,4194304
	or	a5,a4,a5
	sw	a5,-20(s0)
	.loc 1 400 20
	lw	a4,-20(s0)
	li	a5,-67108864
	addi	a5,a5,-1
	and	a5,a4,a5
	sw	a5,-20(s0)
	.loc 1 401 20
	lw	a4,-20(s0)
	li	a5,134217728
	or	a5,a4,a5
	sw	a5,-20(s0)
	.loc 1 402 20
	lw	a4,-20(s0)
	li	a5,-2147483648
	or	a5,a4,a5
	sw	a5,-20(s0)
	.loc 1 403 27
	lw	a4,-20(s0)
	li	a5,-16777216
	addi	a5,a5,-1
	and	a5,a4,a5
	sw	a5,-20(s0)
	.loc 1 404 23
	lw	a4,-20(s0)
	li	a5,-1879048192
	addi	a5,a5,-1
	and	a5,a4,a5
	sw	a5,-20(s0)
	.loc 1 406 26
	lw	a5,-36(s0)
	li	a4,1073750016
	addi	a4,a4,4
	sw	a4,0(a5)
	.loc 1 407 29
	lw	a4,-40(s0)
	.loc 1 407 27
	lw	a5,-36(s0)
	sw	a4,4(a5)
	.loc 1 408 35
	lw	a5,-36(s0)
	addi	a5,a5,16
	.loc 1 408 25
	mv	a4,a5
	.loc 1 408 23
	lw	a5,-36(s0)
	sw	a4,8(a5)
	.loc 1 409 22
	lw	a5,-36(s0)
	lw	a4,-20(s0)
	sw	a4,12(a5)
	.loc 1 411 11
	lw	a5,-36(s0)
	addi	a5,a5,16
	.loc 1 411 26
	li	a4,1073750016
	addi	a4,a4,4
	sw	a4,0(a5)
	.loc 1 412 39
	lw	a5,-40(s0)
	addi	a4,a5,48
	.loc 1 412 11
	lw	a5,-36(s0)
	addi	a5,a5,16
	.loc 1 412 27
	sw	a4,4(a5)
	.loc 1 413 11
	lw	a5,-36(s0)
	addi	a5,a5,16
	.loc 1 413 25
	lw	a4,-36(s0)
	.loc 1 413 23
	sw	a4,8(a5)
	.loc 1 414 11
	lw	a5,-36(s0)
	addi	a5,a5,16
	.loc 1 414 22
	lw	a4,-20(s0)
	sw	a4,12(a5)
	.loc 1 416 5
	nop
	.loc 1 417 1
	lw	ra,44(sp)
	.cfi_restore 1
	lw	s0,40(sp)
	.cfi_restore 8
	.cfi_def_cfa 2, 48
	addi	sp,sp,48
	.cfi_def_cfa_offset 0
	jr	ra
	.cfi_endproc
.LFE37:
	.size	adc_dma_lli_init, .-adc_dma_lli_init
	.section	.text.bl_adc_dma_init,"ax",@progbits
	.align	1
	.globl	bl_adc_dma_init
	.type	bl_adc_dma_init, @function
bl_adc_dma_init:
.LFB38:
	.loc 1 420 1
	.cfi_startproc
	addi	sp,sp,-48
	.cfi_def_cfa_offset 48
	sw	ra,44(sp)
	sw	s0,40(sp)
	.cfi_offset 1, -4
	.cfi_offset 8, -8
	addi	s0,sp,48
	.cfi_def_cfa 8, 0
	sw	a0,-36(s0)
	sw	a1,-40(s0)
	.loc 1 426 8
	lw	a5,-40(s0)
	bne	a5,zero,.L67
	.loc 1 429 16
	li	a5,-1
	j	.L72
.L67:
	.loc 1 432 14
	li	a0,28
	call	pvPortMalloc
	sw	a0,-20(s0)
	.loc 1 433 8
	lw	a5,-20(s0)
	bne	a5,zero,.L69
	.loc 1 436 16
	li	a5,-1
	j	.L72
.L69:
	.loc 1 439 14
	li	a0,32
	call	pvPortMalloc
	sw	a0,-24(s0)
	.loc 1 440 8
	lw	a5,-24(s0)
	bne	a5,zero,.L70
	.loc 1 443 16
	li	a5,-1
	j	.L72
.L70:
	.loc 1 446 55
	lw	a5,-40(s0)
	slli	a5,a5,3
	.loc 1 446 14
	mv	a0,a5
	call	pvPortMalloc
	sw	a0,-28(s0)
	.loc 1 447 8
	lw	a5,-28(s0)
	bne	a5,zero,.L71
	.loc 1 450 16
	li	a5,-1
	j	.L72
.L71:
	.loc 1 453 16
	li	a5,2
	sb	a5,-32(s0)
	.loc 1 454 22
	li	a5,22
	sb	a5,-31(s0)
	.loc 1 455 22
	sb	zero,-30(s0)
	.loc 1 456 5
	li	a0,1
	call	DMA_Channel_Disable
	.loc 1 458 5
	lw	a2,-40(s0)
	lw	a1,-28(s0)
	lw	a0,-24(s0)
	call	adc_dma_lli_init
	.loc 1 459 5
	addi	a5,s0,-32
	mv	a1,a5
	li	a0,1
	call	DMA_LLI_Init
	.loc 1 460 5
	lw	a5,-24(s0)
	mv	a1,a5
	li	a0,1
	call	DMA_LLI_Update
	.loc 1 462 18
	lw	a5,-20(s0)
	lw	a4,-36(s0)
	sw	a4,0(a5)
	.loc 1 463 21
	lw	a5,-20(s0)
	lw	a4,-24(s0)
	sw	a4,8(a5)
	.loc 1 464 22
	lw	a5,-20(s0)
	sw	zero,12(a5)
	.loc 1 465 29
	lw	a5,-20(s0)
	sw	zero,16(a5)
	.loc 1 466 26
	lw	a5,-20(s0)
	sw	zero,4(a5)
	.loc 1 467 23
	lw	a5,-20(s0)
	lw	a4,-40(s0)
	sw	a4,20(a5)
	.loc 1 468 16
	lw	a5,-20(s0)
	sw	zero,24(a5)
	.loc 1 469 5
	lw	a3,-20(s0)
	li	a2,0
	lui	a5,%hi(adc_data_update)
	addi	a1,a5,%lo(adc_data_update)
	li	a0,1
	call	bl_dma_irq_register
	.loc 1 471 12
	li	a5,0
.L72:
	.loc 1 472 1
	mv	a0,a5
	lw	ra,44(sp)
	.cfi_restore 1
	lw	s0,40(sp)
	.cfi_restore 8
	.cfi_def_cfa 2, 48
	addi	sp,sp,48
	.cfi_def_cfa_offset 0
	jr	ra
	.cfi_endproc
.LFE38:
	.size	bl_adc_dma_init, .-bl_adc_dma_init
	.section	.text.bl_adc_start,"ax",@progbits
	.align	1
	.globl	bl_adc_start
	.type	bl_adc_start, @function
bl_adc_start:
.LFB39:
	.loc 1 475 1
	.cfi_startproc
	addi	sp,sp,-16
	.cfi_def_cfa_offset 16
	sw	ra,12(sp)
	sw	s0,8(sp)
	.cfi_offset 1, -4
	.cfi_offset 8, -8
	addi	s0,sp,16
	.cfi_def_cfa 8, 0
	.loc 1 476 5
	li	a2,1
	li	a1,2
	li	a0,1
	call	DMA_IntMask
	.loc 1 477 5
	li	a2,0
	li	a1,0
	li	a0,1
	call	DMA_IntMask
	.loc 1 478 5
	li	a2,0
	li	a1,1
	li	a0,1
	call	DMA_IntMask
	.loc 1 480 5
	call	ADC_Start
	.loc 1 481 5
	call	DMA_Enable
	.loc 1 482 5
	li	a0,1
	call	DMA_Channel_Enable
	.loc 1 484 12
	li	a5,0
	.loc 1 485 1
	mv	a0,a5
	lw	ra,12(sp)
	.cfi_restore 1
	lw	s0,8(sp)
	.cfi_restore 8
	.cfi_def_cfa 2, 16
	addi	sp,sp,16
	.cfi_def_cfa_offset 0
	jr	ra
	.cfi_endproc
.LFE39:
	.size	bl_adc_start, .-bl_adc_start
	.section	.text.bl_adc_gpio_init,"ax",@progbits
	.align	1
	.globl	bl_adc_gpio_init
	.type	bl_adc_gpio_init, @function
bl_adc_gpio_init:
.LFB40:
	.loc 1 488 1
	.cfi_startproc
	addi	sp,sp,-48
	.cfi_def_cfa_offset 48
	sw	ra,44(sp)
	sw	s0,40(sp)
	.cfi_offset 1, -4
	.cfi_offset 8, -8
	addi	s0,sp,48
	.cfi_def_cfa 8, 0
	sw	a0,-36(s0)
	.loc 1 489 13
	lw	a5,-36(s0)
	andi	a5,a5,0xff
	sb	a5,-17(s0)
	.loc 1 491 5
	addi	a5,s0,-17
	li	a2,1
	mv	a1,a5
	li	a0,10
	call	GLB_GPIO_Func_Init
	.loc 1 493 12
	li	a5,0
	.loc 1 494 1
	mv	a0,a5
	lw	ra,44(sp)
	.cfi_restore 1
	lw	s0,40(sp)
	.cfi_restore 8
	.cfi_def_cfa 2, 48
	addi	sp,sp,48
	.cfi_def_cfa_offset 0
	jr	ra
	.cfi_endproc
.LFE40:
	.size	bl_adc_gpio_init, .-bl_adc_gpio_init
	.section	.text.adc_calc_data,"ax",@progbits
	.align	1
	.type	adc_calc_data, @function
adc_calc_data:
.LFB41:
	.loc 1 497 1
	.cfi_startproc
	addi	sp,sp,-48
	.cfi_def_cfa_offset 48
	sw	ra,44(sp)
	sw	s0,40(sp)
	.cfi_offset 1, -4
	.cfi_offset 8, -8
	addi	s0,sp,48
	.cfi_def_cfa 8, 0
	sw	a0,-36(s0)
	.loc 1 500 9
	lw	a5,-36(s0)
	slli	a5,a5,16
	srli	a5,a5,16
	sw	a5,-20(s0)
	.loc 1 501 16
	lw	a4,-20(s0)
	li	a5,4096
	addi	a5,a5,-896
	mul	a5,a4,a5
	.loc 1 501 9
	srli	a5,a5,16
	sw	a5,-20(s0)
	.loc 1 503 12
	lw	a5,-20(s0)
	.loc 1 504 1
	mv	a0,a5
	lw	ra,44(sp)
	.cfi_restore 1
	lw	s0,40(sp)
	.cfi_restore 8
	.cfi_def_cfa 2, 48
	addi	sp,sp,48
	.cfi_def_cfa_offset 0
	jr	ra
	.cfi_endproc
.LFE41:
	.size	adc_calc_data, .-adc_calc_data
	.section	.text.bl_adc_parse_data,"ax",@progbits
	.align	1
	.globl	bl_adc_parse_data
	.type	bl_adc_parse_data, @function
bl_adc_parse_data:
.LFB42:
	.loc 1 507 1
	.cfi_startproc
	addi	sp,sp,-48
	.cfi_def_cfa_offset 48
	sw	ra,44(sp)
	sw	s0,40(sp)
	.cfi_offset 1, -4
	.cfi_offset 8, -8
	addi	s0,sp,48
	.cfi_def_cfa 8, 0
	sw	a0,-36(s0)
	sw	a1,-40(s0)
	sw	a2,-44(s0)
	sw	a3,-48(s0)
	.loc 1 511 12
	sw	zero,-20(s0)
	.loc 1 511 5
	j	.L80
.L84:
	.loc 1 512 17
	lw	a5,-20(s0)
	slli	a5,a5,2
	lw	a4,-36(s0)
	add	a5,a4,a5
	lw	a5,0(a5)
	.loc 1 512 21
	srli	a4,a5,21
	.loc 1 512 27
	lw	a5,-44(s0)
	.loc 1 512 12
	bne	a4,a5,.L81
	.loc 1 513 16
	lw	a5,-48(s0)
	bne	a5,zero,.L82
	.loc 1 514 28
	lw	a5,-20(s0)
	slli	a5,a5,2
	lw	a4,-36(s0)
	add	a5,a4,a5
	lw	a5,0(a5)
	.loc 1 514 22
	slli	a5,a5,16
	srli	a5,a5,16
	sw	a5,-24(s0)
	.loc 1 515 24
	lw	a5,-24(s0)
	j	.L83
.L82:
	.loc 1 517 42
	lw	a5,-20(s0)
	slli	a5,a5,2
	lw	a4,-36(s0)
	add	a5,a4,a5
	.loc 1 517 24
	lw	a5,0(a5)
	mv	a0,a5
	call	adc_calc_data
	mv	a5,a0
	.loc 1 517 22 discriminator 1
	sw	a5,-24(s0)
	.loc 1 519 24
	lw	a5,-24(s0)
	j	.L83
.L81:
	.loc 1 511 33 discriminator 2
	lw	a5,-20(s0)
	addi	a5,a5,1
	sw	a5,-20(s0)
.L80:
	.loc 1 511 19 discriminator 1
	lw	a4,-20(s0)
	lw	a5,-40(s0)
	blt	a4,a5,.L84
	.loc 1 524 12
	li	a5,-1
.L83:
	.loc 1 525 1
	mv	a0,a5
	lw	ra,44(sp)
	.cfi_restore 1
	lw	s0,40(sp)
	.cfi_restore 8
	.cfi_def_cfa 2, 48
	addi	sp,sp,48
	.cfi_def_cfa_offset 0
	jr	ra
	.cfi_endproc
.LFE42:
	.size	bl_adc_parse_data, .-bl_adc_parse_data
	.section	.text.bl_adc_get_channel_by_gpio,"ax",@progbits
	.align	1
	.globl	bl_adc_get_channel_by_gpio
	.type	bl_adc_get_channel_by_gpio, @function
bl_adc_get_channel_by_gpio:
.LFB43:
	.loc 1 528 1
	.cfi_startproc
	addi	sp,sp,-48
	.cfi_def_cfa_offset 48
	sw	ra,44(sp)
	sw	s0,40(sp)
	.cfi_offset 1, -4
	.cfi_offset 8, -8
	addi	s0,sp,48
	.cfi_def_cfa 8, 0
	sw	a0,-36(s0)
	.loc 1 531 8
	lw	a4,-36(s0)
	li	a5,4
	bne	a4,a5,.L86
	.loc 1 532 17
	li	a5,1
	sw	a5,-20(s0)
	j	.L87
.L86:
	.loc 1 533 15
	lw	a4,-36(s0)
	li	a5,5
	bne	a4,a5,.L88
	.loc 1 534 17
	li	a5,4
	sw	a5,-20(s0)
	j	.L87
.L88:
	.loc 1 535 15
	lw	a4,-36(s0)
	li	a5,6
	bne	a4,a5,.L89
	.loc 1 536 17
	li	a5,5
	sw	a5,-20(s0)
	j	.L87
.L89:
	.loc 1 537 15
	lw	a4,-36(s0)
	li	a5,9
	bne	a4,a5,.L90
	.loc 1 538 17
	li	a5,7
	sw	a5,-20(s0)
	j	.L87
.L90:
	.loc 1 539 15
	lw	a4,-36(s0)
	li	a5,10
	bne	a4,a5,.L91
	.loc 1 540 17
	li	a5,9
	sw	a5,-20(s0)
	j	.L87
.L91:
	.loc 1 541 15
	lw	a4,-36(s0)
	li	a5,11
	bne	a4,a5,.L92
	.loc 1 542 17
	li	a5,10
	sw	a5,-20(s0)
	j	.L87
.L92:
	.loc 1 543 15
	lw	a4,-36(s0)
	li	a5,12
	bne	a4,a5,.L93
	.loc 1 544 17
	sw	zero,-20(s0)
	j	.L87
.L93:
	.loc 1 545 15
	lw	a4,-36(s0)
	li	a5,13
	bne	a4,a5,.L94
	.loc 1 546 17
	li	a5,3
	sw	a5,-20(s0)
	j	.L87
.L94:
	.loc 1 547 15
	lw	a4,-36(s0)
	li	a5,14
	bne	a4,a5,.L95
	.loc 1 548 17
	li	a5,2
	sw	a5,-20(s0)
	j	.L87
.L95:
	.loc 1 549 15
	lw	a4,-36(s0)
	li	a5,15
	bne	a4,a5,.L96
	.loc 1 550 17
	li	a5,11
	sw	a5,-20(s0)
	j	.L87
.L96:
	.loc 1 552 16
	li	a5,-1
	j	.L97
.L87:
	.loc 1 555 12
	lw	a5,-20(s0)
.L97:
	.loc 1 556 1
	mv	a0,a5
	lw	ra,44(sp)
	.cfi_restore 1
	lw	s0,40(sp)
	.cfi_restore 8
	.cfi_def_cfa 2, 48
	addi	sp,sp,48
	.cfi_def_cfa_offset 0
	jr	ra
	.cfi_endproc
.LFE43:
	.size	bl_adc_get_channel_by_gpio, .-bl_adc_get_channel_by_gpio
	.section	.sdata.tsen_offset.0,"aw"
	.align	1
	.type	tsen_offset.0, @object
	.size	tsen_offset.0, 2
tsen_offset.0:
	.half	-1
	.section	.rodata
	.align	2
.LC1:
	.word	1158733824
	.align	3
.LC2:
	.word	1855425872
	.word	1075774226
	.text
.Letext0:
	.file 3 "/home/chandu/sdk/bl602_iot_sdk/toolchain/compiler/lib/gcc/riscv32-unknown-elf/15.1.0/include/stddef.h"
	.file 4 "/home/chandu/sdk/bl602_iot_sdk/toolchain/compiler/lib/gcc/riscv32-unknown-elf/15.1.0/include/stdint-gcc.h"
	.file 5 "/home/chandu/sdk/bl602_iot_sdk/components/bl602/bl602_std/bl602_std/StdDriver/Inc/bl602_common.h"
	.file 6 "/home/chandu/sdk/bl602_iot_sdk/components/bl602/bl602_std/bl602_std/StdDriver/Inc/bl602_gpio.h"
	.file 7 "/home/chandu/sdk/bl602_iot_sdk/components/bl602/bl602_std/bl602_std/StdDriver/Inc/bl602_glb.h"
	.file 8 "/home/chandu/sdk/bl602_iot_sdk/components/bl602/bl602_std/bl602_std/Device/Bouffalo/BL602/Peripherals/dma_reg.h"
	.file 9 "/home/chandu/sdk/bl602_iot_sdk/components/bl602/bl602_std/bl602_std/StdDriver/Inc/bl602_dma.h"
	.file 10 "/home/chandu/sdk/bl602_iot_sdk/components/bl602/bl602_std/bl602_std/StdDriver/Inc/bl602_adc.h"
	.file 11 "/home/chandu/sdk/bl602_iot_sdk/components/hal_drv/bl602_hal/bl_adc.h"
	.file 12 "/home/chandu/sdk/bl602_iot_sdk/components/hal_drv/bl602_hal/bl_dma.h"
	.file 13 "/home/chandu/sdk/bl602_iot_sdk/components/freertos/include/portable.h"
	.file 14 "/home/chandu/sdk/bl602_iot_sdk/toolchain/compiler/riscv32-unknown-elf/include/stdio.h"
	.file 15 "/home/chandu/sdk/bl602_iot_sdk/components/utils/include/utils_log.h"
	.file 16 "/home/chandu/sdk/bl602_iot_sdk/components/freertos/include/task.h"
	.section	.note.GNU-stack,"",@progbits
