	.file	"bl_boot2.c"
	.option nopic
	.attribute arch, "rv32i2p1_m2p0_f2p2_c2p0_zicsr2p0_zmmul1p0_zca1p0_zcf1p0"
	.attribute unaligned_access, 0
	.attribute stack_align, 16
	.text
.Ltext0:
	.cfi_sections	.debug_frame
	.file 0 "/home/chandu/sdk/bl602_iot_sdk/customer_app/suas_app_pqkem_gateway/build_out/hal_drv" "/home/chandu/sdk/bl602_iot_sdk/components/hal_drv/bl602_hal/bl_boot2.c"
	.section	.text.PtTable_Update_Entry,"ax",@progbits
	.align	1
	.globl	PtTable_Update_Entry
	.type	PtTable_Update_Entry, @function
PtTable_Update_Entry:
.LFB8:
	.file 1 "/home/chandu/sdk/bl602_iot_sdk/components/hal_drv/bl602_hal/bl_boot2.c"
	.loc 1 40 1
	.cfi_startproc
	addi	sp,sp,-64
	.cfi_def_cfa_offset 64
	sw	ra,60(sp)
	sw	s0,56(sp)
	.cfi_offset 1, -4
	.cfi_offset 8, -8
	addi	s0,sp,64
	.cfi_def_cfa 8, 0
	sw	a0,-52(s0)
	mv	a5,a1
	sw	a2,-60(s0)
	sw	a3,-64(s0)
	sb	a5,-53(s0)
	.loc 1 41 14
	sw	zero,-20(s0)
	.loc 1 49 7
	lw	a5,-64(s0)
	beq	a5,zero,.L2
	.loc 1 49 20 discriminator 1
	lw	a5,-60(s0)
	bne	a5,zero,.L3
.L2:
	.loc 1 50 16
	li	a5,5
	j	.L4
.L3:
	.loc 1 53 12
	lw	a5,-60(s0)
	sw	a5,-28(s0)
	.loc 1 54 14
	lw	a5,-60(s0)
	addi	a5,a5,16
	sw	a5,-32(s0)
	.loc 1 56 7
	lbu	a4,-53(s0)
	li	a5,2
	bne	a4,a5,.L5
	.loc 1 57 16
	li	a5,1
	j	.L4
.L5:
	.loc 1 60 7
	lbu	a5,-53(s0)
	bne	a5,zero,.L6
	.loc 1 61 18
	li	a5,57344
	sw	a5,-24(s0)
	j	.L7
.L6:
	.loc 1 63 18
	li	a5,61440
	sw	a5,-24(s0)
.L7:
	.loc 1 65 11
	sw	zero,-20(s0)
	.loc 1 65 5
	j	.L8
.L11:
	.loc 1 66 22
	lw	a4,-20(s0)
	mv	a5,a4
	slli	a5,a5,3
	add	a5,a5,a4
	slli	a5,a5,2
	mv	a4,a5
	lw	a5,-32(s0)
	add	a5,a5,a4
	.loc 1 66 25
	lbu	a4,0(a5)
	.loc 1 66 41
	lw	a5,-64(s0)
	lbu	a5,0(a5)
	.loc 1 66 12
	bne	a4,a5,.L9
	.loc 1 67 30
	lw	a4,-20(s0)
	mv	a5,a4
	slli	a5,a5,3
	add	a5,a5,a4
	slli	a5,a5,2
	mv	a4,a5
	.loc 1 67 20
	lw	a5,-32(s0)
	add	a5,a5,a4
	.loc 1 67 13
	li	a2,36
	lw	a1,-64(s0)
	mv	a0,a5
	call	memcpy
	.loc 1 68 13
	j	.L10
.L9:
	.loc 1 65 39 discriminator 2
	lw	a5,-20(s0)
	addi	a5,a5,1
	sw	a5,-20(s0)
.L8:
	.loc 1 65 26 discriminator 1
	lw	a5,-28(s0)
	lhu	a5,6(a5)
	mv	a4,a5
	.loc 1 65 17 discriminator 1
	lw	a5,-20(s0)
	bltu	a5,a4,.L11
.L10:
	.loc 1 71 18
	lw	a5,-28(s0)
	lhu	a5,6(a5)
	mv	a4,a5
	.loc 1 71 7
	lw	a5,-20(s0)
	bne	a5,a4,.L12
	.loc 1 73 19
	lw	a5,-28(s0)
	lhu	a4,6(a5)
	.loc 1 73 11
	li	a5,15
	bgtu	a4,a5,.L13
	.loc 1 74 38
	lw	a5,-28(s0)
	lhu	a5,6(a5)
	mv	a4,a5
	.loc 1 74 30
	mv	a5,a4
	slli	a5,a5,3
	add	a5,a5,a4
	slli	a5,a5,2
	mv	a4,a5
	.loc 1 74 20
	lw	a5,-32(s0)
	add	a5,a5,a4
	.loc 1 74 13
	li	a2,36
	lw	a1,-64(s0)
	mv	a0,a5
	call	memcpy
	.loc 1 75 20
	lw	a5,-28(s0)
	lhu	a5,6(a5)
	.loc 1 75 30
	addi	a5,a5,1
	slli	a4,a5,16
	srli	a4,a4,16
	lw	a5,-28(s0)
	sh	a4,6(a5)
	j	.L12
.L13:
	.loc 1 77 20
	li	a5,3
	j	.L4
.L12:
	.loc 1 83 12
	lw	a5,-28(s0)
	lw	a5,8(a5)
	.loc 1 83 17
	addi	a4,a5,1
	lw	a5,-28(s0)
	sw	a4,8(a5)
	.loc 1 84 20
	li	a1,12
	lw	a0,-28(s0)
	call	BFLB_Soft_CRC32
	mv	a4,a0
	.loc 1 84 19 discriminator 1
	lw	a5,-28(s0)
	sw	a4,12(a5)
	.loc 1 87 23
	lw	a5,-28(s0)
	lhu	a5,6(a5)
	mv	a4,a5
	.loc 1 87 15
	mv	a5,a4
	slli	a5,a5,3
	add	a5,a5,a4
	slli	a5,a5,2
	sw	a5,-36(s0)
	.loc 1 88 25
	lw	a4,-32(s0)
	.loc 1 88 44
	lw	a5,-36(s0)
	add	a5,a4,a5
	.loc 1 88 11
	sw	a5,-40(s0)
	.loc 1 89 13
	lw	a1,-36(s0)
	lw	a0,-32(s0)
	call	BFLB_Soft_CRC32
	mv	a4,a0
	.loc 1 89 12 discriminator 1
	lw	a5,-40(s0)
	sw	a4,0(a5)
	.loc 1 93 67
	lw	a5,-36(s0)
	addi	a5,a5,20
	.loc 1 93 9
	mv	a1,a5
	lw	a0,-24(s0)
	call	bl_flash_erase
	mv	a5,a0
	.loc 1 93 8 discriminator 1
	sb	a5,-41(s0)
	.loc 1 94 7
	lbu	a5,-41(s0)
	beq	a5,zero,.L14
	.loc 1 96 16
	li	a5,7
	j	.L4
.L14:
	.loc 1 99 9
	li	a2,596
	lw	a1,-60(s0)
	lw	a0,-24(s0)
	call	bl_flash_write
	mv	a5,a0
	.loc 1 99 8 discriminator 1
	sb	a5,-41(s0)
	.loc 1 100 7
	lbu	a5,-41(s0)
	beq	a5,zero,.L15
	.loc 1 102 16
	li	a5,7
	j	.L4
.L15:
	.loc 1 105 12
	li	a5,0
.L4:
	.loc 1 106 1
	mv	a0,a5
	lw	ra,60(sp)
	.cfi_restore 1
	lw	s0,56(sp)
	.cfi_restore 8
	.cfi_def_cfa 2, 64
	addi	sp,sp,64
	.cfi_def_cfa_offset 0
	jr	ra
	.cfi_endproc
.LFE8:
	.size	PtTable_Update_Entry, .-PtTable_Update_Entry
	.section	.text.PtTable_Get_Active_Entries,"ax",@progbits
	.align	1
	.globl	PtTable_Get_Active_Entries
	.type	PtTable_Get_Active_Entries, @function
PtTable_Get_Active_Entries:
.LFB9:
	.loc 1 111 1
	.cfi_startproc
	addi	sp,sp,-48
	.cfi_def_cfa_offset 48
	sw	ra,44(sp)
	sw	s0,40(sp)
	.cfi_offset 1, -4
	.cfi_offset 8, -8
	addi	s0,sp,48
	.cfi_def_cfa 8, 0
	sw	a0,-36(s0)
	mv	a5,a1
	sw	a2,-44(s0)
	sb	a5,-37(s0)
	.loc 1 112 14
	sw	zero,-20(s0)
	.loc 1 114 7
	lw	a5,-36(s0)
	beq	a5,zero,.L17
	.loc 1 114 20 discriminator 1
	lw	a5,-44(s0)
	bne	a5,zero,.L18
.L17:
	.loc 1 115 16
	li	a5,5
	j	.L19
.L18:
	.loc 1 117 11
	sw	zero,-20(s0)
	.loc 1 117 5
	j	.L20
.L22:
	.loc 1 118 34
	lw	a3,-36(s0)
	lw	a4,-20(s0)
	mv	a5,a4
	slli	a5,a5,3
	add	a5,a5,a4
	slli	a5,a5,2
	add	a5,a3,a5
	lbu	a5,16(a5)
	.loc 1 118 12
	lbu	a4,-37(s0)
	bne	a4,a5,.L21
	.loc 1 119 28
	lw	a4,-20(s0)
	mv	a5,a4
	slli	a5,a5,3
	add	a5,a5,a4
	slli	a5,a5,2
	addi	a5,a5,16
	lw	a4,-36(s0)
	add	a5,a4,a5
	.loc 1 119 13
	li	a2,36
	mv	a1,a5
	lw	a0,-44(s0)
	call	memcpy
	.loc 1 120 20
	li	a5,0
	j	.L19
.L21:
	.loc 1 117 47 discriminator 2
	lw	a5,-20(s0)
	addi	a5,a5,1
	sw	a5,-20(s0)
.L20:
	.loc 1 117 35 discriminator 1
	lw	a5,-36(s0)
	lhu	a5,6(a5)
	mv	a4,a5
	.loc 1 117 17 discriminator 1
	lw	a5,-20(s0)
	bltu	a5,a4,.L22
	.loc 1 123 12
	li	a5,2
.L19:
	.loc 1 124 1
	mv	a0,a5
	lw	ra,44(sp)
	.cfi_restore 1
	lw	s0,40(sp)
	.cfi_restore 8
	.cfi_def_cfa 2, 48
	addi	sp,sp,48
	.cfi_def_cfa_offset 0
	jr	ra
	.cfi_endproc
.LFE9:
	.size	PtTable_Get_Active_Entries, .-PtTable_Get_Active_Entries
	.text
.Letext0:
	.file 2 "/home/chandu/sdk/bl602_iot_sdk/toolchain/compiler/lib/gcc/riscv32-unknown-elf/15.1.0/include/stddef.h"
	.file 3 "/home/chandu/sdk/bl602_iot_sdk/toolchain/compiler/lib/gcc/riscv32-unknown-elf/15.1.0/include/stdint-gcc.h"
	.file 4 "/home/chandu/sdk/bl602_iot_sdk/components/bl602/bl602_std/bl602_std/StdDriver/Inc/bl602_common.h"
	.file 5 "/home/chandu/sdk/bl602_iot_sdk/components/bl602/bl602_std/bl602_std/StdDriver/Inc/bl602_sflash.h"
	.file 6 "/home/chandu/sdk/bl602_iot_sdk/components/hal_drv/bl602_hal/bl_boot2.h"
	.file 7 "/home/chandu/sdk/bl602_iot_sdk/components/hal_drv/bl602_hal/bl_flash.h"
	.file 8 "/home/chandu/sdk/bl602_iot_sdk/components/bl602/bl602_std/bl602_std/Common/soft_crc/softcrc.h"
	.file 9 "/home/chandu/sdk/bl602_iot_sdk/toolchain/compiler/riscv32-unknown-elf/include/string.h"
	.section	.note.GNU-stack,"",@progbits
