	.file	"bl_chip.c"
	.option nopic
	.attribute arch, "rv32i2p1_m2p0_f2p2_c2p0_zicsr2p0_zmmul1p0_zca1p0_zcf1p0"
	.attribute unaligned_access, 0
	.attribute stack_align, 16
	.text
.Ltext0:
	.cfi_sections	.debug_frame
	.file 0 "/home/chandu/sdk/bl602_iot_sdk/customer_app/suas_app_pqkem_gateway/build_out/hal_drv" "/home/chandu/sdk/bl602_iot_sdk/components/hal_drv/bl602_hal/bl_chip.c"
	.section	.text._risc_isa_info,"ax",@progbits
	.align	1
	.type	_risc_isa_info, @function
_risc_isa_info:
.LFB1:
	.file 1 "/home/chandu/sdk/bl602_iot_sdk/components/hal_drv/bl602_hal/bl_chip.c"
	.loc 1 36 1
	.cfi_startproc
	addi	sp,sp,-32
	.cfi_def_cfa_offset 32
	sw	ra,28(sp)
	sw	s0,24(sp)
	.cfi_offset 1, -4
	.cfi_offset 8, -8
	addi	s0,sp,32
	.cfi_def_cfa 8, 0
	.loc 1 37 23
	sw	zero,-20(s0)
	.loc 1 39 5
 #APP
# 39 "/home/chandu/sdk/bl602_iot_sdk/components/hal_drv/bl602_hal/bl_chip.c" 1
	csrr a5, misa
# 0 "" 2
 #NO_APP
	sw	a5,-20(s0)
	.loc 1 41 12
	lw	a5,-20(s0)
	.loc 1 42 1
	mv	a0,a5
	lw	ra,28(sp)
	.cfi_restore 1
	lw	s0,24(sp)
	.cfi_restore 8
	.cfi_def_cfa 2, 32
	addi	sp,sp,32
	.cfi_def_cfa_offset 0
	jr	ra
	.cfi_endproc
.LFE1:
	.size	_risc_isa_info, .-_risc_isa_info
	.section	.rodata
	.align	2
.LC0:
	.string	"RV32"
	.align	2
.LC1:
	.string	"RV64"
	.align	2
.LC2:
	.string	"RV128"
	.align	2
.LC3:
	.string	"RVxx"
	.section	.text.bl_chip_info,"ax",@progbits
	.align	1
	.globl	bl_chip_info
	.type	bl_chip_info, @function
bl_chip_info:
.LFB2:
	.loc 1 46 1
	.cfi_startproc
	addi	sp,sp,-48
	.cfi_def_cfa_offset 48
	sw	ra,44(sp)
	sw	s0,40(sp)
	.cfi_offset 1, -4
	.cfi_offset 8, -8
	addi	s0,sp,48
	.cfi_def_cfa 8, 0
	sw	a0,-36(s0)
	.loc 1 50 12
	call	_risc_isa_info
	sw	a0,-24(s0)
	.loc 1 53 15
	lw	a5,-24(s0)
	srli	a5,a5,30
	.loc 1 53 7
	sw	a5,-20(s0)
	.loc 1 54 5
	lw	a4,-20(s0)
	li	a5,3
	beq	a4,a5,.L4
	lw	a4,-20(s0)
	li	a5,3
	bgt	a4,a5,.L5
	lw	a4,-20(s0)
	li	a5,1
	beq	a4,a5,.L6
	lw	a4,-20(s0)
	li	a5,2
	beq	a4,a5,.L7
	j	.L5
.L6:
	.loc 1 57 13
	li	a2,4
	lui	a5,%hi(.LC0)
	addi	a1,a5,%lo(.LC0)
	lw	a0,-36(s0)
	call	memcpy
	.loc 1 58 18
	lw	a5,-36(s0)
	addi	a5,a5,4
	sw	a5,-36(s0)
	.loc 1 60 9
	j	.L8
.L7:
	.loc 1 63 13
	li	a2,4
	lui	a5,%hi(.LC1)
	addi	a1,a5,%lo(.LC1)
	lw	a0,-36(s0)
	call	memcpy
	.loc 1 64 18
	lw	a5,-36(s0)
	addi	a5,a5,4
	sw	a5,-36(s0)
	.loc 1 66 9
	j	.L8
.L4:
	.loc 1 69 13
	li	a2,5
	lui	a5,%hi(.LC2)
	addi	a1,a5,%lo(.LC2)
	lw	a0,-36(s0)
	call	memcpy
	.loc 1 70 18
	lw	a5,-36(s0)
	addi	a5,a5,5
	sw	a5,-36(s0)
	.loc 1 72 9
	j	.L8
.L5:
	.loc 1 75 13
	li	a2,4
	lui	a5,%hi(.LC3)
	addi	a1,a5,%lo(.LC3)
	lw	a0,-36(s0)
	call	memcpy
	.loc 1 76 18
	lw	a5,-36(s0)
	addi	a5,a5,4
	sw	a5,-36(s0)
	.loc 1 78 9
	nop
.L8:
	.loc 1 82 11
	lw	a5,-36(s0)
	addi	a4,a5,1
	sw	a4,-36(s0)
	.loc 1 82 15
	li	a4,45
	sb	a4,0(a5)
	.loc 1 85 12
	sw	zero,-20(s0)
	.loc 1 85 5
	j	.L9
.L11:
	.loc 1 86 23
	lw	a5,-20(s0)
	li	a4,1
	sll	a5,a4,a5
	mv	a4,a5
	.loc 1 86 18
	lw	a5,-24(s0)
	and	a5,a4,a5
	.loc 1 86 12
	beq	a5,zero,.L10
	.loc 1 88 30
	lw	a5,-20(s0)
	andi	a4,a5,0xff
	.loc 1 88 19
	lw	a5,-36(s0)
	addi	a3,a5,1
	sw	a3,-36(s0)
	.loc 1 88 30
	addi	a4,a4,65
	andi	a4,a4,0xff
	.loc 1 88 23
	sb	a4,0(a5)
.L10:
	.loc 1 85 26 discriminator 2
	lw	a5,-20(s0)
	addi	a5,a5,1
	sw	a5,-20(s0)
.L9:
	.loc 1 85 19 discriminator 1
	lw	a4,-20(s0)
	li	a5,25
	ble	a4,a5,.L11
	.loc 1 91 11
	lw	a5,-36(s0)
	sb	zero,0(a5)
	.loc 1 93 12
	li	a5,0
	.loc 1 94 1
	mv	a0,a5
	lw	ra,44(sp)
	.cfi_restore 1
	lw	s0,40(sp)
	.cfi_restore 8
	.cfi_def_cfa 2, 48
	addi	sp,sp,48
	.cfi_def_cfa_offset 0
	jr	ra
	.cfi_endproc
.LFE2:
	.size	bl_chip_info, .-bl_chip_info
	.section	.rodata.bannder_shadow_bl602,"a"
	.align	2
	.type	bannder_shadow_bl602, @object
	.size	bannder_shadow_bl602, 697
bannder_shadow_bl602:
	.base64	"4paI4paI4paI4paI4paI4paI4pWXIOKWiOKWiOKVlyAgICAgIOKWiOKWiOKWiOKWiOKWiOKWiOKVlyAg4paI4paI4paI4paI4paI4paI4pWXIOKWiOKWiOKWiOKWiOKWiOKWiOKVlwoN4paI4paI4pWU4pWQ4pWQ4paI4paI4pWX4paI4paI4pWRICAgICDilojilojilZTilZDilZDilZDilZDilZ0g4paI4paI4pWU4pWQ4paI4paI4paI4paI4pWX4pWa4pWQ4pWQ4pWQ4pWQ4paI4paI4pWXCg3ilojilojilojilojilojilojilZTilZ3ilojilojilZEg"
	.base64	"ICAgIOKWiOKWiOKWiOKWiOKWiOKWiOKWiOKVlyDilojilojilZHilojilojilZTilojilojilZEg4paI4paI4paI4paI4paI4pWU4pWdCg3ilojilojilZTilZDilZDilojilojilZfilojilojilZEgICAgIOKWiOKWiOKVlOKVkOKVkOKVkOKWiOKWiOKVl+KWiOKWiOKWiOKWiOKVlOKVneKWiOKWiOKVkeKWiOKWiOKVlOKVkOKVkOKVkOKVnQoN4paI4paI4paI4paI4paI4paI4pWU4pWd4paI4paI4paI4paI4paI4paI4paI4pWX4pWa4paI4paI4paI"
	.base64	"4paI4paI4paI4pWU4pWd4pWa4paI4paI4paI4paI4paI4paI4pWU4pWd4paI4paI4paI4paI4paI4paI4paI4pWXCg3ilZrilZDilZDilZDilZDilZDilZ0g4pWa4pWQ4pWQ4pWQ4pWQ4pWQ4pWQ4pWdIOKVmuKVkOKVkOKVkOKVkOKVkOKVnSAg4pWa4pWQ4pWQ4pWQ4pWQ4pWQ4pWdIOKVmuKVkOKVkOKVkOKVkOKVkOKVkOKVnQoNAA=="
	.section	.text.bl_chip_banner,"ax",@progbits
	.align	1
	.globl	bl_chip_banner
	.type	bl_chip_banner, @function
bl_chip_banner:
.LFB3:
	.loc 1 158 1
	.cfi_startproc
	addi	sp,sp,-32
	.cfi_def_cfa_offset 32
	sw	ra,28(sp)
	sw	s0,24(sp)
	.cfi_offset 1, -4
	.cfi_offset 8, -8
	addi	s0,sp,32
	.cfi_def_cfa 8, 0
	sw	a0,-20(s0)
	.loc 1 159 13
	lw	a5,-20(s0)
	lui	a4,%hi(bannder_shadow_bl602)
	addi	a4,a4,%lo(bannder_shadow_bl602)
	sw	a4,0(a5)
	.loc 1 160 12
	li	a5,0
	.loc 1 161 1
	mv	a0,a5
	lw	ra,28(sp)
	.cfi_restore 1
	lw	s0,24(sp)
	.cfi_restore 8
	.cfi_def_cfa 2, 32
	addi	sp,sp,32
	.cfi_def_cfa_offset 0
	jr	ra
	.cfi_endproc
.LFE3:
	.size	bl_chip_banner, .-bl_chip_banner
	.section	.rodata
	.align	2
.LC4:
	.string	"flash"
	.align	2
.LC5:
	.string	"tcm"
	.align	2
.LC6:
	.string	"wifi"
	.section	.text.bl_chip_memory_ram,"ax",@progbits
	.align	1
	.globl	bl_chip_memory_ram
	.type	bl_chip_memory_ram, @function
bl_chip_memory_ram:
.LFB4:
	.loc 1 164 1
	.cfi_startproc
	addi	sp,sp,-32
	.cfi_def_cfa_offset 32
	sw	ra,28(sp)
	sw	s0,24(sp)
	.cfi_offset 1, -4
	.cfi_offset 8, -8
	addi	s0,sp,32
	.cfi_def_cfa 8, 0
	sw	a0,-20(s0)
	sw	a1,-24(s0)
	sw	a2,-28(s0)
	sw	a3,-32(s0)
	.loc 1 165 9
	lw	a5,-20(s0)
	lw	a4,0(a5)
	.loc 1 165 8
	li	a5,2
	bgt	a4,a5,.L16
	.loc 1 167 16
	li	a5,-1
	j	.L17
.L16:
	.loc 1 169 10
	lw	a5,-20(s0)
	li	a4,3
	sw	a4,0(a5)
	.loc 1 174 15
	lui	a5,%hi(_ld_ram_addr0)
	addi	a4,a5,%lo(_ld_ram_addr0)
	.loc 1 174 13
	lw	a5,-24(s0)
	sw	a4,0(a5)
	.loc 1 175 15
	lui	a5,%hi(_ld_ram_size0)
	addi	a4,a5,%lo(_ld_ram_size0)
	.loc 1 175 13
	lw	a5,-28(s0)
	sw	a4,0(a5)
	.loc 1 176 5
	lui	a5,%hi(.LC4)
	addi	a1,a5,%lo(.LC4)
	lw	a0,-32(s0)
	call	strcpy
	.loc 1 177 9
	lw	a5,-24(s0)
	addi	a5,a5,4
	.loc 1 177 15
	lui	a4,%hi(_ld_ram_addr1)
	addi	a4,a4,%lo(_ld_ram_addr1)
	.loc 1 177 13
	sw	a4,0(a5)
	.loc 1 178 9
	lw	a5,-28(s0)
	addi	a5,a5,4
	.loc 1 178 15
	lui	a4,%hi(_ld_ram_size1)
	addi	a4,a4,%lo(_ld_ram_size1)
	.loc 1 178 13
	sw	a4,0(a5)
	.loc 1 179 16
	lw	a5,-32(s0)
	addi	a4,a5,6
	.loc 1 179 5
	lui	a5,%hi(.LC5)
	addi	a1,a5,%lo(.LC5)
	mv	a0,a4
	call	strcpy
	.loc 1 180 9
	lw	a5,-24(s0)
	addi	a5,a5,8
	.loc 1 180 15
	lui	a4,%hi(_ld_ram_addr2)
	addi	a4,a4,%lo(_ld_ram_addr2)
	.loc 1 180 13
	sw	a4,0(a5)
	.loc 1 181 9
	lw	a5,-28(s0)
	addi	a5,a5,8
	.loc 1 181 15
	lui	a4,%hi(_ld_ram_size2)
	addi	a4,a4,%lo(_ld_ram_size2)
	.loc 1 181 13
	sw	a4,0(a5)
	.loc 1 182 16
	lw	a5,-32(s0)
	addi	a4,a5,12
	.loc 1 182 5
	lui	a5,%hi(.LC6)
	addi	a1,a5,%lo(.LC6)
	mv	a0,a4
	call	strcpy
	.loc 1 183 12
	li	a5,0
.L17:
	.loc 1 184 1
	mv	a0,a5
	lw	ra,28(sp)
	.cfi_restore 1
	lw	s0,24(sp)
	.cfi_restore 8
	.cfi_def_cfa 2, 32
	addi	sp,sp,32
	.cfi_def_cfa_offset 0
	jr	ra
	.cfi_endproc
.LFE4:
	.size	bl_chip_memory_ram, .-bl_chip_memory_ram
	.text
.Letext0:
	.file 2 "/home/chandu/sdk/bl602_iot_sdk/toolchain/compiler/lib/gcc/riscv32-unknown-elf/15.1.0/include/stdint-gcc.h"
	.file 3 "/home/chandu/sdk/bl602_iot_sdk/toolchain/compiler/lib/gcc/riscv32-unknown-elf/15.1.0/include/stddef.h"
	.file 4 "/home/chandu/sdk/bl602_iot_sdk/toolchain/compiler/riscv32-unknown-elf/include/string.h"
	.section	.note.GNU-stack,"",@progbits
