	.file	"bl_dma.c"
	.option nopic
	.attribute arch, "rv32i2p1_m2p0_f2p2_c2p0_zicsr2p0_zmmul1p0_zca1p0_zcf1p0"
	.attribute unaligned_access, 0
	.attribute stack_align, 16
	.text
.Ltext0:
	.cfi_sections	.debug_frame
	.file 0 "/home/chandu/sdk/bl602_iot_sdk/customer_app/suas_app_pqkem_gateway/build_out/hal_drv" "/home/chandu/sdk/bl602_iot_sdk/components/hal_drv/bl602_hal/bl_dma.c"
	.section	.text.utils_list_is_empty,"ax",@progbits
	.align	1
	.type	utils_list_is_empty, @function
utils_list_is_empty:
.LFB9:
	.file 1 "/home/chandu/sdk/bl602_iot_sdk/components/utils/include/utils_list.h"
	.loc 1 221 1
	.cfi_startproc
	addi	sp,sp,-32
	.cfi_def_cfa_offset 32
	sw	ra,28(sp)
	sw	s0,24(sp)
	.cfi_offset 1, -4
	.cfi_offset 8, -8
	addi	s0,sp,32
	.cfi_def_cfa 8, 0
	sw	a0,-20(s0)
	.loc 1 222 24
	lw	a5,-20(s0)
	lw	a5,0(a5)
	.loc 1 222 17
	seqz	a5,a5
	andi	a5,a5,0xff
	.loc 1 223 1
	mv	a0,a5
	lw	ra,28(sp)
	.cfi_restore 1
	lw	s0,24(sp)
	.cfi_restore 8
	.cfi_def_cfa 2, 32
	addi	sp,sp,32
	.cfi_def_cfa_offset 0
	jr	ra
	.cfi_endproc
.LFE9:
	.size	utils_list_is_empty, .-utils_list_is_empty
	.section	.text.utils_list_pick,"ax",@progbits
	.align	1
	.type	utils_list_pick, @function
utils_list_pick:
.LFB10:
	.loc 1 246 1
	.cfi_startproc
	addi	sp,sp,-32
	.cfi_def_cfa_offset 32
	sw	ra,28(sp)
	sw	s0,24(sp)
	.cfi_offset 1, -4
	.cfi_offset 8, -8
	addi	s0,sp,32
	.cfi_def_cfa 8, 0
	sw	a0,-20(s0)
	.loc 1 247 16
	lw	a5,-20(s0)
	lw	a5,0(a5)
	.loc 1 248 1
	mv	a0,a5
	lw	ra,28(sp)
	.cfi_restore 1
	lw	s0,24(sp)
	.cfi_restore 8
	.cfi_def_cfa 2, 32
	addi	sp,sp,32
	.cfi_def_cfa_offset 0
	jr	ra
	.cfi_endproc
.LFE10:
	.size	utils_list_pick, .-utils_list_pick
	.section	.text.__utils_dlist_add,"ax",@progbits
	.align	1
	.type	__utils_dlist_add, @function
__utils_dlist_add:
.LFB13:
	.loc 1 286 1
	.cfi_startproc
	addi	sp,sp,-32
	.cfi_def_cfa_offset 32
	sw	ra,28(sp)
	sw	s0,24(sp)
	.cfi_offset 1, -4
	.cfi_offset 8, -8
	addi	s0,sp,32
	.cfi_def_cfa 8, 0
	sw	a0,-20(s0)
	sw	a1,-24(s0)
	sw	a2,-28(s0)
	.loc 1 287 16
	lw	a5,-20(s0)
	lw	a4,-28(s0)
	sw	a4,4(a5)
	.loc 1 288 16
	lw	a5,-20(s0)
	lw	a4,-24(s0)
	sw	a4,0(a5)
	.loc 1 290 16
	lw	a5,-24(s0)
	lw	a4,-20(s0)
	sw	a4,4(a5)
	.loc 1 291 16
	lw	a5,-28(s0)
	lw	a4,-20(s0)
	sw	a4,0(a5)
	.loc 1 292 1
	nop
	lw	ra,28(sp)
	.cfi_restore 1
	lw	s0,24(sp)
	.cfi_restore 8
	.cfi_def_cfa 2, 32
	addi	sp,sp,32
	.cfi_def_cfa_offset 0
	jr	ra
	.cfi_endproc
.LFE13:
	.size	__utils_dlist_add, .-__utils_dlist_add
	.section	.text.utils_dlist_add,"ax",@progbits
	.align	1
	.type	utils_dlist_add, @function
utils_dlist_add:
.LFB14:
	.loc 1 306 1
	.cfi_startproc
	addi	sp,sp,-32
	.cfi_def_cfa_offset 32
	sw	ra,28(sp)
	sw	s0,24(sp)
	.cfi_offset 1, -4
	.cfi_offset 8, -8
	addi	s0,sp,32
	.cfi_def_cfa 8, 0
	sw	a0,-20(s0)
	sw	a1,-24(s0)
	.loc 1 307 41
	lw	a5,-24(s0)
	lw	a5,4(a5)
	.loc 1 307 5
	mv	a2,a5
	lw	a1,-24(s0)
	lw	a0,-20(s0)
	call	__utils_dlist_add
	.loc 1 308 1
	nop
	lw	ra,28(sp)
	.cfi_restore 1
	lw	s0,24(sp)
	.cfi_restore 8
	.cfi_def_cfa 2, 32
	addi	sp,sp,32
	.cfi_def_cfa_offset 0
	jr	ra
	.cfi_endproc
.LFE14:
	.size	utils_dlist_add, .-utils_dlist_add
	.section	.text.utils_dlist_del,"ax",@progbits
	.align	1
	.type	utils_dlist_del, @function
utils_dlist_del:
.LFB16:
	.loc 1 316 1
	.cfi_startproc
	addi	sp,sp,-48
	.cfi_def_cfa_offset 48
	sw	ra,44(sp)
	sw	s0,40(sp)
	.cfi_offset 1, -4
	.cfi_offset 8, -8
	addi	s0,sp,48
	.cfi_def_cfa 8, 0
	sw	a0,-36(s0)
	.loc 1 317 20
	lw	a5,-36(s0)
	lw	a5,0(a5)
	sw	a5,-20(s0)
	.loc 1 318 20
	lw	a5,-36(s0)
	lw	a5,4(a5)
	sw	a5,-24(s0)
	.loc 1 320 16
	lw	a5,-20(s0)
	lw	a4,-24(s0)
	sw	a4,4(a5)
	.loc 1 321 16
	lw	a5,-24(s0)
	lw	a4,-20(s0)
	sw	a4,0(a5)
	.loc 1 322 1
	nop
	lw	ra,44(sp)
	.cfi_restore 1
	lw	s0,40(sp)
	.cfi_restore 8
	.cfi_def_cfa 2, 48
	addi	sp,sp,48
	.cfi_def_cfa_offset 0
	jr	ra
	.cfi_endproc
.LFE16:
	.size	utils_dlist_del, .-utils_dlist_del
	.section	.text.INIT_UTILS_DLIST_HEAD,"ax",@progbits
	.align	1
	.type	INIT_UTILS_DLIST_HEAD, @function
INIT_UTILS_DLIST_HEAD:
.LFB18:
	.loc 1 330 1
	.cfi_startproc
	addi	sp,sp,-32
	.cfi_def_cfa_offset 32
	sw	ra,28(sp)
	sw	s0,24(sp)
	.cfi_offset 1, -4
	.cfi_offset 8, -8
	addi	s0,sp,32
	.cfi_def_cfa 8, 0
	sw	a0,-20(s0)
	.loc 1 331 16
	lw	a5,-20(s0)
	lw	a4,-20(s0)
	sw	a4,4(a5)
	.loc 1 332 16
	lw	a5,-20(s0)
	lw	a4,-20(s0)
	sw	a4,0(a5)
	.loc 1 333 1
	nop
	lw	ra,28(sp)
	.cfi_restore 1
	lw	s0,24(sp)
	.cfi_restore 8
	.cfi_def_cfa 2, 32
	addi	sp,sp,32
	.cfi_def_cfa_offset 0
	jr	ra
	.cfi_endproc
.LFE18:
	.size	INIT_UTILS_DLIST_HEAD, .-INIT_UTILS_DLIST_HEAD
	.section	.sbss.dma_copy_list,"aw",@nobits
	.align	2
	.type	dma_copy_list, @object
	.size	dma_copy_list, 8
dma_copy_list:
	.zero	8
	.section	.text.bl_dma_int_clear,"ax",@progbits
	.align	1
	.globl	bl_dma_int_clear
	.type	bl_dma_int_clear, @function
bl_dma_int_clear:
.LFB27:
	.file 2 "/home/chandu/sdk/bl602_iot_sdk/components/hal_drv/bl602_hal/bl_dma.c"
	.loc 2 69 1
	.cfi_startproc
	addi	sp,sp,-48
	.cfi_def_cfa_offset 48
	sw	ra,44(sp)
	sw	s0,40(sp)
	.cfi_offset 1, -4
	.cfi_offset 8, -8
	addi	s0,sp,48
	.cfi_def_cfa 8, 0
	sw	a0,-36(s0)
	.loc 2 73 14
	li	a5,1073790976
	sw	a5,-20(s0)
	.loc 2 75 44
	lw	a5,-20(s0)
	addi	a5,a5,4
	.loc 2 75 12
	lw	a5,0(a5)
	sw	a5,-24(s0)
	.loc 2 76 62
	lw	a5,-36(s0)
	li	a4,1
	sll	a5,a4,a5
	.loc 2 76 57
	mv	a4,a5
	lw	a5,-24(s0)
	and	a5,a4,a5
	andi	a5,a5,255
	.loc 2 76 7
	beq	a5,zero,.L10
	.loc 2 78 48
	lw	a5,-20(s0)
	addi	a5,a5,8
	.loc 2 78 16
	lw	a5,0(a5)
	sw	a5,-24(s0)
	.loc 2 79 16
	lw	a5,-24(s0)
	andi	a5,a5,255
	sw	a5,-28(s0)
	.loc 2 80 22
	lw	a5,-36(s0)
	li	a4,1
	sll	a5,a4,a5
	mv	a4,a5
	.loc 2 80 16
	lw	a5,-28(s0)
	or	a5,a5,a4
	sw	a5,-28(s0)
	.loc 2 81 29
	lw	a5,-24(s0)
	andi	a5,a5,-256
	.loc 2 81 16
	lw	a4,-28(s0)
	or	a5,a4,a5
	sw	a5,-24(s0)
	.loc 2 82 39
	lw	a5,-20(s0)
	addi	a5,a5,8
	.loc 2 82 12
	mv	a4,a5
	.loc 2 82 47
	lw	a5,-24(s0)
	sw	a5,0(a4)
.L10:
	.loc 2 85 44
	lw	a5,-20(s0)
	addi	a5,a5,12
	.loc 2 85 12
	lw	a5,0(a5)
	sw	a5,-24(s0)
	.loc 2 86 62
	lw	a5,-36(s0)
	li	a4,1
	sll	a5,a4,a5
	.loc 2 86 57
	mv	a4,a5
	lw	a5,-24(s0)
	and	a5,a4,a5
	andi	a5,a5,255
	.loc 2 86 7
	beq	a5,zero,.L11
	.loc 2 88 48
	lw	a5,-20(s0)
	addi	a5,a5,16
	.loc 2 88 16
	lw	a5,0(a5)
	sw	a5,-24(s0)
	.loc 2 89 16
	lw	a5,-24(s0)
	andi	a5,a5,255
	sw	a5,-28(s0)
	.loc 2 90 22
	lw	a5,-36(s0)
	li	a4,1
	sll	a5,a4,a5
	mv	a4,a5
	.loc 2 90 16
	lw	a5,-28(s0)
	or	a5,a5,a4
	sw	a5,-28(s0)
	.loc 2 91 29
	lw	a5,-24(s0)
	andi	a5,a5,-256
	.loc 2 91 16
	lw	a4,-28(s0)
	or	a5,a4,a5
	sw	a5,-24(s0)
	.loc 2 92 39
	lw	a5,-20(s0)
	addi	a5,a5,16
	.loc 2 92 12
	mv	a4,a5
	.loc 2 92 48
	lw	a5,-24(s0)
	sw	a5,0(a4)
.L11:
	.loc 2 95 12
	li	a5,0
	.loc 2 96 1
	mv	a0,a5
	lw	ra,44(sp)
	.cfi_restore 1
	lw	s0,40(sp)
	.cfi_restore 8
	.cfi_def_cfa 2, 48
	addi	sp,sp,48
	.cfi_def_cfa_offset 0
	jr	ra
	.cfi_endproc
.LFE27:
	.size	bl_dma_int_clear, .-bl_dma_int_clear
	.section	.text.bl_dma_update_memsrc,"ax",@progbits
	.align	1
	.globl	bl_dma_update_memsrc
	.type	bl_dma_update_memsrc, @function
bl_dma_update_memsrc:
.LFB28:
	.loc 2 99 1
	.cfi_startproc
	addi	sp,sp,-48
	.cfi_def_cfa_offset 48
	sw	ra,44(sp)
	sw	s0,40(sp)
	.cfi_offset 1, -4
	.cfi_offset 8, -8
	addi	s0,sp,48
	.cfi_def_cfa 8, 0
	mv	a5,a0
	sw	a1,-40(s0)
	sw	a2,-44(s0)
	sb	a5,-33(s0)
	.loc 2 102 58
	lbu	a5,-33(s0)
	slli	a5,a5,8
	mv	a4,a5
	.loc 2 102 14
	li	a5,1073790976
	addi	a5,a5,256
	add	a5,a4,a5
	sw	a5,-20(s0)
	.loc 2 108 8
	lw	a5,-20(s0)
	.loc 2 108 43
	lw	a4,-40(s0)
	sw	a4,0(a5)
	.loc 2 110 44
	lw	a5,-20(s0)
	addi	a5,a5,12
	.loc 2 110 12
	lw	a5,0(a5)
	sw	a5,-24(s0)
	.loc 2 111 25
	lw	a4,-24(s0)
	li	a5,-4096
	and	a5,a4,a5
	.loc 2 111 12
	lw	a4,-44(s0)
	or	a5,a4,a5
	sw	a5,-24(s0)
	.loc 2 112 35
	lw	a5,-20(s0)
	addi	a5,a5,12
	.loc 2 112 8
	mv	a4,a5
	.loc 2 112 43
	lw	a5,-24(s0)
	sw	a5,0(a4)
	.loc 2 113 1
	nop
	lw	ra,44(sp)
	.cfi_restore 1
	lw	s0,40(sp)
	.cfi_restore 8
	.cfi_def_cfa 2, 48
	addi	sp,sp,48
	.cfi_def_cfa_offset 0
	jr	ra
	.cfi_endproc
.LFE28:
	.size	bl_dma_update_memsrc, .-bl_dma_update_memsrc
	.section	.text.bl_dma_update_memdst,"ax",@progbits
	.align	1
	.globl	bl_dma_update_memdst
	.type	bl_dma_update_memdst, @function
bl_dma_update_memdst:
.LFB29:
	.loc 2 116 1
	.cfi_startproc
	addi	sp,sp,-48
	.cfi_def_cfa_offset 48
	sw	ra,44(sp)
	sw	s0,40(sp)
	.cfi_offset 1, -4
	.cfi_offset 8, -8
	addi	s0,sp,48
	.cfi_def_cfa 8, 0
	mv	a5,a0
	sw	a1,-40(s0)
	sw	a2,-44(s0)
	sb	a5,-33(s0)
	.loc 2 119 58
	lbu	a5,-33(s0)
	slli	a5,a5,8
	mv	a4,a5
	.loc 2 119 14
	li	a5,1073790976
	addi	a5,a5,256
	add	a5,a4,a5
	sw	a5,-20(s0)
	.loc 2 125 35
	lw	a5,-20(s0)
	addi	a5,a5,4
	.loc 2 125 8
	mv	a4,a5
	.loc 2 125 43
	lw	a5,-40(s0)
	sw	a5,0(a4)
	.loc 2 127 44
	lw	a5,-20(s0)
	addi	a5,a5,12
	.loc 2 127 12
	lw	a5,0(a5)
	sw	a5,-24(s0)
	.loc 2 128 25
	lw	a4,-24(s0)
	li	a5,-4096
	and	a5,a4,a5
	.loc 2 128 12
	lw	a4,-44(s0)
	or	a5,a4,a5
	sw	a5,-24(s0)
	.loc 2 129 35
	lw	a5,-20(s0)
	addi	a5,a5,12
	.loc 2 129 8
	mv	a4,a5
	.loc 2 129 43
	lw	a5,-24(s0)
	sw	a5,0(a4)
	.loc 2 130 1
	nop
	lw	ra,44(sp)
	.cfi_restore 1
	lw	s0,40(sp)
	.cfi_restore 8
	.cfi_def_cfa 2, 48
	addi	sp,sp,48
	.cfi_def_cfa_offset 0
	jr	ra
	.cfi_endproc
.LFE29:
	.size	bl_dma_update_memdst, .-bl_dma_update_memdst
	.section	.text._dma_copy_trigger,"ax",@progbits
	.align	1
	.type	_dma_copy_trigger, @function
_dma_copy_trigger:
.LFB30:
	.loc 2 133 1
	.cfi_startproc
	addi	sp,sp,-32
	.cfi_def_cfa_offset 32
	sw	ra,28(sp)
	sw	s0,24(sp)
	.cfi_offset 1, -4
	.cfi_offset 8, -8
	addi	s0,sp,32
	.cfi_def_cfa 8, 0
	sw	a0,-20(s0)
	.loc 2 135 41
	lw	a5,-20(s0)
	addi	a5,a5,12
	.loc 2 135 5
	mv	a1,a5
	li	a0,0
	call	DMA_LLI_Update
	.loc 2 136 5
	li	a0,0
	call	DMA_Channel_Enable
	.loc 2 137 1
	nop
	lw	ra,28(sp)
	.cfi_restore 1
	lw	s0,24(sp)
	.cfi_restore 8
	.cfi_def_cfa 2, 32
	addi	sp,sp,32
	.cfi_def_cfa_offset 0
	jr	ra
	.cfi_endproc
.LFE30:
	.size	_dma_copy_trigger, .-_dma_copy_trigger
	.section	.text.bl_dma_copy,"ax",@progbits
	.align	1
	.globl	bl_dma_copy
	.type	bl_dma_copy, @function
bl_dma_copy:
.LFB31:
	.loc 2 140 1
	.cfi_startproc
	addi	sp,sp,-32
	.cfi_def_cfa_offset 32
	sw	ra,28(sp)
	sw	s0,24(sp)
	.cfi_offset 1, -4
	.cfi_offset 8, -8
	addi	s0,sp,32
	.cfi_def_cfa 8, 0
	sw	a0,-20(s0)
	.loc 2 141 5
	call	vTaskEnterCritical
	.loc 2 142 9
	lui	a5,%hi(dma_copy_list)
	addi	a0,a5,%lo(dma_copy_list)
	call	utils_list_is_empty
	mv	a5,a0
	.loc 2 142 8 discriminator 1
	beq	a5,zero,.L17
	.loc 2 143 9
	lw	a0,-20(s0)
	call	_dma_copy_trigger
.L17:
	.loc 2 145 5
	lw	a5,-20(s0)
	mv	a1,a5
	lui	a5,%hi(dma_copy_list)
	addi	a0,a5,%lo(dma_copy_list)
	call	utils_list_push_back
	.loc 2 146 5
	call	vTaskExitCritical
	.loc 2 147 1
	nop
	lw	ra,28(sp)
	.cfi_restore 1
	lw	s0,24(sp)
	.cfi_restore 8
	.cfi_def_cfa 2, 32
	addi	sp,sp,32
	.cfi_def_cfa_offset 0
	jr	ra
	.cfi_endproc
.LFE31:
	.size	bl_dma_copy, .-bl_dma_copy
	.section	.text.bl_dma_IRQHandler,"ax",@progbits
	.align	1
	.globl	bl_dma_IRQHandler
	.type	bl_dma_IRQHandler, @function
bl_dma_IRQHandler:
.LFB32:
	.loc 2 150 1
	.cfi_startproc
	addi	sp,sp,-32
	.cfi_def_cfa_offset 32
	sw	ra,28(sp)
	sw	s0,24(sp)
	.cfi_offset 1, -4
	.cfi_offset 8, -8
	addi	s0,sp,32
	.cfi_def_cfa 8, 0
	.loc 2 154 5
	li	a0,0
	call	bl_dma_int_clear
	.loc 2 155 34
	lui	a5,%hi(dma_copy_list)
	addi	a0,a5,%lo(dma_copy_list)
	call	utils_list_pop_front
	sw	a0,-20(s0)
	.loc 2 156 8
	lw	a5,-20(s0)
	bne	a5,zero,.L19
.L20:
	.loc 2 158 15
	nop
	j	.L20
.L19:
	.loc 2 161 14
	lw	a5,-20(s0)
	lw	a5,4(a5)
	.loc 2 161 8
	beq	a5,zero,.L21
	.loc 2 162 14
	lw	a5,-20(s0)
	lw	a5,4(a5)
	.loc 2 162 9
	lw	a4,-20(s0)
	lw	a4,8(a4)
	mv	a0,a4
	jalr	a5
.LVL0:
.L21:
	.loc 2 166 34
	lui	a5,%hi(dma_copy_list)
	addi	a0,a5,%lo(dma_copy_list)
	call	utils_list_pick
	sw	a0,-20(s0)
	.loc 2 167 8
	lw	a5,-20(s0)
	beq	a5,zero,.L23
	.loc 2 168 9
	lw	a0,-20(s0)
	call	_dma_copy_trigger
.L23:
	.loc 2 170 1
	nop
	lw	ra,28(sp)
	.cfi_restore 1
	lw	s0,24(sp)
	.cfi_restore 8
	.cfi_def_cfa 2, 32
	addi	sp,sp,32
	.cfi_def_cfa_offset 0
	jr	ra
	.cfi_endproc
.LFE32:
	.size	bl_dma_IRQHandler, .-bl_dma_IRQHandler
	.section	.text.bl_dma_mem_malloc,"ax",@progbits
	.align	1
	.globl	bl_dma_mem_malloc
	.type	bl_dma_mem_malloc, @function
bl_dma_mem_malloc:
.LFB33:
	.loc 2 173 1
	.cfi_startproc
	addi	sp,sp,-64
	.cfi_def_cfa_offset 64
	sw	ra,60(sp)
	sw	s0,56(sp)
	.cfi_offset 1, -4
	.cfi_offset 8, -8
	addi	s0,sp,64
	.cfi_def_cfa 8, 0
	sw	a0,-52(s0)
	.loc 2 179 16
	li	a5,33636352
	sw	a5,-32(s0)
	.loc 2 180 14
	li	a5,33685504
	sw	a5,-36(s0)
	.loc 2 182 21
	call	xPortGetFreeHeapSize
	mv	a5,a0
	.loc 2 182 44 discriminator 1
	srli	a5,a5,10
	.loc 2 182 19 discriminator 1
	addi	a5,a5,1
	sw	a5,-40(s0)
	.loc 2 183 46
	lw	a5,-40(s0)
	slli	a5,a5,2
	.loc 2 183 19
	mv	a0,a5
	call	pvPortMalloc
	sw	a0,-44(s0)
	.loc 2 184 42
	lw	a5,-40(s0)
	slli	a5,a5,2
	.loc 2 184 5
	mv	a2,a5
	li	a1,0
	lw	a0,-44(s0)
	call	memset
	.loc 2 185 8
	lw	a5,-44(s0)
	bne	a5,zero,.L25
	.loc 2 186 15
	li	a5,0
	j	.L26
.L25:
	.loc 2 189 9
	sw	zero,-20(s0)
	.loc 2 190 12
	sw	zero,-24(s0)
.L31:
	.loc 2 192 15
	li	a0,1024
	call	pvPortMalloc
	sw	a0,-20(s0)
	.loc 2 194 12
	lw	a5,-20(s0)
	beq	a5,zero,.L34
	.loc 2 198 27
	lw	a5,-24(s0)
	addi	a4,a5,1
	sw	a4,-24(s0)
	.loc 2 198 20
	slli	a5,a5,2
	lw	a4,-44(s0)
	add	a5,a4,a5
	.loc 2 198 33
	lw	a4,-20(s0)
	.loc 2 198 31
	sw	a4,0(a5)
	.loc 2 200 24
	lw	a4,-20(s0)
	.loc 2 200 13
	li	a5,268435456
	addi	a5,a5,-1
	and	a5,a4,a5
	.loc 2 200 12
	lw	a4,-32(s0)
	bgtu	a4,a5,.L31
	.loc 2 201 28
	lw	a4,-20(s0)
	.loc 2 201 17
	li	a5,268435456
	addi	a5,a5,-1
	and	a5,a4,a5
	.loc 2 201 16
	lw	a4,-36(s0)
	bltu	a4,a5,.L31
	.loc 2 202 23
	lw	a0,-52(s0)
	call	pvPortMalloc
	sw	a0,-20(s0)
	.loc 2 203 17
	nop
	.loc 2 207 16
	sw	zero,-28(s0)
	.loc 2 207 5
	j	.L32
.L33:
	.loc 2 208 42
	lw	a5,-28(s0)
	slli	a5,a5,2
	lw	a4,-44(s0)
	add	a5,a4,a5
	lw	a5,0(a5)
	.loc 2 208 9
	mv	a0,a5
	call	vPortFree
	.loc 2 207 42 discriminator 3
	lw	a5,-28(s0)
	addi	a5,a5,1
	sw	a5,-28(s0)
.L32:
	.loc 2 207 27 discriminator 1
	lw	a4,-28(s0)
	lw	a5,-24(s0)
	bltu	a4,a5,.L33
	.loc 2 211 1
	j	.L28
.L34:
	.loc 2 195 13
	nop
.L28:
	.loc 2 212 5
	lw	a0,-44(s0)
	call	vPortFree
	.loc 2 213 12
	lw	a5,-20(s0)
.L26:
	.loc 2 214 1
	mv	a0,a5
	lw	ra,60(sp)
	.cfi_restore 1
	lw	s0,56(sp)
	.cfi_restore 8
	.cfi_def_cfa 2, 64
	addi	sp,sp,64
	.cfi_def_cfa_offset 0
	jr	ra
	.cfi_endproc
.LFE33:
	.size	bl_dma_mem_malloc, .-bl_dma_mem_malloc
	.section	.text.bl_dma_mem_free,"ax",@progbits
	.align	1
	.globl	bl_dma_mem_free
	.type	bl_dma_mem_free, @function
bl_dma_mem_free:
.LFB34:
	.loc 2 217 1
	.cfi_startproc
	addi	sp,sp,-32
	.cfi_def_cfa_offset 32
	sw	ra,28(sp)
	sw	s0,24(sp)
	.cfi_offset 1, -4
	.cfi_offset 8, -8
	addi	s0,sp,32
	.cfi_def_cfa 8, 0
	sw	a0,-20(s0)
	.loc 2 218 5
	lw	a0,-20(s0)
	call	vPortFree
	.loc 2 219 1
	nop
	lw	ra,28(sp)
	.cfi_restore 1
	lw	s0,24(sp)
	.cfi_restore 8
	.cfi_def_cfa 2, 32
	addi	sp,sp,32
	.cfi_def_cfa_offset 0
	jr	ra
	.cfi_endproc
.LFE34:
	.size	bl_dma_mem_free, .-bl_dma_mem_free
	.section	.text.bl_dma_int_process,"ax",@progbits
	.align	1
	.type	bl_dma_int_process, @function
bl_dma_int_process:
.LFB35:
	.loc 2 222 1
	.cfi_startproc
	addi	sp,sp,-64
	.cfi_def_cfa_offset 64
	sw	ra,60(sp)
	sw	s0,56(sp)
	.cfi_offset 1, -4
	.cfi_offset 8, -8
	addi	s0,sp,64
	.cfi_def_cfa 8, 0
	.loc 2 229 12
	sw	zero,-32(s0)
	.loc 2 232 15
	li	a5,1073790976
	addi	a5,a5,4
	.loc 2 232 12
	lw	a5,0(a5)
	sw	a5,-24(s0)
	.loc 2 233 19
	li	a5,1073790976
	addi	a5,a5,12
	.loc 2 233 16
	lw	a5,0(a5)
	sw	a5,-36(s0)
	.loc 2 234 5
	addi	a5,s0,-52
	mv	a1,a5
	li	a0,31
	call	bl_irq_ctx_get
	.loc 2 235 13
	sw	zero,-20(s0)
	.loc 2 235 5
	j	.L37
.L46:
	.loc 2 236 72
	lw	a5,-20(s0)
	li	a4,1
	sll	a5,a4,a5
	.loc 2 236 67
	mv	a4,a5
	lw	a5,-24(s0)
	and	a5,a4,a5
	.loc 2 236 17
	andi	a5,a5,255
	sw	a5,-40(s0)
	.loc 2 237 80
	lw	a5,-20(s0)
	li	a4,1
	sll	a5,a4,a5
	.loc 2 237 75
	mv	a4,a5
	lw	a5,-36(s0)
	and	a5,a4,a5
	.loc 2 237 21
	andi	a5,a5,255
	sw	a5,-44(s0)
	.loc 2 239 11
	lw	a5,-40(s0)
	bne	a5,zero,.L38
	.loc 2 239 27 discriminator 1
	lw	a5,-44(s0)
	beq	a5,zero,.L39
.L38:
	.loc 2 240 16
	lw	a5,-40(s0)
	beq	a5,zero,.L40
	.loc 2 242 27
	li	a5,1073790976
	addi	a5,a5,8
	.loc 2 242 24
	lw	a5,0(a5)
	sw	a5,-24(s0)
	.loc 2 243 24
	lw	a5,-24(s0)
	andi	a5,a5,255
	sw	a5,-48(s0)
	.loc 2 244 30
	lw	a5,-20(s0)
	li	a4,1
	sll	a5,a4,a5
	mv	a4,a5
	.loc 2 244 24
	lw	a5,-48(s0)
	or	a5,a5,a4
	sw	a5,-48(s0)
	.loc 2 245 37
	lw	a5,-24(s0)
	andi	a5,a5,-256
	.loc 2 245 24
	lw	a4,-48(s0)
	or	a5,a4,a5
	sw	a5,-24(s0)
	.loc 2 246 19
	li	a5,1073790976
	addi	a5,a5,8
	.loc 2 246 71
	lw	a4,-24(s0)
	sw	a4,0(a5)
.L40:
	.loc 2 249 16
	lw	a5,-44(s0)
	beq	a5,zero,.L41
	.loc 2 251 27
	li	a5,1073790976
	addi	a5,a5,16
	.loc 2 251 24
	lw	a5,0(a5)
	sw	a5,-24(s0)
	.loc 2 252 24
	lw	a5,-24(s0)
	andi	a5,a5,255
	sw	a5,-48(s0)
	.loc 2 253 30
	lw	a5,-20(s0)
	li	a4,1
	sll	a5,a4,a5
	mv	a4,a5
	.loc 2 253 24
	lw	a5,-48(s0)
	or	a5,a5,a4
	sw	a5,-48(s0)
	.loc 2 254 37
	lw	a5,-24(s0)
	andi	a5,a5,-256
	.loc 2 254 24
	lw	a4,-48(s0)
	or	a5,a4,a5
	sw	a5,-24(s0)
	.loc 2 255 19
	li	a5,1073790976
	addi	a5,a5,16
	.loc 2 255 72
	lw	a4,-24(s0)
	sw	a4,0(a5)
.L41:
	.loc 2 258 64
	lw	a5,-52(s0)
	lw	a5,0(a5)
	.loc 2 258 23
	lw	a5,4(a5)
	sw	a5,-28(s0)
	.loc 2 258 13
	j	.L42
.L45:
	.loc 2 259 31
	lw	a5,-28(s0)
	lw	a5,8(a5)
	.loc 2 259 20
	lw	a4,-20(s0)
	bne	a4,a5,.L43
	.loc 2 260 29
	lw	a5,-28(s0)
	lw	a5,12(a5)
	.loc 2 260 24
	beq	a5,zero,.L44
	.loc 2 260 49 discriminator 1
	lw	a5,-40(s0)
	beq	a5,zero,.L44
	.loc 2 261 54
	lw	a5,-28(s0)
	lw	a5,12(a5)
	.loc 2 261 33
	sw	a5,-32(s0)
	.loc 2 262 25
	lw	a5,-32(s0)
	jalr	a5
.LVL1:
.L44:
	.loc 2 265 29
	lw	a5,-28(s0)
	lw	a5,16(a5)
	.loc 2 265 24
	beq	a5,zero,.L43
	.loc 2 265 53 discriminator 1
	lw	a5,-44(s0)
	beq	a5,zero,.L43
	.loc 2 266 54
	lw	a5,-28(s0)
	lw	a5,16(a5)
	.loc 2 266 33
	sw	a5,-32(s0)
	.loc 2 267 25
	lw	a5,-32(s0)
	jalr	a5
.LVL2:
.L43:
	.loc 2 258 182 discriminator 2
	lw	a5,-28(s0)
	lw	a5,4(a5)
	sw	a5,-28(s0)
.L42:
	.loc 2 258 136 discriminator 1
	lw	a4,-28(s0)
	.loc 2 258 164 discriminator 1
	lw	a5,-52(s0)
	lw	a5,0(a5)
	.loc 2 258 154 discriminator 1
	bne	a4,a5,.L45
.L39:
	.loc 2 235 37 discriminator 2
	lw	a5,-20(s0)
	addi	a5,a5,1
	sw	a5,-20(s0)
.L37:
	.loc 2 235 21 discriminator 1
	lw	a4,-20(s0)
	li	a5,3
	ble	a4,a5,.L46
	.loc 2 274 5
	nop
	.loc 2 275 1
	lw	ra,60(sp)
	.cfi_restore 1
	lw	s0,56(sp)
	.cfi_restore 8
	.cfi_def_cfa 2, 64
	addi	sp,sp,64
	.cfi_def_cfa_offset 0
	jr	ra
	.cfi_endproc
.LFE35:
	.size	bl_dma_int_process, .-bl_dma_int_process
	.section	.text.bl_dma_irq_register,"ax",@progbits
	.align	1
	.globl	bl_dma_irq_register
	.type	bl_dma_irq_register, @function
bl_dma_irq_register:
.LFB36:
	.loc 2 278 1
	.cfi_startproc
	addi	sp,sp,-48
	.cfi_def_cfa_offset 48
	sw	ra,44(sp)
	sw	s0,40(sp)
	.cfi_offset 1, -4
	.cfi_offset 8, -8
	addi	s0,sp,48
	.cfi_def_cfa 8, 0
	sw	a0,-36(s0)
	sw	a1,-40(s0)
	sw	a2,-44(s0)
	sw	a3,-48(s0)
	.loc 2 283 8
	lw	a4,-36(s0)
	li	a5,4
	bgt	a4,a5,.L49
	.loc 2 283 31 discriminator 1
	lw	a5,-36(s0)
	blt	a5,zero,.L49
	.loc 2 283 47 discriminator 2
	lw	a5,-40(s0)
	bne	a5,zero,.L50
.L49:
	.loc 2 286 16
	li	a5,-1
	j	.L55
.L50:
	.loc 2 289 5
	addi	a5,s0,-28
	mv	a1,a5
	li	a0,31
	call	bl_irq_ctx_get
	.loc 2 290 56
	lw	a5,-28(s0)
	lw	a5,0(a5)
	.loc 2 290 15
	lw	a5,4(a5)
	sw	a5,-20(s0)
	.loc 2 290 5
	j	.L52
.L54:
	.loc 2 291 28
	lw	a5,-20(s0)
	lw	a5,8(a5)
	.loc 2 291 12
	lw	a4,-36(s0)
	bne	a4,a5,.L53
	.loc 2 293 20
	li	a5,-1
	j	.L55
.L53:
	.loc 2 290 174 discriminator 2
	lw	a5,-20(s0)
	lw	a5,4(a5)
	sw	a5,-20(s0)
.L52:
	.loc 2 290 128 discriminator 1
	lw	a4,-20(s0)
	.loc 2 290 156 discriminator 1
	lw	a5,-28(s0)
	lw	a5,0(a5)
	.loc 2 290 146 discriminator 1
	bne	a4,a5,.L54
	.loc 2 296 15
	li	a0,24
	call	pvPortMalloc
	sw	a0,-24(s0)
	.loc 2 300 22
	lw	a5,-24(s0)
	lw	a4,-36(s0)
	sw	a4,8(a5)
	.loc 2 301 25
	lw	a5,-24(s0)
	lw	a4,-40(s0)
	sw	a4,12(a5)
	.loc 2 302 29
	lw	a5,-24(s0)
	lw	a4,-44(s0)
	sw	a4,16(a5)
	.loc 2 303 18
	lw	a5,-24(s0)
	lw	a4,-48(s0)
	sw	a4,20(a5)
	.loc 2 304 5
	lw	a4,-24(s0)
	.loc 2 304 51
	lw	a5,-28(s0)
	.loc 2 304 5
	lw	a5,0(a5)
	mv	a1,a5
	mv	a0,a4
	call	utils_dlist_add
	.loc 2 306 12
	li	a5,-1
.L55:
	.loc 2 307 1
	mv	a0,a5
	lw	ra,44(sp)
	.cfi_restore 1
	lw	s0,40(sp)
	.cfi_restore 8
	.cfi_def_cfa 2, 48
	addi	sp,sp,48
	.cfi_def_cfa_offset 0
	jr	ra
	.cfi_endproc
.LFE36:
	.size	bl_dma_irq_register, .-bl_dma_irq_register
	.section	.text.bl_dma_find_node_by_channel,"ax",@progbits
	.align	1
	.globl	bl_dma_find_node_by_channel
	.type	bl_dma_find_node_by_channel, @function
bl_dma_find_node_by_channel:
.LFB37:
	.loc 2 310 1
	.cfi_startproc
	addi	sp,sp,-48
	.cfi_def_cfa_offset 48
	sw	ra,44(sp)
	sw	s0,40(sp)
	.cfi_offset 1, -4
	.cfi_offset 8, -8
	addi	s0,sp,48
	.cfi_def_cfa 8, 0
	sw	a0,-36(s0)
	.loc 2 314 5
	addi	a5,s0,-24
	mv	a1,a5
	li	a0,31
	call	bl_irq_ctx_get
	.loc 2 315 56
	lw	a5,-24(s0)
	lw	a5,0(a5)
	.loc 2 315 15
	lw	a5,4(a5)
	sw	a5,-20(s0)
	.loc 2 315 5
	j	.L57
.L60:
	.loc 2 316 17
	lw	a5,-20(s0)
	lw	a5,8(a5)
	.loc 2 316 12
	lw	a4,-36(s0)
	beq	a4,a5,.L64
	.loc 2 315 174 discriminator 2
	lw	a5,-20(s0)
	lw	a5,4(a5)
	sw	a5,-20(s0)
.L57:
	.loc 2 315 128 discriminator 1
	lw	a4,-20(s0)
	.loc 2 315 156 discriminator 1
	lw	a5,-24(s0)
	lw	a5,0(a5)
	.loc 2 315 146 discriminator 1
	bne	a4,a5,.L60
	j	.L59
.L64:
	.loc 2 317 13
	nop
.L59:
	.loc 2 321 9
	lw	a4,-20(s0)
	.loc 2 321 38
	lw	a5,-24(s0)
	lw	a5,0(a5)
	.loc 2 321 8
	bne	a4,a5,.L61
	.loc 2 324 15
	li	a5,0
	j	.L63
.L61:
	.loc 2 327 12
	lw	a5,-20(s0)
.L63:
	.loc 2 328 1
	mv	a0,a5
	lw	ra,44(sp)
	.cfi_restore 1
	lw	s0,40(sp)
	.cfi_restore 8
	.cfi_def_cfa 2, 48
	addi	sp,sp,48
	.cfi_def_cfa_offset 0
	jr	ra
	.cfi_endproc
.LFE37:
	.size	bl_dma_find_node_by_channel, .-bl_dma_find_node_by_channel
	.section	.text.bl_dma_find_ctx_by_channel,"ax",@progbits
	.align	1
	.globl	bl_dma_find_ctx_by_channel
	.type	bl_dma_find_ctx_by_channel, @function
bl_dma_find_ctx_by_channel:
.LFB38:
	.loc 2 331 1
	.cfi_startproc
	addi	sp,sp,-48
	.cfi_def_cfa_offset 48
	sw	ra,44(sp)
	sw	s0,40(sp)
	.cfi_offset 1, -4
	.cfi_offset 8, -8
	addi	s0,sp,48
	.cfi_def_cfa 8, 0
	sw	a0,-36(s0)
	.loc 2 335 12
	lw	a0,-36(s0)
	call	bl_dma_find_node_by_channel
	sw	a0,-20(s0)
	.loc 2 336 9
	lw	a5,-20(s0)
	lw	a5,20(a5)
	sw	a5,-24(s0)
	.loc 2 338 12
	lw	a5,-24(s0)
	.loc 2 339 1
	mv	a0,a5
	lw	ra,44(sp)
	.cfi_restore 1
	lw	s0,40(sp)
	.cfi_restore 8
	.cfi_def_cfa 2, 48
	addi	sp,sp,48
	.cfi_def_cfa_offset 0
	jr	ra
	.cfi_endproc
.LFE38:
	.size	bl_dma_find_ctx_by_channel, .-bl_dma_find_ctx_by_channel
	.section	.text.bl_dma_irq_unregister,"ax",@progbits
	.align	1
	.globl	bl_dma_irq_unregister
	.type	bl_dma_irq_unregister, @function
bl_dma_irq_unregister:
.LFB39:
	.loc 2 342 1
	.cfi_startproc
	addi	sp,sp,-48
	.cfi_def_cfa_offset 48
	sw	ra,44(sp)
	sw	s0,40(sp)
	.cfi_offset 1, -4
	.cfi_offset 8, -8
	addi	s0,sp,48
	.cfi_def_cfa 8, 0
	sw	a0,-36(s0)
	.loc 2 346 8
	lw	a4,-36(s0)
	li	a5,4
	bgt	a4,a5,.L68
	.loc 2 346 30 discriminator 1
	lw	a5,-36(s0)
	bge	a5,zero,.L69
.L68:
	.loc 2 349 16
	li	a5,-1
	j	.L76
.L69:
	.loc 2 352 5
	addi	a5,s0,-24
	mv	a1,a5
	li	a0,31
	call	bl_irq_ctx_get
	.loc 2 353 56
	lw	a5,-24(s0)
	lw	a5,0(a5)
	.loc 2 353 15
	lw	a5,4(a5)
	sw	a5,-20(s0)
	.loc 2 353 5
	j	.L71
.L74:
	.loc 2 354 28
	lw	a5,-20(s0)
	lw	a5,8(a5)
	.loc 2 354 12
	lw	a4,-36(s0)
	bne	a4,a5,.L72
	.loc 2 355 13
	lw	a5,-20(s0)
	mv	a0,a5
	call	utils_dlist_del
	.loc 2 356 13
	lw	a0,-20(s0)
	call	vPortFree
	.loc 2 357 13
	j	.L73
.L72:
	.loc 2 353 174 discriminator 2
	lw	a5,-20(s0)
	lw	a5,4(a5)
	sw	a5,-20(s0)
.L71:
	.loc 2 353 128 discriminator 1
	lw	a4,-20(s0)
	.loc 2 353 156 discriminator 1
	lw	a5,-24(s0)
	lw	a5,0(a5)
	.loc 2 353 146 discriminator 1
	bne	a4,a5,.L74
.L73:
	.loc 2 361 9
	lw	a4,-20(s0)
	.loc 2 361 36
	lw	a5,-24(s0)
	lw	a5,0(a5)
	.loc 2 361 8
	bne	a4,a5,.L75
	.loc 2 363 16
	li	a5,-1
	j	.L76
.L75:
	.loc 2 366 12
	li	a5,0
.L76:
	.loc 2 367 1
	mv	a0,a5
	lw	ra,44(sp)
	.cfi_restore 1
	lw	s0,40(sp)
	.cfi_restore 8
	.cfi_def_cfa 2, 48
	addi	sp,sp,48
	.cfi_def_cfa_offset 0
	jr	ra
	.cfi_endproc
.LFE39:
	.size	bl_dma_irq_unregister, .-bl_dma_irq_unregister
	.section	.text.bl_dma_init,"ax",@progbits
	.align	1
	.globl	bl_dma_init
	.type	bl_dma_init, @function
bl_dma_init:
.LFB40:
	.loc 2 370 1
	.cfi_startproc
	addi	sp,sp,-32
	.cfi_def_cfa_offset 32
	sw	ra,28(sp)
	sw	s0,24(sp)
	.cfi_offset 1, -4
	.cfi_offset 8, -8
	addi	s0,sp,32
	.cfi_def_cfa 8, 0
	.loc 2 373 19
	sb	zero,-17(s0)
	.loc 2 374 22
	sb	zero,-28(s0)
	sb	zero,-27(s0)
	sb	zero,-26(s0)
	.loc 2 380 5
	lui	a5,%hi(dma_copy_list)
	addi	a0,a5,%lo(dma_copy_list)
	call	utils_list_init
	.loc 2 382 14
	li	a0,4
	call	pvPortMalloc
	sw	a0,-24(s0)
	.loc 2 383 8
	lw	a5,-24(s0)
	beq	a5,zero,.L82
	.loc 2 389 24
	li	a0,8
	call	pvPortMalloc
	mv	a4,a0
	.loc 2 389 22 discriminator 1
	lw	a5,-24(s0)
	sw	a4,0(a5)
	.loc 2 390 15
	lw	a5,-24(s0)
	lw	a5,0(a5)
	.loc 2 390 8
	beq	a5,zero,.L83
	.loc 2 395 5
	lw	a5,-24(s0)
	lw	a5,0(a5)
	mv	a0,a5
	call	INIT_UTILS_DLIST_HEAD
	.loc 2 397 5
	call	DMA_Enable
	.loc 2 398 5
	lbu	a5,-17(s0)
	li	a2,1
	li	a1,2
	mv	a0,a5
	call	DMA_IntMask
	.loc 2 399 5
	lbu	a5,-17(s0)
	li	a2,0
	li	a1,0
	mv	a0,a5
	call	DMA_IntMask
	.loc 2 400 5
	lbu	a5,-17(s0)
	li	a2,0
	li	a1,1
	mv	a0,a5
	call	DMA_IntMask
	.loc 2 401 5
	addi	a4,s0,-28
	lbu	a5,-17(s0)
	mv	a1,a4
	mv	a0,a5
	call	DMA_LLI_Init
	.loc 2 402 5
	lw	a2,-24(s0)
	lui	a5,%hi(bl_dma_int_process)
	addi	a1,a5,%lo(bl_dma_int_process)
	li	a0,31
	call	bl_irq_register_with_ctx
	.loc 2 403 5
	li	a3,0
	li	a2,0
	lui	a5,%hi(bl_dma_IRQHandler)
	addi	a1,a5,%lo(bl_dma_IRQHandler)
	li	a0,0
	call	bl_dma_irq_register
	.loc 2 404 5
	li	a0,31
	call	bl_irq_enable
	j	.L77
.L82:
	.loc 2 386 9
	nop
	j	.L77
.L83:
	.loc 2 393 9
	nop
.L77:
	.loc 2 405 1
	lw	ra,28(sp)
	.cfi_restore 1
	lw	s0,24(sp)
	.cfi_restore 8
	.cfi_def_cfa 2, 32
	addi	sp,sp,32
	.cfi_def_cfa_offset 0
	jr	ra
	.cfi_endproc
.LFE40:
	.size	bl_dma_init, .-bl_dma_init
	.section	.text._cb_cmd,"ax",@progbits
	.align	1
	.type	_cb_cmd, @function
_cb_cmd:
.LFB41:
	.loc 2 408 1
	.cfi_startproc
	addi	sp,sp,-48
	.cfi_def_cfa_offset 48
	sw	ra,44(sp)
	sw	s0,40(sp)
	.cfi_offset 1, -4
	.cfi_offset 8, -8
	addi	s0,sp,48
	.cfi_def_cfa 8, 0
	sw	a0,-36(s0)
	.loc 2 411 11
	lw	a5,-36(s0)
	sw	a5,-20(s0)
	.loc 2 413 16
	lw	a5,-20(s0)
	sw	zero,8(a5)
	.loc 2 414 1
	nop
	lw	ra,44(sp)
	.cfi_restore 1
	lw	s0,40(sp)
	.cfi_restore 8
	.cfi_def_cfa 2, 48
	addi	sp,sp,48
	.cfi_def_cfa_offset 0
	jr	ra
	.cfi_endproc
.LFE41:
	.size	_cb_cmd, .-_cb_cmd
	.section	.text._dma_test_case1,"ax",@progbits
	.align	1
	.type	_dma_test_case1, @function
_dma_test_case1:
.LFB42:
	.loc 2 417 1
	.cfi_startproc
	addi	sp,sp,-32
	.cfi_def_cfa_offset 32
	sw	ra,28(sp)
	sw	s0,24(sp)
	.cfi_offset 1, -4
	.cfi_offset 8, -8
	addi	s0,sp,32
	.cfi_def_cfa 8, 0
	.loc 2 421 15
	li	a5,68
	sw	a5,-20(s0)
	.loc 2 423 13
	li	a0,28
	call	pvPortMalloc
	sw	a0,-24(s0)
	.loc 2 424 11
	lw	a5,-20(s0)
	mv	a0,a5
	call	pvPortMalloc
	sw	a0,-28(s0)
	.loc 2 425 11
	lw	a5,-20(s0)
	mv	a0,a5
	call	pvPortMalloc
	sw	a0,-32(s0)
	.loc 2 433 5
	li	a2,28
	li	a1,0
	lw	a0,-24(s0)
	call	memset
	.loc 2 434 5
	lw	a5,-20(s0)
	mv	a2,a5
	li	a1,1
	lw	a0,-28(s0)
	call	memset
	.loc 2 435 5
	lw	a5,-20(s0)
	mv	a2,a5
	li	a1,255
	lw	a0,-32(s0)
	call	memset
	.loc 2 436 18
	lw	a4,-28(s0)
	.loc 2 436 16
	lw	a5,-24(s0)
	sw	a4,12(a5)
	.loc 2 437 18
	lw	a4,-32(s0)
	.loc 2 437 16
	lw	a5,-24(s0)
	sw	a4,16(a5)
	.loc 2 438 17
	lw	a5,-24(s0)
	sw	zero,20(a5)
	.loc 2 439 40
	lw	a5,-20(s0)
	srai	a5,a5,2
	mv	a4,a5
	.loc 2 439 32
	li	a5,-1941327872
	or	a4,a4,a5
	.loc 2 439 17
	lw	a5,-24(s0)
	sw	a4,24(a5)
	.loc 2 440 15
	lw	a5,-24(s0)
	lui	a4,%hi(_cb_cmd)
	addi	a4,a4,%lo(_cb_cmd)
	sw	a4,4(a5)
	.loc 2 441 16
	lw	a5,-24(s0)
	lw	a4,-24(s0)
	sw	a4,8(a5)
	.loc 2 443 5
	lw	a0,-24(s0)
	call	bl_dma_copy
	.loc 2 446 11
	j	.L86
.L87:
	.loc 2 447 9
	li	a0,2
	call	vTaskDelay
.L86:
	.loc 2 446 17
	lw	a5,-24(s0)
	lw	a5,8(a5)
	.loc 2 446 12
	bne	a5,zero,.L87
	.loc 2 450 27
	lw	a5,-24(s0)
	lw	a5,12(a5)
	.loc 2 450 5
	mv	a0,a5
	call	vPortFree
	.loc 2 451 27
	lw	a5,-24(s0)
	lw	a5,16(a5)
	.loc 2 451 5
	mv	a0,a5
	call	vPortFree
	.loc 2 452 5
	lw	a0,-24(s0)
	call	vPortFree
	.loc 2 453 1
	nop
	lw	ra,28(sp)
	.cfi_restore 1
	lw	s0,24(sp)
	.cfi_restore 8
	.cfi_def_cfa 2, 32
	addi	sp,sp,32
	.cfi_def_cfa_offset 0
	jr	ra
	.cfi_endproc
.LFE42:
	.size	_dma_test_case1, .-_dma_test_case1
	.section	.text.bl_dma_test,"ax",@progbits
	.align	1
	.globl	bl_dma_test
	.type	bl_dma_test, @function
bl_dma_test:
.LFB43:
	.loc 2 456 1
	.cfi_startproc
	addi	sp,sp,-16
	.cfi_def_cfa_offset 16
	sw	ra,12(sp)
	sw	s0,8(sp)
	.cfi_offset 1, -4
	.cfi_offset 8, -8
	addi	s0,sp,16
	.cfi_def_cfa 8, 0
	.loc 2 457 5
	call	_dma_test_case1
	.loc 2 458 1
	nop
	lw	ra,12(sp)
	.cfi_restore 1
	lw	s0,8(sp)
	.cfi_restore 8
	.cfi_def_cfa 2, 16
	addi	sp,sp,16
	.cfi_def_cfa_offset 0
	jr	ra
	.cfi_endproc
.LFE43:
	.size	bl_dma_test, .-bl_dma_test
	.text
.Letext0:
	.file 3 "/home/chandu/sdk/bl602_iot_sdk/toolchain/compiler/lib/gcc/riscv32-unknown-elf/15.1.0/include/stddef.h"
	.file 4 "/home/chandu/sdk/bl602_iot_sdk/toolchain/compiler/lib/gcc/riscv32-unknown-elf/15.1.0/include/stdint-gcc.h"
	.file 5 "/home/chandu/sdk/bl602_iot_sdk/components/bl602/bl602_std/bl602_std/Device/Bouffalo/BL602/Peripherals/bl602.h"
	.file 6 "/home/chandu/sdk/bl602_iot_sdk/components/bl602/bl602_std/bl602_std/StdDriver/Inc/bl602_common.h"
	.file 7 "/home/chandu/sdk/bl602_iot_sdk/components/bl602/bl602_std/bl602_std/StdDriver/Inc/bl602_dma.h"
	.file 8 "/home/chandu/sdk/bl602_iot_sdk/components/freertos/portable/GCC/RISC-V/portmacro.h"
	.file 9 "/home/chandu/sdk/bl602_iot_sdk/components/hal_drv/bl602_hal/bl_dma.h"
	.file 10 "/home/chandu/sdk/bl602_iot_sdk/components/freertos/include/task.h"
	.file 11 "/home/chandu/sdk/bl602_iot_sdk/components/hal_drv/bl602_hal/bl_irq.h"
	.file 12 "/home/chandu/sdk/bl602_iot_sdk/components/freertos/include/portable.h"
	.file 13 "/home/chandu/sdk/bl602_iot_sdk/toolchain/compiler/riscv32-unknown-elf/include/string.h"
	.section	.note.GNU-stack,"",@progbits
