	.file	"bl_i2c.c"
	.option nopic
	.attribute arch, "rv32i2p1_m2p0_f2p2_c2p0_zicsr2p0_zmmul1p0_zca1p0_zcf1p0"
	.attribute unaligned_access, 0
	.attribute stack_align, 16
	.text
.Ltext0:
	.cfi_sections	.debug_frame
	.file 0 "/home/chandu/sdk/bl602_iot_sdk/customer_app/suas_app_pqkem_gateway/build_out/hal_drv" "/home/chandu/sdk/bl602_iot_sdk/components/hal_drv/bl602_hal/bl_i2c.c"
	.section	.text.i2c_set_freq,"ax",@progbits
	.align	1
	.globl	i2c_set_freq
	.type	i2c_set_freq, @function
i2c_set_freq:
.LFB9:
	.file 1 "/home/chandu/sdk/bl602_iot_sdk/components/hal_drv/bl602_hal/bl_i2c.c"
	.loc 1 46 1
	.cfi_startproc
	addi	sp,sp,-48
	.cfi_def_cfa_offset 48
	sw	ra,44(sp)
	sw	s0,40(sp)
	.cfi_offset 1, -4
	.cfi_offset 8, -8
	addi	s0,sp,48
	.cfi_def_cfa 8, 0
	sw	a0,-36(s0)
	sw	a1,-40(s0)
	.loc 1 49 28
	lw	a4,-36(s0)
	li	a5,1000
	mul	a5,a4,a5
	.loc 1 49 20
	li	a4,32002048
	addi	a4,a4,-2048
	div	a5,a4,a5
	.loc 1 49 9
	sw	a5,-20(s0)
	.loc 1 50 15
	lw	a5,-20(s0)
	srli	a5,a5,2
	.loc 1 50 9
	addi	a5,a5,-1
	sw	a5,-20(s0)
	.loc 1 52 5
	lw	a5,-40(s0)
	andi	a5,a5,0xff
	lw	a4,-20(s0)
	andi	a4,a4,0xff
	mv	a1,a4
	mv	a0,a5
	call	I2C_SetPrd
	.loc 1 54 5
	nop
	.loc 1 55 1
	lw	ra,44(sp)
	.cfi_restore 1
	lw	s0,40(sp)
	.cfi_restore 8
	.cfi_def_cfa 2, 48
	addi	sp,sp,48
	.cfi_def_cfa_offset 0
	jr	ra
	.cfi_endproc
.LFE9:
	.size	i2c_set_freq, .-i2c_set_freq
	.section	.text.i2c_gpio_init,"ax",@progbits
	.align	1
	.globl	i2c_gpio_init
	.type	i2c_gpio_init, @function
i2c_gpio_init:
.LFB10:
	.loc 1 58 1
	.cfi_startproc
	addi	sp,sp,-48
	.cfi_def_cfa_offset 48
	sw	ra,44(sp)
	sw	s0,40(sp)
	.cfi_offset 1, -4
	.cfi_offset 8, -8
	addi	s0,sp,48
	.cfi_def_cfa 8, 0
	sw	a0,-36(s0)
	.loc 1 60 8
	lw	a5,-36(s0)
	bne	a5,zero,.L4
	.loc 1 61 21
	li	a5,4
	sb	a5,-20(s0)
	.loc 1 62 21
	li	a5,3
	sb	a5,-19(s0)
.L4:
	.loc 1 66 5
	addi	a5,s0,-20
	li	a2,2
	mv	a1,a5
	li	a0,6
	call	GLB_GPIO_Func_Init
	.loc 1 67 5
	nop
	.loc 1 68 1
	lw	ra,44(sp)
	.cfi_restore 1
	lw	s0,40(sp)
	.cfi_restore 8
	.cfi_def_cfa 2, 48
	addi	sp,sp,48
	.cfi_def_cfa_offset 0
	jr	ra
	.cfi_endproc
.LFE10:
	.size	i2c_gpio_init, .-i2c_gpio_init
	.section	.text.i2c_clear_status,"ax",@progbits
	.align	1
	.globl	i2c_clear_status
	.type	i2c_clear_status, @function
i2c_clear_status:
.LFB11:
	.loc 1 71 1
	.cfi_startproc
	addi	sp,sp,-48
	.cfi_def_cfa_offset 48
	sw	ra,44(sp)
	sw	s0,40(sp)
	.cfi_offset 1, -4
	.cfi_offset 8, -8
	addi	s0,sp,48
	.cfi_def_cfa 8, 0
	sw	a0,-36(s0)
	.loc 1 74 8
	lw	a5,-36(s0)
	bne	a5,zero,.L9
	.loc 1 75 19
	li	a5,1073782784
	addi	a5,a5,772
	.loc 1 75 16
	lw	a5,0(a5)
	sw	a5,-20(s0)
	.loc 1 76 16
	lw	a4,-20(s0)
	li	a5,65536
	or	a5,a4,a5
	sw	a5,-20(s0)
	.loc 1 77 16
	lw	a4,-20(s0)
	li	a5,524288
	or	a5,a4,a5
	sw	a5,-20(s0)
	.loc 1 78 16
	lw	a4,-20(s0)
	li	a5,1048576
	or	a5,a4,a5
	sw	a5,-20(s0)
	.loc 1 79 11
	li	a5,1073782784
	addi	a5,a5,772
	.loc 1 79 63
	lw	a4,-20(s0)
	sw	a4,0(a5)
	.loc 1 83 9
	nop
.L9:
	nop
	.loc 1 84 1
	lw	ra,44(sp)
	.cfi_restore 1
	lw	s0,40(sp)
	.cfi_restore 8
	.cfi_def_cfa 2, 48
	addi	sp,sp,48
	.cfi_def_cfa_offset 0
	jr	ra
	.cfi_endproc
.LFE11:
	.size	i2c_clear_status, .-i2c_clear_status
	.section	.text.do_write_data,"ax",@progbits
	.align	1
	.globl	do_write_data
	.type	do_write_data, @function
do_write_data:
.LFB12:
	.loc 1 87 1
	.cfi_startproc
	addi	sp,sp,-48
	.cfi_def_cfa_offset 48
	sw	ra,44(sp)
	sw	s0,40(sp)
	.cfi_offset 1, -4
	.cfi_offset 8, -8
	addi	s0,sp,48
	.cfi_def_cfa 8, 0
	sw	a0,-36(s0)
	.loc 1 88 14
	sw	zero,-20(s0)
	.loc 1 89 14
	sw	zero,-32(s0)
	.loc 1 93 19
	lw	a5,-36(s0)
	lw	a5,12(a5)
	.loc 1 93 33
	lw	a4,-36(s0)
	lw	a4,24(a4)
	.loc 1 93 25
	sub	a5,a5,a4
	.loc 1 93 11
	sw	a5,-28(s0)
	.loc 1 94 8
	lw	a4,-28(s0)
	li	a5,3
	ble	a4,a5,.L11
	.loc 1 95 15
	li	a5,4
	sw	a5,-28(s0)
.L11:
	.loc 1 98 12
	sw	zero,-24(s0)
	.loc 1 98 5
	j	.L12
.L13:
	.loc 1 99 23
	lw	a5,-36(s0)
	lw	a4,16(a5)
	.loc 1 99 37
	lw	a5,-36(s0)
	lw	a5,24(a5)
	mv	a3,a5
	.loc 1 99 44
	lw	a5,-24(s0)
	add	a5,a3,a5
	add	a5,a4,a5
	.loc 1 99 15
	lbu	a5,0(a5)
	.loc 1 99 13
	sw	a5,-32(s0)
	.loc 1 100 26
	lw	a5,-24(s0)
	slli	a5,a5,3
	.loc 1 100 21
	lw	a4,-32(s0)
	sll	a5,a4,a5
	.loc 1 100 14
	lw	a4,-20(s0)
	add	a5,a4,a5
	sw	a5,-20(s0)
	.loc 1 98 29 discriminator 3
	lw	a5,-24(s0)
	addi	a5,a5,1
	sw	a5,-24(s0)
.L12:
	.loc 1 98 19 discriminator 1
	lw	a4,-24(s0)
	lw	a5,-28(s0)
	blt	a4,a5,.L13
	.loc 1 102 7
	li	a5,1073782784
	addi	a5,a5,904
	.loc 1 102 60
	lw	a4,-20(s0)
	sw	a4,0(a5)
	.loc 1 103 26
	lw	a5,-36(s0)
	lw	a4,24(a5)
	.loc 1 103 33
	lw	a5,-28(s0)
	add	a4,a4,a5
	.loc 1 103 18
	lw	a5,-36(s0)
	sw	a4,24(a5)
	.loc 1 105 5
	nop
	.loc 1 106 1
	lw	ra,44(sp)
	.cfi_restore 1
	lw	s0,40(sp)
	.cfi_restore 8
	.cfi_def_cfa 2, 48
	addi	sp,sp,48
	.cfi_def_cfa_offset 0
	jr	ra
	.cfi_endproc
.LFE12:
	.size	do_write_data, .-do_write_data
	.section	.text.do_read_data,"ax",@progbits
	.align	1
	.globl	do_read_data
	.type	do_read_data, @function
do_read_data:
.LFB13:
	.loc 1 109 1
	.cfi_startproc
	addi	sp,sp,-48
	.cfi_def_cfa_offset 48
	sw	ra,44(sp)
	sw	s0,40(sp)
	.cfi_offset 1, -4
	.cfi_offset 8, -8
	addi	s0,sp,48
	.cfi_def_cfa 8, 0
	sw	a0,-36(s0)
	.loc 1 110 14
	sw	zero,-20(s0)
	.loc 1 111 9
	sw	zero,-24(s0)
	.loc 1 114 19
	lw	a5,-36(s0)
	lw	a5,12(a5)
	.loc 1 114 33
	lw	a4,-36(s0)
	lw	a4,24(a4)
	.loc 1 114 25
	sub	a5,a5,a4
	.loc 1 114 11
	sw	a5,-28(s0)
	.loc 1 115 13
	li	a5,1073782784
	addi	a5,a5,908
	.loc 1 115 10
	lw	a5,0(a5)
	sw	a5,-20(s0)
	.loc 1 116 8
	lw	a4,-28(s0)
	li	a5,3
	ble	a4,a5,.L16
	.loc 1 117 18
	lw	a5,-36(s0)
	lw	a5,16(a5)
	.loc 1 117 32
	lw	a4,-36(s0)
	lw	a4,24(a4)
	.loc 1 117 24
	add	a5,a5,a4
	.loc 1 117 44
	lw	a4,-20(s0)
	andi	a4,a4,0xff
	.loc 1 117 42
	sb	a4,0(a5)
	.loc 1 117 121
	lw	a5,-20(s0)
	srli	a3,a5,8
	.loc 1 117 73
	lw	a5,-36(s0)
	lw	a4,16(a5)
	.loc 1 117 87
	lw	a5,-36(s0)
	lw	a5,24(a5)
	.loc 1 117 79
	addi	a5,a5,1
	add	a5,a4,a5
	.loc 1 117 102
	andi	a4,a3,0xff
	.loc 1 117 100
	sb	a4,0(a5)
	.loc 1 117 184
	lw	a5,-20(s0)
	srli	a3,a5,16
	.loc 1 117 136
	lw	a5,-36(s0)
	lw	a4,16(a5)
	.loc 1 117 150
	lw	a5,-36(s0)
	lw	a5,24(a5)
	.loc 1 117 142
	addi	a5,a5,2
	add	a5,a4,a5
	.loc 1 117 165
	andi	a4,a3,0xff
	.loc 1 117 163
	sb	a4,0(a5)
	.loc 1 117 248
	lw	a5,-20(s0)
	srli	a3,a5,24
	.loc 1 117 200
	lw	a5,-36(s0)
	lw	a4,16(a5)
	.loc 1 117 214
	lw	a5,-36(s0)
	lw	a5,24(a5)
	.loc 1 117 206
	addi	a5,a5,3
	add	a5,a4,a5
	.loc 1 117 229
	andi	a4,a3,0xff
	.loc 1 117 227
	sb	a4,0(a5)
	.loc 1 118 15
	li	a5,4
	sw	a5,-28(s0)
	j	.L17
.L16:
	.loc 1 119 15
	lw	a4,-28(s0)
	li	a5,3
	bgt	a4,a5,.L17
	.loc 1 120 16
	sw	zero,-24(s0)
	.loc 1 120 9
	j	.L18
.L19:
	.loc 1 121 19
	lw	a5,-36(s0)
	lw	a5,16(a5)
	.loc 1 121 31
	lw	a4,-36(s0)
	lw	a3,24(a4)
	.loc 1 121 38
	lw	a4,-24(s0)
	add	a4,a3,a4
	.loc 1 121 24
	add	a5,a5,a4
	.loc 1 121 43
	lw	a4,-20(s0)
	andi	a4,a4,0xff
	sb	a4,0(a5)
	.loc 1 122 18
	lw	a5,-20(s0)
	srli	a5,a5,8
	sw	a5,-20(s0)
	.loc 1 120 33 discriminator 3
	lw	a5,-24(s0)
	addi	a5,a5,1
	sw	a5,-24(s0)
.L18:
	.loc 1 120 23 discriminator 1
	lw	a4,-24(s0)
	lw	a5,-28(s0)
	blt	a4,a5,.L19
.L17:
	.loc 1 125 26
	lw	a5,-36(s0)
	lw	a4,24(a5)
	.loc 1 125 33
	lw	a5,-28(s0)
	add	a4,a4,a5
	.loc 1 125 18
	lw	a5,-36(s0)
	sw	a4,24(a5)
	.loc 1 127 5
	nop
	.loc 1 128 1
	lw	ra,44(sp)
	.cfi_restore 1
	lw	s0,40(sp)
	.cfi_restore 8
	.cfi_def_cfa 2, 48
	addi	sp,sp,48
	.cfi_def_cfa_offset 0
	jr	ra
	.cfi_endproc
.LFE13:
	.size	do_read_data, .-do_read_data
	.section	.text.i2c_transfer_enable,"ax",@progbits
	.align	1
	.type	i2c_transfer_enable, @function
i2c_transfer_enable:
.LFB14:
	.loc 1 131 1
	.cfi_startproc
	addi	sp,sp,-32
	.cfi_def_cfa_offset 32
	sw	ra,28(sp)
	sw	s0,24(sp)
	.cfi_offset 1, -4
	.cfi_offset 8, -8
	addi	s0,sp,32
	.cfi_def_cfa 8, 0
	sw	a0,-20(s0)
	.loc 1 132 15
	lw	a5,-20(s0)
	lbu	a5,2(a5)
	.loc 1 132 8
	bne	a5,zero,.L22
	.loc 1 133 27
	lw	a5,-20(s0)
	lw	a5,40(a5)
	.loc 1 133 9
	andi	a5,a5,0xff
	li	a2,0
	li	a1,1
	mv	a0,a5
	call	I2C_IntMask
	j	.L23
.L22:
	.loc 1 134 22
	lw	a5,-20(s0)
	lbu	a4,2(a5)
	.loc 1 134 15
	li	a5,1
	bne	a4,a5,.L23
	.loc 1 135 27
	lw	a5,-20(s0)
	lw	a5,40(a5)
	.loc 1 135 9
	andi	a5,a5,0xff
	li	a2,0
	li	a1,2
	mv	a0,a5
	call	I2C_IntMask
.L23:
	.loc 1 138 23
	lw	a5,-20(s0)
	lw	a5,40(a5)
	.loc 1 138 5
	andi	a5,a5,0xff
	li	a2,0
	li	a1,0
	mv	a0,a5
	call	I2C_IntMask
	.loc 1 139 23
	lw	a5,-20(s0)
	lw	a5,40(a5)
	.loc 1 139 5
	andi	a5,a5,0xff
	li	a2,0
	li	a1,5
	mv	a0,a5
	call	I2C_IntMask
	.loc 1 140 23
	lw	a5,-20(s0)
	lw	a5,40(a5)
	.loc 1 140 5
	andi	a5,a5,0xff
	li	a2,0
	li	a1,4
	mv	a0,a5
	call	I2C_IntMask
	.loc 1 141 23
	lw	a5,-20(s0)
	lw	a5,40(a5)
	.loc 1 141 5
	andi	a5,a5,0xff
	li	a2,0
	li	a1,3
	mv	a0,a5
	call	I2C_IntMask
	.loc 1 143 22
	lw	a5,-20(s0)
	lw	a5,40(a5)
	.loc 1 143 5
	andi	a5,a5,0xff
	mv	a0,a5
	call	I2C_Enable
	.loc 1 145 5
	nop
	.loc 1 146 1
	lw	ra,28(sp)
	.cfi_restore 1
	lw	s0,24(sp)
	.cfi_restore 8
	.cfi_def_cfa 2, 32
	addi	sp,sp,32
	.cfi_def_cfa_offset 0
	jr	ra
	.cfi_endproc
.LFE14:
	.size	i2c_transfer_enable, .-i2c_transfer_enable
	.section	.text.i2c_config_para,"ax",@progbits
	.align	1
	.type	i2c_config_para, @function
i2c_config_para:
.LFB15:
	.loc 1 149 1
	.cfi_startproc
	addi	sp,sp,-48
	.cfi_def_cfa_offset 48
	sw	ra,44(sp)
	sw	s0,40(sp)
	.cfi_offset 1, -4
	.cfi_offset 8, -8
	addi	s0,sp,48
	.cfi_def_cfa 8, 0
	sw	a0,-36(s0)
	.loc 1 152 15
	lw	a5,-36(s0)
	lw	a5,40(a5)
	.loc 1 152 8
	bne	a5,zero,.L32
	.loc 1 153 19
	li	a5,1073782784
	addi	a5,a5,768
	.loc 1 153 16
	lw	a5,0(a5)
	sw	a5,-20(s0)
	.loc 1 154 18
	lw	a5,-36(s0)
	lbu	a5,2(a5)
	.loc 1 154 11
	bne	a5,zero,.L27
	.loc 1 155 20
	lw	a5,-20(s0)
	andi	a5,a5,-3
	sw	a5,-20(s0)
	j	.L28
.L27:
	.loc 1 157 20
	lw	a5,-20(s0)
	ori	a5,a5,2
	sw	a5,-20(s0)
.L28:
	.loc 1 160 29
	lw	a4,-20(s0)
	li	a5,-32768
	addi	a5,a5,255
	and	a4,a4,a5
	.loc 1 160 77
	lw	a5,-36(s0)
	lhu	a5,0(a5)
	.loc 1 160 84
	slli	a5,a5,8
	.loc 1 160 16
	or	a5,a4,a5
	sw	a5,-20(s0)
	.loc 1 161 18
	lw	a5,-36(s0)
	lbu	a5,3(a5)
	.loc 1 161 11
	beq	a5,zero,.L29
	.loc 1 162 20
	lw	a5,-20(s0)
	ori	a5,a5,16
	sw	a5,-20(s0)
	.loc 1 163 33
	lw	a5,-20(s0)
	andi	a4,a5,-97
	.loc 1 163 81
	lw	a5,-36(s0)
	lbu	a5,8(a5)
	.loc 1 163 89
	addi	a5,a5,-1
	.loc 1 163 92
	slli	a5,a5,5
	.loc 1 163 20
	or	a5,a4,a5
	sw	a5,-20(s0)
	j	.L30
.L29:
	.loc 1 165 20
	lw	a5,-20(s0)
	andi	a5,a5,-17
	sw	a5,-20(s0)
.L30:
	.loc 1 168 29
	lw	a4,-20(s0)
	li	a5,-16711680
	addi	a5,a5,-1
	and	a4,a4,a5
	.loc 1 168 78
	lw	a5,-36(s0)
	lw	a5,12(a5)
	.loc 1 168 61
	addi	a5,a5,-1
	.loc 1 168 86
	slli	a5,a5,16
	.loc 1 168 16
	or	a5,a4,a5
	sw	a5,-20(s0)
	.loc 1 169 11
	li	a5,1073782784
	addi	a5,a5,768
	.loc 1 169 63
	lw	a4,-20(s0)
	sw	a4,0(a5)
	.loc 1 171 18
	lw	a5,-36(s0)
	lbu	a5,3(a5)
	.loc 1 171 11
	beq	a5,zero,.L32
	.loc 1 172 15
	li	a5,1073782784
	addi	a5,a5,776
	.loc 1 172 75
	lw	a4,-36(s0)
	lw	a4,4(a4)
	.loc 1 172 67
	sw	a4,0(a5)
	.loc 1 177 5
	nop
.L32:
	nop
	.loc 1 178 1
	lw	ra,44(sp)
	.cfi_restore 1
	lw	s0,40(sp)
	.cfi_restore 8
	.cfi_def_cfa 2, 48
	addi	sp,sp,48
	.cfi_def_cfa_offset 0
	jr	ra
	.cfi_endproc
.LFE15:
	.size	i2c_config_para, .-i2c_config_para
	.section	.text.i2c_transfer_start,"ax",@progbits
	.align	1
	.globl	i2c_transfer_start
	.type	i2c_transfer_start, @function
i2c_transfer_start:
.LFB16:
	.loc 1 181 1
	.cfi_startproc
	addi	sp,sp,-32
	.cfi_def_cfa_offset 32
	sw	ra,28(sp)
	sw	s0,24(sp)
	.cfi_offset 1, -4
	.cfi_offset 8, -8
	addi	s0,sp,32
	.cfi_def_cfa 8, 0
	sw	a0,-20(s0)
	.loc 1 182 5
	lw	a5,-20(s0)
	lw	a5,40(a5)
	mv	a0,a5
	call	i2c_clear_status
	.loc 1 183 5
	lw	a0,-20(s0)
	call	i2c_config_para
	.loc 1 184 5
	lw	a0,-20(s0)
	call	i2c_transfer_enable
	.loc 1 186 5
	nop
	.loc 1 187 1
	lw	ra,28(sp)
	.cfi_restore 1
	lw	s0,24(sp)
	.cfi_restore 8
	.cfi_def_cfa 2, 32
	addi	sp,sp,32
	.cfi_def_cfa_offset 0
	jr	ra
	.cfi_endproc
.LFE16:
	.size	i2c_transfer_start, .-i2c_transfer_start
	.text
.Letext0:
	.file 2 "/home/chandu/sdk/bl602_iot_sdk/toolchain/compiler/lib/gcc/riscv32-unknown-elf/15.1.0/include/stdint-gcc.h"
	.file 3 "/home/chandu/sdk/bl602_iot_sdk/components/hal_drv/bl602_hal/bl_i2c.h"
	.file 4 "/home/chandu/sdk/bl602_iot_sdk/components/bl602/bl602_std/bl602_std/StdDriver/Inc/bl602_common.h"
	.file 5 "/home/chandu/sdk/bl602_iot_sdk/components/bl602/bl602_std/bl602_std/StdDriver/Inc/bl602_i2c.h"
	.file 6 "/home/chandu/sdk/bl602_iot_sdk/components/bl602/bl602_std/bl602_std/StdDriver/Inc/bl602_gpio.h"
	.file 7 "/home/chandu/sdk/bl602_iot_sdk/components/bl602/bl602_std/bl602_std/StdDriver/Inc/bl602_glb.h"
	.section	.note.GNU-stack,"",@progbits
