	.file	"bl_uart.c"
	.option nopic
	.attribute arch, "rv32i2p1_m2p0_f2p2_c2p0_zicsr2p0_zmmul1p0_zca1p0_zcf1p0"
	.attribute unaligned_access, 0
	.attribute stack_align, 16
	.text
.Ltext0:
	.cfi_sections	.debug_frame
	.file 0 "/home/chandu/sdk/bl602_iot_sdk/customer_app/suas_app_pqkem_gateway/build_out/hal_drv" "/home/chandu/sdk/bl602_iot_sdk/components/hal_drv/bl602_hal/bl_uart.c"
	.section	.srodata.uartAddr,"a"
	.align	2
	.type	uartAddr, @object
	.size	uartAddr, 8
uartAddr:
	.word	1073782784
	.word	1073783040
	.section	.bss.g_uart_notify_arg,"aw",@nobits
	.align	2
	.type	g_uart_notify_arg, @object
	.size	g_uart_notify_arg, 32
g_uart_notify_arg:
	.zero	32
	.section	.text.gpio_init,"ax",@progbits
	.align	1
	.type	gpio_init, @function
gpio_init:
.LFB8:
	.file 1 "/home/chandu/sdk/bl602_iot_sdk/components/hal_drv/bl602_hal/bl_uart.c"
	.loc 1 58 1
	.cfi_startproc
	addi	sp,sp,-48
	.cfi_def_cfa_offset 48
	sw	ra,44(sp)
	sw	s0,40(sp)
	.cfi_offset 1, -4
	.cfi_offset 8, -8
	addi	s0,sp,48
	.cfi_def_cfa 8, 0
	mv	a5,a0
	sb	a5,-33(s0)
	mv	a5,a1
	sb	a5,-34(s0)
	mv	a5,a2
	sb	a5,-35(s0)
	mv	a5,a3
	sb	a5,-36(s0)
	mv	a5,a4
	sb	a5,-37(s0)
	.loc 1 62 15
	li	a5,1
	sb	a5,-20(s0)
	.loc 1 63 17
	li	a5,1
	sb	a5,-19(s0)
	.loc 1 64 17
	li	a5,7
	sb	a5,-23(s0)
	.loc 1 66 17
	lbu	a5,-35(s0)
	sb	a5,-24(s0)
	.loc 1 67 18
	li	a5,2
	sb	a5,-22(s0)
	.loc 1 68 18
	sb	zero,-21(s0)
	.loc 1 69 5
	addi	a5,s0,-24
	mv	a0,a5
	call	GLB_GPIO_Init
	.loc 1 71 17
	lbu	a5,-34(s0)
	sb	a5,-24(s0)
	.loc 1 72 18
	li	a5,2
	sb	a5,-22(s0)
	.loc 1 73 18
	sb	zero,-21(s0)
	.loc 1 74 5
	addi	a5,s0,-24
	mv	a0,a5
	call	GLB_GPIO_Init
	.loc 1 77 8
	lbu	a5,-33(s0)
	bne	a5,zero,.L2
	.loc 1 78 19
	li	a5,2
	sb	a5,-17(s0)
	.loc 1 79 19
	li	a5,3
	sb	a5,-18(s0)
	j	.L3
.L2:
	.loc 1 81 19
	li	a5,6
	sb	a5,-17(s0)
	.loc 1 82 19
	li	a5,7
	sb	a5,-18(s0)
.L3:
	.loc 1 88 28
	lbu	a5,-34(s0)
	andi	a5,a5,7
	andi	a5,a5,0xff
	.loc 1 88 5
	lbu	a4,-17(s0)
	mv	a1,a4
	mv	a0,a5
	call	GLB_UART_Fun_Sel
	.loc 1 89 28
	lbu	a5,-35(s0)
	andi	a5,a5,7
	andi	a5,a5,0xff
	.loc 1 89 5
	lbu	a4,-18(s0)
	mv	a1,a4
	mv	a0,a5
	call	GLB_UART_Fun_Sel
	.loc 1 90 1
	nop
	lw	ra,44(sp)
	.cfi_restore 1
	lw	s0,40(sp)
	.cfi_restore 8
	.cfi_def_cfa 2, 48
	addi	sp,sp,48
	.cfi_def_cfa_offset 0
	jr	ra
	.cfi_endproc
.LFE8:
	.size	gpio_init, .-gpio_init
	.section	.rodata
	.align	2
.LC0:
	.word	160000000
	.word	115200
	.byte	3
	.byte	0
	.byte	0
	.byte	0
	.byte	0
	.byte	0
	.byte	0
	.zero	1
	.section	.srodata,"a"
	.align	2
.LC1:
	.byte	16
	.byte	16
	.byte	0
	.byte	0
	.section	.text.bl_uart_init,"ax",@progbits
	.align	1
	.globl	bl_uart_init
	.type	bl_uart_init, @function
bl_uart_init:
.LFB9:
	.loc 1 93 1
	.cfi_startproc
	addi	sp,sp,-64
	.cfi_def_cfa_offset 64
	sw	ra,60(sp)
	sw	s0,56(sp)
	.cfi_offset 1, -4
	.cfi_offset 8, -8
	addi	s0,sp,64
	.cfi_def_cfa 8, 0
	sw	a5,-60(s0)
	mv	a5,a0
	sb	a5,-49(s0)
	mv	a5,a1
	sb	a5,-50(s0)
	mv	a5,a2
	sb	a5,-51(s0)
	mv	a5,a3
	sb	a5,-52(s0)
	mv	a5,a4
	sb	a5,-53(s0)
	.loc 1 95 19
	li	a5,3
	sb	a5,-17(s0)
	.loc 1 97 19
	lui	a5,%hi(.LC0)
	addi	a5,a5,%lo(.LC0)
	lw	a2,0(a5)
	lw	a3,4(a5)
	lw	a4,8(a5)
	sw	a2,-36(s0)
	sw	a3,-32(s0)
	sw	a4,-28(s0)
	lw	a5,12(a5)
	sw	a5,-24(s0)
	.loc 1 109 23
	lui	a5,%hi(.LC1)
	lw	a5,%lo(.LC1)(a5)
	sw	a5,-40(s0)
	.loc 1 118 11
	lui	a5,%hi(uart_clk_init.0)
	lbu	a5,%lo(uart_clk_init.0)(a5)
	.loc 1 118 8
	bne	a5,zero,.L5
	.loc 1 119 9
	lbu	a5,-17(s0)
	mv	a2,a5
	li	a1,1
	li	a0,1
	call	GLB_Set_UART_CLK
	.loc 1 120 23
	lui	a5,%hi(uart_clk_init.0)
	li	a4,1
	sb	a4,%lo(uart_clk_init.0)(a5)
.L5:
	.loc 1 124 5
	lbu	a4,-53(s0)
	lbu	a3,-52(s0)
	lbu	a2,-51(s0)
	lbu	a1,-50(s0)
	lbu	a5,-49(s0)
	mv	a0,a5
	call	gpio_init
	.loc 1 126 22
	lw	a5,-60(s0)
	sw	a5,-32(s0)
	.loc 1 127 55
	lbu	a5,-17(s0)
	addi	a5,a5,1
	.loc 1 127 43
	li	a4,160002048
	addi	a4,a4,-2048
	div	a5,a4,a5
	.loc 1 127 21
	sw	a5,-36(s0)
	.loc 1 130 5
	lbu	a5,-49(s0)
	li	a2,1
	li	a1,8
	mv	a0,a5
	call	UART_IntMask
	.loc 1 133 5
	lbu	a5,-49(s0)
	li	a1,2
	mv	a0,a5
	call	UART_Disable
	.loc 1 136 5
	addi	a4,s0,-36
	lbu	a5,-49(s0)
	mv	a1,a4
	mv	a0,a5
	call	UART_Init
	.loc 1 139 5
	lbu	a5,-49(s0)
	li	a1,1
	mv	a0,a5
	call	UART_TxFreeRun
	.loc 1 142 5
	addi	a4,s0,-40
	lbu	a5,-49(s0)
	mv	a1,a4
	mv	a0,a5
	call	UART_FifoConfig
	.loc 1 145 5
	lbu	a5,-49(s0)
	li	a1,2
	mv	a0,a5
	call	UART_Enable
	.loc 1 147 12
	li	a5,0
	.loc 1 148 1
	mv	a0,a5
	lw	ra,60(sp)
	.cfi_restore 1
	lw	s0,56(sp)
	.cfi_restore 8
	.cfi_def_cfa 2, 64
	addi	sp,sp,64
	.cfi_def_cfa_offset 0
	jr	ra
	.cfi_endproc
.LFE9:
	.size	bl_uart_init, .-bl_uart_init
	.section	.text.bl_uart_data_send,"ax",@progbits
	.align	1
	.globl	bl_uart_data_send
	.type	bl_uart_data_send, @function
bl_uart_data_send:
.LFB10:
	.loc 1 152 1
	.cfi_startproc
	addi	sp,sp,-48
	.cfi_def_cfa_offset 48
	sw	ra,44(sp)
	sw	s0,40(sp)
	.cfi_offset 1, -4
	.cfi_offset 8, -8
	addi	s0,sp,48
	.cfi_def_cfa 8, 0
	mv	a5,a0
	mv	a4,a1
	sb	a5,-33(s0)
	mv	a5,a4
	sb	a5,-34(s0)
	.loc 1 153 30
	lbu	a5,-33(s0)
	.loc 1 153 14
	lui	a4,%hi(uartAddr)
	addi	a4,a4,%lo(uartAddr)
	slli	a5,a5,2
	add	a5,a4,a5
	lw	a5,0(a5)
	sw	a5,-20(s0)
	.loc 1 156 11
	nop
.L8:
	.loc 1 156 12 discriminator 2
	lbu	a5,-33(s0)
	mv	a0,a5
	call	UART_GetTxFifoCount
	mv	a5,a0
	.loc 1 156 36 discriminator 2
	beq	a5,zero,.L8
	.loc 1 159 34
	lw	a5,-20(s0)
	addi	a5,a5,136
	.loc 1 159 8
	mv	a4,a5
	.loc 1 159 44
	lbu	a5,-34(s0)
	sb	a5,0(a4)
	.loc 1 161 12
	li	a5,0
	.loc 1 162 1
	mv	a0,a5
	lw	ra,44(sp)
	.cfi_restore 1
	lw	s0,40(sp)
	.cfi_restore 8
	.cfi_def_cfa 2, 48
	addi	sp,sp,48
	.cfi_def_cfa_offset 0
	jr	ra
	.cfi_endproc
.LFE10:
	.size	bl_uart_data_send, .-bl_uart_data_send
	.section	.text.bl_uart_data_recv,"ax",@progbits
	.align	1
	.globl	bl_uart_data_recv
	.type	bl_uart_data_recv, @function
bl_uart_data_recv:
.LFB11:
	.loc 1 165 1
	.cfi_startproc
	addi	sp,sp,-48
	.cfi_def_cfa_offset 48
	sw	ra,44(sp)
	sw	s0,40(sp)
	.cfi_offset 1, -4
	.cfi_offset 8, -8
	addi	s0,sp,48
	.cfi_def_cfa 8, 0
	mv	a5,a0
	sb	a5,-33(s0)
	.loc 1 167 30
	lbu	a5,-33(s0)
	.loc 1 167 14
	lui	a4,%hi(uartAddr)
	addi	a4,a4,%lo(uartAddr)
	slli	a5,a5,2
	add	a5,a4,a5
	lw	a5,0(a5)
	sw	a5,-24(s0)
	.loc 1 170 9
	lbu	a5,-33(s0)
	mv	a0,a5
	call	UART_GetRxFifoCount
	mv	a5,a0
	.loc 1 170 8 discriminator 1
	beq	a5,zero,.L11
	.loc 1 171 44
	lw	a5,-24(s0)
	addi	a5,a5,140
	.loc 1 171 16
	lbu	a5,0(a5)
	andi	a5,a5,0xff
	.loc 1 171 13
	sw	a5,-20(s0)
	j	.L12
.L11:
	.loc 1 173 13
	li	a5,-1
	sw	a5,-20(s0)
.L12:
	.loc 1 176 12
	lw	a5,-20(s0)
	.loc 1 177 1
	mv	a0,a5
	lw	ra,44(sp)
	.cfi_restore 1
	lw	s0,40(sp)
	.cfi_restore 8
	.cfi_def_cfa 2, 48
	addi	sp,sp,48
	.cfi_def_cfa_offset 0
	jr	ra
	.cfi_endproc
.LFE11:
	.size	bl_uart_data_recv, .-bl_uart_data_recv
	.section	.text.bl_uart_int_rx_enable,"ax",@progbits
	.align	1
	.globl	bl_uart_int_rx_enable
	.type	bl_uart_int_rx_enable, @function
bl_uart_int_rx_enable:
.LFB12:
	.loc 1 180 1
	.cfi_startproc
	addi	sp,sp,-32
	.cfi_def_cfa_offset 32
	sw	ra,28(sp)
	sw	s0,24(sp)
	.cfi_offset 1, -4
	.cfi_offset 8, -8
	addi	s0,sp,32
	.cfi_def_cfa 8, 0
	mv	a5,a0
	sb	a5,-17(s0)
	.loc 1 181 5
	lbu	a5,-17(s0)
	li	a1,24
	mv	a0,a5
	call	UART_SetRxTimeoutValue
	.loc 1 182 5
	lbu	a5,-17(s0)
	li	a2,0
	li	a1,3
	mv	a0,a5
	call	UART_IntMask
	.loc 1 183 5
	lbu	a5,-17(s0)
	li	a2,0
	li	a1,1
	mv	a0,a5
	call	UART_IntMask
	.loc 1 184 5
	lbu	a5,-17(s0)
	li	a2,0
	li	a1,4
	mv	a0,a5
	call	UART_IntMask
	.loc 1 185 12
	li	a5,0
	.loc 1 186 1
	mv	a0,a5
	lw	ra,28(sp)
	.cfi_restore 1
	lw	s0,24(sp)
	.cfi_restore 8
	.cfi_def_cfa 2, 32
	addi	sp,sp,32
	.cfi_def_cfa_offset 0
	jr	ra
	.cfi_endproc
.LFE12:
	.size	bl_uart_int_rx_enable, .-bl_uart_int_rx_enable
	.section	.text.bl_uart_int_rx_disable,"ax",@progbits
	.align	1
	.globl	bl_uart_int_rx_disable
	.type	bl_uart_int_rx_disable, @function
bl_uart_int_rx_disable:
.LFB13:
	.loc 1 189 1
	.cfi_startproc
	addi	sp,sp,-32
	.cfi_def_cfa_offset 32
	sw	ra,28(sp)
	sw	s0,24(sp)
	.cfi_offset 1, -4
	.cfi_offset 8, -8
	addi	s0,sp,32
	.cfi_def_cfa 8, 0
	mv	a5,a0
	sb	a5,-17(s0)
	.loc 1 190 5
	lbu	a5,-17(s0)
	li	a2,1
	li	a1,3
	mv	a0,a5
	call	UART_IntMask
	.loc 1 191 5
	lbu	a5,-17(s0)
	li	a2,1
	li	a1,1
	mv	a0,a5
	call	UART_IntMask
	.loc 1 192 5
	lbu	a5,-17(s0)
	li	a2,1
	li	a1,4
	mv	a0,a5
	call	UART_IntMask
	.loc 1 193 12
	li	a5,0
	.loc 1 194 1
	mv	a0,a5
	lw	ra,28(sp)
	.cfi_restore 1
	lw	s0,24(sp)
	.cfi_restore 8
	.cfi_def_cfa 2, 32
	addi	sp,sp,32
	.cfi_def_cfa_offset 0
	jr	ra
	.cfi_endproc
.LFE13:
	.size	bl_uart_int_rx_disable, .-bl_uart_int_rx_disable
	.section	.text.bl_uart_int_tx_enable,"ax",@progbits
	.align	1
	.globl	bl_uart_int_tx_enable
	.type	bl_uart_int_tx_enable, @function
bl_uart_int_tx_enable:
.LFB14:
	.loc 1 197 1
	.cfi_startproc
	addi	sp,sp,-32
	.cfi_def_cfa_offset 32
	sw	ra,28(sp)
	sw	s0,24(sp)
	.cfi_offset 1, -4
	.cfi_offset 8, -8
	addi	s0,sp,32
	.cfi_def_cfa 8, 0
	mv	a5,a0
	sb	a5,-17(s0)
	.loc 1 198 5
	lbu	a5,-17(s0)
	li	a2,0
	li	a1,2
	mv	a0,a5
	call	UART_IntMask
	.loc 1 199 12
	li	a5,0
	.loc 1 200 1
	mv	a0,a5
	lw	ra,28(sp)
	.cfi_restore 1
	lw	s0,24(sp)
	.cfi_restore 8
	.cfi_def_cfa 2, 32
	addi	sp,sp,32
	.cfi_def_cfa_offset 0
	jr	ra
	.cfi_endproc
.LFE14:
	.size	bl_uart_int_tx_enable, .-bl_uart_int_tx_enable
	.section	.text.bl_uart_int_tx_disable,"ax",@progbits
	.align	1
	.globl	bl_uart_int_tx_disable
	.type	bl_uart_int_tx_disable, @function
bl_uart_int_tx_disable:
.LFB15:
	.loc 1 203 1
	.cfi_startproc
	addi	sp,sp,-32
	.cfi_def_cfa_offset 32
	sw	ra,28(sp)
	sw	s0,24(sp)
	.cfi_offset 1, -4
	.cfi_offset 8, -8
	addi	s0,sp,32
	.cfi_def_cfa 8, 0
	mv	a5,a0
	sb	a5,-17(s0)
	.loc 1 204 5
	lbu	a5,-17(s0)
	li	a2,1
	li	a1,2
	mv	a0,a5
	call	UART_IntMask
	.loc 1 205 12
	li	a5,0
	.loc 1 206 1
	mv	a0,a5
	lw	ra,28(sp)
	.cfi_restore 1
	lw	s0,24(sp)
	.cfi_restore 8
	.cfi_def_cfa 2, 32
	addi	sp,sp,32
	.cfi_def_cfa_offset 0
	jr	ra
	.cfi_endproc
.LFE15:
	.size	bl_uart_int_tx_disable, .-bl_uart_int_tx_disable
	.section	.text.bl_uart_flush,"ax",@progbits
	.align	1
	.globl	bl_uart_flush
	.type	bl_uart_flush, @function
bl_uart_flush:
.LFB16:
	.loc 1 209 1
	.cfi_startproc
	addi	sp,sp,-32
	.cfi_def_cfa_offset 32
	sw	ra,28(sp)
	sw	s0,24(sp)
	.cfi_offset 1, -4
	.cfi_offset 8, -8
	addi	s0,sp,32
	.cfi_def_cfa 8, 0
	mv	a5,a0
	sb	a5,-17(s0)
	.loc 1 211 11
	nop
.L23:
	.loc 1 211 20 discriminator 2
	lbu	a5,-17(s0)
	mv	a0,a5
	call	UART_GetTxFifoCount
	mv	a5,a0
	mv	a4,a5
	.loc 1 211 17 discriminator 2
	li	a5,32
	bne	a4,a5,.L23
	.loc 1 214 12
	li	a5,0
	.loc 1 215 1
	mv	a0,a5
	lw	ra,28(sp)
	.cfi_restore 1
	lw	s0,24(sp)
	.cfi_restore 8
	.cfi_def_cfa 2, 32
	addi	sp,sp,32
	.cfi_def_cfa_offset 0
	jr	ra
	.cfi_endproc
.LFE16:
	.size	bl_uart_flush, .-bl_uart_flush
	.section	.text.bl_uart_getdefconfig,"ax",@progbits
	.align	1
	.globl	bl_uart_getdefconfig
	.type	bl_uart_getdefconfig, @function
bl_uart_getdefconfig:
.LFB17:
	.loc 1 218 1
	.cfi_startproc
	addi	sp,sp,-32
	.cfi_def_cfa_offset 32
	sw	ra,28(sp)
	sw	s0,24(sp)
	.cfi_offset 1, -4
	.cfi_offset 8, -8
	addi	s0,sp,32
	.cfi_def_cfa 8, 0
	mv	a5,a0
	sw	a1,-24(s0)
	sb	a5,-17(s0)
	.loc 1 219 8
	lw	a5,-24(s0)
	beq	a5,zero,.L28
	.loc 1 224 13
	lw	a5,-24(s0)
	sb	zero,0(a5)
	j	.L25
.L28:
	.loc 1 220 9
	nop
.L25:
	.loc 1 225 1
	lw	ra,28(sp)
	.cfi_restore 1
	lw	s0,24(sp)
	.cfi_restore 8
	.cfi_def_cfa 2, 32
	addi	sp,sp,32
	.cfi_def_cfa_offset 0
	jr	ra
	.cfi_endproc
.LFE17:
	.size	bl_uart_getdefconfig, .-bl_uart_getdefconfig
	.section	.rodata
	.align	2
.LC2:
	.word	40000000
	.word	115200
	.byte	3
	.byte	0
	.byte	0
	.byte	0
	.byte	0
	.byte	0
	.byte	0
	.zero	1
	.section	.text.bl_uart_setconfig,"ax",@progbits
	.align	1
	.globl	bl_uart_setconfig
	.type	bl_uart_setconfig, @function
bl_uart_setconfig:
.LFB18:
	.loc 1 228 1
	.cfi_startproc
	addi	sp,sp,-48
	.cfi_def_cfa_offset 48
	sw	ra,44(sp)
	sw	s0,40(sp)
	.cfi_offset 1, -4
	.cfi_offset 8, -8
	addi	s0,sp,48
	.cfi_def_cfa 8, 0
	mv	a5,a0
	sw	a1,-40(s0)
	mv	a4,a2
	sb	a5,-33(s0)
	mv	a5,a4
	sb	a5,-34(s0)
	.loc 1 229 19
	lui	a5,%hi(.LC2)
	addi	a5,a5,%lo(.LC2)
	lw	a2,0(a5)
	lw	a3,4(a5)
	lw	a4,8(a5)
	sw	a2,-32(s0)
	sw	a3,-28(s0)
	sw	a4,-24(s0)
	lw	a5,12(a5)
	sw	a5,-20(s0)
	.loc 1 242 22
	lw	a5,-40(s0)
	sw	a5,-28(s0)
	.loc 1 243 20
	lbu	a5,-34(s0)
	sb	a5,-22(s0)
	.loc 1 246 5
	lbu	a5,-33(s0)
	li	a1,2
	mv	a0,a5
	call	UART_Disable
	.loc 1 248 5
	addi	a4,s0,-32
	lbu	a5,-33(s0)
	mv	a1,a4
	mv	a0,a5
	call	UART_Init
	.loc 1 250 5
	lbu	a5,-33(s0)
	li	a1,1
	mv	a0,a5
	call	UART_TxFreeRun
	.loc 1 252 5
	lbu	a5,-33(s0)
	li	a1,2
	mv	a0,a5
	call	UART_Enable
	.loc 1 253 1
	nop
	lw	ra,44(sp)
	.cfi_restore 1
	lw	s0,40(sp)
	.cfi_restore 8
	.cfi_def_cfa 2, 48
	addi	sp,sp,48
	.cfi_def_cfa_offset 0
	jr	ra
	.cfi_endproc
.LFE18:
	.size	bl_uart_setconfig, .-bl_uart_setconfig
	.section	.text.bl_uart_setbaud,"ax",@progbits
	.align	1
	.globl	bl_uart_setbaud
	.type	bl_uart_setbaud, @function
bl_uart_setbaud:
.LFB19:
	.loc 1 256 1
	.cfi_startproc
	addi	sp,sp,-32
	.cfi_def_cfa_offset 32
	sw	ra,28(sp)
	sw	s0,24(sp)
	.cfi_offset 1, -4
	.cfi_offset 8, -8
	addi	s0,sp,32
	.cfi_def_cfa 8, 0
	mv	a5,a0
	sw	a1,-24(s0)
	sb	a5,-17(s0)
	.loc 1 257 5
	lbu	a5,-17(s0)
	li	a2,0
	lw	a1,-24(s0)
	mv	a0,a5
	call	bl_uart_setconfig
	.loc 1 258 1
	nop
	lw	ra,28(sp)
	.cfi_restore 1
	lw	s0,24(sp)
	.cfi_restore 8
	.cfi_def_cfa 2, 32
	addi	sp,sp,32
	.cfi_def_cfa_offset 0
	jr	ra
	.cfi_endproc
.LFE19:
	.size	bl_uart_setbaud, .-bl_uart_setbaud
	.section	.text.bl_uart_int_enable,"ax",@progbits
	.align	1
	.globl	bl_uart_int_enable
	.type	bl_uart_int_enable, @function
bl_uart_int_enable:
.LFB20:
	.loc 1 261 1
	.cfi_startproc
	addi	sp,sp,-32
	.cfi_def_cfa_offset 32
	sw	ra,28(sp)
	sw	s0,24(sp)
	.cfi_offset 1, -4
	.cfi_offset 8, -8
	addi	s0,sp,32
	.cfi_def_cfa 8, 0
	mv	a5,a0
	sb	a5,-17(s0)
	.loc 1 262 5
	lbu	a5,-17(s0)
	beq	a5,zero,.L32
	li	a4,1
	beq	a5,a4,.L33
	j	.L37
.L32:
	.loc 1 265 13
	li	a0,0
	call	bl_uart_int_rx_enable
	.loc 1 266 13
	li	a0,0
	call	bl_uart_int_tx_enable
	.loc 1 267 13
	lui	a5,%hi(UART0_IRQHandler)
	addi	a1,a5,%lo(UART0_IRQHandler)
	li	a0,45
	call	bl_irq_register
	.loc 1 268 13
	li	a0,45
	call	bl_irq_enable
	.loc 1 270 9
	j	.L35
.L33:
	.loc 1 273 13
	li	a0,1
	call	bl_uart_int_rx_enable
	.loc 1 274 13
	li	a0,1
	call	bl_uart_int_tx_enable
	.loc 1 275 13
	lui	a5,%hi(UART1_IRQHandler)
	addi	a1,a5,%lo(UART1_IRQHandler)
	li	a0,46
	call	bl_irq_register
	.loc 1 276 13
	li	a0,46
	call	bl_irq_enable
	.loc 1 278 9
	j	.L35
.L37:
	.loc 1 281 20
	li	a5,-1
	j	.L36
.L35:
	.loc 1 285 12
	li	a5,0
.L36:
	.loc 1 286 1
	mv	a0,a5
	lw	ra,28(sp)
	.cfi_restore 1
	lw	s0,24(sp)
	.cfi_restore 8
	.cfi_def_cfa 2, 32
	addi	sp,sp,32
	.cfi_def_cfa_offset 0
	jr	ra
	.cfi_endproc
.LFE20:
	.size	bl_uart_int_enable, .-bl_uart_int_enable
	.section	.text.bl_uart_int_disable,"ax",@progbits
	.align	1
	.globl	bl_uart_int_disable
	.type	bl_uart_int_disable, @function
bl_uart_int_disable:
.LFB21:
	.loc 1 289 1
	.cfi_startproc
	addi	sp,sp,-32
	.cfi_def_cfa_offset 32
	sw	ra,28(sp)
	sw	s0,24(sp)
	.cfi_offset 1, -4
	.cfi_offset 8, -8
	addi	s0,sp,32
	.cfi_def_cfa 8, 0
	mv	a5,a0
	sb	a5,-17(s0)
	.loc 1 290 5
	lbu	a5,-17(s0)
	beq	a5,zero,.L39
	li	a4,1
	beq	a5,a4,.L40
	j	.L44
.L39:
	.loc 1 293 13
	li	a0,0
	call	bl_uart_int_rx_disable
	.loc 1 294 13
	li	a0,0
	call	bl_uart_int_tx_disable
	.loc 1 295 13
	lui	a5,%hi(UART0_IRQHandler)
	addi	a1,a5,%lo(UART0_IRQHandler)
	li	a0,45
	call	bl_irq_unregister
	.loc 1 296 13
	li	a0,45
	call	bl_irq_disable
	.loc 1 298 9
	j	.L42
.L40:
	.loc 1 301 13
	li	a0,1
	call	bl_uart_int_rx_disable
	.loc 1 302 13
	li	a0,1
	call	bl_uart_int_tx_disable
	.loc 1 303 13
	lui	a5,%hi(UART1_IRQHandler)
	addi	a1,a5,%lo(UART1_IRQHandler)
	li	a0,46
	call	bl_irq_unregister
	.loc 1 304 13
	li	a0,46
	call	bl_irq_disable
	.loc 1 306 9
	j	.L42
.L44:
	.loc 1 309 20
	li	a5,-1
	j	.L43
.L42:
	.loc 1 313 12
	li	a5,0
.L43:
	.loc 1 314 1
	mv	a0,a5
	lw	ra,28(sp)
	.cfi_restore 1
	lw	s0,24(sp)
	.cfi_restore 8
	.cfi_def_cfa 2, 32
	addi	sp,sp,32
	.cfi_def_cfa_offset 0
	jr	ra
	.cfi_endproc
.LFE21:
	.size	bl_uart_int_disable, .-bl_uart_int_disable
	.section	.text.bl_uart_int_rx_notify_register,"ax",@progbits
	.align	1
	.globl	bl_uart_int_rx_notify_register
	.type	bl_uart_int_rx_notify_register, @function
bl_uart_int_rx_notify_register:
.LFB22:
	.loc 1 317 1
	.cfi_startproc
	addi	sp,sp,-32
	.cfi_def_cfa_offset 32
	sw	ra,28(sp)
	sw	s0,24(sp)
	.cfi_offset 1, -4
	.cfi_offset 8, -8
	addi	s0,sp,32
	.cfi_def_cfa 8, 0
	mv	a5,a0
	sw	a1,-24(s0)
	sw	a2,-28(s0)
	sb	a5,-17(s0)
	.loc 1 318 8
	lbu	a4,-17(s0)
	li	a5,1
	bleu	a4,a5,.L46
	.loc 1 320 16
	li	a5,-1
	j	.L47
.L46:
	.loc 1 323 26
	lbu	a5,-17(s0)
	.loc 1 323 33
	lui	a4,%hi(g_uart_notify_arg)
	addi	a4,a4,%lo(g_uart_notify_arg)
	slli	a5,a5,4
	add	a5,a4,a5
	lw	a4,-24(s0)
	sw	a4,0(a5)
	.loc 1 324 26
	lbu	a5,-17(s0)
	.loc 1 324 37
	lui	a4,%hi(g_uart_notify_arg)
	addi	a4,a4,%lo(g_uart_notify_arg)
	slli	a5,a5,4
	add	a5,a4,a5
	lw	a4,-28(s0)
	sw	a4,4(a5)
	.loc 1 326 12
	li	a5,0
.L47:
	.loc 1 327 1
	mv	a0,a5
	lw	ra,28(sp)
	.cfi_restore 1
	lw	s0,24(sp)
	.cfi_restore 8
	.cfi_def_cfa 2, 32
	addi	sp,sp,32
	.cfi_def_cfa_offset 0
	jr	ra
	.cfi_endproc
.LFE22:
	.size	bl_uart_int_rx_notify_register, .-bl_uart_int_rx_notify_register
	.section	.text.bl_uart_int_tx_notify_register,"ax",@progbits
	.align	1
	.globl	bl_uart_int_tx_notify_register
	.type	bl_uart_int_tx_notify_register, @function
bl_uart_int_tx_notify_register:
.LFB23:
	.loc 1 330 1
	.cfi_startproc
	addi	sp,sp,-32
	.cfi_def_cfa_offset 32
	sw	ra,28(sp)
	sw	s0,24(sp)
	.cfi_offset 1, -4
	.cfi_offset 8, -8
	addi	s0,sp,32
	.cfi_def_cfa 8, 0
	mv	a5,a0
	sw	a1,-24(s0)
	sw	a2,-28(s0)
	sb	a5,-17(s0)
	.loc 1 331 8
	lbu	a4,-17(s0)
	li	a5,1
	bleu	a4,a5,.L49
	.loc 1 333 16
	li	a5,-1
	j	.L50
.L49:
	.loc 1 336 26
	lbu	a5,-17(s0)
	.loc 1 336 33
	lui	a4,%hi(g_uart_notify_arg)
	addi	a4,a4,%lo(g_uart_notify_arg)
	slli	a5,a5,4
	add	a5,a4,a5
	lw	a4,-24(s0)
	sw	a4,8(a5)
	.loc 1 337 26
	lbu	a5,-17(s0)
	.loc 1 337 37
	lui	a4,%hi(g_uart_notify_arg)
	addi	a4,a4,%lo(g_uart_notify_arg)
	slli	a5,a5,4
	add	a5,a4,a5
	lw	a4,-28(s0)
	sw	a4,12(a5)
	.loc 1 339 12
	li	a5,0
.L50:
	.loc 1 340 1
	mv	a0,a5
	lw	ra,28(sp)
	.cfi_restore 1
	lw	s0,24(sp)
	.cfi_restore 8
	.cfi_def_cfa 2, 32
	addi	sp,sp,32
	.cfi_def_cfa_offset 0
	jr	ra
	.cfi_endproc
.LFE23:
	.size	bl_uart_int_tx_notify_register, .-bl_uart_int_tx_notify_register
	.section	.text.bl_uart_int_rx_notify_unregister,"ax",@progbits
	.align	1
	.globl	bl_uart_int_rx_notify_unregister
	.type	bl_uart_int_rx_notify_unregister, @function
bl_uart_int_rx_notify_unregister:
.LFB24:
	.loc 1 343 1
	.cfi_startproc
	addi	sp,sp,-32
	.cfi_def_cfa_offset 32
	sw	ra,28(sp)
	sw	s0,24(sp)
	.cfi_offset 1, -4
	.cfi_offset 8, -8
	addi	s0,sp,32
	.cfi_def_cfa 8, 0
	mv	a5,a0
	sw	a1,-24(s0)
	sw	a2,-28(s0)
	sb	a5,-17(s0)
	.loc 1 344 8
	lbu	a4,-17(s0)
	li	a5,1
	bleu	a4,a5,.L52
	.loc 1 346 16
	li	a5,-1
	j	.L53
.L52:
	.loc 1 348 26
	lbu	a5,-17(s0)
	.loc 1 348 33
	lui	a4,%hi(g_uart_notify_arg)
	addi	a4,a4,%lo(g_uart_notify_arg)
	slli	a5,a5,4
	add	a5,a4,a5
	sw	zero,0(a5)
	.loc 1 349 26
	lbu	a5,-17(s0)
	.loc 1 349 37
	lui	a4,%hi(g_uart_notify_arg)
	addi	a4,a4,%lo(g_uart_notify_arg)
	slli	a5,a5,4
	add	a5,a4,a5
	sw	zero,4(a5)
	.loc 1 351 12
	li	a5,0
.L53:
	.loc 1 352 1
	mv	a0,a5
	lw	ra,28(sp)
	.cfi_restore 1
	lw	s0,24(sp)
	.cfi_restore 8
	.cfi_def_cfa 2, 32
	addi	sp,sp,32
	.cfi_def_cfa_offset 0
	jr	ra
	.cfi_endproc
.LFE24:
	.size	bl_uart_int_rx_notify_unregister, .-bl_uart_int_rx_notify_unregister
	.section	.text.bl_uart_int_tx_notify_unregister,"ax",@progbits
	.align	1
	.globl	bl_uart_int_tx_notify_unregister
	.type	bl_uart_int_tx_notify_unregister, @function
bl_uart_int_tx_notify_unregister:
.LFB25:
	.loc 1 355 1
	.cfi_startproc
	addi	sp,sp,-32
	.cfi_def_cfa_offset 32
	sw	ra,28(sp)
	sw	s0,24(sp)
	.cfi_offset 1, -4
	.cfi_offset 8, -8
	addi	s0,sp,32
	.cfi_def_cfa 8, 0
	mv	a5,a0
	sw	a1,-24(s0)
	sw	a2,-28(s0)
	sb	a5,-17(s0)
	.loc 1 356 8
	lbu	a4,-17(s0)
	li	a5,1
	bleu	a4,a5,.L55
	.loc 1 358 16
	li	a5,-1
	j	.L56
.L55:
	.loc 1 360 26
	lbu	a5,-17(s0)
	.loc 1 360 33
	lui	a4,%hi(g_uart_notify_arg)
	addi	a4,a4,%lo(g_uart_notify_arg)
	slli	a5,a5,4
	add	a5,a4,a5
	sw	zero,8(a5)
	.loc 1 361 26
	lbu	a5,-17(s0)
	.loc 1 361 37
	lui	a4,%hi(g_uart_notify_arg)
	addi	a4,a4,%lo(g_uart_notify_arg)
	slli	a5,a5,4
	add	a5,a4,a5
	sw	zero,12(a5)
	.loc 1 363 12
	li	a5,0
.L56:
	.loc 1 364 1
	mv	a0,a5
	lw	ra,28(sp)
	.cfi_restore 1
	lw	s0,24(sp)
	.cfi_restore 8
	.cfi_def_cfa 2, 32
	addi	sp,sp,32
	.cfi_def_cfa_offset 0
	jr	ra
	.cfi_endproc
.LFE25:
	.size	bl_uart_int_tx_notify_unregister, .-bl_uart_int_tx_notify_unregister
	.section	.text.uart_generic_notify_handler,"ax",@progbits
	.align	1
	.type	uart_generic_notify_handler, @function
uart_generic_notify_handler:
.LFB26:
	.loc 1 367 1
	.cfi_startproc
	addi	sp,sp,-64
	.cfi_def_cfa_offset 64
	sw	ra,60(sp)
	sw	s0,56(sp)
	.cfi_offset 1, -4
	.cfi_offset 8, -8
	addi	s0,sp,64
	.cfi_def_cfa 8, 0
	mv	a5,a0
	sb	a5,-49(s0)
	.loc 1 370 14
	sw	zero,-20(s0)
	.loc 1 371 14
	sw	zero,-24(s0)
	.loc 1 372 30
	lbu	a5,-49(s0)
	.loc 1 372 14
	lui	a4,%hi(uartAddr)
	addi	a4,a4,%lo(uartAddr)
	slli	a5,a5,2
	add	a5,a4,a5
	lw	a5,0(a5)
	sw	a5,-28(s0)
	.loc 1 374 43
	lw	a5,-28(s0)
	addi	a5,a5,32
	.loc 1 374 12
	lw	a5,0(a5)
	sw	a5,-20(s0)
	.loc 1 375 44
	lw	a5,-28(s0)
	addi	a5,a5,36
	.loc 1 375 13
	lw	a5,0(a5)
	sw	a5,-24(s0)
	.loc 1 379 19
	lw	a5,-20(s0)
	andi	a5,a5,1
	.loc 1 379 7
	beq	a5,zero,.L58
	.loc 1 379 56 discriminator 1
	lw	a5,-24(s0)
	andi	a5,a5,1
	.loc 1 379 40 discriminator 1
	bne	a5,zero,.L58
	.loc 1 380 38
	lw	a5,-28(s0)
	addi	a5,a5,40
	.loc 1 380 12
	mv	a4,a5
	.loc 1 380 47
	li	a5,1
	sw	a5,0(a4)
.L58:
	.loc 1 384 19
	lw	a5,-20(s0)
	andi	a5,a5,2
	.loc 1 384 7
	beq	a5,zero,.L59
	.loc 1 384 56 discriminator 1
	lw	a5,-24(s0)
	andi	a5,a5,2
	.loc 1 384 40 discriminator 1
	bne	a5,zero,.L59
	.loc 1 385 38
	lw	a5,-28(s0)
	addi	a5,a5,40
	.loc 1 385 12
	mv	a4,a5
	.loc 1 385 47
	li	a5,2
	sw	a5,0(a4)
	.loc 1 388 35
	lbu	a5,-49(s0)
	.loc 1 388 12
	lui	a4,%hi(g_uart_notify_arg)
	addi	a4,a4,%lo(g_uart_notify_arg)
	slli	a5,a5,4
	add	a5,a4,a5
	lw	a5,0(a5)
	sw	a5,-32(s0)
	.loc 1 389 36
	lbu	a5,-49(s0)
	.loc 1 389 13
	lui	a4,%hi(g_uart_notify_arg)
	addi	a4,a4,%lo(g_uart_notify_arg)
	slli	a5,a5,4
	add	a5,a4,a5
	lw	a5,4(a5)
	sw	a5,-36(s0)
	.loc 1 391 12
	lw	a5,-32(s0)
	beq	a5,zero,.L59
	.loc 1 393 13
	lw	a5,-32(s0)
	lw	a0,-36(s0)
	jalr	a5
.LVL0:
.L59:
	.loc 1 398 19
	lw	a5,-20(s0)
	andi	a5,a5,4
	.loc 1 398 7
	beq	a5,zero,.L60
	.loc 1 398 56 discriminator 1
	lw	a5,-24(s0)
	andi	a5,a5,4
	.loc 1 398 40 discriminator 1
	bne	a5,zero,.L60
	.loc 1 400 35
	lbu	a5,-49(s0)
	.loc 1 400 12
	lui	a4,%hi(g_uart_notify_arg)
	addi	a4,a4,%lo(g_uart_notify_arg)
	slli	a5,a5,4
	add	a5,a4,a5
	lw	a5,8(a5)
	sw	a5,-32(s0)
	.loc 1 401 36
	lbu	a5,-49(s0)
	.loc 1 401 13
	lui	a4,%hi(g_uart_notify_arg)
	addi	a4,a4,%lo(g_uart_notify_arg)
	slli	a5,a5,4
	add	a5,a4,a5
	lw	a5,12(a5)
	sw	a5,-36(s0)
	.loc 1 403 12
	lw	a5,-32(s0)
	beq	a5,zero,.L60
	.loc 1 405 13
	lw	a5,-32(s0)
	lw	a0,-36(s0)
	jalr	a5
.LVL1:
.L60:
	.loc 1 410 19
	lw	a5,-20(s0)
	andi	a5,a5,8
	.loc 1 410 7
	beq	a5,zero,.L61
	.loc 1 410 56 discriminator 1
	lw	a5,-24(s0)
	andi	a5,a5,8
	.loc 1 410 40 discriminator 1
	bne	a5,zero,.L61
	.loc 1 413 35
	lbu	a5,-49(s0)
	.loc 1 413 12
	lui	a4,%hi(g_uart_notify_arg)
	addi	a4,a4,%lo(g_uart_notify_arg)
	slli	a5,a5,4
	add	a5,a4,a5
	lw	a5,0(a5)
	sw	a5,-32(s0)
	.loc 1 414 36
	lbu	a5,-49(s0)
	.loc 1 414 13
	lui	a4,%hi(g_uart_notify_arg)
	addi	a4,a4,%lo(g_uart_notify_arg)
	slli	a5,a5,4
	add	a5,a4,a5
	lw	a5,4(a5)
	sw	a5,-36(s0)
	.loc 1 416 12
	lw	a5,-32(s0)
	beq	a5,zero,.L61
	.loc 1 418 13
	lw	a5,-32(s0)
	lw	a0,-36(s0)
	jalr	a5
.LVL2:
.L61:
	.loc 1 423 20
	lw	a5,-20(s0)
	andi	a5,a5,16
	.loc 1 423 8
	beq	a5,zero,.L62
	.loc 1 423 57 discriminator 1
	lw	a5,-24(s0)
	andi	a5,a5,16
	.loc 1 423 41 discriminator 1
	bne	a5,zero,.L62
	.loc 1 424 38
	lw	a5,-28(s0)
	addi	a5,a5,40
	.loc 1 424 12
	mv	a4,a5
	.loc 1 424 47
	li	a5,16
	sw	a5,0(a4)
	.loc 1 427 35
	lbu	a5,-49(s0)
	.loc 1 427 12
	lui	a4,%hi(g_uart_notify_arg)
	addi	a4,a4,%lo(g_uart_notify_arg)
	slli	a5,a5,4
	add	a5,a4,a5
	lw	a5,0(a5)
	sw	a5,-32(s0)
	.loc 1 428 36
	lbu	a5,-49(s0)
	.loc 1 428 13
	lui	a4,%hi(g_uart_notify_arg)
	addi	a4,a4,%lo(g_uart_notify_arg)
	slli	a5,a5,4
	add	a5,a4,a5
	lw	a5,4(a5)
	sw	a5,-36(s0)
	.loc 1 430 12
	lw	a5,-32(s0)
	beq	a5,zero,.L62
	.loc 1 432 13
	lw	a5,-32(s0)
	lw	a0,-36(s0)
	jalr	a5
.LVL3:
.L62:
	.loc 1 437 19
	lw	a5,-20(s0)
	andi	a5,a5,32
	.loc 1 437 7
	beq	a5,zero,.L63
	.loc 1 437 56 discriminator 1
	lw	a5,-24(s0)
	andi	a5,a5,32
	.loc 1 437 40 discriminator 1
	bne	a5,zero,.L63
	.loc 1 438 38
	lw	a5,-28(s0)
	addi	a5,a5,40
	.loc 1 438 12
	mv	a4,a5
	.loc 1 438 47
	li	a5,32
	sw	a5,0(a4)
.L63:
	.loc 1 446 19
	lw	a5,-20(s0)
	andi	a5,a5,128
	.loc 1 446 7
	beq	a5,zero,.L67
	.loc 1 449 5
	nop
.L67:
	nop
	.loc 1 450 1
	lw	ra,60(sp)
	.cfi_restore 1
	lw	s0,56(sp)
	.cfi_restore 8
	.cfi_def_cfa 2, 64
	addi	sp,sp,64
	.cfi_def_cfa_offset 0
	jr	ra
	.cfi_endproc
.LFE26:
	.size	uart_generic_notify_handler, .-uart_generic_notify_handler
	.section	.text.UART0_IRQHandler,"ax",@progbits
	.align	1
	.globl	UART0_IRQHandler
	.type	UART0_IRQHandler, @function
UART0_IRQHandler:
.LFB27:
	.loc 1 453 1
	.cfi_startproc
	addi	sp,sp,-16
	.cfi_def_cfa_offset 16
	sw	ra,12(sp)
	sw	s0,8(sp)
	.cfi_offset 1, -4
	.cfi_offset 8, -8
	addi	s0,sp,16
	.cfi_def_cfa 8, 0
	.loc 1 454 5
	li	a0,0
	call	uart_generic_notify_handler
	.loc 1 455 1
	nop
	lw	ra,12(sp)
	.cfi_restore 1
	lw	s0,8(sp)
	.cfi_restore 8
	.cfi_def_cfa 2, 16
	addi	sp,sp,16
	.cfi_def_cfa_offset 0
	jr	ra
	.cfi_endproc
.LFE27:
	.size	UART0_IRQHandler, .-UART0_IRQHandler
	.section	.text.UART1_IRQHandler,"ax",@progbits
	.align	1
	.globl	UART1_IRQHandler
	.type	UART1_IRQHandler, @function
UART1_IRQHandler:
.LFB28:
	.loc 1 458 1
	.cfi_startproc
	addi	sp,sp,-16
	.cfi_def_cfa_offset 16
	sw	ra,12(sp)
	sw	s0,8(sp)
	.cfi_offset 1, -4
	.cfi_offset 8, -8
	addi	s0,sp,16
	.cfi_def_cfa 8, 0
	.loc 1 459 5
	li	a0,1
	call	uart_generic_notify_handler
	.loc 1 460 1
	nop
	lw	ra,12(sp)
	.cfi_restore 1
	lw	s0,8(sp)
	.cfi_restore 8
	.cfi_def_cfa 2, 16
	addi	sp,sp,16
	.cfi_def_cfa_offset 0
	jr	ra
	.cfi_endproc
.LFE28:
	.size	UART1_IRQHandler, .-UART1_IRQHandler
	.section	.sbss.uart_clk_init.0,"aw",@nobits
	.type	uart_clk_init.0, @object
	.size	uart_clk_init.0, 1
uart_clk_init.0:
	.zero	1
	.text
.Letext0:
	.file 2 "/home/chandu/sdk/bl602_iot_sdk/toolchain/compiler/lib/gcc/riscv32-unknown-elf/15.1.0/include/stdint-gcc.h"
	.file 3 "/home/chandu/sdk/bl602_iot_sdk/components/bl602/bl602_std/bl602_std/Device/Bouffalo/BL602/Peripherals/bl602.h"
	.file 4 "/home/chandu/sdk/bl602_iot_sdk/components/bl602/bl602_std/bl602_std/StdDriver/Inc/bl602_common.h"
	.file 5 "/home/chandu/sdk/bl602_iot_sdk/components/bl602/bl602_std/bl602_std/StdDriver/Inc/bl602_uart.h"
	.file 6 "/home/chandu/sdk/bl602_iot_sdk/components/bl602/bl602_std/bl602_std/StdDriver/Inc/bl602_gpio.h"
	.file 7 "/home/chandu/sdk/bl602_iot_sdk/components/bl602/bl602_std/bl602_std/StdDriver/Inc/bl602_hbn.h"
	.file 8 "/home/chandu/sdk/bl602_iot_sdk/components/bl602/bl602_std/bl602_std/StdDriver/Inc/bl602_glb.h"
	.file 9 "/home/chandu/sdk/bl602_iot_sdk/components/hal_drv/bl602_hal/bl_uart.h"
	.file 10 "/home/chandu/sdk/bl602_iot_sdk/components/hal_drv/bl602_hal/bl_irq.h"
	.section	.note.GNU-stack,"",@progbits
