	.file	"bl_wifi.c"
	.option nopic
	.attribute arch, "rv32i2p1_m2p0_f2p2_c2p0_zicsr2p0_zmmul1p0_zca1p0_zcf1p0"
	.attribute unaligned_access, 0
	.attribute stack_align, 16
	.text
.Ltext0:
	.cfi_sections	.debug_frame
	.file 0 "/home/chandu/sdk/bl602_iot_sdk/customer_app/suas_app_pqkem_gateway/build_out/hal_drv" "/home/chandu/sdk/bl602_iot_sdk/components/hal_drv/bl602_hal/bl_wifi.c"
	.globl	wifi_env
	.section	.bss.wifi_env,"aw",@nobits
	.align	2
	.type	wifi_env, @object
	.size	wifi_env, 225
wifi_env:
	.zero	225
	.section	.text.bl_wifi_clock_enable,"ax",@progbits
	.align	1
	.globl	bl_wifi_clock_enable
	.type	bl_wifi_clock_enable, @function
bl_wifi_clock_enable:
.LFB8:
	.file 1 "/home/chandu/sdk/bl602_iot_sdk/components/hal_drv/bl602_hal/bl_wifi.c"
	.loc 1 57 1
	.cfi_startproc
	addi	sp,sp,-16
	.cfi_def_cfa_offset 16
	sw	ra,12(sp)
	sw	s0,8(sp)
	.cfi_offset 1, -4
	.cfi_offset 8, -8
	addi	s0,sp,16
	.cfi_def_cfa 8, 0
	.loc 1 59 11
	lui	a5,%hi(called.0)
	lw	a5,%lo(called.0)(a5)
	.loc 1 59 8
	bne	a5,zero,.L2
	.loc 1 60 16
	lui	a5,%hi(called.0)
	li	a4,1
	sw	a4,%lo(called.0)(a5)
.L2:
	.loc 1 64 12
	li	a5,0
	.loc 1 65 1
	mv	a0,a5
	lw	ra,12(sp)
	.cfi_restore 1
	lw	s0,8(sp)
	.cfi_restore 8
	.cfi_def_cfa 2, 16
	addi	sp,sp,16
	.cfi_def_cfa_offset 0
	jr	ra
	.cfi_endproc
.LFE8:
	.size	bl_wifi_clock_enable, .-bl_wifi_clock_enable
	.section	.rodata
	.align	2
.LC0:
	.string	"Enable BMX IRQ\r\n"
	.section	.text.bl_wifi_enable_irq,"ax",@progbits
	.align	1
	.globl	bl_wifi_enable_irq
	.type	bl_wifi_enable_irq, @function
bl_wifi_enable_irq:
.LFB9:
	.loc 1 71 1
	.cfi_startproc
	addi	sp,sp,-16
	.cfi_def_cfa_offset 16
	sw	ra,12(sp)
	sw	s0,8(sp)
	.cfi_offset 1, -4
	.cfi_offset 8, -8
	addi	s0,sp,16
	.cfi_def_cfa 8, 0
	.loc 1 72 5
	lui	a5,%hi(mac_irq)
	addi	a1,a5,%lo(mac_irq)
	li	a0,70
	call	bl_irq_register
	.loc 1 73 5
	lui	a5,%hi(bl_irq_handler)
	addi	a1,a5,%lo(bl_irq_handler)
	li	a0,79
	call	bl_irq_register
	.loc 1 74 5
	li	a0,70
	call	bl_irq_enable
	.loc 1 75 5
	li	a0,79
	call	bl_irq_enable
	.loc 1 79 5
	lui	a5,%hi(.LC0)
	addi	a0,a5,%lo(.LC0)
	call	puts
	.loc 1 87 12
	li	a5,0
	.loc 1 88 1
	mv	a0,a5
	lw	ra,12(sp)
	.cfi_restore 1
	lw	s0,8(sp)
	.cfi_restore 8
	.cfi_def_cfa 2, 16
	addi	sp,sp,16
	.cfi_def_cfa_offset 0
	jr	ra
	.cfi_endproc
.LFE9:
	.size	bl_wifi_enable_irq, .-bl_wifi_enable_irq
	.section	.text.bl_wifi_sta_mac_addr_set,"ax",@progbits
	.align	1
	.globl	bl_wifi_sta_mac_addr_set
	.type	bl_wifi_sta_mac_addr_set, @function
bl_wifi_sta_mac_addr_set:
.LFB10:
	.loc 1 92 1
	.cfi_startproc
	addi	sp,sp,-32
	.cfi_def_cfa_offset 32
	sw	ra,28(sp)
	sw	s0,24(sp)
	.cfi_offset 1, -4
	.cfi_offset 8, -8
	addi	s0,sp,32
	.cfi_def_cfa 8, 0
	sw	a0,-20(s0)
	.loc 1 93 5
	li	a2,6
	lw	a1,-20(s0)
	lui	a5,%hi(wifi_env)
	addi	a0,a5,%lo(wifi_env)
	call	memcpy
	.loc 1 94 12
	li	a5,0
	.loc 1 95 1
	mv	a0,a5
	lw	ra,28(sp)
	.cfi_restore 1
	lw	s0,24(sp)
	.cfi_restore 8
	.cfi_def_cfa 2, 32
	addi	sp,sp,32
	.cfi_def_cfa_offset 0
	jr	ra
	.cfi_endproc
.LFE10:
	.size	bl_wifi_sta_mac_addr_set, .-bl_wifi_sta_mac_addr_set
	.section	.text.bl_wifi_ap_mac_addr_set,"ax",@progbits
	.align	1
	.globl	bl_wifi_ap_mac_addr_set
	.type	bl_wifi_ap_mac_addr_set, @function
bl_wifi_ap_mac_addr_set:
.LFB11:
	.loc 1 98 1
	.cfi_startproc
	addi	sp,sp,-32
	.cfi_def_cfa_offset 32
	sw	ra,28(sp)
	sw	s0,24(sp)
	.cfi_offset 1, -4
	.cfi_offset 8, -8
	addi	s0,sp,32
	.cfi_def_cfa 8, 0
	sw	a0,-20(s0)
	.loc 1 99 5
	li	a2,6
	lw	a1,-20(s0)
	lui	a5,%hi(wifi_env+12)
	addi	a0,a5,%lo(wifi_env+12)
	call	memcpy
	.loc 1 100 12
	li	a5,0
	.loc 1 101 1
	mv	a0,a5
	lw	ra,28(sp)
	.cfi_restore 1
	lw	s0,24(sp)
	.cfi_restore 8
	.cfi_def_cfa 2, 32
	addi	sp,sp,32
	.cfi_def_cfa_offset 0
	jr	ra
	.cfi_endproc
.LFE11:
	.size	bl_wifi_ap_mac_addr_set, .-bl_wifi_ap_mac_addr_set
	.section	.text.bl_wifi_mac_addr_set,"ax",@progbits
	.align	1
	.globl	bl_wifi_mac_addr_set
	.type	bl_wifi_mac_addr_set, @function
bl_wifi_mac_addr_set:
.LFB12:
	.loc 1 104 1
	.cfi_startproc
	addi	sp,sp,-32
	.cfi_def_cfa_offset 32
	sw	ra,28(sp)
	sw	s0,24(sp)
	.cfi_offset 1, -4
	.cfi_offset 8, -8
	addi	s0,sp,32
	.cfi_def_cfa 8, 0
	sw	a0,-20(s0)
	.loc 1 105 5
	li	a2,6
	lw	a1,-20(s0)
	lui	a5,%hi(wifi_env+6)
	addi	a0,a5,%lo(wifi_env+6)
	call	memcpy
	.loc 1 106 12
	li	a5,0
	.loc 1 107 1
	mv	a0,a5
	lw	ra,28(sp)
	.cfi_restore 1
	lw	s0,24(sp)
	.cfi_restore 8
	.cfi_def_cfa 2, 32
	addi	sp,sp,32
	.cfi_def_cfa_offset 0
	jr	ra
	.cfi_endproc
.LFE12:
	.size	bl_wifi_mac_addr_set, .-bl_wifi_mac_addr_set
	.section	.text.bl_wifi_mac_addr_get,"ax",@progbits
	.align	1
	.globl	bl_wifi_mac_addr_get
	.type	bl_wifi_mac_addr_get, @function
bl_wifi_mac_addr_get:
.LFB13:
	.loc 1 110 1
	.cfi_startproc
	addi	sp,sp,-32
	.cfi_def_cfa_offset 32
	sw	ra,28(sp)
	sw	s0,24(sp)
	.cfi_offset 1, -4
	.cfi_offset 8, -8
	addi	s0,sp,32
	.cfi_def_cfa 8, 0
	sw	a0,-20(s0)
	.loc 1 111 5
	li	a2,6
	lui	a5,%hi(wifi_env)
	addi	a1,a5,%lo(wifi_env)
	lw	a0,-20(s0)
	call	memcpy
	.loc 1 112 12
	li	a5,0
	.loc 1 113 1
	mv	a0,a5
	lw	ra,28(sp)
	.cfi_restore 1
	lw	s0,24(sp)
	.cfi_restore 8
	.cfi_def_cfa 2, 32
	addi	sp,sp,32
	.cfi_def_cfa_offset 0
	jr	ra
	.cfi_endproc
.LFE13:
	.size	bl_wifi_mac_addr_get, .-bl_wifi_mac_addr_get
	.section	.text.bl_wifi_country_code_set,"ax",@progbits
	.align	1
	.globl	bl_wifi_country_code_set
	.type	bl_wifi_country_code_set, @function
bl_wifi_country_code_set:
.LFB14:
	.loc 1 117 1
	.cfi_startproc
	addi	sp,sp,-32
	.cfi_def_cfa_offset 32
	sw	ra,28(sp)
	sw	s0,24(sp)
	.cfi_offset 1, -4
	.cfi_offset 8, -8
	addi	s0,sp,32
	.cfi_def_cfa 8, 0
	mv	a5,a0
	sb	a5,-17(s0)
	.loc 1 118 27
	lui	a5,%hi(wifi_env)
	addi	a5,a5,%lo(wifi_env)
	lbu	a4,-17(s0)
	sb	a4,24(a5)
	.loc 1 119 12
	li	a5,0
	.loc 1 120 1
	mv	a0,a5
	lw	ra,28(sp)
	.cfi_restore 1
	lw	s0,24(sp)
	.cfi_restore 8
	.cfi_def_cfa 2, 32
	addi	sp,sp,32
	.cfi_def_cfa_offset 0
	jr	ra
	.cfi_endproc
.LFE14:
	.size	bl_wifi_country_code_set, .-bl_wifi_country_code_set
	.section	.text.bl_wifi_ap_info_set,"ax",@progbits
	.align	1
	.globl	bl_wifi_ap_info_set
	.type	bl_wifi_ap_info_set, @function
bl_wifi_ap_info_set:
.LFB15:
	.loc 1 133 1
	.cfi_startproc
	addi	sp,sp,-32
	.cfi_def_cfa_offset 32
	sw	ra,28(sp)
	sw	s0,24(sp)
	.cfi_offset 1, -4
	.cfi_offset 8, -8
	addi	s0,sp,32
	.cfi_def_cfa 8, 0
	sw	a0,-20(s0)
	mv	a5,a1
	sw	a2,-28(s0)
	sb	a5,-21(s0)
	mv	a5,a3
	sb	a5,-22(s0)
	mv	a5,a4
	sb	a5,-23(s0)
	.loc 1 134 5
	li	a2,99
	li	a1,0
	lui	a5,%hi(wifi_env+25)
	addi	a0,a5,%lo(wifi_env+25)
	call	memset
	.loc 1 135 5
	lbu	a5,-21(s0)
	mv	a2,a5
	lw	a1,-20(s0)
	lui	a5,%hi(wifi_env+25)
	addi	a0,a5,%lo(wifi_env+25)
	call	memcpy
	.loc 1 136 5
	lbu	a5,-22(s0)
	mv	a2,a5
	lw	a1,-28(s0)
	lui	a5,%hi(wifi_env+58)
	addi	a0,a5,%lo(wifi_env+58)
	call	memcpy
	.loc 1 137 27
	lui	a5,%hi(wifi_env)
	addi	a5,a5,%lo(wifi_env)
	lbu	a4,-23(s0)
	sb	a4,123(a5)
	.loc 1 138 25
	lui	a5,%hi(wifi_env)
	addi	a5,a5,%lo(wifi_env)
	li	a4,1
	sb	a4,124(a5)
	.loc 1 139 12
	li	a5,0
	.loc 1 140 1
	mv	a0,a5
	lw	ra,28(sp)
	.cfi_restore 1
	lw	s0,24(sp)
	.cfi_restore 8
	.cfi_def_cfa 2, 32
	addi	sp,sp,32
	.cfi_def_cfa_offset 0
	jr	ra
	.cfi_endproc
.LFE15:
	.size	bl_wifi_ap_info_set, .-bl_wifi_ap_info_set
	.section	.text.bl_wifi_ap_info_get,"ax",@progbits
	.align	1
	.globl	bl_wifi_ap_info_get
	.type	bl_wifi_ap_info_get, @function
bl_wifi_ap_info_get:
.LFB16:
	.loc 1 143 1
	.cfi_startproc
	addi	sp,sp,-32
	.cfi_def_cfa_offset 32
	sw	ra,28(sp)
	sw	s0,24(sp)
	.cfi_offset 1, -4
	.cfi_offset 8, -8
	addi	s0,sp,32
	.cfi_def_cfa 8, 0
	sw	a0,-20(s0)
	.loc 1 144 17
	lui	a5,%hi(wifi_env)
	addi	a5,a5,%lo(wifi_env)
	lbu	a4,124(a5)
	.loc 1 144 8
	li	a5,1
	beq	a4,a5,.L19
	.loc 1 145 16
	li	a5,-1
	j	.L20
.L19:
	.loc 1 147 5
	li	a2,99
	lui	a5,%hi(wifi_env+25)
	addi	a1,a5,%lo(wifi_env+25)
	lw	a0,-20(s0)
	call	memcpy
	.loc 1 148 12
	li	a5,0
.L20:
	.loc 1 149 1
	mv	a0,a5
	lw	ra,28(sp)
	.cfi_restore 1
	lw	s0,24(sp)
	.cfi_restore 8
	.cfi_def_cfa 2, 32
	addi	sp,sp,32
	.cfi_def_cfa_offset 0
	jr	ra
	.cfi_endproc
.LFE16:
	.size	bl_wifi_ap_info_get, .-bl_wifi_ap_info_get
	.section	.text.bl_wifi_sta_info_set,"ax",@progbits
	.align	1
	.globl	bl_wifi_sta_info_set
	.type	bl_wifi_sta_info_set, @function
bl_wifi_sta_info_set:
.LFB17:
	.loc 1 152 1
	.cfi_startproc
	addi	sp,sp,-32
	.cfi_def_cfa_offset 32
	sw	ra,28(sp)
	sw	s0,24(sp)
	.cfi_offset 1, -4
	.cfi_offset 8, -8
	addi	s0,sp,32
	.cfi_def_cfa 8, 0
	sw	a0,-20(s0)
	mv	a5,a1
	sw	a2,-28(s0)
	sw	a4,-32(s0)
	sb	a5,-21(s0)
	mv	a5,a3
	sb	a5,-22(s0)
	.loc 1 153 5
	li	a2,99
	li	a1,0
	lui	a5,%hi(wifi_env+125)
	addi	a0,a5,%lo(wifi_env+125)
	call	memset
	.loc 1 154 5
	lbu	a5,-21(s0)
	mv	a2,a5
	lw	a1,-20(s0)
	lui	a5,%hi(wifi_env+125)
	addi	a0,a5,%lo(wifi_env+125)
	call	memcpy
	.loc 1 155 5
	lbu	a5,-22(s0)
	mv	a2,a5
	lw	a1,-28(s0)
	lui	a5,%hi(wifi_env+158)
	addi	a0,a5,%lo(wifi_env+158)
	call	memcpy
	.loc 1 156 26
	lw	a5,-32(s0)
	andi	a4,a5,0xff
	lui	a5,%hi(wifi_env)
	addi	a5,a5,%lo(wifi_env)
	sb	a4,224(a5)
	.loc 1 157 12
	li	a5,0
	.loc 1 158 1
	mv	a0,a5
	lw	ra,28(sp)
	.cfi_restore 1
	lw	s0,24(sp)
	.cfi_restore 8
	.cfi_def_cfa 2, 32
	addi	sp,sp,32
	.cfi_def_cfa_offset 0
	jr	ra
	.cfi_endproc
.LFE17:
	.size	bl_wifi_sta_info_set, .-bl_wifi_sta_info_set
	.section	.text.bl_wifi_sta_info_get,"ax",@progbits
	.align	1
	.globl	bl_wifi_sta_info_get
	.type	bl_wifi_sta_info_get, @function
bl_wifi_sta_info_get:
.LFB18:
	.loc 1 161 1
	.cfi_startproc
	addi	sp,sp,-32
	.cfi_def_cfa_offset 32
	sw	ra,28(sp)
	sw	s0,24(sp)
	.cfi_offset 1, -4
	.cfi_offset 8, -8
	addi	s0,sp,32
	.cfi_def_cfa 8, 0
	sw	a0,-20(s0)
	.loc 1 162 17
	lui	a5,%hi(wifi_env)
	addi	a5,a5,%lo(wifi_env)
	lbu	a4,224(a5)
	.loc 1 162 8
	li	a5,1
	beq	a4,a5,.L24
	.loc 1 163 16
	li	a5,-1
	j	.L25
.L24:
	.loc 1 165 5
	li	a2,99
	lui	a5,%hi(wifi_env+125)
	addi	a1,a5,%lo(wifi_env+125)
	lw	a0,-20(s0)
	call	memcpy
	.loc 1 166 12
	li	a5,0
.L25:
	.loc 1 167 1
	mv	a0,a5
	lw	ra,28(sp)
	.cfi_restore 1
	lw	s0,24(sp)
	.cfi_restore 8
	.cfi_def_cfa 2, 32
	addi	sp,sp,32
	.cfi_def_cfa_offset 0
	jr	ra
	.cfi_endproc
.LFE18:
	.size	bl_wifi_sta_info_get, .-bl_wifi_sta_info_get
	.section	.sbss.called.0,"aw",@nobits
	.align	2
	.type	called.0, @object
	.size	called.0, 4
called.0:
	.zero	4
	.text
.Letext0:
	.file 2 "/home/chandu/sdk/bl602_iot_sdk/toolchain/compiler/lib/gcc/riscv32-unknown-elf/15.1.0/include/stdint-gcc.h"
	.file 3 "/home/chandu/sdk/bl602_iot_sdk/toolchain/compiler/lib/gcc/riscv32-unknown-elf/15.1.0/include/stddef.h"
	.file 4 "/home/chandu/sdk/bl602_iot_sdk/components/hal_drv/bl602_hal/bl_wifi.h"
	.file 5 "/home/chandu/sdk/bl602_iot_sdk/toolchain/compiler/riscv32-unknown-elf/include/string.h"
	.file 6 "/home/chandu/sdk/bl602_iot_sdk/toolchain/compiler/riscv32-unknown-elf/include/stdio.h"
	.file 7 "/home/chandu/sdk/bl602_iot_sdk/components/hal_drv/bl602_hal/bl_irq.h"
	.file 8 "/home/chandu/sdk/bl602_iot_sdk/components/bl602/bl602_std/bl602_std/Device/Bouffalo/BL602/Peripherals/bl602.h"
	.section	.note.GNU-stack,"",@progbits
