	.file	"hal_hbn.c"
	.option nopic
	.attribute arch, "rv32i2p1_m2p0_f2p2_c2p0_zicsr2p0_zmmul1p0_zca1p0_zcf1p0"
	.attribute unaligned_access, 0
	.attribute stack_align, 16
	.text
.Ltext0:
	.cfi_sections	.debug_frame
	.file 0 "/home/chandu/sdk/bl602_iot_sdk/customer_app/suas_app_pqkem_gateway/build_out/hal_drv" "/home/chandu/sdk/bl602_iot_sdk/components/hal_drv/bl602_hal/hal_hbn.c"
	.section	.sbss.hbn_list,"aw",@nobits
	.align	2
	.type	hbn_list, @object
	.size	hbn_list, 4
hbn_list:
	.zero	4
	.section	.rodata
	.align	2
.LC0:
	.string	"hal_hbn.c"
	.align	2
.LC1:
	.string	"\033[31mERROR \033[0m"
	.align	2
.LC2:
	.string	"[%10u][%s: %s:%4d] malloc error.\r\n"
	.section	.text.ntf_init,"ax",@progbits
	.align	1
	.type	ntf_init, @function
ntf_init:
.LFB23:
	.file 1 "/home/chandu/sdk/bl602_iot_sdk/components/hal_drv/bl602_hal/hal_hbn.c"
	.loc 1 45 1
	.cfi_startproc
	addi	sp,sp,-16
	.cfi_def_cfa_offset 16
	sw	ra,12(sp)
	sw	s0,8(sp)
	.cfi_offset 1, -4
	.cfi_offset 8, -8
	addi	s0,sp,16
	.cfi_def_cfa 8, 0
	.loc 1 46 16
	li	a0,8
	call	pvPortMalloc
	mv	a4,a0
	.loc 1 46 14 discriminator 1
	lui	a5,%hi(hbn_list)
	sw	a4,%lo(hbn_list)(a5)
	.loc 1 47 9
	lui	a5,%hi(hbn_list)
	lw	a5,%lo(hbn_list)(a5)
	.loc 1 47 8
	bne	a5,zero,.L2
.LBB12:
.LBB13:
	.file 2 "/home/chandu/sdk/bl602_iot_sdk/components/freertos/portable/GCC/RISC-V/portmacro.h"
	.loc 2 181 31
	lui	a5,%hi(TrapNetCounter)
	lw	a5,%lo(TrapNetCounter)(a5)
	snez	a5,a5
	andi	a5,a5,0xff
.LBE13:
.LBE12:
	.loc 1 48 16 discriminator 1
	beq	a5,zero,.L4
	.loc 1 48 97 discriminator 2
	call	xTaskGetTickCountFromISR
	mv	a1,a0
	j	.L5
.L4:
	.loc 1 48 126 discriminator 3
	call	xTaskGetTickCount
	mv	a1,a0
.L5:
	.loc 1 48 16 discriminator 7
	li	a4,48
	lui	a5,%hi(.LC0)
	addi	a3,a5,%lo(.LC0)
	lui	a5,%hi(.LC1)
	addi	a2,a5,%lo(.LC1)
	lui	a5,%hi(.LC2)
	addi	a0,a5,%lo(.LC2)
	call	bl_printk
	.loc 1 49 16
	li	a5,-1
	j	.L6
.L2:
	.loc 1 51 5
	lui	a5,%hi(hbn_list)
	lw	a5,%lo(hbn_list)(a5)
	mv	a0,a5
	call	utils_notifier_chain_init
	.loc 1 52 12
	li	a5,0
.L6:
	.loc 1 53 1
	mv	a0,a5
	lw	ra,12(sp)
	.cfi_restore 1
	lw	s0,8(sp)
	.cfi_restore 8
	.cfi_def_cfa 2, 16
	addi	sp,sp,16
	.cfi_def_cfa_offset 0
	jr	ra
	.cfi_endproc
.LFE23:
	.size	ntf_init, .-ntf_init
	.section	.rodata
	.align	2
.LC3:
	.string	"[%10u][%s: %s:%4d] ntfgpio not init.\r\n"
	.section	.text.ntf_reg,"ax",@progbits
	.align	1
	.type	ntf_reg, @function
ntf_reg:
.LFB24:
	.loc 1 56 1
	.cfi_startproc
	addi	sp,sp,-48
	.cfi_def_cfa_offset 48
	sw	ra,44(sp)
	sw	s0,40(sp)
	.cfi_offset 1, -4
	.cfi_offset 8, -8
	addi	s0,sp,48
	.cfi_def_cfa 8, 0
	sw	a0,-36(s0)
	sw	a1,-40(s0)
	.loc 1 57 23
	sw	zero,-20(s0)
	.loc 1 59 9
	lui	a5,%hi(hbn_list)
	lw	a5,%lo(hbn_list)(a5)
	.loc 1 59 8
	bne	a5,zero,.L8
.LBB14:
.LBB15:
	.loc 2 181 31
	lui	a5,%hi(TrapNetCounter)
	lw	a5,%lo(TrapNetCounter)(a5)
	snez	a5,a5
	andi	a5,a5,0xff
.LBE15:
.LBE14:
	.loc 1 60 16 discriminator 1
	beq	a5,zero,.L10
	.loc 1 60 101 discriminator 2
	call	xTaskGetTickCountFromISR
	mv	a1,a0
	j	.L11
.L10:
	.loc 1 60 130 discriminator 3
	call	xTaskGetTickCount
	mv	a1,a0
.L11:
	.loc 1 60 16 discriminator 7
	li	a4,60
	lui	a5,%hi(.LC0)
	addi	a3,a5,%lo(.LC0)
	lui	a5,%hi(.LC1)
	addi	a2,a5,%lo(.LC1)
	lui	a5,%hi(.LC3)
	addi	a0,a5,%lo(.LC3)
	call	bl_printk
	.loc 1 61 16
	li	a5,-1
	j	.L12
.L8:
	.loc 1 63 16
	li	a0,16
	call	pvPortMalloc
	sw	a0,-20(s0)
	.loc 1 64 8
	lw	a5,-20(s0)
	bne	a5,zero,.L13
.LBB16:
.LBB17:
	.loc 2 181 31
	lui	a5,%hi(TrapNetCounter)
	lw	a5,%lo(TrapNetCounter)(a5)
	snez	a5,a5
	andi	a5,a5,0xff
.LBE17:
.LBE16:
	.loc 1 65 16 discriminator 1
	beq	a5,zero,.L15
	.loc 1 65 97 discriminator 2
	call	xTaskGetTickCountFromISR
	mv	a1,a0
	j	.L16
.L15:
	.loc 1 65 126 discriminator 3
	call	xTaskGetTickCount
	mv	a1,a0
.L16:
	.loc 1 65 16 discriminator 7
	li	a4,65
	lui	a5,%hi(.LC0)
	addi	a3,a5,%lo(.LC0)
	lui	a5,%hi(.LC1)
	addi	a2,a5,%lo(.LC1)
	lui	a5,%hi(.LC2)
	addi	a0,a5,%lo(.LC2)
	call	bl_printk
	.loc 1 66 16
	li	a5,-1
	j	.L12
.L13:
	.loc 1 68 18
	lw	a5,-20(s0)
	lw	a4,-36(s0)
	sw	a4,4(a5)
	.loc 1 69 22
	lw	a5,-20(s0)
	lw	a4,-40(s0)
	sw	a4,8(a5)
	.loc 1 71 5
	lui	a5,%hi(hbn_list)
	lw	a5,%lo(hbn_list)(a5)
	lw	a1,-20(s0)
	mv	a0,a5
	call	utils_notifier_chain_register
	.loc 1 73 12
	li	a5,0
.L12:
	.loc 1 74 1
	mv	a0,a5
	lw	ra,44(sp)
	.cfi_restore 1
	lw	s0,40(sp)
	.cfi_restore 8
	.cfi_def_cfa 2, 48
	addi	sp,sp,48
	.cfi_def_cfa_offset 0
	jr	ra
	.cfi_endproc
.LFE24:
	.size	ntf_reg, .-ntf_reg
	.section	.rodata
	.align	2
.LC4:
	.string	"[%10u][%s: %s:%4d] arg error.\r\n"
	.align	2
.LC5:
	.string	"[%10u][%s: %s:%4d] mem error"
	.section	.text.hal_hbn_init,"ax",@progbits
	.align	1
	.globl	hal_hbn_init
	.type	hal_hbn_init, @function
hal_hbn_init:
.LFB25:
	.loc 1 77 1
	.cfi_startproc
	addi	sp,sp,-48
	.cfi_def_cfa_offset 48
	sw	ra,44(sp)
	sw	s0,40(sp)
	.cfi_offset 1, -4
	.cfi_offset 8, -8
	addi	s0,sp,48
	.cfi_def_cfa 8, 0
	sw	a0,-36(s0)
	mv	a5,a1
	sb	a5,-37(s0)
	.loc 1 78 17
	sw	zero,-20(s0)
	.loc 1 80 8
	lbu	a5,-37(s0)
	beq	a5,zero,.L18
	.loc 1 80 28 discriminator 1
	lbu	a4,-37(s0)
	li	a5,128
	bleu	a4,a5,.L19
.L18:
.LBB18:
.LBB19:
	.loc 2 181 31
	lui	a5,%hi(TrapNetCounter)
	lw	a5,%lo(TrapNetCounter)(a5)
	snez	a5,a5
	andi	a5,a5,0xff
.LBE19:
.LBE18:
	.loc 1 81 16 discriminator 1
	beq	a5,zero,.L21
	.loc 1 81 94 discriminator 2
	call	xTaskGetTickCountFromISR
	mv	a1,a0
	j	.L22
.L21:
	.loc 1 81 123 discriminator 3
	call	xTaskGetTickCount
	mv	a1,a0
.L22:
	.loc 1 81 16 discriminator 7
	li	a4,81
	lui	a5,%hi(.LC0)
	addi	a3,a5,%lo(.LC0)
	lui	a5,%hi(.LC1)
	addi	a2,a5,%lo(.LC1)
	lui	a5,%hi(.LC4)
	addi	a0,a5,%lo(.LC4)
	call	bl_printk
	.loc 1 82 16
	li	a5,-1
	j	.L23
.L19:
	.loc 1 84 11
	lbu	a5,-37(s0)
	.loc 1 84 36
	addi	a5,a5,3
	.loc 1 84 11
	mv	a0,a5
	call	pvPortMalloc
	sw	a0,-20(s0)
	.loc 1 85 8
	lw	a5,-20(s0)
	bne	a5,zero,.L24
.LBB20:
.LBB21:
	.loc 2 181 31
	lui	a5,%hi(TrapNetCounter)
	lw	a5,%lo(TrapNetCounter)(a5)
	snez	a5,a5
	andi	a5,a5,0xff
.LBE21:
.LBE20:
	.loc 1 86 16 discriminator 1
	beq	a5,zero,.L26
	.loc 1 86 89 discriminator 2
	call	xTaskGetTickCountFromISR
	mv	a1,a0
	j	.L27
.L26:
	.loc 1 86 118 discriminator 3
	call	xTaskGetTickCount
	mv	a1,a0
.L27:
	.loc 1 86 16 discriminator 7
	li	a4,86
	lui	a5,%hi(.LC0)
	addi	a3,a5,%lo(.LC0)
	lui	a5,%hi(.LC1)
	addi	a2,a5,%lo(.LC1)
	lui	a5,%hi(.LC5)
	addi	a0,a5,%lo(.LC5)
	call	bl_printk
	.loc 1 87 16
	li	a5,-1
	j	.L23
.L24:
	.loc 1 90 17
	lw	a5,-20(s0)
	li	a4,1
	sb	a4,1(a5)
	.loc 1 91 17
	lw	a5,-20(s0)
	lbu	a4,-37(s0)
	sb	a4,0(a5)
	.loc 1 92 15
	lw	a5,-20(s0)
	addi	a5,a5,2
	.loc 1 92 5
	lbu	a4,-37(s0)
	mv	a2,a4
	lw	a1,-36(s0)
	mv	a0,a5
	call	memcpy
	.loc 1 94 9
	lui	a5,%hi(hbn_list)
	lw	a5,%lo(hbn_list)(a5)
	.loc 1 94 8
	bne	a5,zero,.L28
	.loc 1 95 9
	call	ntf_init
.L28:
	.loc 1 98 5
	lw	a1,-20(s0)
	lui	a5,%hi(bl_hbn_enter)
	addi	a0,a5,%lo(bl_hbn_enter)
	call	ntf_reg
	.loc 1 100 12
	li	a5,0
.L23:
	.loc 1 101 1
	mv	a0,a5
	lw	ra,44(sp)
	.cfi_restore 1
	lw	s0,40(sp)
	.cfi_restore 8
	.cfi_def_cfa 2, 48
	addi	sp,sp,48
	.cfi_def_cfa_offset 0
	jr	ra
	.cfi_endproc
.LFE25:
	.size	hal_hbn_init, .-hal_hbn_init
	.section	.text.hal_hbn_enter,"ax",@progbits
	.align	1
	.globl	hal_hbn_enter
	.type	hal_hbn_enter, @function
hal_hbn_enter:
.LFB26:
	.loc 1 104 1
	.cfi_startproc
	addi	sp,sp,-32
	.cfi_def_cfa_offset 32
	sw	ra,28(sp)
	sw	s0,24(sp)
	.cfi_offset 1, -4
	.cfi_offset 8, -8
	addi	s0,sp,32
	.cfi_def_cfa 8, 0
	sw	a0,-20(s0)
	.loc 1 105 5
	lui	a5,%hi(hbn_list)
	lw	a5,%lo(hbn_list)(a5)
	addi	a4,s0,-20
	mv	a1,a4
	mv	a0,a5
	call	utils_notifier_chain_call
	.loc 1 107 12
	li	a5,-1
	.loc 1 108 1
	mv	a0,a5
	lw	ra,28(sp)
	.cfi_restore 1
	lw	s0,24(sp)
	.cfi_restore 8
	.cfi_def_cfa 2, 32
	addi	sp,sp,32
	.cfi_def_cfa_offset 0
	jr	ra
	.cfi_endproc
.LFE26:
	.size	hal_hbn_enter, .-hal_hbn_enter
	.text
.Letext0:
	.file 3 "/home/chandu/sdk/bl602_iot_sdk/toolchain/compiler/lib/gcc/riscv32-unknown-elf/15.1.0/include/stddef.h"
	.file 4 "/home/chandu/sdk/bl602_iot_sdk/toolchain/compiler/lib/gcc/riscv32-unknown-elf/15.1.0/include/stdint-gcc.h"
	.file 5 "/home/chandu/sdk/bl602_iot_sdk/components/hal_drv/bl602_hal/bl_hbn.h"
	.file 6 "/home/chandu/sdk/bl602_iot_sdk/components/utils/include/utils_list.h"
	.file 7 "/home/chandu/sdk/bl602_iot_sdk/components/utils/include/utils_notifier.h"
	.file 8 "/home/chandu/sdk/bl602_iot_sdk/toolchain/compiler/riscv32-unknown-elf/include/string.h"
	.file 9 "/home/chandu/sdk/bl602_iot_sdk/components/freertos/include/task.h"
	.file 10 "/home/chandu/sdk/bl602_iot_sdk/components/freertos/include/portable.h"
	.file 11 "/home/chandu/sdk/bl602_iot_sdk/components/utils/include/utils_log.h"
	.section	.note.GNU-stack,"",@progbits
