	.file	"hal_uart.c"
	.option nopic
	.attribute arch, "rv32i2p1_m2p0_f2p2_c2p0_zicsr2p0_zmmul1p0_zca1p0_zcf1p0"
	.attribute unaligned_access, 0
	.attribute stack_align, 16
	.text
.Ltext0:
	.cfi_sections	.debug_frame
	.file 0 "/home/chandu/sdk/bl602_iot_sdk/customer_app/suas_app_pqkem_gateway/build_out/hal_drv" "/home/chandu/sdk/bl602_iot_sdk/components/hal_drv/bl602_hal/hal_uart.c"
	.section	.text.fdt32_to_cpu,"ax",@progbits
	.align	1
	.type	fdt32_to_cpu, @function
fdt32_to_cpu:
.LFB10:
	.file 1 "/home/chandu/sdk/bl602_iot_sdk/components/stage/blfdt/inc/libfdt_env.h"
	.loc 1 121 1
	.cfi_startproc
	addi	sp,sp,-32
	.cfi_def_cfa_offset 32
	sw	ra,28(sp)
	sw	s0,24(sp)
	.cfi_offset 1, -4
	.cfi_offset 8, -8
	addi	s0,sp,32
	.cfi_def_cfa 8, 0
	sw	a0,-20(s0)
	.loc 1 122 58
	addi	a5,s0,-20
	.loc 1 122 61
	lbu	a5,0(a5)
	.loc 1 122 66
	slli	a4,a5,24
	.loc 1 122 112
	addi	a5,s0,-20
	addi	a5,a5,1
	lbu	a5,0(a5)
	.loc 1 122 117
	slli	a5,a5,16
	.loc 1 122 73
	or	a4,a4,a5
	.loc 1 122 163
	addi	a5,s0,-20
	addi	a5,a5,2
	lbu	a5,0(a5)
	.loc 1 122 168
	slli	a5,a5,8
	.loc 1 122 124
	or	a4,a4,a5
	.loc 1 122 212
	addi	a5,s0,-20
	addi	a5,a5,3
	lbu	a5,0(a5)
	.loc 1 122 12
	or	a5,a4,a5
	.loc 1 123 1
	mv	a0,a5
	lw	ra,28(sp)
	.cfi_restore 1
	lw	s0,24(sp)
	.cfi_restore 8
	.cfi_def_cfa 2, 32
	addi	sp,sp,32
	.cfi_def_cfa_offset 0
	jr	ra
	.cfi_endproc
.LFE10:
	.size	fdt32_to_cpu, .-fdt32_to_cpu
	.section	.sbss.inited,"aw",@nobits
	.type	inited, @object
	.size	inited, 1
inited:
	.zero	1
	.section	.sbss.dev_uart0,"aw",@nobits
	.align	2
	.type	dev_uart0, @object
	.size	dev_uart0, 4
dev_uart0:
	.zero	4
	.section	.sbss.dev_uart1,"aw",@nobits
	.align	2
	.type	dev_uart1, @object
	.size	dev_uart1, 4
dev_uart1:
	.zero	4
	.section	.text.uart_dev_malloc,"ax",@progbits
	.align	1
	.type	uart_dev_malloc, @function
uart_dev_malloc:
.LFB44:
	.file 2 "/home/chandu/sdk/bl602_iot_sdk/components/hal_drv/bl602_hal/hal_uart.c"
	.loc 2 52 1
	.cfi_startproc
	addi	sp,sp,-32
	.cfi_def_cfa_offset 32
	sw	ra,28(sp)
	sw	s0,24(sp)
	sw	s1,20(sp)
	.cfi_offset 1, -4
	.cfi_offset 8, -8
	.cfi_offset 9, -12
	addi	s0,sp,32
	.cfi_def_cfa 8, 0
	sw	a0,-20(s0)
	.loc 2 53 9
	lw	a5,-20(s0)
	lw	a5,0(a5)
	.loc 2 53 8
	beq	a5,zero,.L4
	.loc 2 55 16
	li	a5,-1
	j	.L5
.L4:
	.loc 2 58 13
	li	a0,60
	call	pvPortMalloc
	mv	a4,a0
	.loc 2 58 11 discriminator 1
	lw	a5,-20(s0)
	sw	a4,0(a5)
	.loc 2 59 9
	lw	a5,-20(s0)
	lw	a5,0(a5)
	.loc 2 59 8
	bne	a5,zero,.L6
	.loc 2 61 16
	li	a5,-1
	j	.L5
.L6:
	.loc 2 63 5
	lw	a5,-20(s0)
	lw	a5,0(a5)
	li	a2,60
	li	a1,0
	mv	a0,a5
	call	memset
	.loc 2 65 6
	lw	a5,-20(s0)
	lw	a5,0(a5)
	.loc 2 65 30
	li	a4,2
	sb	a4,52(a5)
	.loc 2 66 6
	lw	a5,-20(s0)
	lw	a5,0(a5)
	.loc 2 66 19
	sw	zero,56(a5)
	.loc 2 67 6
	lw	a5,-20(s0)
	lw	s1,0(a5)
	.loc 2 67 21
	li	a0,4
	call	pvPortMalloc
	mv	a5,a0
	.loc 2 67 19 discriminator 1
	sw	a5,56(s1)
	.loc 2 68 10
	lw	a5,-20(s0)
	lw	a5,0(a5)
	.loc 2 68 16
	lw	a5,56(a5)
	.loc 2 68 8
	bne	a5,zero,.L7
	.loc 2 70 16
	li	a5,-1
	j	.L5
.L7:
	.loc 2 72 13
	lw	a5,-20(s0)
	lw	a5,0(a5)
	.loc 2 72 5
	lw	a5,56(a5)
	li	a2,4
	li	a1,0
	mv	a0,a5
	call	memset
	.loc 2 74 12
	li	a5,0
.L5:
	.loc 2 75 1
	mv	a0,a5
	lw	ra,28(sp)
	.cfi_restore 1
	lw	s0,24(sp)
	.cfi_restore 8
	.cfi_def_cfa 2, 32
	lw	s1,20(sp)
	.cfi_restore 9
	addi	sp,sp,32
	.cfi_def_cfa_offset 0
	jr	ra
	.cfi_endproc
.LFE44:
	.size	uart_dev_malloc, .-uart_dev_malloc
	.section	.text.uart_dev_setdef,"ax",@progbits
	.align	1
	.type	uart_dev_setdef, @function
uart_dev_setdef:
.LFB45:
	.loc 2 78 1
	.cfi_startproc
	addi	sp,sp,-32
	.cfi_def_cfa_offset 32
	sw	ra,28(sp)
	sw	s0,24(sp)
	.cfi_offset 1, -4
	.cfi_offset 8, -8
	addi	s0,sp,32
	.cfi_def_cfa 8, 0
	sw	a0,-20(s0)
	mv	a5,a1
	sb	a5,-21(s0)
	.loc 2 79 9
	lw	a5,-20(s0)
	lw	a5,0(a5)
	.loc 2 79 8
	beq	a5,zero,.L11
	.loc 2 84 6
	lw	a5,-20(s0)
	lw	a5,0(a5)
	.loc 2 84 19
	lbu	a4,-21(s0)
	sb	a4,0(a5)
	.loc 2 85 6
	lw	a5,-20(s0)
	lw	a5,0(a5)
	.loc 2 85 30
	li	a4,2
	sb	a4,52(a5)
	.loc 2 87 6
	lw	a5,-20(s0)
	lw	a5,0(a5)
	.loc 2 87 31
	li	a4,114688
	addi	a4,a4,512
	sw	a4,4(a5)
	.loc 2 88 6
	lw	a5,-20(s0)
	lw	a5,0(a5)
	.loc 2 88 32
	li	a4,3
	sb	a4,8(a5)
	.loc 2 89 6
	lw	a5,-20(s0)
	lw	a5,0(a5)
	.loc 2 89 28
	sb	zero,9(a5)
	.loc 2 90 6
	lw	a5,-20(s0)
	lw	a5,0(a5)
	.loc 2 90 31
	sb	zero,10(a5)
	.loc 2 91 6
	lw	a5,-20(s0)
	lw	a5,0(a5)
	.loc 2 91 34
	sb	zero,11(a5)
	.loc 2 92 6
	lw	a5,-20(s0)
	lw	a5,0(a5)
	.loc 2 92 26
	li	a4,2
	sb	a4,12(a5)
	j	.L8
.L11:
	.loc 2 81 9
	nop
.L8:
	.loc 2 93 1
	lw	ra,28(sp)
	.cfi_restore 1
	lw	s0,24(sp)
	.cfi_restore 8
	.cfi_def_cfa 2, 32
	addi	sp,sp,32
	.cfi_def_cfa_offset 0
	jr	ra
	.cfi_endproc
.LFE45:
	.size	uart_dev_setdef, .-uart_dev_setdef
	.section	.text.dev_uart_init,"ax",@progbits
	.align	1
	.type	dev_uart_init, @function
dev_uart_init:
.LFB46:
	.loc 2 96 1
	.cfi_startproc
	addi	sp,sp,-48
	.cfi_def_cfa_offset 48
	sw	ra,44(sp)
	sw	s0,40(sp)
	.cfi_offset 1, -4
	.cfi_offset 8, -8
	addi	s0,sp,48
	.cfi_def_cfa 8, 0
	mv	a5,a0
	sw	a1,-40(s0)
	sw	a2,-44(s0)
	sw	a3,-48(s0)
	sb	a5,-33(s0)
	.loc 2 97 18
	sw	zero,-20(s0)
	.loc 2 100 8
	lbu	a4,-33(s0)
	li	a5,2
	bgtu	a4,a5,.L13
	.loc 2 100 19 discriminator 1
	lw	a5,-40(s0)
	bne	a5,zero,.L14
.L13:
	.loc 2 102 16
	li	a5,-1
	j	.L15
.L14:
	.loc 2 105 5
	lbu	a5,-33(s0)
	beq	a5,zero,.L16
	li	a4,1
	beq	a5,a4,.L17
	j	.L22
.L16:
	.loc 2 108 18
	lui	a5,%hi(dev_uart0)
	addi	a5,a5,%lo(dev_uart0)
	sw	a5,-20(s0)
	.loc 2 109 11
	j	.L19
.L17:
	.loc 2 112 18
	lui	a5,%hi(dev_uart1)
	addi	a5,a5,%lo(dev_uart1)
	sw	a5,-20(s0)
	.loc 2 113 11
	j	.L19
.L22:
	.loc 2 117 20
	li	a5,-1
	j	.L15
.L19:
	.loc 2 121 9
	lw	a0,-20(s0)
	call	uart_dev_malloc
	mv	a5,a0
	.loc 2 121 8 discriminator 1
	beq	a5,zero,.L20
	.loc 2 122 16
	li	a5,-1
	j	.L15
.L20:
	.loc 2 124 6
	lw	a5,-20(s0)
	lw	a5,0(a5)
	.loc 2 124 26
	lw	a4,-44(s0)
	sw	a4,24(a5)
	.loc 2 125 6
	lw	a5,-20(s0)
	lw	a5,0(a5)
	.loc 2 125 26
	lw	a4,-48(s0)
	sw	a4,28(a5)
	.loc 2 133 5
	lbu	a5,-33(s0)
	mv	a1,a5
	lw	a0,-20(s0)
	call	uart_dev_setdef
	.loc 2 134 11
	lw	a5,-20(s0)
	lw	a5,0(a5)
	mv	a2,a5
	lui	a5,%hi(uart_ops)
	addi	a1,a5,%lo(uart_ops)
	lw	a0,-40(s0)
	call	aos_register_driver
	sw	a0,-24(s0)
	.loc 2 135 8
	lw	a5,-24(s0)
	beq	a5,zero,.L21
	.loc 2 136 16
	lw	a5,-24(s0)
	j	.L15
.L21:
	.loc 2 139 12
	li	a5,0
.L15:
	.loc 2 140 1
	mv	a0,a5
	lw	ra,44(sp)
	.cfi_restore 1
	lw	s0,40(sp)
	.cfi_restore 8
	.cfi_def_cfa 2, 48
	addi	sp,sp,48
	.cfi_def_cfa_offset 0
	jr	ra
	.cfi_endproc
.LFE46:
	.size	dev_uart_init, .-dev_uart_init
	.section	.text.hal_uart_send_trigger,"ax",@progbits
	.align	1
	.globl	hal_uart_send_trigger
	.type	hal_uart_send_trigger, @function
hal_uart_send_trigger:
.LFB47:
	.loc 2 143 1
	.cfi_startproc
	addi	sp,sp,-32
	.cfi_def_cfa_offset 32
	sw	ra,28(sp)
	sw	s0,24(sp)
	.cfi_offset 1, -4
	.cfi_offset 8, -8
	addi	s0,sp,32
	.cfi_def_cfa 8, 0
	sw	a0,-20(s0)
	.loc 2 144 5
	lw	a5,-20(s0)
	lbu	a5,0(a5)
	mv	a0,a5
	call	bl_uart_int_tx_enable
	.loc 2 145 12
	li	a5,0
	.loc 2 146 1
	mv	a0,a5
	lw	ra,28(sp)
	.cfi_restore 1
	lw	s0,24(sp)
	.cfi_restore 8
	.cfi_def_cfa 2, 32
	addi	sp,sp,32
	.cfi_def_cfa_offset 0
	jr	ra
	.cfi_endproc
.LFE47:
	.size	hal_uart_send_trigger, .-hal_uart_send_trigger
	.section	.text.hal_uart_send_trigger_off,"ax",@progbits
	.align	1
	.globl	hal_uart_send_trigger_off
	.type	hal_uart_send_trigger_off, @function
hal_uart_send_trigger_off:
.LFB48:
	.loc 2 149 1
	.cfi_startproc
	addi	sp,sp,-32
	.cfi_def_cfa_offset 32
	sw	ra,28(sp)
	sw	s0,24(sp)
	.cfi_offset 1, -4
	.cfi_offset 8, -8
	addi	s0,sp,32
	.cfi_def_cfa 8, 0
	sw	a0,-20(s0)
	.loc 2 150 5
	lw	a5,-20(s0)
	lbu	a5,0(a5)
	mv	a0,a5
	call	bl_uart_int_tx_disable
	.loc 2 151 12
	li	a5,0
	.loc 2 152 1
	mv	a0,a5
	lw	ra,28(sp)
	.cfi_restore 1
	lw	s0,24(sp)
	.cfi_restore 8
	.cfi_def_cfa 2, 32
	addi	sp,sp,32
	.cfi_def_cfa_offset 0
	jr	ra
	.cfi_endproc
.LFE48:
	.size	hal_uart_send_trigger_off, .-hal_uart_send_trigger_off
	.section	.text.hal_uart_init,"ax",@progbits
	.align	1
	.globl	hal_uart_init
	.type	hal_uart_init, @function
hal_uart_init:
.LFB49:
	.loc 2 155 1
	.cfi_startproc
	addi	sp,sp,-48
	.cfi_def_cfa_offset 48
	sw	ra,44(sp)
	sw	s0,40(sp)
	.cfi_offset 1, -4
	.cfi_offset 8, -8
	addi	s0,sp,48
	.cfi_def_cfa 8, 0
	sw	a0,-36(s0)
	.loc 2 159 10
	lw	a5,-36(s0)
	lw	a5,56(a5)
	sw	a5,-20(s0)
	.loc 2 160 9
	lw	a5,-20(s0)
	mv	a0,a5
	call	aos_mutex_new
	mv	a5,a0
	.loc 2 160 8 discriminator 1
	beq	a5,zero,.L28
	.loc 2 162 16
	li	a5,-1
	j	.L33
.L28:
	.loc 2 165 5
	lw	a5,-36(s0)
	lbu	a5,0(a5)
	addi	a4,s0,-21
	mv	a1,a4
	mv	a0,a5
	call	bl_uart_getdefconfig
	.loc 2 167 16
	lbu	a5,-21(s0)
	.loc 2 167 8
	bne	a5,zero,.L30
	.loc 2 168 29
	lw	a5,-36(s0)
	sb	zero,9(a5)
	j	.L31
.L30:
	.loc 2 169 23
	lbu	a4,-21(s0)
	.loc 2 169 15
	li	a5,1
	bne	a4,a5,.L32
	.loc 2 170 29
	lw	a5,-36(s0)
	li	a4,1
	sb	a4,9(a5)
	j	.L31
.L32:
	.loc 2 172 29
	lw	a5,-36(s0)
	li	a4,2
	sb	a4,9(a5)
.L31:
	.loc 2 175 5
	lw	a5,-36(s0)
	lbu	a5,0(a5)
	mv	a0,a5
	call	bl_uart_int_enable
	.loc 2 177 12
	li	a5,0
.L33:
	.loc 2 178 1
	mv	a0,a5
	lw	ra,44(sp)
	.cfi_restore 1
	lw	s0,40(sp)
	.cfi_restore 8
	.cfi_def_cfa 2, 48
	addi	sp,sp,48
	.cfi_def_cfa_offset 0
	jr	ra
	.cfi_endproc
.LFE49:
	.size	hal_uart_init, .-hal_uart_init
	.section	.text.hal_uart_recv_II,"ax",@progbits
	.align	1
	.globl	hal_uart_recv_II
	.type	hal_uart_recv_II, @function
hal_uart_recv_II:
.LFB50:
	.loc 2 181 1
	.cfi_startproc
	addi	sp,sp,-64
	.cfi_def_cfa_offset 64
	sw	ra,60(sp)
	sw	s0,56(sp)
	.cfi_offset 1, -4
	.cfi_offset 8, -8
	addi	s0,sp,64
	.cfi_def_cfa 8, 0
	sw	a0,-36(s0)
	sw	a1,-40(s0)
	sw	a2,-44(s0)
	sw	a3,-48(s0)
	sw	a4,-52(s0)
	.loc 2 183 14
	sw	zero,-20(s0)
	.loc 2 185 11
	j	.L35
.L37:
	.loc 2 186 25
	lw	a4,-40(s0)
	lw	a5,-20(s0)
	add	a5,a4,a5
	.loc 2 186 35
	lw	a4,-24(s0)
	andi	a4,a4,0xff
	sb	a4,0(a5)
	.loc 2 187 16
	lw	a5,-20(s0)
	addi	a5,a5,1
	sw	a5,-20(s0)
.L35:
	.loc 2 185 34
	lw	a4,-20(s0)
	lw	a5,-44(s0)
	bgeu	a4,a5,.L36
	.loc 2 185 43 discriminator 1
	lw	a5,-36(s0)
	lbu	a5,0(a5)
	mv	a0,a5
	call	bl_uart_data_recv
	sw	a0,-24(s0)
	.loc 2 185 34 discriminator 2
	lw	a5,-24(s0)
	bge	a5,zero,.L37
.L36:
	.loc 2 190 16
	lw	a5,-48(s0)
	lw	a4,-20(s0)
	sw	a4,0(a5)
	.loc 2 191 12
	li	a5,0
	.loc 2 192 1
	mv	a0,a5
	lw	ra,60(sp)
	.cfi_restore 1
	lw	s0,56(sp)
	.cfi_restore 8
	.cfi_def_cfa 2, 64
	addi	sp,sp,64
	.cfi_def_cfa_offset 0
	jr	ra
	.cfi_endproc
.LFE50:
	.size	hal_uart_recv_II, .-hal_uart_recv_II
	.section	.text.hal_uart_send,"ax",@progbits
	.align	1
	.globl	hal_uart_send
	.type	hal_uart_send, @function
hal_uart_send:
.LFB51:
	.loc 2 195 1
	.cfi_startproc
	addi	sp,sp,-48
	.cfi_def_cfa_offset 48
	sw	ra,44(sp)
	sw	s0,40(sp)
	.cfi_offset 1, -4
	.cfi_offset 8, -8
	addi	s0,sp,48
	.cfi_def_cfa 8, 0
	sw	a0,-36(s0)
	sw	a1,-40(s0)
	sw	a2,-44(s0)
	sw	a3,-48(s0)
	.loc 2 196 14
	sw	zero,-20(s0)
	.loc 2 198 11
	j	.L40
.L41:
	.loc 2 199 9
	lw	a5,-36(s0)
	lbu	a3,0(a5)
	.loc 2 199 55
	lw	a4,-40(s0)
	lw	a5,-20(s0)
	add	a5,a4,a5
	.loc 2 199 9
	lbu	a5,0(a5)
	mv	a1,a5
	mv	a0,a3
	call	bl_uart_data_send
	.loc 2 200 10
	lw	a5,-20(s0)
	addi	a5,a5,1
	sw	a5,-20(s0)
.L40:
	.loc 2 198 14
	lw	a4,-20(s0)
	lw	a5,-44(s0)
	bltu	a4,a5,.L41
	.loc 2 202 12
	li	a5,0
	.loc 2 203 1
	mv	a0,a5
	lw	ra,44(sp)
	.cfi_restore 1
	lw	s0,40(sp)
	.cfi_restore 8
	.cfi_def_cfa 2, 48
	addi	sp,sp,48
	.cfi_def_cfa_offset 0
	jr	ra
	.cfi_endproc
.LFE51:
	.size	hal_uart_send, .-hal_uart_send
	.section	.text.hal_uart_finalize,"ax",@progbits
	.align	1
	.globl	hal_uart_finalize
	.type	hal_uart_finalize, @function
hal_uart_finalize:
.LFB52:
	.loc 2 206 1
	.cfi_startproc
	addi	sp,sp,-48
	.cfi_def_cfa_offset 48
	sw	ra,44(sp)
	sw	s0,40(sp)
	.cfi_offset 1, -4
	.cfi_offset 8, -8
	addi	s0,sp,48
	.cfi_def_cfa 8, 0
	sw	a0,-36(s0)
	.loc 2 209 10
	lw	a5,-36(s0)
	lw	a5,56(a5)
	sw	a5,-20(s0)
	.loc 2 210 5
	lw	a5,-36(s0)
	lbu	a5,0(a5)
	mv	a0,a5
	call	bl_uart_int_disable
	.loc 2 211 5
	lw	a5,-20(s0)
	mv	a0,a5
	call	aos_mutex_free
	.loc 2 212 12
	li	a5,0
	.loc 2 213 1
	mv	a0,a5
	lw	ra,44(sp)
	.cfi_restore 1
	lw	s0,40(sp)
	.cfi_restore 8
	.cfi_def_cfa 2, 48
	addi	sp,sp,48
	.cfi_def_cfa_offset 0
	jr	ra
	.cfi_endproc
.LFE52:
	.size	hal_uart_finalize, .-hal_uart_finalize
	.section	.text.hal_uart_notify_register,"ax",@progbits
	.align	1
	.globl	hal_uart_notify_register
	.type	hal_uart_notify_register, @function
hal_uart_notify_register:
.LFB53:
	.loc 2 217 1
	.cfi_startproc
	addi	sp,sp,-32
	.cfi_def_cfa_offset 32
	sw	ra,28(sp)
	sw	s0,24(sp)
	.cfi_offset 1, -4
	.cfi_offset 8, -8
	addi	s0,sp,32
	.cfi_def_cfa 8, 0
	sw	a0,-20(s0)
	mv	a5,a1
	sw	a2,-28(s0)
	sb	a5,-21(s0)
	.loc 2 218 8
	lbu	a5,-21(s0)
	bne	a5,zero,.L46
	.loc 2 219 9
	lw	a5,-20(s0)
	lbu	a5,0(a5)
	lw	a2,-20(s0)
	lw	a1,-28(s0)
	mv	a0,a5
	call	bl_uart_int_tx_notify_register
	j	.L47
.L46:
	.loc 2 220 15
	lbu	a4,-21(s0)
	li	a5,1
	bne	a4,a5,.L48
	.loc 2 221 9
	lw	a5,-20(s0)
	lbu	a5,0(a5)
	lw	a2,-20(s0)
	lw	a1,-28(s0)
	mv	a0,a5
	call	bl_uart_int_rx_notify_register
	j	.L47
.L48:
	.loc 2 223 16
	li	a5,-1
	j	.L49
.L47:
	.loc 2 226 12
	li	a5,0
.L49:
	.loc 2 227 1
	mv	a0,a5
	lw	ra,28(sp)
	.cfi_restore 1
	lw	s0,24(sp)
	.cfi_restore 8
	.cfi_def_cfa 2, 32
	addi	sp,sp,32
	.cfi_def_cfa_offset 0
	jr	ra
	.cfi_endproc
.LFE53:
	.size	hal_uart_notify_register, .-hal_uart_notify_register
	.section	.text.hal_uart_notify_unregister,"ax",@progbits
	.align	1
	.globl	hal_uart_notify_unregister
	.type	hal_uart_notify_unregister, @function
hal_uart_notify_unregister:
.LFB54:
	.loc 2 230 1
	.cfi_startproc
	addi	sp,sp,-32
	.cfi_def_cfa_offset 32
	sw	ra,28(sp)
	sw	s0,24(sp)
	.cfi_offset 1, -4
	.cfi_offset 8, -8
	addi	s0,sp,32
	.cfi_def_cfa 8, 0
	sw	a0,-20(s0)
	mv	a5,a1
	sw	a2,-28(s0)
	sb	a5,-21(s0)
	.loc 2 231 8
	lbu	a5,-21(s0)
	bne	a5,zero,.L51
	.loc 2 232 9
	lw	a5,-20(s0)
	lbu	a5,0(a5)
	lw	a2,-20(s0)
	lw	a1,-28(s0)
	mv	a0,a5
	call	bl_uart_int_tx_notify_unregister
	j	.L52
.L51:
	.loc 2 233 15
	lbu	a4,-21(s0)
	li	a5,1
	bne	a4,a5,.L53
	.loc 2 234 9
	lw	a5,-20(s0)
	lbu	a5,0(a5)
	lw	a2,-20(s0)
	lw	a1,-28(s0)
	mv	a0,a5
	call	bl_uart_int_rx_notify_unregister
	j	.L52
.L53:
	.loc 2 236 16
	li	a5,-1
	j	.L54
.L52:
	.loc 2 239 12
	li	a5,0
.L54:
	.loc 2 240 1
	mv	a0,a5
	lw	ra,28(sp)
	.cfi_restore 1
	lw	s0,24(sp)
	.cfi_restore 8
	.cfi_def_cfa 2, 32
	addi	sp,sp,32
	.cfi_def_cfa_offset 0
	jr	ra
	.cfi_endproc
.LFE54:
	.size	hal_uart_notify_unregister, .-hal_uart_notify_unregister
	.section	.rodata
	.align	2
.LC5:
	.string	"uart@4000A000"
	.align	2
.LC6:
	.string	"uart@4000A100"
	.align	2
.LC8:
	.string	"status"
	.align	2
.LC9:
	.string	"okay"
	.align	2
.LC10:
	.string	"path"
	.align	2
.LC11:
	.string	"baudrate"
	.align	2
.LC12:
	.string	"id"
	.align	2
.LC13:
	.string	"buf_size"
	.align	2
.LC14:
	.string	"rx_size"
	.align	2
.LC15:
	.string	"tx_size"
	.align	2
.LC16:
	.string	"feature"
	.align	2
.LC17:
	.string	"pin"
	.align	2
.LC0:
	.string	"tx"
	.align	2
.LC1:
	.string	"rx"
	.align	2
.LC2:
	.string	"cts"
	.align	2
.LC3:
	.string	"rts"
	.align	2
.LC7:
	.word	.LC0
	.word	.LC0
	.byte	-1
	.zero	3
	.word	.LC1
	.word	.LC1
	.byte	-1
	.zero	3
	.word	.LC2
	.word	.LC2
	.byte	-1
	.zero	3
	.word	.LC3
	.word	.LC3
	.byte	-1
	.zero	3
	.section	.text.fdt_uart_module_init,"ax",@progbits
	.align	1
	.type	fdt_uart_module_init, @function
fdt_uart_module_init:
.LFB55:
	.loc 2 247 1
	.cfi_startproc
	addi	sp,sp,-144
	.cfi_def_cfa_offset 144
	sw	ra,140(sp)
	sw	s0,136(sp)
	.cfi_offset 1, -4
	.cfi_offset 8, -8
	addi	s0,sp,144
	.cfi_def_cfa 8, 0
	sw	a0,-132(s0)
	sw	a1,-136(s0)
	.loc 2 251 9
	sw	zero,-36(s0)
	.loc 2 252 9
	sw	zero,-40(s0)
	.loc 2 254 21
	sw	zero,-44(s0)
	.loc 2 255 9
	sw	zero,-68(s0)
	.loc 2 256 17
	sw	zero,-48(s0)
	.loc 2 257 9
	sw	zero,-52(s0)
	.loc 2 262 11
	sw	zero,-56(s0)
	.loc 2 265 17
	lui	a5,%hi(.LC5)
	addi	a5,a5,%lo(.LC5)
	sw	a5,-76(s0)
	lui	a5,%hi(.LC6)
	addi	a5,a5,%lo(.LC6)
	sw	a5,-72(s0)
	.loc 2 274 7
	lui	a5,%hi(.LC7)
	addi	a5,a5,%lo(.LC7)
	lw	t5,0(a5)
	lw	t4,4(a5)
	lw	t3,8(a5)
	lw	t1,12(a5)
	lw	a7,16(a5)
	lw	a6,20(a5)
	lw	a0,24(a5)
	lw	a1,28(a5)
	lw	a2,32(a5)
	lw	a3,36(a5)
	lw	a4,40(a5)
	sw	t5,-124(s0)
	sw	t4,-120(s0)
	sw	t3,-116(s0)
	sw	t1,-112(s0)
	sw	a7,-108(s0)
	sw	a6,-104(s0)
	sw	a0,-100(s0)
	sw	a1,-96(s0)
	sw	a2,-92(s0)
	sw	a3,-88(s0)
	sw	a4,-84(s0)
	lw	a5,44(a5)
	sw	a5,-80(s0)
	.loc 2 297 12
	sw	zero,-20(s0)
	.loc 2 297 5
	j	.L56
.L80:
	.loc 2 298 19
	lw	a4,-20(s0)
	addi	a5,s0,-76
	slli	a4,a4,2
	add	a5,a4,a5
	lw	a5,0(a5)
	mv	a2,a5
	lw	a1,-136(s0)
	lw	a0,-132(s0)
	call	fdt_subnode_offset
	sw	a0,-36(s0)
	.loc 2 299 12
	lw	a5,-36(s0)
	ble	a5,zero,.L81
	.loc 2 304 22
	lui	a5,%hi(.LC8)
	addi	a2,a5,%lo(.LC8)
	lw	a1,-36(s0)
	lw	a0,-132(s0)
	call	fdt_stringlist_count
	sw	a0,-52(s0)
	.loc 2 305 12
	lw	a4,-52(s0)
	li	a5,1
	bne	a4,a5,.L82
	.loc 2 309 18
	addi	a5,s0,-68
	mv	a4,a5
	li	a3,0
	lui	a5,%hi(.LC8)
	addi	a2,a5,%lo(.LC8)
	lw	a1,-36(s0)
	lw	a0,-132(s0)
	call	fdt_stringlist_get
	sw	a0,-48(s0)
	.loc 2 310 21
	lw	a4,-68(s0)
	.loc 2 310 12
	li	a5,4
	bne	a4,a5,.L83
	.loc 2 310 31 discriminator 2
	li	a2,4
	lw	a1,-48(s0)
	lui	a5,%hi(.LC9)
	addi	a0,a5,%lo(.LC9)
	call	memcmp
	mv	a5,a0
	.loc 2 310 27 discriminator 3
	bne	a5,zero,.L83
	.loc 2 316 22
	lui	a5,%hi(.LC10)
	addi	a2,a5,%lo(.LC10)
	lw	a1,-36(s0)
	lw	a0,-132(s0)
	call	fdt_stringlist_count
	sw	a0,-52(s0)
	.loc 2 317 12
	lw	a4,-52(s0)
	li	a5,1
	bne	a4,a5,.L84
	.loc 2 321 18
	addi	a5,s0,-68
	mv	a4,a5
	li	a3,0
	lui	a5,%hi(.LC10)
	addi	a2,a5,%lo(.LC10)
	lw	a1,-36(s0)
	lw	a0,-132(s0)
	call	fdt_stringlist_get
	sw	a0,-48(s0)
	.loc 2 326 14
	lw	a5,-48(s0)
	sw	a5,-56(s0)
	.loc 2 329 21
	addi	a5,s0,-68
	mv	a3,a5
	lui	a5,%hi(.LC11)
	addi	a2,a5,%lo(.LC11)
	lw	a1,-36(s0)
	lw	a0,-132(s0)
	call	fdt_getprop
	sw	a0,-44(s0)
	.loc 2 330 12
	lw	a5,-44(s0)
	beq	a5,zero,.L85
	.loc 2 334 31
	lw	a5,-44(s0)
	lw	a5,0(a5)
	mv	a0,a5
	call	fdt32_to_cpu
	sw	a0,-60(s0)
	.loc 2 337 21
	addi	a5,s0,-68
	mv	a3,a5
	lui	a5,%hi(.LC12)
	addi	a2,a5,%lo(.LC12)
	lw	a1,-36(s0)
	lw	a0,-132(s0)
	call	fdt_getprop
	sw	a0,-44(s0)
	.loc 2 338 12
	lw	a5,-44(s0)
	beq	a5,zero,.L86
	.loc 2 342 24
	lw	a5,-44(s0)
	lw	a5,0(a5)
	mv	a0,a5
	call	fdt32_to_cpu
	mv	a5,a0
	.loc 2 342 12 discriminator 1
	sb	a5,-61(s0)
	.loc 2 345 19
	lui	a5,%hi(.LC13)
	addi	a2,a5,%lo(.LC13)
	lw	a1,-36(s0)
	lw	a0,-132(s0)
	call	fdt_subnode_offset
	sw	a0,-40(s0)
	.loc 2 346 12
	lw	a5,-40(s0)
	bgt	a5,zero,.L66
	.loc 2 348 25
	li	a5,512
	sw	a5,-28(s0)
	.loc 2 349 25
	li	a5,512
	sw	a5,-32(s0)
	j	.L67
.L66:
	.loc 2 351 25
	addi	a5,s0,-68
	mv	a3,a5
	lui	a5,%hi(.LC14)
	addi	a2,a5,%lo(.LC14)
	lw	a1,-40(s0)
	lw	a0,-132(s0)
	call	fdt_getprop
	sw	a0,-44(s0)
	.loc 2 352 16
	lw	a5,-44(s0)
	beq	a5,zero,.L87
	.loc 2 356 38
	lw	a5,-44(s0)
	lw	a5,0(a5)
	mv	a0,a5
	call	fdt32_to_cpu
	sw	a0,-28(s0)
	.loc 2 357 25
	addi	a5,s0,-68
	mv	a3,a5
	lui	a5,%hi(.LC15)
	addi	a2,a5,%lo(.LC15)
	lw	a1,-40(s0)
	lw	a0,-132(s0)
	call	fdt_getprop
	sw	a0,-44(s0)
	.loc 2 358 16
	lw	a5,-44(s0)
	beq	a5,zero,.L88
	.loc 2 362 38
	lw	a5,-44(s0)
	lw	a5,0(a5)
	mv	a0,a5
	call	fdt32_to_cpu
	sw	a0,-32(s0)
.L67:
	.loc 2 366 16
	sw	zero,-24(s0)
	.loc 2 366 9
	j	.L70
.L79:
	.loc 2 367 23
	lui	a5,%hi(.LC16)
	addi	a2,a5,%lo(.LC16)
	lw	a1,-36(s0)
	lw	a0,-132(s0)
	call	fdt_subnode_offset
	sw	a0,-40(s0)
	.loc 2 368 16
	lw	a5,-40(s0)
	ble	a5,zero,.L89
	.loc 2 372 75
	lw	a4,-24(s0)
	mv	a5,a4
	slli	a5,a5,1
	add	a5,a5,a4
	slli	a5,a5,2
	addi	a5,a5,-16
	add	a5,a5,s0
	lw	a5,-108(a5)
	.loc 2 372 26
	mv	a2,a5
	lw	a1,-40(s0)
	lw	a0,-132(s0)
	call	fdt_stringlist_count
	sw	a0,-52(s0)
	.loc 2 373 16
	lw	a4,-52(s0)
	li	a5,1
	bne	a4,a5,.L90
	.loc 2 377 69
	lw	a4,-24(s0)
	mv	a5,a4
	slli	a5,a5,1
	add	a5,a5,a4
	slli	a5,a5,2
	addi	a5,a5,-16
	add	a5,a5,s0
	lw	a5,-108(a5)
	.loc 2 377 22
	addi	a4,s0,-68
	li	a3,0
	mv	a2,a5
	lw	a1,-40(s0)
	lw	a0,-132(s0)
	call	fdt_stringlist_get
	sw	a0,-48(s0)
	.loc 2 378 25
	lw	a4,-68(s0)
	.loc 2 378 16
	li	a5,4
	bne	a4,a5,.L91
	.loc 2 378 35 discriminator 2
	li	a2,4
	lw	a1,-48(s0)
	lui	a5,%hi(.LC9)
	addi	a0,a5,%lo(.LC9)
	call	memcmp
	mv	a5,a0
	.loc 2 378 31 discriminator 3
	bne	a5,zero,.L91
	.loc 2 384 23
	lui	a5,%hi(.LC17)
	addi	a2,a5,%lo(.LC17)
	lw	a1,-36(s0)
	lw	a0,-132(s0)
	call	fdt_subnode_offset
	sw	a0,-40(s0)
	.loc 2 385 16
	lw	a5,-40(s0)
	ble	a5,zero,.L92
	.loc 2 389 65
	lw	a4,-24(s0)
	mv	a5,a4
	slli	a5,a5,1
	add	a5,a5,a4
	slli	a5,a5,2
	addi	a5,a5,-16
	add	a5,a5,s0
	lw	a5,-104(a5)
	.loc 2 389 25
	addi	a4,s0,-68
	mv	a3,a4
	mv	a2,a5
	lw	a1,-40(s0)
	lw	a0,-132(s0)
	call	fdt_getprop
	sw	a0,-44(s0)
	.loc 2 390 16
	lw	a5,-44(s0)
	beq	a5,zero,.L93
	.loc 2 394 46
	lw	a5,-44(s0)
	lw	a5,0(a5)
	mv	a0,a5
	call	fdt32_to_cpu
	mv	a5,a0
	.loc 2 394 37 discriminator 1
	andi	a3,a5,0xff
	.loc 2 394 34 discriminator 1
	lw	a4,-24(s0)
	mv	a5,a4
	slli	a5,a5,1
	add	a5,a5,a4
	slli	a5,a5,2
	addi	a5,a5,-16
	add	a5,a5,s0
	sb	a3,-100(a5)
	j	.L72
.L89:
	.loc 2 370 17
	nop
	j	.L72
.L90:
	.loc 2 375 17
	nop
	j	.L72
.L91:
	.loc 2 380 17
	nop
	j	.L72
.L93:
	.loc 2 392 17
	nop
.L72:
	.loc 2 366 29 discriminator 2
	lw	a5,-24(s0)
	addi	a5,a5,1
	sw	a5,-24(s0)
.L70:
	.loc 2 366 23 discriminator 1
	lw	a4,-24(s0)
	li	a5,3
	ble	a4,a5,.L79
	j	.L77
.L92:
	.loc 2 387 17
	nop
.L77:
	.loc 2 405 9
	lbu	a5,-61(s0)
	mv	a0,a5
	call	bl_uart_flush
	.loc 2 407 9
	lbu	a1,-116(s0)
	lbu	a2,-104(s0)
	lbu	a3,-92(s0)
	lbu	a4,-80(s0)
	lbu	a0,-61(s0)
	lw	a5,-60(s0)
	call	bl_uart_init
	.loc 2 413 13
	lbu	a5,-61(s0)
	lw	a3,-32(s0)
	lw	a2,-28(s0)
	lw	a1,-56(s0)
	mv	a0,a5
	call	dev_uart_init
	j	.L58
.L81:
	.loc 2 301 13
	nop
	j	.L58
.L82:
	.loc 2 307 13
	nop
	j	.L58
.L83:
	.loc 2 312 13
	nop
	j	.L58
.L84:
	.loc 2 319 13
	nop
	j	.L58
.L85:
	.loc 2 332 13
	nop
	j	.L58
.L86:
	.loc 2 340 13
	nop
	j	.L58
.L87:
	.loc 2 354 17
	nop
	j	.L58
.L88:
	.loc 2 360 17
	nop
.L58:
	.loc 2 297 25 discriminator 2
	lw	a5,-20(s0)
	addi	a5,a5,1
	sw	a5,-20(s0)
.L56:
	.loc 2 297 19 discriminator 1
	lw	a4,-20(s0)
	li	a5,1
	ble	a4,a5,.L80
	.loc 2 419 1
	nop
	nop
	lw	ra,140(sp)
	.cfi_restore 1
	lw	s0,136(sp)
	.cfi_restore 8
	.cfi_def_cfa 2, 144
	addi	sp,sp,144
	.cfi_def_cfa_offset 0
	jr	ra
	.cfi_endproc
.LFE55:
	.size	fdt_uart_module_init, .-fdt_uart_module_init
	.section	.text.vfs_uart_init_simple_mode,"ax",@progbits
	.align	1
	.globl	vfs_uart_init_simple_mode
	.type	vfs_uart_init_simple_mode, @function
vfs_uart_init_simple_mode:
.LFB56:
	.loc 2 422 1
	.cfi_startproc
	addi	sp,sp,-32
	.cfi_def_cfa_offset 32
	sw	ra,28(sp)
	sw	s0,24(sp)
	.cfi_offset 1, -4
	.cfi_offset 8, -8
	addi	s0,sp,32
	.cfi_def_cfa 8, 0
	mv	a5,a0
	sw	a3,-24(s0)
	sw	a4,-28(s0)
	sb	a5,-17(s0)
	mv	a5,a1
	sb	a5,-18(s0)
	mv	a5,a2
	sb	a5,-19(s0)
	.loc 2 423 5
	lbu	a5,-17(s0)
	mv	a0,a5
	call	bl_uart_flush
	.loc 2 425 5
	lw	a5,-24(s0)
	lbu	a2,-19(s0)
	lbu	a1,-18(s0)
	lbu	a0,-17(s0)
	li	a4,255
	li	a3,255
	call	bl_uart_init
	.loc 2 427 9
	lbu	a5,-17(s0)
	li	a3,128
	li	a2,128
	lw	a1,-28(s0)
	mv	a0,a5
	call	dev_uart_init
	.loc 2 431 12
	li	a5,0
	.loc 2 432 1
	mv	a0,a5
	lw	ra,28(sp)
	.cfi_restore 1
	lw	s0,24(sp)
	.cfi_restore 8
	.cfi_def_cfa 2, 32
	addi	sp,sp,32
	.cfi_def_cfa_offset 0
	jr	ra
	.cfi_endproc
.LFE56:
	.size	vfs_uart_init_simple_mode, .-vfs_uart_init_simple_mode
	.section	.text.vfs_uart_init,"ax",@progbits
	.align	1
	.globl	vfs_uart_init
	.type	vfs_uart_init, @function
vfs_uart_init:
.LFB57:
	.loc 2 435 1
	.cfi_startproc
	addi	sp,sp,-32
	.cfi_def_cfa_offset 32
	sw	ra,28(sp)
	sw	s0,24(sp)
	.cfi_offset 1, -4
	.cfi_offset 8, -8
	addi	s0,sp,32
	.cfi_def_cfa 8, 0
	sw	a0,-20(s0)
	sw	a1,-24(s0)
	.loc 2 436 16
	lui	a5,%hi(inited)
	lb	a4,%lo(inited)(a5)
	.loc 2 436 8
	li	a5,1
	bne	a4,a5,.L97
	.loc 2 437 16
	li	a5,0
	j	.L98
.L97:
	.loc 2 440 5
	lw	a5,-20(s0)
	lw	a4,-24(s0)
	mv	a1,a4
	mv	a0,a5
	call	fdt_uart_module_init
	.loc 2 442 12
	lui	a5,%hi(inited)
	li	a4,1
	sb	a4,%lo(inited)(a5)
	.loc 2 444 12
	li	a5,0
.L98:
	.loc 2 445 1
	mv	a0,a5
	lw	ra,28(sp)
	.cfi_restore 1
	lw	s0,24(sp)
	.cfi_restore 8
	.cfi_def_cfa 2, 32
	addi	sp,sp,32
	.cfi_def_cfa_offset 0
	jr	ra
	.cfi_endproc
.LFE57:
	.size	vfs_uart_init, .-vfs_uart_init
	.section	.text.hal_uart_send_flush,"ax",@progbits
	.align	1
	.globl	hal_uart_send_flush
	.type	hal_uart_send_flush, @function
hal_uart_send_flush:
.LFB58:
	.loc 2 448 1
	.cfi_startproc
	addi	sp,sp,-32
	.cfi_def_cfa_offset 32
	sw	ra,28(sp)
	sw	s0,24(sp)
	.cfi_offset 1, -4
	.cfi_offset 8, -8
	addi	s0,sp,32
	.cfi_def_cfa 8, 0
	sw	a0,-20(s0)
	sw	a1,-24(s0)
	.loc 2 449 5
	lw	a5,-20(s0)
	lbu	a5,0(a5)
	mv	a0,a5
	call	bl_uart_flush
	.loc 2 450 12
	li	a5,0
	.loc 2 451 1
	mv	a0,a5
	lw	ra,28(sp)
	.cfi_restore 1
	lw	s0,24(sp)
	.cfi_restore 8
	.cfi_def_cfa 2, 32
	addi	sp,sp,32
	.cfi_def_cfa_offset 0
	jr	ra
	.cfi_endproc
.LFE58:
	.size	hal_uart_send_flush, .-hal_uart_send_flush
	.section	.text.hal_uart_setbaud,"ax",@progbits
	.align	1
	.globl	hal_uart_setbaud
	.type	hal_uart_setbaud, @function
hal_uart_setbaud:
.LFB59:
	.loc 2 454 1
	.cfi_startproc
	addi	sp,sp,-32
	.cfi_def_cfa_offset 32
	sw	ra,28(sp)
	sw	s0,24(sp)
	.cfi_offset 1, -4
	.cfi_offset 8, -8
	addi	s0,sp,32
	.cfi_def_cfa 8, 0
	sw	a0,-20(s0)
	sw	a1,-24(s0)
	.loc 2 455 5
	lw	a5,-20(s0)
	lbu	a5,0(a5)
	lw	a1,-24(s0)
	mv	a0,a5
	call	bl_uart_setbaud
	.loc 2 456 1
	nop
	lw	ra,28(sp)
	.cfi_restore 1
	lw	s0,24(sp)
	.cfi_restore 8
	.cfi_def_cfa 2, 32
	addi	sp,sp,32
	.cfi_def_cfa_offset 0
	jr	ra
	.cfi_endproc
.LFE59:
	.size	hal_uart_setbaud, .-hal_uart_setbaud
	.section	.text.hal_uart_setconfig,"ax",@progbits
	.align	1
	.globl	hal_uart_setconfig
	.type	hal_uart_setconfig, @function
hal_uart_setconfig:
.LFB60:
	.loc 2 459 1
	.cfi_startproc
	addi	sp,sp,-32
	.cfi_def_cfa_offset 32
	sw	ra,28(sp)
	sw	s0,24(sp)
	.cfi_offset 1, -4
	.cfi_offset 8, -8
	addi	s0,sp,32
	.cfi_def_cfa 8, 0
	sw	a0,-20(s0)
	sw	a1,-24(s0)
	mv	a5,a2
	sb	a5,-25(s0)
	.loc 2 460 5
	lw	a5,-20(s0)
	lbu	a5,0(a5)
	lbu	a4,-25(s0)
	mv	a2,a4
	lw	a1,-24(s0)
	mv	a0,a5
	call	bl_uart_setconfig
	.loc 2 461 1
	nop
	lw	ra,28(sp)
	.cfi_restore 1
	lw	s0,24(sp)
	.cfi_restore 8
	.cfi_def_cfa 2, 32
	addi	sp,sp,32
	.cfi_def_cfa_offset 0
	jr	ra
	.cfi_endproc
.LFE60:
	.size	hal_uart_setconfig, .-hal_uart_setconfig
	.text
.Letext0:
	.file 3 "/home/chandu/sdk/bl602_iot_sdk/toolchain/compiler/lib/gcc/riscv32-unknown-elf/15.1.0/include/stdint-gcc.h"
	.file 4 "/home/chandu/sdk/bl602_iot_sdk/toolchain/compiler/riscv32-unknown-elf/include/machine/_default_types.h"
	.file 5 "/home/chandu/sdk/bl602_iot_sdk/toolchain/compiler/lib/gcc/riscv32-unknown-elf/15.1.0/include/stddef.h"
	.file 6 "/home/chandu/sdk/bl602_iot_sdk/toolchain/compiler/riscv32-unknown-elf/include/sys/_types.h"
	.file 7 "/home/chandu/sdk/bl602_iot_sdk/toolchain/compiler/riscv32-unknown-elf/include/sys/_timeval.h"
	.file 8 "/home/chandu/sdk/bl602_iot_sdk/toolchain/compiler/riscv32-unknown-elf/include/sys/_timespec.h"
	.file 9 "/home/chandu/sdk/bl602_iot_sdk/toolchain/compiler/riscv32-unknown-elf/include/sys/types.h"
	.file 10 "/home/chandu/sdk/bl602_iot_sdk/toolchain/compiler/riscv32-unknown-elf/include/sys/stat.h"
	.file 11 "/home/chandu/sdk/bl602_iot_sdk/components/fs/vfs/include/vfs_dir.h"
	.file 12 "/home/chandu/sdk/bl602_iot_sdk/components/fs/vfs/include/vfs_inode.h"
	.file 13 "/home/chandu/sdk/bl602_iot_sdk/components/fs/vfs/include/hal/soc/uart.h"
	.file 14 "/home/chandu/sdk/bl602_iot_sdk/components/stage/yloop/include/aos/kernel.h"
	.file 15 "/home/chandu/sdk/bl602_iot_sdk/components/bl602/bl602_std/bl602_std/StdDriver/Inc/bl602_uart.h"
	.file 16 "/home/chandu/sdk/bl602_iot_sdk/components/hal_drv/bl602_hal/bl_uart.h"
	.file 17 "/home/chandu/sdk/bl602_iot_sdk/components/stage/blfdt/inc/libfdt.h"
	.file 18 "/home/chandu/sdk/bl602_iot_sdk/toolchain/compiler/riscv32-unknown-elf/include/string.h"
	.file 19 "/home/chandu/sdk/bl602_iot_sdk/components/fs/vfs/include/vfs_register.h"
	.file 20 "/home/chandu/sdk/bl602_iot_sdk/components/freertos/include/portable.h"
	.file 21 "/home/chandu/sdk/bl602_iot_sdk/components/fs/vfs/include/device/vfs_uart.h"
	.section	.note.GNU-stack,"",@progbits
