	.file	"hal_pwm.c"
	.option nopic
	.attribute arch, "rv32i2p1_m2p0_f2p2_c2p0_zicsr2p0_zmmul1p0_zca1p0_zcf1p0"
	.attribute unaligned_access, 0
	.attribute stack_align, 16
	.text
.Ltext0:
	.cfi_sections	.debug_frame
	.file 0 "/home/chandu/sdk/bl602_iot_sdk/customer_app/suas_app_pqkem_gateway/build_out/hal_drv" "/home/chandu/sdk/bl602_iot_sdk/components/hal_drv/bl602_hal/hal_pwm.c"
	.section	.text.utils_list_is_empty,"ax",@progbits
	.align	1
	.type	utils_list_is_empty, @function
utils_list_is_empty:
.LFB0:
	.file 1 "/home/chandu/sdk/bl602_iot_sdk/components/utils/include/utils_list.h"
	.loc 1 221 1
	.cfi_startproc
	addi	sp,sp,-32
	.cfi_def_cfa_offset 32
	sw	ra,28(sp)
	sw	s0,24(sp)
	.cfi_offset 1, -4
	.cfi_offset 8, -8
	addi	s0,sp,32
	.cfi_def_cfa 8, 0
	sw	a0,-20(s0)
	.loc 1 222 24
	lw	a5,-20(s0)
	lw	a5,0(a5)
	.loc 1 222 17
	seqz	a5,a5
	andi	a5,a5,0xff
	.loc 1 223 1
	mv	a0,a5
	lw	ra,28(sp)
	.cfi_restore 1
	lw	s0,24(sp)
	.cfi_restore 8
	.cfi_def_cfa 2, 32
	addi	sp,sp,32
	.cfi_def_cfa_offset 0
	jr	ra
	.cfi_endproc
.LFE0:
	.size	utils_list_is_empty, .-utils_list_is_empty
	.section	.text.fdt32_to_cpu,"ax",@progbits
	.align	1
	.type	fdt32_to_cpu, @function
fdt32_to_cpu:
.LFB28:
	.file 2 "/home/chandu/sdk/bl602_iot_sdk/components/stage/blfdt/inc/libfdt_env.h"
	.loc 2 121 1
	.cfi_startproc
	addi	sp,sp,-32
	.cfi_def_cfa_offset 32
	sw	ra,28(sp)
	sw	s0,24(sp)
	.cfi_offset 1, -4
	.cfi_offset 8, -8
	addi	s0,sp,32
	.cfi_def_cfa 8, 0
	sw	a0,-20(s0)
	.loc 2 122 58
	addi	a5,s0,-20
	.loc 2 122 61
	lbu	a5,0(a5)
	.loc 2 122 66
	slli	a4,a5,24
	.loc 2 122 112
	addi	a5,s0,-20
	addi	a5,a5,1
	lbu	a5,0(a5)
	.loc 2 122 117
	slli	a5,a5,16
	.loc 2 122 73
	or	a4,a4,a5
	.loc 2 122 163
	addi	a5,s0,-20
	addi	a5,a5,2
	lbu	a5,0(a5)
	.loc 2 122 168
	slli	a5,a5,8
	.loc 2 122 124
	or	a4,a4,a5
	.loc 2 122 212
	addi	a5,s0,-20
	addi	a5,a5,3
	lbu	a5,0(a5)
	.loc 2 122 12
	or	a5,a4,a5
	.loc 2 123 1
	mv	a0,a5
	lw	ra,28(sp)
	.cfi_restore 1
	lw	s0,24(sp)
	.cfi_restore 8
	.cfi_def_cfa 2, 32
	addi	sp,sp,32
	.cfi_def_cfa_offset 0
	jr	ra
	.cfi_endproc
.LFE28:
	.size	fdt32_to_cpu, .-fdt32_to_cpu
	.section	.sbss.__g_init_flag,"aw",@nobits
	.type	__g_init_flag, @object
	.size	__g_init_flag, 1
__g_init_flag:
	.zero	1
	.section	.bss.__g_pwm_dev,"aw",@nobits
	.align	2
	.type	__g_pwm_dev, @object
	.size	__g_pwm_dev, 120
__g_pwm_dev:
	.zero	120
	.section	.sbss.inited,"aw",@nobits
	.type	inited, @object
	.size	inited, 1
inited:
	.zero	1
	.section	.sbss.dev_pwm0,"aw",@nobits
	.align	2
	.type	dev_pwm0, @object
	.size	dev_pwm0, 4
dev_pwm0:
	.zero	4
	.section	.sbss.dev_pwm1,"aw",@nobits
	.align	2
	.type	dev_pwm1, @object
	.size	dev_pwm1, 4
dev_pwm1:
	.zero	4
	.section	.sbss.dev_pwm2,"aw",@nobits
	.align	2
	.type	dev_pwm2, @object
	.size	dev_pwm2, 4
dev_pwm2:
	.zero	4
	.section	.sbss.dev_pwm3,"aw",@nobits
	.align	2
	.type	dev_pwm3, @object
	.size	dev_pwm3, 4
dev_pwm3:
	.zero	4
	.section	.sbss.dev_pwm4,"aw",@nobits
	.align	2
	.type	dev_pwm4, @object
	.size	dev_pwm4, 4
dev_pwm4:
	.zero	4
	.section	.rodata
	.align	2
.LC6:
	.string	"hal_pwm.c"
	.align	2
.LC7:
	.string	"\033[31mERROR \033[0m"
	.align	2
.LC8:
	.string	"[%10u][%s: %s:%4d] arg err.\r\n"
	.align	2
.LC9:
	.string	"[%10u][%s: %s:%4d] mem err.\r\n"
	.section	.text.pwm_dev_malloc,"ax",@progbits
	.align	1
	.type	pwm_dev_malloc, @function
pwm_dev_malloc:
.LFB62:
	.file 3 "/home/chandu/sdk/bl602_iot_sdk/components/hal_drv/bl602_hal/hal_pwm.c"
	.loc 3 65 1
	.cfi_startproc
	addi	sp,sp,-32
	.cfi_def_cfa_offset 32
	sw	ra,28(sp)
	sw	s0,24(sp)
	sw	s1,20(sp)
	.cfi_offset 1, -4
	.cfi_offset 8, -8
	.cfi_offset 9, -12
	addi	s0,sp,32
	.cfi_def_cfa 8, 0
	sw	a0,-20(s0)
	.loc 3 66 9
	lw	a5,-20(s0)
	lw	a5,0(a5)
	.loc 3 66 8
	beq	a5,zero,.L6
.LBB36:
.LBB37:
	.file 4 "/home/chandu/sdk/bl602_iot_sdk/components/freertos/portable/GCC/RISC-V/portmacro.h"
	.loc 4 181 31
	lui	a5,%hi(TrapNetCounter)
	lw	a5,%lo(TrapNetCounter)(a5)
	snez	a5,a5
	andi	a5,a5,0xff
.LBE37:
.LBE36:
	.loc 3 67 16 discriminator 1
	beq	a5,zero,.L8
	.loc 3 67 92 discriminator 2
	call	xTaskGetTickCountFromISR
	mv	a1,a0
	j	.L9
.L8:
	.loc 3 67 121 discriminator 3
	call	xTaskGetTickCount
	mv	a1,a0
.L9:
	.loc 3 67 16 discriminator 7
	li	a4,67
	lui	a5,%hi(.LC6)
	addi	a3,a5,%lo(.LC6)
	lui	a5,%hi(.LC7)
	addi	a2,a5,%lo(.LC7)
	lui	a5,%hi(.LC8)
	addi	a0,a5,%lo(.LC8)
	call	bl_printk
	.loc 3 68 16
	li	a5,-1
	j	.L10
.L6:
	.loc 3 71 13
	li	a0,16
	call	pvPortMalloc
	mv	a4,a0
	.loc 3 71 11 discriminator 1
	lw	a5,-20(s0)
	sw	a4,0(a5)
	.loc 3 72 9
	lw	a5,-20(s0)
	lw	a5,0(a5)
	.loc 3 72 8
	bne	a5,zero,.L11
.LBB38:
.LBB39:
	.loc 4 181 31
	lui	a5,%hi(TrapNetCounter)
	lw	a5,%lo(TrapNetCounter)(a5)
	snez	a5,a5
	andi	a5,a5,0xff
.LBE39:
.LBE38:
	.loc 3 73 16 discriminator 1
	beq	a5,zero,.L13
	.loc 3 73 92 discriminator 2
	call	xTaskGetTickCountFromISR
	mv	a1,a0
	j	.L14
.L13:
	.loc 3 73 121 discriminator 3
	call	xTaskGetTickCount
	mv	a1,a0
.L14:
	.loc 3 73 16 discriminator 7
	li	a4,73
	lui	a5,%hi(.LC6)
	addi	a3,a5,%lo(.LC6)
	lui	a5,%hi(.LC7)
	addi	a2,a5,%lo(.LC7)
	lui	a5,%hi(.LC9)
	addi	a0,a5,%lo(.LC9)
	call	bl_printk
	.loc 3 74 16
	li	a5,-1
	j	.L10
.L11:
	.loc 3 77 6
	lw	a5,-20(s0)
	lw	a5,0(a5)
	.loc 3 77 19
	sw	zero,12(a5)
	.loc 3 78 6
	lw	a5,-20(s0)
	lw	s1,0(a5)
	.loc 3 78 21
	li	a0,4
	call	pvPortMalloc
	mv	a5,a0
	.loc 3 78 19 discriminator 1
	sw	a5,12(s1)
	.loc 3 79 10
	lw	a5,-20(s0)
	lw	a5,0(a5)
	.loc 3 79 16
	lw	a5,12(a5)
	.loc 3 79 8
	bne	a5,zero,.L15
.LBB40:
.LBB41:
	.loc 4 181 31
	lui	a5,%hi(TrapNetCounter)
	lw	a5,%lo(TrapNetCounter)(a5)
	snez	a5,a5
	andi	a5,a5,0xff
.LBE41:
.LBE40:
	.loc 3 80 16 discriminator 1
	beq	a5,zero,.L17
	.loc 3 80 92 discriminator 2
	call	xTaskGetTickCountFromISR
	mv	a1,a0
	j	.L18
.L17:
	.loc 3 80 121 discriminator 3
	call	xTaskGetTickCount
	mv	a1,a0
.L18:
	.loc 3 80 16 discriminator 7
	li	a4,80
	lui	a5,%hi(.LC6)
	addi	a3,a5,%lo(.LC6)
	lui	a5,%hi(.LC7)
	addi	a2,a5,%lo(.LC7)
	lui	a5,%hi(.LC9)
	addi	a0,a5,%lo(.LC9)
	call	bl_printk
	.loc 3 81 16
	li	a5,-1
	j	.L10
.L15:
	.loc 3 84 12
	li	a5,0
.L10:
	.loc 3 85 1
	mv	a0,a5
	lw	ra,28(sp)
	.cfi_restore 1
	lw	s0,24(sp)
	.cfi_restore 8
	.cfi_def_cfa 2, 32
	lw	s1,20(sp)
	.cfi_restore 9
	addi	sp,sp,32
	.cfi_def_cfa_offset 0
	jr	ra
	.cfi_endproc
.LFE62:
	.size	pwm_dev_malloc, .-pwm_dev_malloc
	.section	.text.pwm_dev_setdef,"ax",@progbits
	.align	1
	.type	pwm_dev_setdef, @function
pwm_dev_setdef:
.LFB63:
	.loc 3 88 1
	.cfi_startproc
	addi	sp,sp,-32
	.cfi_def_cfa_offset 32
	sw	ra,28(sp)
	sw	s0,24(sp)
	.cfi_offset 1, -4
	.cfi_offset 8, -8
	addi	s0,sp,32
	.cfi_def_cfa 8, 0
	sw	a0,-20(s0)
	mv	a5,a1
	sb	a5,-21(s0)
	.loc 3 89 9
	lw	a5,-20(s0)
	lw	a5,0(a5)
	.loc 3 89 8
	bne	a5,zero,.L20
.LBB42:
.LBB43:
	.loc 4 181 31
	lui	a5,%hi(TrapNetCounter)
	lw	a5,%lo(TrapNetCounter)(a5)
	snez	a5,a5
	andi	a5,a5,0xff
.LBE43:
.LBE42:
	.loc 3 90 16 discriminator 1
	beq	a5,zero,.L22
	.loc 3 90 92 discriminator 2
	call	xTaskGetTickCountFromISR
	mv	a1,a0
	j	.L23
.L22:
	.loc 3 90 121 discriminator 3
	call	xTaskGetTickCount
	mv	a1,a0
.L23:
	.loc 3 90 16 discriminator 7
	li	a4,90
	lui	a5,%hi(.LC6)
	addi	a3,a5,%lo(.LC6)
	lui	a5,%hi(.LC7)
	addi	a2,a5,%lo(.LC7)
	lui	a5,%hi(.LC9)
	addi	a0,a5,%lo(.LC9)
	call	bl_printk
	.loc 3 91 9
	j	.L19
.L20:
	.loc 3 94 6
	lw	a5,-20(s0)
	lw	a5,0(a5)
	.loc 3 94 19
	lbu	a4,-21(s0)
	sb	a4,0(a5)
.L19:
	.loc 3 95 1
	lw	ra,28(sp)
	.cfi_restore 1
	lw	s0,24(sp)
	.cfi_restore 8
	.cfi_def_cfa 2, 32
	addi	sp,sp,32
	.cfi_def_cfa_offset 0
	jr	ra
	.cfi_endproc
.LFE63:
	.size	pwm_dev_setdef, .-pwm_dev_setdef
	.section	.rodata
	.align	2
.LC10:
	.string	"[%10u][%s: %s:%4d] err.\r\n"
	.section	.text.dev_pwm_init,"ax",@progbits
	.align	1
	.type	dev_pwm_init, @function
dev_pwm_init:
.LFB64:
	.loc 3 98 1
	.cfi_startproc
	addi	sp,sp,-48
	.cfi_def_cfa_offset 48
	sw	ra,44(sp)
	sw	s0,40(sp)
	.cfi_offset 1, -4
	.cfi_offset 8, -8
	addi	s0,sp,48
	.cfi_def_cfa 8, 0
	mv	a5,a0
	sw	a1,-40(s0)
	sb	a5,-33(s0)
	.loc 3 99 17
	sw	zero,-20(s0)
	.loc 3 102 8
	lbu	a4,-33(s0)
	li	a5,2
	bgtu	a4,a5,.L26
	.loc 3 102 19 discriminator 1
	lw	a5,-40(s0)
	bne	a5,zero,.L27
.L26:
.LBB44:
.LBB45:
	.loc 4 181 31
	lui	a5,%hi(TrapNetCounter)
	lw	a5,%lo(TrapNetCounter)(a5)
	snez	a5,a5
	andi	a5,a5,0xff
.LBE45:
.LBE44:
	.loc 3 103 16 discriminator 1
	beq	a5,zero,.L29
	.loc 3 103 92 discriminator 2
	call	xTaskGetTickCountFromISR
	mv	a1,a0
	j	.L30
.L29:
	.loc 3 103 121 discriminator 3
	call	xTaskGetTickCount
	mv	a1,a0
.L30:
	.loc 3 103 16 discriminator 7
	li	a4,103
	lui	a5,%hi(.LC6)
	addi	a3,a5,%lo(.LC6)
	lui	a5,%hi(.LC7)
	addi	a2,a5,%lo(.LC7)
	lui	a5,%hi(.LC8)
	addi	a0,a5,%lo(.LC8)
	call	bl_printk
	.loc 3 104 16
	li	a5,-1
	j	.L31
.L27:
	.loc 3 107 5
	lbu	a5,-33(s0)
	li	a4,4
	beq	a5,a4,.L32
	li	a4,4
	bgt	a5,a4,.L33
	li	a4,3
	beq	a5,a4,.L34
	li	a4,3
	bgt	a5,a4,.L33
	li	a4,2
	beq	a5,a4,.L35
	li	a4,2
	bgt	a5,a4,.L33
	beq	a5,zero,.L36
	li	a4,1
	beq	a5,a4,.L37
	j	.L33
.L36:
	.loc 3 110 18
	lui	a5,%hi(dev_pwm0)
	addi	a5,a5,%lo(dev_pwm0)
	sw	a5,-20(s0)
	.loc 3 111 11
	j	.L38
.L37:
	.loc 3 114 18
	lui	a5,%hi(dev_pwm1)
	addi	a5,a5,%lo(dev_pwm1)
	sw	a5,-20(s0)
	.loc 3 115 11
	j	.L38
.L35:
	.loc 3 118 18
	lui	a5,%hi(dev_pwm2)
	addi	a5,a5,%lo(dev_pwm2)
	sw	a5,-20(s0)
	.loc 3 119 11
	j	.L38
.L34:
	.loc 3 122 18
	lui	a5,%hi(dev_pwm3)
	addi	a5,a5,%lo(dev_pwm3)
	sw	a5,-20(s0)
	.loc 3 123 11
	j	.L38
.L32:
	.loc 3 126 18
	lui	a5,%hi(dev_pwm4)
	addi	a5,a5,%lo(dev_pwm4)
	sw	a5,-20(s0)
	.loc 3 127 11
	j	.L38
.L33:
.LBB46:
.LBB47:
	.loc 4 181 31
	lui	a5,%hi(TrapNetCounter)
	lw	a5,%lo(TrapNetCounter)(a5)
	snez	a5,a5
	andi	a5,a5,0xff
.LBE47:
.LBE46:
	.loc 3 130 20 discriminator 1
	beq	a5,zero,.L40
	.loc 3 130 92 discriminator 2
	call	xTaskGetTickCountFromISR
	mv	a1,a0
	j	.L41
.L40:
	.loc 3 130 121 discriminator 3
	call	xTaskGetTickCount
	mv	a1,a0
.L41:
	.loc 3 130 20 discriminator 7
	li	a4,130
	lui	a5,%hi(.LC6)
	addi	a3,a5,%lo(.LC6)
	lui	a5,%hi(.LC7)
	addi	a2,a5,%lo(.LC7)
	lui	a5,%hi(.LC10)
	addi	a0,a5,%lo(.LC10)
	call	bl_printk
	.loc 3 131 20
	li	a5,-1
	j	.L31
.L38:
	.loc 3 135 9
	lw	a0,-20(s0)
	call	pwm_dev_malloc
	mv	a5,a0
	.loc 3 135 8 discriminator 1
	beq	a5,zero,.L42
	.loc 3 136 16
	li	a5,-1
	j	.L31
.L42:
	.loc 3 139 5
	lbu	a5,-33(s0)
	mv	a1,a5
	lw	a0,-20(s0)
	call	pwm_dev_setdef
	.loc 3 140 11
	lw	a5,-20(s0)
	lw	a5,0(a5)
	mv	a2,a5
	lui	a5,%hi(pwm_ops)
	addi	a1,a5,%lo(pwm_ops)
	lw	a0,-40(s0)
	call	aos_register_driver
	sw	a0,-24(s0)
	.loc 3 141 8
	lw	a5,-24(s0)
	beq	a5,zero,.L43
	.loc 3 142 16
	lw	a5,-24(s0)
	j	.L31
.L43:
	.loc 3 145 12
	li	a5,0
.L31:
	.loc 3 146 1
	mv	a0,a5
	lw	ra,44(sp)
	.cfi_restore 1
	lw	s0,40(sp)
	.cfi_restore 8
	.cfi_def_cfa 2, 48
	addi	sp,sp,48
	.cfi_def_cfa_offset 0
	jr	ra
	.cfi_endproc
.LFE64:
	.size	dev_pwm_init, .-dev_pwm_init
	.section	.text.hal_pwm_init_bydev,"ax",@progbits
	.align	1
	.globl	hal_pwm_init_bydev
	.type	hal_pwm_init_bydev, @function
hal_pwm_init_bydev:
.LFB65:
	.loc 3 149 1
	.cfi_startproc
	addi	sp,sp,-48
	.cfi_def_cfa_offset 48
	sw	ra,44(sp)
	sw	s0,40(sp)
	.cfi_offset 1, -4
	.cfi_offset 8, -8
	addi	s0,sp,48
	.cfi_def_cfa 8, 0
	sw	a0,-36(s0)
	.loc 3 152 10
	lw	a5,-36(s0)
	lw	a5,12(a5)
	sw	a5,-20(s0)
	.loc 3 153 9
	lw	a5,-20(s0)
	mv	a0,a5
	call	aos_mutex_new
	mv	a5,a0
	.loc 3 153 8 discriminator 1
	beq	a5,zero,.L45
	.loc 3 155 16
	li	a5,-1
	j	.L46
.L45:
	.loc 3 157 12
	li	a5,0
.L46:
	.loc 3 158 1
	mv	a0,a5
	lw	ra,44(sp)
	.cfi_restore 1
	lw	s0,40(sp)
	.cfi_restore 8
	.cfi_def_cfa 2, 48
	addi	sp,sp,48
	.cfi_def_cfa_offset 0
	jr	ra
	.cfi_endproc
.LFE65:
	.size	hal_pwm_init_bydev, .-hal_pwm_init_bydev
	.section	.text.hal_pwm_finalize_bydev,"ax",@progbits
	.align	1
	.globl	hal_pwm_finalize_bydev
	.type	hal_pwm_finalize_bydev, @function
hal_pwm_finalize_bydev:
.LFB66:
	.loc 3 161 1
	.cfi_startproc
	addi	sp,sp,-48
	.cfi_def_cfa_offset 48
	sw	ra,44(sp)
	sw	s0,40(sp)
	.cfi_offset 1, -4
	.cfi_offset 8, -8
	addi	s0,sp,48
	.cfi_def_cfa 8, 0
	sw	a0,-36(s0)
	.loc 3 164 10
	lw	a5,-36(s0)
	lw	a5,12(a5)
	sw	a5,-20(s0)
	.loc 3 165 5
	lw	a5,-20(s0)
	mv	a0,a5
	call	aos_mutex_free
	.loc 3 167 12
	li	a5,0
	.loc 3 168 1
	mv	a0,a5
	lw	ra,44(sp)
	.cfi_restore 1
	lw	s0,40(sp)
	.cfi_restore 8
	.cfi_def_cfa 2, 48
	addi	sp,sp,48
	.cfi_def_cfa_offset 0
	jr	ra
	.cfi_endproc
.LFE66:
	.size	hal_pwm_finalize_bydev, .-hal_pwm_finalize_bydev
	.section	.rodata
	.align	2
.LC12:
	.string	"\033[32mINFO  \033[0m"
	.align	2
.LC13:
	.string	"[%10u][%s: %s:%4d] pwm[%d] %s NULL.\r\n"
	.align	2
.LC14:
	.string	"status"
	.align	2
.LC15:
	.string	"[%10u][%s: %s:%4d] pwm[%d] status_countindex = %d NULL.\r\n"
	.align	2
.LC16:
	.string	"okay"
	.align	2
.LC17:
	.string	"[%10u][%s: %s:%4d] pwm[%d] status = %s\r\n"
	.align	2
.LC18:
	.string	"path"
	.align	2
.LC19:
	.string	"[%10u][%s: %s:%4d] pwm[%d] path_countindex = %d NULL.\r\n"
	.align	2
.LC20:
	.string	"[%10u][%s: %s:%4d] pwm[%d] path lentmp = %d\r\n"
	.align	2
.LC21:
	.string	"id"
	.align	2
.LC22:
	.string	"[%10u][%s: %s:%4d] pwm[%d] id NULL.\r\n"
	.align	2
.LC23:
	.string	"pin"
	.align	2
.LC24:
	.string	"[%10u][%s: %s:%4d] pwm[%d] pin NULL.\r\n"
	.align	2
.LC25:
	.string	"freq"
	.align	2
.LC26:
	.string	"[%10u][%s: %s:%4d] pwm[%d] freq NULL.\r\n"
	.align	2
.LC27:
	.string	"[%10u][%s: %s:%4d] path = %s, id = %d, pin = %d, freq = %ld\r\n"
	.align	2
.LC28:
	.string	"[%10u][%s: %s:%4d] dev_pwm_init err.\r\n"
	.align	2
.LC0:
	.string	"pwm@4000A420"
	.align	2
.LC1:
	.string	"pwm@4000A440"
	.align	2
.LC2:
	.string	"pwm@4000A460"
	.align	2
.LC3:
	.string	"pwm@4000A480"
	.align	2
.LC4:
	.string	"pwm@4000A4A0"
	.align	2
.LC11:
	.word	.LC0
	.word	.LC1
	.word	.LC2
	.word	.LC3
	.word	.LC4
	.section	.text.fdt_pwm_module_init,"ax",@progbits
	.align	1
	.type	fdt_pwm_module_init, @function
fdt_pwm_module_init:
.LFB67:
	.loc 3 174 1
	.cfi_startproc
	addi	sp,sp,-112
	.cfi_def_cfa_offset 112
	sw	ra,108(sp)
	sw	s0,104(sp)
	.cfi_offset 1, -4
	.cfi_offset 8, -8
	addi	s0,sp,112
	.cfi_def_cfa 8, 0
	sw	a0,-84(s0)
	sw	a1,-88(s0)
	.loc 3 177 9
	sw	zero,-24(s0)
	.loc 3 179 21
	sw	zero,-28(s0)
	.loc 3 180 9
	sw	zero,-52(s0)
	.loc 3 181 17
	sw	zero,-32(s0)
	.loc 3 182 9
	sw	zero,-36(s0)
	.loc 3 186 11
	sw	zero,-40(s0)
	.loc 3 190 17
	lui	a5,%hi(.LC11)
	addi	a5,a5,%lo(.LC11)
	lw	a1,0(a5)
	lw	a2,4(a5)
	lw	a3,8(a5)
	lw	a4,12(a5)
	sw	a1,-72(s0)
	sw	a2,-68(s0)
	sw	a3,-64(s0)
	sw	a4,-60(s0)
	lw	a5,16(a5)
	sw	a5,-56(s0)
	.loc 3 198 12
	sw	zero,-20(s0)
	.loc 3 198 5
	j	.L50
.L92:
	.loc 3 199 19
	lw	a4,-20(s0)
	addi	a5,s0,-72
	slli	a4,a4,2
	add	a5,a4,a5
	lw	a5,0(a5)
	mv	a2,a5
	lw	a1,-88(s0)
	lw	a0,-84(s0)
	call	fdt_subnode_offset
	sw	a0,-24(s0)
	.loc 3 200 12
	lw	a5,-24(s0)
	bgt	a5,zero,.L51
.LBB48:
.LBB49:
	.loc 4 181 31
	lui	a5,%hi(TrapNetCounter)
	lw	a5,%lo(TrapNetCounter)(a5)
	snez	a5,a5
	andi	a5,a5,0xff
.LBE49:
.LBE48:
	.loc 3 201 20 discriminator 1
	beq	a5,zero,.L53
	.loc 3 201 104 discriminator 2
	call	xTaskGetTickCountFromISR
	mv	a1,a0
	j	.L54
.L53:
	.loc 3 201 133 discriminator 3
	call	xTaskGetTickCount
	mv	a1,a0
.L54:
	.loc 3 201 20 discriminator 7
	lw	a4,-20(s0)
	addi	a5,s0,-72
	slli	a4,a4,2
	add	a5,a4,a5
	lw	a5,0(a5)
	mv	a6,a5
	lw	a5,-20(s0)
	li	a4,201
	lui	a3,%hi(.LC6)
	addi	a3,a3,%lo(.LC6)
	lui	a2,%hi(.LC12)
	addi	a2,a2,%lo(.LC12)
	lui	a0,%hi(.LC13)
	addi	a0,a0,%lo(.LC13)
	call	bl_printk
	.loc 3 202 13
	j	.L55
.L51:
	.loc 3 204 22
	lui	a5,%hi(.LC14)
	addi	a2,a5,%lo(.LC14)
	lw	a1,-24(s0)
	lw	a0,-84(s0)
	call	fdt_stringlist_count
	sw	a0,-36(s0)
	.loc 3 205 12
	lw	a4,-36(s0)
	li	a5,1
	beq	a4,a5,.L56
.LBB50:
.LBB51:
	.loc 4 181 31
	lui	a5,%hi(TrapNetCounter)
	lw	a5,%lo(TrapNetCounter)(a5)
	snez	a5,a5
	andi	a5,a5,0xff
.LBE51:
.LBE50:
	.loc 3 206 20 discriminator 1
	beq	a5,zero,.L58
	.loc 3 206 124 discriminator 2
	call	xTaskGetTickCountFromISR
	mv	a1,a0
	j	.L59
.L58:
	.loc 3 206 153 discriminator 3
	call	xTaskGetTickCount
	mv	a1,a0
.L59:
	.loc 3 206 20 discriminator 7
	lw	a6,-36(s0)
	lw	a5,-20(s0)
	li	a4,206
	lui	a3,%hi(.LC6)
	addi	a3,a3,%lo(.LC6)
	lui	a2,%hi(.LC12)
	addi	a2,a2,%lo(.LC12)
	lui	a0,%hi(.LC15)
	addi	a0,a0,%lo(.LC15)
	call	bl_printk
	.loc 3 207 13
	j	.L55
.L56:
	.loc 3 209 18
	addi	a5,s0,-52
	mv	a4,a5
	li	a3,0
	lui	a5,%hi(.LC14)
	addi	a2,a5,%lo(.LC14)
	lw	a1,-24(s0)
	lw	a0,-84(s0)
	call	fdt_stringlist_get
	sw	a0,-32(s0)
	.loc 3 210 21
	lw	a4,-52(s0)
	.loc 3 210 12
	li	a5,4
	bne	a4,a5,.L60
	.loc 3 210 31 discriminator 1
	li	a2,4
	lw	a1,-32(s0)
	lui	a5,%hi(.LC16)
	addi	a0,a5,%lo(.LC16)
	call	memcmp
	mv	a5,a0
	.loc 3 210 27 discriminator 2
	beq	a5,zero,.L61
.L60:
.LBB52:
.LBB53:
	.loc 4 181 31
	lui	a5,%hi(TrapNetCounter)
	lw	a5,%lo(TrapNetCounter)(a5)
	snez	a5,a5
	andi	a5,a5,0xff
.LBE53:
.LBE52:
	.loc 3 211 20 discriminator 1
	beq	a5,zero,.L63
	.loc 3 211 107 discriminator 2
	call	xTaskGetTickCountFromISR
	mv	a1,a0
	j	.L64
.L63:
	.loc 3 211 136 discriminator 3
	call	xTaskGetTickCount
	mv	a1,a0
.L64:
	.loc 3 211 20 discriminator 7
	lw	a6,-32(s0)
	lw	a5,-20(s0)
	li	a4,211
	lui	a3,%hi(.LC6)
	addi	a3,a3,%lo(.LC6)
	lui	a2,%hi(.LC12)
	addi	a2,a2,%lo(.LC12)
	lui	a0,%hi(.LC17)
	addi	a0,a0,%lo(.LC17)
	call	bl_printk
	.loc 3 212 13
	j	.L55
.L61:
	.loc 3 216 22
	lui	a5,%hi(.LC18)
	addi	a2,a5,%lo(.LC18)
	lw	a1,-24(s0)
	lw	a0,-84(s0)
	call	fdt_stringlist_count
	sw	a0,-36(s0)
	.loc 3 217 12
	lw	a4,-36(s0)
	li	a5,1
	beq	a4,a5,.L65
.LBB54:
.LBB55:
	.loc 4 181 31
	lui	a5,%hi(TrapNetCounter)
	lw	a5,%lo(TrapNetCounter)(a5)
	snez	a5,a5
	andi	a5,a5,0xff
.LBE55:
.LBE54:
	.loc 3 218 20 discriminator 1
	beq	a5,zero,.L67
	.loc 3 218 122 discriminator 2
	call	xTaskGetTickCountFromISR
	mv	a1,a0
	j	.L68
.L67:
	.loc 3 218 151 discriminator 3
	call	xTaskGetTickCount
	mv	a1,a0
.L68:
	.loc 3 218 20 discriminator 7
	lw	a6,-36(s0)
	lw	a5,-20(s0)
	li	a4,218
	lui	a3,%hi(.LC6)
	addi	a3,a3,%lo(.LC6)
	lui	a2,%hi(.LC12)
	addi	a2,a2,%lo(.LC12)
	lui	a0,%hi(.LC19)
	addi	a0,a0,%lo(.LC19)
	call	bl_printk
	.loc 3 219 13
	j	.L55
.L65:
	.loc 3 221 18
	addi	a5,s0,-52
	mv	a4,a5
	li	a3,0
	lui	a5,%hi(.LC18)
	addi	a2,a5,%lo(.LC18)
	lw	a1,-24(s0)
	lw	a0,-84(s0)
	call	fdt_stringlist_get
	sw	a0,-32(s0)
	.loc 3 222 21
	lw	a5,-52(s0)
	.loc 3 222 12
	blt	a5,zero,.L69
	.loc 3 222 37 discriminator 1
	lw	a4,-52(s0)
	.loc 3 222 26 discriminator 1
	li	a5,32
	ble	a4,a5,.L70
.L69:
.LBB56:
.LBB57:
	.loc 4 181 31
	lui	a5,%hi(TrapNetCounter)
	lw	a5,%lo(TrapNetCounter)(a5)
	snez	a5,a5
	andi	a5,a5,0xff
.LBE57:
.LBE56:
	.loc 3 224 20 discriminator 1
	beq	a5,zero,.L72
	.loc 3 224 112 discriminator 2
	call	xTaskGetTickCountFromISR
	mv	a1,a0
	j	.L73
.L72:
	.loc 3 224 141 discriminator 3
	call	xTaskGetTickCount
	mv	a1,a0
.L73:
	.loc 3 224 20 discriminator 7
	lw	a5,-52(s0)
	mv	a6,a5
	lw	a5,-20(s0)
	li	a4,224
	lui	a3,%hi(.LC6)
	addi	a3,a3,%lo(.LC6)
	lui	a2,%hi(.LC12)
	addi	a2,a2,%lo(.LC12)
	lui	a0,%hi(.LC20)
	addi	a0,a0,%lo(.LC20)
	call	bl_printk
.L70:
	.loc 3 226 14
	lw	a5,-32(s0)
	sw	a5,-40(s0)
	.loc 3 229 21
	addi	a5,s0,-52
	mv	a3,a5
	lui	a5,%hi(.LC21)
	addi	a2,a5,%lo(.LC21)
	lw	a1,-24(s0)
	lw	a0,-84(s0)
	call	fdt_getprop
	sw	a0,-28(s0)
	.loc 3 230 12
	lw	a5,-28(s0)
	bne	a5,zero,.L74
.LBB58:
.LBB59:
	.loc 4 181 31
	lui	a5,%hi(TrapNetCounter)
	lw	a5,%lo(TrapNetCounter)(a5)
	snez	a5,a5
	andi	a5,a5,0xff
.LBE59:
.LBE58:
	.loc 3 231 20 discriminator 1
	beq	a5,zero,.L76
	.loc 3 231 104 discriminator 2
	call	xTaskGetTickCountFromISR
	mv	a1,a0
	j	.L77
.L76:
	.loc 3 231 133 discriminator 3
	call	xTaskGetTickCount
	mv	a1,a0
.L77:
	.loc 3 231 20 discriminator 7
	lw	a5,-20(s0)
	li	a4,231
	lui	a3,%hi(.LC6)
	addi	a3,a3,%lo(.LC6)
	lui	a2,%hi(.LC12)
	addi	a2,a2,%lo(.LC12)
	lui	a0,%hi(.LC22)
	addi	a0,a0,%lo(.LC22)
	call	bl_printk
	.loc 3 232 13
	j	.L55
.L74:
	.loc 3 234 24
	lw	a5,-28(s0)
	lw	a5,0(a5)
	mv	a0,a5
	call	fdt32_to_cpu
	mv	a5,a0
	.loc 3 234 12 discriminator 1
	sb	a5,-41(s0)
	.loc 3 237 21
	addi	a5,s0,-52
	mv	a3,a5
	lui	a5,%hi(.LC23)
	addi	a2,a5,%lo(.LC23)
	lw	a1,-24(s0)
	lw	a0,-84(s0)
	call	fdt_getprop
	sw	a0,-28(s0)
	.loc 3 238 12
	lw	a5,-28(s0)
	bne	a5,zero,.L78
.LBB60:
.LBB61:
	.loc 4 181 31
	lui	a5,%hi(TrapNetCounter)
	lw	a5,%lo(TrapNetCounter)(a5)
	snez	a5,a5
	andi	a5,a5,0xff
.LBE61:
.LBE60:
	.loc 3 239 20 discriminator 1
	beq	a5,zero,.L80
	.loc 3 239 105 discriminator 2
	call	xTaskGetTickCountFromISR
	mv	a1,a0
	j	.L81
.L80:
	.loc 3 239 134 discriminator 3
	call	xTaskGetTickCount
	mv	a1,a0
.L81:
	.loc 3 239 20 discriminator 7
	lw	a5,-20(s0)
	li	a4,239
	lui	a3,%hi(.LC6)
	addi	a3,a3,%lo(.LC6)
	lui	a2,%hi(.LC12)
	addi	a2,a2,%lo(.LC12)
	lui	a0,%hi(.LC24)
	addi	a0,a0,%lo(.LC24)
	call	bl_printk
	.loc 3 240 13
	j	.L55
.L78:
	.loc 3 242 25
	lw	a5,-28(s0)
	lw	a5,0(a5)
	mv	a0,a5
	call	fdt32_to_cpu
	mv	a5,a0
	.loc 3 242 13 discriminator 1
	sb	a5,-42(s0)
	.loc 3 245 21
	addi	a5,s0,-52
	mv	a3,a5
	lui	a5,%hi(.LC25)
	addi	a2,a5,%lo(.LC25)
	lw	a1,-24(s0)
	lw	a0,-84(s0)
	call	fdt_getprop
	sw	a0,-28(s0)
	.loc 3 246 12
	lw	a5,-28(s0)
	bne	a5,zero,.L82
.LBB62:
.LBB63:
	.loc 4 181 31
	lui	a5,%hi(TrapNetCounter)
	lw	a5,%lo(TrapNetCounter)(a5)
	snez	a5,a5
	andi	a5,a5,0xff
.LBE63:
.LBE62:
	.loc 3 247 20 discriminator 1
	beq	a5,zero,.L84
	.loc 3 247 106 discriminator 2
	call	xTaskGetTickCountFromISR
	mv	a1,a0
	j	.L85
.L84:
	.loc 3 247 135 discriminator 3
	call	xTaskGetTickCount
	mv	a1,a0
.L85:
	.loc 3 247 20 discriminator 7
	lw	a5,-20(s0)
	li	a4,247
	lui	a3,%hi(.LC6)
	addi	a3,a3,%lo(.LC6)
	lui	a2,%hi(.LC12)
	addi	a2,a2,%lo(.LC12)
	lui	a0,%hi(.LC26)
	addi	a0,a0,%lo(.LC26)
	call	bl_printk
	.loc 3 248 13
	j	.L55
.L82:
	.loc 3 250 27
	lw	a5,-28(s0)
	lw	a5,0(a5)
	mv	a0,a5
	call	fdt32_to_cpu
	sw	a0,-48(s0)
.LBB64:
.LBB65:
	.loc 4 181 31
	lui	a5,%hi(TrapNetCounter)
	lw	a5,%lo(TrapNetCounter)(a5)
	snez	a5,a5
	andi	a5,a5,0xff
.LBE65:
.LBE64:
	.loc 3 252 16 discriminator 1
	beq	a5,zero,.L87
	.loc 3 252 124 discriminator 2
	call	xTaskGetTickCountFromISR
	mv	a1,a0
	j	.L88
.L87:
	.loc 3 252 153 discriminator 3
	call	xTaskGetTickCount
	mv	a1,a0
.L88:
	.loc 3 252 16 discriminator 7
	lbu	a4,-41(s0)
	lbu	a3,-42(s0)
	lw	a5,-48(s0)
	sw	a5,0(sp)
	mv	a7,a3
	mv	a6,a4
	lw	a5,-40(s0)
	li	a4,252
	lui	a3,%hi(.LC6)
	addi	a3,a3,%lo(.LC6)
	lui	a2,%hi(.LC12)
	addi	a2,a2,%lo(.LC12)
	lui	a0,%hi(.LC27)
	addi	a0,a0,%lo(.LC27)
	call	bl_printk
	.loc 3 254 9
	lbu	a4,-42(s0)
	lbu	a5,-41(s0)
	lw	a2,-48(s0)
	mv	a1,a4
	mv	a0,a5
	call	bl_pwm_init
	.loc 3 255 13
	lbu	a5,-41(s0)
	lw	a1,-40(s0)
	mv	a0,a5
	call	dev_pwm_init
	mv	a5,a0
	.loc 3 255 12 discriminator 1
	beq	a5,zero,.L55
.LBB66:
.LBB67:
	.loc 4 181 31
	lui	a5,%hi(TrapNetCounter)
	lw	a5,%lo(TrapNetCounter)(a5)
	snez	a5,a5
	andi	a5,a5,0xff
.LBE67:
.LBE66:
	.loc 3 256 20 discriminator 1
	beq	a5,zero,.L90
	.loc 3 256 105 discriminator 2
	call	xTaskGetTickCountFromISR
	mv	a1,a0
	j	.L91
.L90:
	.loc 3 256 134 discriminator 3
	call	xTaskGetTickCount
	mv	a1,a0
.L91:
	.loc 3 256 20 discriminator 7
	li	a4,256
	lui	a5,%hi(.LC6)
	addi	a3,a5,%lo(.LC6)
	lui	a5,%hi(.LC7)
	addi	a2,a5,%lo(.LC7)
	lui	a5,%hi(.LC28)
	addi	a0,a5,%lo(.LC28)
	call	bl_printk
.L55:
	.loc 3 198 25 discriminator 2
	lw	a5,-20(s0)
	addi	a5,a5,1
	sw	a5,-20(s0)
.L50:
	.loc 3 198 19 discriminator 1
	lw	a4,-20(s0)
	li	a5,4
	ble	a4,a5,.L92
	.loc 3 259 1
	nop
	nop
	lw	ra,108(sp)
	.cfi_restore 1
	lw	s0,104(sp)
	.cfi_restore 8
	.cfi_def_cfa 2, 112
	addi	sp,sp,112
	.cfi_def_cfa_offset 0
	jr	ra
	.cfi_endproc
.LFE67:
	.size	fdt_pwm_module_init, .-fdt_pwm_module_init
	.section	.text.vfs_pwm_init,"ax",@progbits
	.align	1
	.globl	vfs_pwm_init
	.type	vfs_pwm_init, @function
vfs_pwm_init:
.LFB68:
	.loc 3 262 1
	.cfi_startproc
	addi	sp,sp,-32
	.cfi_def_cfa_offset 32
	sw	ra,28(sp)
	sw	s0,24(sp)
	.cfi_offset 1, -4
	.cfi_offset 8, -8
	addi	s0,sp,32
	.cfi_def_cfa 8, 0
	sw	a0,-20(s0)
	sw	a1,-24(s0)
	.loc 3 263 16
	lui	a5,%hi(inited)
	lb	a4,%lo(inited)(a5)
	.loc 3 263 8
	li	a5,1
	bne	a4,a5,.L94
	.loc 3 264 16
	li	a5,0
	j	.L95
.L94:
	.loc 3 267 5
	lw	a5,-20(s0)
	lw	a4,-24(s0)
	mv	a1,a4
	mv	a0,a5
	call	fdt_pwm_module_init
	.loc 3 269 12
	lui	a5,%hi(inited)
	li	a4,1
	sb	a4,%lo(inited)(a5)
	.loc 3 271 12
	li	a5,0
.L95:
	.loc 3 272 1
	mv	a0,a5
	lw	ra,28(sp)
	.cfi_restore 1
	lw	s0,24(sp)
	.cfi_restore 8
	.cfi_def_cfa 2, 32
	addi	sp,sp,32
	.cfi_def_cfa_offset 0
	jr	ra
	.cfi_endproc
.LFE68:
	.size	vfs_pwm_init, .-vfs_pwm_init
	.section	.text.hal_pwm_start_bydev,"ax",@progbits
	.align	1
	.globl	hal_pwm_start_bydev
	.type	hal_pwm_start_bydev, @function
hal_pwm_start_bydev:
.LFB69:
	.loc 3 275 1
	.cfi_startproc
	addi	sp,sp,-32
	.cfi_def_cfa_offset 32
	sw	ra,28(sp)
	sw	s0,24(sp)
	.cfi_offset 1, -4
	.cfi_offset 8, -8
	addi	s0,sp,32
	.cfi_def_cfa 8, 0
	sw	a0,-20(s0)
	.loc 3 276 5
	lw	a5,-20(s0)
	lbu	a5,0(a5)
	mv	a0,a5
	call	bl_pwm_start
	.loc 3 277 12
	li	a5,0
	.loc 3 278 1
	mv	a0,a5
	lw	ra,28(sp)
	.cfi_restore 1
	lw	s0,24(sp)
	.cfi_restore 8
	.cfi_def_cfa 2, 32
	addi	sp,sp,32
	.cfi_def_cfa_offset 0
	jr	ra
	.cfi_endproc
.LFE69:
	.size	hal_pwm_start_bydev, .-hal_pwm_start_bydev
	.section	.text.hal_pwm_stop_bydev,"ax",@progbits
	.align	1
	.globl	hal_pwm_stop_bydev
	.type	hal_pwm_stop_bydev, @function
hal_pwm_stop_bydev:
.LFB70:
	.loc 3 281 1
	.cfi_startproc
	addi	sp,sp,-32
	.cfi_def_cfa_offset 32
	sw	ra,28(sp)
	sw	s0,24(sp)
	.cfi_offset 1, -4
	.cfi_offset 8, -8
	addi	s0,sp,32
	.cfi_def_cfa 8, 0
	sw	a0,-20(s0)
	.loc 3 282 5
	lw	a5,-20(s0)
	lbu	a5,0(a5)
	mv	a0,a5
	call	bl_pwm_stop
	.loc 3 283 12
	li	a5,0
	.loc 3 284 1
	mv	a0,a5
	lw	ra,28(sp)
	.cfi_restore 1
	lw	s0,24(sp)
	.cfi_restore 8
	.cfi_def_cfa 2, 32
	addi	sp,sp,32
	.cfi_def_cfa_offset 0
	jr	ra
	.cfi_endproc
.LFE70:
	.size	hal_pwm_stop_bydev, .-hal_pwm_stop_bydev
	.section	.text.hal_pwm_para_chg_bydev,"ax",@progbits
	.align	1
	.globl	hal_pwm_para_chg_bydev
	.type	hal_pwm_para_chg_bydev, @function
hal_pwm_para_chg_bydev:
.LFB71:
	.loc 3 287 1
	.cfi_startproc
	addi	sp,sp,-32
	.cfi_def_cfa_offset 32
	sw	ra,28(sp)
	sw	s0,24(sp)
	.cfi_offset 1, -4
	.cfi_offset 8, -8
	addi	s0,sp,32
	.cfi_def_cfa 8, 0
	sw	a0,-20(s0)
	fmv.s	fa5,fa0
	mv	a5,a1
	fsw	fa5,-28(s0)
	sw	a5,-24(s0)
	.loc 3 288 12
	li	a5,0
	.loc 3 289 1
	mv	a0,a5
	lw	ra,28(sp)
	.cfi_restore 1
	lw	s0,24(sp)
	.cfi_restore 8
	.cfi_def_cfa 2, 32
	addi	sp,sp,32
	.cfi_def_cfa_offset 0
	jr	ra
	.cfi_endproc
.LFE71:
	.size	hal_pwm_para_chg_bydev, .-hal_pwm_para_chg_bydev
	.section	.text.hal_pwm_set_duty_bydev,"ax",@progbits
	.align	1
	.globl	hal_pwm_set_duty_bydev
	.type	hal_pwm_set_duty_bydev, @function
hal_pwm_set_duty_bydev:
.LFB72:
	.loc 3 292 1
	.cfi_startproc
	addi	sp,sp,-32
	.cfi_def_cfa_offset 32
	sw	ra,28(sp)
	sw	s0,24(sp)
	.cfi_offset 1, -4
	.cfi_offset 8, -8
	addi	s0,sp,32
	.cfi_def_cfa 8, 0
	sw	a0,-20(s0)
	fsw	fa0,-24(s0)
	.loc 3 294 5
	lw	a5,-20(s0)
	lbu	a5,0(a5)
	flw	fa0,-24(s0)
	mv	a0,a5
	call	bl_pwm_set_duty
	.loc 3 295 12
	li	a5,0
	.loc 3 296 1
	mv	a0,a5
	lw	ra,28(sp)
	.cfi_restore 1
	lw	s0,24(sp)
	.cfi_restore 8
	.cfi_def_cfa 2, 32
	addi	sp,sp,32
	.cfi_def_cfa_offset 0
	jr	ra
	.cfi_endproc
.LFE72:
	.size	hal_pwm_set_duty_bydev, .-hal_pwm_set_duty_bydev
	.section	.rodata
	.align	2
.LC29:
	.string	"[%10u][%s: %s:%4d] not support.\r\n"
	.section	.text.hal_pwm_set_freq_bydev,"ax",@progbits
	.align	1
	.globl	hal_pwm_set_freq_bydev
	.type	hal_pwm_set_freq_bydev, @function
hal_pwm_set_freq_bydev:
.LFB73:
	.loc 3 299 1
	.cfi_startproc
	addi	sp,sp,-32
	.cfi_def_cfa_offset 32
	sw	ra,28(sp)
	sw	s0,24(sp)
	.cfi_offset 1, -4
	.cfi_offset 8, -8
	addi	s0,sp,32
	.cfi_def_cfa 8, 0
	sw	a0,-20(s0)
	sw	a1,-24(s0)
.LBB68:
.LBB69:
	.loc 4 181 31
	lui	a5,%hi(TrapNetCounter)
	lw	a5,%lo(TrapNetCounter)(a5)
	snez	a5,a5
	andi	a5,a5,0xff
.LBE69:
.LBE68:
	.loc 3 300 12 discriminator 1
	beq	a5,zero,.L106
	.loc 3 300 92 discriminator 2
	call	xTaskGetTickCountFromISR
	mv	a1,a0
	j	.L107
.L106:
	.loc 3 300 121 discriminator 3
	call	xTaskGetTickCount
	mv	a1,a0
.L107:
	.loc 3 300 12 discriminator 7
	li	a4,300
	lui	a5,%hi(.LC6)
	addi	a3,a5,%lo(.LC6)
	lui	a5,%hi(.LC7)
	addi	a2,a5,%lo(.LC7)
	lui	a5,%hi(.LC29)
	addi	a0,a5,%lo(.LC29)
	call	bl_printk
	.loc 3 301 5
	lw	a5,-20(s0)
	lbu	a5,0(a5)
	lw	a1,-24(s0)
	mv	a0,a5
	call	bl_pwm_set_freq
	.loc 3 302 12
	li	a5,0
	.loc 3 303 1
	mv	a0,a5
	lw	ra,28(sp)
	.cfi_restore 1
	lw	s0,24(sp)
	.cfi_restore 8
	.cfi_def_cfa 2, 32
	addi	sp,sp,32
	.cfi_def_cfa_offset 0
	jr	ra
	.cfi_endproc
.LFE73:
	.size	hal_pwm_set_freq_bydev, .-hal_pwm_set_freq_bydev
	.section	.text.__pwm_duty_adjust,"ax",@progbits
	.align	1
	.type	__pwm_duty_adjust, @function
__pwm_duty_adjust:
.LFB74:
	.loc 3 306 1
	.cfi_startproc
	addi	sp,sp,-48
	.cfi_def_cfa_offset 48
	sw	ra,44(sp)
	sw	s0,40(sp)
	.cfi_offset 1, -4
	.cfi_offset 8, -8
	addi	s0,sp,48
	.cfi_def_cfa 8, 0
	sw	a0,-36(s0)
	.loc 3 307 20
	lw	a4,-36(s0)
	mv	a5,a4
	slli	a5,a5,1
	add	a5,a5,a4
	slli	a5,a5,3
	lui	a4,%hi(__g_pwm_dev)
	addi	a4,a4,%lo(__g_pwm_dev)
	add	a5,a5,a4
	sw	a5,-20(s0)
	.loc 3 310 14
	lw	a5,-20(s0)
	lw	a5,20(a5)
	.loc 3 310 8
	bne	a5,zero,.L110
	.loc 3 311 43
	lw	a5,-20(s0)
	mv	a0,a5
	call	utils_list_pop_front
	mv	a4,a0
	.loc 3 311 25 discriminator 1
	lw	a5,-20(s0)
	sw	a4,20(a5)
.L110:
	.loc 3 313 15
	lw	a5,-20(s0)
	lw	a5,20(a5)
	sw	a5,-24(s0)
	.loc 3 313 8
	lw	a5,-24(s0)
	beq	a5,zero,.L115
	.loc 3 317 13
	lw	a5,-24(s0)
	lw	a5,12(a5)
	.loc 3 317 8
	beq	a5,zero,.L109
	.loc 3 318 13
	lw	a5,-24(s0)
	lw	a5,12(a5)
	.loc 3 318 24
	addi	a4,a5,-1
	lw	a5,-24(s0)
	sw	a4,12(a5)
	.loc 3 319 32
	lw	a5,-20(s0)
	flw	fa4,16(a5)
	.loc 3 319 49
	lw	a5,-24(s0)
	flw	fa5,8(a5)
	.loc 3 319 43
	fadd.s	fa5,fa4,fa5
	.loc 3 319 25
	lw	a5,-20(s0)
	fsw	fa5,16(a5)
	.loc 3 321 9
	lw	a5,-36(s0)
	andi	a4,a5,0xff
	lw	a5,-20(s0)
	flw	fa5,16(a5)
	fmv.s	fa0,fa5
	mv	a0,a4
	call	bl_pwm_set_duty
	.loc 3 323 17
	lw	a5,-24(s0)
	lw	a5,12(a5)
	.loc 3 323 12
	bne	a5,zero,.L109
	.loc 3 324 22
	lw	a5,-20(s0)
	flw	fa4,16(a5)
	.loc 3 324 40
	lw	a5,-24(s0)
	flw	fa5,4(a5)
	.loc 3 324 16
	feq.s	a5,fa4,fa5
	bne	a5,zero,.L113
	.loc 3 325 21
	lw	a5,-24(s0)
	lw	a5,12(a5)
	.loc 3 325 32
	addi	a4,a5,1
	lw	a5,-24(s0)
	sw	a4,12(a5)
	.loc 3 326 41
	lw	a5,-24(s0)
	flw	fa4,4(a5)
	.loc 3 326 55
	lw	a5,-20(s0)
	flw	fa5,16(a5)
	.loc 3 326 48
	fsub.s	fa5,fa4,fa5
	.loc 3 326 35
	lw	a5,-24(s0)
	fsw	fa5,8(a5)
	j	.L109
.L113:
	.loc 3 328 25
	lw	a5,-24(s0)
	lw	a5,16(a5)
	.loc 3 328 20
	beq	a5,zero,.L114
	.loc 3 329 25
	lw	a5,-24(s0)
	lw	a5,16(a5)
	.loc 3 329 21
	lw	a4,-24(s0)
	lw	a4,20(a4)
	mv	a0,a4
	jalr	a5
.LVL0:
.L114:
	.loc 3 332 51
	lw	a5,-20(s0)
	mv	a0,a5
	call	utils_list_pop_front
	mv	a4,a0
	.loc 3 332 33 discriminator 1
	lw	a5,-20(s0)
	sw	a4,20(a5)
	j	.L109
.L115:
	.loc 3 314 9
	nop
.L109:
	.loc 3 336 1
	lw	ra,44(sp)
	.cfi_restore 1
	lw	s0,40(sp)
	.cfi_restore 8
	.cfi_def_cfa 2, 48
	addi	sp,sp,48
	.cfi_def_cfa_offset 0
	jr	ra
	.cfi_endproc
.LFE74:
	.size	__pwm_duty_adjust, .-__pwm_duty_adjust
	.section	.text.__loop_pwm_trigger,"ax",@progbits
	.align	1
	.type	__loop_pwm_trigger, @function
__loop_pwm_trigger:
.LFB75:
	.loc 3 339 1
	.cfi_startproc
	addi	sp,sp,-48
	.cfi_def_cfa_offset 48
	sw	ra,44(sp)
	sw	s0,40(sp)
	.cfi_offset 1, -4
	.cfi_offset 8, -8
	addi	s0,sp,48
	.cfi_def_cfa 8, 0
	sw	a0,-36(s0)
	.loc 3 341 13
	li	a5,1
	sb	a5,-21(s0)
	.loc 3 343 5
	call	vTaskEnterCritical
	.loc 3 344 13
	sw	zero,-20(s0)
	.loc 3 344 5
	j	.L117
.L120:
	.loc 3 345 28
	lui	a5,%hi(__g_pwm_dev)
	addi	a3,a5,%lo(__g_pwm_dev)
	lw	a4,-20(s0)
	mv	a5,a4
	slli	a5,a5,1
	add	a5,a5,a4
	slli	a5,a5,3
	add	a5,a3,a5
	lbu	a5,8(a5)
	.loc 3 345 12
	beq	a5,zero,.L118
	.loc 3 346 13
	lw	a0,-20(s0)
	call	__pwm_duty_adjust
.L118:
	.loc 3 348 28
	lui	a5,%hi(__g_pwm_dev)
	addi	a3,a5,%lo(__g_pwm_dev)
	lw	a4,-20(s0)
	mv	a5,a4
	slli	a5,a5,1
	add	a5,a5,a4
	slli	a5,a5,3
	add	a5,a3,a5
	lw	a5,20(a5)
	.loc 3 348 12
	beq	a5,zero,.L119
	.loc 3 349 18
	sb	zero,-21(s0)
.L119:
	.loc 3 344 28 discriminator 2
	lw	a5,-20(s0)
	addi	a5,a5,1
	sw	a5,-20(s0)
.L117:
	.loc 3 344 21 discriminator 1
	lw	a4,-20(s0)
	li	a5,4
	ble	a4,a5,.L120
	.loc 3 352 8
	lbu	a5,-21(s0)
	beq	a5,zero,.L121
	.loc 3 353 9
	call	loopset_pwm_trigger_stop
.L121:
	.loc 3 355 5
	call	vTaskExitCritical
	.loc 3 356 1
	nop
	lw	ra,44(sp)
	.cfi_restore 1
	lw	s0,40(sp)
	.cfi_restore 8
	.cfi_def_cfa 2, 48
	addi	sp,sp,48
	.cfi_def_cfa_offset 0
	jr	ra
	.cfi_endproc
.LFE75:
	.size	__loop_pwm_trigger, .-__loop_pwm_trigger
	.section	.rodata
	.align	2
.LC30:
	.string	"pwm_duty_set finish duty %f\r\n"
	.section	.text.__ev_complete,"ax",@progbits
	.align	1
	.type	__ev_complete, @function
__ev_complete:
.LFB76:
	.loc 3 359 1
	.cfi_startproc
	addi	sp,sp,-48
	.cfi_def_cfa_offset 48
	sw	ra,44(sp)
	sw	s0,40(sp)
	.cfi_offset 1, -4
	.cfi_offset 8, -8
	addi	s0,sp,48
	.cfi_def_cfa 8, 0
	sw	a0,-36(s0)
	.loc 3 360 19
	lw	a5,-36(s0)
	sw	a5,-20(s0)
	.loc 3 361 51
	lw	a5,-20(s0)
	flw	fa5,4(a5)
	.loc 3 361 5
	fmv.s	fa0,fa5
	call	__extendsfdf2
	mv	a4,a0
	mv	a5,a1
	mv	a2,a4
	mv	a3,a5
	lui	a5,%hi(.LC30)
	addi	a0,a5,%lo(.LC30)
	call	printf
	.loc 3 362 5
	lw	a0,-20(s0)
	call	vPortFree
	.loc 3 363 1
	nop
	lw	ra,44(sp)
	.cfi_restore 1
	lw	s0,40(sp)
	.cfi_restore 8
	.cfi_def_cfa 2, 48
	addi	sp,sp,48
	.cfi_def_cfa_offset 0
	jr	ra
	.cfi_endproc
.LFE76:
	.size	__ev_complete, .-__ev_complete
	.section	.text.hal_pwm_start,"ax",@progbits
	.align	1
	.globl	hal_pwm_start
	.type	hal_pwm_start, @function
hal_pwm_start:
.LFB77:
	.loc 3 366 1
	.cfi_startproc
	addi	sp,sp,-32
	.cfi_def_cfa_offset 32
	sw	ra,28(sp)
	sw	s0,24(sp)
	.cfi_offset 1, -4
	.cfi_offset 8, -8
	addi	s0,sp,32
	.cfi_def_cfa 8, 0
	mv	a5,a0
	sb	a5,-17(s0)
	.loc 3 367 8
	lbu	a4,-17(s0)
	li	a5,4
	bleu	a4,a5,.L124
	.loc 3 368 16
	li	a5,-1
	j	.L125
.L124:
	.loc 3 371 5
	lbu	a5,-17(s0)
	mv	a0,a5
	call	bl_pwm_start
	.loc 3 372 12
	li	a5,0
.L125:
	.loc 3 373 1
	mv	a0,a5
	lw	ra,28(sp)
	.cfi_restore 1
	lw	s0,24(sp)
	.cfi_restore 8
	.cfi_def_cfa 2, 32
	addi	sp,sp,32
	.cfi_def_cfa_offset 0
	jr	ra
	.cfi_endproc
.LFE77:
	.size	hal_pwm_start, .-hal_pwm_start
	.section	.text.hal_pwm_stop,"ax",@progbits
	.align	1
	.globl	hal_pwm_stop
	.type	hal_pwm_stop, @function
hal_pwm_stop:
.LFB78:
	.loc 3 376 1
	.cfi_startproc
	addi	sp,sp,-32
	.cfi_def_cfa_offset 32
	sw	ra,28(sp)
	sw	s0,24(sp)
	.cfi_offset 1, -4
	.cfi_offset 8, -8
	addi	s0,sp,32
	.cfi_def_cfa 8, 0
	mv	a5,a0
	sb	a5,-17(s0)
	.loc 3 377 8
	lbu	a4,-17(s0)
	li	a5,4
	bleu	a4,a5,.L127
	.loc 3 378 16
	li	a5,-1
	j	.L128
.L127:
	.loc 3 381 5
	lbu	a5,-17(s0)
	mv	a0,a5
	call	bl_pwm_stop
	.loc 3 382 12
	li	a5,0
.L128:
	.loc 3 383 1
	mv	a0,a5
	lw	ra,28(sp)
	.cfi_restore 1
	lw	s0,24(sp)
	.cfi_restore 8
	.cfi_def_cfa 2, 32
	addi	sp,sp,32
	.cfi_def_cfa_offset 0
	jr	ra
	.cfi_endproc
.LFE78:
	.size	hal_pwm_stop, .-hal_pwm_stop
	.section	.text.__list_last,"ax",@progbits
	.align	1
	.type	__list_last, @function
__list_last:
.LFB79:
	.loc 3 386 1
	.cfi_startproc
	addi	sp,sp,-32
	.cfi_def_cfa_offset 32
	sw	ra,28(sp)
	sw	s0,24(sp)
	.cfi_offset 1, -4
	.cfi_offset 8, -8
	addi	s0,sp,32
	.cfi_def_cfa 8, 0
	sw	a0,-20(s0)
	.loc 3 387 9
	lw	a0,-20(s0)
	call	utils_list_is_empty
	mv	a5,a0
	.loc 3 387 8 discriminator 1
	beq	a5,zero,.L130
	.loc 3 388 15
	li	a5,0
	j	.L131
.L130:
	.loc 3 390 16
	lw	a5,-20(s0)
	lw	a5,4(a5)
.L131:
	.loc 3 391 1
	mv	a0,a5
	lw	ra,28(sp)
	.cfi_restore 1
	lw	s0,24(sp)
	.cfi_restore 8
	.cfi_def_cfa 2, 32
	addi	sp,sp,32
	.cfi_def_cfa_offset 0
	jr	ra
	.cfi_endproc
.LFE79:
	.size	__list_last, .-__list_last
	.section	.rodata
	.align	2
.LC32:
	.string	"now_duty %f, adjust_duty %f\r\n"
	.section	.text.hal_pwm_duty_set,"ax",@progbits
	.align	1
	.globl	hal_pwm_duty_set
	.type	hal_pwm_duty_set, @function
hal_pwm_duty_set:
.LFB80:
	.loc 3 394 1
	.cfi_startproc
	addi	sp,sp,-64
	.cfi_def_cfa_offset 64
	sw	ra,60(sp)
	sw	s0,56(sp)
	sw	s2,52(sp)
	sw	s3,48(sp)
	.cfi_offset 1, -4
	.cfi_offset 8, -8
	.cfi_offset 18, -12
	.cfi_offset 19, -16
	addi	s0,sp,64
	.cfi_def_cfa 8, 0
	mv	a5,a0
	sw	a1,-56(s0)
	sw	a2,-60(s0)
	sb	a5,-49(s0)
	.loc 3 399 8
	lbu	a4,-49(s0)
	li	a5,4
	bgtu	a4,a5,.L133
	.loc 3 399 17 discriminator 1
	lw	a4,-56(s0)
	li	a5,8192
	addi	a5,a5,1808
	bleu	a4,a5,.L134
.L133:
	.loc 3 400 16
	li	a5,-1
	j	.L142
.L134:
	.loc 3 403 25
	lbu	a4,-49(s0)
	.loc 3 403 11
	mv	a5,a4
	slli	a5,a5,1
	add	a5,a5,a4
	slli	a5,a5,3
	lui	a4,%hi(__g_pwm_dev)
	addi	a4,a4,%lo(__g_pwm_dev)
	add	a5,a5,a4
	sw	a5,-24(s0)
	.loc 3 405 8
	lw	a5,-60(s0)
	bne	a5,zero,.L136
	.loc 3 406 27
	lw	a5,-56(s0)
	fcvt.s.wu	fa4,a5
	.loc 3 406 39
	lui	a5,%hi(.LC31)
	flw	fa5,%lo(.LC31)(a5)
	fdiv.s	fa5,fa4,fa5
	.loc 3 406 25
	lw	a5,-24(s0)
	fsw	fa5,16(a5)
	.loc 3 407 9
	lw	a5,-24(s0)
	flw	fa5,16(a5)
	lbu	a5,-49(s0)
	fmv.s	fa0,fa5
	mv	a0,a5
	call	bl_pwm_set_duty
	.loc 3 408 16
	li	a5,0
	j	.L142
.L136:
	.loc 3 411 12
	li	a0,24
	call	pvPortMalloc
	sw	a0,-28(s0)
	.loc 3 412 8
	lw	a5,-28(s0)
	bne	a5,zero,.L137
	.loc 3 413 16
	li	a5,-1
	j	.L142
.L137:
	.loc 3 415 5
	li	a2,24
	li	a1,0
	lw	a0,-28(s0)
	call	memset
	.loc 3 417 14
	lw	a5,-24(s0)
	lw	a5,20(a5)
	.loc 3 417 8
	beq	a5,zero,.L138
	.loc 3 418 43
	lw	a5,-24(s0)
	mv	a0,a5
	call	__list_last
	sw	a0,-20(s0)
	.loc 3 418 12 discriminator 1
	lw	a5,-20(s0)
	bne	a5,zero,.L139
	.loc 3 419 23
	lw	a5,-24(s0)
	lw	a5,20(a5)
	sw	a5,-20(s0)
.L139:
	.loc 3 421 29
	lw	a5,-20(s0)
	flw	fa5,4(a5)
	.loc 3 421 18
	fsw	fa5,-36(s0)
	j	.L140
.L138:
	.loc 3 423 9
	addi	a4,s0,-36
	lbu	a5,-49(s0)
	mv	a1,a4
	mv	a0,a5
	call	bl_pwm_get_duty
.L140:
	.loc 3 426 19
	lw	a5,-56(s0)
	fcvt.s.wu	fa4,a5
	.loc 3 426 31
	lui	a5,%hi(.LC31)
	flw	fa5,%lo(.LC31)(a5)
	fdiv.s	fa4,fa4,fa5
	.loc 3 426 37
	flw	fa5,-36(s0)
	.loc 3 426 17
	fsub.s	fa5,fa4,fa5
	fsw	fa5,-32(s0)
	.loc 3 427 31
	lw	a5,-60(s0)
	fcvt.s.wu	fa5,a5
	.loc 3 427 17
	flw	fa4,-32(s0)
	fdiv.s	fa5,fa4,fa5
	fsw	fa5,-32(s0)
	.loc 3 428 8
	flw	fa5,-32(s0)
	fmv.s.x	fa4,zero
	feq.s	a5,fa5,fa4
	beq	a5,zero,.L141
	.loc 3 429 16
	li	a5,0
	j	.L142
.L141:
	.loc 3 432 14
	lw	a5,-28(s0)
	lui	a4,%hi(__ev_complete)
	addi	a4,a4,%lo(__ev_complete)
	sw	a4,16(a5)
	.loc 3 433 17
	lw	a5,-28(s0)
	lw	a4,-28(s0)
	sw	a4,20(a5)
	.loc 3 435 5
	call	vTaskEnterCritical
	.loc 3 436 18
	lw	a5,-56(s0)
	fcvt.s.wu	fa4,a5
	.loc 3 436 30
	lui	a5,%hi(.LC31)
	flw	fa5,%lo(.LC31)(a5)
	fdiv.s	fa5,fa4,fa5
	.loc 3 436 16
	lw	a5,-28(s0)
	fsw	fa5,4(a5)
	.loc 3 437 21
	lw	a5,-28(s0)
	lw	a4,-60(s0)
	sw	a4,12(a5)
	.loc 3 438 23
	lw	a5,-28(s0)
	flw	fa5,-32(s0)
	fsw	fa5,8(a5)
	.loc 3 439 5
	lw	a5,-24(s0)
	lw	a4,-28(s0)
	mv	a1,a4
	mv	a0,a5
	call	utils_list_push_back
	.loc 3 440 5
	call	vTaskExitCritical
	.loc 3 442 5
	call	loopset_pwm_trigger_start
	.loc 3 444 5
	flw	fa5,-36(s0)
	fmv.s	fa0,fa5
	call	__extendsfdf2
	mv	s2,a0
	mv	s3,a1
	flw	fa0,-32(s0)
	call	__extendsfdf2
	mv	a4,a0
	mv	a5,a1
	mv	a2,s2
	mv	a3,s3
	lui	a1,%hi(.LC32)
	addi	a0,a1,%lo(.LC32)
	call	printf
	.loc 3 446 12
	li	a5,0
.L142:
	.loc 3 447 1
	mv	a0,a5
	lw	ra,60(sp)
	.cfi_restore 1
	lw	s0,56(sp)
	.cfi_restore 8
	.cfi_def_cfa 2, 64
	lw	s2,52(sp)
	.cfi_restore 18
	lw	s3,48(sp)
	.cfi_restore 19
	addi	sp,sp,64
	.cfi_def_cfa_offset 0
	jr	ra
	.cfi_endproc
.LFE80:
	.size	hal_pwm_duty_set, .-hal_pwm_duty_set
	.section	.text.hal_pwm_duty_get,"ax",@progbits
	.align	1
	.globl	hal_pwm_duty_get
	.type	hal_pwm_duty_get, @function
hal_pwm_duty_get:
.LFB81:
	.loc 3 450 1
	.cfi_startproc
	addi	sp,sp,-48
	.cfi_def_cfa_offset 48
	sw	ra,44(sp)
	sw	s0,40(sp)
	.cfi_offset 1, -4
	.cfi_offset 8, -8
	addi	s0,sp,48
	.cfi_def_cfa 8, 0
	mv	a5,a0
	sw	a1,-40(s0)
	sb	a5,-33(s0)
	.loc 3 452 8
	lbu	a4,-33(s0)
	li	a5,4
	bgtu	a4,a5,.L144
	.loc 3 452 17 discriminator 1
	lw	a5,-40(s0)
	bne	a5,zero,.L145
.L144:
	.loc 3 453 16
	li	a5,-1
	j	.L147
.L145:
	.loc 3 455 5
	addi	a4,s0,-20
	lbu	a5,-33(s0)
	mv	a1,a4
	mv	a0,a5
	call	bl_pwm_get_duty
	.loc 3 456 20
	flw	fa4,-20(s0)
	lui	a5,%hi(.LC31)
	flw	fa5,%lo(.LC31)(a5)
	fmul.s	fa5,fa4,fa5
	.loc 3 456 13
	fcvt.wu.s a4,fa5,rtz
	lw	a5,-40(s0)
	sw	a4,0(a5)
	.loc 3 457 12
	li	a5,0
.L147:
	.loc 3 458 1
	mv	a0,a5
	lw	ra,44(sp)
	.cfi_restore 1
	lw	s0,40(sp)
	.cfi_restore 8
	.cfi_def_cfa 2, 48
	addi	sp,sp,48
	.cfi_def_cfa_offset 0
	jr	ra
	.cfi_endproc
.LFE81:
	.size	hal_pwm_duty_get, .-hal_pwm_duty_get
	.section	.text.hal_pwm_freq_get,"ax",@progbits
	.align	1
	.globl	hal_pwm_freq_get
	.type	hal_pwm_freq_get, @function
hal_pwm_freq_get:
.LFB82:
	.loc 3 461 1
	.cfi_startproc
	addi	sp,sp,-32
	.cfi_def_cfa_offset 32
	sw	ra,28(sp)
	sw	s0,24(sp)
	.cfi_offset 1, -4
	.cfi_offset 8, -8
	addi	s0,sp,32
	.cfi_def_cfa 8, 0
	mv	a5,a0
	sw	a1,-24(s0)
	sb	a5,-17(s0)
	.loc 3 462 8
	lbu	a4,-17(s0)
	li	a5,4
	bgtu	a4,a5,.L149
	.loc 3 462 17 discriminator 1
	lw	a5,-24(s0)
	bne	a5,zero,.L150
.L149:
	.loc 3 463 16
	li	a5,-1
	j	.L151
.L150:
	.loc 3 465 30
	lbu	a4,-17(s0)
	lui	a5,%hi(__g_pwm_dev)
	addi	a3,a5,%lo(__g_pwm_dev)
	mv	a5,a4
	slli	a5,a5,1
	add	a5,a5,a4
	slli	a5,a5,3
	add	a5,a3,a5
	lw	a4,12(a5)
	.loc 3 465 13
	lw	a5,-24(s0)
	sw	a4,0(a5)
	.loc 3 467 12
	li	a5,0
.L151:
	.loc 3 468 1
	mv	a0,a5
	lw	ra,28(sp)
	.cfi_restore 1
	lw	s0,24(sp)
	.cfi_restore 8
	.cfi_def_cfa 2, 32
	addi	sp,sp,32
	.cfi_def_cfa_offset 0
	jr	ra
	.cfi_endproc
.LFE82:
	.size	hal_pwm_freq_get, .-hal_pwm_freq_get
	.section	.text.hal_pwm_freq_update,"ax",@progbits
	.align	1
	.globl	hal_pwm_freq_update
	.type	hal_pwm_freq_update, @function
hal_pwm_freq_update:
.LFB83:
	.loc 3 471 1
	.cfi_startproc
	addi	sp,sp,-32
	.cfi_def_cfa_offset 32
	sw	ra,28(sp)
	sw	s0,24(sp)
	.cfi_offset 1, -4
	.cfi_offset 8, -8
	addi	s0,sp,32
	.cfi_def_cfa 8, 0
	mv	a5,a0
	sw	a1,-24(s0)
	sb	a5,-17(s0)
	.loc 3 472 8
	lbu	a4,-17(s0)
	li	a5,4
	bleu	a4,a5,.L153
	.loc 3 473 16
	li	a5,-1
	j	.L154
.L153:
	.loc 3 475 8
	lw	a4,-24(s0)
	li	a5,610
	bleu	a4,a5,.L155
	.loc 3 475 42 discriminator 1
	lw	a4,-24(s0)
	li	a5,401408
	addi	a5,a5,-1408
	bleu	a4,a5,.L156
.L155:
	.loc 3 476 16
	li	a5,-1
	j	.L154
.L156:
	.loc 3 478 20
	lbu	a4,-17(s0)
	.loc 3 478 26
	lui	a5,%hi(__g_pwm_dev)
	addi	a3,a5,%lo(__g_pwm_dev)
	mv	a5,a4
	slli	a5,a5,1
	add	a5,a5,a4
	slli	a5,a5,3
	add	a5,a3,a5
	lw	a4,-24(s0)
	sw	a4,12(a5)
	.loc 3 479 5
	lbu	a5,-17(s0)
	lw	a1,-24(s0)
	mv	a0,a5
	call	bl_pwm_set_freq
	.loc 3 480 5
	lbu	a4,-17(s0)
	lui	a5,%hi(__g_pwm_dev)
	addi	a3,a5,%lo(__g_pwm_dev)
	mv	a5,a4
	slli	a5,a5,1
	add	a5,a5,a4
	slli	a5,a5,3
	add	a5,a3,a5
	flw	fa5,16(a5)
	lbu	a5,-17(s0)
	fmv.s	fa0,fa5
	mv	a0,a5
	call	bl_pwm_set_duty
	.loc 3 481 12
	li	a5,0
.L154:
	.loc 3 482 1
	mv	a0,a5
	lw	ra,28(sp)
	.cfi_restore 1
	lw	s0,24(sp)
	.cfi_restore 8
	.cfi_def_cfa 2, 32
	addi	sp,sp,32
	.cfi_def_cfa_offset 0
	jr	ra
	.cfi_endproc
.LFE83:
	.size	hal_pwm_freq_update, .-hal_pwm_freq_update
	.section	.text.hal_pwm_init,"ax",@progbits
	.align	1
	.globl	hal_pwm_init
	.type	hal_pwm_init, @function
hal_pwm_init:
.LFB84:
	.loc 3 485 1
	.cfi_startproc
	addi	sp,sp,-32
	.cfi_def_cfa_offset 32
	sw	ra,28(sp)
	sw	s0,24(sp)
	.cfi_offset 1, -4
	.cfi_offset 8, -8
	addi	s0,sp,32
	.cfi_def_cfa 8, 0
	mv	a5,a0
	sw	a1,-24(s0)
	sb	a5,-17(s0)
	.loc 3 486 8
	lbu	a4,-17(s0)
	li	a5,4
	bleu	a4,a5,.L158
	.loc 3 487 16
	li	a5,-1
	j	.L159
.L158:
	.loc 3 490 24
	lbu	a4,-17(s0)
	.loc 3 490 12
	mv	a5,a4
	slli	a5,a5,1
	add	a5,a5,a4
	slli	a5,a5,3
	lui	a4,%hi(__g_pwm_dev)
	addi	a4,a4,%lo(__g_pwm_dev)
	add	a5,a5,a4
	.loc 3 490 5
	li	a2,24
	li	a1,0
	mv	a0,a5
	call	memset
	.loc 3 492 20
	lbu	a4,-17(s0)
	.loc 3 492 28
	lui	a5,%hi(__g_pwm_dev)
	addi	a3,a5,%lo(__g_pwm_dev)
	mv	a5,a4
	slli	a5,a5,1
	add	a5,a5,a4
	slli	a5,a5,3
	add	a5,a3,a5
	li	a4,1
	sb	a4,8(a5)
	.loc 3 493 20
	lbu	a4,-17(s0)
	.loc 3 493 26
	lui	a5,%hi(__g_pwm_dev)
	addi	a3,a5,%lo(__g_pwm_dev)
	mv	a5,a4
	slli	a5,a5,1
	add	a5,a5,a4
	slli	a5,a5,3
	add	a5,a3,a5
	li	a4,2000
	sw	a4,12(a5)
	.loc 3 495 37
	lbu	a4,-17(s0)
	.loc 3 495 5
	mv	a5,a4
	slli	a5,a5,1
	add	a5,a5,a4
	slli	a5,a5,3
	lui	a4,%hi(__g_pwm_dev)
	addi	a4,a4,%lo(__g_pwm_dev)
	add	a5,a5,a4
	mv	a0,a5
	call	utils_list_init
	.loc 3 496 5
	lw	a5,-24(s0)
	andi	a1,a5,0xff
	lbu	a4,-17(s0)
	lui	a5,%hi(__g_pwm_dev)
	addi	a3,a5,%lo(__g_pwm_dev)
	mv	a5,a4
	slli	a5,a5,1
	add	a5,a5,a4
	slli	a5,a5,3
	add	a5,a3,a5
	lw	a4,12(a5)
	lbu	a5,-17(s0)
	mv	a2,a4
	mv	a0,a5
	call	bl_pwm_init
	.loc 3 498 9
	lui	a5,%hi(__g_init_flag)
	lbu	a5,%lo(__g_init_flag)(a5)
	.loc 3 498 8
	bne	a5,zero,.L160
	.loc 3 499 23
	lui	a5,%hi(__g_init_flag)
	li	a4,1
	sb	a4,%lo(__g_init_flag)(a5)
	.loc 3 500 9
	call	loopset_pwm_hook_on_looprt
	.loc 3 501 9
	li	a2,0
	lui	a5,%hi(__loop_pwm_trigger)
	addi	a1,a5,%lo(__loop_pwm_trigger)
	li	a0,1
	call	loopset_pwm_trigger_on
.L160:
	.loc 3 504 12
	li	a5,0
.L159:
	.loc 3 505 1
	mv	a0,a5
	lw	ra,28(sp)
	.cfi_restore 1
	lw	s0,24(sp)
	.cfi_restore 8
	.cfi_def_cfa 2, 32
	addi	sp,sp,32
	.cfi_def_cfa_offset 0
	jr	ra
	.cfi_endproc
.LFE84:
	.size	hal_pwm_init, .-hal_pwm_init
	.section	.text.hal_pwm_deinit,"ax",@progbits
	.align	1
	.globl	hal_pwm_deinit
	.type	hal_pwm_deinit, @function
hal_pwm_deinit:
.LFB85:
	.loc 3 508 1
	.cfi_startproc
	addi	sp,sp,-32
	.cfi_def_cfa_offset 32
	sw	ra,28(sp)
	sw	s0,24(sp)
	.cfi_offset 1, -4
	.cfi_offset 8, -8
	addi	s0,sp,32
	.cfi_def_cfa 8, 0
	mv	a5,a0
	sb	a5,-17(s0)
	.loc 3 509 8
	lbu	a4,-17(s0)
	li	a5,4
	bleu	a4,a5,.L162
	.loc 3 510 16
	li	a5,-1
	j	.L163
.L162:
	.loc 3 512 5
	lbu	a5,-17(s0)
	mv	a0,a5
	call	hal_pwm_stop
	.loc 3 513 5
	li	a2,120
	li	a1,0
	lui	a5,%hi(__g_pwm_dev)
	addi	a0,a5,%lo(__g_pwm_dev)
	call	memset
	.loc 3 514 19
	lui	a5,%hi(__g_init_flag)
	sb	zero,%lo(__g_init_flag)(a5)
	.loc 3 516 5
	call	loopset_pwm_trigger_off
	.loc 3 517 5
	call	loopset_pwm_hook_off_looprt
	.loc 3 519 12
	li	a5,0
.L163:
	.loc 3 520 1
	mv	a0,a5
	lw	ra,28(sp)
	.cfi_restore 1
	lw	s0,24(sp)
	.cfi_restore 8
	.cfi_def_cfa 2, 32
	addi	sp,sp,32
	.cfi_def_cfa_offset 0
	jr	ra
	.cfi_endproc
.LFE85:
	.size	hal_pwm_deinit, .-hal_pwm_deinit
	.section	.rodata
	.align	2
.LC31:
	.word	1120403456
	.text
.Letext0:
	.file 5 "/home/chandu/sdk/bl602_iot_sdk/toolchain/compiler/lib/gcc/riscv32-unknown-elf/15.1.0/include/stdint-gcc.h"
	.file 6 "/home/chandu/sdk/bl602_iot_sdk/toolchain/compiler/lib/gcc/riscv32-unknown-elf/15.1.0/include/stddef.h"
	.file 7 "/home/chandu/sdk/bl602_iot_sdk/components/hal_drv/bl602_hal/hal_pwm.h"
	.file 8 "/home/chandu/sdk/bl602_iot_sdk/toolchain/compiler/riscv32-unknown-elf/include/machine/_default_types.h"
	.file 9 "/home/chandu/sdk/bl602_iot_sdk/toolchain/compiler/riscv32-unknown-elf/include/sys/_types.h"
	.file 10 "/home/chandu/sdk/bl602_iot_sdk/toolchain/compiler/riscv32-unknown-elf/include/sys/_timeval.h"
	.file 11 "/home/chandu/sdk/bl602_iot_sdk/toolchain/compiler/riscv32-unknown-elf/include/sys/_timespec.h"
	.file 12 "/home/chandu/sdk/bl602_iot_sdk/toolchain/compiler/riscv32-unknown-elf/include/sys/types.h"
	.file 13 "/home/chandu/sdk/bl602_iot_sdk/toolchain/compiler/riscv32-unknown-elf/include/sys/stat.h"
	.file 14 "/home/chandu/sdk/bl602_iot_sdk/components/fs/vfs/include/vfs_dir.h"
	.file 15 "/home/chandu/sdk/bl602_iot_sdk/components/fs/vfs/include/vfs_inode.h"
	.file 16 "/home/chandu/sdk/bl602_iot_sdk/components/fs/vfs/include/hal/soc/pwm.h"
	.file 17 "/home/chandu/sdk/bl602_iot_sdk/components/stage/yloop/include/aos/kernel.h"
	.file 18 "/home/chandu/sdk/bl602_iot_sdk/components/fs/vfs/include/device/vfs_pwm.h"
	.file 19 "/home/chandu/sdk/bl602_iot_sdk/components/sys/bloop/loopset/include/loopset_pwm.h"
	.file 20 "/home/chandu/sdk/bl602_iot_sdk/toolchain/compiler/riscv32-unknown-elf/include/string.h"
	.file 21 "/home/chandu/sdk/bl602_iot_sdk/components/freertos/include/portable.h"
	.file 22 "/home/chandu/sdk/bl602_iot_sdk/toolchain/compiler/riscv32-unknown-elf/include/stdio.h"
	.file 23 "/home/chandu/sdk/bl602_iot_sdk/components/hal_drv/bl602_hal/bl_pwm.h"
	.file 24 "/home/chandu/sdk/bl602_iot_sdk/components/stage/blfdt/inc/libfdt.h"
	.file 25 "/home/chandu/sdk/bl602_iot_sdk/components/fs/vfs/include/vfs_register.h"
	.file 26 "/home/chandu/sdk/bl602_iot_sdk/components/utils/include/utils_log.h"
	.file 27 "/home/chandu/sdk/bl602_iot_sdk/components/freertos/include/task.h"
	.section	.note.GNU-stack,"",@progbits
