	.file	"hal_boot2.c"
	.option nopic
	.attribute arch, "rv32i2p1_m2p0_f2p2_c2p0_zicsr2p0_zmmul1p0_zca1p0_zcf1p0"
	.attribute unaligned_access, 0
	.attribute stack_align, 16
	.text
.Ltext0:
	.cfi_sections	.debug_frame
	.file 0 "/home/chandu/sdk/bl602_iot_sdk/customer_app/suas_app_pqkem_gateway/build_out/hal_drv" "/home/chandu/sdk/bl602_iot_sdk/components/hal_drv/bl602_hal/hal_boot2.c"
	.section	.bss.boot2_partition_table,"aw",@nobits
	.align	2
	.type	boot2_partition_table, @object
	.size	boot2_partition_table, 600
boot2_partition_table:
	.zero	600
	.section	.text.hal_boot2_set_ptable_opt,"ax",@progbits
	.align	1
	.globl	hal_boot2_set_ptable_opt
	.type	hal_boot2_set_ptable_opt, @function
hal_boot2_set_ptable_opt:
.LFB9:
	.file 1 "/home/chandu/sdk/bl602_iot_sdk/components/hal_drv/bl602_hal/hal_boot2.c"
	.loc 1 58 1
	.cfi_startproc
	addi	sp,sp,-32
	.cfi_def_cfa_offset 32
	sw	ra,28(sp)
	sw	s0,24(sp)
	.cfi_offset 1, -4
	.cfi_offset 8, -8
	addi	s0,sp,32
	.cfi_def_cfa 8, 0
	sw	a0,-20(s0)
	sw	a1,-24(s0)
	.loc 1 59 5
	lw	a1,-24(s0)
	lw	a0,-20(s0)
	call	PtTable_Set_Flash_Operation
	.loc 1 60 1
	nop
	lw	ra,28(sp)
	.cfi_restore 1
	lw	s0,24(sp)
	.cfi_restore 8
	.cfi_def_cfa 2, 32
	addi	sp,sp,32
	.cfi_def_cfa_offset 0
	jr	ra
	.cfi_endproc
.LFE9:
	.size	hal_boot2_set_ptable_opt, .-hal_boot2_set_ptable_opt
	.section	.text.hal_boot2_update_ptable,"ax",@progbits
	.align	1
	.globl	hal_boot2_update_ptable
	.type	hal_boot2_update_ptable, @function
hal_boot2_update_ptable:
.LFB10:
	.loc 1 63 1
	.cfi_startproc
	addi	sp,sp,-48
	.cfi_def_cfa_offset 48
	sw	ra,44(sp)
	sw	s0,40(sp)
	.cfi_offset 1, -4
	.cfi_offset 8, -8
	addi	s0,sp,48
	.cfi_def_cfa 8, 0
	sw	a0,-36(s0)
	.loc 1 66 27
	lw	a5,-36(s0)
	sw	a5,-20(s0)
	.loc 1 68 36
	lw	a5,-20(s0)
	lbu	a5,2(a5)
	.loc 1 68 28
	seqz	a5,a5
	andi	a5,a5,0xff
	mv	a4,a5
	.loc 1 68 26
	lw	a5,-20(s0)
	sb	a4,2(a5)
	.loc 1 69 13
	lw	a5,-20(s0)
	lw	a5,32(a5)
	.loc 1 69 19
	addi	a4,a5,1
	lw	a5,-20(s0)
	sw	a4,32(a5)
	.loc 1 70 58
	lui	a5,%hi(boot2_partition_table)
	addi	a5,a5,%lo(boot2_partition_table)
	lbu	a5,0(a5)
	.loc 1 70 11
	seqz	a5,a5
	andi	a5,a5,0xff
	mv	a4,a5
	lw	a3,-20(s0)
	lui	a5,%hi(boot2_partition_table+4)
	addi	a2,a5,%lo(boot2_partition_table+4)
	mv	a1,a4
	li	a0,0
	call	PtTable_Update_Entry
	mv	a5,a0
	.loc 1 70 9 discriminator 1
	sw	a5,-24(s0)
	.loc 1 71 12
	lw	a5,-24(s0)
	.loc 1 72 1
	mv	a0,a5
	lw	ra,44(sp)
	.cfi_restore 1
	lw	s0,40(sp)
	.cfi_restore 8
	.cfi_def_cfa 2, 48
	addi	sp,sp,48
	.cfi_def_cfa_offset 0
	jr	ra
	.cfi_endproc
.LFE10:
	.size	hal_boot2_update_ptable, .-hal_boot2_update_ptable
	.section	.text._dump_partition,"ax",@progbits
	.align	1
	.type	_dump_partition, @function
_dump_partition:
.LFB11:
	.loc 1 75 1
	.cfi_startproc
	addi	sp,sp,-32
	.cfi_def_cfa_offset 32
	sw	ra,28(sp)
	sw	s0,24(sp)
	.cfi_offset 1, -4
	.cfi_offset 8, -8
	addi	s0,sp,32
	.cfi_def_cfa 8, 0
	.loc 1 77 27
	lui	a5,%hi(boot2_partition_table+4)
	addi	a5,a5,%lo(boot2_partition_table+4)
	sw	a5,-24(s0)
	.loc 1 90 12
	sw	zero,-20(s0)
	.loc 1 90 5
	j	.L5
.L6:
	.loc 1 90 46 discriminator 3
	lw	a5,-20(s0)
	addi	a5,a5,1
	sw	a5,-20(s0)
.L5:
	.loc 1 90 34 discriminator 1
	lw	a5,-24(s0)
	lhu	a5,6(a5)
	mv	a4,a5
	.loc 1 90 19 discriminator 1
	lw	a5,-20(s0)
	blt	a5,a4,.L6
	.loc 1 102 1
	nop
	nop
	lw	ra,28(sp)
	.cfi_restore 1
	lw	s0,24(sp)
	.cfi_restore 8
	.cfi_def_cfa 2, 32
	addi	sp,sp,32
	.cfi_def_cfa_offset 0
	jr	ra
	.cfi_endproc
.LFE11:
	.size	_dump_partition, .-_dump_partition
	.section	.text.hal_boot2_get_flash_addr,"ax",@progbits
	.align	1
	.globl	hal_boot2_get_flash_addr
	.type	hal_boot2_get_flash_addr, @function
hal_boot2_get_flash_addr:
.LFB12:
	.loc 1 105 1
	.cfi_startproc
	addi	sp,sp,-16
	.cfi_def_cfa_offset 16
	sw	ra,12(sp)
	sw	s0,8(sp)
	.cfi_offset 1, -4
	.cfi_offset 8, -8
	addi	s0,sp,16
	.cfi_def_cfa 8, 0
	.loc 1 109 100
	lui	a5,%hi(boot2_partition_table)
	addi	a5,a5,%lo(boot2_partition_table)
	lhu	a5,10(a5)
	mv	a4,a5
	.loc 1 109 63
	mv	a5,a4
	slli	a5,a5,3
	add	a5,a5,a4
	slli	a5,a5,2
	mv	a4,a5
	.loc 1 108 45
	lui	a5,%hi(__boot2_flashCfg_src)
	addi	a5,a5,%lo(__boot2_flashCfg_src)
	add	a5,a4,a5
	.loc 1 110 1
	mv	a0,a5
	lw	ra,12(sp)
	.cfi_restore 1
	lw	s0,8(sp)
	.cfi_restore 8
	.cfi_def_cfa 2, 16
	addi	sp,sp,16
	.cfi_def_cfa_offset 0
	jr	ra
	.cfi_endproc
.LFE12:
	.size	hal_boot2_get_flash_addr, .-hal_boot2_get_flash_addr
	.section	.rodata
	.align	2
.LC0:
	.string	"FW"
	.section	.text.hal_boot2_partition_bus_addr,"ax",@progbits
	.align	1
	.globl	hal_boot2_partition_bus_addr
	.type	hal_boot2_partition_bus_addr, @function
hal_boot2_partition_bus_addr:
.LFB13:
	.loc 1 114 1
	.cfi_startproc
	addi	sp,sp,-64
	.cfi_def_cfa_offset 64
	sw	ra,60(sp)
	sw	s0,56(sp)
	.cfi_offset 1, -4
	.cfi_offset 8, -8
	addi	s0,sp,64
	.cfi_def_cfa 8, 0
	sw	a0,-36(s0)
	sw	a1,-40(s0)
	sw	a2,-44(s0)
	sw	a3,-48(s0)
	sw	a4,-52(s0)
	sw	a5,-56(s0)
	.loc 1 118 60
	lui	a5,%hi(boot2_partition_table)
	addi	a5,a5,%lo(boot2_partition_table)
	lw	a4,4(a5)
	.loc 1 118 8
	li	a5,1414545408
	addi	a5,a5,1602
	beq	a4,a5,.L10
	.loc 1 119 16
	li	a5,-5
	j	.L11
.L10:
	.loc 1 123 12
	sw	zero,-20(s0)
	.loc 1 123 5
	j	.L12
.L15:
	.loc 1 124 33
	lw	a4,-20(s0)
	mv	a5,a4
	slli	a5,a5,3
	add	a5,a5,a4
	slli	a5,a5,2
	addi	a4,a5,16
	lui	a5,%hi(boot2_partition_table)
	addi	a5,a5,%lo(boot2_partition_table)
	add	a5,a4,a5
	addi	a5,a5,7
	.loc 1 124 18
	lw	a1,-36(s0)
	mv	a0,a5
	call	strcmp
	mv	a5,a0
	.loc 1 124 12 discriminator 1
	beq	a5,zero,.L28
	.loc 1 123 68 discriminator 2
	lw	a5,-20(s0)
	addi	a5,a5,1
	sw	a5,-20(s0)
.L12:
	.loc 1 123 56 discriminator 1
	lui	a5,%hi(boot2_partition_table)
	addi	a5,a5,%lo(boot2_partition_table)
	lhu	a5,10(a5)
	mv	a4,a5
	.loc 1 123 19 discriminator 1
	lw	a5,-20(s0)
	blt	a5,a4,.L15
	j	.L14
.L28:
	.loc 1 125 13
	nop
.L14:
	.loc 1 128 44
	lui	a5,%hi(boot2_partition_table)
	addi	a5,a5,%lo(boot2_partition_table)
	lhu	a5,10(a5)
	mv	a4,a5
	.loc 1 128 8
	lw	a5,-20(s0)
	bne	a5,a4,.L16
	.loc 1 129 16
	li	a5,-2
	j	.L11
.L16:
	.loc 1 131 13
	lui	a5,%hi(boot2_partition_table)
	addi	a3,a5,%lo(boot2_partition_table)
	lw	a4,-20(s0)
	mv	a5,a4
	slli	a5,a5,3
	add	a5,a5,a4
	slli	a5,a5,2
	add	a5,a3,a5
	lw	a5,32(a5)
	sw	a5,-24(s0)
	.loc 1 132 13
	lui	a5,%hi(boot2_partition_table)
	addi	a3,a5,%lo(boot2_partition_table)
	lw	a4,-20(s0)
	mv	a5,a4
	slli	a5,a5,3
	add	a5,a5,a4
	slli	a5,a5,2
	add	a5,a3,a5
	lw	a5,36(a5)
	sw	a5,-28(s0)
	.loc 1 133 55
	lui	a5,%hi(boot2_partition_table)
	addi	a3,a5,%lo(boot2_partition_table)
	lw	a4,-20(s0)
	mv	a5,a4
	slli	a5,a5,3
	add	a5,a5,a4
	slli	a5,a5,2
	add	a5,a3,a5
	lbu	a5,22(a5)
	mv	a4,a5
	.loc 1 133 13
	lw	a5,-56(s0)
	sw	a4,0(a5)
	.loc 1 134 61
	lui	a5,%hi(boot2_partition_table)
	addi	a3,a5,%lo(boot2_partition_table)
	lw	a4,-20(s0)
	mv	a5,a4
	slli	a5,a5,3
	add	a5,a5,a4
	slli	a5,a5,2
	add	a5,a3,a5
	lw	a4,40(a5)
	.loc 1 134 12
	lw	a5,-48(s0)
	sw	a4,0(a5)
	.loc 1 135 61
	lui	a5,%hi(boot2_partition_table)
	addi	a3,a5,%lo(boot2_partition_table)
	lw	a5,-20(s0)
	addi	a4,a5,1
	mv	a5,a4
	slli	a5,a5,3
	add	a5,a5,a4
	slli	a5,a5,2
	add	a5,a3,a5
	lw	a4,8(a5)
	.loc 1 135 12
	lw	a5,-52(s0)
	sw	a4,0(a5)
	.loc 1 138 12
	sw	zero,-20(s0)
	.loc 1 138 5
	j	.L17
.L20:
	.loc 1 139 33
	lw	a4,-20(s0)
	mv	a5,a4
	slli	a5,a5,3
	add	a5,a5,a4
	slli	a5,a5,2
	addi	a4,a5,16
	lui	a5,%hi(boot2_partition_table)
	addi	a5,a5,%lo(boot2_partition_table)
	add	a5,a4,a5
	addi	a4,a5,7
	.loc 1 139 18
	lui	a5,%hi(.LC0)
	addi	a1,a5,%lo(.LC0)
	mv	a0,a4
	call	strcmp
	mv	a5,a0
	.loc 1 139 12 discriminator 1
	beq	a5,zero,.L29
	.loc 1 138 68 discriminator 2
	lw	a5,-20(s0)
	addi	a5,a5,1
	sw	a5,-20(s0)
.L17:
	.loc 1 138 56 discriminator 1
	lui	a5,%hi(boot2_partition_table)
	addi	a5,a5,%lo(boot2_partition_table)
	lhu	a5,10(a5)
	mv	a4,a5
	.loc 1 138 19 discriminator 1
	lw	a5,-20(s0)
	blt	a5,a4,.L20
	j	.L19
.L29:
	.loc 1 140 13
	nop
.L19:
	.loc 1 143 44
	lui	a5,%hi(boot2_partition_table)
	addi	a5,a5,%lo(boot2_partition_table)
	lhu	a5,10(a5)
	mv	a4,a5
	.loc 1 143 8
	lw	a5,-20(s0)
	bne	a5,a4,.L21
	.loc 1 144 16
	li	a5,-140
	j	.L11
.L21:
	.loc 1 147 8
	lw	a5,-24(s0)
	beq	a5,zero,.L22
	.loc 1 147 81 discriminator 1
	lui	a5,%hi(boot2_partition_table)
	addi	a3,a5,%lo(boot2_partition_table)
	lw	a4,-20(s0)
	mv	a5,a4
	slli	a5,a5,3
	add	a5,a5,a4
	slli	a5,a5,2
	add	a5,a3,a5
	lw	a5,32(a5)
	.loc 1 147 19 discriminator 1
	lw	a4,-24(s0)
	bltu	a4,a5,.L23
.L22:
	.loc 1 147 87 discriminator 3
	lw	a5,-24(s0)
	beq	a5,zero,.L24
	.loc 1 148 81
	lui	a5,%hi(boot2_partition_table)
	addi	a3,a5,%lo(boot2_partition_table)
	lw	a4,-20(s0)
	mv	a5,a4
	slli	a5,a5,3
	add	a5,a5,a4
	slli	a5,a5,2
	add	a5,a3,a5
	lw	a5,36(a5)
	.loc 1 148 19
	lw	a4,-24(s0)
	bltu	a4,a5,.L23
.L24:
	.loc 1 148 87 discriminator 1
	lw	a5,-28(s0)
	beq	a5,zero,.L25
	.loc 1 149 81
	lui	a5,%hi(boot2_partition_table)
	addi	a3,a5,%lo(boot2_partition_table)
	lw	a4,-20(s0)
	mv	a5,a4
	slli	a5,a5,3
	add	a5,a5,a4
	slli	a5,a5,2
	add	a5,a3,a5
	lw	a5,32(a5)
	.loc 1 149 19
	lw	a4,-28(s0)
	bltu	a4,a5,.L23
.L25:
	.loc 1 149 87 discriminator 1
	lw	a5,-28(s0)
	beq	a5,zero,.L26
	.loc 1 150 81
	lui	a5,%hi(boot2_partition_table)
	addi	a3,a5,%lo(boot2_partition_table)
	lw	a4,-20(s0)
	mv	a5,a4
	slli	a5,a5,3
	add	a5,a5,a4
	slli	a5,a5,2
	add	a5,a3,a5
	lw	a5,36(a5)
	.loc 1 150 19
	lw	a4,-28(s0)
	bgeu	a4,a5,.L26
.L23:
	.loc 1 151 16
	li	a5,-22
	j	.L11
.L26:
	.loc 1 153 55
	lui	a5,%hi(boot2_partition_table)
	addi	a3,a5,%lo(boot2_partition_table)
	lw	a4,-20(s0)
	mv	a5,a4
	slli	a5,a5,3
	add	a5,a5,a4
	slli	a5,a5,2
	add	a5,a3,a5
	lbu	a5,22(a5)
	.loc 1 153 8
	beq	a5,zero,.L27
	.loc 1 154 55
	lui	a5,%hi(boot2_partition_table)
	addi	a3,a5,%lo(boot2_partition_table)
	lw	a4,-20(s0)
	mv	a5,a4
	slli	a5,a5,3
	add	a5,a5,a4
	slli	a5,a5,2
	add	a5,a3,a5
	lbu	a4,22(a5)
	.loc 1 153 69 discriminator 1
	li	a5,1
	beq	a4,a5,.L27
	.loc 1 155 16
	li	a5,-14
	j	.L11
.L27:
	.loc 1 157 113
	lui	a5,%hi(boot2_partition_table)
	addi	a3,a5,%lo(boot2_partition_table)
	lw	a4,-20(s0)
	mv	a5,a4
	slli	a5,a5,3
	add	a5,a5,a4
	slli	a5,a5,2
	add	a5,a3,a5
	lbu	a5,22(a5)
	mv	a2,a5
	.loc 1 157 72
	lui	a5,%hi(boot2_partition_table)
	addi	a3,a5,%lo(boot2_partition_table)
	lw	a4,-20(s0)
	mv	a5,a4
	slli	a5,a5,3
	add	a5,a5,a4
	add	a5,a5,a2
	addi	a5,a5,4
	slli	a5,a5,2
	add	a5,a3,a5
	lw	a5,16(a5)
	.loc 1 157 22
	lw	a4,-24(s0)
	sub	a4,a4,a5
	.loc 1 157 138
	li	a5,587198464
	add	a4,a4,a5
	.loc 1 157 12
	lw	a5,-40(s0)
	sw	a4,0(a5)
	.loc 1 158 113
	lui	a5,%hi(boot2_partition_table)
	addi	a3,a5,%lo(boot2_partition_table)
	lw	a4,-20(s0)
	mv	a5,a4
	slli	a5,a5,3
	add	a5,a5,a4
	slli	a5,a5,2
	add	a5,a3,a5
	lbu	a5,22(a5)
	mv	a2,a5
	.loc 1 158 72
	lui	a5,%hi(boot2_partition_table)
	addi	a3,a5,%lo(boot2_partition_table)
	lw	a4,-20(s0)
	mv	a5,a4
	slli	a5,a5,3
	add	a5,a5,a4
	add	a5,a5,a2
	addi	a5,a5,4
	slli	a5,a5,2
	add	a5,a3,a5
	lw	a5,16(a5)
	.loc 1 158 22
	lw	a4,-28(s0)
	sub	a4,a4,a5
	.loc 1 158 138
	li	a5,587198464
	add	a4,a4,a5
	.loc 1 158 12
	lw	a5,-44(s0)
	sw	a4,0(a5)
	.loc 1 160 12
	li	a5,0
.L11:
	.loc 1 161 1
	mv	a0,a5
	lw	ra,60(sp)
	.cfi_restore 1
	lw	s0,56(sp)
	.cfi_restore 8
	.cfi_def_cfa 2, 64
	addi	sp,sp,64
	.cfi_def_cfa_offset 0
	jr	ra
	.cfi_endproc
.LFE13:
	.size	hal_boot2_partition_bus_addr, .-hal_boot2_partition_bus_addr
	.section	.text.hal_boot2_partition_bus_addr_active,"ax",@progbits
	.align	1
	.globl	hal_boot2_partition_bus_addr_active
	.type	hal_boot2_partition_bus_addr_active, @function
hal_boot2_partition_bus_addr_active:
.LFB14:
	.loc 1 164 1
	.cfi_startproc
	addi	sp,sp,-64
	.cfi_def_cfa_offset 64
	sw	ra,60(sp)
	sw	s0,56(sp)
	.cfi_offset 1, -4
	.cfi_offset 8, -8
	addi	s0,sp,64
	.cfi_def_cfa 8, 0
	sw	a0,-52(s0)
	sw	a1,-56(s0)
	sw	a2,-60(s0)
	.loc 1 169 16
	addi	a5,s0,-40
	addi	a4,s0,-36
	addi	a3,s0,-32
	addi	a2,s0,-28
	addi	a1,s0,-24
	lw	a0,-52(s0)
	call	hal_boot2_partition_bus_addr
	sw	a0,-20(s0)
	.loc 1 169 8 discriminator 1
	lw	a5,-20(s0)
	beq	a5,zero,.L31
	.loc 1 170 16
	lw	a5,-20(s0)
	j	.L37
.L31:
	.loc 1 172 20
	lw	a5,-40(s0)
	.loc 1 172 28
	beq	a5,zero,.L33
	.loc 1 172 28 is_stmt 0 discriminator 1
	lw	a5,-28(s0)
	j	.L34
.L33:
	.loc 1 172 28 discriminator 2
	lw	a5,-24(s0)
.L34:
	.loc 1 172 11 is_stmt 1 discriminator 4
	lw	a4,-56(s0)
	sw	a5,0(a4)
	.loc 1 173 20
	lw	a5,-40(s0)
	.loc 1 173 28
	beq	a5,zero,.L35
	.loc 1 173 28 is_stmt 0 discriminator 1
	lw	a5,-36(s0)
	j	.L36
.L35:
	.loc 1 173 28 discriminator 2
	lw	a5,-32(s0)
.L36:
	.loc 1 173 11 is_stmt 1 discriminator 4
	lw	a4,-60(s0)
	sw	a5,0(a4)
	.loc 1 175 12
	li	a5,0
.L37:
	.loc 1 176 1
	mv	a0,a5
	lw	ra,60(sp)
	.cfi_restore 1
	lw	s0,56(sp)
	.cfi_restore 8
	.cfi_def_cfa 2, 64
	addi	sp,sp,64
	.cfi_def_cfa_offset 0
	jr	ra
	.cfi_endproc
.LFE14:
	.size	hal_boot2_partition_bus_addr_active, .-hal_boot2_partition_bus_addr_active
	.section	.text.hal_boot2_partition_bus_addr_inactive,"ax",@progbits
	.align	1
	.globl	hal_boot2_partition_bus_addr_inactive
	.type	hal_boot2_partition_bus_addr_inactive, @function
hal_boot2_partition_bus_addr_inactive:
.LFB15:
	.loc 1 179 1
	.cfi_startproc
	addi	sp,sp,-64
	.cfi_def_cfa_offset 64
	sw	ra,60(sp)
	sw	s0,56(sp)
	.cfi_offset 1, -4
	.cfi_offset 8, -8
	addi	s0,sp,64
	.cfi_def_cfa 8, 0
	sw	a0,-52(s0)
	sw	a1,-56(s0)
	sw	a2,-60(s0)
	.loc 1 184 16
	addi	a5,s0,-40
	addi	a4,s0,-36
	addi	a3,s0,-32
	addi	a2,s0,-28
	addi	a1,s0,-24
	lw	a0,-52(s0)
	call	hal_boot2_partition_bus_addr
	sw	a0,-20(s0)
	.loc 1 184 8 discriminator 1
	lw	a5,-20(s0)
	beq	a5,zero,.L39
	.loc 1 185 16
	lw	a5,-20(s0)
	j	.L45
.L39:
	.loc 1 187 20
	lw	a5,-40(s0)
	.loc 1 187 28
	beq	a5,zero,.L41
	.loc 1 187 28 is_stmt 0 discriminator 1
	lw	a5,-24(s0)
	j	.L42
.L41:
	.loc 1 187 28 discriminator 2
	lw	a5,-28(s0)
.L42:
	.loc 1 187 11 is_stmt 1 discriminator 4
	lw	a4,-56(s0)
	sw	a5,0(a4)
	.loc 1 188 20
	lw	a5,-40(s0)
	.loc 1 188 28
	beq	a5,zero,.L43
	.loc 1 188 28 is_stmt 0 discriminator 1
	lw	a5,-32(s0)
	j	.L44
.L43:
	.loc 1 188 28 discriminator 2
	lw	a5,-36(s0)
.L44:
	.loc 1 188 11 is_stmt 1 discriminator 4
	lw	a4,-60(s0)
	sw	a5,0(a4)
	.loc 1 190 12
	li	a5,0
.L45:
	.loc 1 191 1
	mv	a0,a5
	lw	ra,60(sp)
	.cfi_restore 1
	lw	s0,56(sp)
	.cfi_restore 8
	.cfi_def_cfa 2, 64
	addi	sp,sp,64
	.cfi_def_cfa_offset 0
	jr	ra
	.cfi_endproc
.LFE15:
	.size	hal_boot2_partition_bus_addr_inactive, .-hal_boot2_partition_bus_addr_inactive
	.section	.text.hal_boot2_partition_addr,"ax",@progbits
	.align	1
	.globl	hal_boot2_partition_addr
	.type	hal_boot2_partition_addr, @function
hal_boot2_partition_addr:
.LFB16:
	.loc 1 194 1
	.cfi_startproc
	addi	sp,sp,-64
	.cfi_def_cfa_offset 64
	sw	ra,60(sp)
	sw	s0,56(sp)
	.cfi_offset 1, -4
	.cfi_offset 8, -8
	addi	s0,sp,64
	.cfi_def_cfa 8, 0
	sw	a0,-36(s0)
	sw	a1,-40(s0)
	sw	a2,-44(s0)
	sw	a3,-48(s0)
	sw	a4,-52(s0)
	sw	a5,-56(s0)
	.loc 1 197 60
	lui	a5,%hi(boot2_partition_table)
	addi	a5,a5,%lo(boot2_partition_table)
	lw	a4,4(a5)
	.loc 1 197 8
	li	a5,1414545408
	addi	a5,a5,1602
	beq	a4,a5,.L47
	.loc 1 198 16
	li	a5,-5
	j	.L48
.L47:
	.loc 1 202 12
	sw	zero,-20(s0)
	.loc 1 202 5
	j	.L49
.L52:
	.loc 1 203 33
	lw	a4,-20(s0)
	mv	a5,a4
	slli	a5,a5,3
	add	a5,a5,a4
	slli	a5,a5,2
	addi	a4,a5,16
	lui	a5,%hi(boot2_partition_table)
	addi	a5,a5,%lo(boot2_partition_table)
	add	a5,a4,a5
	addi	a5,a5,7
	.loc 1 203 18
	lw	a1,-36(s0)
	mv	a0,a5
	call	strcmp
	mv	a5,a0
	.loc 1 203 12 discriminator 1
	beq	a5,zero,.L54
	.loc 1 202 68 discriminator 2
	lw	a5,-20(s0)
	addi	a5,a5,1
	sw	a5,-20(s0)
.L49:
	.loc 1 202 56 discriminator 1
	lui	a5,%hi(boot2_partition_table)
	addi	a5,a5,%lo(boot2_partition_table)
	lhu	a5,10(a5)
	mv	a4,a5
	.loc 1 202 19 discriminator 1
	lw	a5,-20(s0)
	blt	a5,a4,.L52
	j	.L51
.L54:
	.loc 1 204 13
	nop
.L51:
	.loc 1 207 44
	lui	a5,%hi(boot2_partition_table)
	addi	a5,a5,%lo(boot2_partition_table)
	lhu	a5,10(a5)
	mv	a4,a5
	.loc 1 207 8
	lw	a5,-20(s0)
	bne	a5,a4,.L53
	.loc 1 208 16
	li	a5,-2
	j	.L48
.L53:
	.loc 1 210 62
	lui	a5,%hi(boot2_partition_table)
	addi	a3,a5,%lo(boot2_partition_table)
	lw	a4,-20(s0)
	mv	a5,a4
	slli	a5,a5,3
	add	a5,a5,a4
	slli	a5,a5,2
	add	a5,a3,a5
	lw	a4,32(a5)
	.loc 1 210 12
	lw	a5,-40(s0)
	sw	a4,0(a5)
	.loc 1 211 62
	lui	a5,%hi(boot2_partition_table)
	addi	a3,a5,%lo(boot2_partition_table)
	lw	a4,-20(s0)
	mv	a5,a4
	slli	a5,a5,3
	add	a5,a5,a4
	slli	a5,a5,2
	add	a5,a3,a5
	lw	a4,36(a5)
	.loc 1 211 12
	lw	a5,-44(s0)
	sw	a4,0(a5)
	.loc 1 212 61
	lui	a5,%hi(boot2_partition_table)
	addi	a3,a5,%lo(boot2_partition_table)
	lw	a4,-20(s0)
	mv	a5,a4
	slli	a5,a5,3
	add	a5,a5,a4
	slli	a5,a5,2
	add	a5,a3,a5
	lw	a4,40(a5)
	.loc 1 212 12
	lw	a5,-48(s0)
	sw	a4,0(a5)
	.loc 1 213 61
	lui	a5,%hi(boot2_partition_table)
	addi	a3,a5,%lo(boot2_partition_table)
	lw	a5,-20(s0)
	addi	a4,a5,1
	mv	a5,a4
	slli	a5,a5,3
	add	a5,a5,a4
	slli	a5,a5,2
	add	a5,a3,a5
	lw	a4,8(a5)
	.loc 1 213 12
	lw	a5,-52(s0)
	sw	a4,0(a5)
	.loc 1 214 55
	lui	a5,%hi(boot2_partition_table)
	addi	a3,a5,%lo(boot2_partition_table)
	lw	a4,-20(s0)
	mv	a5,a4
	slli	a5,a5,3
	add	a5,a5,a4
	slli	a5,a5,2
	add	a5,a3,a5
	lbu	a5,22(a5)
	mv	a4,a5
	.loc 1 214 13
	lw	a5,-56(s0)
	sw	a4,0(a5)
	.loc 1 216 12
	li	a5,0
.L48:
	.loc 1 217 1
	mv	a0,a5
	lw	ra,60(sp)
	.cfi_restore 1
	lw	s0,56(sp)
	.cfi_restore 8
	.cfi_def_cfa 2, 64
	addi	sp,sp,64
	.cfi_def_cfa_offset 0
	jr	ra
	.cfi_endproc
.LFE16:
	.size	hal_boot2_partition_addr, .-hal_boot2_partition_addr
	.section	.text.hal_boot2_partition_addr_active,"ax",@progbits
	.align	1
	.globl	hal_boot2_partition_addr_active
	.type	hal_boot2_partition_addr_active, @function
hal_boot2_partition_addr_active:
.LFB17:
	.loc 1 220 1
	.cfi_startproc
	addi	sp,sp,-64
	.cfi_def_cfa_offset 64
	sw	ra,60(sp)
	sw	s0,56(sp)
	.cfi_offset 1, -4
	.cfi_offset 8, -8
	addi	s0,sp,64
	.cfi_def_cfa 8, 0
	sw	a0,-52(s0)
	sw	a1,-56(s0)
	sw	a2,-60(s0)
	.loc 1 225 16
	addi	a5,s0,-40
	addi	a4,s0,-36
	addi	a3,s0,-32
	addi	a2,s0,-28
	addi	a1,s0,-24
	lw	a0,-52(s0)
	call	hal_boot2_partition_addr
	sw	a0,-20(s0)
	.loc 1 225 8 discriminator 1
	lw	a5,-20(s0)
	beq	a5,zero,.L56
	.loc 1 226 16
	lw	a5,-20(s0)
	j	.L62
.L56:
	.loc 1 228 20
	lw	a5,-40(s0)
	.loc 1 228 28
	beq	a5,zero,.L58
	.loc 1 228 28 is_stmt 0 discriminator 1
	lw	a5,-28(s0)
	j	.L59
.L58:
	.loc 1 228 28 discriminator 2
	lw	a5,-24(s0)
.L59:
	.loc 1 228 11 is_stmt 1 discriminator 4
	lw	a4,-56(s0)
	sw	a5,0(a4)
	.loc 1 229 20
	lw	a5,-40(s0)
	.loc 1 229 28
	beq	a5,zero,.L60
	.loc 1 229 28 is_stmt 0 discriminator 1
	lw	a5,-36(s0)
	j	.L61
.L60:
	.loc 1 229 28 discriminator 2
	lw	a5,-32(s0)
.L61:
	.loc 1 229 11 is_stmt 1 discriminator 4
	lw	a4,-60(s0)
	sw	a5,0(a4)
	.loc 1 231 12
	li	a5,0
.L62:
	.loc 1 232 1
	mv	a0,a5
	lw	ra,60(sp)
	.cfi_restore 1
	lw	s0,56(sp)
	.cfi_restore 8
	.cfi_def_cfa 2, 64
	addi	sp,sp,64
	.cfi_def_cfa_offset 0
	jr	ra
	.cfi_endproc
.LFE17:
	.size	hal_boot2_partition_addr_active, .-hal_boot2_partition_addr_active
	.section	.text.hal_boot2_partition_addr_inactive,"ax",@progbits
	.align	1
	.globl	hal_boot2_partition_addr_inactive
	.type	hal_boot2_partition_addr_inactive, @function
hal_boot2_partition_addr_inactive:
.LFB18:
	.loc 1 235 1
	.cfi_startproc
	addi	sp,sp,-64
	.cfi_def_cfa_offset 64
	sw	ra,60(sp)
	sw	s0,56(sp)
	.cfi_offset 1, -4
	.cfi_offset 8, -8
	addi	s0,sp,64
	.cfi_def_cfa 8, 0
	sw	a0,-52(s0)
	sw	a1,-56(s0)
	sw	a2,-60(s0)
	.loc 1 240 16
	addi	a5,s0,-40
	addi	a4,s0,-36
	addi	a3,s0,-32
	addi	a2,s0,-28
	addi	a1,s0,-24
	lw	a0,-52(s0)
	call	hal_boot2_partition_addr
	sw	a0,-20(s0)
	.loc 1 240 8 discriminator 1
	lw	a5,-20(s0)
	beq	a5,zero,.L64
	.loc 1 241 16
	lw	a5,-20(s0)
	j	.L70
.L64:
	.loc 1 243 20
	lw	a5,-40(s0)
	.loc 1 243 28
	beq	a5,zero,.L66
	.loc 1 243 28 is_stmt 0 discriminator 1
	lw	a5,-24(s0)
	j	.L67
.L66:
	.loc 1 243 28 discriminator 2
	lw	a5,-28(s0)
.L67:
	.loc 1 243 11 is_stmt 1 discriminator 4
	lw	a4,-56(s0)
	sw	a5,0(a4)
	.loc 1 244 20
	lw	a5,-40(s0)
	.loc 1 244 28
	beq	a5,zero,.L68
	.loc 1 244 28 is_stmt 0 discriminator 1
	lw	a5,-32(s0)
	j	.L69
.L68:
	.loc 1 244 28 discriminator 2
	lw	a5,-36(s0)
.L69:
	.loc 1 244 11 is_stmt 1 discriminator 4
	lw	a4,-60(s0)
	sw	a5,0(a4)
	.loc 1 246 12
	li	a5,0
.L70:
	.loc 1 247 1
	mv	a0,a5
	lw	ra,60(sp)
	.cfi_restore 1
	lw	s0,56(sp)
	.cfi_restore 8
	.cfi_def_cfa 2, 64
	addi	sp,sp,64
	.cfi_def_cfa_offset 0
	jr	ra
	.cfi_endproc
.LFE18:
	.size	hal_boot2_partition_addr_inactive, .-hal_boot2_partition_addr_inactive
	.section	.text.hal_boot2_get_active_partition,"ax",@progbits
	.align	1
	.globl	hal_boot2_get_active_partition
	.type	hal_boot2_get_active_partition, @function
hal_boot2_get_active_partition:
.LFB19:
	.loc 1 250 1
	.cfi_startproc
	addi	sp,sp,-16
	.cfi_def_cfa_offset 16
	sw	ra,12(sp)
	sw	s0,8(sp)
	.cfi_offset 1, -4
	.cfi_offset 8, -8
	addi	s0,sp,16
	.cfi_def_cfa 8, 0
	.loc 1 251 33
	lui	a5,%hi(boot2_partition_table)
	addi	a5,a5,%lo(boot2_partition_table)
	lbu	a5,0(a5)
	.loc 1 252 1
	mv	a0,a5
	lw	ra,12(sp)
	.cfi_restore 1
	lw	s0,8(sp)
	.cfi_restore 8
	.cfi_def_cfa 2, 16
	addi	sp,sp,16
	.cfi_def_cfa_offset 0
	jr	ra
	.cfi_endproc
.LFE19:
	.size	hal_boot2_get_active_partition, .-hal_boot2_get_active_partition
	.section	.text.hal_boot2_get_active_entries,"ax",@progbits
	.align	1
	.globl	hal_boot2_get_active_entries
	.type	hal_boot2_get_active_entries, @function
hal_boot2_get_active_entries:
.LFB20:
	.loc 1 255 1
	.cfi_startproc
	addi	sp,sp,-48
	.cfi_def_cfa_offset 48
	sw	ra,44(sp)
	sw	s0,40(sp)
	.cfi_offset 1, -4
	.cfi_offset 8, -8
	addi	s0,sp,48
	.cfi_def_cfa 8, 0
	sw	a0,-36(s0)
	sw	a1,-40(s0)
	.loc 1 256 27
	lw	a5,-40(s0)
	sw	a5,-20(s0)
	.loc 1 257 9
	lw	a5,-36(s0)
	andi	a5,a5,0xff
	lw	a2,-20(s0)
	mv	a1,a5
	lui	a5,%hi(boot2_partition_table+4)
	addi	a0,a5,%lo(boot2_partition_table+4)
	call	PtTable_Get_Active_Entries
	mv	a5,a0
	.loc 1 257 8 discriminator 1
	beq	a5,zero,.L74
	.loc 1 258 16
	li	a5,-1
	j	.L75
.L74:
	.loc 1 260 12
	li	a5,0
.L75:
	.loc 1 261 1
	mv	a0,a5
	lw	ra,44(sp)
	.cfi_restore 1
	lw	s0,40(sp)
	.cfi_restore 8
	.cfi_def_cfa 2, 48
	addi	sp,sp,48
	.cfi_def_cfa_offset 0
	jr	ra
	.cfi_endproc
.LFE20:
	.size	hal_boot2_get_active_entries, .-hal_boot2_get_active_entries
	.section	.text.hal_boot2_dump,"ax",@progbits
	.align	1
	.globl	hal_boot2_dump
	.type	hal_boot2_dump, @function
hal_boot2_dump:
.LFB21:
	.loc 1 264 1
	.cfi_startproc
	addi	sp,sp,-16
	.cfi_def_cfa_offset 16
	sw	ra,12(sp)
	sw	s0,8(sp)
	.cfi_offset 1, -4
	.cfi_offset 8, -8
	addi	s0,sp,16
	.cfi_def_cfa 8, 0
	.loc 1 265 5
	call	_dump_partition
	.loc 1 266 12
	li	a5,0
	.loc 1 267 1
	mv	a0,a5
	lw	ra,12(sp)
	.cfi_restore 1
	lw	s0,8(sp)
	.cfi_restore 8
	.cfi_def_cfa 2, 16
	addi	sp,sp,16
	.cfi_def_cfa_offset 0
	jr	ra
	.cfi_endproc
.LFE21:
	.size	hal_boot2_dump, .-hal_boot2_dump
	.section	.text.hal_boot2_init,"ax",@progbits
	.align	1
	.globl	hal_boot2_init
	.type	hal_boot2_init, @function
hal_boot2_init:
.LFB22:
	.loc 1 270 1
	.cfi_startproc
	addi	sp,sp,-16
	.cfi_def_cfa_offset 16
	sw	ra,12(sp)
	sw	s0,8(sp)
	.cfi_offset 1, -4
	.cfi_offset 8, -8
	addi	s0,sp,16
	.cfi_def_cfa 8, 0
	.loc 1 271 50
	li	a5,1107599360
	addi	a5,a5,-1024
	lbu	a4,0(a5)
	.loc 1 271 48
	lui	a5,%hi(boot2_partition_table)
	addi	a5,a5,%lo(boot2_partition_table)
	sb	a4,0(a5)
	.loc 1 277 5
	call	_dump_partition
	.loc 1 278 5
	call	bl_flash_config_update
	.loc 1 280 12
	li	a5,0
	.loc 1 281 1
	mv	a0,a5
	lw	ra,12(sp)
	.cfi_restore 1
	lw	s0,8(sp)
	.cfi_restore 8
	.cfi_def_cfa 2, 16
	addi	sp,sp,16
	.cfi_def_cfa_offset 0
	jr	ra
	.cfi_endproc
.LFE22:
	.size	hal_boot2_init, .-hal_boot2_init
	.text
.Letext0:
	.file 2 "/home/chandu/sdk/bl602_iot_sdk/toolchain/compiler/lib/gcc/riscv32-unknown-elf/15.1.0/include/stdint-gcc.h"
	.file 3 "/home/chandu/sdk/bl602_iot_sdk/components/bl602/bl602_std/bl602_std/StdDriver/Inc/bl602_common.h"
	.file 4 "/home/chandu/sdk/bl602_iot_sdk/components/bl602/bl602_std/bl602_std/StdDriver/Inc/bl602_sflash.h"
	.file 5 "/home/chandu/sdk/bl602_iot_sdk/components/hal_drv/bl602_hal/bl_boot2.h"
	.file 6 "/home/chandu/sdk/bl602_iot_sdk/components/hal_drv/bl602_hal/hal_boot2.h"
	.file 7 "/home/chandu/sdk/bl602_iot_sdk/toolchain/compiler/riscv32-unknown-elf/include/string.h"
	.file 8 "/home/chandu/sdk/bl602_iot_sdk/components/hal_drv/bl602_hal/bl_flash.h"
	.section	.note.GNU-stack,"",@progbits
