	.file	"ble_lib_api.c"
	.option nopic
	.attribute arch, "rv32i2p1_m2p0_f2p2_c2p0_zicsr2p0_zmmul1p0_zca1p0_zcf1p0"
	.attribute unaligned_access, 0
	.attribute stack_align, 16
	.text
.Ltext0:
	.cfi_sections	.debug_frame
	.file 0 "/home/chandu/sdk/bl602_iot_sdk/customer_app/suas_app_pqkem_gateway/build_out/suas_app_pqkem_gateway" "/home/chandu/sdk/bl602_iot_sdk/customer_app/suas_app_pqkem_gateway/suas_app_pqkem_gateway/ble_lib_api.c"
	.section	.text.ble_rf_set_pwr_offset,"ax",@progbits
	.align	1
	.globl	ble_rf_set_pwr_offset
	.type	ble_rf_set_pwr_offset, @function
ble_rf_set_pwr_offset:
.LFB0:
	.file 1 "/home/chandu/sdk/bl602_iot_sdk/customer_app/suas_app_pqkem_gateway/suas_app_pqkem_gateway/ble_lib_api.c"
	.loc 1 10 1
	.cfi_startproc
	addi	sp,sp,-32
	.cfi_def_cfa_offset 32
	sw	ra,28(sp)
	sw	s0,24(sp)
	.cfi_offset 1, -4
	.cfi_offset 8, -8
	addi	s0,sp,32
	.cfi_def_cfa 8, 0
	sw	a0,-20(s0)
	.loc 1 13 1
	nop
	lw	ra,28(sp)
	.cfi_restore 1
	lw	s0,24(sp)
	.cfi_restore 8
	.cfi_def_cfa 2, 32
	addi	sp,sp,32
	.cfi_def_cfa_offset 0
	jr	ra
	.cfi_endproc
.LFE0:
	.size	ble_rf_set_pwr_offset, .-ble_rf_set_pwr_offset
	.text
.Letext0:
	.file 2 "/home/chandu/sdk/bl602_iot_sdk/toolchain/compiler/lib/gcc/riscv32-unknown-elf/15.1.0/include/stdint-gcc.h"
	.section	.note.GNU-stack,"",@progbits
