	.file	"ssd1306.c"
	.option nopic
	.attribute arch, "rv32i2p1_m2p0_f2p2_c2p0_zicsr2p0_zmmul1p0_zca1p0_zcf1p0"
	.attribute unaligned_access, 0
	.attribute stack_align, 16
	.text
.Ltext0:
	.cfi_sections	.debug_frame
	.file 0 "/home/chandu/sdk/bl602_iot_sdk/customer_app/suas_app_pqkem_gateway/build_out/suas_app_pqkem_gateway" "/home/chandu/sdk/bl602_iot_sdk/customer_app/suas_app_pqkem_gateway/suas_app_pqkem_gateway/ssd1306.c"
	.globl	font
	.section	.rodata.font,"a"
	.align	2
	.type	font, @object
	.size	font, 1280
font:
	.base64	"AAAAAAA="
	.base64	"HjUxNR4="
	.base64	"HjU3NR4="
	.base64	"Dh8+Hw4="
	.base64	"CBx/HAg="
	.base64	"GEp/Shg="
	.base64	"HE5/Thw="
	.base64	"AAAAAAA="
	.base64	"AAAAAAA="
	.base64	"AAAAAAA="
	.base64	"AAAAAAA="
	.ascii	"8DDG;"
	.base64	"DlHxUQ4="
	.base64	"AAAAAAA="
	.ascii	"`~\0023?"
	.base64	"Khw2HCo="
	.base64	"PhwcCAg="
	.base64	"CAgcHD4="
	.base64	"ACJ/IgA="
	.base64	"AC4ALgA="
	.base64	"Bn8BfwA="
	.base64	"AEpVKQA="
	.base64	"ABgYGBg="
	.base64	"AEpfSgA="
	.base64	"AAJ/AgA="
	.base64	"ACB/IAA="
	.base64	"AAgIHAg="
	.base64	"AAgcCAg="
	.base64	"ADwgICA="
	.base64	"CBwIHAg="
	.ascii	" 8>8 "
	.base64	"Ag4+DgI="
	.base64	"AAAAAAA="
	.base64	"AAAvAAA="
	.base64	"AAMAAwA="
	.base64	"NBw2HBY="
	.base64	"ACZ/MgA="
	.base64	"Mg0eLBM="
	.base64	"GCYtEig="
	.base64	"AAADAAA="
	.base64	"ABwiQUE="
	.string	"AA\"\034"
	.base64	"AAoFCgA="
	.base64	"ABA4EAA="
	.base64	"AIBgAAA="
	.base64	"AAgICAA="
	.base64	"AAAgAAA="
	.base64	"AGAYBgE="
	.base64	"AB4hIR4="
	.base64	"ACI/IAA="
	.base64	"ADEpJgA="
	.base64	"ACUlGgA="
	.base64	"AAwKPwg="
	.base64	"ACclGQA="
	.base64	"AB4lJRg="
	.base64	"AAE5BQM="
	.base64	"ABolJRo="
	.base64	"AAYpKR4="
	.base64	"AAAkAAA="
	.base64	"AIBkAAA="
	.base64	"AAgIFCI="
	.base64	"ABQUFBQ="
	.base64	"ACIUCAg="
	.base64	"AAEpBQI="
	.ascii	"<BYU^"
	.base64	"MBwSHDA="
	.base64	"AD4qNgA="
	.base64	"ABwiIiI="
	.base64	"AD4iIhw="
	.base64	"AD4qKgA="
	.base64	"AD4KCgA="
	.base64	"ABwiKjo="
	.base64	"AD4ICD4="
	.base64	"ACI+IgA="
	.base64	"ACIiHgA="
	.base64	"AD4IFCI="
	.base64	"AD4gICA="
	.base64	"PgQYBD4="
	.base64	"AD4ECD4="
	.base64	"HCIiIhw="
	.base64	"AD4KCgQ="
	.base64	"HCIiYpw="
	.base64	"AD4KFCA="
	.base64	"ACQqEgA="
	.base64	"AgI+AgI="
	.base64	"AB4gIB4="
	.base64	"AA4wMA4="
	.base64	"DjAMMA4="
	.base64	"IhQIFCI="
	.base64	"AgQ4BAI="
	.base64	"ADIqKiY="
	.base64	"AAB/QQA="
	.base64	"AQYYYAA="
	.base64	"AEF/AAA="
	.base64	"GAYBBhg="
	.ascii	"@@@@@"
	.base64	"AAECAAA="
	.base64	"ADQ0OCA="
	.base64	"AD8kJBg="
	.base64	"ABgkJAA="
	.string	"\030$$?"
	.base64	"ABgsKAA="
	.base64	"AAQ+BQU="
	.base64	"AFhUVDw="
	.base64	"AD8IBDg="
	.base64	"AAQ9AAA="
	.base64	"AEREPQA="
	.base64	"AD8IFCA="
	.base64	"AAE/AAA="
	.ascii	"<\b<\b<"
	.base64	"ADwIBDg="
	.base64	"ABgkJBg="
	.base64	"AHwkJBg="
	.string	"\030$$|"
	.base64	"ADwIBAA="
	.base64	"ACgsFAA="
	.base64	"AAQeJAQ="
	.base64	"ABwgEDw="
	.base64	"AAwwMAw="
	.base64	"DDAcMAw="
	.base64	"ACQYGCQ="
	.ascii	"@Lp0\f"
	.base64	"ADQsLAA="
	.base64	"AAg2QQA="
	.base64	"AAB/AAA="
	.base64	"AEE2CAA="
	.base64	"EAgIEAg="
	.base64	"ADwiPAA="
	.base64	"AByiYiI="
	.base64	"AB0gED0="
	.base64	"ABgsKgE="
	.base64	"ADY1OSI="
	.base64	"ADU0OSA="
	.ascii	"\001648 "
	.base64	"ADY1OiA="
	.base64	"ABikZAA="
	.base64	"ABotKQI="
	.base64	"ABksKQA="
	.base64	"ARosKAA="
	.base64	"AAU8AQA="
	.base64	"AAY9AQI="
	.base64	"AQY8AAA="
	.base64	"MB0SHTA="
	.base64	"MBoVGjA="
	.base64	"AD4qKgE="
	.base64	"NBQYLCg="
	.base64	"MBwSPio="
	.base64	"AhklJhg="
	.base64	"ABkkJBk="
	.base64	"ARokJBg="
	.base64	"Ah0hEjw="
	.base64	"AB0iEDw="
	.ascii	"@Mp0\r"
	.base64	"HSIiIh0="
	.base64	"AR4gIR4="
	.base64	"AFg0LBo="
	.string	"\020<* "
	.base64	"XDIqJh0="
	.base64	"ACQYGCQ="
	.base64	"AEg+CQA="
	.base64	"ADQ0OiE="
	.base64	"AAQ8AgE="
	.base64	"ABgkJhk="
	.base64	"ABwgEj0="
	.base64	"AD0JBTk="
	.base64	"AT8FCT8="
	.base64	"AB0VHgA="
	.base64	"AA4RDgA="
	.base64	"AEBaIAA="
	.base64	"HiE/Nx4="
	.base64	"AAgIOAA="
	.base64	"IRcMNi0="
	.base64	"IRcIFjk="
	.base64	"AAB0AAA="
	.base64	"CBQqFCI="
	.base64	"IhQqFAg="
	.string	"U"
	.string	"U"
	.ascii	"U"
	.base64	"VapVqlU="
	.base64	"/1X/Vf8="
	.base64	"AAD/AAA="
	.string	"\b\b\377"
	.string	""
	.base64	"MBwSHTA="
	.base64	"MBoVGTI="
	.base64	"MB0SHDA="
	.ascii	">A]U>"
	.base64	"FPcA/wA="
	.base64	"AP8A/wA="
	.base64	"FPQE/AA="
	.base64	"FBcQHwA="
	.base64	"ABw2FAA="
	.base64	"AhQ4FAI="
	.string	"\b\b\370"
	.string	""
	.base64	"AAAPCAg="
	.base64	"CAgPCAg="
	.base64	"CAj4CAg="
	.base64	"AAD/CAg="
	.base64	"CAgICAg="
	.base64	"CAj/CAg="
	.ascii	"\00255:!"
	.base64	"MhkVGjE="
	.base64	"AB8QFxQ="
	.base64	"APwE9BQ="
	.base64	"FBcQFxQ="
	.base64	"FPQE9BQ="
	.base64	"AP8A9xQ="
	.base64	"FBQUFBQ="
	.base64	"FPcA9xQ="
	.base64	"IhwUHCI="
	.base64	"GSUnHQA="
	.base64	"CD4qIhw="
	.base64	"AD8rKwA="
	.base64	"AT4qKgE="
	.string	"\001>**"
	.base64	"AAQ8AAA="
	.base64	"ACI+IgE="
	.base64	"ACM/IwA="
	.base64	"ASI+IgE="
	.string	"\b\b\017"
	.string	""
	.base64	"AAD4CAg="
	.base64	"//////8="
	.base64	"8PDw8PA="
	.base64	"AADnAAA="
	.base64	"ASI+IgA="
	.base64	"Dw8PDw8="
	.base64	"HCIiIh0="
	.base64	"AD4BLhA="
	.base64	"HCMjIxw="
	.base64	"HSIiIhw="
	.base64	"AhklJhk="
	.base64	"HSMjIxw="
	.base64	"AHwgEDw="
	.base64	"AH8kJBg="
	.base64	"AD4UFAg="
	.base64	"HiAgHgE="
	.base64	"AB8hIR8="
	.base64	"AR4gIB4="
	.ascii	"@L02\r"
	.base64	"AgQ6BQI="
	.base64	"AQEBAQE="
	.base64	"AAACAQA="
	.base64	"AAgICAA="
	.base64	"ACg8KAA="
	.base64	"oKCgoKA="
	.base64	"Kx8IFjk="
	.base64	"Bn8BfwA="
	.base64	"AEpVKQA="
	.base64	"AAgqCAA="
	.base64	"AIBAAAA="
	.base64	"AAYJCQY="
	.base64	"AAEAAQA="
	.base64	"AAAIAAA="
	.base64	"ABEfEAA="
	.base64	"ABUVCgA="
	.base64	"ABkVEgA="
	.base64	"ADw8PDw="
	.base64	"AAAAAAA="
	.section	.text.suas_ssd1306_set_cursor,"ax",@progbits
	.align	1
	.globl	suas_ssd1306_set_cursor
	.type	suas_ssd1306_set_cursor, @function
suas_ssd1306_set_cursor:
.LFB9:
	.file 1 "/home/chandu/sdk/bl602_iot_sdk/customer_app/suas_app_pqkem_gateway/suas_app_pqkem_gateway/ssd1306.c"
	.loc 1 19 60
	.cfi_startproc
	addi	sp,sp,-48
	.cfi_def_cfa_offset 48
	sw	ra,44(sp)
	sw	s0,40(sp)
	.cfi_offset 1, -4
	.cfi_offset 8, -8
	addi	s0,sp,48
	.cfi_def_cfa 8, 0
	mv	a5,a0
	mv	a4,a1
	sb	a5,-33(s0)
	mv	a5,a4
	sb	a5,-34(s0)
	.loc 1 20 14
	sb	zero,-20(s0)
	.loc 1 22 12
	lbu	a5,-33(s0)
	addi	a5,a5,-80
	andi	a5,a5,0xff
	.loc 1 20 14
	sb	a5,-19(s0)
	.loc 1 23 12
	lbu	a5,-34(s0)
	andi	a5,a5,15
	andi	a5,a5,0xff
	.loc 1 20 14
	sb	a5,-18(s0)
	.loc 1 24 12
	lbu	a5,-34(s0)
	srli	a5,a5,4
	andi	a5,a5,0xff
	addi	a5,a5,16
	andi	a5,a5,0xff
	.loc 1 20 14
	sb	a5,-17(s0)
	.loc 1 28 3
	addi	a5,s0,-20
	li	a4,0
	li	a3,0
	li	a2,4
	mv	a1,a5
	li	a0,60
	call	hal_i2c_write_block
	.loc 1 30 1
	nop
	lw	ra,44(sp)
	.cfi_restore 1
	lw	s0,40(sp)
	.cfi_restore 8
	.cfi_def_cfa 2, 48
	addi	sp,sp,48
	.cfi_def_cfa_offset 0
	jr	ra
	.cfi_endproc
.LFE9:
	.size	suas_ssd1306_set_cursor, .-suas_ssd1306_set_cursor
	.section	.text.suas_ssd1306_clear,"ax",@progbits
	.align	1
	.globl	suas_ssd1306_clear
	.type	suas_ssd1306_clear, @function
suas_ssd1306_clear:
.LFB10:
	.loc 1 33 27
	.cfi_startproc
	addi	sp,sp,-32
	.cfi_def_cfa_offset 32
	sw	ra,28(sp)
	sw	s0,24(sp)
	.cfi_offset 1, -4
	.cfi_offset 8, -8
	addi	s0,sp,32
	.cfi_def_cfa 8, 0
.LBB2:
	.loc 1 34 16
	sb	zero,-17(s0)
	.loc 1 34 3
	j	.L3
.L6:
.LBB3:
	.loc 1 36 5
	lbu	a5,-17(s0)
	li	a1,0
	mv	a0,a5
	call	suas_ssd1306_set_cursor
	.loc 1 39 10
	sw	zero,-28(s0)
	sw	zero,-24(s0)
	sb	zero,-20(s0)
	.loc 1 40 19
	li	a5,64
	sb	a5,-28(s0)
.LBB4:
	.loc 1 43 18
	sb	zero,-18(s0)
	.loc 1 43 5
	j	.L4
.L5:
	.loc 1 44 7
	addi	a5,s0,-28
	li	a4,0
	li	a3,0
	li	a2,9
	mv	a1,a5
	li	a0,60
	call	hal_i2c_write_block
	.loc 1 43 34 discriminator 3
	lbu	a5,-18(s0)
	addi	a5,a5,1
	sb	a5,-18(s0)
.L4:
	.loc 1 43 27 discriminator 1
	lbu	a4,-18(s0)
	li	a5,15
	bleu	a4,a5,.L5
.LBE4:
.LBE3:
	.loc 1 34 40 discriminator 2
	lbu	a5,-17(s0)
	addi	a5,a5,1
	sb	a5,-17(s0)
.L3:
	.loc 1 34 31 discriminator 1
	lbu	a4,-17(s0)
	li	a5,7
	bleu	a4,a5,.L6
.LBE2:
	.loc 1 48 1
	nop
	nop
	lw	ra,28(sp)
	.cfi_restore 1
	lw	s0,24(sp)
	.cfi_restore 8
	.cfi_def_cfa 2, 32
	addi	sp,sp,32
	.cfi_def_cfa_offset 0
	jr	ra
	.cfi_endproc
.LFE10:
	.size	suas_ssd1306_clear, .-suas_ssd1306_clear
	.section	.text.suas_ssd1306_print_char,"ax",@progbits
	.align	1
	.globl	suas_ssd1306_print_char
	.type	suas_ssd1306_print_char, @function
suas_ssd1306_print_char:
.LFB11:
	.loc 1 51 38
	.cfi_startproc
	addi	sp,sp,-48
	.cfi_def_cfa_offset 48
	sw	ra,44(sp)
	sw	s0,40(sp)
	.cfi_offset 1, -4
	.cfi_offset 8, -8
	addi	s0,sp,48
	.cfi_def_cfa 8, 0
	mv	a5,a0
	sb	a5,-33(s0)
	.loc 1 56 29
	lbu	a4,-33(s0)
	.loc 1 56 15
	mv	a5,a4
	slli	a5,a5,2
	add	a5,a5,a4
	lui	a4,%hi(font)
	addi	a4,a4,%lo(font)
	add	a5,a5,a4
	sw	a5,-20(s0)
	.loc 1 59 8
	sw	zero,-28(s0)
	sh	zero,-24(s0)
	.loc 1 60 11
	li	a5,64
	sb	a5,-28(s0)
	.loc 1 61 3
	addi	a5,s0,-28
	addi	a5,a5,1
	li	a2,5
	lw	a1,-20(s0)
	mv	a0,a5
	call	memcpy
	.loc 1 65 3
	addi	a5,s0,-28
	li	a4,0
	li	a3,0
	li	a2,6
	mv	a1,a5
	li	a0,60
	call	hal_i2c_write_block
	.loc 1 66 1
	nop
	lw	ra,44(sp)
	.cfi_restore 1
	lw	s0,40(sp)
	.cfi_restore 8
	.cfi_def_cfa 2, 48
	addi	sp,sp,48
	.cfi_def_cfa_offset 0
	jr	ra
	.cfi_endproc
.LFE11:
	.size	suas_ssd1306_print_char, .-suas_ssd1306_print_char
	.section	.text.suas_ssd1306_print_text,"ax",@progbits
	.align	1
	.globl	suas_ssd1306_print_text
	.type	suas_ssd1306_print_text, @function
suas_ssd1306_print_text:
.LFB12:
	.loc 1 69 42
	.cfi_startproc
	addi	sp,sp,-48
	.cfi_def_cfa_offset 48
	sw	ra,44(sp)
	sw	s0,40(sp)
	sw	s1,36(sp)
	.cfi_offset 1, -4
	.cfi_offset 8, -8
	.cfi_offset 9, -12
	addi	s0,sp,48
	.cfi_def_cfa 8, 0
	sw	a0,-36(s0)
.LBB5:
	.loc 1 71 16
	sb	zero,-17(s0)
	.loc 1 71 3
	j	.L9
.L10:
	.loc 1 72 33
	lbu	a5,-17(s0)
	lw	a4,-36(s0)
	add	a5,a4,a5
	.loc 1 72 5
	lbu	a5,0(a5)
	mv	a0,a5
	call	suas_ssd1306_print_char
	.loc 1 71 42 discriminator 4
	lbu	a5,-17(s0)
	addi	a5,a5,1
	sb	a5,-17(s0)
.L9:
	.loc 1 71 25 discriminator 1
	lbu	s1,-17(s0)
	.loc 1 71 27 discriminator 1
	lw	a0,-36(s0)
	call	strlen
	mv	a5,a0
	.loc 1 71 25 discriminator 3
	bltu	s1,a5,.L10
.LBE5:
	.loc 1 74 1
	nop
	nop
	lw	ra,44(sp)
	.cfi_restore 1
	lw	s0,40(sp)
	.cfi_restore 8
	.cfi_def_cfa 2, 48
	lw	s1,36(sp)
	.cfi_restore 9
	addi	sp,sp,48
	.cfi_def_cfa_offset 0
	jr	ra
	.cfi_endproc
.LFE12:
	.size	suas_ssd1306_print_text, .-suas_ssd1306_print_text
	.section	.rodata
	.align	2
.LC0:
	.base64	"AK6oP9MAQKHI2hKBf6Sm1YCNFCAALq8="
	.section	.text.suas_ssd1306_init,"ax",@progbits
	.align	1
	.globl	suas_ssd1306_init
	.type	suas_ssd1306_init, @function
suas_ssd1306_init:
.LFB13:
	.loc 1 77 26
	.cfi_startproc
	addi	sp,sp,-48
	.cfi_def_cfa_offset 48
	sw	ra,44(sp)
	sw	s0,40(sp)
	.cfi_offset 1, -4
	.cfi_offset 8, -8
	addi	s0,sp,48
	.cfi_def_cfa 8, 0
	.loc 1 78 3
	call	suas_i2c_init
	.loc 1 81 3
	li	a0,100
	call	vTaskDelay
	.loc 1 85 14
	lui	a5,%hi(.LC0)
	addi	a5,a5,%lo(.LC0)
	lw	a1,0(a5)
	lw	a2,4(a5)
	lw	a3,8(a5)
	lw	a4,12(a5)
	sw	a1,-40(s0)
	sw	a2,-36(s0)
	sw	a3,-32(s0)
	sw	a4,-28(s0)
	lw	a4,16(a5)
	sw	a4,-24(s0)
	lhu	a4,20(a5)
	sh	a4,-20(s0)
	lbu	a5,22(a5)
	sb	a5,-18(s0)
	.loc 1 113 3
	addi	a5,s0,-40
	li	a4,0
	li	a3,0
	li	a2,23
	mv	a1,a5
	li	a0,60
	call	hal_i2c_write_block
	.loc 1 118 3
	call	suas_ssd1306_clear
	.loc 1 119 1
	nop
	lw	ra,44(sp)
	.cfi_restore 1
	lw	s0,40(sp)
	.cfi_restore 8
	.cfi_def_cfa 2, 48
	addi	sp,sp,48
	.cfi_def_cfa_offset 0
	jr	ra
	.cfi_endproc
.LFE13:
	.size	suas_ssd1306_init, .-suas_ssd1306_init
	.text
.Letext0:
	.file 2 "/home/chandu/sdk/bl602_iot_sdk/toolchain/compiler/lib/gcc/riscv32-unknown-elf/15.1.0/include/stddef.h"
	.file 3 "/home/chandu/sdk/bl602_iot_sdk/toolchain/compiler/lib/gcc/riscv32-unknown-elf/15.1.0/include/stdint-gcc.h"
	.file 4 "/home/chandu/sdk/bl602_iot_sdk/components/freertos/portable/GCC/RISC-V/portmacro.h"
	.file 5 "/home/chandu/sdk/bl602_iot_sdk/toolchain/compiler/riscv32-unknown-elf/include/string.h"
	.file 6 "/home/chandu/sdk/bl602_iot_sdk/components/hal_drv/bl602_hal/hal_i2c.h"
	.file 7 "/home/chandu/sdk/bl602_iot_sdk/customer_app/suas_app_pqkem_gateway/suas_app_pqkem_gateway/include/suas_ssd1306_font.h"
	.file 8 "/home/chandu/sdk/bl602_iot_sdk/components/freertos/include/task.h"
	.file 9 "/home/chandu/sdk/bl602_iot_sdk/customer_app/suas_app_pqkem_gateway/suas_app_pqkem_gateway/include/suas_i2c.h"
	.section	.note.GNU-stack,"",@progbits
