	.file	"aes.c"
	.option nopic
	.attribute arch, "rv32i2p1_m2p0_f2p2_c2p0_zicsr2p0_zmmul1p0_zca1p0_zcf1p0"
	.attribute unaligned_access, 0
	.attribute stack_align, 16
	.text
.Ltext0:
	.cfi_sections	.debug_frame
	.file 0 "/home/chandu/sdk/bl602_iot_sdk/customer_app/suas_app_pqkem_gateway/build_out/mbedtls-bl602" "/home/chandu/sdk/bl602_iot_sdk/components/security/mbedtls-bl602/library/aes.c"
	.section	.text.mbedtls_ctr_increment_counter,"ax",@progbits
	.align	1
	.type	mbedtls_ctr_increment_counter, @function
mbedtls_ctr_increment_counter:
.LFB15:
	.file 1 "/home/chandu/sdk/bl602_iot_sdk/components/security/mbedtls-bl602/library/ctr.h"
	.loc 1 22 1
	.cfi_startproc
	addi	sp,sp,-64
	.cfi_def_cfa_offset 64
	sw	ra,60(sp)
	sw	s0,56(sp)
	sw	s1,52(sp)
	.cfi_offset 1, -4
	.cfi_offset 8, -8
	.cfi_offset 9, -12
	addi	s0,sp,64
	.cfi_def_cfa 8, 0
	sw	a0,-52(s0)
.LBB54:
	.loc 1 25 14
	li	a5,3
	sw	a5,-20(s0)
.L4:
.LBB55:
	.loc 1 26 132
	lw	a5,-20(s0)
	slli	a5,a5,2
	.loc 1 26 127
	lw	a4,-52(s0)
	add	a5,a4,a5
	sw	a5,-28(s0)
.LBB56:
.LBB57:
	.file 2 "/home/chandu/sdk/bl602_iot_sdk/components/security/mbedtls-bl602/library/alignment.h"
	.loc 2 174 33
	lw	a5,-28(s0)
	sw	a5,-32(s0)
	.loc 2 175 7
	lw	a5,-32(s0)
	lbu	a4,0(a5)
	lbu	a3,1(a5)
	slli	a3,a3,8
	or	a4,a3,a4
	lbu	a3,2(a5)
	slli	a3,a3,16
	or	a4,a3,a4
	lbu	a5,3(a5)
	slli	a5,a5,24
	or	a5,a5,a4
	sw	a5,-36(s0)
	.loc 2 179 12
	lw	a5,-36(s0)
.LBE57:
.LBE56:
	.loc 1 26 74 discriminator 1
	mv	a0,a5
	call	__bswapsi2
	mv	a5,a0
	sw	a5,-24(s0)
	.loc 1 27 11
	lw	a5,-24(s0)
	addi	a5,a5,1
	sw	a5,-24(s0)
	.loc 1 28 129 discriminator 2
	lw	a5,-20(s0)
	slli	a5,a5,2
	.loc 1 28 124 discriminator 2
	lw	a4,-52(s0)
	add	s1,a4,a5
	.loc 1 28 136 discriminator 2
	lw	a0,-24(s0)
	call	__bswapsi2
	mv	a5,a0
	sw	s1,-40(s0)
	sw	a5,-44(s0)
.LBB58:
.LBB59:
	.loc 2 200 33
	lw	a5,-40(s0)
	sw	a5,-48(s0)
	.loc 2 201 12
	lw	a5,-48(s0)
	lw	a4,-44(s0)
	andi	a4,a4,255
	lbu	a3,0(a5)
	andi	a3,a3,0
	or	a4,a3,a4
	sb	a4,0(a5)
	lw	a4,-44(s0)
	srli	a4,a4,8
	andi	a4,a4,255
	lbu	a3,1(a5)
	andi	a3,a3,0
	or	a4,a3,a4
	sb	a4,1(a5)
	lw	a4,-44(s0)
	srli	a4,a4,16
	andi	a4,a4,255
	lbu	a3,2(a5)
	andi	a3,a3,0
	or	a4,a3,a4
	sb	a4,2(a5)
	lw	a4,-44(s0)
	srli	a4,a4,24
	lbu	a3,3(a5)
	andi	a3,a3,0
	or	a4,a3,a4
	sb	a4,3(a5)
	.loc 2 205 1
	nop
.LBE59:
.LBE58:
	.loc 1 29 12
	lw	a5,-24(s0)
	bne	a5,zero,.L5
	.loc 1 29 20 discriminator 1
	lw	a5,-20(s0)
	beq	a5,zero,.L5
.LBE55:
	.loc 1 25 23
	lw	a5,-20(s0)
	addi	a5,a5,-1
	sw	a5,-20(s0)
	.loc 1 25 27
	j	.L4
.L5:
.LBE54:
	.loc 1 33 1
	nop
	lw	ra,60(sp)
	.cfi_restore 1
	lw	s0,56(sp)
	.cfi_restore 8
	.cfi_def_cfa 2, 64
	lw	s1,52(sp)
	.cfi_restore 9
	addi	sp,sp,64
	.cfi_def_cfa_offset 0
	jr	ra
	.cfi_endproc
.LFE15:
	.size	mbedtls_ctr_increment_counter, .-mbedtls_ctr_increment_counter
	.section	.rodata.FSb,"a"
	.align	2
	.type	FSb, @object
	.size	FSb, 256
FSb:
	.base64	"Y3x3e/Jrb8UwAWcr/terdsqCyX36WUfwrdSir5ykcsC3/ZMmNj/3zDSl5fFx2DEVBMcjwxiWBZoHEoDi6yeydQmDLBobblqgUjvWsynjL4RT0QDtIPyxW2rLvjlKTFjP0O+q+0NNM4VF+QJ/UDyfqFGjQI+SnTj1vLbaIRD/89LNDBPsX5dEF8Snfj1kXRlzYIFP3CIqkIhG7rgU3l4L2+AyOgpJBiRcwtOsYpGV5HnnyDdtjdVOqWxW9Opleq4IunglLhymtMbo3XQfS72LinA+tWZIA/YOYTVXuYbBHZ7h+JgRadmOlJseh+nOVSjfjKGJDb/mQmhBmS0PsFS7"
	.ascii	"\026"
	.section	.rodata.FT0,"a"
	.align	2
	.type	FT0, @object
	.size	FT0, 1024
FT0:
	.word	-1520213050
	.word	-2072216328
	.word	-1720223762
	.word	-1921287178
	.word	234025727
	.word	-1117033514
	.word	-1318096930
	.word	1422247313
	.word	1345335392
	.word	50397442
	.word	-1452841010
	.word	2099981142
	.word	436141799
	.word	1658312629
	.word	-424957107
	.word	-1703512340
	.word	1170918031
	.word	-1652391393
	.word	1086966153
	.word	-2021818886
	.word	368769775
	.word	-346465870
	.word	-918075506
	.word	200339707
	.word	-324162239
	.word	1742001331
	.word	-39673249
	.word	-357585083
	.word	-1080255453
	.word	-140204973
	.word	-1770884380
	.word	1539358875
	.word	-1028147339
	.word	486407649
	.word	-1366060227
	.word	1780885068
	.word	1513502316
	.word	1094664062
	.word	49805301
	.word	1338821763
	.word	1546925160
	.word	-190470831
	.word	887481809
	.word	150073849
	.word	-1821281822
	.word	1943591083
	.word	1395732834
	.word	1058346282
	.word	201589768
	.word	1388824469
	.word	1696801606
	.word	1589887901
	.word	672667696
	.word	-1583966665
	.word	251987210
	.word	-1248159185
	.word	151455502
	.word	907153956
	.word	-1686077413
	.word	1038279391
	.word	652995533
	.word	1764173646
	.word	-843926913
	.word	-1619692054
	.word	453576978
	.word	-1635548387
	.word	1949051992
	.word	773462580
	.word	756751158
	.word	-1301385508
	.word	-296068428
	.word	-73359269
	.word	-162377052
	.word	1295727478
	.word	1641469623
	.word	-827083907
	.word	2066295122
	.word	1055122397
	.word	1898917726
	.word	-1752923117
	.word	-179088474
	.word	1758581177
	.word	0
	.word	753790401
	.word	1612718144
	.word	536673507
	.word	-927878791
	.word	-312779850
	.word	-1100322092
	.word	1187761037
	.word	-641810841
	.word	1262041458
	.word	-565556588
	.word	-733197160
	.word	-396863312
	.word	1255133061
	.word	1808847035
	.word	720367557
	.word	-441800113
	.word	385612781
	.word	-985447546
	.word	-682799718
	.word	1429418854
	.word	-1803188975
	.word	-817543798
	.word	284817897
	.word	100794884
	.word	-2122350594
	.word	-263171936
	.word	1144798328
	.word	-1163944155
	.word	-475486133
	.word	-212774494
	.word	-22830243
	.word	-1069531008
	.word	-1970303227
	.word	-1382903233
	.word	-1130521311
	.word	1211644016
	.word	83228145
	.word	-541279133
	.word	-1044990345
	.word	1977277103
	.word	1663115586
	.word	806359072
	.word	452984805
	.word	250868733
	.word	1842533055
	.word	1288555905
	.word	336333848
	.word	890442534
	.word	804056259
	.word	-513843266
	.word	-1567123659
	.word	-867941240
	.word	957814574
	.word	1472513171
	.word	-223893675
	.word	-2105639172
	.word	1195195770
	.word	-1402706744
	.word	-413311558
	.word	723065138
	.word	-1787595802
	.word	-1604296512
	.word	-1736343271
	.word	-783331426
	.word	2145180835
	.word	1713513028
	.word	2116692564
	.word	-1416589253
	.word	-2088204277
	.word	-901364084
	.word	703524551
	.word	-742868885
	.word	1007948840
	.word	2044649127
	.word	-497131844
	.word	487262998
	.word	1994120109
	.word	1004593371
	.word	1446130276
	.word	1312438900
	.word	503974420
	.word	-615954030
	.word	168166924
	.word	1814307912
	.word	-463709000
	.word	1573044895
	.word	1859376061
	.word	-273896381
	.word	-1503501628
	.word	-1466855111
	.word	-1533700815
	.word	937747667
	.word	-1954973198
	.word	854058965
	.word	1137232011
	.word	1496790894
	.word	-1217565222
	.word	-1936880383
	.word	1691735473
	.word	-766620004
	.word	-525751991
	.word	-1267962664
	.word	-95005012
	.word	133494003
	.word	636152527
	.word	-1352309302
	.word	-1904575756
	.word	-374428089
	.word	403179536
	.word	-709182865
	.word	-2005370640
	.word	1864705354
	.word	1915629148
	.word	605822008
	.word	-240736681
	.word	-944458637
	.word	1371981463
	.word	602466507
	.word	2094914977
	.word	-1670089496
	.word	555687742
	.word	-582268010
	.word	-591544991
	.word	-2037675251
	.word	-2054518257
	.word	-1871679264
	.word	1111375484
	.word	-994724495
	.word	-1436129588
	.word	-666351472
	.word	84083462
	.word	32962295
	.word	302911004
	.word	-1553899070
	.word	1597322602
	.word	-111716434
	.word	-793134743
	.word	-1853454825
	.word	1489093017
	.word	656219450
	.word	-1180787161
	.word	954327513
	.word	335083755
	.word	-1281845205
	.word	856756514
	.word	-1150719534
	.word	1893325225
	.word	-1987146233
	.word	-1483434957
	.word	-1231316179
	.word	572399164
	.word	-1836611819
	.word	552200649
	.word	1238290055
	.word	-11184726
	.word	2015897680
	.word	2061492133
	.word	-1886614525
	.word	-123625127
	.word	-2138470135
	.word	386731290
	.word	-624967835
	.word	837215959
	.word	-968736124
	.word	-1201116976
	.word	-1019133566
	.word	-1332111063
	.word	1999449434
	.word	286199582
	.word	-877612933
	.word	-61582168
	.word	-692339859
	.word	974525996
	.section	.rodata.FT1,"a"
	.align	2
	.type	FT1, @object
	.size	FT1, 1024
FT1:
	.word	1667483301
	.word	2088564868
	.word	2004348569
	.word	2071721613
	.word	-218956019
	.word	1802229437
	.word	1869602481
	.word	-976907948
	.word	808476752
	.word	16843267
	.word	1734856361
	.word	724260477
	.word	-16849127
	.word	-673729182
	.word	-1414836762
	.word	1987505306
	.word	-892694715
	.word	-2105401443
	.word	-909539008
	.word	2105408135
	.word	-84218091
	.word	1499050731
	.word	1195871945
	.word	-252642549
	.word	-1381154324
	.word	-724257945
	.word	-1566416899
	.word	-1347467798
	.word	-1667488833
	.word	-1532734473
	.word	1920132246
	.word	-1061119141
	.word	-1212713534
	.word	-33693412
	.word	-1819066962
	.word	640044138
	.word	909536346
	.word	1061125697
	.word	-134744830
	.word	-859012273
	.word	875849820
	.word	-1515892236
	.word	-437923532
	.word	-235800312
	.word	1903288979
	.word	-656888973
	.word	825320019
	.word	353708607
	.word	67373068
	.word	-943221422
	.word	589514341
	.word	-1010590370
	.word	404238376
	.word	-1768540255
	.word	84216335
	.word	-1701171275
	.word	117902857
	.word	303178806
	.word	-2139087973
	.word	-488448195
	.word	-336868058
	.word	656887401
	.word	-1296924723
	.word	1970662047
	.word	151589403
	.word	-2088559202
	.word	741103732
	.word	437924910
	.word	454768173
	.word	1852759218
	.word	1515893998
	.word	-1600103429
	.word	1381147894
	.word	993752653
	.word	-690571423
	.word	-1280082482
	.word	690573947
	.word	-471605954
	.word	791633521
	.word	-2071719017
	.word	1397991157
	.word	-774784664
	.word	0
	.word	-303185620
	.word	538984544
	.word	-50535649
	.word	-1313769016
	.word	1532737261
	.word	1785386174
	.word	-875852474
	.word	-1094817831
	.word	960066123
	.word	1246401758
	.word	1280088276
	.word	1482207464
	.word	-808483510
	.word	-791626901
	.word	-269499094
	.word	-1431679003
	.word	-67375850
	.word	1128498885
	.word	1296931543
	.word	859006549
	.word	-2054876780
	.word	1162185423
	.word	-101062384
	.word	33686534
	.word	2139094657
	.word	1347461360
	.word	1010595908
	.word	-1616960070
	.word	-1465365533
	.word	1364304627
	.word	-1549574658
	.word	1077969088
	.word	-1886452342
	.word	-1835909203
	.word	-1650646596
	.word	943222856
	.word	-168431356
	.word	-1128504353
	.word	-1229555775
	.word	-623202443
	.word	555827811
	.word	269492272
	.word	-6886
	.word	-202113778
	.word	-757940371
	.word	-842170036
	.word	202119188
	.word	320022069
	.word	-320027857
	.word	1600110305
	.word	-1751698014
	.word	1145342156
	.word	387395129
	.word	-993750185
	.word	-1482205710
	.word	2122251394
	.word	1027439175
	.word	1684326572
	.word	1566423783
	.word	421081643
	.word	1936975509
	.word	1616953504
	.word	-2122245736
	.word	1330618065
	.word	-589520001
	.word	572671078
	.word	707417214
	.word	-1869595733
	.word	-2004350077
	.word	1179028682
	.word	-286341335
	.word	-1195873325
	.word	336865340
	.word	-555833479
	.word	1583267042
	.word	185275933
	.word	-606360202
	.word	-522134725
	.word	842163286
	.word	976909390
	.word	168432670
	.word	1229558491
	.word	101059594
	.word	606357612
	.word	1549580516
	.word	-1027432611
	.word	-741098130
	.word	-1397996561
	.word	1650640038
	.word	-1852753496
	.word	-1785384540
	.word	-454765769
	.word	2038035083
	.word	-404237006
	.word	-926381245
	.word	926379609
	.word	1835915959
	.word	-1920138868
	.word	-707415708
	.word	1313774802
	.word	-1448523296
	.word	1819072692
	.word	1448520954
	.word	-185273593
	.word	-353710299
	.word	1701169839
	.word	2054878350
	.word	-1364310039
	.word	134746136
	.word	-1162186795
	.word	2021191816
	.word	623200879
	.word	774790258
	.word	471611428
	.word	-1499047951
	.word	-1263242297
	.word	-960063663
	.word	-387396829
	.word	-572677764
	.word	1953818780
	.word	522141217
	.word	1263245021
	.word	-1111662116
	.word	-1953821306
	.word	-1970663547
	.word	1886445712
	.word	1044282434
	.word	-1246400060
	.word	1718013098
	.word	1212715224
	.word	50529797
	.word	-151587071
	.word	235805714
	.word	1633796771
	.word	892693087
	.word	1465364217
	.word	-1179031088
	.word	-2038032495
	.word	-1044276904
	.word	488454695
	.word	-1633802311
	.word	-505292488
	.word	-117904621
	.word	-1734857805
	.word	286335539
	.word	1768542907
	.word	-640046736
	.word	-1903294583
	.word	-1802226777
	.word	-1684329034
	.word	505297954
	.word	-2021190254
	.word	-370554592
	.word	-825325751
	.word	1431677695
	.word	673730680
	.word	-538991238
	.word	-1936981105
	.word	-1583261192
	.word	-1987507840
	.word	218962455
	.word	-1077975590
	.word	-421079247
	.word	1111655622
	.word	1751699640
	.word	1094812355
	.word	-1718015568
	.word	757946999
	.word	252648977
	.word	-1330611253
	.word	1414834428
	.word	-1145344554
	.word	370551866
	.section	.rodata.FT2,"a"
	.align	2
	.type	FT2, @object
	.size	FT2, 1024
FT2:
	.word	1673962851
	.word	2096661628
	.word	2012125559
	.word	2079755643
	.word	-218165774
	.word	1809235307
	.word	1876865391
	.word	-980331323
	.word	811618352
	.word	16909057
	.word	1741597031
	.word	727088427
	.word	-18408962
	.word	-675978537
	.word	-1420958037
	.word	1995217526
	.word	-896580150
	.word	-2111857278
	.word	-913751863
	.word	2113570685
	.word	-84994566
	.word	1504897881
	.word	1200539975
	.word	-251982864
	.word	-1388188499
	.word	-726439980
	.word	-1570767454
	.word	-1354372433
	.word	-1675378788
	.word	-1538000988
	.word	1927583346
	.word	-1063560256
	.word	-1217019209
	.word	-35578627
	.word	-1824674157
	.word	642542118
	.word	913070646
	.word	1065238847
	.word	-134937865
	.word	-863809588
	.word	879254580
	.word	-1521355611
	.word	-439274267
	.word	-235337487
	.word	1910674289
	.word	-659852328
	.word	828527409
	.word	355090197
	.word	67636228
	.word	-946515257
	.word	591815971
	.word	-1013096765
	.word	405809176
	.word	-1774739050
	.word	84545285
	.word	-1708149350
	.word	118360327
	.word	304363026
	.word	-2145674368
	.word	-488686110
	.word	-338876693
	.word	659450151
	.word	-1300247118
	.word	1978310517
	.word	152181513
	.word	-2095210877
	.word	743994412
	.word	439627290
	.word	456535323
	.word	1859957358
	.word	1521806938
	.word	-1604584544
	.word	1386542674
	.word	997608763
	.word	-692624938
	.word	-1283600717
	.word	693271337
	.word	-472039709
	.word	794718511
	.word	-2079090812
	.word	1403450707
	.word	-776378159
	.word	0
	.word	-306107155
	.word	541089824
	.word	-52224004
	.word	-1317418831
	.word	1538714971
	.word	1792327274
	.word	-879933749
	.word	-1100490306
	.word	963791673
	.word	1251270218
	.word	1285084236
	.word	1487988824
	.word	-813348145
	.word	-793023536
	.word	-272291089
	.word	-1437604438
	.word	-68348165
	.word	1132905795
	.word	1301993293
	.word	862344499
	.word	-2062445435
	.word	1166724933
	.word	-102166279
	.word	33818114
	.word	2147385727
	.word	1352724560
	.word	1014514748
	.word	-1624917345
	.word	-1471421528
	.word	1369633617
	.word	-1554121053
	.word	1082179648
	.word	-1895462257
	.word	-1841320558
	.word	-1658733411
	.word	946882616
	.word	-168753931
	.word	-1134305348
	.word	-1233665610
	.word	-626035238
	.word	557998881
	.word	270544912
	.word	-1762561
	.word	-201519373
	.word	-759206446
	.word	-847164211
	.word	202904588
	.word	321271059
	.word	-322752532
	.word	1606345055
	.word	-1758092649
	.word	1149815876
	.word	388905239
	.word	-996976700
	.word	-1487539545
	.word	2130477694
	.word	1031423805
	.word	1690872932
	.word	1572530013
	.word	422718233
	.word	1944491379
	.word	1623236704
	.word	-2129028991
	.word	1335808335
	.word	-593264676
	.word	574907938
	.word	710180394
	.word	-1875137648
	.word	-2012511352
	.word	1183631942
	.word	-288937490
	.word	-1200893000
	.word	338181140
	.word	-559449634
	.word	1589437022
	.word	185998603
	.word	-609388837
	.word	-522503200
	.word	845436466
	.word	980700730
	.word	169090570
	.word	1234361161
	.word	101452294
	.word	608726052
	.word	1555620956
	.word	-1029743166
	.word	-742560045
	.word	-1404833876
	.word	1657054818
	.word	-1858492271
	.word	-1791908715
	.word	-455919644
	.word	2045938553
	.word	-405458201
	.word	-930397240
	.word	929978679
	.word	1843050349
	.word	-1929278323
	.word	-709794603
	.word	1318900302
	.word	-1454776151
	.word	1826141292
	.word	1454176854
	.word	-185399308
	.word	-355523094
	.word	1707781989
	.word	2062847610
	.word	-1371018834
	.word	135272456
	.word	-1167075910
	.word	2029029496
	.word	625635109
	.word	777810478
	.word	473441308
	.word	-1504185946
	.word	-1267480652
	.word	-963161658
	.word	-389340184
	.word	-576619299
	.word	1961401460
	.word	524165407
	.word	1268178251
	.word	-1117659971
	.word	-1962047861
	.word	-1978694262
	.word	1893765232
	.word	1048330814
	.word	-1250835275
	.word	1724688998
	.word	1217452104
	.word	50726147
	.word	-151584266
	.word	236720654
	.word	1640145761
	.word	896163637
	.word	1471084887
	.word	-1184247623
	.word	-2045275770
	.word	-1046914879
	.word	490350365
	.word	-1641563746
	.word	-505857823
	.word	-118811656
	.word	-1741966440
	.word	287453969
	.word	1775418217
	.word	-643206951
	.word	-1912108658
	.word	-1808554092
	.word	-1691502949
	.word	507257374
	.word	-2028629369
	.word	-372694807
	.word	-829994546
	.word	1437269845
	.word	676362280
	.word	-542803233
	.word	-1945923700
	.word	-1587939167
	.word	-1995865975
	.word	219813645
	.word	-1083843905
	.word	-422104602
	.word	1115997762
	.word	1758509160
	.word	1099088705
	.word	-1725321063
	.word	760903469
	.word	253628687
	.word	-1334064208
	.word	1420360788
	.word	-1150429509
	.word	371997206
	.section	.rodata.FT3,"a"
	.align	2
	.type	FT3, @object
	.size	FT3, 1024
FT3:
	.word	-962239645
	.word	-125535108
	.word	-291932297
	.word	-158499973
	.word	-15863054
	.word	-692229269
	.word	-558796945
	.word	-1856715323
	.word	1615867952
	.word	33751297
	.word	-827758745
	.word	1451043627
	.word	-417726722
	.word	-1251813417
	.word	1306962859
	.word	-325421450
	.word	-1891251510
	.word	530416258
	.word	-1992242743
	.word	-91783811
	.word	-283772166
	.word	-1293199015
	.word	-1899411641
	.word	-83103504
	.word	1106029997
	.word	-1285040940
	.word	1610457762
	.word	1173008303
	.word	599760028
	.word	1408738468
	.word	-459902350
	.word	-1688485696
	.word	1975695287
	.word	-518193667
	.word	1034851219
	.word	1282024998
	.word	1817851446
	.word	2118205247
	.word	-184354825
	.word	-2091922228
	.word	1750873140
	.word	1374987685
	.word	-785062427
	.word	-116854287
	.word	-493653647
	.word	-1418471208
	.word	1649619249
	.word	708777237
	.word	135005188
	.word	-1789737017
	.word	1181033251
	.word	-1654733885
	.word	807933976
	.word	933336726
	.word	168756485
	.word	800430746
	.word	235472647
	.word	607523346
	.word	463175808
	.word	-549592350
	.word	-853087253
	.word	1315514151
	.word	2144187058
	.word	-358648459
	.word	303761673
	.word	496927619
	.word	1484008492
	.word	875436570
	.word	908925723
	.word	-592286098
	.word	-1259447718
	.word	1543217312
	.word	-1527360942
	.word	1984772923
	.word	-1218324778
	.word	2110698419
	.word	1383803177
	.word	-583080989
	.word	1584475951
	.word	328696964
	.word	-1493871789
	.word	-1184312879
	.word	0
	.word	-1054020115
	.word	1080041504
	.word	-484442884
	.word	2043195825
	.word	-1225958565
	.word	-725718422
	.word	-1924740149
	.word	1742323390
	.word	1917532473
	.word	-1797371318
	.word	-1730917300
	.word	-1326950312
	.word	-2058694705
	.word	-1150562096
	.word	-987041809
	.word	1340451498
	.word	-317260805
	.word	-2033892541
	.word	-1697166003
	.word	1716859699
	.word	294946181
	.word	-1966127803
	.word	-384763399
	.word	67502594
	.word	-25067649
	.word	-1594863536
	.word	2017737788
	.word	632987551
	.word	1273211048
	.word	-1561112239
	.word	1576969123
	.word	-2134884288
	.word	92966799
	.word	1068339858
	.word	566009245
	.word	1883781176
	.word	-251333131
	.word	1675607228
	.word	2009183926
	.word	-1351230758
	.word	1113792801
	.word	540020752
	.word	-451215361
	.word	-49351693
	.word	-1083321646
	.word	-2125673011
	.word	403966988
	.word	641012499
	.word	-1020269332
	.word	-1092526241
	.word	899848087
	.word	-1999879100
	.word	775493399
	.word	-1822964540
	.word	1441965991
	.word	-58556802
	.word	2051489085
	.word	-928226204
	.word	-1159242403
	.word	841685273
	.word	-426413197
	.word	-1063231392
	.word	429425025
	.word	-1630449841
	.word	-1551901476
	.word	1147544098
	.word	1417554474
	.word	1001099408
	.word	193169544
	.word	-1932900794
	.word	-953553170
	.word	1809037496
	.word	675025940
	.word	-1485185314
	.word	-1126015394
	.word	371002123
	.word	-1384719397
	.word	-616832800
	.word	1683370546
	.word	1951283770
	.word	337512970
	.word	-1831122615
	.word	201983494
	.word	1215046692
	.word	-1192993700
	.word	-1621245246
	.word	-1116810285
	.word	1139780780
	.word	-995728798
	.word	967348625
	.word	832869781
	.word	-751311644
	.word	-225740423
	.word	-718084121
	.word	-1958491960
	.word	1851340599
	.word	-625513107
	.word	25988493
	.word	-1318791723
	.word	-1663938994
	.word	1239460265
	.word	-659264404
	.word	-1392880042
	.word	-217582348
	.word	-819598614
	.word	-894474907
	.word	-191989126
	.word	1206496942
	.word	270010376
	.word	1876277946
	.word	-259491720
	.word	1248797989
	.word	1550986798
	.word	941890588
	.word	1475454630
	.word	1942467764
	.word	-1756248378
	.word	-886839064
	.word	-1585652259
	.word	-392399756
	.word	1042358047
	.word	-1763882165
	.word	1641856445
	.word	226921355
	.word	260409994
	.word	-527404944
	.word	2084716094
	.word	1908716981
	.word	-861247898
	.word	-1864873912
	.word	100991747
	.word	-150866186
	.word	470945294
	.word	-1029480095
	.word	1784624437
	.word	-1359390889
	.word	1775286713
	.word	395413126
	.word	-1722236479
	.word	975641885
	.word	666476190
	.word	-650583583
	.word	-351012616
	.word	733190296
	.word	573772049
	.word	-759469719
	.word	-1452221991
	.word	126455438
	.word	866620564
	.word	766942107
	.word	1008868894
	.word	361924487
	.word	-920589847
	.word	-2025206066
	.word	-1426107051
	.word	1350051880
	.word	-1518673953
	.word	59739276
	.word	1509466529
	.word	159418761
	.word	437718285
	.word	1708834751
	.word	-684595482
	.word	-2067381694
	.word	-793221016
	.word	-2101132991
	.word	699439513
	.word	1517759789
	.word	504434447
	.word	2076946608
	.word	-1459858348
	.word	1842789307
	.word	742004246
	.section	.rodata.RSb,"a"
	.align	2
	.type	RSb, @object
	.size	RSb, 256
RSb:
	.base64	"Uglq1TA2pTi/QKOegfPX+3zjOYKbL/+HNI5DRMTe6ctUe5QypsIjPe5MlQtC+sNOCC6hZijZJLJ2W6JJbYvRJXL49mSGaJgW1KRczF1ltpJscEhQ/e252l4VRlenjZ2EkNirAIy80wr35FgFuLNFBtAsHo/KPw8Cwa+9AwETims6kRFBT2fc6pfyz87wtOZzlqx0IuetNYXi+TfoHHXfbkfxGnEdKcWJb7diDqoYvhv8Vj5LxtJ5IJrbwP54zVr0H92oM4gHxzGxEhBZJ4DsX2BRf6kZtUoNLeV6n5PJnO+g4DtNrir1sMjruzyDU5lhFysEfrp31ibhaRRjVSEM"
	.ascii	"}"
	.section	.rodata.RT0,"a"
	.align	2
	.type	RT0, @object
	.size	RT0, 1024
RT0:
	.word	1353184337
	.word	1399144830
	.word	-1012656358
	.word	-1772214470
	.word	-882136261
	.word	-247096033
	.word	-1420232020
	.word	-1828461749
	.word	1442459680
	.word	-160598355
	.word	-1854485368
	.word	625738485
	.word	-52959921
	.word	-674551099
	.word	-2143013594
	.word	-1885117771
	.word	1230680542
	.word	1729870373
	.word	-1743852987
	.word	-507445667
	.word	41234371
	.word	317738113
	.word	-1550367091
	.word	-956705941
	.word	-413167869
	.word	-1784901099
	.word	-344298049
	.word	-631680363
	.word	763608788
	.word	-752782248
	.word	694804553
	.word	1154009486
	.word	1787413109
	.word	2021232372
	.word	1799248025
	.word	-579749593
	.word	-1236278850
	.word	397248752
	.word	1722556617
	.word	-1271214467
	.word	407560035
	.word	-2110711067
	.word	1613975959
	.word	1165972322
	.word	-529046351
	.word	-2068943941
	.word	480281086
	.word	-1809118983
	.word	1483229296
	.word	436028815
	.word	-2022908268
	.word	-1208452270
	.word	601060267
	.word	-503166094
	.word	1468997603
	.word	715871590
	.word	120122290
	.word	63092015
	.word	-1703164538
	.word	-1526188077
	.word	-226023376
	.word	-1297760477
	.word	-1167457534
	.word	1552029421
	.word	723308426
	.word	-1833666137
	.word	-252573709
	.word	-1578997426
	.word	-839591323
	.word	-708967162
	.word	526529745
	.word	-1963022652
	.word	-1655493068
	.word	-1604979806
	.word	853641733
	.word	1978398372
	.word	971801355
	.word	-1427152832
	.word	111112542
	.word	1360031421
	.word	-108388034
	.word	1023860118
	.word	-1375387939
	.word	1186850381
	.word	-1249028975
	.word	90031217
	.word	1876166148
	.word	-15380384
	.word	620468249
	.word	-1746289194
	.word	-868007799
	.word	2006899047
	.word	-1119688528
	.word	-2004121337
	.word	945494503
	.word	-605108103
	.word	1191869601
	.word	-384875908
	.word	-920746760
	.word	0
	.word	-2088337399
	.word	1223502642
	.word	-1401941730
	.word	1316117100
	.word	-67170563
	.word	1446544655
	.word	517320253
	.word	658058550
	.word	1691946762
	.word	564550760
	.word	-783000677
	.word	976107044
	.word	-1318647284
	.word	266819475
	.word	-761860428
	.word	-1634624741
	.word	1338359936
	.word	-1574904735
	.word	1766553434
	.word	370807324
	.word	179999714
	.word	-450191168
	.word	1138762300
	.word	488053522
	.word	185403662
	.word	-1379431438
	.word	-1180125651
	.word	-928440812
	.word	-2061897385
	.word	1275557295
	.word	-1143105042
	.word	-44007517
	.word	-1624899081
	.word	-1124765092
	.word	-985962940
	.word	880737115
	.word	1982415755
	.word	-590994485
	.word	1761406390
	.word	1676797112
	.word	-891538985
	.word	277177154
	.word	1076008723
	.word	538035844
	.word	2099530373
	.word	-130171950
	.word	288553390
	.word	1839278535
	.word	1261411869
	.word	-214912292
	.word	-330136051
	.word	-790380169
	.word	1813426987
	.word	-1715900247
	.word	-95906799
	.word	577038663
	.word	-997393240
	.word	440397984
	.word	-668172970
	.word	-275762398
	.word	-951170681
	.word	-1043253031
	.word	-22885748
	.word	906744984
	.word	-813566554
	.word	685669029
	.word	646887386
	.word	-1530942145
	.word	-459458004
	.word	227702864
	.word	-1681105046
	.word	1648787028
	.word	-1038905866
	.word	-390539120
	.word	1593260334
	.word	-173030526
	.word	-1098883681
	.word	2090061929
	.word	-1456614033
	.word	-1290656305
	.word	999926984
	.word	-1484974064
	.word	1852021992
	.word	2075868123
	.word	158869197
	.word	-199730834
	.word	28809964
	.word	-1466282109
	.word	1701746150
	.word	2129067946
	.word	147831841
	.word	-420997649
	.word	-644094022
	.word	-835293366
	.word	-737566742
	.word	-696471511
	.word	-1347247055
	.word	824393514
	.word	815048134
	.word	-1067015627
	.word	935087732
	.word	-1496677636
	.word	-1328508704
	.word	366520115
	.word	1251476721
	.word	-136647615
	.word	240176511
	.word	804688151
	.word	-1915335306
	.word	1303441219
	.word	1414376140
	.word	-553347356
	.word	-474623586
	.word	461924940
	.word	-1205916479
	.word	2136040774
	.word	82468509
	.word	1563790337
	.word	1937016826
	.word	776014843
	.word	1511876531
	.word	1389550482
	.word	861278441
	.word	323475053
	.word	-1939744870
	.word	2047648055
	.word	-1911228327
	.word	-1992551445
	.word	-299390514
	.word	902390199
	.word	-303751967
	.word	1018251130
	.word	1507840668
	.word	1064563285
	.word	2043548696
	.word	-1086863501
	.word	-355600557
	.word	1537932639
	.word	342834655
	.word	-2032450440
	.word	-2114736182
	.word	1053059257
	.word	741614648
	.word	1598071746
	.word	1925389590
	.word	203809468
	.word	-1958134744
	.word	1100287487
	.word	1895934009
	.word	-558691320
	.word	-1662733096
	.word	-1866377628
	.word	1636092795
	.word	1890988757
	.word	1952214088
	.word	1113045200
	.section	.rodata.RT1,"a"
	.align	2
	.type	RT1, @object
	.size	RT1, 1024
RT1:
	.word	-1477160624
	.word	1698790995
	.word	-1541989693
	.word	1579629206
	.word	1806384075
	.word	1167925233
	.word	1492823211
	.word	65227667
	.word	-97509291
	.word	1836494326
	.word	1993115793
	.word	1275262245
	.word	-672837636
	.word	-886389289
	.word	1144333952
	.word	-1553812081
	.word	1521606217
	.word	465184103
	.word	250234264
	.word	-1057071647
	.word	1966064386
	.word	-263421678
	.word	-1756983901
	.word	-103584826
	.word	1603208167
	.word	-1668147819
	.word	2054012907
	.word	1498584538
	.word	-2084645843
	.word	561273043
	.word	1776306473
	.word	-926314940
	.word	-1983744662
	.word	2039411832
	.word	1045993835
	.word	1907959773
	.word	1340194486
	.word	-1383534569
	.word	-1407137434
	.word	986611124
	.word	1256153880
	.word	823846274
	.word	860985184
	.word	2136171077
	.word	2003087840
	.word	-1368671356
	.word	-1602093540
	.word	722008468
	.word	1749577816
	.word	-45773031
	.word	1826526343
	.word	-126135625
	.word	-747394269
	.word	38499042
	.word	-1893735593
	.word	-1420466646
	.word	686535175
	.word	-1028313341
	.word	2076542618
	.word	137876389
	.word	-2027409166
	.word	-1514200142
	.word	1778582202
	.word	-2112426660
	.word	483363371
	.word	-1267095662
	.word	-234359824
	.word	-496415071
	.word	-187013683
	.word	-1106966827
	.word	1647628575
	.word	-22625142
	.word	1395537053
	.word	1442030240
	.word	-511048398
	.word	-336157579
	.word	-326956231
	.word	-278904662
	.word	-1619960314
	.word	275692881
	.word	-1977532679
	.word	115185213
	.word	88006062
	.word	-1108980410
	.word	-1923837515
	.word	1573155077
	.word	-737803153
	.word	357589247
	.word	-73918172
	.word	-373434729
	.word	1128303052
	.word	-1629919369
	.word	1122545853
	.word	-1953953912
	.word	1528424248
	.word	-288851493
	.word	175939911
	.word	256015593
	.word	512030921
	.word	0
	.word	-2038429309
	.word	-315936184
	.word	1880170156
	.word	1918528590
	.word	-15794693
	.word	948244310
	.word	-710001378
	.word	959264295
	.word	-653325724
	.word	-1503893471
	.word	1415289809
	.word	775300154
	.word	1728711857
	.word	-413691121
	.word	-1762741038
	.word	-1852105826
	.word	-977239985
	.word	551313826
	.word	1266113129
	.word	437394454
	.word	-1164713462
	.word	715178213
	.word	-534627261
	.word	387650077
	.word	218697227
	.word	-947129683
	.word	-1464455751
	.word	-1457646392
	.word	435246981
	.word	125153100
	.word	-577114437
	.word	1618977789
	.word	637663135
	.word	-177054532
	.word	996558021
	.word	2130402100
	.word	692292470
	.word	-970732580
	.word	-51530136
	.word	-236668829
	.word	-600713270
	.word	-2057092592
	.word	580326208
	.word	298222624
	.word	608863613
	.word	1035719416
	.word	855223825
	.word	-1591097491
	.word	798891339
	.word	817028339
	.word	1384517100
	.word	-473860144
	.word	380840812
	.word	-1183798887
	.word	1217663482
	.word	1693009698
	.word	-1929598780
	.word	1072734234
	.word	746411736
	.word	-1875696913
	.word	1313441735
	.word	-784803391
	.word	-1563783938
	.word	198481974
	.word	-2114607409
	.word	-562387672
	.word	-1900553690
	.word	-1079165020
	.word	-1657131804
	.word	-1837608947
	.word	-866162021
	.word	1182684258
	.word	328070850
	.word	-1193766680
	.word	-147247522
	.word	-1346141451
	.word	-2141347906
	.word	-1815058052
	.word	768962473
	.word	304467891
	.word	-1716729797
	.word	2098729127
	.word	1671227502
	.word	-1153705093
	.word	2015808777
	.word	408514292
	.word	-1214583807
	.word	-1706064984
	.word	1855317605
	.word	-419452290
	.word	-809754360
	.word	-401215514
	.word	-1679312167
	.word	913263310
	.word	161475284
	.word	2091919830
	.word	-1297862225
	.word	591342129
	.word	-1801075152
	.word	1721906624
	.word	-1135709129
	.word	-897385306
	.word	-795811664
	.word	-660131051
	.word	-1744506550
	.word	-622050825
	.word	1355644686
	.word	-158263505
	.word	-699566451
	.word	-1326496947
	.word	1303039060
	.word	76997855
	.word	-1244553501
	.word	-2006299621
	.word	523026872
	.word	1365591679
	.word	-362898172
	.word	898367837
	.word	1955068531
	.word	1091304238
	.word	493335386
	.word	-757362094
	.word	1443948851
	.word	1205234963
	.word	1641519756
	.word	211892090
	.word	351820174
	.word	1007938441
	.word	665439982
	.word	-916342987
	.word	-451091987
	.word	-1320715716
	.word	-539845543
	.word	1945261375
	.word	-837543815
	.word	935818175
	.word	-839429142
	.word	-1426235557
	.word	1866325780
	.word	-616269690
	.word	-206583167
	.word	-999769794
	.word	874788908
	.word	1084473951
	.word	-1021503886
	.word	635616268
	.word	1228679307
	.word	-1794244799
	.word	27801969
	.word	-1291056930
	.word	-457910116
	.word	-1051302768
	.word	-2067039391
	.word	-1238182544
	.word	1550600308
	.word	1471729730
	.section	.rodata.RT2,"a"
	.align	2
	.type	RT2, @object
	.size	RT2, 1024
RT2:
	.word	-195997529
	.word	1098797925
	.word	387629988
	.word	658151006
	.word	-1422144661
	.word	-1658851003
	.word	-89347240
	.word	-481586429
	.word	807425530
	.word	1991112301
	.word	-863465098
	.word	49620300
	.word	-447742761
	.word	717608907
	.word	891715652
	.word	1656065955
	.word	-1310832294
	.word	-1171953893
	.word	-364537842
	.word	-27401792
	.word	801309301
	.word	1283527408
	.word	1183687575
	.word	-747911431
	.word	-1895569569
	.word	-1844079204
	.word	1841294202
	.word	1385552473
	.word	-1093390973
	.word	1951978273
	.word	-532076183
	.word	-913423160
	.word	-1032492407
	.word	-1896580999
	.word	1486449470
	.word	-1188569743
	.word	-507595185
	.word	-1997531219
	.word	550069932
	.word	-830622662
	.word	-547153846
	.word	451248689
	.word	1368875059
	.word	1398949247
	.word	1689378935
	.word	1807451310
	.word	-2114052960
	.word	150574123
	.word	1215322216
	.word	1167006205
	.word	-560691348
	.word	2069018616
	.word	1940595667
	.word	1265820162
	.word	534992783
	.word	1432758955
	.word	-340654296
	.word	-1255210046
	.word	-981034373
	.word	936617224
	.word	674296455
	.word	-1088179547
	.word	50510442
	.word	384654466
	.word	-813028580
	.word	2041025204
	.word	133427442
	.word	1766760930
	.word	-630862348
	.word	84334014
	.word	886120290
	.word	-1497068802
	.word	775200083
	.word	-207445931
	.word	-1979370783
	.word	-156994069
	.word	-2096416276
	.word	1614850799
	.word	1901987487
	.word	1857900816
	.word	557775242
	.word	-577356538
	.word	1054715397
	.word	-431143235
	.word	1418835341
	.word	-999226019
	.word	100954068
	.word	1348534037
	.word	-1743182597
	.word	-1110009879
	.word	1082772547
	.word	-647530594
	.word	-391070398
	.word	-1995994997
	.word	434583643
	.word	-931537938
	.word	2090944266
	.word	1115482383
	.word	-2064070370
	.word	0
	.word	-2146860154
	.word	724715757
	.word	287222896
	.word	1517047410
	.word	251526143
	.word	-2062592456
	.word	-1371726123
	.word	758523705
	.word	252339417
	.word	1550328230
	.word	1536938324
	.word	908343854
	.word	168604007
	.word	1469255655
	.word	-290139498
	.word	-1692688751
	.word	-1065332795
	.word	-597581280
	.word	2002413899
	.word	303830554
	.word	-1813902662
	.word	-1597971158
	.word	574374880
	.word	454171927
	.word	151915277
	.word	-1947030073
	.word	-1238517336
	.word	504678569
	.word	-245922535
	.word	1974422535
	.word	-1712407587
	.word	2141453664
	.word	33005350
	.word	1918680309
	.word	1715782971
	.word	-77908866
	.word	1133213225
	.word	600562886
	.word	-306812676
	.word	-457677839
	.word	836225756
	.word	1665273989
	.word	-1760346078
	.word	-964419567
	.word	1250262308
	.word	-1143801795
	.word	-106032846
	.word	700935585
	.word	-1642247377
	.word	-1294142672
	.word	-2045907886
	.word	-1049112349
	.word	-1288999914
	.word	1890163129
	.word	-1810761144
	.word	-381214108
	.word	-56048500
	.word	-257942977
	.word	2102843436
	.word	857927568
	.word	1233635150
	.word	953795025
	.word	-896729438
	.word	-728222197
	.word	-173617279
	.word	2057644254
	.word	-1210440050
	.word	-1388337985
	.word	976020637
	.word	2018512274
	.word	1600822220
	.word	2119459398
	.word	-1913208301
	.word	-661591880
	.word	959340279
	.word	-1014827601
	.word	1570750080
	.word	-798393197
	.word	-714102483
	.word	634368786
	.word	-1396163687
	.word	403744637
	.word	-1662488989
	.word	1004239803
	.word	650971512
	.word	1500443672
	.word	-1695809097
	.word	1334028442
	.word	-1780062866
	.word	-5603610
	.word	-1138685745
	.word	368043752
	.word	-407184997
	.word	1867173430
	.word	-1612000247
	.word	-1339435396
	.word	-1540247630
	.word	1059729699
	.word	-1513738092
	.word	-1573535642
	.word	1316239292
	.word	-2097371446
	.word	-1864322864
	.word	-1489824296
	.word	82922136
	.word	-331221030
	.word	-847311280
	.word	-1860751370
	.word	1299615190
	.word	-280801872
	.word	-1429449651
	.word	-1763385596
	.word	-778116171
	.word	1783372680
	.word	750893087
	.word	1699118929
	.word	1587348714
	.word	-1946067659
	.word	-2013629580
	.word	201010753
	.word	1739807261
	.word	-611167534
	.word	283718486
	.word	-697494713
	.word	-677737375
	.word	-1590199796
	.word	-128348652
	.word	334203196
	.word	-1446056409
	.word	1639396809
	.word	484568549
	.word	1199193265
	.word	-761505313
	.word	-229294221
	.word	337148366
	.word	-948715721
	.word	-145495347
	.word	-44082262
	.word	1038029935
	.word	1148749531
	.word	-1345682957
	.word	1756970692
	.word	607661108
	.word	-1547542720
	.word	488010435
	.word	-490992603
	.word	1009290057
	.word	234832277
	.word	-1472630527
	.word	201907891
	.word	-1260872476
	.word	1449431233
	.word	-881106556
	.word	852848822
	.word	1816687708
	.word	-1194311081
	.section	.rodata.RT3,"a"
	.align	2
	.type	RT3, @object
	.size	RT3, 1024
RT3:
	.word	1364240372
	.word	2119394625
	.word	449029143
	.word	982933031
	.word	1003187115
	.word	535905693
	.word	-1398056710
	.word	1267925987
	.word	542505520
	.word	-1376359050
	.word	-2003732788
	.word	-182105086
	.word	1341970405
	.word	-975713494
	.word	645940277
	.word	-1248877726
	.word	-565617999
	.word	627514298
	.word	1167593194
	.word	1575076094
	.word	-1023249105
	.word	-2129465268
	.word	-1918658746
	.word	1808202195
	.word	65494927
	.word	362126482
	.word	-1075086739
	.word	-1780852398
	.word	-735214658
	.word	1490231668
	.word	1227450848
	.word	-1908094775
	.word	1969916354
	.word	-193431154
	.word	-1721024936
	.word	668823993
	.word	-1095348255
	.word	-266883704
	.word	-916018144
	.word	2108963534
	.word	1662536415
	.word	-444452582
	.word	-1755303087
	.word	1648721747
	.word	-1310689436
	.word	-1148932501
	.word	-31678335
	.word	-107730168
	.word	1884842056
	.word	-1894122171
	.word	-1803064098
	.word	1387788411
	.word	-1423715469
	.word	1927414347
	.word	-480800993
	.word	1714072405
	.word	-1308153621
	.word	788775605
	.word	-2036696123
	.word	-744159177
	.word	821200680
	.word	598910399
	.word	45771267
	.word	-312704490
	.word	-1976886065
	.word	-1483557767
	.word	-202313209
	.word	1319232105
	.word	1707996378
	.word	114671109
	.word	-786472396
	.word	-997523802
	.word	882725678
	.word	-1566550541
	.word	87220618
	.word	-1535775754
	.word	188345475
	.word	1084944224
	.word	1577492337
	.word	-1118760850
	.word	1056541217
	.word	-1774385443
	.word	-575797954
	.word	1296481766
	.word	-1850372780
	.word	1896177092
	.word	74437638
	.word	1627329872
	.word	421854104
	.word	-694687299
	.word	-1983102144
	.word	1735892697
	.word	-1329773848
	.word	126389129
	.word	-415737063
	.word	2044456648
	.word	-1589179780
	.word	2095648578
	.word	-121037180
	.word	0
	.word	159614592
	.word	843640107
	.word	514617361
	.word	1817080410
	.word	-33816818
	.word	257308805
	.word	1025430958
	.word	908540205
	.word	174381327
	.word	1747035740
	.word	-1680780197
	.word	607792694
	.word	212952842
	.word	-1827674281
	.word	-1261267218
	.word	463376795
	.word	-2142255680
	.word	1638015196
	.word	1516850039
	.word	471210514
	.word	-502613357
	.word	-1058723168
	.word	1011081250
	.word	303896347
	.word	235605257
	.word	-223492213
	.word	767142070
	.word	348694814
	.word	1468340721
	.word	-1353971851
	.word	-289677927
	.word	-1543675777
	.word	-140564991
	.word	1555887474
	.word	1153776486
	.word	1530167035
	.word	-1955190461
	.word	-874723805
	.word	-1234633491
	.word	-1201409564
	.word	-674571215
	.word	1108378979
	.word	322970263
	.word	-2078273082
	.word	-2055396278
	.word	-755483205
	.word	-1374604551
	.word	-949116631
	.word	491466654
	.word	-588042062
	.word	233591430
	.word	2010178497
	.word	728503987
	.word	-1449543312
	.word	301615252
	.word	1193436393
	.word	-1463513860
	.word	-1608892432
	.word	1457007741
	.word	586125363
	.word	-2016981431
	.word	-641609416
	.word	-1929469238
	.word	-1741288492
	.word	-1496350219
	.word	-1524048262
	.word	-635007305
	.word	1067761581
	.word	753179962
	.word	1343066744
	.word	1788595295
	.word	1415726718
	.word	-155053171
	.word	-1863796520
	.word	777975609
	.word	-2097827901
	.word	-1614905251
	.word	1769771984
	.word	1873358293
	.word	-810347995
	.word	-935618132
	.word	279411992
	.word	-395418724
	.word	-612648133
	.word	-855017434
	.word	1861490777
	.word	-335431782
	.word	-2086102449
	.word	-429560171
	.word	-1434523905
	.word	554225596
	.word	-270079979
	.word	-1160143897
	.word	1255028335
	.word	-355202657
	.word	701922480
	.word	833598116
	.word	707863359
	.word	-969894747
	.word	901801634
	.word	1949809742
	.word	-56178046
	.word	-525283184
	.word	857069735
	.word	-246769660
	.word	1106762476
	.word	2131644621
	.word	389019281
	.word	1989006925
	.word	1129165039
	.word	-866890326
	.word	-455146346
	.word	-1629243951
	.word	1276872810
	.word	-1044898004
	.word	1182749029
	.word	-1660622242
	.word	22885772
	.word	-93096825
	.word	-80854773
	.word	-1285939865
	.word	-1840065829
	.word	-382511600
	.word	1829980118
	.word	-1702075945
	.word	930745505
	.word	1502483704
	.word	-343327725
	.word	-823253079
	.word	-1221211807
	.word	-504503012
	.word	2050797895
	.word	-1671831598
	.word	1430221810
	.word	410635796
	.word	1941911495
	.word	1407897079
	.word	1599843069
	.word	-552308931
	.word	2022103876
	.word	-897453137
	.word	-1187068824
	.word	942421028
	.word	-1033944925
	.word	376619805
	.word	-1140054558
	.word	680216892
	.word	-12479219
	.word	963707304
	.word	148812556
	.word	-660806476
	.word	1687208278
	.word	2069988555
	.word	-714033614
	.word	1215585388
	.word	-800958536
	.section	.rodata.round_constants,"a"
	.align	2
	.type	round_constants, @object
	.size	round_constants, 40
round_constants:
	.word	1
	.word	2
	.word	4
	.word	8
	.word	16
	.word	32
	.word	64
	.word	128
	.word	27
	.word	54
	.section	.text.mbedtls_aes_init,"ax",@progbits
	.align	1
	.globl	mbedtls_aes_init
	.type	mbedtls_aes_init, @function
mbedtls_aes_init:
.LFB16:
	.file 3 "/home/chandu/sdk/bl602_iot_sdk/components/security/mbedtls-bl602/library/aes.c"
	.loc 3 493 1
	.cfi_startproc
	addi	sp,sp,-32
	.cfi_def_cfa_offset 32
	sw	ra,28(sp)
	sw	s0,24(sp)
	.cfi_offset 1, -4
	.cfi_offset 8, -8
	addi	s0,sp,32
	.cfi_def_cfa 8, 0
	sw	a0,-20(s0)
	.loc 3 494 5
	li	a2,280
	li	a1,0
	lw	a0,-20(s0)
	call	memset
	.loc 3 495 1
	nop
	lw	ra,28(sp)
	.cfi_restore 1
	lw	s0,24(sp)
	.cfi_restore 8
	.cfi_def_cfa 2, 32
	addi	sp,sp,32
	.cfi_def_cfa_offset 0
	jr	ra
	.cfi_endproc
.LFE16:
	.size	mbedtls_aes_init, .-mbedtls_aes_init
	.section	.text.mbedtls_aes_free,"ax",@progbits
	.align	1
	.globl	mbedtls_aes_free
	.type	mbedtls_aes_free, @function
mbedtls_aes_free:
.LFB17:
	.loc 3 498 1
	.cfi_startproc
	addi	sp,sp,-32
	.cfi_def_cfa_offset 32
	sw	ra,28(sp)
	sw	s0,24(sp)
	.cfi_offset 1, -4
	.cfi_offset 8, -8
	addi	s0,sp,32
	.cfi_def_cfa 8, 0
	sw	a0,-20(s0)
	.loc 3 499 8
	lw	a5,-20(s0)
	beq	a5,zero,.L10
	.loc 3 503 5
	li	a1,280
	lw	a0,-20(s0)
	call	mbedtls_platform_zeroize
	j	.L7
.L10:
	.loc 3 500 9
	nop
.L7:
	.loc 3 504 1
	lw	ra,28(sp)
	.cfi_restore 1
	lw	s0,24(sp)
	.cfi_restore 8
	.cfi_def_cfa 2, 32
	addi	sp,sp,32
	.cfi_def_cfa_offset 0
	jr	ra
	.cfi_endproc
.LFE17:
	.size	mbedtls_aes_free, .-mbedtls_aes_free
	.section	.text.mbedtls_aes_rk_offset,"ax",@progbits
	.align	1
	.type	mbedtls_aes_rk_offset, @function
mbedtls_aes_rk_offset:
.LFB18:
	.loc 3 536 1
	.cfi_startproc
	addi	sp,sp,-32
	.cfi_def_cfa_offset 32
	sw	ra,28(sp)
	sw	s0,24(sp)
	.cfi_offset 1, -4
	.cfi_offset 8, -8
	addi	s0,sp,32
	.cfi_def_cfa 8, 0
	sw	a0,-20(s0)
	.loc 3 569 12
	li	a5,0
	.loc 3 570 1
	mv	a0,a5
	lw	ra,28(sp)
	.cfi_restore 1
	lw	s0,24(sp)
	.cfi_restore 8
	.cfi_def_cfa 2, 32
	addi	sp,sp,32
	.cfi_def_cfa_offset 0
	jr	ra
	.cfi_endproc
.LFE18:
	.size	mbedtls_aes_rk_offset, .-mbedtls_aes_rk_offset
	.section	.text.mbedtls_aes_setkey_enc,"ax",@progbits
	.align	1
	.globl	mbedtls_aes_setkey_enc
	.type	mbedtls_aes_setkey_enc, @function
mbedtls_aes_setkey_enc:
.LFB19:
	.loc 3 578 1
	.cfi_startproc
	addi	sp,sp,-64
	.cfi_def_cfa_offset 64
	sw	ra,60(sp)
	sw	s0,56(sp)
	.cfi_offset 1, -4
	.cfi_offset 8, -8
	addi	s0,sp,64
	.cfi_def_cfa 8, 0
	sw	a0,-52(s0)
	sw	a1,-56(s0)
	sw	a2,-60(s0)
	.loc 3 581 5
	lw	a4,-60(s0)
	li	a5,256
	beq	a4,a5,.L14
	lw	a4,-60(s0)
	li	a5,256
	bgtu	a4,a5,.L15
	lw	a4,-60(s0)
	li	a5,128
	beq	a4,a5,.L16
	lw	a4,-60(s0)
	li	a5,192
	beq	a4,a5,.L17
	j	.L15
.L16:
	.loc 3 582 27
	lw	a5,-52(s0)
	li	a4,10
	sw	a4,0(a5)
	.loc 3 582 33
	j	.L18
.L17:
	.loc 3 584 27
	lw	a5,-52(s0)
	li	a4,12
	sw	a4,0(a5)
	.loc 3 584 33
	j	.L18
.L14:
	.loc 3 585 27
	lw	a5,-52(s0)
	li	a4,14
	sw	a4,0(a5)
	.loc 3 585 33
	j	.L18
.L15:
	.loc 3 587 25
	li	a5,-32
	j	.L19
.L18:
	.loc 3 597 47
	lw	a5,-52(s0)
	addi	a5,a5,8
	.loc 3 597 22
	mv	a0,a5
	call	mbedtls_aes_rk_offset
	mv	a4,a0
	.loc 3 597 20 discriminator 1
	lw	a5,-52(s0)
	sw	a4,4(a5)
	.loc 3 598 10
	lw	a5,-52(s0)
	addi	a4,a5,8
	.loc 3 598 24
	lw	a5,-52(s0)
	lw	a5,4(a5)
	.loc 3 598 19
	slli	a5,a5,2
	.loc 3 598 8
	add	a5,a4,a5
	sw	a5,-20(s0)
.LBB60:
	.loc 3 613 23
	sw	zero,-24(s0)
	.loc 3 613 5
	j	.L20
.L22:
	.loc 3 614 132
	lw	a5,-24(s0)
	slli	a5,a5,2
	.loc 3 614 127
	lw	a4,-56(s0)
	add	a5,a4,a5
	.loc 3 614 11
	lw	a4,-24(s0)
	slli	a4,a4,2
	lw	a3,-20(s0)
	add	a4,a3,a4
	sw	a5,-48(s0)
.LBB61:
.LBB62:
	.loc 2 174 33
	lw	a5,-48(s0)
	sw	a5,-44(s0)
	.loc 2 175 7
	lw	a5,-44(s0)
	lbu	a3,0(a5)
	lbu	a2,1(a5)
	slli	a2,a2,8
	or	a3,a2,a3
	lbu	a2,2(a5)
	slli	a2,a2,16
	or	a3,a2,a3
	lbu	a5,3(a5)
	slli	a5,a5,24
	or	a5,a5,a3
	sw	a5,-40(s0)
	.loc 2 179 12
	lw	a5,-40(s0)
.LBE62:
.LBE61:
	.loc 3 614 15 discriminator 1
	sw	a5,0(a4)
	.loc 3 613 51 discriminator 3
	lw	a5,-24(s0)
	addi	a5,a5,1
	sw	a5,-24(s0)
.L20:
	.loc 3 613 43 discriminator 1
	lw	a5,-60(s0)
	srli	a5,a5,5
	.loc 3 613 32 discriminator 1
	lw	a4,-24(s0)
	bltu	a4,a5,.L22
.LBE60:
	.loc 3 617 16
	lw	a5,-52(s0)
	lw	a5,0(a5)
	.loc 3 617 5
	li	a4,14
	beq	a5,a4,.L23
	li	a4,14
	bgt	a5,a4,.L24
	li	a4,10
	beq	a5,a4,.L25
	li	a4,12
	beq	a5,a4,.L26
	j	.L24
.L25:
.LBB63:
	.loc 3 620 31
	sw	zero,-28(s0)
	.loc 3 620 13
	j	.L27
.L28:
	.loc 3 621 27
	lw	a5,-20(s0)
	lw	a4,0(a5)
	.loc 3 621 48
	lui	a5,%hi(round_constants)
	addi	a3,a5,%lo(round_constants)
	lw	a5,-28(s0)
	slli	a5,a5,2
	add	a5,a3,a5
	lw	a5,0(a5)
	.loc 3 621 31
	xor	a5,a4,a5
	.loc 3 622 58
	lw	a4,-20(s0)
	addi	a4,a4,12
	lw	a4,0(a4)
	.loc 3 622 63
	srli	a4,a4,8
	.loc 3 622 43
	andi	a4,a4,0xff
	mv	a3,a4
	.loc 3 622 41
	lui	a4,%hi(FSb)
	addi	a4,a4,%lo(FSb)
	add	a4,a4,a3
	lbu	a4,0(a4)
	.loc 3 621 52
	xor	a4,a5,a4
	.loc 3 623 58
	lw	a5,-20(s0)
	addi	a5,a5,12
	lw	a5,0(a5)
	.loc 3 623 63
	srli	a5,a5,16
	.loc 3 623 43
	andi	a5,a5,0xff
	mv	a3,a5
	.loc 3 623 41
	lui	a5,%hi(FSb)
	addi	a5,a5,%lo(FSb)
	add	a5,a5,a3
	lbu	a5,0(a5)
	.loc 3 623 80
	slli	a5,a5,8
	.loc 3 622 80
	xor	a4,a4,a5
	.loc 3 624 58
	lw	a5,-20(s0)
	addi	a5,a5,12
	lw	a5,0(a5)
	.loc 3 624 63
	srli	a5,a5,24
	.loc 3 624 43
	andi	a5,a5,0xff
	mv	a3,a5
	.loc 3 624 41
	lui	a5,%hi(FSb)
	addi	a5,a5,%lo(FSb)
	add	a5,a5,a3
	lbu	a5,0(a5)
	.loc 3 624 80
	slli	a5,a5,16
	.loc 3 623 86
	xor	a3,a4,a5
	.loc 3 625 57
	lw	a5,-20(s0)
	addi	a5,a5,12
	lw	a5,0(a5)
	.loc 3 625 43
	andi	a5,a5,0xff
	mv	a4,a5
	.loc 3 625 41
	lui	a5,%hi(FSb)
	addi	a5,a5,%lo(FSb)
	add	a5,a5,a4
	lbu	a5,0(a5)
	.loc 3 625 72
	slli	a4,a5,24
	.loc 3 621 19
	lw	a5,-20(s0)
	addi	a5,a5,16
	.loc 3 624 87
	xor	a4,a3,a4
	.loc 3 621 23
	sw	a4,0(a5)
	.loc 3 627 27
	lw	a5,-20(s0)
	addi	a5,a5,4
	lw	a3,0(a5)
	.loc 3 627 35
	lw	a5,-20(s0)
	addi	a5,a5,16
	lw	a4,0(a5)
	.loc 3 627 19
	lw	a5,-20(s0)
	addi	a5,a5,20
	.loc 3 627 31
	xor	a4,a3,a4
	.loc 3 627 23
	sw	a4,0(a5)
	.loc 3 628 27
	lw	a5,-20(s0)
	addi	a5,a5,8
	lw	a3,0(a5)
	.loc 3 628 35
	lw	a5,-20(s0)
	addi	a5,a5,20
	lw	a4,0(a5)
	.loc 3 628 19
	lw	a5,-20(s0)
	addi	a5,a5,24
	.loc 3 628 31
	xor	a4,a3,a4
	.loc 3 628 23
	sw	a4,0(a5)
	.loc 3 629 27
	lw	a5,-20(s0)
	addi	a5,a5,12
	lw	a3,0(a5)
	.loc 3 629 35
	lw	a5,-20(s0)
	addi	a5,a5,24
	lw	a4,0(a5)
	.loc 3 629 19
	lw	a5,-20(s0)
	addi	a5,a5,28
	.loc 3 629 31
	xor	a4,a3,a4
	.loc 3 629 23
	sw	a4,0(a5)
	.loc 3 620 47 discriminator 3
	lw	a5,-28(s0)
	addi	a5,a5,1
	sw	a5,-28(s0)
	.loc 3 620 54 discriminator 3
	lw	a5,-20(s0)
	addi	a5,a5,16
	sw	a5,-20(s0)
.L27:
	.loc 3 620 40 discriminator 1
	lw	a4,-28(s0)
	li	a5,9
	bleu	a4,a5,.L28
.LBE63:
	.loc 3 631 13
	j	.L24
.L26:
.LBB64:
	.loc 3 636 31
	sw	zero,-32(s0)
	.loc 3 636 13
	j	.L29
.L30:
	.loc 3 637 27
	lw	a5,-20(s0)
	lw	a4,0(a5)
	.loc 3 637 48
	lui	a5,%hi(round_constants)
	addi	a3,a5,%lo(round_constants)
	lw	a5,-32(s0)
	slli	a5,a5,2
	add	a5,a3,a5
	lw	a5,0(a5)
	.loc 3 637 31
	xor	a5,a4,a5
	.loc 3 638 58
	lw	a4,-20(s0)
	addi	a4,a4,20
	lw	a4,0(a4)
	.loc 3 638 63
	srli	a4,a4,8
	.loc 3 638 43
	andi	a4,a4,0xff
	mv	a3,a4
	.loc 3 638 41
	lui	a4,%hi(FSb)
	addi	a4,a4,%lo(FSb)
	add	a4,a4,a3
	lbu	a4,0(a4)
	.loc 3 637 52
	xor	a4,a5,a4
	.loc 3 639 58
	lw	a5,-20(s0)
	addi	a5,a5,20
	lw	a5,0(a5)
	.loc 3 639 63
	srli	a5,a5,16
	.loc 3 639 43
	andi	a5,a5,0xff
	mv	a3,a5
	.loc 3 639 41
	lui	a5,%hi(FSb)
	addi	a5,a5,%lo(FSb)
	add	a5,a5,a3
	lbu	a5,0(a5)
	.loc 3 639 80
	slli	a5,a5,8
	.loc 3 638 80
	xor	a4,a4,a5
	.loc 3 640 58
	lw	a5,-20(s0)
	addi	a5,a5,20
	lw	a5,0(a5)
	.loc 3 640 63
	srli	a5,a5,24
	.loc 3 640 43
	andi	a5,a5,0xff
	mv	a3,a5
	.loc 3 640 41
	lui	a5,%hi(FSb)
	addi	a5,a5,%lo(FSb)
	add	a5,a5,a3
	lbu	a5,0(a5)
	.loc 3 640 80
	slli	a5,a5,16
	.loc 3 639 86
	xor	a3,a4,a5
	.loc 3 641 57
	lw	a5,-20(s0)
	addi	a5,a5,20
	lw	a5,0(a5)
	.loc 3 641 43
	andi	a5,a5,0xff
	mv	a4,a5
	.loc 3 641 41
	lui	a5,%hi(FSb)
	addi	a5,a5,%lo(FSb)
	add	a5,a5,a4
	lbu	a5,0(a5)
	.loc 3 641 72
	slli	a4,a5,24
	.loc 3 637 19
	lw	a5,-20(s0)
	addi	a5,a5,24
	.loc 3 640 87
	xor	a4,a3,a4
	.loc 3 637 23
	sw	a4,0(a5)
	.loc 3 643 27
	lw	a5,-20(s0)
	addi	a5,a5,4
	lw	a3,0(a5)
	.loc 3 643 35
	lw	a5,-20(s0)
	addi	a5,a5,24
	lw	a4,0(a5)
	.loc 3 643 19
	lw	a5,-20(s0)
	addi	a5,a5,28
	.loc 3 643 31
	xor	a4,a3,a4
	.loc 3 643 23
	sw	a4,0(a5)
	.loc 3 644 27
	lw	a5,-20(s0)
	addi	a5,a5,8
	lw	a3,0(a5)
	.loc 3 644 35
	lw	a5,-20(s0)
	addi	a5,a5,28
	lw	a4,0(a5)
	.loc 3 644 19
	lw	a5,-20(s0)
	addi	a5,a5,32
	.loc 3 644 31
	xor	a4,a3,a4
	.loc 3 644 23
	sw	a4,0(a5)
	.loc 3 645 27
	lw	a5,-20(s0)
	addi	a5,a5,12
	lw	a3,0(a5)
	.loc 3 645 35
	lw	a5,-20(s0)
	addi	a5,a5,32
	lw	a4,0(a5)
	.loc 3 645 19
	lw	a5,-20(s0)
	addi	a5,a5,36
	.loc 3 645 31
	xor	a4,a3,a4
	.loc 3 645 23
	sw	a4,0(a5)
	.loc 3 646 28
	lw	a5,-20(s0)
	addi	a5,a5,16
	lw	a3,0(a5)
	.loc 3 646 36
	lw	a5,-20(s0)
	addi	a5,a5,36
	lw	a4,0(a5)
	.loc 3 646 19
	lw	a5,-20(s0)
	addi	a5,a5,40
	.loc 3 646 32
	xor	a4,a3,a4
	.loc 3 646 24
	sw	a4,0(a5)
	.loc 3 647 28
	lw	a5,-20(s0)
	addi	a5,a5,20
	lw	a3,0(a5)
	.loc 3 647 36
	lw	a5,-20(s0)
	addi	a5,a5,40
	lw	a4,0(a5)
	.loc 3 647 19
	lw	a5,-20(s0)
	addi	a5,a5,44
	.loc 3 647 32
	xor	a4,a3,a4
	.loc 3 647 24
	sw	a4,0(a5)
	.loc 3 636 46 discriminator 3
	lw	a5,-32(s0)
	addi	a5,a5,1
	sw	a5,-32(s0)
	.loc 3 636 53 discriminator 3
	lw	a5,-20(s0)
	addi	a5,a5,24
	sw	a5,-20(s0)
.L29:
	.loc 3 636 40 discriminator 1
	lw	a4,-32(s0)
	li	a5,7
	bleu	a4,a5,.L30
.LBE64:
	.loc 3 649 13
	j	.L24
.L23:
.LBB65:
	.loc 3 653 31
	sw	zero,-36(s0)
	.loc 3 653 13
	j	.L31
.L32:
	.loc 3 654 27
	lw	a5,-20(s0)
	lw	a4,0(a5)
	.loc 3 654 48
	lui	a5,%hi(round_constants)
	addi	a3,a5,%lo(round_constants)
	lw	a5,-36(s0)
	slli	a5,a5,2
	add	a5,a3,a5
	lw	a5,0(a5)
	.loc 3 654 31
	xor	a5,a4,a5
	.loc 3 655 58
	lw	a4,-20(s0)
	addi	a4,a4,28
	lw	a4,0(a4)
	.loc 3 655 63
	srli	a4,a4,8
	.loc 3 655 43
	andi	a4,a4,0xff
	mv	a3,a4
	.loc 3 655 41
	lui	a4,%hi(FSb)
	addi	a4,a4,%lo(FSb)
	add	a4,a4,a3
	lbu	a4,0(a4)
	.loc 3 654 52
	xor	a4,a5,a4
	.loc 3 656 58
	lw	a5,-20(s0)
	addi	a5,a5,28
	lw	a5,0(a5)
	.loc 3 656 63
	srli	a5,a5,16
	.loc 3 656 43
	andi	a5,a5,0xff
	mv	a3,a5
	.loc 3 656 41
	lui	a5,%hi(FSb)
	addi	a5,a5,%lo(FSb)
	add	a5,a5,a3
	lbu	a5,0(a5)
	.loc 3 656 80
	slli	a5,a5,8
	.loc 3 655 80
	xor	a4,a4,a5
	.loc 3 657 58
	lw	a5,-20(s0)
	addi	a5,a5,28
	lw	a5,0(a5)
	.loc 3 657 63
	srli	a5,a5,24
	.loc 3 657 43
	andi	a5,a5,0xff
	mv	a3,a5
	.loc 3 657 41
	lui	a5,%hi(FSb)
	addi	a5,a5,%lo(FSb)
	add	a5,a5,a3
	lbu	a5,0(a5)
	.loc 3 657 80
	slli	a5,a5,16
	.loc 3 656 86
	xor	a3,a4,a5
	.loc 3 658 57
	lw	a5,-20(s0)
	addi	a5,a5,28
	lw	a5,0(a5)
	.loc 3 658 43
	andi	a5,a5,0xff
	mv	a4,a5
	.loc 3 658 41
	lui	a5,%hi(FSb)
	addi	a5,a5,%lo(FSb)
	add	a5,a5,a4
	lbu	a5,0(a5)
	.loc 3 658 72
	slli	a4,a5,24
	.loc 3 654 19
	lw	a5,-20(s0)
	addi	a5,a5,32
	.loc 3 657 87
	xor	a4,a3,a4
	.loc 3 654 23
	sw	a4,0(a5)
	.loc 3 660 27
	lw	a5,-20(s0)
	addi	a5,a5,4
	lw	a3,0(a5)
	.loc 3 660 35
	lw	a5,-20(s0)
	addi	a5,a5,32
	lw	a4,0(a5)
	.loc 3 660 19
	lw	a5,-20(s0)
	addi	a5,a5,36
	.loc 3 660 31
	xor	a4,a3,a4
	.loc 3 660 23
	sw	a4,0(a5)
	.loc 3 661 28
	lw	a5,-20(s0)
	addi	a5,a5,8
	lw	a3,0(a5)
	.loc 3 661 36
	lw	a5,-20(s0)
	addi	a5,a5,36
	lw	a4,0(a5)
	.loc 3 661 19
	lw	a5,-20(s0)
	addi	a5,a5,40
	.loc 3 661 32
	xor	a4,a3,a4
	.loc 3 661 24
	sw	a4,0(a5)
	.loc 3 662 28
	lw	a5,-20(s0)
	addi	a5,a5,12
	lw	a3,0(a5)
	.loc 3 662 36
	lw	a5,-20(s0)
	addi	a5,a5,40
	lw	a4,0(a5)
	.loc 3 662 19
	lw	a5,-20(s0)
	addi	a5,a5,44
	.loc 3 662 32
	xor	a4,a3,a4
	.loc 3 662 24
	sw	a4,0(a5)
	.loc 3 664 28
	lw	a5,-20(s0)
	addi	a5,a5,16
	lw	a5,0(a5)
	.loc 3 665 57
	lw	a4,-20(s0)
	addi	a4,a4,44
	lw	a4,0(a4)
	.loc 3 665 43
	andi	a4,a4,0xff
	mv	a3,a4
	.loc 3 665 41
	lui	a4,%hi(FSb)
	addi	a4,a4,%lo(FSb)
	add	a4,a4,a3
	lbu	a4,0(a4)
	.loc 3 664 32
	xor	a4,a5,a4
	.loc 3 666 58
	lw	a5,-20(s0)
	addi	a5,a5,44
	lw	a5,0(a5)
	.loc 3 666 64
	srli	a5,a5,8
	.loc 3 666 43
	andi	a5,a5,0xff
	mv	a3,a5
	.loc 3 666 41
	lui	a5,%hi(FSb)
	addi	a5,a5,%lo(FSb)
	add	a5,a5,a3
	lbu	a5,0(a5)
	.loc 3 666 80
	slli	a5,a5,8
	.loc 3 665 74
	xor	a4,a4,a5
	.loc 3 667 58
	lw	a5,-20(s0)
	addi	a5,a5,44
	lw	a5,0(a5)
	.loc 3 667 64
	srli	a5,a5,16
	.loc 3 667 43
	andi	a5,a5,0xff
	mv	a3,a5
	.loc 3 667 41
	lui	a5,%hi(FSb)
	addi	a5,a5,%lo(FSb)
	add	a5,a5,a3
	lbu	a5,0(a5)
	.loc 3 667 81
	slli	a5,a5,16
	.loc 3 666 86
	xor	a3,a4,a5
	.loc 3 668 58
	lw	a5,-20(s0)
	addi	a5,a5,44
	lw	a5,0(a5)
	.loc 3 668 64
	srli	a5,a5,24
	.loc 3 668 43
	andi	a5,a5,0xff
	mv	a4,a5
	.loc 3 668 41
	lui	a5,%hi(FSb)
	addi	a5,a5,%lo(FSb)
	add	a5,a5,a4
	lbu	a5,0(a5)
	.loc 3 668 81
	slli	a4,a5,24
	.loc 3 664 19
	lw	a5,-20(s0)
	addi	a5,a5,48
	.loc 3 667 88
	xor	a4,a3,a4
	.loc 3 664 24
	sw	a4,0(a5)
	.loc 3 670 28
	lw	a5,-20(s0)
	addi	a5,a5,20
	lw	a3,0(a5)
	.loc 3 670 36
	lw	a5,-20(s0)
	addi	a5,a5,48
	lw	a4,0(a5)
	.loc 3 670 19
	lw	a5,-20(s0)
	addi	a5,a5,52
	.loc 3 670 32
	xor	a4,a3,a4
	.loc 3 670 24
	sw	a4,0(a5)
	.loc 3 671 28
	lw	a5,-20(s0)
	addi	a5,a5,24
	lw	a3,0(a5)
	.loc 3 671 36
	lw	a5,-20(s0)
	addi	a5,a5,52
	lw	a4,0(a5)
	.loc 3 671 19
	lw	a5,-20(s0)
	addi	a5,a5,56
	.loc 3 671 32
	xor	a4,a3,a4
	.loc 3 671 24
	sw	a4,0(a5)
	.loc 3 672 28
	lw	a5,-20(s0)
	addi	a5,a5,28
	lw	a3,0(a5)
	.loc 3 672 36
	lw	a5,-20(s0)
	addi	a5,a5,56
	lw	a4,0(a5)
	.loc 3 672 19
	lw	a5,-20(s0)
	addi	a5,a5,60
	.loc 3 672 32
	xor	a4,a3,a4
	.loc 3 672 24
	sw	a4,0(a5)
	.loc 3 653 46 discriminator 3
	lw	a5,-36(s0)
	addi	a5,a5,1
	sw	a5,-36(s0)
	.loc 3 653 53 discriminator 3
	lw	a5,-20(s0)
	addi	a5,a5,32
	sw	a5,-20(s0)
.L31:
	.loc 3 653 40 discriminator 1
	lw	a4,-36(s0)
	li	a5,6
	bleu	a4,a5,.L32
.LBE65:
	.loc 3 674 13
	nop
.L24:
	.loc 3 678 12
	li	a5,0
.L19:
	.loc 3 680 1
	mv	a0,a5
	lw	ra,60(sp)
	.cfi_restore 1
	lw	s0,56(sp)
	.cfi_restore 8
	.cfi_def_cfa 2, 64
	addi	sp,sp,64
	.cfi_def_cfa_offset 0
	jr	ra
	.cfi_endproc
.LFE19:
	.size	mbedtls_aes_setkey_enc, .-mbedtls_aes_setkey_enc
	.section	.text.mbedtls_aes_setkey_dec,"ax",@progbits
	.align	1
	.globl	mbedtls_aes_setkey_dec
	.type	mbedtls_aes_setkey_dec, @function
mbedtls_aes_setkey_dec:
.LFB20:
	.loc 3 689 1
	.cfi_startproc
	addi	sp,sp,-336
	.cfi_def_cfa_offset 336
	sw	ra,332(sp)
	sw	s0,328(sp)
	.cfi_offset 1, -4
	.cfi_offset 8, -8
	addi	s0,sp,336
	.cfi_def_cfa 8, 0
	sw	a0,-324(s0)
	sw	a1,-328(s0)
	sw	a2,-332(s0)
	.loc 3 698 5
	addi	a5,s0,-316
	mv	a0,a5
	call	mbedtls_aes_init
	.loc 3 700 47
	lw	a5,-324(s0)
	addi	a5,a5,8
	.loc 3 700 22
	mv	a0,a5
	call	mbedtls_aes_rk_offset
	mv	a4,a0
	.loc 3 700 20 discriminator 1
	lw	a5,-324(s0)
	sw	a4,4(a5)
	.loc 3 701 10
	lw	a5,-324(s0)
	addi	a4,a5,8
	.loc 3 701 24
	lw	a5,-324(s0)
	lw	a5,4(a5)
	.loc 3 701 19
	slli	a5,a5,2
	.loc 3 701 8
	add	a5,a4,a5
	sw	a5,-24(s0)
	.loc 3 704 16
	addi	a5,s0,-316
	lw	a2,-332(s0)
	lw	a1,-328(s0)
	mv	a0,a5
	call	mbedtls_aes_setkey_enc
	sw	a0,-36(s0)
	.loc 3 704 8 discriminator 1
	lw	a5,-36(s0)
	bne	a5,zero,.L41
	.loc 3 708 18
	lw	a4,-316(s0)
	.loc 3 708 13
	lw	a5,-324(s0)
	sw	a4,0(a5)
	.loc 3 729 23
	lw	a4,-312(s0)
	.loc 3 729 39
	lw	a5,-316(s0)
	.loc 3 729 34
	slli	a5,a5,2
	add	a5,a4,a5
	slli	a5,a5,2
	.loc 3 729 8
	addi	a4,s0,-316
	addi	a4,a4,8
	add	a5,a4,a5
	sw	a5,-20(s0)
	.loc 3 731 16
	lw	a4,-20(s0)
	addi	a5,a4,4
	sw	a5,-20(s0)
	.loc 3 731 8
	lw	a5,-24(s0)
	addi	a3,a5,4
	sw	a3,-24(s0)
	.loc 3 731 13
	lw	a4,0(a4)
	.loc 3 731 11
	sw	a4,0(a5)
	.loc 3 732 16
	lw	a4,-20(s0)
	addi	a5,a4,4
	sw	a5,-20(s0)
	.loc 3 732 8
	lw	a5,-24(s0)
	addi	a3,a5,4
	sw	a3,-24(s0)
	.loc 3 732 13
	lw	a4,0(a4)
	.loc 3 732 11
	sw	a4,0(a5)
	.loc 3 733 16
	lw	a4,-20(s0)
	addi	a5,a4,4
	sw	a5,-20(s0)
	.loc 3 733 8
	lw	a5,-24(s0)
	addi	a3,a5,4
	sw	a3,-24(s0)
	.loc 3 733 13
	lw	a4,0(a4)
	.loc 3 733 11
	sw	a4,0(a5)
	.loc 3 734 16
	lw	a4,-20(s0)
	addi	a5,a4,4
	sw	a5,-20(s0)
	.loc 3 734 8
	lw	a5,-24(s0)
	addi	a3,a5,4
	sw	a3,-24(s0)
	.loc 3 734 13
	lw	a4,0(a4)
	.loc 3 734 11
	sw	a4,0(a5)
	.loc 3 735 8
	lw	a5,-20(s0)
	addi	a5,a5,-32
	sw	a5,-20(s0)
.LBB66:
	.loc 3 736 21
	lw	a5,-324(s0)
	lw	a5,0(a5)
	.loc 3 736 14
	addi	a5,a5,-1
	sw	a5,-28(s0)
	.loc 3 736 5
	j	.L36
.L39:
.LBB67:
	.loc 3 737 18
	sw	zero,-32(s0)
	.loc 3 737 9
	j	.L37
.L38:
	.loc 3 738 42
	lw	a5,-20(s0)
	lw	a5,0(a5)
	.loc 3 738 30
	andi	a5,a5,0xff
	mv	a4,a5
	.loc 3 738 28
	lui	a5,%hi(FSb)
	addi	a5,a5,%lo(FSb)
	add	a5,a5,a4
	lbu	a5,0(a5)
	mv	a3,a5
	.loc 3 738 24
	lui	a5,%hi(RT0)
	addi	a4,a5,%lo(RT0)
	slli	a5,a3,2
	add	a5,a4,a5
	lw	a4,0(a5)
	.loc 3 739 57
	lw	a5,-20(s0)
	lw	a5,0(a5)
	.loc 3 739 62
	srli	a5,a5,8
	.loc 3 739 44
	andi	a5,a5,0xff
	mv	a3,a5
	.loc 3 739 42
	lui	a5,%hi(FSb)
	addi	a5,a5,%lo(FSb)
	add	a5,a5,a3
	lbu	a5,0(a5)
	mv	a2,a5
	.loc 3 739 38
	lui	a5,%hi(RT0)
	addi	a3,a5,%lo(RT0)
	slli	a5,a2,2
	add	a5,a3,a5
	lw	a5,0(a5)
	.loc 3 739 86
	srli	a3,a5,24
	slli	a5,a5,8
	add	a5,a5,a3
	.loc 3 738 58
	xor	a4,a4,a5
	.loc 3 740 57
	lw	a5,-20(s0)
	lw	a5,0(a5)
	.loc 3 740 62
	srli	a5,a5,16
	.loc 3 740 44
	andi	a5,a5,0xff
	mv	a3,a5
	.loc 3 740 42
	lui	a5,%hi(FSb)
	addi	a5,a5,%lo(FSb)
	add	a5,a5,a3
	lbu	a5,0(a5)
	mv	a2,a5
	.loc 3 740 38
	lui	a5,%hi(RT0)
	addi	a3,a5,%lo(RT0)
	slli	a5,a2,2
	add	a5,a3,a5
	lw	a5,0(a5)
	.loc 3 740 88
	srli	a3,a5,16
	slli	a5,a5,16
	add	a5,a5,a3
	.loc 3 739 154
	xor	a3,a4,a5
	.loc 3 741 57
	lw	a5,-20(s0)
	lw	a5,0(a5)
	.loc 3 741 62
	srli	a5,a5,24
	.loc 3 741 44
	andi	a5,a5,0xff
	mv	a4,a5
	.loc 3 741 42
	lui	a5,%hi(FSb)
	addi	a5,a5,%lo(FSb)
	add	a5,a5,a4
	lbu	a5,0(a5)
	mv	a2,a5
	.loc 3 741 38
	lui	a5,%hi(RT0)
	addi	a4,a5,%lo(RT0)
	slli	a5,a2,2
	add	a5,a4,a5
	lw	a5,0(a5)
	.loc 3 741 88
	srli	a4,a5,8
	slli	a5,a5,24
	add	a5,a5,a4
	.loc 3 738 16
	lw	a4,-24(s0)
	addi	a2,a4,4
	sw	a2,-24(s0)
	.loc 3 740 157
	xor	a5,a3,a5
	.loc 3 738 19
	sw	a5,0(a4)
	.loc 3 737 33 discriminator 3
	lw	a5,-32(s0)
	addi	a5,a5,1
	sw	a5,-32(s0)
	.loc 3 737 39 discriminator 3
	lw	a5,-20(s0)
	addi	a5,a5,4
	sw	a5,-20(s0)
.L37:
	.loc 3 737 27 discriminator 1
	lw	a4,-32(s0)
	li	a5,3
	ble	a4,a5,.L38
.LBE67:
	.loc 3 736 39 discriminator 2
	lw	a5,-28(s0)
	addi	a5,a5,-1
	sw	a5,-28(s0)
	.loc 3 736 46 discriminator 2
	lw	a5,-20(s0)
	addi	a5,a5,-32
	sw	a5,-20(s0)
.L36:
	.loc 3 736 33 discriminator 1
	lw	a5,-28(s0)
	bgt	a5,zero,.L39
.LBE66:
	.loc 3 745 16
	lw	a4,-20(s0)
	addi	a5,a4,4
	sw	a5,-20(s0)
	.loc 3 745 8
	lw	a5,-24(s0)
	addi	a3,a5,4
	sw	a3,-24(s0)
	.loc 3 745 13
	lw	a4,0(a4)
	.loc 3 745 11
	sw	a4,0(a5)
	.loc 3 746 16
	lw	a4,-20(s0)
	addi	a5,a4,4
	sw	a5,-20(s0)
	.loc 3 746 8
	lw	a5,-24(s0)
	addi	a3,a5,4
	sw	a3,-24(s0)
	.loc 3 746 13
	lw	a4,0(a4)
	.loc 3 746 11
	sw	a4,0(a5)
	.loc 3 747 16
	lw	a4,-20(s0)
	addi	a5,a4,4
	sw	a5,-20(s0)
	.loc 3 747 8
	lw	a5,-24(s0)
	addi	a3,a5,4
	sw	a3,-24(s0)
	.loc 3 747 13
	lw	a4,0(a4)
	.loc 3 747 11
	sw	a4,0(a5)
	.loc 3 748 16
	lw	a4,-20(s0)
	addi	a5,a4,4
	sw	a5,-20(s0)
	.loc 3 748 8
	lw	a5,-24(s0)
	addi	a3,a5,4
	sw	a3,-24(s0)
	.loc 3 748 13
	lw	a4,0(a4)
	.loc 3 748 11
	sw	a4,0(a5)
	j	.L35
.L41:
	.loc 3 705 9
	nop
.L35:
	.loc 3 751 5
	addi	a5,s0,-316
	mv	a0,a5
	call	mbedtls_aes_free
	.loc 3 753 12
	lw	a5,-36(s0)
	.loc 3 754 1
	mv	a0,a5
	lw	ra,332(sp)
	.cfi_restore 1
	lw	s0,328(sp)
	.cfi_restore 8
	.cfi_def_cfa 2, 336
	addi	sp,sp,336
	.cfi_def_cfa_offset 0
	jr	ra
	.cfi_endproc
.LFE20:
	.size	mbedtls_aes_setkey_dec, .-mbedtls_aes_setkey_dec
	.section	.text.mbedtls_internal_aes_encrypt,"ax",@progbits
	.align	1
	.globl	mbedtls_internal_aes_encrypt
	.type	mbedtls_internal_aes_encrypt, @function
mbedtls_internal_aes_encrypt:
.LFB21:
	.loc 3 886 1
	.cfi_startproc
	addi	sp,sp,-176
	.cfi_def_cfa_offset 176
	sw	ra,172(sp)
	sw	s0,168(sp)
	.cfi_offset 1, -4
	.cfi_offset 8, -8
	addi	s0,sp,176
	.cfi_def_cfa 8, 0
	sw	a0,-164(s0)
	sw	a1,-168(s0)
	sw	a2,-172(s0)
	.loc 3 888 20
	lw	a5,-164(s0)
	addi	a4,a5,8
	.loc 3 888 34
	lw	a5,-164(s0)
	lw	a5,4(a5)
	.loc 3 888 29
	slli	a5,a5,2
	.loc 3 888 15
	add	a5,a4,a5
	sw	a5,-20(s0)
	lw	a5,-168(s0)
	sw	a5,-64(s0)
.LBB68:
.LBB69:
	.loc 2 174 33
	lw	a5,-64(s0)
	sw	a5,-68(s0)
	.loc 2 175 7
	lw	a5,-68(s0)
	lbu	a4,0(a5)
	lbu	a3,1(a5)
	slli	a3,a3,8
	or	a4,a3,a4
	lbu	a3,2(a5)
	slli	a3,a3,16
	or	a4,a3,a4
	lbu	a5,3(a5)
	slli	a5,a5,24
	or	a5,a5,a4
	sw	a5,-72(s0)
	.loc 2 179 12
	lw	a5,-72(s0)
.LBE69:
.LBE68:
	.loc 3 894 12 discriminator 1
	sw	a5,-152(s0)
	.loc 3 894 146 discriminator 1
	lw	a5,-20(s0)
	addi	a4,a5,4
	sw	a4,-20(s0)
	.loc 3 894 143 discriminator 1
	lw	a4,0(a5)
	.loc 3 894 136 discriminator 1
	lw	a5,-152(s0)
	.loc 3 894 140 discriminator 1
	xor	a5,a4,a5
	sw	a5,-152(s0)
	.loc 3 895 123
	lw	a5,-168(s0)
	addi	a5,a5,4
	sw	a5,-36(s0)
.LBB70:
.LBB71:
	.loc 2 174 33
	lw	a5,-36(s0)
	sw	a5,-32(s0)
	.loc 2 175 7
	lw	a5,-32(s0)
	lbu	a4,0(a5)
	lbu	a3,1(a5)
	slli	a3,a3,8
	or	a4,a3,a4
	lbu	a3,2(a5)
	slli	a3,a3,16
	or	a4,a3,a4
	lbu	a5,3(a5)
	slli	a5,a5,24
	or	a5,a5,a4
	sw	a5,-28(s0)
	.loc 2 179 12
	lw	a5,-28(s0)
.LBE71:
.LBE70:
	.loc 3 895 12 discriminator 1
	sw	a5,-148(s0)
	.loc 3 895 146 discriminator 1
	lw	a5,-20(s0)
	addi	a4,a5,4
	sw	a4,-20(s0)
	.loc 3 895 143 discriminator 1
	lw	a4,0(a5)
	.loc 3 895 136 discriminator 1
	lw	a5,-148(s0)
	.loc 3 895 140 discriminator 1
	xor	a5,a4,a5
	sw	a5,-148(s0)
	.loc 3 896 123
	lw	a5,-168(s0)
	addi	a5,a5,8
	sw	a5,-48(s0)
.LBB72:
.LBB73:
	.loc 2 174 33
	lw	a5,-48(s0)
	sw	a5,-44(s0)
	.loc 2 175 7
	lw	a5,-44(s0)
	lbu	a4,0(a5)
	lbu	a3,1(a5)
	slli	a3,a3,8
	or	a4,a3,a4
	lbu	a3,2(a5)
	slli	a3,a3,16
	or	a4,a3,a4
	lbu	a5,3(a5)
	slli	a5,a5,24
	or	a5,a5,a4
	sw	a5,-40(s0)
	.loc 2 179 12
	lw	a5,-40(s0)
.LBE73:
.LBE72:
	.loc 3 896 12 discriminator 1
	sw	a5,-144(s0)
	.loc 3 896 146 discriminator 1
	lw	a5,-20(s0)
	addi	a4,a5,4
	sw	a4,-20(s0)
	.loc 3 896 143 discriminator 1
	lw	a4,0(a5)
	.loc 3 896 136 discriminator 1
	lw	a5,-144(s0)
	.loc 3 896 140 discriminator 1
	xor	a5,a4,a5
	sw	a5,-144(s0)
	.loc 3 897 124
	lw	a5,-168(s0)
	addi	a5,a5,12
	sw	a5,-60(s0)
.LBB74:
.LBB75:
	.loc 2 174 33
	lw	a5,-60(s0)
	sw	a5,-56(s0)
	.loc 2 175 7
	lw	a5,-56(s0)
	lbu	a4,0(a5)
	lbu	a3,1(a5)
	slli	a3,a3,8
	or	a4,a3,a4
	lbu	a3,2(a5)
	slli	a3,a3,16
	or	a4,a3,a4
	lbu	a5,3(a5)
	slli	a5,a5,24
	or	a5,a5,a4
	sw	a5,-52(s0)
	.loc 2 179 12
	lw	a5,-52(s0)
.LBE75:
.LBE74:
	.loc 3 897 12 discriminator 1
	sw	a5,-140(s0)
	.loc 3 897 148 discriminator 1
	lw	a5,-20(s0)
	addi	a4,a5,4
	sw	a4,-20(s0)
	.loc 3 897 145 discriminator 1
	lw	a4,0(a5)
	.loc 3 897 138 discriminator 1
	lw	a5,-140(s0)
	.loc 3 897 142 discriminator 1
	xor	a5,a4,a5
	sw	a5,-140(s0)
	.loc 3 899 18
	lw	a5,-164(s0)
	lw	a5,0(a5)
	.loc 3 899 23
	srai	a5,a5,1
	.loc 3 899 12
	addi	a5,a5,-1
	sw	a5,-24(s0)
	.loc 3 899 5
	j	.L47
.L48:
	.loc 3 900 28
	lw	a5,-20(s0)
	addi	a4,a5,4
	sw	a4,-20(s0)
	.loc 3 900 25
	lw	a4,0(a5)
	.loc 3 900 53
	lw	a5,-152(s0)
	.loc 3 900 38
	andi	a5,a5,0xff
	mv	a2,a5
	.loc 3 900 36
	lui	a5,%hi(FT0)
	addi	a3,a5,%lo(FT0)
	slli	a5,a2,2
	add	a5,a3,a5
	lw	a5,0(a5)
	.loc 3 900 31
	xor	a4,a4,a5
	.loc 3 900 105
	lw	a5,-148(s0)
	.loc 3 900 110
	srli	a5,a5,8
	.loc 3 900 89
	andi	a5,a5,0xff
	mv	a2,a5
	.loc 3 900 87
	lui	a5,%hi(FT0)
	addi	a3,a5,%lo(FT0)
	slli	a5,a2,2
	add	a5,a3,a5
	lw	a5,0(a5)
	.loc 3 900 133
	srli	a3,a5,24
	slli	a5,a5,8
	add	a5,a5,a3
	.loc 3 900 68
	xor	a4,a4,a5
	.loc 3 900 236
	lw	a5,-144(s0)
	.loc 3 900 241
	srli	a5,a5,16
	.loc 3 900 220
	andi	a5,a5,0xff
	mv	a2,a5
	.loc 3 900 218
	lui	a5,%hi(FT0)
	addi	a3,a5,%lo(FT0)
	slli	a5,a2,2
	add	a5,a3,a5
	lw	a5,0(a5)
	.loc 3 900 266
	srli	a3,a5,16
	slli	a5,a5,16
	add	a5,a5,a3
	.loc 3 900 199
	xor	a4,a4,a5
	.loc 3 900 370
	lw	a5,-140(s0)
	.loc 3 900 375
	srli	a5,a5,24
	.loc 3 900 354
	andi	a5,a5,0xff
	mv	a2,a5
	.loc 3 900 352
	lui	a5,%hi(FT0)
	addi	a3,a5,%lo(FT0)
	slli	a5,a2,2
	add	a5,a3,a5
	lw	a5,0(a5)
	.loc 3 900 400
	srli	a3,a5,8
	slli	a5,a5,24
	add	a5,a5,a3
	.loc 3 900 333
	xor	a5,a4,a5
	.loc 3 900 23
	sw	a5,-136(s0)
	.loc 3 900 481
	lw	a5,-20(s0)
	addi	a4,a5,4
	sw	a4,-20(s0)
	.loc 3 900 478
	lw	a4,0(a5)
	.loc 3 900 506
	lw	a5,-148(s0)
	.loc 3 900 491
	andi	a5,a5,0xff
	mv	a2,a5
	.loc 3 900 489
	lui	a5,%hi(FT0)
	addi	a3,a5,%lo(FT0)
	slli	a5,a2,2
	add	a5,a3,a5
	lw	a5,0(a5)
	.loc 3 900 484
	xor	a4,a4,a5
	.loc 3 900 558
	lw	a5,-144(s0)
	.loc 3 900 563
	srli	a5,a5,8
	.loc 3 900 542
	andi	a5,a5,0xff
	mv	a2,a5
	.loc 3 900 540
	lui	a5,%hi(FT0)
	addi	a3,a5,%lo(FT0)
	slli	a5,a2,2
	add	a5,a3,a5
	lw	a5,0(a5)
	.loc 3 900 586
	srli	a3,a5,24
	slli	a5,a5,8
	add	a5,a5,a3
	.loc 3 900 521
	xor	a4,a4,a5
	.loc 3 900 689
	lw	a5,-140(s0)
	.loc 3 900 694
	srli	a5,a5,16
	.loc 3 900 673
	andi	a5,a5,0xff
	mv	a2,a5
	.loc 3 900 671
	lui	a5,%hi(FT0)
	addi	a3,a5,%lo(FT0)
	slli	a5,a2,2
	add	a5,a3,a5
	lw	a5,0(a5)
	.loc 3 900 719
	srli	a3,a5,16
	slli	a5,a5,16
	add	a5,a5,a3
	.loc 3 900 652
	xor	a4,a4,a5
	.loc 3 900 823
	lw	a5,-152(s0)
	.loc 3 900 828
	srli	a5,a5,24
	.loc 3 900 807
	andi	a5,a5,0xff
	mv	a2,a5
	.loc 3 900 805
	lui	a5,%hi(FT0)
	addi	a3,a5,%lo(FT0)
	slli	a5,a2,2
	add	a5,a3,a5
	lw	a5,0(a5)
	.loc 3 900 853
	srli	a3,a5,8
	slli	a5,a5,24
	add	a5,a5,a3
	.loc 3 900 786
	xor	a5,a4,a5
	.loc 3 900 476
	sw	a5,-132(s0)
	.loc 3 900 934
	lw	a5,-20(s0)
	addi	a4,a5,4
	sw	a4,-20(s0)
	.loc 3 900 931
	lw	a4,0(a5)
	.loc 3 900 959
	lw	a5,-144(s0)
	.loc 3 900 944
	andi	a5,a5,0xff
	mv	a2,a5
	.loc 3 900 942
	lui	a5,%hi(FT0)
	addi	a3,a5,%lo(FT0)
	slli	a5,a2,2
	add	a5,a3,a5
	lw	a5,0(a5)
	.loc 3 900 937
	xor	a4,a4,a5
	.loc 3 900 1011
	lw	a5,-140(s0)
	.loc 3 900 1016
	srli	a5,a5,8
	.loc 3 900 995
	andi	a5,a5,0xff
	mv	a2,a5
	.loc 3 900 993
	lui	a5,%hi(FT0)
	addi	a3,a5,%lo(FT0)
	slli	a5,a2,2
	add	a5,a3,a5
	lw	a5,0(a5)
	.loc 3 900 1039
	srli	a3,a5,24
	slli	a5,a5,8
	add	a5,a5,a3
	.loc 3 900 974
	xor	a4,a4,a5
	.loc 3 900 1142
	lw	a5,-152(s0)
	.loc 3 900 1147
	srli	a5,a5,16
	.loc 3 900 1126
	andi	a5,a5,0xff
	mv	a2,a5
	.loc 3 900 1124
	lui	a5,%hi(FT0)
	addi	a3,a5,%lo(FT0)
	slli	a5,a2,2
	add	a5,a3,a5
	lw	a5,0(a5)
	.loc 3 900 1172
	srli	a3,a5,16
	slli	a5,a5,16
	add	a5,a5,a3
	.loc 3 900 1105
	xor	a4,a4,a5
	.loc 3 900 1276
	lw	a5,-148(s0)
	.loc 3 900 1281
	srli	a5,a5,24
	.loc 3 900 1260
	andi	a5,a5,0xff
	mv	a2,a5
	.loc 3 900 1258
	lui	a5,%hi(FT0)
	addi	a3,a5,%lo(FT0)
	slli	a5,a2,2
	add	a5,a3,a5
	lw	a5,0(a5)
	.loc 3 900 1306
	srli	a3,a5,8
	slli	a5,a5,24
	add	a5,a5,a3
	.loc 3 900 1239
	xor	a5,a4,a5
	.loc 3 900 929
	sw	a5,-128(s0)
	.loc 3 900 1387
	lw	a5,-20(s0)
	addi	a4,a5,4
	sw	a4,-20(s0)
	.loc 3 900 1384
	lw	a4,0(a5)
	.loc 3 900 1412
	lw	a5,-140(s0)
	.loc 3 900 1397
	andi	a5,a5,0xff
	mv	a2,a5
	.loc 3 900 1395
	lui	a5,%hi(FT0)
	addi	a3,a5,%lo(FT0)
	slli	a5,a2,2
	add	a5,a3,a5
	lw	a5,0(a5)
	.loc 3 900 1390
	xor	a4,a4,a5
	.loc 3 900 1464
	lw	a5,-152(s0)
	.loc 3 900 1469
	srli	a5,a5,8
	.loc 3 900 1448
	andi	a5,a5,0xff
	mv	a2,a5
	.loc 3 900 1446
	lui	a5,%hi(FT0)
	addi	a3,a5,%lo(FT0)
	slli	a5,a2,2
	add	a5,a3,a5
	lw	a5,0(a5)
	.loc 3 900 1492
	srli	a3,a5,24
	slli	a5,a5,8
	add	a5,a5,a3
	.loc 3 900 1427
	xor	a4,a4,a5
	.loc 3 900 1595
	lw	a5,-148(s0)
	.loc 3 900 1600
	srli	a5,a5,16
	.loc 3 900 1579
	andi	a5,a5,0xff
	mv	a2,a5
	.loc 3 900 1577
	lui	a5,%hi(FT0)
	addi	a3,a5,%lo(FT0)
	slli	a5,a2,2
	add	a5,a3,a5
	lw	a5,0(a5)
	.loc 3 900 1625
	srli	a3,a5,16
	slli	a5,a5,16
	add	a5,a5,a3
	.loc 3 900 1558
	xor	a4,a4,a5
	.loc 3 900 1729
	lw	a5,-144(s0)
	.loc 3 900 1734
	srli	a5,a5,24
	.loc 3 900 1713
	andi	a5,a5,0xff
	mv	a2,a5
	.loc 3 900 1711
	lui	a5,%hi(FT0)
	addi	a3,a5,%lo(FT0)
	slli	a5,a2,2
	add	a5,a3,a5
	lw	a5,0(a5)
	.loc 3 900 1759
	srli	a3,a5,8
	slli	a5,a5,24
	add	a5,a5,a3
	.loc 3 900 1692
	xor	a5,a4,a5
	.loc 3 900 1382
	sw	a5,-124(s0)
	.loc 3 901 28
	lw	a5,-20(s0)
	addi	a4,a5,4
	sw	a4,-20(s0)
	.loc 3 901 25
	lw	a4,0(a5)
	.loc 3 901 53
	lw	a5,-136(s0)
	.loc 3 901 38
	andi	a5,a5,0xff
	mv	a2,a5
	.loc 3 901 36
	lui	a5,%hi(FT0)
	addi	a3,a5,%lo(FT0)
	slli	a5,a2,2
	add	a5,a3,a5
	lw	a5,0(a5)
	.loc 3 901 31
	xor	a4,a4,a5
	.loc 3 901 105
	lw	a5,-132(s0)
	.loc 3 901 110
	srli	a5,a5,8
	.loc 3 901 89
	andi	a5,a5,0xff
	mv	a2,a5
	.loc 3 901 87
	lui	a5,%hi(FT0)
	addi	a3,a5,%lo(FT0)
	slli	a5,a2,2
	add	a5,a3,a5
	lw	a5,0(a5)
	.loc 3 901 133
	srli	a3,a5,24
	slli	a5,a5,8
	add	a5,a5,a3
	.loc 3 901 68
	xor	a4,a4,a5
	.loc 3 901 236
	lw	a5,-128(s0)
	.loc 3 901 241
	srli	a5,a5,16
	.loc 3 901 220
	andi	a5,a5,0xff
	mv	a2,a5
	.loc 3 901 218
	lui	a5,%hi(FT0)
	addi	a3,a5,%lo(FT0)
	slli	a5,a2,2
	add	a5,a3,a5
	lw	a5,0(a5)
	.loc 3 901 266
	srli	a3,a5,16
	slli	a5,a5,16
	add	a5,a5,a3
	.loc 3 901 199
	xor	a4,a4,a5
	.loc 3 901 370
	lw	a5,-124(s0)
	.loc 3 901 375
	srli	a5,a5,24
	.loc 3 901 354
	andi	a5,a5,0xff
	mv	a2,a5
	.loc 3 901 352
	lui	a5,%hi(FT0)
	addi	a3,a5,%lo(FT0)
	slli	a5,a2,2
	add	a5,a3,a5
	lw	a5,0(a5)
	.loc 3 901 400
	srli	a3,a5,8
	slli	a5,a5,24
	add	a5,a5,a3
	.loc 3 901 333
	xor	a5,a4,a5
	.loc 3 901 23
	sw	a5,-152(s0)
	.loc 3 901 481
	lw	a5,-20(s0)
	addi	a4,a5,4
	sw	a4,-20(s0)
	.loc 3 901 478
	lw	a4,0(a5)
	.loc 3 901 506
	lw	a5,-132(s0)
	.loc 3 901 491
	andi	a5,a5,0xff
	mv	a2,a5
	.loc 3 901 489
	lui	a5,%hi(FT0)
	addi	a3,a5,%lo(FT0)
	slli	a5,a2,2
	add	a5,a3,a5
	lw	a5,0(a5)
	.loc 3 901 484
	xor	a4,a4,a5
	.loc 3 901 558
	lw	a5,-128(s0)
	.loc 3 901 563
	srli	a5,a5,8
	.loc 3 901 542
	andi	a5,a5,0xff
	mv	a2,a5
	.loc 3 901 540
	lui	a5,%hi(FT0)
	addi	a3,a5,%lo(FT0)
	slli	a5,a2,2
	add	a5,a3,a5
	lw	a5,0(a5)
	.loc 3 901 586
	srli	a3,a5,24
	slli	a5,a5,8
	add	a5,a5,a3
	.loc 3 901 521
	xor	a4,a4,a5
	.loc 3 901 689
	lw	a5,-124(s0)
	.loc 3 901 694
	srli	a5,a5,16
	.loc 3 901 673
	andi	a5,a5,0xff
	mv	a2,a5
	.loc 3 901 671
	lui	a5,%hi(FT0)
	addi	a3,a5,%lo(FT0)
	slli	a5,a2,2
	add	a5,a3,a5
	lw	a5,0(a5)
	.loc 3 901 719
	srli	a3,a5,16
	slli	a5,a5,16
	add	a5,a5,a3
	.loc 3 901 652
	xor	a4,a4,a5
	.loc 3 901 823
	lw	a5,-136(s0)
	.loc 3 901 828
	srli	a5,a5,24
	.loc 3 901 807
	andi	a5,a5,0xff
	mv	a2,a5
	.loc 3 901 805
	lui	a5,%hi(FT0)
	addi	a3,a5,%lo(FT0)
	slli	a5,a2,2
	add	a5,a3,a5
	lw	a5,0(a5)
	.loc 3 901 853
	srli	a3,a5,8
	slli	a5,a5,24
	add	a5,a5,a3
	.loc 3 901 786
	xor	a5,a4,a5
	.loc 3 901 476
	sw	a5,-148(s0)
	.loc 3 901 934
	lw	a5,-20(s0)
	addi	a4,a5,4
	sw	a4,-20(s0)
	.loc 3 901 931
	lw	a4,0(a5)
	.loc 3 901 959
	lw	a5,-128(s0)
	.loc 3 901 944
	andi	a5,a5,0xff
	mv	a2,a5
	.loc 3 901 942
	lui	a5,%hi(FT0)
	addi	a3,a5,%lo(FT0)
	slli	a5,a2,2
	add	a5,a3,a5
	lw	a5,0(a5)
	.loc 3 901 937
	xor	a4,a4,a5
	.loc 3 901 1011
	lw	a5,-124(s0)
	.loc 3 901 1016
	srli	a5,a5,8
	.loc 3 901 995
	andi	a5,a5,0xff
	mv	a2,a5
	.loc 3 901 993
	lui	a5,%hi(FT0)
	addi	a3,a5,%lo(FT0)
	slli	a5,a2,2
	add	a5,a3,a5
	lw	a5,0(a5)
	.loc 3 901 1039
	srli	a3,a5,24
	slli	a5,a5,8
	add	a5,a5,a3
	.loc 3 901 974
	xor	a4,a4,a5
	.loc 3 901 1142
	lw	a5,-136(s0)
	.loc 3 901 1147
	srli	a5,a5,16
	.loc 3 901 1126
	andi	a5,a5,0xff
	mv	a2,a5
	.loc 3 901 1124
	lui	a5,%hi(FT0)
	addi	a3,a5,%lo(FT0)
	slli	a5,a2,2
	add	a5,a3,a5
	lw	a5,0(a5)
	.loc 3 901 1172
	srli	a3,a5,16
	slli	a5,a5,16
	add	a5,a5,a3
	.loc 3 901 1105
	xor	a4,a4,a5
	.loc 3 901 1276
	lw	a5,-132(s0)
	.loc 3 901 1281
	srli	a5,a5,24
	.loc 3 901 1260
	andi	a5,a5,0xff
	mv	a2,a5
	.loc 3 901 1258
	lui	a5,%hi(FT0)
	addi	a3,a5,%lo(FT0)
	slli	a5,a2,2
	add	a5,a3,a5
	lw	a5,0(a5)
	.loc 3 901 1306
	srli	a3,a5,8
	slli	a5,a5,24
	add	a5,a5,a3
	.loc 3 901 1239
	xor	a5,a4,a5
	.loc 3 901 929
	sw	a5,-144(s0)
	.loc 3 901 1387
	lw	a5,-20(s0)
	addi	a4,a5,4
	sw	a4,-20(s0)
	.loc 3 901 1384
	lw	a4,0(a5)
	.loc 3 901 1412
	lw	a5,-124(s0)
	.loc 3 901 1397
	andi	a5,a5,0xff
	mv	a2,a5
	.loc 3 901 1395
	lui	a5,%hi(FT0)
	addi	a3,a5,%lo(FT0)
	slli	a5,a2,2
	add	a5,a3,a5
	lw	a5,0(a5)
	.loc 3 901 1390
	xor	a4,a4,a5
	.loc 3 901 1464
	lw	a5,-136(s0)
	.loc 3 901 1469
	srli	a5,a5,8
	.loc 3 901 1448
	andi	a5,a5,0xff
	mv	a2,a5
	.loc 3 901 1446
	lui	a5,%hi(FT0)
	addi	a3,a5,%lo(FT0)
	slli	a5,a2,2
	add	a5,a3,a5
	lw	a5,0(a5)
	.loc 3 901 1492
	srli	a3,a5,24
	slli	a5,a5,8
	add	a5,a5,a3
	.loc 3 901 1427
	xor	a4,a4,a5
	.loc 3 901 1595
	lw	a5,-132(s0)
	.loc 3 901 1600
	srli	a5,a5,16
	.loc 3 901 1579
	andi	a5,a5,0xff
	mv	a2,a5
	.loc 3 901 1577
	lui	a5,%hi(FT0)
	addi	a3,a5,%lo(FT0)
	slli	a5,a2,2
	add	a5,a3,a5
	lw	a5,0(a5)
	.loc 3 901 1625
	srli	a3,a5,16
	slli	a5,a5,16
	add	a5,a5,a3
	.loc 3 901 1558
	xor	a4,a4,a5
	.loc 3 901 1729
	lw	a5,-128(s0)
	.loc 3 901 1734
	srli	a5,a5,24
	.loc 3 901 1713
	andi	a5,a5,0xff
	mv	a2,a5
	.loc 3 901 1711
	lui	a5,%hi(FT0)
	addi	a3,a5,%lo(FT0)
	slli	a5,a2,2
	add	a5,a3,a5
	lw	a5,0(a5)
	.loc 3 901 1759
	srli	a3,a5,8
	slli	a5,a5,24
	add	a5,a5,a3
	.loc 3 901 1692
	xor	a5,a4,a5
	.loc 3 901 1382
	sw	a5,-140(s0)
	.loc 3 899 42 discriminator 3
	lw	a5,-24(s0)
	addi	a5,a5,-1
	sw	a5,-24(s0)
.L47:
	.loc 3 899 36 discriminator 1
	lw	a5,-24(s0)
	bgt	a5,zero,.L48
	.loc 3 904 24
	lw	a5,-20(s0)
	addi	a4,a5,4
	sw	a4,-20(s0)
	.loc 3 904 21
	lw	a4,0(a5)
	.loc 3 904 49
	lw	a5,-152(s0)
	.loc 3 904 34
	andi	a5,a5,0xff
	mv	a2,a5
	.loc 3 904 32
	lui	a5,%hi(FT0)
	addi	a3,a5,%lo(FT0)
	slli	a5,a2,2
	add	a5,a3,a5
	lw	a5,0(a5)
	.loc 3 904 27
	xor	a4,a4,a5
	.loc 3 904 101
	lw	a5,-148(s0)
	.loc 3 904 106
	srli	a5,a5,8
	.loc 3 904 85
	andi	a5,a5,0xff
	mv	a2,a5
	.loc 3 904 83
	lui	a5,%hi(FT0)
	addi	a3,a5,%lo(FT0)
	slli	a5,a2,2
	add	a5,a3,a5
	lw	a5,0(a5)
	.loc 3 904 129
	srli	a3,a5,24
	slli	a5,a5,8
	add	a5,a5,a3
	.loc 3 904 64
	xor	a4,a4,a5
	.loc 3 904 232
	lw	a5,-144(s0)
	.loc 3 904 237
	srli	a5,a5,16
	.loc 3 904 216
	andi	a5,a5,0xff
	mv	a2,a5
	.loc 3 904 214
	lui	a5,%hi(FT0)
	addi	a3,a5,%lo(FT0)
	slli	a5,a2,2
	add	a5,a3,a5
	lw	a5,0(a5)
	.loc 3 904 262
	srli	a3,a5,16
	slli	a5,a5,16
	add	a5,a5,a3
	.loc 3 904 195
	xor	a4,a4,a5
	.loc 3 904 366
	lw	a5,-140(s0)
	.loc 3 904 371
	srli	a5,a5,24
	.loc 3 904 350
	andi	a5,a5,0xff
	mv	a2,a5
	.loc 3 904 348
	lui	a5,%hi(FT0)
	addi	a3,a5,%lo(FT0)
	slli	a5,a2,2
	add	a5,a3,a5
	lw	a5,0(a5)
	.loc 3 904 396
	srli	a3,a5,8
	slli	a5,a5,24
	add	a5,a5,a3
	.loc 3 904 329
	xor	a5,a4,a5
	.loc 3 904 19
	sw	a5,-136(s0)
	.loc 3 904 477
	lw	a5,-20(s0)
	addi	a4,a5,4
	sw	a4,-20(s0)
	.loc 3 904 474
	lw	a4,0(a5)
	.loc 3 904 502
	lw	a5,-148(s0)
	.loc 3 904 487
	andi	a5,a5,0xff
	mv	a2,a5
	.loc 3 904 485
	lui	a5,%hi(FT0)
	addi	a3,a5,%lo(FT0)
	slli	a5,a2,2
	add	a5,a3,a5
	lw	a5,0(a5)
	.loc 3 904 480
	xor	a4,a4,a5
	.loc 3 904 554
	lw	a5,-144(s0)
	.loc 3 904 559
	srli	a5,a5,8
	.loc 3 904 538
	andi	a5,a5,0xff
	mv	a2,a5
	.loc 3 904 536
	lui	a5,%hi(FT0)
	addi	a3,a5,%lo(FT0)
	slli	a5,a2,2
	add	a5,a3,a5
	lw	a5,0(a5)
	.loc 3 904 582
	srli	a3,a5,24
	slli	a5,a5,8
	add	a5,a5,a3
	.loc 3 904 517
	xor	a4,a4,a5
	.loc 3 904 685
	lw	a5,-140(s0)
	.loc 3 904 690
	srli	a5,a5,16
	.loc 3 904 669
	andi	a5,a5,0xff
	mv	a2,a5
	.loc 3 904 667
	lui	a5,%hi(FT0)
	addi	a3,a5,%lo(FT0)
	slli	a5,a2,2
	add	a5,a3,a5
	lw	a5,0(a5)
	.loc 3 904 715
	srli	a3,a5,16
	slli	a5,a5,16
	add	a5,a5,a3
	.loc 3 904 648
	xor	a4,a4,a5
	.loc 3 904 819
	lw	a5,-152(s0)
	.loc 3 904 824
	srli	a5,a5,24
	.loc 3 904 803
	andi	a5,a5,0xff
	mv	a2,a5
	.loc 3 904 801
	lui	a5,%hi(FT0)
	addi	a3,a5,%lo(FT0)
	slli	a5,a2,2
	add	a5,a3,a5
	lw	a5,0(a5)
	.loc 3 904 849
	srli	a3,a5,8
	slli	a5,a5,24
	add	a5,a5,a3
	.loc 3 904 782
	xor	a5,a4,a5
	.loc 3 904 472
	sw	a5,-132(s0)
	.loc 3 904 930
	lw	a5,-20(s0)
	addi	a4,a5,4
	sw	a4,-20(s0)
	.loc 3 904 927
	lw	a4,0(a5)
	.loc 3 904 955
	lw	a5,-144(s0)
	.loc 3 904 940
	andi	a5,a5,0xff
	mv	a2,a5
	.loc 3 904 938
	lui	a5,%hi(FT0)
	addi	a3,a5,%lo(FT0)
	slli	a5,a2,2
	add	a5,a3,a5
	lw	a5,0(a5)
	.loc 3 904 933
	xor	a4,a4,a5
	.loc 3 904 1007
	lw	a5,-140(s0)
	.loc 3 904 1012
	srli	a5,a5,8
	.loc 3 904 991
	andi	a5,a5,0xff
	mv	a2,a5
	.loc 3 904 989
	lui	a5,%hi(FT0)
	addi	a3,a5,%lo(FT0)
	slli	a5,a2,2
	add	a5,a3,a5
	lw	a5,0(a5)
	.loc 3 904 1035
	srli	a3,a5,24
	slli	a5,a5,8
	add	a5,a5,a3
	.loc 3 904 970
	xor	a4,a4,a5
	.loc 3 904 1138
	lw	a5,-152(s0)
	.loc 3 904 1143
	srli	a5,a5,16
	.loc 3 904 1122
	andi	a5,a5,0xff
	mv	a2,a5
	.loc 3 904 1120
	lui	a5,%hi(FT0)
	addi	a3,a5,%lo(FT0)
	slli	a5,a2,2
	add	a5,a3,a5
	lw	a5,0(a5)
	.loc 3 904 1168
	srli	a3,a5,16
	slli	a5,a5,16
	add	a5,a5,a3
	.loc 3 904 1101
	xor	a4,a4,a5
	.loc 3 904 1272
	lw	a5,-148(s0)
	.loc 3 904 1277
	srli	a5,a5,24
	.loc 3 904 1256
	andi	a5,a5,0xff
	mv	a2,a5
	.loc 3 904 1254
	lui	a5,%hi(FT0)
	addi	a3,a5,%lo(FT0)
	slli	a5,a2,2
	add	a5,a3,a5
	lw	a5,0(a5)
	.loc 3 904 1302
	srli	a3,a5,8
	slli	a5,a5,24
	add	a5,a5,a3
	.loc 3 904 1235
	xor	a5,a4,a5
	.loc 3 904 925
	sw	a5,-128(s0)
	.loc 3 904 1383
	lw	a5,-20(s0)
	addi	a4,a5,4
	sw	a4,-20(s0)
	.loc 3 904 1380
	lw	a4,0(a5)
	.loc 3 904 1408
	lw	a5,-140(s0)
	.loc 3 904 1393
	andi	a5,a5,0xff
	mv	a2,a5
	.loc 3 904 1391
	lui	a5,%hi(FT0)
	addi	a3,a5,%lo(FT0)
	slli	a5,a2,2
	add	a5,a3,a5
	lw	a5,0(a5)
	.loc 3 904 1386
	xor	a4,a4,a5
	.loc 3 904 1460
	lw	a5,-152(s0)
	.loc 3 904 1465
	srli	a5,a5,8
	.loc 3 904 1444
	andi	a5,a5,0xff
	mv	a2,a5
	.loc 3 904 1442
	lui	a5,%hi(FT0)
	addi	a3,a5,%lo(FT0)
	slli	a5,a2,2
	add	a5,a3,a5
	lw	a5,0(a5)
	.loc 3 904 1488
	srli	a3,a5,24
	slli	a5,a5,8
	add	a5,a5,a3
	.loc 3 904 1423
	xor	a4,a4,a5
	.loc 3 904 1591
	lw	a5,-148(s0)
	.loc 3 904 1596
	srli	a5,a5,16
	.loc 3 904 1575
	andi	a5,a5,0xff
	mv	a2,a5
	.loc 3 904 1573
	lui	a5,%hi(FT0)
	addi	a3,a5,%lo(FT0)
	slli	a5,a2,2
	add	a5,a3,a5
	lw	a5,0(a5)
	.loc 3 904 1621
	srli	a3,a5,16
	slli	a5,a5,16
	add	a5,a5,a3
	.loc 3 904 1554
	xor	a4,a4,a5
	.loc 3 904 1725
	lw	a5,-144(s0)
	.loc 3 904 1730
	srli	a5,a5,24
	.loc 3 904 1709
	andi	a5,a5,0xff
	mv	a2,a5
	.loc 3 904 1707
	lui	a5,%hi(FT0)
	addi	a3,a5,%lo(FT0)
	slli	a5,a2,2
	add	a5,a3,a5
	lw	a5,0(a5)
	.loc 3 904 1755
	srli	a3,a5,8
	slli	a5,a5,24
	add	a5,a5,a3
	.loc 3 904 1688
	xor	a5,a4,a5
	.loc 3 904 1378
	sw	a5,-124(s0)
	.loc 3 906 17
	lw	a5,-20(s0)
	addi	a4,a5,4
	sw	a4,-20(s0)
	.loc 3 906 14
	lw	a5,0(a5)
	.loc 3 907 46
	lw	a4,-136(s0)
	.loc 3 907 31
	andi	a4,a4,0xff
	mv	a3,a4
	.loc 3 907 29
	lui	a4,%hi(FSb)
	addi	a4,a4,%lo(FSb)
	add	a4,a4,a3
	lbu	a4,0(a4)
	.loc 3 906 20
	xor	a4,a5,a4
	.loc 3 908 47
	lw	a5,-132(s0)
	.loc 3 908 52
	srli	a5,a5,8
	.loc 3 908 31
	andi	a5,a5,0xff
	mv	a3,a5
	.loc 3 908 29
	lui	a5,%hi(FSb)
	addi	a5,a5,%lo(FSb)
	add	a5,a5,a3
	lbu	a5,0(a5)
	.loc 3 908 68
	slli	a5,a5,8
	.loc 3 907 62
	xor	a4,a4,a5
	.loc 3 909 47
	lw	a5,-128(s0)
	.loc 3 909 52
	srli	a5,a5,16
	.loc 3 909 31
	andi	a5,a5,0xff
	mv	a3,a5
	.loc 3 909 29
	lui	a5,%hi(FSb)
	addi	a5,a5,%lo(FSb)
	add	a5,a5,a3
	lbu	a5,0(a5)
	.loc 3 909 69
	slli	a5,a5,16
	.loc 3 908 74
	xor	a4,a4,a5
	.loc 3 910 47
	lw	a5,-124(s0)
	.loc 3 910 52
	srli	a5,a5,24
	.loc 3 910 31
	andi	a5,a5,0xff
	mv	a3,a5
	.loc 3 910 29
	lui	a5,%hi(FSb)
	addi	a5,a5,%lo(FSb)
	add	a5,a5,a3
	lbu	a5,0(a5)
	.loc 3 910 69
	slli	a5,a5,24
	.loc 3 909 76
	xor	a5,a4,a5
	.loc 3 906 12
	sw	a5,-152(s0)
	.loc 3 912 17
	lw	a5,-20(s0)
	addi	a4,a5,4
	sw	a4,-20(s0)
	.loc 3 912 14
	lw	a5,0(a5)
	.loc 3 913 46
	lw	a4,-132(s0)
	.loc 3 913 31
	andi	a4,a4,0xff
	mv	a3,a4
	.loc 3 913 29
	lui	a4,%hi(FSb)
	addi	a4,a4,%lo(FSb)
	add	a4,a4,a3
	lbu	a4,0(a4)
	.loc 3 912 20
	xor	a4,a5,a4
	.loc 3 914 47
	lw	a5,-128(s0)
	.loc 3 914 52
	srli	a5,a5,8
	.loc 3 914 31
	andi	a5,a5,0xff
	mv	a3,a5
	.loc 3 914 29
	lui	a5,%hi(FSb)
	addi	a5,a5,%lo(FSb)
	add	a5,a5,a3
	lbu	a5,0(a5)
	.loc 3 914 68
	slli	a5,a5,8
	.loc 3 913 62
	xor	a4,a4,a5
	.loc 3 915 47
	lw	a5,-124(s0)
	.loc 3 915 52
	srli	a5,a5,16
	.loc 3 915 31
	andi	a5,a5,0xff
	mv	a3,a5
	.loc 3 915 29
	lui	a5,%hi(FSb)
	addi	a5,a5,%lo(FSb)
	add	a5,a5,a3
	lbu	a5,0(a5)
	.loc 3 915 69
	slli	a5,a5,16
	.loc 3 914 74
	xor	a4,a4,a5
	.loc 3 916 47
	lw	a5,-136(s0)
	.loc 3 916 52
	srli	a5,a5,24
	.loc 3 916 31
	andi	a5,a5,0xff
	mv	a3,a5
	.loc 3 916 29
	lui	a5,%hi(FSb)
	addi	a5,a5,%lo(FSb)
	add	a5,a5,a3
	lbu	a5,0(a5)
	.loc 3 916 69
	slli	a5,a5,24
	.loc 3 915 76
	xor	a5,a4,a5
	.loc 3 912 12
	sw	a5,-148(s0)
	.loc 3 918 17
	lw	a5,-20(s0)
	addi	a4,a5,4
	sw	a4,-20(s0)
	.loc 3 918 14
	lw	a5,0(a5)
	.loc 3 919 46
	lw	a4,-128(s0)
	.loc 3 919 31
	andi	a4,a4,0xff
	mv	a3,a4
	.loc 3 919 29
	lui	a4,%hi(FSb)
	addi	a4,a4,%lo(FSb)
	add	a4,a4,a3
	lbu	a4,0(a4)
	.loc 3 918 20
	xor	a4,a5,a4
	.loc 3 920 47
	lw	a5,-124(s0)
	.loc 3 920 52
	srli	a5,a5,8
	.loc 3 920 31
	andi	a5,a5,0xff
	mv	a3,a5
	.loc 3 920 29
	lui	a5,%hi(FSb)
	addi	a5,a5,%lo(FSb)
	add	a5,a5,a3
	lbu	a5,0(a5)
	.loc 3 920 68
	slli	a5,a5,8
	.loc 3 919 62
	xor	a4,a4,a5
	.loc 3 921 47
	lw	a5,-136(s0)
	.loc 3 921 52
	srli	a5,a5,16
	.loc 3 921 31
	andi	a5,a5,0xff
	mv	a3,a5
	.loc 3 921 29
	lui	a5,%hi(FSb)
	addi	a5,a5,%lo(FSb)
	add	a5,a5,a3
	lbu	a5,0(a5)
	.loc 3 921 69
	slli	a5,a5,16
	.loc 3 920 74
	xor	a4,a4,a5
	.loc 3 922 47
	lw	a5,-132(s0)
	.loc 3 922 52
	srli	a5,a5,24
	.loc 3 922 31
	andi	a5,a5,0xff
	mv	a3,a5
	.loc 3 922 29
	lui	a5,%hi(FSb)
	addi	a5,a5,%lo(FSb)
	add	a5,a5,a3
	lbu	a5,0(a5)
	.loc 3 922 69
	slli	a5,a5,24
	.loc 3 921 76
	xor	a5,a4,a5
	.loc 3 918 12
	sw	a5,-144(s0)
	.loc 3 924 17
	lw	a5,-20(s0)
	addi	a4,a5,4
	sw	a4,-20(s0)
	.loc 3 924 14
	lw	a5,0(a5)
	.loc 3 925 46
	lw	a4,-124(s0)
	.loc 3 925 31
	andi	a4,a4,0xff
	mv	a3,a4
	.loc 3 925 29
	lui	a4,%hi(FSb)
	addi	a4,a4,%lo(FSb)
	add	a4,a4,a3
	lbu	a4,0(a4)
	.loc 3 924 20
	xor	a4,a5,a4
	.loc 3 926 47
	lw	a5,-136(s0)
	.loc 3 926 52
	srli	a5,a5,8
	.loc 3 926 31
	andi	a5,a5,0xff
	mv	a3,a5
	.loc 3 926 29
	lui	a5,%hi(FSb)
	addi	a5,a5,%lo(FSb)
	add	a5,a5,a3
	lbu	a5,0(a5)
	.loc 3 926 68
	slli	a5,a5,8
	.loc 3 925 62
	xor	a4,a4,a5
	.loc 3 927 47
	lw	a5,-132(s0)
	.loc 3 927 52
	srli	a5,a5,16
	.loc 3 927 31
	andi	a5,a5,0xff
	mv	a3,a5
	.loc 3 927 29
	lui	a5,%hi(FSb)
	addi	a5,a5,%lo(FSb)
	add	a5,a5,a3
	lbu	a5,0(a5)
	.loc 3 927 69
	slli	a5,a5,16
	.loc 3 926 74
	xor	a4,a4,a5
	.loc 3 928 47
	lw	a5,-128(s0)
	.loc 3 928 52
	srli	a5,a5,24
	.loc 3 928 31
	andi	a5,a5,0xff
	mv	a3,a5
	.loc 3 928 29
	lui	a5,%hi(FSb)
	addi	a5,a5,%lo(FSb)
	add	a5,a5,a3
	lbu	a5,0(a5)
	.loc 3 928 69
	slli	a5,a5,24
	.loc 3 927 76
	xor	a5,a4,a5
	.loc 3 924 12
	sw	a5,-140(s0)
	.loc 3 930 111 discriminator 2
	lw	a5,-152(s0)
	lw	a4,-172(s0)
	sw	a4,-76(s0)
	sw	a5,-80(s0)
.LBB76:
.LBB77:
	.loc 2 200 33
	lw	a5,-76(s0)
	sw	a5,-84(s0)
	.loc 2 201 12
	lw	a5,-84(s0)
	lw	a4,-80(s0)
	andi	a4,a4,255
	lbu	a3,0(a5)
	andi	a3,a3,0
	or	a4,a3,a4
	sb	a4,0(a5)
	lw	a4,-80(s0)
	srli	a4,a4,8
	andi	a4,a4,255
	lbu	a3,1(a5)
	andi	a3,a3,0
	or	a4,a3,a4
	sb	a4,1(a5)
	lw	a4,-80(s0)
	srli	a4,a4,16
	andi	a4,a4,255
	lbu	a3,2(a5)
	andi	a3,a3,0
	or	a4,a3,a4
	sb	a4,2(a5)
	lw	a4,-80(s0)
	srli	a4,a4,24
	lbu	a3,3(a5)
	andi	a3,a3,0
	or	a4,a3,a4
	sb	a4,3(a5)
	.loc 2 205 1
	nop
.LBE77:
.LBE76:
	.loc 3 931 149 discriminator 2
	lw	a5,-172(s0)
	addi	a4,a5,4
	.loc 3 931 111 discriminator 2
	lw	a5,-148(s0)
	sw	a4,-88(s0)
	sw	a5,-92(s0)
.LBB78:
.LBB79:
	.loc 2 200 33
	lw	a5,-88(s0)
	sw	a5,-96(s0)
	.loc 2 201 12
	lw	a5,-96(s0)
	lw	a4,-92(s0)
	andi	a4,a4,255
	lbu	a3,0(a5)
	andi	a3,a3,0
	or	a4,a3,a4
	sb	a4,0(a5)
	lw	a4,-92(s0)
	srli	a4,a4,8
	andi	a4,a4,255
	lbu	a3,1(a5)
	andi	a3,a3,0
	or	a4,a3,a4
	sb	a4,1(a5)
	lw	a4,-92(s0)
	srli	a4,a4,16
	andi	a4,a4,255
	lbu	a3,2(a5)
	andi	a3,a3,0
	or	a4,a3,a4
	sb	a4,2(a5)
	lw	a4,-92(s0)
	srli	a4,a4,24
	lbu	a3,3(a5)
	andi	a3,a3,0
	or	a4,a3,a4
	sb	a4,3(a5)
	.loc 2 205 1
	nop
.LBE79:
.LBE78:
	.loc 3 932 149 discriminator 2
	lw	a5,-172(s0)
	addi	a4,a5,8
	.loc 3 932 111 discriminator 2
	lw	a5,-144(s0)
	sw	a4,-100(s0)
	sw	a5,-104(s0)
.LBB80:
.LBB81:
	.loc 2 200 33
	lw	a5,-100(s0)
	sw	a5,-108(s0)
	.loc 2 201 12
	lw	a5,-108(s0)
	lw	a4,-104(s0)
	andi	a4,a4,255
	lbu	a3,0(a5)
	andi	a3,a3,0
	or	a4,a3,a4
	sb	a4,0(a5)
	lw	a4,-104(s0)
	srli	a4,a4,8
	andi	a4,a4,255
	lbu	a3,1(a5)
	andi	a3,a3,0
	or	a4,a3,a4
	sb	a4,1(a5)
	lw	a4,-104(s0)
	srli	a4,a4,16
	andi	a4,a4,255
	lbu	a3,2(a5)
	andi	a3,a3,0
	or	a4,a3,a4
	sb	a4,2(a5)
	lw	a4,-104(s0)
	srli	a4,a4,24
	lbu	a3,3(a5)
	andi	a3,a3,0
	or	a4,a3,a4
	sb	a4,3(a5)
	.loc 2 205 1
	nop
.LBE81:
.LBE80:
	.loc 3 933 150 discriminator 2
	lw	a5,-172(s0)
	addi	a4,a5,12
	.loc 3 933 112 discriminator 2
	lw	a5,-140(s0)
	sw	a4,-112(s0)
	sw	a5,-116(s0)
.LBB82:
.LBB83:
	.loc 2 200 33
	lw	a5,-112(s0)
	sw	a5,-120(s0)
	.loc 2 201 12
	lw	a5,-120(s0)
	lw	a4,-116(s0)
	andi	a4,a4,255
	lbu	a3,0(a5)
	andi	a3,a3,0
	or	a4,a3,a4
	sb	a4,0(a5)
	lw	a4,-116(s0)
	srli	a4,a4,8
	andi	a4,a4,255
	lbu	a3,1(a5)
	andi	a3,a3,0
	or	a4,a3,a4
	sb	a4,1(a5)
	lw	a4,-116(s0)
	srli	a4,a4,16
	andi	a4,a4,255
	lbu	a3,2(a5)
	andi	a3,a3,0
	or	a4,a3,a4
	sb	a4,2(a5)
	lw	a4,-116(s0)
	srli	a4,a4,24
	lbu	a3,3(a5)
	andi	a3,a3,0
	or	a4,a3,a4
	sb	a4,3(a5)
	.loc 2 205 1
	nop
.LBE83:
.LBE82:
	.loc 3 935 5
	addi	a5,s0,-152
	li	a1,32
	mv	a0,a5
	call	mbedtls_platform_zeroize
	.loc 3 937 12
	li	a5,0
	.loc 3 938 1
	mv	a0,a5
	lw	ra,172(sp)
	.cfi_restore 1
	lw	s0,168(sp)
	.cfi_restore 8
	.cfi_def_cfa 2, 176
	addi	sp,sp,176
	.cfi_def_cfa_offset 0
	jr	ra
	.cfi_endproc
.LFE21:
	.size	mbedtls_internal_aes_encrypt, .-mbedtls_internal_aes_encrypt
	.section	.text.mbedtls_internal_aes_decrypt,"ax",@progbits
	.align	1
	.globl	mbedtls_internal_aes_decrypt
	.type	mbedtls_internal_aes_decrypt, @function
mbedtls_internal_aes_decrypt:
.LFB22:
	.loc 3 948 1
	.cfi_startproc
	addi	sp,sp,-176
	.cfi_def_cfa_offset 176
	sw	ra,172(sp)
	sw	s0,168(sp)
	.cfi_offset 1, -4
	.cfi_offset 8, -8
	addi	s0,sp,176
	.cfi_def_cfa 8, 0
	sw	a0,-164(s0)
	sw	a1,-168(s0)
	sw	a2,-172(s0)
	.loc 3 950 20
	lw	a5,-164(s0)
	addi	a4,a5,8
	.loc 3 950 34
	lw	a5,-164(s0)
	lw	a5,4(a5)
	.loc 3 950 29
	slli	a5,a5,2
	.loc 3 950 15
	add	a5,a4,a5
	sw	a5,-20(s0)
	lw	a5,-168(s0)
	sw	a5,-64(s0)
.LBB84:
.LBB85:
	.loc 2 174 33
	lw	a5,-64(s0)
	sw	a5,-68(s0)
	.loc 2 175 7
	lw	a5,-68(s0)
	lbu	a4,0(a5)
	lbu	a3,1(a5)
	slli	a3,a3,8
	or	a4,a3,a4
	lbu	a3,2(a5)
	slli	a3,a3,16
	or	a4,a3,a4
	lbu	a5,3(a5)
	slli	a5,a5,24
	or	a5,a5,a4
	sw	a5,-72(s0)
	.loc 2 179 12
	lw	a5,-72(s0)
.LBE85:
.LBE84:
	.loc 3 956 12 discriminator 1
	sw	a5,-152(s0)
	.loc 3 956 146 discriminator 1
	lw	a5,-20(s0)
	addi	a4,a5,4
	sw	a4,-20(s0)
	.loc 3 956 143 discriminator 1
	lw	a4,0(a5)
	.loc 3 956 136 discriminator 1
	lw	a5,-152(s0)
	.loc 3 956 140 discriminator 1
	xor	a5,a4,a5
	sw	a5,-152(s0)
	.loc 3 957 123
	lw	a5,-168(s0)
	addi	a5,a5,4
	sw	a5,-36(s0)
.LBB86:
.LBB87:
	.loc 2 174 33
	lw	a5,-36(s0)
	sw	a5,-32(s0)
	.loc 2 175 7
	lw	a5,-32(s0)
	lbu	a4,0(a5)
	lbu	a3,1(a5)
	slli	a3,a3,8
	or	a4,a3,a4
	lbu	a3,2(a5)
	slli	a3,a3,16
	or	a4,a3,a4
	lbu	a5,3(a5)
	slli	a5,a5,24
	or	a5,a5,a4
	sw	a5,-28(s0)
	.loc 2 179 12
	lw	a5,-28(s0)
.LBE87:
.LBE86:
	.loc 3 957 12 discriminator 1
	sw	a5,-148(s0)
	.loc 3 957 146 discriminator 1
	lw	a5,-20(s0)
	addi	a4,a5,4
	sw	a4,-20(s0)
	.loc 3 957 143 discriminator 1
	lw	a4,0(a5)
	.loc 3 957 136 discriminator 1
	lw	a5,-148(s0)
	.loc 3 957 140 discriminator 1
	xor	a5,a4,a5
	sw	a5,-148(s0)
	.loc 3 958 123
	lw	a5,-168(s0)
	addi	a5,a5,8
	sw	a5,-48(s0)
.LBB88:
.LBB89:
	.loc 2 174 33
	lw	a5,-48(s0)
	sw	a5,-44(s0)
	.loc 2 175 7
	lw	a5,-44(s0)
	lbu	a4,0(a5)
	lbu	a3,1(a5)
	slli	a3,a3,8
	or	a4,a3,a4
	lbu	a3,2(a5)
	slli	a3,a3,16
	or	a4,a3,a4
	lbu	a5,3(a5)
	slli	a5,a5,24
	or	a5,a5,a4
	sw	a5,-40(s0)
	.loc 2 179 12
	lw	a5,-40(s0)
.LBE89:
.LBE88:
	.loc 3 958 12 discriminator 1
	sw	a5,-144(s0)
	.loc 3 958 146 discriminator 1
	lw	a5,-20(s0)
	addi	a4,a5,4
	sw	a4,-20(s0)
	.loc 3 958 143 discriminator 1
	lw	a4,0(a5)
	.loc 3 958 136 discriminator 1
	lw	a5,-144(s0)
	.loc 3 958 140 discriminator 1
	xor	a5,a4,a5
	sw	a5,-144(s0)
	.loc 3 959 124
	lw	a5,-168(s0)
	addi	a5,a5,12
	sw	a5,-60(s0)
.LBB90:
.LBB91:
	.loc 2 174 33
	lw	a5,-60(s0)
	sw	a5,-56(s0)
	.loc 2 175 7
	lw	a5,-56(s0)
	lbu	a4,0(a5)
	lbu	a3,1(a5)
	slli	a3,a3,8
	or	a4,a3,a4
	lbu	a3,2(a5)
	slli	a3,a3,16
	or	a4,a3,a4
	lbu	a5,3(a5)
	slli	a5,a5,24
	or	a5,a5,a4
	sw	a5,-52(s0)
	.loc 2 179 12
	lw	a5,-52(s0)
.LBE91:
.LBE90:
	.loc 3 959 12 discriminator 1
	sw	a5,-140(s0)
	.loc 3 959 148 discriminator 1
	lw	a5,-20(s0)
	addi	a4,a5,4
	sw	a4,-20(s0)
	.loc 3 959 145 discriminator 1
	lw	a4,0(a5)
	.loc 3 959 138 discriminator 1
	lw	a5,-140(s0)
	.loc 3 959 142 discriminator 1
	xor	a5,a4,a5
	sw	a5,-140(s0)
	.loc 3 961 18
	lw	a5,-164(s0)
	lw	a5,0(a5)
	.loc 3 961 23
	srai	a5,a5,1
	.loc 3 961 12
	addi	a5,a5,-1
	sw	a5,-24(s0)
	.loc 3 961 5
	j	.L55
.L56:
	.loc 3 962 28
	lw	a5,-20(s0)
	addi	a4,a5,4
	sw	a4,-20(s0)
	.loc 3 962 25
	lw	a4,0(a5)
	.loc 3 962 53
	lw	a5,-152(s0)
	.loc 3 962 38
	andi	a5,a5,0xff
	mv	a2,a5
	.loc 3 962 36
	lui	a5,%hi(RT0)
	addi	a3,a5,%lo(RT0)
	slli	a5,a2,2
	add	a5,a3,a5
	lw	a5,0(a5)
	.loc 3 962 31
	xor	a4,a4,a5
	.loc 3 962 105
	lw	a5,-140(s0)
	.loc 3 962 110
	srli	a5,a5,8
	.loc 3 962 89
	andi	a5,a5,0xff
	mv	a2,a5
	.loc 3 962 87
	lui	a5,%hi(RT0)
	addi	a3,a5,%lo(RT0)
	slli	a5,a2,2
	add	a5,a3,a5
	lw	a5,0(a5)
	.loc 3 962 133
	srli	a3,a5,24
	slli	a5,a5,8
	add	a5,a5,a3
	.loc 3 962 68
	xor	a4,a4,a5
	.loc 3 962 236
	lw	a5,-144(s0)
	.loc 3 962 241
	srli	a5,a5,16
	.loc 3 962 220
	andi	a5,a5,0xff
	mv	a2,a5
	.loc 3 962 218
	lui	a5,%hi(RT0)
	addi	a3,a5,%lo(RT0)
	slli	a5,a2,2
	add	a5,a3,a5
	lw	a5,0(a5)
	.loc 3 962 266
	srli	a3,a5,16
	slli	a5,a5,16
	add	a5,a5,a3
	.loc 3 962 199
	xor	a4,a4,a5
	.loc 3 962 370
	lw	a5,-148(s0)
	.loc 3 962 375
	srli	a5,a5,24
	.loc 3 962 354
	andi	a5,a5,0xff
	mv	a2,a5
	.loc 3 962 352
	lui	a5,%hi(RT0)
	addi	a3,a5,%lo(RT0)
	slli	a5,a2,2
	add	a5,a3,a5
	lw	a5,0(a5)
	.loc 3 962 400
	srli	a3,a5,8
	slli	a5,a5,24
	add	a5,a5,a3
	.loc 3 962 333
	xor	a5,a4,a5
	.loc 3 962 23
	sw	a5,-136(s0)
	.loc 3 962 481
	lw	a5,-20(s0)
	addi	a4,a5,4
	sw	a4,-20(s0)
	.loc 3 962 478
	lw	a4,0(a5)
	.loc 3 962 506
	lw	a5,-148(s0)
	.loc 3 962 491
	andi	a5,a5,0xff
	mv	a2,a5
	.loc 3 962 489
	lui	a5,%hi(RT0)
	addi	a3,a5,%lo(RT0)
	slli	a5,a2,2
	add	a5,a3,a5
	lw	a5,0(a5)
	.loc 3 962 484
	xor	a4,a4,a5
	.loc 3 962 558
	lw	a5,-152(s0)
	.loc 3 962 563
	srli	a5,a5,8
	.loc 3 962 542
	andi	a5,a5,0xff
	mv	a2,a5
	.loc 3 962 540
	lui	a5,%hi(RT0)
	addi	a3,a5,%lo(RT0)
	slli	a5,a2,2
	add	a5,a3,a5
	lw	a5,0(a5)
	.loc 3 962 586
	srli	a3,a5,24
	slli	a5,a5,8
	add	a5,a5,a3
	.loc 3 962 521
	xor	a4,a4,a5
	.loc 3 962 689
	lw	a5,-140(s0)
	.loc 3 962 694
	srli	a5,a5,16
	.loc 3 962 673
	andi	a5,a5,0xff
	mv	a2,a5
	.loc 3 962 671
	lui	a5,%hi(RT0)
	addi	a3,a5,%lo(RT0)
	slli	a5,a2,2
	add	a5,a3,a5
	lw	a5,0(a5)
	.loc 3 962 719
	srli	a3,a5,16
	slli	a5,a5,16
	add	a5,a5,a3
	.loc 3 962 652
	xor	a4,a4,a5
	.loc 3 962 823
	lw	a5,-144(s0)
	.loc 3 962 828
	srli	a5,a5,24
	.loc 3 962 807
	andi	a5,a5,0xff
	mv	a2,a5
	.loc 3 962 805
	lui	a5,%hi(RT0)
	addi	a3,a5,%lo(RT0)
	slli	a5,a2,2
	add	a5,a3,a5
	lw	a5,0(a5)
	.loc 3 962 853
	srli	a3,a5,8
	slli	a5,a5,24
	add	a5,a5,a3
	.loc 3 962 786
	xor	a5,a4,a5
	.loc 3 962 476
	sw	a5,-132(s0)
	.loc 3 962 934
	lw	a5,-20(s0)
	addi	a4,a5,4
	sw	a4,-20(s0)
	.loc 3 962 931
	lw	a4,0(a5)
	.loc 3 962 959
	lw	a5,-144(s0)
	.loc 3 962 944
	andi	a5,a5,0xff
	mv	a2,a5
	.loc 3 962 942
	lui	a5,%hi(RT0)
	addi	a3,a5,%lo(RT0)
	slli	a5,a2,2
	add	a5,a3,a5
	lw	a5,0(a5)
	.loc 3 962 937
	xor	a4,a4,a5
	.loc 3 962 1011
	lw	a5,-148(s0)
	.loc 3 962 1016
	srli	a5,a5,8
	.loc 3 962 995
	andi	a5,a5,0xff
	mv	a2,a5
	.loc 3 962 993
	lui	a5,%hi(RT0)
	addi	a3,a5,%lo(RT0)
	slli	a5,a2,2
	add	a5,a3,a5
	lw	a5,0(a5)
	.loc 3 962 1039
	srli	a3,a5,24
	slli	a5,a5,8
	add	a5,a5,a3
	.loc 3 962 974
	xor	a4,a4,a5
	.loc 3 962 1142
	lw	a5,-152(s0)
	.loc 3 962 1147
	srli	a5,a5,16
	.loc 3 962 1126
	andi	a5,a5,0xff
	mv	a2,a5
	.loc 3 962 1124
	lui	a5,%hi(RT0)
	addi	a3,a5,%lo(RT0)
	slli	a5,a2,2
	add	a5,a3,a5
	lw	a5,0(a5)
	.loc 3 962 1172
	srli	a3,a5,16
	slli	a5,a5,16
	add	a5,a5,a3
	.loc 3 962 1105
	xor	a4,a4,a5
	.loc 3 962 1276
	lw	a5,-140(s0)
	.loc 3 962 1281
	srli	a5,a5,24
	.loc 3 962 1260
	andi	a5,a5,0xff
	mv	a2,a5
	.loc 3 962 1258
	lui	a5,%hi(RT0)
	addi	a3,a5,%lo(RT0)
	slli	a5,a2,2
	add	a5,a3,a5
	lw	a5,0(a5)
	.loc 3 962 1306
	srli	a3,a5,8
	slli	a5,a5,24
	add	a5,a5,a3
	.loc 3 962 1239
	xor	a5,a4,a5
	.loc 3 962 929
	sw	a5,-128(s0)
	.loc 3 962 1387
	lw	a5,-20(s0)
	addi	a4,a5,4
	sw	a4,-20(s0)
	.loc 3 962 1384
	lw	a4,0(a5)
	.loc 3 962 1412
	lw	a5,-140(s0)
	.loc 3 962 1397
	andi	a5,a5,0xff
	mv	a2,a5
	.loc 3 962 1395
	lui	a5,%hi(RT0)
	addi	a3,a5,%lo(RT0)
	slli	a5,a2,2
	add	a5,a3,a5
	lw	a5,0(a5)
	.loc 3 962 1390
	xor	a4,a4,a5
	.loc 3 962 1464
	lw	a5,-144(s0)
	.loc 3 962 1469
	srli	a5,a5,8
	.loc 3 962 1448
	andi	a5,a5,0xff
	mv	a2,a5
	.loc 3 962 1446
	lui	a5,%hi(RT0)
	addi	a3,a5,%lo(RT0)
	slli	a5,a2,2
	add	a5,a3,a5
	lw	a5,0(a5)
	.loc 3 962 1492
	srli	a3,a5,24
	slli	a5,a5,8
	add	a5,a5,a3
	.loc 3 962 1427
	xor	a4,a4,a5
	.loc 3 962 1595
	lw	a5,-148(s0)
	.loc 3 962 1600
	srli	a5,a5,16
	.loc 3 962 1579
	andi	a5,a5,0xff
	mv	a2,a5
	.loc 3 962 1577
	lui	a5,%hi(RT0)
	addi	a3,a5,%lo(RT0)
	slli	a5,a2,2
	add	a5,a3,a5
	lw	a5,0(a5)
	.loc 3 962 1625
	srli	a3,a5,16
	slli	a5,a5,16
	add	a5,a5,a3
	.loc 3 962 1558
	xor	a4,a4,a5
	.loc 3 962 1729
	lw	a5,-152(s0)
	.loc 3 962 1734
	srli	a5,a5,24
	.loc 3 962 1713
	andi	a5,a5,0xff
	mv	a2,a5
	.loc 3 962 1711
	lui	a5,%hi(RT0)
	addi	a3,a5,%lo(RT0)
	slli	a5,a2,2
	add	a5,a3,a5
	lw	a5,0(a5)
	.loc 3 962 1759
	srli	a3,a5,8
	slli	a5,a5,24
	add	a5,a5,a3
	.loc 3 962 1692
	xor	a5,a4,a5
	.loc 3 962 1382
	sw	a5,-124(s0)
	.loc 3 963 28
	lw	a5,-20(s0)
	addi	a4,a5,4
	sw	a4,-20(s0)
	.loc 3 963 25
	lw	a4,0(a5)
	.loc 3 963 53
	lw	a5,-136(s0)
	.loc 3 963 38
	andi	a5,a5,0xff
	mv	a2,a5
	.loc 3 963 36
	lui	a5,%hi(RT0)
	addi	a3,a5,%lo(RT0)
	slli	a5,a2,2
	add	a5,a3,a5
	lw	a5,0(a5)
	.loc 3 963 31
	xor	a4,a4,a5
	.loc 3 963 105
	lw	a5,-124(s0)
	.loc 3 963 110
	srli	a5,a5,8
	.loc 3 963 89
	andi	a5,a5,0xff
	mv	a2,a5
	.loc 3 963 87
	lui	a5,%hi(RT0)
	addi	a3,a5,%lo(RT0)
	slli	a5,a2,2
	add	a5,a3,a5
	lw	a5,0(a5)
	.loc 3 963 133
	srli	a3,a5,24
	slli	a5,a5,8
	add	a5,a5,a3
	.loc 3 963 68
	xor	a4,a4,a5
	.loc 3 963 236
	lw	a5,-128(s0)
	.loc 3 963 241
	srli	a5,a5,16
	.loc 3 963 220
	andi	a5,a5,0xff
	mv	a2,a5
	.loc 3 963 218
	lui	a5,%hi(RT0)
	addi	a3,a5,%lo(RT0)
	slli	a5,a2,2
	add	a5,a3,a5
	lw	a5,0(a5)
	.loc 3 963 266
	srli	a3,a5,16
	slli	a5,a5,16
	add	a5,a5,a3
	.loc 3 963 199
	xor	a4,a4,a5
	.loc 3 963 370
	lw	a5,-132(s0)
	.loc 3 963 375
	srli	a5,a5,24
	.loc 3 963 354
	andi	a5,a5,0xff
	mv	a2,a5
	.loc 3 963 352
	lui	a5,%hi(RT0)
	addi	a3,a5,%lo(RT0)
	slli	a5,a2,2
	add	a5,a3,a5
	lw	a5,0(a5)
	.loc 3 963 400
	srli	a3,a5,8
	slli	a5,a5,24
	add	a5,a5,a3
	.loc 3 963 333
	xor	a5,a4,a5
	.loc 3 963 23
	sw	a5,-152(s0)
	.loc 3 963 481
	lw	a5,-20(s0)
	addi	a4,a5,4
	sw	a4,-20(s0)
	.loc 3 963 478
	lw	a4,0(a5)
	.loc 3 963 506
	lw	a5,-132(s0)
	.loc 3 963 491
	andi	a5,a5,0xff
	mv	a2,a5
	.loc 3 963 489
	lui	a5,%hi(RT0)
	addi	a3,a5,%lo(RT0)
	slli	a5,a2,2
	add	a5,a3,a5
	lw	a5,0(a5)
	.loc 3 963 484
	xor	a4,a4,a5
	.loc 3 963 558
	lw	a5,-136(s0)
	.loc 3 963 563
	srli	a5,a5,8
	.loc 3 963 542
	andi	a5,a5,0xff
	mv	a2,a5
	.loc 3 963 540
	lui	a5,%hi(RT0)
	addi	a3,a5,%lo(RT0)
	slli	a5,a2,2
	add	a5,a3,a5
	lw	a5,0(a5)
	.loc 3 963 586
	srli	a3,a5,24
	slli	a5,a5,8
	add	a5,a5,a3
	.loc 3 963 521
	xor	a4,a4,a5
	.loc 3 963 689
	lw	a5,-124(s0)
	.loc 3 963 694
	srli	a5,a5,16
	.loc 3 963 673
	andi	a5,a5,0xff
	mv	a2,a5
	.loc 3 963 671
	lui	a5,%hi(RT0)
	addi	a3,a5,%lo(RT0)
	slli	a5,a2,2
	add	a5,a3,a5
	lw	a5,0(a5)
	.loc 3 963 719
	srli	a3,a5,16
	slli	a5,a5,16
	add	a5,a5,a3
	.loc 3 963 652
	xor	a4,a4,a5
	.loc 3 963 823
	lw	a5,-128(s0)
	.loc 3 963 828
	srli	a5,a5,24
	.loc 3 963 807
	andi	a5,a5,0xff
	mv	a2,a5
	.loc 3 963 805
	lui	a5,%hi(RT0)
	addi	a3,a5,%lo(RT0)
	slli	a5,a2,2
	add	a5,a3,a5
	lw	a5,0(a5)
	.loc 3 963 853
	srli	a3,a5,8
	slli	a5,a5,24
	add	a5,a5,a3
	.loc 3 963 786
	xor	a5,a4,a5
	.loc 3 963 476
	sw	a5,-148(s0)
	.loc 3 963 934
	lw	a5,-20(s0)
	addi	a4,a5,4
	sw	a4,-20(s0)
	.loc 3 963 931
	lw	a4,0(a5)
	.loc 3 963 959
	lw	a5,-128(s0)
	.loc 3 963 944
	andi	a5,a5,0xff
	mv	a2,a5
	.loc 3 963 942
	lui	a5,%hi(RT0)
	addi	a3,a5,%lo(RT0)
	slli	a5,a2,2
	add	a5,a3,a5
	lw	a5,0(a5)
	.loc 3 963 937
	xor	a4,a4,a5
	.loc 3 963 1011
	lw	a5,-132(s0)
	.loc 3 963 1016
	srli	a5,a5,8
	.loc 3 963 995
	andi	a5,a5,0xff
	mv	a2,a5
	.loc 3 963 993
	lui	a5,%hi(RT0)
	addi	a3,a5,%lo(RT0)
	slli	a5,a2,2
	add	a5,a3,a5
	lw	a5,0(a5)
	.loc 3 963 1039
	srli	a3,a5,24
	slli	a5,a5,8
	add	a5,a5,a3
	.loc 3 963 974
	xor	a4,a4,a5
	.loc 3 963 1142
	lw	a5,-136(s0)
	.loc 3 963 1147
	srli	a5,a5,16
	.loc 3 963 1126
	andi	a5,a5,0xff
	mv	a2,a5
	.loc 3 963 1124
	lui	a5,%hi(RT0)
	addi	a3,a5,%lo(RT0)
	slli	a5,a2,2
	add	a5,a3,a5
	lw	a5,0(a5)
	.loc 3 963 1172
	srli	a3,a5,16
	slli	a5,a5,16
	add	a5,a5,a3
	.loc 3 963 1105
	xor	a4,a4,a5
	.loc 3 963 1276
	lw	a5,-124(s0)
	.loc 3 963 1281
	srli	a5,a5,24
	.loc 3 963 1260
	andi	a5,a5,0xff
	mv	a2,a5
	.loc 3 963 1258
	lui	a5,%hi(RT0)
	addi	a3,a5,%lo(RT0)
	slli	a5,a2,2
	add	a5,a3,a5
	lw	a5,0(a5)
	.loc 3 963 1306
	srli	a3,a5,8
	slli	a5,a5,24
	add	a5,a5,a3
	.loc 3 963 1239
	xor	a5,a4,a5
	.loc 3 963 929
	sw	a5,-144(s0)
	.loc 3 963 1387
	lw	a5,-20(s0)
	addi	a4,a5,4
	sw	a4,-20(s0)
	.loc 3 963 1384
	lw	a4,0(a5)
	.loc 3 963 1412
	lw	a5,-124(s0)
	.loc 3 963 1397
	andi	a5,a5,0xff
	mv	a2,a5
	.loc 3 963 1395
	lui	a5,%hi(RT0)
	addi	a3,a5,%lo(RT0)
	slli	a5,a2,2
	add	a5,a3,a5
	lw	a5,0(a5)
	.loc 3 963 1390
	xor	a4,a4,a5
	.loc 3 963 1464
	lw	a5,-128(s0)
	.loc 3 963 1469
	srli	a5,a5,8
	.loc 3 963 1448
	andi	a5,a5,0xff
	mv	a2,a5
	.loc 3 963 1446
	lui	a5,%hi(RT0)
	addi	a3,a5,%lo(RT0)
	slli	a5,a2,2
	add	a5,a3,a5
	lw	a5,0(a5)
	.loc 3 963 1492
	srli	a3,a5,24
	slli	a5,a5,8
	add	a5,a5,a3
	.loc 3 963 1427
	xor	a4,a4,a5
	.loc 3 963 1595
	lw	a5,-132(s0)
	.loc 3 963 1600
	srli	a5,a5,16
	.loc 3 963 1579
	andi	a5,a5,0xff
	mv	a2,a5
	.loc 3 963 1577
	lui	a5,%hi(RT0)
	addi	a3,a5,%lo(RT0)
	slli	a5,a2,2
	add	a5,a3,a5
	lw	a5,0(a5)
	.loc 3 963 1625
	srli	a3,a5,16
	slli	a5,a5,16
	add	a5,a5,a3
	.loc 3 963 1558
	xor	a4,a4,a5
	.loc 3 963 1729
	lw	a5,-136(s0)
	.loc 3 963 1734
	srli	a5,a5,24
	.loc 3 963 1713
	andi	a5,a5,0xff
	mv	a2,a5
	.loc 3 963 1711
	lui	a5,%hi(RT0)
	addi	a3,a5,%lo(RT0)
	slli	a5,a2,2
	add	a5,a3,a5
	lw	a5,0(a5)
	.loc 3 963 1759
	srli	a3,a5,8
	slli	a5,a5,24
	add	a5,a5,a3
	.loc 3 963 1692
	xor	a5,a4,a5
	.loc 3 963 1382
	sw	a5,-140(s0)
	.loc 3 961 42 discriminator 3
	lw	a5,-24(s0)
	addi	a5,a5,-1
	sw	a5,-24(s0)
.L55:
	.loc 3 961 36 discriminator 1
	lw	a5,-24(s0)
	bgt	a5,zero,.L56
	.loc 3 966 24
	lw	a5,-20(s0)
	addi	a4,a5,4
	sw	a4,-20(s0)
	.loc 3 966 21
	lw	a4,0(a5)
	.loc 3 966 49
	lw	a5,-152(s0)
	.loc 3 966 34
	andi	a5,a5,0xff
	mv	a2,a5
	.loc 3 966 32
	lui	a5,%hi(RT0)
	addi	a3,a5,%lo(RT0)
	slli	a5,a2,2
	add	a5,a3,a5
	lw	a5,0(a5)
	.loc 3 966 27
	xor	a4,a4,a5
	.loc 3 966 101
	lw	a5,-140(s0)
	.loc 3 966 106
	srli	a5,a5,8
	.loc 3 966 85
	andi	a5,a5,0xff
	mv	a2,a5
	.loc 3 966 83
	lui	a5,%hi(RT0)
	addi	a3,a5,%lo(RT0)
	slli	a5,a2,2
	add	a5,a3,a5
	lw	a5,0(a5)
	.loc 3 966 129
	srli	a3,a5,24
	slli	a5,a5,8
	add	a5,a5,a3
	.loc 3 966 64
	xor	a4,a4,a5
	.loc 3 966 232
	lw	a5,-144(s0)
	.loc 3 966 237
	srli	a5,a5,16
	.loc 3 966 216
	andi	a5,a5,0xff
	mv	a2,a5
	.loc 3 966 214
	lui	a5,%hi(RT0)
	addi	a3,a5,%lo(RT0)
	slli	a5,a2,2
	add	a5,a3,a5
	lw	a5,0(a5)
	.loc 3 966 262
	srli	a3,a5,16
	slli	a5,a5,16
	add	a5,a5,a3
	.loc 3 966 195
	xor	a4,a4,a5
	.loc 3 966 366
	lw	a5,-148(s0)
	.loc 3 966 371
	srli	a5,a5,24
	.loc 3 966 350
	andi	a5,a5,0xff
	mv	a2,a5
	.loc 3 966 348
	lui	a5,%hi(RT0)
	addi	a3,a5,%lo(RT0)
	slli	a5,a2,2
	add	a5,a3,a5
	lw	a5,0(a5)
	.loc 3 966 396
	srli	a3,a5,8
	slli	a5,a5,24
	add	a5,a5,a3
	.loc 3 966 329
	xor	a5,a4,a5
	.loc 3 966 19
	sw	a5,-136(s0)
	.loc 3 966 477
	lw	a5,-20(s0)
	addi	a4,a5,4
	sw	a4,-20(s0)
	.loc 3 966 474
	lw	a4,0(a5)
	.loc 3 966 502
	lw	a5,-148(s0)
	.loc 3 966 487
	andi	a5,a5,0xff
	mv	a2,a5
	.loc 3 966 485
	lui	a5,%hi(RT0)
	addi	a3,a5,%lo(RT0)
	slli	a5,a2,2
	add	a5,a3,a5
	lw	a5,0(a5)
	.loc 3 966 480
	xor	a4,a4,a5
	.loc 3 966 554
	lw	a5,-152(s0)
	.loc 3 966 559
	srli	a5,a5,8
	.loc 3 966 538
	andi	a5,a5,0xff
	mv	a2,a5
	.loc 3 966 536
	lui	a5,%hi(RT0)
	addi	a3,a5,%lo(RT0)
	slli	a5,a2,2
	add	a5,a3,a5
	lw	a5,0(a5)
	.loc 3 966 582
	srli	a3,a5,24
	slli	a5,a5,8
	add	a5,a5,a3
	.loc 3 966 517
	xor	a4,a4,a5
	.loc 3 966 685
	lw	a5,-140(s0)
	.loc 3 966 690
	srli	a5,a5,16
	.loc 3 966 669
	andi	a5,a5,0xff
	mv	a2,a5
	.loc 3 966 667
	lui	a5,%hi(RT0)
	addi	a3,a5,%lo(RT0)
	slli	a5,a2,2
	add	a5,a3,a5
	lw	a5,0(a5)
	.loc 3 966 715
	srli	a3,a5,16
	slli	a5,a5,16
	add	a5,a5,a3
	.loc 3 966 648
	xor	a4,a4,a5
	.loc 3 966 819
	lw	a5,-144(s0)
	.loc 3 966 824
	srli	a5,a5,24
	.loc 3 966 803
	andi	a5,a5,0xff
	mv	a2,a5
	.loc 3 966 801
	lui	a5,%hi(RT0)
	addi	a3,a5,%lo(RT0)
	slli	a5,a2,2
	add	a5,a3,a5
	lw	a5,0(a5)
	.loc 3 966 849
	srli	a3,a5,8
	slli	a5,a5,24
	add	a5,a5,a3
	.loc 3 966 782
	xor	a5,a4,a5
	.loc 3 966 472
	sw	a5,-132(s0)
	.loc 3 966 930
	lw	a5,-20(s0)
	addi	a4,a5,4
	sw	a4,-20(s0)
	.loc 3 966 927
	lw	a4,0(a5)
	.loc 3 966 955
	lw	a5,-144(s0)
	.loc 3 966 940
	andi	a5,a5,0xff
	mv	a2,a5
	.loc 3 966 938
	lui	a5,%hi(RT0)
	addi	a3,a5,%lo(RT0)
	slli	a5,a2,2
	add	a5,a3,a5
	lw	a5,0(a5)
	.loc 3 966 933
	xor	a4,a4,a5
	.loc 3 966 1007
	lw	a5,-148(s0)
	.loc 3 966 1012
	srli	a5,a5,8
	.loc 3 966 991
	andi	a5,a5,0xff
	mv	a2,a5
	.loc 3 966 989
	lui	a5,%hi(RT0)
	addi	a3,a5,%lo(RT0)
	slli	a5,a2,2
	add	a5,a3,a5
	lw	a5,0(a5)
	.loc 3 966 1035
	srli	a3,a5,24
	slli	a5,a5,8
	add	a5,a5,a3
	.loc 3 966 970
	xor	a4,a4,a5
	.loc 3 966 1138
	lw	a5,-152(s0)
	.loc 3 966 1143
	srli	a5,a5,16
	.loc 3 966 1122
	andi	a5,a5,0xff
	mv	a2,a5
	.loc 3 966 1120
	lui	a5,%hi(RT0)
	addi	a3,a5,%lo(RT0)
	slli	a5,a2,2
	add	a5,a3,a5
	lw	a5,0(a5)
	.loc 3 966 1168
	srli	a3,a5,16
	slli	a5,a5,16
	add	a5,a5,a3
	.loc 3 966 1101
	xor	a4,a4,a5
	.loc 3 966 1272
	lw	a5,-140(s0)
	.loc 3 966 1277
	srli	a5,a5,24
	.loc 3 966 1256
	andi	a5,a5,0xff
	mv	a2,a5
	.loc 3 966 1254
	lui	a5,%hi(RT0)
	addi	a3,a5,%lo(RT0)
	slli	a5,a2,2
	add	a5,a3,a5
	lw	a5,0(a5)
	.loc 3 966 1302
	srli	a3,a5,8
	slli	a5,a5,24
	add	a5,a5,a3
	.loc 3 966 1235
	xor	a5,a4,a5
	.loc 3 966 925
	sw	a5,-128(s0)
	.loc 3 966 1383
	lw	a5,-20(s0)
	addi	a4,a5,4
	sw	a4,-20(s0)
	.loc 3 966 1380
	lw	a4,0(a5)
	.loc 3 966 1408
	lw	a5,-140(s0)
	.loc 3 966 1393
	andi	a5,a5,0xff
	mv	a2,a5
	.loc 3 966 1391
	lui	a5,%hi(RT0)
	addi	a3,a5,%lo(RT0)
	slli	a5,a2,2
	add	a5,a3,a5
	lw	a5,0(a5)
	.loc 3 966 1386
	xor	a4,a4,a5
	.loc 3 966 1460
	lw	a5,-144(s0)
	.loc 3 966 1465
	srli	a5,a5,8
	.loc 3 966 1444
	andi	a5,a5,0xff
	mv	a2,a5
	.loc 3 966 1442
	lui	a5,%hi(RT0)
	addi	a3,a5,%lo(RT0)
	slli	a5,a2,2
	add	a5,a3,a5
	lw	a5,0(a5)
	.loc 3 966 1488
	srli	a3,a5,24
	slli	a5,a5,8
	add	a5,a5,a3
	.loc 3 966 1423
	xor	a4,a4,a5
	.loc 3 966 1591
	lw	a5,-148(s0)
	.loc 3 966 1596
	srli	a5,a5,16
	.loc 3 966 1575
	andi	a5,a5,0xff
	mv	a2,a5
	.loc 3 966 1573
	lui	a5,%hi(RT0)
	addi	a3,a5,%lo(RT0)
	slli	a5,a2,2
	add	a5,a3,a5
	lw	a5,0(a5)
	.loc 3 966 1621
	srli	a3,a5,16
	slli	a5,a5,16
	add	a5,a5,a3
	.loc 3 966 1554
	xor	a4,a4,a5
	.loc 3 966 1725
	lw	a5,-152(s0)
	.loc 3 966 1730
	srli	a5,a5,24
	.loc 3 966 1709
	andi	a5,a5,0xff
	mv	a2,a5
	.loc 3 966 1707
	lui	a5,%hi(RT0)
	addi	a3,a5,%lo(RT0)
	slli	a5,a2,2
	add	a5,a3,a5
	lw	a5,0(a5)
	.loc 3 966 1755
	srli	a3,a5,8
	slli	a5,a5,24
	add	a5,a5,a3
	.loc 3 966 1688
	xor	a5,a4,a5
	.loc 3 966 1378
	sw	a5,-124(s0)
	.loc 3 968 17
	lw	a5,-20(s0)
	addi	a4,a5,4
	sw	a4,-20(s0)
	.loc 3 968 14
	lw	a5,0(a5)
	.loc 3 969 46
	lw	a4,-136(s0)
	.loc 3 969 31
	andi	a4,a4,0xff
	mv	a3,a4
	.loc 3 969 29
	lui	a4,%hi(RSb)
	addi	a4,a4,%lo(RSb)
	add	a4,a4,a3
	lbu	a4,0(a4)
	.loc 3 968 20
	xor	a4,a5,a4
	.loc 3 970 47
	lw	a5,-124(s0)
	.loc 3 970 52
	srli	a5,a5,8
	.loc 3 970 31
	andi	a5,a5,0xff
	mv	a3,a5
	.loc 3 970 29
	lui	a5,%hi(RSb)
	addi	a5,a5,%lo(RSb)
	add	a5,a5,a3
	lbu	a5,0(a5)
	.loc 3 970 68
	slli	a5,a5,8
	.loc 3 969 62
	xor	a4,a4,a5
	.loc 3 971 47
	lw	a5,-128(s0)
	.loc 3 971 52
	srli	a5,a5,16
	.loc 3 971 31
	andi	a5,a5,0xff
	mv	a3,a5
	.loc 3 971 29
	lui	a5,%hi(RSb)
	addi	a5,a5,%lo(RSb)
	add	a5,a5,a3
	lbu	a5,0(a5)
	.loc 3 971 69
	slli	a5,a5,16
	.loc 3 970 74
	xor	a4,a4,a5
	.loc 3 972 47
	lw	a5,-132(s0)
	.loc 3 972 52
	srli	a5,a5,24
	.loc 3 972 31
	andi	a5,a5,0xff
	mv	a3,a5
	.loc 3 972 29
	lui	a5,%hi(RSb)
	addi	a5,a5,%lo(RSb)
	add	a5,a5,a3
	lbu	a5,0(a5)
	.loc 3 972 69
	slli	a5,a5,24
	.loc 3 971 76
	xor	a5,a4,a5
	.loc 3 968 12
	sw	a5,-152(s0)
	.loc 3 974 17
	lw	a5,-20(s0)
	addi	a4,a5,4
	sw	a4,-20(s0)
	.loc 3 974 14
	lw	a5,0(a5)
	.loc 3 975 46
	lw	a4,-132(s0)
	.loc 3 975 31
	andi	a4,a4,0xff
	mv	a3,a4
	.loc 3 975 29
	lui	a4,%hi(RSb)
	addi	a4,a4,%lo(RSb)
	add	a4,a4,a3
	lbu	a4,0(a4)
	.loc 3 974 20
	xor	a4,a5,a4
	.loc 3 976 47
	lw	a5,-136(s0)
	.loc 3 976 52
	srli	a5,a5,8
	.loc 3 976 31
	andi	a5,a5,0xff
	mv	a3,a5
	.loc 3 976 29
	lui	a5,%hi(RSb)
	addi	a5,a5,%lo(RSb)
	add	a5,a5,a3
	lbu	a5,0(a5)
	.loc 3 976 68
	slli	a5,a5,8
	.loc 3 975 62
	xor	a4,a4,a5
	.loc 3 977 47
	lw	a5,-124(s0)
	.loc 3 977 52
	srli	a5,a5,16
	.loc 3 977 31
	andi	a5,a5,0xff
	mv	a3,a5
	.loc 3 977 29
	lui	a5,%hi(RSb)
	addi	a5,a5,%lo(RSb)
	add	a5,a5,a3
	lbu	a5,0(a5)
	.loc 3 977 69
	slli	a5,a5,16
	.loc 3 976 74
	xor	a4,a4,a5
	.loc 3 978 47
	lw	a5,-128(s0)
	.loc 3 978 52
	srli	a5,a5,24
	.loc 3 978 31
	andi	a5,a5,0xff
	mv	a3,a5
	.loc 3 978 29
	lui	a5,%hi(RSb)
	addi	a5,a5,%lo(RSb)
	add	a5,a5,a3
	lbu	a5,0(a5)
	.loc 3 978 69
	slli	a5,a5,24
	.loc 3 977 76
	xor	a5,a4,a5
	.loc 3 974 12
	sw	a5,-148(s0)
	.loc 3 980 17
	lw	a5,-20(s0)
	addi	a4,a5,4
	sw	a4,-20(s0)
	.loc 3 980 14
	lw	a5,0(a5)
	.loc 3 981 46
	lw	a4,-128(s0)
	.loc 3 981 31
	andi	a4,a4,0xff
	mv	a3,a4
	.loc 3 981 29
	lui	a4,%hi(RSb)
	addi	a4,a4,%lo(RSb)
	add	a4,a4,a3
	lbu	a4,0(a4)
	.loc 3 980 20
	xor	a4,a5,a4
	.loc 3 982 47
	lw	a5,-132(s0)
	.loc 3 982 52
	srli	a5,a5,8
	.loc 3 982 31
	andi	a5,a5,0xff
	mv	a3,a5
	.loc 3 982 29
	lui	a5,%hi(RSb)
	addi	a5,a5,%lo(RSb)
	add	a5,a5,a3
	lbu	a5,0(a5)
	.loc 3 982 68
	slli	a5,a5,8
	.loc 3 981 62
	xor	a4,a4,a5
	.loc 3 983 47
	lw	a5,-136(s0)
	.loc 3 983 52
	srli	a5,a5,16
	.loc 3 983 31
	andi	a5,a5,0xff
	mv	a3,a5
	.loc 3 983 29
	lui	a5,%hi(RSb)
	addi	a5,a5,%lo(RSb)
	add	a5,a5,a3
	lbu	a5,0(a5)
	.loc 3 983 69
	slli	a5,a5,16
	.loc 3 982 74
	xor	a4,a4,a5
	.loc 3 984 47
	lw	a5,-124(s0)
	.loc 3 984 52
	srli	a5,a5,24
	.loc 3 984 31
	andi	a5,a5,0xff
	mv	a3,a5
	.loc 3 984 29
	lui	a5,%hi(RSb)
	addi	a5,a5,%lo(RSb)
	add	a5,a5,a3
	lbu	a5,0(a5)
	.loc 3 984 69
	slli	a5,a5,24
	.loc 3 983 76
	xor	a5,a4,a5
	.loc 3 980 12
	sw	a5,-144(s0)
	.loc 3 986 17
	lw	a5,-20(s0)
	addi	a4,a5,4
	sw	a4,-20(s0)
	.loc 3 986 14
	lw	a5,0(a5)
	.loc 3 987 46
	lw	a4,-124(s0)
	.loc 3 987 31
	andi	a4,a4,0xff
	mv	a3,a4
	.loc 3 987 29
	lui	a4,%hi(RSb)
	addi	a4,a4,%lo(RSb)
	add	a4,a4,a3
	lbu	a4,0(a4)
	.loc 3 986 20
	xor	a4,a5,a4
	.loc 3 988 47
	lw	a5,-128(s0)
	.loc 3 988 52
	srli	a5,a5,8
	.loc 3 988 31
	andi	a5,a5,0xff
	mv	a3,a5
	.loc 3 988 29
	lui	a5,%hi(RSb)
	addi	a5,a5,%lo(RSb)
	add	a5,a5,a3
	lbu	a5,0(a5)
	.loc 3 988 68
	slli	a5,a5,8
	.loc 3 987 62
	xor	a4,a4,a5
	.loc 3 989 47
	lw	a5,-132(s0)
	.loc 3 989 52
	srli	a5,a5,16
	.loc 3 989 31
	andi	a5,a5,0xff
	mv	a3,a5
	.loc 3 989 29
	lui	a5,%hi(RSb)
	addi	a5,a5,%lo(RSb)
	add	a5,a5,a3
	lbu	a5,0(a5)
	.loc 3 989 69
	slli	a5,a5,16
	.loc 3 988 74
	xor	a4,a4,a5
	.loc 3 990 47
	lw	a5,-136(s0)
	.loc 3 990 52
	srli	a5,a5,24
	.loc 3 990 31
	andi	a5,a5,0xff
	mv	a3,a5
	.loc 3 990 29
	lui	a5,%hi(RSb)
	addi	a5,a5,%lo(RSb)
	add	a5,a5,a3
	lbu	a5,0(a5)
	.loc 3 990 69
	slli	a5,a5,24
	.loc 3 989 76
	xor	a5,a4,a5
	.loc 3 986 12
	sw	a5,-140(s0)
	.loc 3 992 111 discriminator 2
	lw	a5,-152(s0)
	lw	a4,-172(s0)
	sw	a4,-76(s0)
	sw	a5,-80(s0)
.LBB92:
.LBB93:
	.loc 2 200 33
	lw	a5,-76(s0)
	sw	a5,-84(s0)
	.loc 2 201 12
	lw	a5,-84(s0)
	lw	a4,-80(s0)
	andi	a4,a4,255
	lbu	a3,0(a5)
	andi	a3,a3,0
	or	a4,a3,a4
	sb	a4,0(a5)
	lw	a4,-80(s0)
	srli	a4,a4,8
	andi	a4,a4,255
	lbu	a3,1(a5)
	andi	a3,a3,0
	or	a4,a3,a4
	sb	a4,1(a5)
	lw	a4,-80(s0)
	srli	a4,a4,16
	andi	a4,a4,255
	lbu	a3,2(a5)
	andi	a3,a3,0
	or	a4,a3,a4
	sb	a4,2(a5)
	lw	a4,-80(s0)
	srli	a4,a4,24
	lbu	a3,3(a5)
	andi	a3,a3,0
	or	a4,a3,a4
	sb	a4,3(a5)
	.loc 2 205 1
	nop
.LBE93:
.LBE92:
	.loc 3 993 149 discriminator 2
	lw	a5,-172(s0)
	addi	a4,a5,4
	.loc 3 993 111 discriminator 2
	lw	a5,-148(s0)
	sw	a4,-88(s0)
	sw	a5,-92(s0)
.LBB94:
.LBB95:
	.loc 2 200 33
	lw	a5,-88(s0)
	sw	a5,-96(s0)
	.loc 2 201 12
	lw	a5,-96(s0)
	lw	a4,-92(s0)
	andi	a4,a4,255
	lbu	a3,0(a5)
	andi	a3,a3,0
	or	a4,a3,a4
	sb	a4,0(a5)
	lw	a4,-92(s0)
	srli	a4,a4,8
	andi	a4,a4,255
	lbu	a3,1(a5)
	andi	a3,a3,0
	or	a4,a3,a4
	sb	a4,1(a5)
	lw	a4,-92(s0)
	srli	a4,a4,16
	andi	a4,a4,255
	lbu	a3,2(a5)
	andi	a3,a3,0
	or	a4,a3,a4
	sb	a4,2(a5)
	lw	a4,-92(s0)
	srli	a4,a4,24
	lbu	a3,3(a5)
	andi	a3,a3,0
	or	a4,a3,a4
	sb	a4,3(a5)
	.loc 2 205 1
	nop
.LBE95:
.LBE94:
	.loc 3 994 149 discriminator 2
	lw	a5,-172(s0)
	addi	a4,a5,8
	.loc 3 994 111 discriminator 2
	lw	a5,-144(s0)
	sw	a4,-100(s0)
	sw	a5,-104(s0)
.LBB96:
.LBB97:
	.loc 2 200 33
	lw	a5,-100(s0)
	sw	a5,-108(s0)
	.loc 2 201 12
	lw	a5,-108(s0)
	lw	a4,-104(s0)
	andi	a4,a4,255
	lbu	a3,0(a5)
	andi	a3,a3,0
	or	a4,a3,a4
	sb	a4,0(a5)
	lw	a4,-104(s0)
	srli	a4,a4,8
	andi	a4,a4,255
	lbu	a3,1(a5)
	andi	a3,a3,0
	or	a4,a3,a4
	sb	a4,1(a5)
	lw	a4,-104(s0)
	srli	a4,a4,16
	andi	a4,a4,255
	lbu	a3,2(a5)
	andi	a3,a3,0
	or	a4,a3,a4
	sb	a4,2(a5)
	lw	a4,-104(s0)
	srli	a4,a4,24
	lbu	a3,3(a5)
	andi	a3,a3,0
	or	a4,a3,a4
	sb	a4,3(a5)
	.loc 2 205 1
	nop
.LBE97:
.LBE96:
	.loc 3 995 150 discriminator 2
	lw	a5,-172(s0)
	addi	a4,a5,12
	.loc 3 995 112 discriminator 2
	lw	a5,-140(s0)
	sw	a4,-112(s0)
	sw	a5,-116(s0)
.LBB98:
.LBB99:
	.loc 2 200 33
	lw	a5,-112(s0)
	sw	a5,-120(s0)
	.loc 2 201 12
	lw	a5,-120(s0)
	lw	a4,-116(s0)
	andi	a4,a4,255
	lbu	a3,0(a5)
	andi	a3,a3,0
	or	a4,a3,a4
	sb	a4,0(a5)
	lw	a4,-116(s0)
	srli	a4,a4,8
	andi	a4,a4,255
	lbu	a3,1(a5)
	andi	a3,a3,0
	or	a4,a3,a4
	sb	a4,1(a5)
	lw	a4,-116(s0)
	srli	a4,a4,16
	andi	a4,a4,255
	lbu	a3,2(a5)
	andi	a3,a3,0
	or	a4,a3,a4
	sb	a4,2(a5)
	lw	a4,-116(s0)
	srli	a4,a4,24
	lbu	a3,3(a5)
	andi	a3,a3,0
	or	a4,a3,a4
	sb	a4,3(a5)
	.loc 2 205 1
	nop
.LBE99:
.LBE98:
	.loc 3 997 5
	addi	a5,s0,-152
	li	a1,32
	mv	a0,a5
	call	mbedtls_platform_zeroize
	.loc 3 999 12
	li	a5,0
	.loc 3 1000 1
	mv	a0,a5
	lw	ra,172(sp)
	.cfi_restore 1
	lw	s0,168(sp)
	.cfi_restore 8
	.cfi_def_cfa 2, 176
	addi	sp,sp,176
	.cfi_def_cfa_offset 0
	jr	ra
	.cfi_endproc
.LFE22:
	.size	mbedtls_internal_aes_decrypt, .-mbedtls_internal_aes_decrypt
	.section	.text.aes_maybe_realign,"ax",@progbits
	.align	1
	.type	aes_maybe_realign, @function
aes_maybe_realign:
.LFB23:
	.loc 3 1011 1
	.cfi_startproc
	addi	sp,sp,-48
	.cfi_def_cfa_offset 48
	sw	ra,44(sp)
	sw	s0,40(sp)
	.cfi_offset 1, -4
	.cfi_offset 8, -8
	addi	s0,sp,48
	.cfi_def_cfa 8, 0
	sw	a0,-36(s0)
	.loc 3 1012 52
	lw	a5,-36(s0)
	addi	a5,a5,8
	.loc 3 1012 27
	mv	a0,a5
	call	mbedtls_aes_rk_offset
	sw	a0,-20(s0)
	.loc 3 1013 26
	lw	a5,-36(s0)
	lw	a5,4(a5)
	.loc 3 1013 8
	lw	a4,-20(s0)
	beq	a4,a5,.L60
	.loc 3 1014 17
	lw	a5,-36(s0)
	addi	a4,a5,8
	.loc 3 1014 26
	lw	a5,-20(s0)
	slli	a5,a5,2
	.loc 3 1014 9
	add	a3,a4,a5
	.loc 3 1015 17
	lw	a5,-36(s0)
	addi	a4,a5,8
	.loc 3 1015 31
	lw	a5,-36(s0)
	lw	a5,4(a5)
	.loc 3 1015 26
	slli	a5,a5,2
	.loc 3 1014 9
	add	a4,a4,a5
	.loc 3 1016 21
	lw	a5,-36(s0)
	lw	a5,0(a5)
	.loc 3 1016 26
	addi	a5,a5,1
	.loc 3 1016 31
	slli	a5,a5,4
	.loc 3 1014 9
	mv	a2,a5
	mv	a1,a4
	mv	a0,a3
	call	memmove
	.loc 3 1017 24
	lw	a5,-36(s0)
	lw	a4,-20(s0)
	sw	a4,4(a5)
.L60:
	.loc 3 1019 1
	nop
	lw	ra,44(sp)
	.cfi_restore 1
	lw	s0,40(sp)
	.cfi_restore 8
	.cfi_def_cfa 2, 48
	addi	sp,sp,48
	.cfi_def_cfa_offset 0
	jr	ra
	.cfi_endproc
.LFE23:
	.size	aes_maybe_realign, .-aes_maybe_realign
	.section	.text.mbedtls_aes_crypt_ecb,"ax",@progbits
	.align	1
	.globl	mbedtls_aes_crypt_ecb
	.type	mbedtls_aes_crypt_ecb, @function
mbedtls_aes_crypt_ecb:
.LFB24:
	.loc 3 1028 1
	.cfi_startproc
	addi	sp,sp,-32
	.cfi_def_cfa_offset 32
	sw	ra,28(sp)
	sw	s0,24(sp)
	.cfi_offset 1, -4
	.cfi_offset 8, -8
	addi	s0,sp,32
	.cfi_def_cfa 8, 0
	sw	a0,-20(s0)
	sw	a1,-24(s0)
	sw	a2,-28(s0)
	sw	a3,-32(s0)
	.loc 3 1029 8
	lw	a4,-24(s0)
	li	a5,1
	beq	a4,a5,.L62
	.loc 3 1029 19 discriminator 1
	lw	a5,-24(s0)
	beq	a5,zero,.L62
	.loc 3 1030 16
	li	a5,-33
	j	.L63
.L62:
	.loc 3 1057 8
	lw	a5,-24(s0)
	bne	a5,zero,.L64
	.loc 3 1058 16
	lw	a2,-32(s0)
	lw	a1,-28(s0)
	lw	a0,-20(s0)
	call	mbedtls_internal_aes_decrypt
	mv	a5,a0
	j	.L63
.L64:
	.loc 3 1062 16
	lw	a2,-32(s0)
	lw	a1,-28(s0)
	lw	a0,-20(s0)
	call	mbedtls_internal_aes_encrypt
	mv	a5,a0
.L63:
	.loc 3 1065 1
	mv	a0,a5
	lw	ra,28(sp)
	.cfi_restore 1
	lw	s0,24(sp)
	.cfi_restore 8
	.cfi_def_cfa 2, 32
	addi	sp,sp,32
	.cfi_def_cfa_offset 0
	jr	ra
	.cfi_endproc
.LFE24:
	.size	mbedtls_aes_crypt_ecb, .-mbedtls_aes_crypt_ecb
	.section	.text.mbedtls_aes_crypt_cbc,"ax",@progbits
	.align	1
	.globl	mbedtls_aes_crypt_cbc
	.type	mbedtls_aes_crypt_cbc, @function
mbedtls_aes_crypt_cbc:
.LFB25:
	.loc 3 1078 1
	.cfi_startproc
	addi	sp,sp,-112
	.cfi_def_cfa_offset 112
	sw	ra,108(sp)
	sw	s0,104(sp)
	.cfi_offset 1, -4
	.cfi_offset 8, -8
	addi	s0,sp,112
	.cfi_def_cfa 8, 0
	sw	a0,-84(s0)
	sw	a1,-88(s0)
	sw	a2,-92(s0)
	sw	a3,-96(s0)
	sw	a4,-100(s0)
	sw	a5,-104(s0)
	.loc 3 1079 9
	li	a5,-110
	sw	a5,-20(s0)
	.loc 3 1082 8
	lw	a4,-88(s0)
	li	a5,1
	beq	a4,a5,.L66
	.loc 3 1082 19 discriminator 1
	lw	a5,-88(s0)
	beq	a5,zero,.L66
	.loc 3 1083 16
	li	a5,-33
	j	.L83
.L66:
	.loc 3 1087 8
	lw	a5,-92(s0)
	bne	a5,zero,.L68
	.loc 3 1088 16
	li	a5,0
	j	.L83
.L68:
	.loc 3 1091 16
	lw	a5,-92(s0)
	andi	a5,a5,15
	.loc 3 1091 8
	beq	a5,zero,.L69
	.loc 3 1092 16
	li	a5,-34
	j	.L83
.L69:
	.loc 3 1107 26
	lw	a5,-96(s0)
	sw	a5,-24(s0)
	.loc 3 1109 8
	lw	a5,-88(s0)
	bne	a5,zero,.L78
	.loc 3 1110 15
	j	.L71
.L76:
	.loc 3 1111 13
	addi	a5,s0,-80
	li	a2,16
	lw	a1,-100(s0)
	mv	a0,a5
	call	memcpy
	.loc 3 1112 19
	lw	a3,-104(s0)
	lw	a2,-100(s0)
	lw	a1,-88(s0)
	lw	a0,-84(s0)
	call	mbedtls_aes_crypt_ecb
	sw	a0,-20(s0)
	.loc 3 1113 16
	lw	a5,-20(s0)
	bne	a5,zero,.L84
	lw	a5,-104(s0)
	sw	a5,-28(s0)
	lw	a5,-104(s0)
	sw	a5,-32(s0)
	lw	a5,-96(s0)
	sw	a5,-36(s0)
	li	a5,16
	sw	a5,-40(s0)
.LBB100:
.LBB101:
	.file 4 "/home/chandu/sdk/bl602_iot_sdk/components/security/mbedtls-bl602/library/common.h"
	.loc 4 273 12
	sw	zero,-44(s0)
	.loc 4 302 5
	j	.L74
.L75:
	.loc 4 303 17
	lw	a4,-32(s0)
	lw	a5,-44(s0)
	add	a5,a4,a5
	lbu	a3,0(a5)
	.loc 4 303 24
	lw	a4,-36(s0)
	lw	a5,-44(s0)
	add	a5,a4,a5
	lbu	a4,0(a5)
	.loc 4 303 10
	lw	a2,-28(s0)
	lw	a5,-44(s0)
	add	a5,a2,a5
	.loc 4 303 14
	xor	a4,a3,a4
	andi	a4,a4,0xff
	sb	a4,0(a5)
	.loc 4 302 20 discriminator 2
	lw	a5,-44(s0)
	addi	a5,a5,1
	sw	a5,-44(s0)
.L74:
	.loc 4 302 14 discriminator 1
	lw	a4,-40(s0)
	lw	a5,-44(s0)
	bgtu	a4,a5,.L75
	.loc 4 305 1
	nop
.LBE101:
.LBE100:
	.loc 3 1121 13
	addi	a5,s0,-80
	li	a2,16
	mv	a1,a5
	lw	a0,-96(s0)
	call	memcpy
	.loc 3 1123 19
	lw	a5,-100(s0)
	addi	a5,a5,16
	sw	a5,-100(s0)
	.loc 3 1124 20
	lw	a5,-104(s0)
	addi	a5,a5,16
	sw	a5,-104(s0)
	.loc 3 1125 20
	lw	a5,-92(s0)
	addi	a5,a5,-16
	sw	a5,-92(s0)
.L71:
	.loc 3 1110 23
	lw	a5,-92(s0)
	bne	a5,zero,.L76
	j	.L77
.L82:
	lw	a5,-104(s0)
	sw	a5,-48(s0)
	lw	a5,-100(s0)
	sw	a5,-52(s0)
	lw	a5,-24(s0)
	sw	a5,-56(s0)
	li	a5,16
	sw	a5,-60(s0)
.LBB102:
.LBB103:
	.loc 4 273 12
	sw	zero,-64(s0)
	.loc 4 302 5
	j	.L79
.L80:
	.loc 4 303 17
	lw	a4,-52(s0)
	lw	a5,-64(s0)
	add	a5,a4,a5
	lbu	a3,0(a5)
	.loc 4 303 24
	lw	a4,-56(s0)
	lw	a5,-64(s0)
	add	a5,a4,a5
	lbu	a4,0(a5)
	.loc 4 303 10
	lw	a2,-48(s0)
	lw	a5,-64(s0)
	add	a5,a2,a5
	.loc 4 303 14
	xor	a4,a3,a4
	andi	a4,a4,0xff
	sb	a4,0(a5)
	.loc 4 302 20 discriminator 2
	lw	a5,-64(s0)
	addi	a5,a5,1
	sw	a5,-64(s0)
.L79:
	.loc 4 302 14 discriminator 1
	lw	a4,-60(s0)
	lw	a5,-64(s0)
	bgtu	a4,a5,.L80
	.loc 4 305 1
	nop
.LBE103:
.LBE102:
	.loc 3 1131 19
	lw	a3,-104(s0)
	lw	a2,-104(s0)
	lw	a1,-88(s0)
	lw	a0,-84(s0)
	call	mbedtls_aes_crypt_ecb
	sw	a0,-20(s0)
	.loc 3 1132 16
	lw	a5,-20(s0)
	bne	a5,zero,.L85
	.loc 3 1135 17
	lw	a5,-104(s0)
	sw	a5,-24(s0)
	.loc 3 1137 19
	lw	a5,-100(s0)
	addi	a5,a5,16
	sw	a5,-100(s0)
	.loc 3 1138 20
	lw	a5,-104(s0)
	addi	a5,a5,16
	sw	a5,-104(s0)
	.loc 3 1139 20
	lw	a5,-92(s0)
	addi	a5,a5,-16
	sw	a5,-92(s0)
.L78:
	.loc 3 1128 23
	lw	a5,-92(s0)
	bne	a5,zero,.L82
	.loc 3 1141 9
	li	a2,16
	lw	a1,-24(s0)
	lw	a0,-96(s0)
	call	memcpy
.L77:
	.loc 3 1143 9
	sw	zero,-20(s0)
	j	.L73
.L84:
	.loc 3 1114 17
	nop
	j	.L73
.L85:
	.loc 3 1133 17
	nop
.L73:
	.loc 3 1146 12
	lw	a5,-20(s0)
.L83:
	.loc 3 1147 1
	mv	a0,a5
	lw	ra,108(sp)
	.cfi_restore 1
	lw	s0,104(sp)
	.cfi_restore 8
	.cfi_def_cfa 2, 112
	addi	sp,sp,112
	.cfi_def_cfa_offset 0
	jr	ra
	.cfi_endproc
.LFE25:
	.size	mbedtls_aes_crypt_cbc, .-mbedtls_aes_crypt_cbc
	.section	.text.mbedtls_aes_crypt_cfb128,"ax",@progbits
	.align	1
	.globl	mbedtls_aes_crypt_cfb128
	.type	mbedtls_aes_crypt_cfb128, @function
mbedtls_aes_crypt_cfb128:
.LFB26:
	.loc 3 1299 1
	.cfi_startproc
	addi	sp,sp,-64
	.cfi_def_cfa_offset 64
	sw	ra,60(sp)
	sw	s0,56(sp)
	.cfi_offset 1, -4
	.cfi_offset 8, -8
	addi	s0,sp,64
	.cfi_def_cfa 8, 0
	sw	a0,-36(s0)
	sw	a1,-40(s0)
	sw	a2,-44(s0)
	sw	a3,-48(s0)
	sw	a4,-52(s0)
	sw	a5,-56(s0)
	sw	a6,-60(s0)
	.loc 3 1301 9
	li	a5,-110
	sw	a5,-20(s0)
	.loc 3 1304 8
	lw	a4,-40(s0)
	li	a5,1
	beq	a4,a5,.L87
	.loc 3 1304 19 discriminator 1
	lw	a5,-40(s0)
	beq	a5,zero,.L87
	.loc 3 1305 16
	li	a5,-33
	j	.L88
.L87:
	.loc 3 1308 7
	lw	a5,-48(s0)
	lw	a5,0(a5)
	sw	a5,-24(s0)
	.loc 3 1310 8
	lw	a4,-24(s0)
	li	a5,15
	bleu	a4,a5,.L89
	.loc 3 1311 16
	li	a5,-33
	j	.L88
.L89:
	.loc 3 1314 8
	lw	a5,-40(s0)
	bne	a5,zero,.L96
	.loc 3 1315 15
	j	.L91
.L94:
	.loc 3 1316 16
	lw	a5,-24(s0)
	bne	a5,zero,.L92
	.loc 3 1317 23
	lw	a3,-52(s0)
	lw	a2,-52(s0)
	li	a1,1
	lw	a0,-36(s0)
	call	mbedtls_aes_crypt_ecb
	sw	a0,-20(s0)
	.loc 3 1318 20
	lw	a5,-20(s0)
	bne	a5,zero,.L99
.L92:
	.loc 3 1323 23
	lw	a5,-56(s0)
	addi	a4,a5,1
	sw	a4,-56(s0)
	.loc 3 1323 17
	lbu	a5,0(a5)
	.loc 3 1323 15
	sw	a5,-28(s0)
	.loc 3 1324 44
	lw	a5,-28(s0)
	slli	a4,a5,24
	srai	a4,a4,24
	.loc 3 1324 48
	lw	a3,-52(s0)
	lw	a5,-24(s0)
	add	a5,a3,a5
	lbu	a5,0(a5)
	slli	a5,a5,24
	srai	a5,a5,24
	.loc 3 1324 44
	xor	a5,a4,a5
	slli	a3,a5,24
	srai	a3,a3,24
	.loc 3 1324 20
	lw	a5,-60(s0)
	addi	a4,a5,1
	sw	a4,-60(s0)
	.loc 3 1324 25
	andi	a4,a3,0xff
	.loc 3 1324 23
	sb	a4,0(a5)
	.loc 3 1325 15
	lw	a4,-52(s0)
	lw	a5,-24(s0)
	add	a5,a4,a5
	.loc 3 1325 21
	lw	a4,-28(s0)
	andi	a4,a4,0xff
	.loc 3 1325 19
	sb	a4,0(a5)
	.loc 3 1327 20
	lw	a5,-24(s0)
	addi	a5,a5,1
	.loc 3 1327 15
	andi	a5,a5,15
	sw	a5,-24(s0)
.L91:
	.loc 3 1315 22
	lw	a5,-44(s0)
	addi	a4,a5,-1
	sw	a4,-44(s0)
	.loc 3 1315 16
	bne	a5,zero,.L94
	j	.L95
.L98:
	.loc 3 1331 16
	lw	a5,-24(s0)
	bne	a5,zero,.L97
	.loc 3 1332 23
	lw	a3,-52(s0)
	lw	a2,-52(s0)
	li	a1,1
	lw	a0,-36(s0)
	call	mbedtls_aes_crypt_ecb
	sw	a0,-20(s0)
	.loc 3 1333 20
	lw	a5,-20(s0)
	bne	a5,zero,.L100
.L97:
	.loc 3 1338 52
	lw	a4,-52(s0)
	lw	a5,-24(s0)
	add	a5,a4,a5
	lbu	a3,0(a5)
	.loc 3 1338 64
	lw	a5,-56(s0)
	addi	a4,a5,1
	sw	a4,-56(s0)
	.loc 3 1338 58
	lbu	a4,0(a5)
	.loc 3 1338 28
	lw	a5,-60(s0)
	addi	a2,a5,1
	sw	a2,-60(s0)
	.loc 3 1338 33
	xor	a4,a3,a4
	andi	a4,a4,0xff
	.loc 3 1338 31
	sb	a4,0(a5)
	.loc 3 1338 15
	lw	a3,-52(s0)
	lw	a4,-24(s0)
	add	a4,a3,a4
	.loc 3 1338 21
	lbu	a5,0(a5)
	.loc 3 1338 19
	sb	a5,0(a4)
	.loc 3 1340 20
	lw	a5,-24(s0)
	addi	a5,a5,1
	.loc 3 1340 15
	andi	a5,a5,15
	sw	a5,-24(s0)
.L96:
	.loc 3 1330 22
	lw	a5,-44(s0)
	addi	a4,a5,-1
	sw	a4,-44(s0)
	.loc 3 1330 16
	bne	a5,zero,.L98
.L95:
	.loc 3 1344 13
	lw	a5,-48(s0)
	lw	a4,-24(s0)
	sw	a4,0(a5)
	.loc 3 1345 9
	sw	zero,-20(s0)
	j	.L93
.L99:
	.loc 3 1319 21
	nop
	j	.L93
.L100:
	.loc 3 1334 21
	nop
.L93:
	.loc 3 1348 12
	lw	a5,-20(s0)
.L88:
	.loc 3 1349 1
	mv	a0,a5
	lw	ra,60(sp)
	.cfi_restore 1
	lw	s0,56(sp)
	.cfi_restore 8
	.cfi_def_cfa 2, 64
	addi	sp,sp,64
	.cfi_def_cfa_offset 0
	jr	ra
	.cfi_endproc
.LFE26:
	.size	mbedtls_aes_crypt_cfb128, .-mbedtls_aes_crypt_cfb128
	.section	.text.mbedtls_aes_crypt_cfb8,"ax",@progbits
	.align	1
	.globl	mbedtls_aes_crypt_cfb8
	.type	mbedtls_aes_crypt_cfb8, @function
mbedtls_aes_crypt_cfb8:
.LFB27:
	.loc 3 1360 1
	.cfi_startproc
	addi	sp,sp,-80
	.cfi_def_cfa_offset 80
	sw	ra,76(sp)
	sw	s0,72(sp)
	.cfi_offset 1, -4
	.cfi_offset 8, -8
	addi	s0,sp,80
	.cfi_def_cfa 8, 0
	sw	a0,-52(s0)
	sw	a1,-56(s0)
	sw	a2,-60(s0)
	sw	a3,-64(s0)
	sw	a4,-68(s0)
	sw	a5,-72(s0)
	.loc 3 1361 9
	li	a5,-110
	sw	a5,-20(s0)
	.loc 3 1365 8
	lw	a4,-56(s0)
	li	a5,1
	beq	a4,a5,.L104
	.loc 3 1365 19 discriminator 1
	lw	a5,-56(s0)
	beq	a5,zero,.L104
	.loc 3 1366 16
	li	a5,-33
	j	.L110
.L109:
	.loc 3 1369 9
	addi	a5,s0,-40
	li	a2,16
	lw	a1,-64(s0)
	mv	a0,a5
	call	memcpy
	.loc 3 1370 15
	lw	a3,-64(s0)
	lw	a2,-64(s0)
	li	a1,1
	lw	a0,-52(s0)
	call	mbedtls_aes_crypt_ecb
	sw	a0,-20(s0)
	.loc 3 1371 12
	lw	a5,-20(s0)
	bne	a5,zero,.L111
	.loc 3 1375 12
	lw	a5,-56(s0)
	bne	a5,zero,.L107
	.loc 3 1376 22
	lw	a5,-68(s0)
	lbu	a5,0(a5)
	.loc 3 1376 20
	sb	a5,-24(s0)
.L107:
	.loc 3 1379 44
	lw	a5,-64(s0)
	lbu	a3,0(a5)
	.loc 3 1379 56
	lw	a5,-68(s0)
	addi	a4,a5,1
	sw	a4,-68(s0)
	.loc 3 1379 50
	lbu	a4,0(a5)
	.loc 3 1379 20
	lw	a5,-72(s0)
	addi	a2,a5,1
	sw	a2,-72(s0)
	.loc 3 1379 25
	xor	a4,a3,a4
	andi	a4,a4,0xff
	.loc 3 1379 23
	sb	a4,0(a5)
	.loc 3 1379 11
	lbu	a5,0(a5)
	sb	a5,-21(s0)
	.loc 3 1381 12
	lw	a4,-56(s0)
	li	a5,1
	bne	a4,a5,.L108
	.loc 3 1382 20
	lbu	a5,-21(s0)
	sb	a5,-24(s0)
.L108:
	.loc 3 1385 9
	addi	a5,s0,-40
	addi	a5,a5,1
	li	a2,16
	mv	a1,a5
	lw	a0,-64(s0)
	call	memcpy
.L104:
	.loc 3 1368 18
	lw	a5,-60(s0)
	addi	a4,a5,-1
	sw	a4,-60(s0)
	.loc 3 1368 12
	bne	a5,zero,.L109
	.loc 3 1387 9
	sw	zero,-20(s0)
	j	.L106
.L111:
	.loc 3 1372 13
	nop
.L106:
	.loc 3 1390 12
	lw	a5,-20(s0)
.L110:
	.loc 3 1391 1
	mv	a0,a5
	lw	ra,76(sp)
	.cfi_restore 1
	lw	s0,72(sp)
	.cfi_restore 8
	.cfi_def_cfa 2, 80
	addi	sp,sp,80
	.cfi_def_cfa_offset 0
	jr	ra
	.cfi_endproc
.LFE27:
	.size	mbedtls_aes_crypt_cfb8, .-mbedtls_aes_crypt_cfb8
	.section	.text.mbedtls_aes_crypt_ofb,"ax",@progbits
	.align	1
	.globl	mbedtls_aes_crypt_ofb
	.type	mbedtls_aes_crypt_ofb, @function
mbedtls_aes_crypt_ofb:
.LFB28:
	.loc 3 1404 1
	.cfi_startproc
	addi	sp,sp,-64
	.cfi_def_cfa_offset 64
	sw	ra,60(sp)
	sw	s0,56(sp)
	.cfi_offset 1, -4
	.cfi_offset 8, -8
	addi	s0,sp,64
	.cfi_def_cfa 8, 0
	sw	a0,-36(s0)
	sw	a1,-40(s0)
	sw	a2,-44(s0)
	sw	a3,-48(s0)
	sw	a4,-52(s0)
	sw	a5,-56(s0)
	.loc 3 1405 9
	sw	zero,-20(s0)
	.loc 3 1408 7
	lw	a5,-44(s0)
	lw	a5,0(a5)
	sw	a5,-24(s0)
	.loc 3 1410 8
	lw	a4,-24(s0)
	li	a5,15
	bleu	a4,a5,.L115
	.loc 3 1411 16
	li	a5,-33
	j	.L114
.L118:
	.loc 3 1415 12
	lw	a5,-24(s0)
	bne	a5,zero,.L116
	.loc 3 1416 19
	lw	a3,-48(s0)
	lw	a2,-48(s0)
	li	a1,1
	lw	a0,-36(s0)
	call	mbedtls_aes_crypt_ecb
	sw	a0,-20(s0)
	.loc 3 1417 16
	lw	a5,-20(s0)
	bne	a5,zero,.L119
.L116:
	.loc 3 1421 27
	lw	a5,-52(s0)
	addi	a4,a5,1
	sw	a4,-52(s0)
	.loc 3 1421 21
	lbu	a3,0(a5)
	.loc 3 1421 34
	lw	a4,-48(s0)
	lw	a5,-24(s0)
	add	a5,a4,a5
	lbu	a4,0(a5)
	.loc 3 1421 16
	lw	a5,-56(s0)
	addi	a2,a5,1
	sw	a2,-56(s0)
	.loc 3 1421 19
	xor	a4,a3,a4
	andi	a4,a4,0xff
	sb	a4,0(a5)
	.loc 3 1423 16
	lw	a5,-24(s0)
	addi	a5,a5,1
	.loc 3 1423 11
	andi	a5,a5,15
	sw	a5,-24(s0)
.L115:
	.loc 3 1414 18
	lw	a5,-40(s0)
	addi	a4,a5,-1
	sw	a4,-40(s0)
	.loc 3 1414 12
	bne	a5,zero,.L118
	.loc 3 1426 13
	lw	a5,-44(s0)
	lw	a4,-24(s0)
	sw	a4,0(a5)
	j	.L117
.L119:
	.loc 3 1418 17
	nop
.L117:
	.loc 3 1429 12
	lw	a5,-20(s0)
.L114:
	.loc 3 1430 1
	mv	a0,a5
	lw	ra,60(sp)
	.cfi_restore 1
	lw	s0,56(sp)
	.cfi_restore 8
	.cfi_def_cfa 2, 64
	addi	sp,sp,64
	.cfi_def_cfa_offset 0
	jr	ra
	.cfi_endproc
.LFE28:
	.size	mbedtls_aes_crypt_ofb, .-mbedtls_aes_crypt_ofb
	.section	.text.mbedtls_aes_crypt_ctr,"ax",@progbits
	.align	1
	.globl	mbedtls_aes_crypt_ctr
	.type	mbedtls_aes_crypt_ctr, @function
mbedtls_aes_crypt_ctr:
.LFB29:
	.loc 3 1444 1
	.cfi_startproc
	addi	sp,sp,-96
	.cfi_def_cfa_offset 96
	sw	ra,92(sp)
	sw	s0,88(sp)
	.cfi_offset 1, -4
	.cfi_offset 8, -8
	addi	s0,sp,96
	.cfi_def_cfa 8, 0
	sw	a0,-68(s0)
	sw	a1,-72(s0)
	sw	a2,-76(s0)
	sw	a3,-80(s0)
	sw	a4,-84(s0)
	sw	a5,-88(s0)
	sw	a6,-92(s0)
	.loc 3 1445 9
	li	a5,-110
	sw	a5,-20(s0)
	.loc 3 1447 12
	lw	a5,-76(s0)
	lw	a5,0(a5)
	sw	a5,-24(s0)
	.loc 3 1449 8
	lw	a4,-24(s0)
	li	a5,15
	bleu	a4,a5,.L121
	.loc 3 1450 16
	li	a5,-33
	j	.L122
.L121:
.LBB104:
	.loc 3 1453 17
	sw	zero,-28(s0)
	.loc 3 1453 5
	j	.L123
.L131:
.LBB105:
	.loc 3 1454 16
	li	a5,16
	sw	a5,-32(s0)
	.loc 3 1455 12
	lw	a5,-24(s0)
	bne	a5,zero,.L124
	.loc 3 1456 19
	lw	a3,-84(s0)
	lw	a2,-80(s0)
	li	a1,1
	lw	a0,-68(s0)
	call	mbedtls_aes_crypt_ecb
	sw	a0,-20(s0)
	.loc 3 1457 16
	lw	a5,-20(s0)
	bne	a5,zero,.L132
	.loc 3 1460 13
	lw	a0,-80(s0)
	call	mbedtls_ctr_increment_counter
	j	.L127
.L124:
	.loc 3 1462 15
	lw	a4,-32(s0)
	lw	a5,-24(s0)
	sub	a5,a4,a5
	sw	a5,-32(s0)
.L127:
	.loc 3 1465 25
	lw	a4,-72(s0)
	lw	a5,-28(s0)
	sub	a5,a4,a5
	.loc 3 1465 12
	lw	a4,-32(s0)
	bleu	a4,a5,.L128
	.loc 3 1466 15
	lw	a4,-72(s0)
	lw	a5,-28(s0)
	sub	a5,a4,a5
	sw	a5,-32(s0)
.L128:
	.loc 3 1468 9
	lw	a4,-92(s0)
	lw	a5,-28(s0)
	add	a3,a4,a5
	lw	a4,-88(s0)
	lw	a5,-28(s0)
	add	a4,a4,a5
	.loc 3 1468 44
	lw	a2,-84(s0)
	lw	a5,-24(s0)
	add	a5,a2,a5
	sw	a3,-36(s0)
	sw	a4,-40(s0)
	sw	a5,-44(s0)
	lw	a5,-32(s0)
	sw	a5,-48(s0)
.LBB106:
.LBB107:
	.loc 4 191 12
	sw	zero,-52(s0)
	.loc 4 234 5
	j	.L129
.L130:
	.loc 4 235 17
	lw	a4,-40(s0)
	lw	a5,-52(s0)
	add	a5,a4,a5
	lbu	a3,0(a5)
	.loc 4 235 24
	lw	a4,-44(s0)
	lw	a5,-52(s0)
	add	a5,a4,a5
	lbu	a4,0(a5)
	.loc 4 235 10
	lw	a2,-36(s0)
	lw	a5,-52(s0)
	add	a5,a2,a5
	.loc 4 235 14
	xor	a4,a3,a4
	andi	a4,a4,0xff
	sb	a4,0(a5)
	.loc 4 234 20 discriminator 2
	lw	a5,-52(s0)
	addi	a5,a5,1
	sw	a5,-52(s0)
.L129:
	.loc 4 234 14 discriminator 1
	lw	a4,-48(s0)
	lw	a5,-52(s0)
	bgtu	a4,a5,.L130
	.loc 4 237 1
	nop
.LBE107:
.LBE106:
	.loc 3 1470 16
	sw	zero,-24(s0)
	.loc 3 1471 11
	lw	a4,-28(s0)
	lw	a5,-32(s0)
	add	a5,a4,a5
	sw	a5,-28(s0)
.L123:
.LBE105:
	.loc 3 1453 26 discriminator 1
	lw	a4,-28(s0)
	lw	a5,-72(s0)
	bltu	a4,a5,.L131
.LBE104:
	.loc 3 1475 16
	lw	a5,-76(s0)
	lw	a4,0(a5)
	.loc 3 1475 24
	lw	a5,-72(s0)
	add	a5,a4,a5
	.loc 3 1475 34
	andi	a4,a5,15
	.loc 3 1475 13
	lw	a5,-76(s0)
	sw	a4,0(a5)
	.loc 3 1477 9
	sw	zero,-20(s0)
	j	.L126
.L132:
.LBB109:
.LBB108:
	.loc 3 1458 17
	nop
.L126:
.LBE108:
.LBE109:
	.loc 3 1480 12
	lw	a5,-20(s0)
.L122:
	.loc 3 1481 1
	mv	a0,a5
	lw	ra,92(sp)
	.cfi_restore 1
	lw	s0,88(sp)
	.cfi_restore 8
	.cfi_def_cfa 2, 96
	addi	sp,sp,96
	.cfi_def_cfa_offset 0
	jr	ra
	.cfi_endproc
.LFE29:
	.size	mbedtls_aes_crypt_ctr, .-mbedtls_aes_crypt_ctr
	.section	.rodata.aes_test_ecb_dec,"a"
	.align	2
	.type	aes_test_ecb_dec, @object
	.size	aes_test_ecb_dec, 48
aes_test_ecb_dec:
	.base64	"REFqwtH1PFgzA5F+a+nr4A=="
	.base64	"SOMeniVnGPKSKTGcGfFbpA=="
	.base64	"BYzP/bvLOC0fb1ZYXYpK3g=="
	.section	.rodata.aes_test_ecb_enc,"a"
	.align	2
	.type	aes_test_ecb_enc, @object
	.size	aes_test_ecb_enc, 48
aes_test_ecb_enc:
	.base64	"w0wFLMDajXNFGv5fA74pfw=="
	.base64	"8/Z1KujXgxE48EFWBjGxFA=="
	.base64	"i3nuzJOg7l3/MLTqIWNtpA=="
	.section	.rodata.aes_test_cbc_dec,"a"
	.align	2
	.type	aes_test_cbc_dec, @object
	.size	aes_test_cbc_dec, 48
aes_test_cbc_dec:
	.base64	"+so34LDIU3PfcG5z98mvhg=="
	.base64	"XfZ43Re6TnW2F2jGre98ew=="
	.base64	"SAThgY/mKXUZo+iMVzEEEw=="
	.section	.rodata.aes_test_cbc_enc,"a"
	.align	2
	.type	aes_test_cbc_enc, @object
	.size	aes_test_cbc_enc, 48
aes_test_cbc_enc:
	.base64	"igX8Xgla9ISKCNMo02iOPQ=="
	.base64	"e9lm1TrYwbuF0q366HuxBA=="
	.base64	"/jxTZT4vRbVvzYiyzImP8A=="
	.section	.rodata.aes_test_cfb128_key,"a"
	.align	2
	.type	aes_test_cfb128_key, @object
	.size	aes_test_cfb128_key, 96
aes_test_cfb128_key:
	.base64	"K34VFiiu0qar9xWICc9PPAA="
	.zero	15
	.base64	"jnOw99oOZFLIEPMrgJB55WL46tJSLGt7AA=="
	.zero	7
	.base64	"YD3rEBXKcb4rc67whX13gR81LAc7YQjXLZgQowkU3/Q="
	.section	.rodata.aes_test_cfb128_iv,"a"
	.align	2
	.type	aes_test_cfb128_iv, @object
	.size	aes_test_cfb128_iv, 16
aes_test_cfb128_iv:
	.base64	"AAECAwQFBgcICQoLDA0ODw=="
	.section	.rodata.aes_test_cfb128_pt,"a"
	.align	2
	.type	aes_test_cfb128_pt, @object
	.size	aes_test_cfb128_pt, 64
aes_test_cfb128_pt:
	.base64	"a8G+4i5An5bpPX4Rc5MXKq4tilceA6ycnrdvrEWvjlEwyBxGo1zkEeX7wRkaClLv9p8kRd9PmxetK0F75mw3EA=="
	.section	.rodata.aes_test_cfb128_ct,"a"
	.align	2
	.type	aes_test_cfb128_ct, @object
	.size	aes_test_cfb128_ct, 192
aes_test_cfb128_ct:
	.base64	"Oz/ZLrctrSAzNEn46Dz7SsimRTegs6k/zePNrZ8c5YsmdR9no8uxQLGAjPGHpPTfwEsFNXxdHA7qxMZvn/fy5g=="
	.base64	"zcgNb93xjKs0wlkJyZpBdGfOf3+BFzYhlhorcBcdPXouHood1ZuIscjmD+0e+sTJwF+fnKmDT6BCro+6WEsJ/w=="
	.base64	"3H6Ev9p5Fkt+zYSGmF04YDn/7RQ7KLHIMhE8YzHlQHvfEBMkFeVLkqE+0KgmeuL5daOFdBq5zvggMWI9VbHkcQ=="
	.section	.rodata.aes_test_ofb_key,"a"
	.align	2
	.type	aes_test_ofb_key, @object
	.size	aes_test_ofb_key, 96
aes_test_ofb_key:
	.base64	"K34VFiiu0qar9xWICc9PPAA="
	.zero	15
	.base64	"jnOw99oOZFLIEPMrgJB55WL46tJSLGt7AA=="
	.zero	7
	.base64	"YD3rEBXKcb4rc67whX13gR81LAc7YQjXLZgQowkU3/Q="
	.section	.rodata.aes_test_ofb_iv,"a"
	.align	2
	.type	aes_test_ofb_iv, @object
	.size	aes_test_ofb_iv, 16
aes_test_ofb_iv:
	.base64	"AAECAwQFBgcICQoLDA0ODw=="
	.section	.rodata.aes_test_ofb_pt,"a"
	.align	2
	.type	aes_test_ofb_pt, @object
	.size	aes_test_ofb_pt, 64
aes_test_ofb_pt:
	.base64	"a8G+4i5An5bpPX4Rc5MXKq4tilceA6ycnrdvrEWvjlEwyBxGo1zkEeX7wRkaClLv9p8kRd9PmxetK0F75mw3EA=="
	.section	.rodata.aes_test_ofb_ct,"a"
	.align	2
	.type	aes_test_ofb_ct, @object
	.size	aes_test_ofb_ct, 192
aes_test_ofb_ct:
	.base64	"Oz/ZLrctrSAzNEn46Dz7SneJUI0WkY8D9TxS2sVO2CWXQAUenF/s9kNE96giYO3MMExlKPZZx3hmpRDZwdauXg=="
	.base64	"zcgNb93xjKs0wlkJyZpBdPzCi41MY4N8CegXAMEQBAGNmprqwPZZb1WcbU2vWaXybZ8gCFfKbD6crFJL2azJKg=="
	.base64	"3H6Ev9p5Fkt+zYSGmF04YE/r3GdA0gs6yI9q2CpPsI1xq0eghuhu7fOdHFu6l8QIASYUHWfze+hTj1qL50DkhA=="
	.section	.rodata.aes_test_ctr_key,"a"
	.align	2
	.type	aes_test_ctr_key, @object
	.size	aes_test_ctr_key, 48
aes_test_ctr_key:
	.base64	"rmhS+BIQZ8xL96V2VXfzng=="
	.base64	"fiQGeBf64NdD1s4fMlORYw=="
	.base64	"dpG+A15QIKisbmGFKfmg3A=="
	.section	.rodata.aes_test_ctr_nonce_counter,"a"
	.align	2
	.type	aes_test_ctr_nonce_counter, @object
	.size	aes_test_ctr_nonce_counter, 48
aes_test_ctr_nonce_counter:
	.base64	"AAAAMAAAAAAAAAAAAAAAAQ=="
	.base64	"AGy228BUO1naSNkLAAAAAQ=="
	.base64	"AOABeyd3fz9KF4bwAAAAAQ=="
	.section	.rodata.aes_test_ctr_pt,"a"
	.align	2
	.type	aes_test_ctr_pt, @object
	.size	aes_test_ctr_pt, 144
aes_test_ctr_pt:
	.string	"Single block msg"
	.zero	31
	.base64	"AAECAwQFBgcICQoLDA0ODxAREhMUFRYXGBkaGxwdHh8A"
	.zero	15
	.base64	"AAECAwQFBgcICQoLDA0ODxAREhMUFRYXGBkaGxwdHh8gISIjAA=="
	.zero	11
	.section	.rodata.aes_test_ctr_ct,"a"
	.align	2
	.type	aes_test_ctr_ct, @object
	.size	aes_test_ctr_ct, 144
aes_test_ctr_ct:
	.base64	"5AldT7ens3ktYXWjJhMRuAA="
	.zero	31
	.base64	"UQShBhaKctl5DUHujtrTiOsuHvxG2lfI/OYw35FBvigA"
	.zero	15
	.base64	"wc9IqJ8v/dnPRlLp79ty10VApCvebXg21Zpc6q7zEFMlsgcvAA=="
	.zero	11
	.section	.rodata.aes_test_ctr_len,"a"
	.align	2
	.type	aes_test_ctr_len, @object
	.size	aes_test_ctr_len, 12
aes_test_ctr_len:
	.word	16
	.word	32
	.word	36
	.section	.rodata
	.align	2
.LC0:
	.string	"  AES note: built-in implementation.\n"
	.align	2
.LC1:
	.string	"dec"
	.align	2
.LC2:
	.string	"enc"
	.align	2
.LC3:
	.string	"  AES-ECB-%3u (%s): "
	.align	2
.LC4:
	.string	"skipped\n"
	.align	2
.LC5:
	.string	"passed\n"
	.align	2
.LC6:
	.string	"\n"
	.align	2
.LC7:
	.string	"  AES-CBC-%3u (%s): "
	.align	2
.LC8:
	.string	"  AES-CFB128-%3u (%s): "
	.align	2
.LC9:
	.string	"  AES-OFB-%3u (%s): "
	.align	2
.LC10:
	.string	"  AES-CTR-128 (%s): "
	.align	2
.LC11:
	.string	"failed\n"
	.section	.text.mbedtls_aes_self_test,"ax",@progbits
	.align	1
	.globl	mbedtls_aes_self_test
	.type	mbedtls_aes_self_test, @function
mbedtls_aes_self_test:
.LFB30:
	.loc 3 1818 1
	.cfi_startproc
	addi	sp,sp,-528
	.cfi_def_cfa_offset 528
	sw	ra,524(sp)
	sw	s0,520(sp)
	.cfi_offset 1, -4
	.cfi_offset 8, -8
	addi	s0,sp,528
	.cfi_def_cfa 8, 0
	sw	a0,-516(s0)
	.loc 3 1819 9
	sw	zero,-20(s0)
	.loc 3 1844 5
	addi	a5,s0,-80
	li	a2,32
	li	a1,0
	mv	a0,a5
	call	memset
	.loc 3 1845 5
	addi	a5,s0,-492
	mv	a0,a5
	call	mbedtls_aes_init
	.loc 3 1847 8
	lw	a5,-516(s0)
	beq	a5,zero,.L134
	.loc 3 1875 13
	lui	a5,%hi(.LC0)
	addi	a0,a5,%lo(.LC0)
	call	printf
.L134:
.LBB110:
	.loc 3 1888 16
	sw	zero,-24(s0)
	.loc 3 1888 9
	j	.L135
.L149:
	.loc 3 1889 15
	lw	a5,-24(s0)
	srai	a5,a5,1
	sw	a5,-36(s0)
	.loc 3 1890 27
	lw	a5,-36(s0)
	addi	a5,a5,2
	slli	a5,a5,6
	.loc 3 1890 21
	sw	a5,-48(s0)
	.loc 3 1891 18
	lw	a5,-24(s0)
	andi	a5,a5,1
	sw	a5,-40(s0)
	.loc 3 1893 16
	lw	a5,-516(s0)
	beq	a5,zero,.L136
	.loc 3 1894 17
	lw	a5,-40(s0)
	bne	a5,zero,.L137
	.loc 3 1894 17 is_stmt 0 discriminator 1
	lui	a5,%hi(.LC1)
	addi	a5,a5,%lo(.LC1)
	j	.L138
.L137:
	.loc 3 1894 17 discriminator 2
	lui	a5,%hi(.LC2)
	addi	a5,a5,%lo(.LC2)
.L138:
	.loc 3 1894 17 discriminator 4
	mv	a2,a5
	lw	a1,-48(s0)
	lui	a5,%hi(.LC3)
	addi	a0,a5,%lo(.LC3)
	call	printf
.L136:
	.loc 3 1906 13 is_stmt 1
	addi	a5,s0,-144
	li	a2,16
	li	a1,0
	mv	a0,a5
	call	memset
	.loc 3 1909 16
	lw	a5,-40(s0)
	bne	a5,zero,.L139
	.loc 3 1910 23
	addi	a4,s0,-80
	addi	a5,s0,-492
	lw	a2,-48(s0)
	mv	a1,a4
	mv	a0,a5
	call	mbedtls_aes_setkey_dec
	sw	a0,-20(s0)
	.loc 3 1911 27
	lw	a5,-36(s0)
	slli	a4,a5,4
	lui	a5,%hi(aes_test_ecb_dec)
	addi	a5,a5,%lo(aes_test_ecb_dec)
	add	a5,a4,a5
	sw	a5,-32(s0)
	j	.L140
.L139:
	.loc 3 1915 23
	addi	a4,s0,-80
	addi	a5,s0,-492
	lw	a2,-48(s0)
	mv	a1,a4
	mv	a0,a5
	call	mbedtls_aes_setkey_enc
	sw	a0,-20(s0)
	.loc 3 1916 27
	lw	a5,-36(s0)
	slli	a4,a5,4
	lui	a5,%hi(aes_test_ecb_enc)
	addi	a5,a5,%lo(aes_test_ecb_enc)
	add	a5,a4,a5
	sw	a5,-32(s0)
.L140:
	.loc 3 1924 16
	lw	a4,-20(s0)
	li	a5,-114
	bne	a4,a5,.L141
	.loc 3 1924 32 discriminator 1
	lw	a4,-48(s0)
	li	a5,192
	bne	a4,a5,.L141
	.loc 3 1925 17
	lui	a5,%hi(.LC4)
	addi	a0,a5,%lo(.LC4)
	call	printf
	.loc 3 1926 17
	j	.L142
.L141:
	.loc 3 1927 23
	lw	a5,-20(s0)
	bne	a5,zero,.L207
	.loc 3 1931 20
	sw	zero,-28(s0)
	.loc 3 1931 13
	j	.L145
.L147:
	.loc 3 1932 23
	addi	a3,s0,-144
	addi	a4,s0,-144
	addi	a5,s0,-492
	mv	a2,a4
	lw	a1,-40(s0)
	mv	a0,a5
	call	mbedtls_aes_crypt_ecb
	sw	a0,-20(s0)
	.loc 3 1933 20
	lw	a5,-20(s0)
	bne	a5,zero,.L208
	.loc 3 1931 37 discriminator 2
	lw	a5,-28(s0)
	addi	a5,a5,1
	sw	a5,-28(s0)
.L145:
	.loc 3 1931 27 discriminator 1
	lw	a4,-28(s0)
	li	a5,8192
	addi	a5,a5,1807
	ble	a4,a5,.L147
	.loc 3 1938 17
	addi	a5,s0,-144
	li	a2,16
	lw	a1,-32(s0)
	mv	a0,a5
	call	memcmp
	mv	a5,a0
	.loc 3 1938 16 discriminator 1
	beq	a5,zero,.L148
	.loc 3 1939 21
	li	a5,1
	sw	a5,-20(s0)
	.loc 3 1940 17
	j	.L144
.L148:
	.loc 3 1943 16
	lw	a5,-516(s0)
	beq	a5,zero,.L142
	.loc 3 1944 17
	lui	a5,%hi(.LC5)
	addi	a0,a5,%lo(.LC5)
	call	printf
.L142:
	.loc 3 1888 42 discriminator 2
	lw	a5,-24(s0)
	addi	a5,a5,1
	sw	a5,-24(s0)
.L135:
	.loc 3 1888 35 discriminator 1
	lui	a5,%hi(num_tests.4)
	lw	a5,%lo(num_tests.4)(a5)
	slli	a5,a5,1
	.loc 3 1888 23 discriminator 1
	lw	a4,-24(s0)
	blt	a4,a5,.L149
	.loc 3 1948 12
	lw	a5,-516(s0)
	beq	a5,zero,.L150
	.loc 3 1949 13
	lui	a5,%hi(.LC6)
	addi	a0,a5,%lo(.LC6)
	call	printf
.L150:
.LBE110:
.LBB111:
	.loc 3 1961 16
	sw	zero,-24(s0)
	.loc 3 1961 9
	j	.L151
.L165:
	.loc 3 1962 15
	lw	a5,-24(s0)
	srai	a5,a5,1
	sw	a5,-36(s0)
	.loc 3 1963 27
	lw	a5,-36(s0)
	addi	a5,a5,2
	slli	a5,a5,6
	.loc 3 1963 21
	sw	a5,-48(s0)
	.loc 3 1964 18
	lw	a5,-24(s0)
	andi	a5,a5,1
	sw	a5,-40(s0)
	.loc 3 1966 16
	lw	a5,-516(s0)
	beq	a5,zero,.L152
	.loc 3 1967 17
	lw	a5,-40(s0)
	bne	a5,zero,.L153
	.loc 3 1967 17 is_stmt 0 discriminator 1
	lui	a5,%hi(.LC1)
	addi	a5,a5,%lo(.LC1)
	j	.L154
.L153:
	.loc 3 1967 17 discriminator 2
	lui	a5,%hi(.LC2)
	addi	a5,a5,%lo(.LC2)
.L154:
	.loc 3 1967 17 discriminator 4
	mv	a2,a5
	lw	a1,-48(s0)
	lui	a5,%hi(.LC7)
	addi	a0,a5,%lo(.LC7)
	call	printf
.L152:
	.loc 3 1971 13 is_stmt 1
	addi	a5,s0,-160
	li	a2,16
	li	a1,0
	mv	a0,a5
	call	memset
	.loc 3 1972 13
	addi	a5,s0,-176
	li	a2,16
	li	a1,0
	mv	a0,a5
	call	memset
	.loc 3 1973 13
	addi	a5,s0,-144
	li	a2,16
	li	a1,0
	mv	a0,a5
	call	memset
	.loc 3 1975 16
	lw	a5,-40(s0)
	bne	a5,zero,.L155
	.loc 3 1976 23
	addi	a4,s0,-80
	addi	a5,s0,-492
	lw	a2,-48(s0)
	mv	a1,a4
	mv	a0,a5
	call	mbedtls_aes_setkey_dec
	sw	a0,-20(s0)
	.loc 3 1977 27
	lw	a5,-36(s0)
	slli	a4,a5,4
	lui	a5,%hi(aes_test_cbc_dec)
	addi	a5,a5,%lo(aes_test_cbc_dec)
	add	a5,a4,a5
	sw	a5,-32(s0)
	j	.L156
.L155:
	.loc 3 1979 23
	addi	a4,s0,-80
	addi	a5,s0,-492
	lw	a2,-48(s0)
	mv	a1,a4
	mv	a0,a5
	call	mbedtls_aes_setkey_enc
	sw	a0,-20(s0)
	.loc 3 1980 27
	lw	a5,-36(s0)
	slli	a4,a5,4
	lui	a5,%hi(aes_test_cbc_enc)
	addi	a5,a5,%lo(aes_test_cbc_enc)
	add	a5,a4,a5
	sw	a5,-32(s0)
.L156:
	.loc 3 1988 16
	lw	a4,-20(s0)
	li	a5,-114
	bne	a4,a5,.L157
	.loc 3 1988 32 discriminator 1
	lw	a4,-48(s0)
	li	a5,192
	bne	a4,a5,.L157
	.loc 3 1989 17
	lui	a5,%hi(.LC4)
	addi	a0,a5,%lo(.LC4)
	call	printf
	.loc 3 1990 17
	j	.L158
.L157:
	.loc 3 1991 23
	lw	a5,-20(s0)
	bne	a5,zero,.L209
	.loc 3 1995 20
	sw	zero,-28(s0)
	.loc 3 1995 13
	j	.L160
.L163:
	.loc 3 1996 20
	lw	a4,-40(s0)
	li	a5,1
	bne	a4,a5,.L161
.LBB112:
	.loc 3 1999 21
	addi	a4,s0,-176
	addi	a5,s0,-508
	li	a2,16
	mv	a1,a4
	mv	a0,a5
	call	memcpy
	.loc 3 2000 21
	addi	a4,s0,-144
	addi	a5,s0,-176
	li	a2,16
	mv	a1,a4
	mv	a0,a5
	call	memcpy
	.loc 3 2001 21
	addi	a4,s0,-508
	addi	a5,s0,-144
	li	a2,16
	mv	a1,a4
	mv	a0,a5
	call	memcpy
.L161:
.LBE112:
	.loc 3 2004 23
	addi	a5,s0,-144
	addi	a4,s0,-144
	addi	a3,s0,-160
	addi	a0,s0,-492
	li	a2,16
	lw	a1,-40(s0)
	call	mbedtls_aes_crypt_cbc
	sw	a0,-20(s0)
	.loc 3 2005 20
	lw	a5,-20(s0)
	bne	a5,zero,.L210
	.loc 3 1995 37 discriminator 2
	lw	a5,-28(s0)
	addi	a5,a5,1
	sw	a5,-28(s0)
.L160:
	.loc 3 1995 27 discriminator 1
	lw	a4,-28(s0)
	li	a5,8192
	addi	a5,a5,1807
	ble	a4,a5,.L163
	.loc 3 2011 17
	addi	a5,s0,-144
	li	a2,16
	lw	a1,-32(s0)
	mv	a0,a5
	call	memcmp
	mv	a5,a0
	.loc 3 2011 16 discriminator 1
	beq	a5,zero,.L164
	.loc 3 2012 21
	li	a5,1
	sw	a5,-20(s0)
	.loc 3 2013 17
	j	.L144
.L164:
	.loc 3 2016 16
	lw	a5,-516(s0)
	beq	a5,zero,.L158
	.loc 3 2017 17
	lui	a5,%hi(.LC5)
	addi	a0,a5,%lo(.LC5)
	call	printf
.L158:
	.loc 3 1961 42 discriminator 2
	lw	a5,-24(s0)
	addi	a5,a5,1
	sw	a5,-24(s0)
.L151:
	.loc 3 1961 35 discriminator 1
	lui	a5,%hi(num_tests.3)
	lw	a5,%lo(num_tests.3)(a5)
	slli	a5,a5,1
	.loc 3 1961 23 discriminator 1
	lw	a4,-24(s0)
	blt	a4,a5,.L165
	.loc 3 2021 12
	lw	a5,-516(s0)
	beq	a5,zero,.L166
	.loc 3 2022 13
	lui	a5,%hi(.LC6)
	addi	a0,a5,%lo(.LC6)
	call	printf
.L166:
.LBE111:
.LBB113:
	.loc 3 2035 16
	sw	zero,-24(s0)
	.loc 3 2035 9
	j	.L167
.L178:
	.loc 3 2036 15
	lw	a5,-24(s0)
	srai	a5,a5,1
	sw	a5,-36(s0)
	.loc 3 2037 27
	lw	a5,-36(s0)
	addi	a5,a5,2
	slli	a5,a5,6
	.loc 3 2037 21
	sw	a5,-48(s0)
	.loc 3 2038 18
	lw	a5,-24(s0)
	andi	a5,a5,1
	sw	a5,-40(s0)
	.loc 3 2040 16
	lw	a5,-516(s0)
	beq	a5,zero,.L168
	.loc 3 2041 17
	lw	a5,-40(s0)
	bne	a5,zero,.L169
	.loc 3 2041 17 is_stmt 0 discriminator 1
	lui	a5,%hi(.LC1)
	addi	a5,a5,%lo(.LC1)
	j	.L170
.L169:
	.loc 3 2041 17 discriminator 2
	lui	a5,%hi(.LC2)
	addi	a5,a5,%lo(.LC2)
.L170:
	.loc 3 2041 17 discriminator 4
	mv	a2,a5
	lw	a1,-48(s0)
	lui	a5,%hi(.LC8)
	addi	a0,a5,%lo(.LC8)
	call	printf
.L168:
	.loc 3 2045 13 is_stmt 1
	addi	a4,s0,-160
	li	a2,16
	lui	a5,%hi(aes_test_cfb128_iv)
	addi	a1,a5,%lo(aes_test_cfb128_iv)
	mv	a0,a4
	call	memcpy
	.loc 3 2046 44
	lw	a5,-36(s0)
	slli	a4,a5,5
	lui	a5,%hi(aes_test_cfb128_key)
	addi	a5,a5,%lo(aes_test_cfb128_key)
	add	a4,a4,a5
	.loc 3 2046 57
	lw	a5,-48(s0)
	srli	a3,a5,3
	.loc 3 2046 13
	addi	a5,s0,-80
	mv	a2,a3
	mv	a1,a4
	mv	a0,a5
	call	memcpy
	.loc 3 2048 20
	sw	zero,-180(s0)
	.loc 3 2049 19
	addi	a4,s0,-80
	addi	a5,s0,-492
	lw	a2,-48(s0)
	mv	a1,a4
	mv	a0,a5
	call	mbedtls_aes_setkey_enc
	sw	a0,-20(s0)
	.loc 3 2055 16
	lw	a4,-20(s0)
	li	a5,-114
	bne	a4,a5,.L171
	.loc 3 2055 32 discriminator 1
	lw	a4,-48(s0)
	li	a5,192
	bne	a4,a5,.L171
	.loc 3 2056 17
	lui	a5,%hi(.LC4)
	addi	a0,a5,%lo(.LC4)
	call	printf
	.loc 3 2057 17
	j	.L172
.L171:
	.loc 3 2058 23
	lw	a5,-20(s0)
	bne	a5,zero,.L211
	.loc 3 2062 16
	lw	a5,-40(s0)
	bne	a5,zero,.L174
	.loc 3 2063 47
	lw	a5,-36(s0)
	slli	a4,a5,6
	lui	a5,%hi(aes_test_cfb128_ct)
	addi	a5,a5,%lo(aes_test_cfb128_ct)
	add	a4,a4,a5
	.loc 3 2063 17
	addi	a5,s0,-144
	li	a2,64
	mv	a1,a4
	mv	a0,a5
	call	memcpy
	.loc 3 2064 27
	lui	a5,%hi(aes_test_cfb128_pt)
	addi	a5,a5,%lo(aes_test_cfb128_pt)
	sw	a5,-32(s0)
	j	.L175
.L174:
	.loc 3 2066 17
	addi	a4,s0,-144
	li	a2,64
	lui	a5,%hi(aes_test_cfb128_pt)
	addi	a1,a5,%lo(aes_test_cfb128_pt)
	mv	a0,a4
	call	memcpy
	.loc 3 2067 27
	lw	a5,-36(s0)
	slli	a4,a5,6
	lui	a5,%hi(aes_test_cfb128_ct)
	addi	a5,a5,%lo(aes_test_cfb128_ct)
	add	a5,a4,a5
	sw	a5,-32(s0)
.L175:
	.loc 3 2070 19
	addi	a2,s0,-144
	addi	a5,s0,-144
	addi	a4,s0,-160
	addi	a3,s0,-180
	addi	a0,s0,-492
	mv	a6,a2
	li	a2,64
	lw	a1,-40(s0)
	call	mbedtls_aes_crypt_cfb128
	sw	a0,-20(s0)
	.loc 3 2071 16
	lw	a5,-20(s0)
	bne	a5,zero,.L212
	.loc 3 2075 17
	addi	a5,s0,-144
	li	a2,64
	lw	a1,-32(s0)
	mv	a0,a5
	call	memcmp
	mv	a5,a0
	.loc 3 2075 16 discriminator 1
	beq	a5,zero,.L177
	.loc 3 2076 21
	li	a5,1
	sw	a5,-20(s0)
	.loc 3 2077 17
	j	.L144
.L177:
	.loc 3 2080 16
	lw	a5,-516(s0)
	beq	a5,zero,.L172
	.loc 3 2081 17
	lui	a5,%hi(.LC5)
	addi	a0,a5,%lo(.LC5)
	call	printf
.L172:
	.loc 3 2035 42 discriminator 2
	lw	a5,-24(s0)
	addi	a5,a5,1
	sw	a5,-24(s0)
.L167:
	.loc 3 2035 35 discriminator 1
	lui	a5,%hi(num_tests.2)
	lw	a5,%lo(num_tests.2)(a5)
	slli	a5,a5,1
	.loc 3 2035 23 discriminator 1
	lw	a4,-24(s0)
	blt	a4,a5,.L178
	.loc 3 2085 12
	lw	a5,-516(s0)
	beq	a5,zero,.L179
	.loc 3 2086 13
	lui	a5,%hi(.LC6)
	addi	a0,a5,%lo(.LC6)
	call	printf
.L179:
.LBE113:
.LBB114:
	.loc 3 2099 16
	sw	zero,-24(s0)
	.loc 3 2099 9
	j	.L180
.L191:
	.loc 3 2100 15
	lw	a5,-24(s0)
	srai	a5,a5,1
	sw	a5,-36(s0)
	.loc 3 2101 27
	lw	a5,-36(s0)
	addi	a5,a5,2
	slli	a5,a5,6
	.loc 3 2101 21
	sw	a5,-48(s0)
	.loc 3 2102 18
	lw	a5,-24(s0)
	andi	a5,a5,1
	sw	a5,-40(s0)
	.loc 3 2104 16
	lw	a5,-516(s0)
	beq	a5,zero,.L181
	.loc 3 2105 17
	lw	a5,-40(s0)
	bne	a5,zero,.L182
	.loc 3 2105 17 is_stmt 0 discriminator 1
	lui	a5,%hi(.LC1)
	addi	a5,a5,%lo(.LC1)
	j	.L183
.L182:
	.loc 3 2105 17 discriminator 2
	lui	a5,%hi(.LC2)
	addi	a5,a5,%lo(.LC2)
.L183:
	.loc 3 2105 17 discriminator 4
	mv	a2,a5
	lw	a1,-48(s0)
	lui	a5,%hi(.LC9)
	addi	a0,a5,%lo(.LC9)
	call	printf
.L181:
	.loc 3 2109 13 is_stmt 1
	addi	a4,s0,-160
	li	a2,16
	lui	a5,%hi(aes_test_ofb_iv)
	addi	a1,a5,%lo(aes_test_ofb_iv)
	mv	a0,a4
	call	memcpy
	.loc 3 2110 41
	lw	a5,-36(s0)
	slli	a4,a5,5
	lui	a5,%hi(aes_test_ofb_key)
	addi	a5,a5,%lo(aes_test_ofb_key)
	add	a4,a4,a5
	.loc 3 2110 54
	lw	a5,-48(s0)
	srli	a3,a5,3
	.loc 3 2110 13
	addi	a5,s0,-80
	mv	a2,a3
	mv	a1,a4
	mv	a0,a5
	call	memcpy
	.loc 3 2112 20
	sw	zero,-180(s0)
	.loc 3 2113 19
	addi	a4,s0,-80
	addi	a5,s0,-492
	lw	a2,-48(s0)
	mv	a1,a4
	mv	a0,a5
	call	mbedtls_aes_setkey_enc
	sw	a0,-20(s0)
	.loc 3 2119 16
	lw	a4,-20(s0)
	li	a5,-114
	bne	a4,a5,.L184
	.loc 3 2119 32 discriminator 1
	lw	a4,-48(s0)
	li	a5,192
	bne	a4,a5,.L184
	.loc 3 2120 17
	lui	a5,%hi(.LC4)
	addi	a0,a5,%lo(.LC4)
	call	printf
	.loc 3 2121 17
	j	.L185
.L184:
	.loc 3 2122 23
	lw	a5,-20(s0)
	bne	a5,zero,.L213
	.loc 3 2126 16
	lw	a5,-40(s0)
	bne	a5,zero,.L187
	.loc 3 2127 44
	lw	a5,-36(s0)
	slli	a4,a5,6
	lui	a5,%hi(aes_test_ofb_ct)
	addi	a5,a5,%lo(aes_test_ofb_ct)
	add	a4,a4,a5
	.loc 3 2127 17
	addi	a5,s0,-144
	li	a2,64
	mv	a1,a4
	mv	a0,a5
	call	memcpy
	.loc 3 2128 27
	lui	a5,%hi(aes_test_ofb_pt)
	addi	a5,a5,%lo(aes_test_ofb_pt)
	sw	a5,-32(s0)
	j	.L188
.L187:
	.loc 3 2130 17
	addi	a4,s0,-144
	li	a2,64
	lui	a5,%hi(aes_test_ofb_pt)
	addi	a1,a5,%lo(aes_test_ofb_pt)
	mv	a0,a4
	call	memcpy
	.loc 3 2131 27
	lw	a5,-36(s0)
	slli	a4,a5,6
	lui	a5,%hi(aes_test_ofb_ct)
	addi	a5,a5,%lo(aes_test_ofb_ct)
	add	a5,a4,a5
	sw	a5,-32(s0)
.L188:
	.loc 3 2134 19
	addi	a5,s0,-144
	addi	a4,s0,-144
	addi	a3,s0,-160
	addi	a2,s0,-180
	addi	a0,s0,-492
	li	a1,64
	call	mbedtls_aes_crypt_ofb
	sw	a0,-20(s0)
	.loc 3 2135 16
	lw	a5,-20(s0)
	bne	a5,zero,.L214
	.loc 3 2139 17
	addi	a5,s0,-144
	li	a2,64
	lw	a1,-32(s0)
	mv	a0,a5
	call	memcmp
	mv	a5,a0
	.loc 3 2139 16 discriminator 1
	beq	a5,zero,.L190
	.loc 3 2140 21
	li	a5,1
	sw	a5,-20(s0)
	.loc 3 2141 17
	j	.L144
.L190:
	.loc 3 2144 16
	lw	a5,-516(s0)
	beq	a5,zero,.L185
	.loc 3 2145 17
	lui	a5,%hi(.LC5)
	addi	a0,a5,%lo(.LC5)
	call	printf
.L185:
	.loc 3 2099 42 discriminator 2
	lw	a5,-24(s0)
	addi	a5,a5,1
	sw	a5,-24(s0)
.L180:
	.loc 3 2099 35 discriminator 1
	lui	a5,%hi(num_tests.1)
	lw	a5,%lo(num_tests.1)(a5)
	slli	a5,a5,1
	.loc 3 2099 23 discriminator 1
	lw	a4,-24(s0)
	blt	a4,a5,.L191
	.loc 3 2149 12
	lw	a5,-516(s0)
	beq	a5,zero,.L192
	.loc 3 2150 13
	lui	a5,%hi(.LC6)
	addi	a0,a5,%lo(.LC6)
	call	printf
.L192:
.LBE114:
.LBB115:
	.loc 3 2163 16
	sw	zero,-24(s0)
	.loc 3 2163 9
	j	.L193
.L203:
	.loc 3 2164 15
	lw	a5,-24(s0)
	srai	a5,a5,1
	sw	a5,-36(s0)
	.loc 3 2165 18
	lw	a5,-24(s0)
	andi	a5,a5,1
	sw	a5,-40(s0)
	.loc 3 2167 16
	lw	a5,-516(s0)
	beq	a5,zero,.L194
	.loc 3 2168 17
	lw	a5,-40(s0)
	bne	a5,zero,.L195
	.loc 3 2168 17 is_stmt 0 discriminator 1
	lui	a5,%hi(.LC1)
	addi	a5,a5,%lo(.LC1)
	j	.L196
.L195:
	.loc 3 2168 17 discriminator 2
	lui	a5,%hi(.LC2)
	addi	a5,a5,%lo(.LC2)
.L196:
	.loc 3 2168 17 discriminator 4
	mv	a1,a5
	lui	a5,%hi(.LC10)
	addi	a0,a5,%lo(.LC10)
	call	printf
.L194:
	.loc 3 2172 61 is_stmt 1
	lw	a5,-36(s0)
	slli	a4,a5,4
	lui	a5,%hi(aes_test_ctr_nonce_counter)
	addi	a5,a5,%lo(aes_test_ctr_nonce_counter)
	add	a4,a4,a5
	.loc 3 2172 13
	addi	a5,s0,-196
	li	a2,16
	mv	a1,a4
	mv	a0,a5
	call	memcpy
	.loc 3 2173 41
	lw	a5,-36(s0)
	slli	a4,a5,4
	lui	a5,%hi(aes_test_ctr_key)
	addi	a5,a5,%lo(aes_test_ctr_key)
	add	a4,a4,a5
	.loc 3 2173 13
	addi	a5,s0,-80
	li	a2,16
	mv	a1,a4
	mv	a0,a5
	call	memcpy
	.loc 3 2175 20
	sw	zero,-180(s0)
	.loc 3 2176 24
	addi	a4,s0,-80
	addi	a5,s0,-492
	li	a2,128
	mv	a1,a4
	mv	a0,a5
	call	mbedtls_aes_setkey_enc
	sw	a0,-20(s0)
	.loc 3 2176 16 discriminator 1
	lw	a5,-20(s0)
	bne	a5,zero,.L215
	.loc 3 2180 17
	lui	a5,%hi(aes_test_ctr_len)
	addi	a4,a5,%lo(aes_test_ctr_len)
	lw	a5,-36(s0)
	slli	a5,a5,2
	add	a5,a4,a5
	lw	a5,0(a5)
	sw	a5,-44(s0)
	.loc 3 2182 16
	lw	a5,-40(s0)
	bne	a5,zero,.L198
	.loc 3 2183 44
	lw	a4,-36(s0)
	mv	a5,a4
	slli	a5,a5,1
	add	a5,a5,a4
	slli	a5,a5,4
	lui	a4,%hi(aes_test_ctr_ct)
	addi	a4,a4,%lo(aes_test_ctr_ct)
	add	a4,a5,a4
	.loc 3 2183 17
	lw	a3,-44(s0)
	addi	a5,s0,-144
	mv	a2,a3
	mv	a1,a4
	mv	a0,a5
	call	memcpy
	.loc 3 2184 27
	lw	a4,-36(s0)
	mv	a5,a4
	slli	a5,a5,1
	add	a5,a5,a4
	slli	a5,a5,4
	lui	a4,%hi(aes_test_ctr_pt)
	addi	a4,a4,%lo(aes_test_ctr_pt)
	add	a5,a5,a4
	sw	a5,-32(s0)
	j	.L199
.L198:
	.loc 3 2186 44
	lw	a4,-36(s0)
	mv	a5,a4
	slli	a5,a5,1
	add	a5,a5,a4
	slli	a5,a5,4
	lui	a4,%hi(aes_test_ctr_pt)
	addi	a4,a4,%lo(aes_test_ctr_pt)
	add	a4,a5,a4
	.loc 3 2186 17
	lw	a3,-44(s0)
	addi	a5,s0,-144
	mv	a2,a3
	mv	a1,a4
	mv	a0,a5
	call	memcpy
	.loc 3 2187 27
	lw	a4,-36(s0)
	mv	a5,a4
	slli	a5,a5,1
	add	a5,a5,a4
	slli	a5,a5,4
	lui	a4,%hi(aes_test_ctr_ct)
	addi	a4,a4,%lo(aes_test_ctr_ct)
	add	a5,a5,a4
	sw	a5,-32(s0)
.L199:
	.loc 3 2190 19
	lw	a1,-44(s0)
	addi	a6,s0,-144
	addi	a5,s0,-144
	addi	a4,s0,-212
	addi	a3,s0,-196
	addi	a2,s0,-180
	addi	a0,s0,-492
	call	mbedtls_aes_crypt_ctr
	sw	a0,-20(s0)
	.loc 3 2192 16
	lw	a5,-20(s0)
	bne	a5,zero,.L216
	.loc 3 2196 17
	lw	a4,-44(s0)
	addi	a5,s0,-144
	mv	a2,a4
	lw	a1,-32(s0)
	mv	a0,a5
	call	memcmp
	mv	a5,a0
	.loc 3 2196 16 discriminator 1
	beq	a5,zero,.L201
	.loc 3 2197 21
	li	a5,1
	sw	a5,-20(s0)
	.loc 3 2198 17
	j	.L144
.L201:
	.loc 3 2201 16
	lw	a5,-516(s0)
	beq	a5,zero,.L202
	.loc 3 2202 17
	lui	a5,%hi(.LC5)
	addi	a0,a5,%lo(.LC5)
	call	printf
.L202:
	.loc 3 2163 42 discriminator 2
	lw	a5,-24(s0)
	addi	a5,a5,1
	sw	a5,-24(s0)
.L193:
	.loc 3 2163 35 discriminator 1
	lui	a5,%hi(num_tests.0)
	lw	a5,%lo(num_tests.0)(a5)
	slli	a5,a5,1
	.loc 3 2163 23 discriminator 1
	lw	a4,-24(s0)
	blt	a4,a5,.L203
.LBE115:
	.loc 3 2207 8
	lw	a5,-516(s0)
	beq	a5,zero,.L204
	.loc 3 2208 9
	lui	a5,%hi(.LC6)
	addi	a0,a5,%lo(.LC6)
	call	printf
.L204:
	.loc 3 2280 9
	sw	zero,-20(s0)
	j	.L144
.L207:
.LBB116:
	.loc 3 1928 17
	nop
	j	.L144
.L208:
	.loc 3 1934 21
	nop
	j	.L144
.L209:
.LBE116:
.LBB117:
	.loc 3 1992 17
	nop
	j	.L144
.L210:
	.loc 3 2006 21
	nop
	j	.L144
.L211:
.LBE117:
.LBB118:
	.loc 3 2059 17
	nop
	j	.L144
.L212:
	.loc 3 2072 17
	nop
	j	.L144
.L213:
.LBE118:
.LBB119:
	.loc 3 2123 17
	nop
	j	.L144
.L214:
	.loc 3 2136 17
	nop
	j	.L144
.L215:
.LBE119:
.LBB120:
	.loc 3 2177 17
	nop
	j	.L144
.L216:
	.loc 3 2193 17
	nop
.L144:
.LBE120:
	.loc 3 2283 8
	lw	a5,-20(s0)
	beq	a5,zero,.L205
	.loc 3 2283 18 discriminator 1
	lw	a5,-516(s0)
	beq	a5,zero,.L205
	.loc 3 2284 9
	lui	a5,%hi(.LC11)
	addi	a0,a5,%lo(.LC11)
	call	printf
.L205:
	.loc 3 2287 5
	addi	a5,s0,-492
	mv	a0,a5
	call	mbedtls_aes_free
	.loc 3 2289 12
	lw	a5,-20(s0)
	.loc 3 2290 1
	mv	a0,a5
	lw	ra,524(sp)
	.cfi_restore 1
	lw	s0,520(sp)
	.cfi_restore 8
	.cfi_def_cfa 2, 528
	addi	sp,sp,528
	.cfi_def_cfa_offset 0
	jr	ra
	.cfi_endproc
.LFE30:
	.size	mbedtls_aes_self_test, .-mbedtls_aes_self_test
	.section	.srodata.num_tests.4,"a"
	.align	2
	.type	num_tests.4, @object
	.size	num_tests.4, 4
num_tests.4:
	.word	3
	.section	.srodata.num_tests.3,"a"
	.align	2
	.type	num_tests.3, @object
	.size	num_tests.3, 4
num_tests.3:
	.word	3
	.section	.srodata.num_tests.2,"a"
	.align	2
	.type	num_tests.2, @object
	.size	num_tests.2, 4
num_tests.2:
	.word	3
	.section	.srodata.num_tests.1,"a"
	.align	2
	.type	num_tests.1, @object
	.size	num_tests.1, 4
num_tests.1:
	.word	3
	.section	.srodata.num_tests.0,"a"
	.align	2
	.type	num_tests.0, @object
	.size	num_tests.0, 4
num_tests.0:
	.word	3
	.text
.Letext0:
	.file 5 "/home/chandu/sdk/bl602_iot_sdk/toolchain/compiler/lib/gcc/riscv32-unknown-elf/15.1.0/include/stddef.h"
	.file 6 "/home/chandu/sdk/bl602_iot_sdk/toolchain/compiler/lib/gcc/riscv32-unknown-elf/15.1.0/include/stdint-gcc.h"
	.file 7 "/home/chandu/sdk/bl602_iot_sdk/components/security/mbedtls-bl602/include/mbedtls/aes.h"
	.file 8 "/home/chandu/sdk/bl602_iot_sdk/toolchain/compiler/riscv32-unknown-elf/include/string.h"
	.file 9 "/home/chandu/sdk/bl602_iot_sdk/toolchain/compiler/riscv32-unknown-elf/include/stdio.h"
	.file 10 "/home/chandu/sdk/bl602_iot_sdk/components/security/mbedtls-bl602/include/mbedtls/platform_util.h"
	.section	.note.GNU-stack,"",@progbits
