	.file	"asn1write.c"
	.option nopic
	.attribute arch, "rv32i2p1_m2p0_f2p2_c2p0_zicsr2p0_zmmul1p0_zca1p0_zcf1p0"
	.attribute unaligned_access, 0
	.attribute stack_align, 16
	.text
.Ltext0:
	.cfi_sections	.debug_frame
	.file 0 "/home/chandu/sdk/bl602_iot_sdk/customer_app/suas_app_pqkem_gateway/build_out/mbedtls-bl602" "/home/chandu/sdk/bl602_iot_sdk/components/security/mbedtls-bl602/library/asn1write.c"
	.section	.text.mbedtls_asn1_write_len,"ax",@progbits
	.align	1
	.globl	mbedtls_asn1_write_len
	.type	mbedtls_asn1_write_len, @function
mbedtls_asn1_write_len:
.LFB15:
	.file 1 "/home/chandu/sdk/bl602_iot_sdk/components/security/mbedtls-bl602/library/asn1write.c"
	.loc 1 25 1
	.cfi_startproc
	addi	sp,sp,-48
	.cfi_def_cfa_offset 48
	sw	ra,44(sp)
	sw	s0,40(sp)
	.cfi_offset 1, -4
	.cfi_offset 8, -8
	addi	s0,sp,48
	.cfi_def_cfa 8, 0
	sw	a0,-36(s0)
	sw	a1,-40(s0)
	sw	a2,-44(s0)
	.loc 1 32 9
	li	a5,1
	sw	a5,-20(s0)
	.loc 1 34 8
	lw	a4,-44(s0)
	li	a5,127
	bleu	a4,a5,.L2
.LBB2:
	.loc 1 35 21
	lw	a5,-44(s0)
	sw	a5,-24(s0)
	.loc 1 35 9
	j	.L3
.L4:
	.loc 1 36 21
	lw	a5,-20(s0)
	addi	a5,a5,1
	sw	a5,-20(s0)
	.loc 1 35 40 discriminator 3
	lw	a5,-24(s0)
	srli	a5,a5,8
	sw	a5,-24(s0)
.L3:
	.loc 1 35 32 discriminator 1
	lw	a5,-24(s0)
	bne	a5,zero,.L4
.L2:
.LBE2:
	.loc 1 40 21
	lw	a5,-36(s0)
	lw	a4,0(a5)
	.loc 1 40 24
	lw	a5,-40(s0)
	sub	a5,a4,a5
	.loc 1 40 8
	lw	a4,-20(s0)
	ble	a4,a5,.L5
	.loc 1 41 16
	li	a5,-108
	j	.L6
.L5:
	.loc 1 45 13
	lw	a5,-36(s0)
	lw	a5,0(a5)
	.loc 1 45 10
	addi	a4,a5,-1
	.loc 1 45 17
	lw	a5,-36(s0)
	sw	a4,0(a5)
	.loc 1 45 13
	lw	a5,-36(s0)
	lw	a5,0(a5)
	.loc 1 45 20
	lw	a4,-44(s0)
	andi	a4,a4,0xff
	.loc 1 45 17
	sb	a4,0(a5)
	.loc 1 46 13
	lw	a5,-44(s0)
	srli	a5,a5,8
	sw	a5,-44(s0)
	.loc 1 47 14 discriminator 1
	lw	a5,-44(s0)
	bne	a5,zero,.L5
	.loc 1 49 8
	lw	a4,-20(s0)
	li	a5,1
	ble	a4,a5,.L7
	.loc 1 50 19
	lw	a5,-20(s0)
	andi	a4,a5,0xff
	.loc 1 50 13
	lw	a5,-36(s0)
	lw	a5,0(a5)
	.loc 1 50 10
	addi	a3,a5,-1
	.loc 1 50 17
	lw	a5,-36(s0)
	sw	a3,0(a5)
	.loc 1 50 13
	lw	a5,-36(s0)
	lw	a5,0(a5)
	.loc 1 50 19
	addi	a4,a4,127
	andi	a4,a4,0xff
	.loc 1 50 17
	sb	a4,0(a5)
.L7:
	.loc 1 53 12
	lw	a5,-20(s0)
.L6:
	.loc 1 54 1
	mv	a0,a5
	lw	ra,44(sp)
	.cfi_restore 1
	lw	s0,40(sp)
	.cfi_restore 8
	.cfi_def_cfa 2, 48
	addi	sp,sp,48
	.cfi_def_cfa_offset 0
	jr	ra
	.cfi_endproc
.LFE15:
	.size	mbedtls_asn1_write_len, .-mbedtls_asn1_write_len
	.section	.text.mbedtls_asn1_write_tag,"ax",@progbits
	.align	1
	.globl	mbedtls_asn1_write_tag
	.type	mbedtls_asn1_write_tag, @function
mbedtls_asn1_write_tag:
.LFB16:
	.loc 1 57 1
	.cfi_startproc
	addi	sp,sp,-32
	.cfi_def_cfa_offset 32
	sw	ra,28(sp)
	sw	s0,24(sp)
	.cfi_offset 1, -4
	.cfi_offset 8, -8
	addi	s0,sp,32
	.cfi_def_cfa 8, 0
	sw	a0,-20(s0)
	sw	a1,-24(s0)
	mv	a5,a2
	sb	a5,-25(s0)
	.loc 1 58 9
	lw	a5,-20(s0)
	lw	a4,0(a5)
	.loc 1 58 12
	lw	a5,-24(s0)
	sub	a5,a4,a5
	.loc 1 58 8
	bgt	a5,zero,.L9
	.loc 1 59 16
	li	a5,-108
	j	.L10
.L9:
	.loc 1 62 9
	lw	a5,-20(s0)
	lw	a5,0(a5)
	.loc 1 62 6
	addi	a4,a5,-1
	.loc 1 62 13
	lw	a5,-20(s0)
	sw	a4,0(a5)
	.loc 1 62 9
	lw	a5,-20(s0)
	lw	a5,0(a5)
	.loc 1 62 13
	lbu	a4,-25(s0)
	sb	a4,0(a5)
	.loc 1 64 12
	li	a5,1
.L10:
	.loc 1 65 1
	mv	a0,a5
	lw	ra,28(sp)
	.cfi_restore 1
	lw	s0,24(sp)
	.cfi_restore 8
	.cfi_def_cfa 2, 32
	addi	sp,sp,32
	.cfi_def_cfa_offset 0
	jr	ra
	.cfi_endproc
.LFE16:
	.size	mbedtls_asn1_write_tag, .-mbedtls_asn1_write_tag
	.section	.text.mbedtls_asn1_write_len_and_tag,"ax",@progbits
	.align	1
	.type	mbedtls_asn1_write_len_and_tag, @function
mbedtls_asn1_write_len_and_tag:
.LFB17:
	.loc 1 73 1
	.cfi_startproc
	addi	sp,sp,-48
	.cfi_def_cfa_offset 48
	sw	ra,44(sp)
	sw	s0,40(sp)
	.cfi_offset 1, -4
	.cfi_offset 8, -8
	addi	s0,sp,48
	.cfi_def_cfa 8, 0
	sw	a0,-36(s0)
	sw	a1,-40(s0)
	sw	a2,-44(s0)
	mv	a5,a3
	sb	a5,-45(s0)
	.loc 1 74 9
	li	a5,-110
	sw	a5,-20(s0)
	.loc 1 76 22
	lw	a2,-44(s0)
	lw	a1,-40(s0)
	lw	a0,-36(s0)
	call	mbedtls_asn1_write_len
	sw	a0,-20(s0)
	.loc 1 76 13 discriminator 1
	lw	a5,-20(s0)
	bge	a5,zero,.L12
	.loc 1 76 74 discriminator 2
	lw	a5,-20(s0)
	.loc 1 76 74 is_stmt 0
	j	.L13
.L12:
	.loc 1 76 90 is_stmt 1 discriminator 3
	lw	a5,-20(s0)
	lw	a4,-44(s0)
	add	a5,a4,a5
	sw	a5,-44(s0)
	.loc 1 77 22
	lbu	a5,-45(s0)
	mv	a2,a5
	lw	a1,-40(s0)
	lw	a0,-36(s0)
	call	mbedtls_asn1_write_tag
	sw	a0,-20(s0)
	.loc 1 77 13 discriminator 1
	lw	a5,-20(s0)
	bge	a5,zero,.L14
	.loc 1 77 74 discriminator 2
	lw	a5,-20(s0)
	.loc 1 77 74 is_stmt 0
	j	.L13
.L14:
	.loc 1 77 90 is_stmt 1 discriminator 3
	lw	a5,-20(s0)
	lw	a4,-44(s0)
	add	a5,a4,a5
	sw	a5,-44(s0)
	.loc 1 79 12
	lw	a5,-44(s0)
.L13:
	.loc 1 80 1
	mv	a0,a5
	lw	ra,44(sp)
	.cfi_restore 1
	lw	s0,40(sp)
	.cfi_restore 8
	.cfi_def_cfa 2, 48
	addi	sp,sp,48
	.cfi_def_cfa_offset 0
	jr	ra
	.cfi_endproc
.LFE17:
	.size	mbedtls_asn1_write_len_and_tag, .-mbedtls_asn1_write_len_and_tag
	.section	.text.mbedtls_asn1_write_raw_buffer,"ax",@progbits
	.align	1
	.globl	mbedtls_asn1_write_raw_buffer
	.type	mbedtls_asn1_write_raw_buffer, @function
mbedtls_asn1_write_raw_buffer:
.LFB18:
	.loc 1 84 1
	.cfi_startproc
	addi	sp,sp,-48
	.cfi_def_cfa_offset 48
	sw	ra,44(sp)
	sw	s0,40(sp)
	.cfi_offset 1, -4
	.cfi_offset 8, -8
	addi	s0,sp,48
	.cfi_def_cfa 8, 0
	sw	a0,-36(s0)
	sw	a1,-40(s0)
	sw	a2,-44(s0)
	sw	a3,-48(s0)
	.loc 1 85 12
	sw	zero,-20(s0)
	.loc 1 87 9
	lw	a5,-36(s0)
	lw	a5,0(a5)
	.loc 1 87 8
	lw	a4,-40(s0)
	bgtu	a4,a5,.L16
	.loc 1 87 33 discriminator 1
	lw	a5,-36(s0)
	lw	a4,0(a5)
	.loc 1 87 36 discriminator 1
	lw	a5,-40(s0)
	sub	a5,a4,a5
	.loc 1 87 23 discriminator 1
	mv	a4,a5
	.loc 1 87 20 discriminator 1
	lw	a5,-48(s0)
	bleu	a5,a4,.L17
.L16:
	.loc 1 88 16
	li	a5,-108
	j	.L18
.L17:
	.loc 1 91 9
	lw	a5,-48(s0)
	sw	a5,-20(s0)
	.loc 1 92 6
	lw	a5,-36(s0)
	lw	a4,0(a5)
	.loc 1 92 10
	lw	a5,-20(s0)
	neg	a5,a5
	add	a4,a4,a5
	lw	a5,-36(s0)
	sw	a4,0(a5)
	.loc 1 93 8
	lw	a5,-20(s0)
	beq	a5,zero,.L19
	.loc 1 94 9
	lw	a5,-36(s0)
	lw	a5,0(a5)
	lw	a2,-20(s0)
	lw	a1,-44(s0)
	mv	a0,a5
	call	memcpy
.L19:
	.loc 1 97 12
	lw	a5,-20(s0)
.L18:
	.loc 1 98 1
	mv	a0,a5
	lw	ra,44(sp)
	.cfi_restore 1
	lw	s0,40(sp)
	.cfi_restore 8
	.cfi_def_cfa 2, 48
	addi	sp,sp,48
	.cfi_def_cfa_offset 0
	jr	ra
	.cfi_endproc
.LFE18:
	.size	mbedtls_asn1_write_raw_buffer, .-mbedtls_asn1_write_raw_buffer
	.section	.text.mbedtls_asn1_write_mpi,"ax",@progbits
	.align	1
	.globl	mbedtls_asn1_write_mpi
	.type	mbedtls_asn1_write_mpi, @function
mbedtls_asn1_write_mpi:
.LFB19:
	.loc 1 102 1
	.cfi_startproc
	addi	sp,sp,-48
	.cfi_def_cfa_offset 48
	sw	ra,44(sp)
	sw	s0,40(sp)
	.cfi_offset 1, -4
	.cfi_offset 8, -8
	addi	s0,sp,48
	.cfi_def_cfa 8, 0
	sw	a0,-36(s0)
	sw	a1,-40(s0)
	sw	a2,-44(s0)
	.loc 1 103 9
	li	a5,-110
	sw	a5,-20(s0)
	.loc 1 104 12
	sw	zero,-24(s0)
	.loc 1 108 11
	lw	a0,-44(s0)
	call	mbedtls_mpi_size
	sw	a0,-24(s0)
	.loc 1 112 8
	lw	a5,-24(s0)
	bne	a5,zero,.L21
	.loc 1 113 13
	li	a5,1
	sw	a5,-24(s0)
.L21:
	.loc 1 116 9
	lw	a5,-36(s0)
	lw	a5,0(a5)
	.loc 1 116 8
	lw	a4,-40(s0)
	bgtu	a4,a5,.L22
	.loc 1 116 33 discriminator 1
	lw	a5,-36(s0)
	lw	a4,0(a5)
	.loc 1 116 36 discriminator 1
	lw	a5,-40(s0)
	sub	a5,a4,a5
	.loc 1 116 23 discriminator 1
	mv	a4,a5
	.loc 1 116 20 discriminator 1
	lw	a5,-24(s0)
	bleu	a5,a4,.L23
.L22:
	.loc 1 117 16
	li	a5,-108
	j	.L24
.L23:
	.loc 1 120 6
	lw	a5,-36(s0)
	lw	a4,0(a5)
	.loc 1 120 10
	lw	a5,-24(s0)
	neg	a5,a5
	add	a4,a4,a5
	lw	a5,-36(s0)
	sw	a4,0(a5)
	.loc 1 121 22
	lw	a5,-36(s0)
	lw	a5,0(a5)
	lw	a2,-24(s0)
	mv	a1,a5
	lw	a0,-44(s0)
	call	mbedtls_mpi_write_binary
	sw	a0,-20(s0)
	.loc 1 121 13 discriminator 1
	lw	a5,-20(s0)
	bne	a5,zero,.L29
	.loc 1 126 10
	lw	a5,-44(s0)
	lh	a4,4(a5)
	.loc 1 126 8
	li	a5,1
	bne	a4,a5,.L27
	.loc 1 126 23 discriminator 1
	lw	a5,-36(s0)
	lw	a5,0(a5)
	.loc 1 126 22 discriminator 1
	lbu	a5,0(a5)
	.loc 1 126 19 discriminator 1
	slli	a5,a5,24
	srai	a5,a5,24
	bge	a5,zero,.L27
	.loc 1 127 13
	lw	a5,-36(s0)
	lw	a4,0(a5)
	.loc 1 127 16
	lw	a5,-40(s0)
	sub	a5,a4,a5
	.loc 1 127 12
	bgt	a5,zero,.L28
	.loc 1 128 20
	li	a5,-108
	j	.L24
.L28:
	.loc 1 131 13
	lw	a5,-36(s0)
	lw	a5,0(a5)
	.loc 1 131 10
	addi	a4,a5,-1
	.loc 1 131 17
	lw	a5,-36(s0)
	sw	a4,0(a5)
	.loc 1 131 13
	lw	a5,-36(s0)
	lw	a5,0(a5)
	.loc 1 131 17
	sb	zero,0(a5)
	.loc 1 132 13
	lw	a5,-24(s0)
	addi	a5,a5,1
	sw	a5,-24(s0)
.L27:
	.loc 1 135 11
	li	a3,2
	lw	a2,-24(s0)
	lw	a1,-40(s0)
	lw	a0,-36(s0)
	call	mbedtls_asn1_write_len_and_tag
	sw	a0,-20(s0)
	j	.L26
.L29:
	.loc 1 121 67
	nop
.L26:
	.loc 1 138 12
	lw	a5,-20(s0)
.L24:
	.loc 1 139 1
	mv	a0,a5
	lw	ra,44(sp)
	.cfi_restore 1
	lw	s0,40(sp)
	.cfi_restore 8
	.cfi_def_cfa 2, 48
	addi	sp,sp,48
	.cfi_def_cfa_offset 0
	jr	ra
	.cfi_endproc
.LFE19:
	.size	mbedtls_asn1_write_mpi, .-mbedtls_asn1_write_mpi
	.section	.text.mbedtls_asn1_write_null,"ax",@progbits
	.align	1
	.globl	mbedtls_asn1_write_null
	.type	mbedtls_asn1_write_null, @function
mbedtls_asn1_write_null:
.LFB20:
	.loc 1 143 1
	.cfi_startproc
	addi	sp,sp,-32
	.cfi_def_cfa_offset 32
	sw	ra,28(sp)
	sw	s0,24(sp)
	.cfi_offset 1, -4
	.cfi_offset 8, -8
	addi	s0,sp,32
	.cfi_def_cfa 8, 0
	sw	a0,-20(s0)
	sw	a1,-24(s0)
	.loc 1 146 12
	li	a3,5
	li	a2,0
	lw	a1,-24(s0)
	lw	a0,-20(s0)
	call	mbedtls_asn1_write_len_and_tag
	mv	a5,a0
	.loc 1 147 1
	mv	a0,a5
	lw	ra,28(sp)
	.cfi_restore 1
	lw	s0,24(sp)
	.cfi_restore 8
	.cfi_def_cfa 2, 32
	addi	sp,sp,32
	.cfi_def_cfa_offset 0
	jr	ra
	.cfi_endproc
.LFE20:
	.size	mbedtls_asn1_write_null, .-mbedtls_asn1_write_null
	.section	.text.mbedtls_asn1_write_oid,"ax",@progbits
	.align	1
	.globl	mbedtls_asn1_write_oid
	.type	mbedtls_asn1_write_oid, @function
mbedtls_asn1_write_oid:
.LFB21:
	.loc 1 151 1
	.cfi_startproc
	addi	sp,sp,-48
	.cfi_def_cfa_offset 48
	sw	ra,44(sp)
	sw	s0,40(sp)
	.cfi_offset 1, -4
	.cfi_offset 8, -8
	addi	s0,sp,48
	.cfi_def_cfa 8, 0
	sw	a0,-36(s0)
	sw	a1,-40(s0)
	sw	a2,-44(s0)
	sw	a3,-48(s0)
	.loc 1 152 9
	li	a5,-110
	sw	a5,-20(s0)
	.loc 1 153 12
	sw	zero,-24(s0)
	.loc 1 155 22
	lw	a3,-48(s0)
	lw	a2,-44(s0)
	lw	a1,-40(s0)
	lw	a0,-36(s0)
	call	mbedtls_asn1_write_raw_buffer
	sw	a0,-20(s0)
	.loc 1 155 13 discriminator 1
	lw	a5,-20(s0)
	bge	a5,zero,.L33
	.loc 1 155 114 discriminator 2
	lw	a5,-20(s0)
	.loc 1 155 114 is_stmt 0
	j	.L34
.L33:
	.loc 1 155 130 is_stmt 1 discriminator 3
	lw	a5,-20(s0)
	lw	a4,-24(s0)
	add	a5,a4,a5
	sw	a5,-24(s0)
	.loc 1 157 12
	li	a3,6
	lw	a2,-24(s0)
	lw	a1,-40(s0)
	lw	a0,-36(s0)
	call	mbedtls_asn1_write_len_and_tag
	mv	a5,a0
.L34:
	.loc 1 158 1
	mv	a0,a5
	lw	ra,44(sp)
	.cfi_restore 1
	lw	s0,40(sp)
	.cfi_restore 8
	.cfi_def_cfa 2, 48
	addi	sp,sp,48
	.cfi_def_cfa_offset 0
	jr	ra
	.cfi_endproc
.LFE21:
	.size	mbedtls_asn1_write_oid, .-mbedtls_asn1_write_oid
	.section	.text.mbedtls_asn1_write_algorithm_identifier,"ax",@progbits
	.align	1
	.globl	mbedtls_asn1_write_algorithm_identifier
	.type	mbedtls_asn1_write_algorithm_identifier, @function
mbedtls_asn1_write_algorithm_identifier:
.LFB22:
	.loc 1 163 1
	.cfi_startproc
	addi	sp,sp,-48
	.cfi_def_cfa_offset 48
	sw	ra,44(sp)
	sw	s0,40(sp)
	.cfi_offset 1, -4
	.cfi_offset 8, -8
	addi	s0,sp,48
	.cfi_def_cfa 8, 0
	sw	a0,-20(s0)
	sw	a1,-24(s0)
	sw	a2,-28(s0)
	sw	a3,-32(s0)
	sw	a4,-36(s0)
	.loc 1 164 12
	li	a5,1
	lw	a4,-36(s0)
	lw	a3,-32(s0)
	lw	a2,-28(s0)
	lw	a1,-24(s0)
	lw	a0,-20(s0)
	call	mbedtls_asn1_write_algorithm_identifier_ext
	mv	a5,a0
	.loc 1 165 1
	mv	a0,a5
	lw	ra,44(sp)
	.cfi_restore 1
	lw	s0,40(sp)
	.cfi_restore 8
	.cfi_def_cfa 2, 48
	addi	sp,sp,48
	.cfi_def_cfa_offset 0
	jr	ra
	.cfi_endproc
.LFE22:
	.size	mbedtls_asn1_write_algorithm_identifier, .-mbedtls_asn1_write_algorithm_identifier
	.section	.text.mbedtls_asn1_write_algorithm_identifier_ext,"ax",@progbits
	.align	1
	.globl	mbedtls_asn1_write_algorithm_identifier_ext
	.type	mbedtls_asn1_write_algorithm_identifier_ext, @function
mbedtls_asn1_write_algorithm_identifier_ext:
.LFB23:
	.loc 1 170 1
	.cfi_startproc
	addi	sp,sp,-64
	.cfi_def_cfa_offset 64
	sw	ra,60(sp)
	sw	s0,56(sp)
	.cfi_offset 1, -4
	.cfi_offset 8, -8
	addi	s0,sp,64
	.cfi_def_cfa 8, 0
	sw	a0,-36(s0)
	sw	a1,-40(s0)
	sw	a2,-44(s0)
	sw	a3,-48(s0)
	sw	a4,-52(s0)
	sw	a5,-56(s0)
	.loc 1 171 9
	li	a5,-110
	sw	a5,-24(s0)
	.loc 1 172 12
	sw	zero,-20(s0)
	.loc 1 174 8
	lw	a5,-56(s0)
	beq	a5,zero,.L38
	.loc 1 175 12
	lw	a5,-52(s0)
	bne	a5,zero,.L39
	.loc 1 176 30
	lw	a1,-40(s0)
	lw	a0,-36(s0)
	call	mbedtls_asn1_write_null
	sw	a0,-24(s0)
	.loc 1 176 21 discriminator 1
	lw	a5,-24(s0)
	bge	a5,zero,.L40
	.loc 1 176 78 discriminator 2
	lw	a5,-24(s0)
	.loc 1 176 78 is_stmt 0
	j	.L41
.L40:
	.loc 1 176 94 is_stmt 1 discriminator 3
	lw	a5,-24(s0)
	lw	a4,-20(s0)
	add	a5,a4,a5
	sw	a5,-20(s0)
	j	.L38
.L39:
	.loc 1 178 17
	lw	a4,-20(s0)
	lw	a5,-52(s0)
	add	a5,a4,a5
	sw	a5,-20(s0)
.L38:
	.loc 1 182 22
	lw	a3,-48(s0)
	lw	a2,-44(s0)
	lw	a1,-40(s0)
	lw	a0,-36(s0)
	call	mbedtls_asn1_write_oid
	sw	a0,-24(s0)
	.loc 1 182 13 discriminator 1
	lw	a5,-24(s0)
	bge	a5,zero,.L42
	.loc 1 182 83 discriminator 2
	lw	a5,-24(s0)
	.loc 1 182 83 is_stmt 0
	j	.L41
.L42:
	.loc 1 182 99 is_stmt 1 discriminator 3
	lw	a5,-24(s0)
	lw	a4,-20(s0)
	add	a5,a4,a5
	sw	a5,-20(s0)
	.loc 1 184 12
	li	a3,48
	lw	a2,-20(s0)
	lw	a1,-40(s0)
	lw	a0,-36(s0)
	call	mbedtls_asn1_write_len_and_tag
	mv	a5,a0
.L41:
	.loc 1 186 1
	mv	a0,a5
	lw	ra,60(sp)
	.cfi_restore 1
	lw	s0,56(sp)
	.cfi_restore 8
	.cfi_def_cfa 2, 64
	addi	sp,sp,64
	.cfi_def_cfa_offset 0
	jr	ra
	.cfi_endproc
.LFE23:
	.size	mbedtls_asn1_write_algorithm_identifier_ext, .-mbedtls_asn1_write_algorithm_identifier_ext
	.section	.text.mbedtls_asn1_write_bool,"ax",@progbits
	.align	1
	.globl	mbedtls_asn1_write_bool
	.type	mbedtls_asn1_write_bool, @function
mbedtls_asn1_write_bool:
.LFB24:
	.loc 1 189 1
	.cfi_startproc
	addi	sp,sp,-48
	.cfi_def_cfa_offset 48
	sw	ra,44(sp)
	sw	s0,40(sp)
	.cfi_offset 1, -4
	.cfi_offset 8, -8
	addi	s0,sp,48
	.cfi_def_cfa 8, 0
	sw	a0,-36(s0)
	sw	a1,-40(s0)
	sw	a2,-44(s0)
	.loc 1 190 12
	sw	zero,-20(s0)
	.loc 1 192 9
	lw	a5,-36(s0)
	lw	a4,0(a5)
	.loc 1 192 12
	lw	a5,-40(s0)
	sub	a5,a4,a5
	.loc 1 192 8
	bgt	a5,zero,.L44
	.loc 1 193 16
	li	a5,-108
	j	.L45
.L44:
	.loc 1 196 13
	lw	a5,-44(s0)
	beq	a5,zero,.L46
	.loc 1 196 13 is_stmt 0 discriminator 1
	li	a5,255
	j	.L47
.L46:
	.loc 1 196 13 discriminator 2
	li	a5,0
.L47:
	.loc 1 196 9 is_stmt 1 discriminator 4
	lw	a4,-36(s0)
	lw	a4,0(a4)
	.loc 1 196 6 discriminator 4
	addi	a3,a4,-1
	.loc 1 196 13 discriminator 4
	lw	a4,-36(s0)
	sw	a3,0(a4)
	.loc 1 196 9 discriminator 4
	lw	a4,-36(s0)
	lw	a4,0(a4)
	.loc 1 196 13 discriminator 4
	sb	a5,0(a4)
	.loc 1 197 8
	lw	a5,-20(s0)
	addi	a5,a5,1
	sw	a5,-20(s0)
	.loc 1 199 12
	li	a3,1
	lw	a2,-20(s0)
	lw	a1,-40(s0)
	lw	a0,-36(s0)
	call	mbedtls_asn1_write_len_and_tag
	mv	a5,a0
.L45:
	.loc 1 200 1
	mv	a0,a5
	lw	ra,44(sp)
	.cfi_restore 1
	lw	s0,40(sp)
	.cfi_restore 8
	.cfi_def_cfa 2, 48
	addi	sp,sp,48
	.cfi_def_cfa_offset 0
	jr	ra
	.cfi_endproc
.LFE24:
	.size	mbedtls_asn1_write_bool, .-mbedtls_asn1_write_bool
	.section	.text.asn1_write_tagged_int,"ax",@progbits
	.align	1
	.type	asn1_write_tagged_int, @function
asn1_write_tagged_int:
.LFB25:
	.loc 1 203 1
	.cfi_startproc
	addi	sp,sp,-48
	.cfi_def_cfa_offset 48
	sw	ra,44(sp)
	sw	s0,40(sp)
	.cfi_offset 1, -4
	.cfi_offset 8, -8
	addi	s0,sp,48
	.cfi_def_cfa 8, 0
	sw	a0,-36(s0)
	sw	a1,-40(s0)
	sw	a2,-44(s0)
	sw	a3,-48(s0)
	.loc 1 204 12
	sw	zero,-20(s0)
.L51:
	.loc 1 207 13
	lw	a5,-36(s0)
	lw	a4,0(a5)
	.loc 1 207 16
	lw	a5,-40(s0)
	sub	a5,a4,a5
	.loc 1 207 12
	bgt	a5,zero,.L49
	.loc 1 208 20
	li	a5,-108
	j	.L50
.L49:
	.loc 1 210 13
	lw	a5,-20(s0)
	addi	a5,a5,1
	sw	a5,-20(s0)
	.loc 1 211 13
	lw	a5,-36(s0)
	lw	a5,0(a5)
	.loc 1 211 10
	addi	a4,a5,-1
	.loc 1 211 17
	lw	a5,-36(s0)
	sw	a4,0(a5)
	.loc 1 211 13
	lw	a5,-36(s0)
	lw	a5,0(a5)
	.loc 1 211 17
	lw	a4,-44(s0)
	andi	a4,a4,0xff
	sb	a4,0(a5)
	.loc 1 212 13
	lw	a5,-44(s0)
	srai	a5,a5,8
	sw	a5,-44(s0)
	.loc 1 213 18
	lw	a5,-44(s0)
	bgt	a5,zero,.L51
	.loc 1 215 10
	lw	a5,-36(s0)
	lw	a5,0(a5)
	.loc 1 215 9
	lbu	a5,0(a5)
	slli	a5,a5,24
	srai	a5,a5,24
	.loc 1 215 8
	bge	a5,zero,.L52
	.loc 1 216 13
	lw	a5,-36(s0)
	lw	a4,0(a5)
	.loc 1 216 16
	lw	a5,-40(s0)
	sub	a5,a4,a5
	.loc 1 216 12
	bgt	a5,zero,.L53
	.loc 1 217 20
	li	a5,-108
	j	.L50
.L53:
	.loc 1 219 13
	lw	a5,-36(s0)
	lw	a5,0(a5)
	.loc 1 219 10
	addi	a4,a5,-1
	.loc 1 219 17
	lw	a5,-36(s0)
	sw	a4,0(a5)
	.loc 1 219 13
	lw	a5,-36(s0)
	lw	a5,0(a5)
	.loc 1 219 17
	sb	zero,0(a5)
	.loc 1 220 13
	lw	a5,-20(s0)
	addi	a5,a5,1
	sw	a5,-20(s0)
.L52:
	.loc 1 223 12
	lw	a5,-48(s0)
	andi	a5,a5,0xff
	mv	a3,a5
	lw	a2,-20(s0)
	lw	a1,-40(s0)
	lw	a0,-36(s0)
	call	mbedtls_asn1_write_len_and_tag
	mv	a5,a0
.L50:
	.loc 1 224 1
	mv	a0,a5
	lw	ra,44(sp)
	.cfi_restore 1
	lw	s0,40(sp)
	.cfi_restore 8
	.cfi_def_cfa 2, 48
	addi	sp,sp,48
	.cfi_def_cfa_offset 0
	jr	ra
	.cfi_endproc
.LFE25:
	.size	asn1_write_tagged_int, .-asn1_write_tagged_int
	.section	.text.mbedtls_asn1_write_int,"ax",@progbits
	.align	1
	.globl	mbedtls_asn1_write_int
	.type	mbedtls_asn1_write_int, @function
mbedtls_asn1_write_int:
.LFB26:
	.loc 1 227 1
	.cfi_startproc
	addi	sp,sp,-32
	.cfi_def_cfa_offset 32
	sw	ra,28(sp)
	sw	s0,24(sp)
	.cfi_offset 1, -4
	.cfi_offset 8, -8
	addi	s0,sp,32
	.cfi_def_cfa 8, 0
	sw	a0,-20(s0)
	sw	a1,-24(s0)
	sw	a2,-28(s0)
	.loc 1 228 12
	li	a3,2
	lw	a2,-28(s0)
	lw	a1,-24(s0)
	lw	a0,-20(s0)
	call	asn1_write_tagged_int
	mv	a5,a0
	.loc 1 229 1
	mv	a0,a5
	lw	ra,28(sp)
	.cfi_restore 1
	lw	s0,24(sp)
	.cfi_restore 8
	.cfi_def_cfa 2, 32
	addi	sp,sp,32
	.cfi_def_cfa_offset 0
	jr	ra
	.cfi_endproc
.LFE26:
	.size	mbedtls_asn1_write_int, .-mbedtls_asn1_write_int
	.section	.text.mbedtls_asn1_write_enum,"ax",@progbits
	.align	1
	.globl	mbedtls_asn1_write_enum
	.type	mbedtls_asn1_write_enum, @function
mbedtls_asn1_write_enum:
.LFB27:
	.loc 1 232 1
	.cfi_startproc
	addi	sp,sp,-32
	.cfi_def_cfa_offset 32
	sw	ra,28(sp)
	sw	s0,24(sp)
	.cfi_offset 1, -4
	.cfi_offset 8, -8
	addi	s0,sp,32
	.cfi_def_cfa 8, 0
	sw	a0,-20(s0)
	sw	a1,-24(s0)
	sw	a2,-28(s0)
	.loc 1 233 12
	li	a3,10
	lw	a2,-28(s0)
	lw	a1,-24(s0)
	lw	a0,-20(s0)
	call	asn1_write_tagged_int
	mv	a5,a0
	.loc 1 234 1
	mv	a0,a5
	lw	ra,28(sp)
	.cfi_restore 1
	lw	s0,24(sp)
	.cfi_restore 8
	.cfi_def_cfa 2, 32
	addi	sp,sp,32
	.cfi_def_cfa_offset 0
	jr	ra
	.cfi_endproc
.LFE27:
	.size	mbedtls_asn1_write_enum, .-mbedtls_asn1_write_enum
	.section	.text.mbedtls_asn1_write_tagged_string,"ax",@progbits
	.align	1
	.globl	mbedtls_asn1_write_tagged_string
	.type	mbedtls_asn1_write_tagged_string, @function
mbedtls_asn1_write_tagged_string:
.LFB28:
	.loc 1 238 1
	.cfi_startproc
	addi	sp,sp,-64
	.cfi_def_cfa_offset 64
	sw	ra,60(sp)
	sw	s0,56(sp)
	.cfi_offset 1, -4
	.cfi_offset 8, -8
	addi	s0,sp,64
	.cfi_def_cfa 8, 0
	sw	a0,-36(s0)
	sw	a1,-40(s0)
	sw	a2,-44(s0)
	sw	a3,-48(s0)
	sw	a4,-52(s0)
	.loc 1 239 9
	li	a5,-110
	sw	a5,-20(s0)
	.loc 1 240 12
	sw	zero,-24(s0)
	.loc 1 242 22
	lw	a3,-52(s0)
	lw	a2,-48(s0)
	lw	a1,-40(s0)
	lw	a0,-36(s0)
	call	mbedtls_asn1_write_raw_buffer
	sw	a0,-20(s0)
	.loc 1 242 13 discriminator 1
	lw	a5,-20(s0)
	bge	a5,zero,.L59
	.loc 1 242 116 discriminator 2
	lw	a5,-20(s0)
	.loc 1 242 116 is_stmt 0
	j	.L60
.L59:
	.loc 1 242 132 is_stmt 1 discriminator 3
	lw	a5,-20(s0)
	lw	a4,-24(s0)
	add	a5,a4,a5
	sw	a5,-24(s0)
	.loc 1 246 12
	lw	a5,-44(s0)
	andi	a5,a5,0xff
	mv	a3,a5
	lw	a2,-24(s0)
	lw	a1,-40(s0)
	lw	a0,-36(s0)
	call	mbedtls_asn1_write_len_and_tag
	mv	a5,a0
.L60:
	.loc 1 247 1
	mv	a0,a5
	lw	ra,60(sp)
	.cfi_restore 1
	lw	s0,56(sp)
	.cfi_restore 8
	.cfi_def_cfa 2, 64
	addi	sp,sp,64
	.cfi_def_cfa_offset 0
	jr	ra
	.cfi_endproc
.LFE28:
	.size	mbedtls_asn1_write_tagged_string, .-mbedtls_asn1_write_tagged_string
	.section	.text.mbedtls_asn1_write_utf8_string,"ax",@progbits
	.align	1
	.globl	mbedtls_asn1_write_utf8_string
	.type	mbedtls_asn1_write_utf8_string, @function
mbedtls_asn1_write_utf8_string:
.LFB29:
	.loc 1 251 1
	.cfi_startproc
	addi	sp,sp,-32
	.cfi_def_cfa_offset 32
	sw	ra,28(sp)
	sw	s0,24(sp)
	.cfi_offset 1, -4
	.cfi_offset 8, -8
	addi	s0,sp,32
	.cfi_def_cfa 8, 0
	sw	a0,-20(s0)
	sw	a1,-24(s0)
	sw	a2,-28(s0)
	sw	a3,-32(s0)
	.loc 1 252 12
	lw	a4,-32(s0)
	lw	a3,-28(s0)
	li	a2,12
	lw	a1,-24(s0)
	lw	a0,-20(s0)
	call	mbedtls_asn1_write_tagged_string
	mv	a5,a0
	.loc 1 253 1
	mv	a0,a5
	lw	ra,28(sp)
	.cfi_restore 1
	lw	s0,24(sp)
	.cfi_restore 8
	.cfi_def_cfa 2, 32
	addi	sp,sp,32
	.cfi_def_cfa_offset 0
	jr	ra
	.cfi_endproc
.LFE29:
	.size	mbedtls_asn1_write_utf8_string, .-mbedtls_asn1_write_utf8_string
	.section	.text.mbedtls_asn1_write_printable_string,"ax",@progbits
	.align	1
	.globl	mbedtls_asn1_write_printable_string
	.type	mbedtls_asn1_write_printable_string, @function
mbedtls_asn1_write_printable_string:
.LFB30:
	.loc 1 257 1
	.cfi_startproc
	addi	sp,sp,-32
	.cfi_def_cfa_offset 32
	sw	ra,28(sp)
	sw	s0,24(sp)
	.cfi_offset 1, -4
	.cfi_offset 8, -8
	addi	s0,sp,32
	.cfi_def_cfa 8, 0
	sw	a0,-20(s0)
	sw	a1,-24(s0)
	sw	a2,-28(s0)
	sw	a3,-32(s0)
	.loc 1 258 12
	lw	a4,-32(s0)
	lw	a3,-28(s0)
	li	a2,19
	lw	a1,-24(s0)
	lw	a0,-20(s0)
	call	mbedtls_asn1_write_tagged_string
	mv	a5,a0
	.loc 1 260 1
	mv	a0,a5
	lw	ra,28(sp)
	.cfi_restore 1
	lw	s0,24(sp)
	.cfi_restore 8
	.cfi_def_cfa 2, 32
	addi	sp,sp,32
	.cfi_def_cfa_offset 0
	jr	ra
	.cfi_endproc
.LFE30:
	.size	mbedtls_asn1_write_printable_string, .-mbedtls_asn1_write_printable_string
	.section	.text.mbedtls_asn1_write_ia5_string,"ax",@progbits
	.align	1
	.globl	mbedtls_asn1_write_ia5_string
	.type	mbedtls_asn1_write_ia5_string, @function
mbedtls_asn1_write_ia5_string:
.LFB31:
	.loc 1 264 1
	.cfi_startproc
	addi	sp,sp,-32
	.cfi_def_cfa_offset 32
	sw	ra,28(sp)
	sw	s0,24(sp)
	.cfi_offset 1, -4
	.cfi_offset 8, -8
	addi	s0,sp,32
	.cfi_def_cfa 8, 0
	sw	a0,-20(s0)
	sw	a1,-24(s0)
	sw	a2,-28(s0)
	sw	a3,-32(s0)
	.loc 1 265 12
	lw	a4,-32(s0)
	lw	a3,-28(s0)
	li	a2,22
	lw	a1,-24(s0)
	lw	a0,-20(s0)
	call	mbedtls_asn1_write_tagged_string
	mv	a5,a0
	.loc 1 266 1
	mv	a0,a5
	lw	ra,28(sp)
	.cfi_restore 1
	lw	s0,24(sp)
	.cfi_restore 8
	.cfi_def_cfa 2, 32
	addi	sp,sp,32
	.cfi_def_cfa_offset 0
	jr	ra
	.cfi_endproc
.LFE31:
	.size	mbedtls_asn1_write_ia5_string, .-mbedtls_asn1_write_ia5_string
	.section	.text.mbedtls_asn1_write_named_bitstring,"ax",@progbits
	.align	1
	.globl	mbedtls_asn1_write_named_bitstring
	.type	mbedtls_asn1_write_named_bitstring, @function
mbedtls_asn1_write_named_bitstring:
.LFB32:
	.loc 1 272 1
	.cfi_startproc
	addi	sp,sp,-64
	.cfi_def_cfa_offset 64
	sw	ra,60(sp)
	sw	s0,56(sp)
	.cfi_offset 1, -4
	.cfi_offset 8, -8
	addi	s0,sp,64
	.cfi_def_cfa 8, 0
	sw	a0,-52(s0)
	sw	a1,-56(s0)
	sw	a2,-60(s0)
	sw	a3,-64(s0)
	.loc 1 278 22
	lw	a5,-64(s0)
	addi	a5,a5,7
	.loc 1 278 14
	srli	a5,a5,3
	sw	a5,-28(s0)
	.loc 1 279 29
	lw	a5,-28(s0)
	slli	a4,a5,3
	.loc 1 279 17
	lw	a5,-64(s0)
	sub	a5,a4,a5
	sw	a5,-32(s0)
	.loc 1 286 8
	lw	a5,-64(s0)
	beq	a5,zero,.L68
	.loc 1 287 35
	lw	a5,-28(s0)
	addi	a5,a5,-1
	.loc 1 287 18
	lw	a4,-60(s0)
	add	a5,a4,a5
	sw	a5,-20(s0)
	.loc 1 288 28
	lw	a5,-20(s0)
	lbu	a5,0(a5)
	mv	a4,a5
	.loc 1 288 38
	lw	a5,-32(s0)
	sra	a5,a4,a5
	.loc 1 288 26
	sb	a5,-21(s0)
.L72:
	.loc 1 291 17
	lbu	a5,-21(s0)
	andi	a5,a5,1
	sb	a5,-33(s0)
	.loc 1 292 30
	lbu	a5,-21(s0)
	srli	a5,a5,1
	sb	a5,-21(s0)
	.loc 1 294 16
	lbu	a5,-33(s0)
	bne	a5,zero,.L74
	.loc 1 298 17
	lw	a5,-64(s0)
	addi	a5,a5,-1
	sw	a5,-64(s0)
	.loc 1 299 16
	lw	a5,-64(s0)
	beq	a5,zero,.L75
	.loc 1 303 22
	lw	a5,-64(s0)
	andi	a5,a5,7
	.loc 1 303 16
	bne	a5,zero,.L72
	.loc 1 304 34
	lw	a5,-20(s0)
	addi	a5,a5,-1
	sw	a5,-20(s0)
	lw	a5,-20(s0)
	lbu	a5,0(a5)
	sb	a5,-21(s0)
	.loc 1 291 17
	j	.L72
.L74:
	.loc 1 295 17
	nop
	j	.L68
.L75:
	.loc 1 300 17
	nop
.L68:
	.loc 1 309 12
	lw	a3,-64(s0)
	lw	a2,-60(s0)
	lw	a1,-56(s0)
	lw	a0,-52(s0)
	call	mbedtls_asn1_write_bitstring
	mv	a5,a0
	.loc 1 310 1
	mv	a0,a5
	lw	ra,60(sp)
	.cfi_restore 1
	lw	s0,56(sp)
	.cfi_restore 8
	.cfi_def_cfa 2, 64
	addi	sp,sp,64
	.cfi_def_cfa_offset 0
	jr	ra
	.cfi_endproc
.LFE32:
	.size	mbedtls_asn1_write_named_bitstring, .-mbedtls_asn1_write_named_bitstring
	.section	.text.mbedtls_asn1_write_bitstring,"ax",@progbits
	.align	1
	.globl	mbedtls_asn1_write_bitstring
	.type	mbedtls_asn1_write_bitstring, @function
mbedtls_asn1_write_bitstring:
.LFB33:
	.loc 1 314 1
	.cfi_startproc
	addi	sp,sp,-48
	.cfi_def_cfa_offset 48
	sw	ra,44(sp)
	sw	s0,40(sp)
	.cfi_offset 1, -4
	.cfi_offset 8, -8
	addi	s0,sp,48
	.cfi_def_cfa 8, 0
	sw	a0,-36(s0)
	sw	a1,-40(s0)
	sw	a2,-44(s0)
	sw	a3,-48(s0)
	.loc 1 315 12
	sw	zero,-20(s0)
	.loc 1 318 22
	lw	a5,-48(s0)
	addi	a5,a5,7
	.loc 1 318 14
	srli	a5,a5,3
	sw	a5,-24(s0)
	.loc 1 319 29
	lw	a5,-24(s0)
	slli	a4,a5,3
	.loc 1 319 17
	lw	a5,-48(s0)
	sub	a5,a4,a5
	sw	a5,-28(s0)
	.loc 1 321 9
	lw	a5,-36(s0)
	lw	a5,0(a5)
	.loc 1 321 8
	lw	a4,-40(s0)
	bgtu	a4,a5,.L77
	.loc 1 321 33 discriminator 1
	lw	a5,-36(s0)
	lw	a4,0(a5)
	.loc 1 321 36 discriminator 1
	lw	a5,-40(s0)
	sub	a5,a4,a5
	.loc 1 321 23 discriminator 1
	mv	a4,a5
	.loc 1 321 56 discriminator 1
	lw	a5,-24(s0)
	addi	a5,a5,1
	.loc 1 321 20 discriminator 1
	bgeu	a4,a5,.L78
.L77:
	.loc 1 322 16
	li	a5,-108
	j	.L79
.L78:
	.loc 1 325 9
	lw	a5,-24(s0)
	addi	a5,a5,1
	sw	a5,-20(s0)
	.loc 1 328 8
	lw	a5,-24(s0)
	beq	a5,zero,.L80
	.loc 1 329 17
	lw	a5,-24(s0)
	addi	a5,a5,-1
	sw	a5,-24(s0)
	.loc 1 330 22
	lw	a4,-44(s0)
	lw	a5,-24(s0)
	add	a5,a4,a5
	lbu	a5,0(a5)
	slli	a4,a5,24
	srai	a4,a4,24
	.loc 1 330 42
	lw	a5,-28(s0)
	li	a3,1
	sll	a5,a3,a5
	.loc 1 330 33
	andi	a5,a5,0xff
	neg	a5,a5
	andi	a5,a5,0xff
	slli	a5,a5,24
	srai	a5,a5,24
	and	a5,a4,a5
	slli	a3,a5,24
	srai	a3,a3,24
	.loc 1 330 13
	lw	a5,-36(s0)
	lw	a5,0(a5)
	.loc 1 330 10
	addi	a4,a5,-1
	.loc 1 330 17
	lw	a5,-36(s0)
	sw	a4,0(a5)
	.loc 1 330 13
	lw	a5,-36(s0)
	lw	a5,0(a5)
	.loc 1 330 33
	andi	a4,a3,0xff
	.loc 1 330 17
	sb	a4,0(a5)
	.loc 1 331 10
	lw	a5,-36(s0)
	lw	a4,0(a5)
	.loc 1 331 14
	lw	a5,-24(s0)
	neg	a5,a5
	add	a4,a4,a5
	lw	a5,-36(s0)
	sw	a4,0(a5)
	.loc 1 332 9
	lw	a5,-36(s0)
	lw	a5,0(a5)
	lw	a2,-24(s0)
	lw	a1,-44(s0)
	mv	a0,a5
	call	memcpy
.L80:
	.loc 1 336 9
	lw	a5,-36(s0)
	lw	a5,0(a5)
	.loc 1 336 6
	addi	a4,a5,-1
	.loc 1 336 13
	lw	a5,-36(s0)
	sw	a4,0(a5)
	.loc 1 336 9
	lw	a5,-36(s0)
	lw	a5,0(a5)
	.loc 1 336 15
	lw	a4,-28(s0)
	andi	a4,a4,0xff
	.loc 1 336 13
	sb	a4,0(a5)
	.loc 1 338 12
	li	a3,3
	lw	a2,-20(s0)
	lw	a1,-40(s0)
	lw	a0,-36(s0)
	call	mbedtls_asn1_write_len_and_tag
	mv	a5,a0
.L79:
	.loc 1 339 1
	mv	a0,a5
	lw	ra,44(sp)
	.cfi_restore 1
	lw	s0,40(sp)
	.cfi_restore 8
	.cfi_def_cfa 2, 48
	addi	sp,sp,48
	.cfi_def_cfa_offset 0
	jr	ra
	.cfi_endproc
.LFE33:
	.size	mbedtls_asn1_write_bitstring, .-mbedtls_asn1_write_bitstring
	.section	.text.mbedtls_asn1_write_octet_string,"ax",@progbits
	.align	1
	.globl	mbedtls_asn1_write_octet_string
	.type	mbedtls_asn1_write_octet_string, @function
mbedtls_asn1_write_octet_string:
.LFB34:
	.loc 1 343 1
	.cfi_startproc
	addi	sp,sp,-48
	.cfi_def_cfa_offset 48
	sw	ra,44(sp)
	sw	s0,40(sp)
	.cfi_offset 1, -4
	.cfi_offset 8, -8
	addi	s0,sp,48
	.cfi_def_cfa 8, 0
	sw	a0,-36(s0)
	sw	a1,-40(s0)
	sw	a2,-44(s0)
	sw	a3,-48(s0)
	.loc 1 344 9
	li	a5,-110
	sw	a5,-20(s0)
	.loc 1 345 12
	sw	zero,-24(s0)
	.loc 1 347 22
	lw	a3,-48(s0)
	lw	a2,-44(s0)
	lw	a1,-40(s0)
	lw	a0,-36(s0)
	call	mbedtls_asn1_write_raw_buffer
	sw	a0,-20(s0)
	.loc 1 347 13 discriminator 1
	lw	a5,-20(s0)
	bge	a5,zero,.L82
	.loc 1 347 87 discriminator 2
	lw	a5,-20(s0)
	.loc 1 347 87 is_stmt 0
	j	.L83
.L82:
	.loc 1 347 103 is_stmt 1 discriminator 3
	lw	a5,-20(s0)
	lw	a4,-24(s0)
	add	a5,a4,a5
	sw	a5,-24(s0)
	.loc 1 349 12
	li	a3,4
	lw	a2,-24(s0)
	lw	a1,-40(s0)
	lw	a0,-36(s0)
	call	mbedtls_asn1_write_len_and_tag
	mv	a5,a0
.L83:
	.loc 1 350 1
	mv	a0,a5
	lw	ra,44(sp)
	.cfi_restore 1
	lw	s0,40(sp)
	.cfi_restore 8
	.cfi_def_cfa 2, 48
	addi	sp,sp,48
	.cfi_def_cfa_offset 0
	jr	ra
	.cfi_endproc
.LFE34:
	.size	mbedtls_asn1_write_octet_string, .-mbedtls_asn1_write_octet_string
	.section	.text.mbedtls_asn1_store_named_data,"ax",@progbits
	.align	1
	.globl	mbedtls_asn1_store_named_data
	.type	mbedtls_asn1_store_named_data, @function
mbedtls_asn1_store_named_data:
.LFB35:
	.loc 1 381 1
	.cfi_startproc
	addi	sp,sp,-64
	.cfi_def_cfa_offset 64
	sw	ra,60(sp)
	sw	s0,56(sp)
	.cfi_offset 1, -4
	.cfi_offset 8, -8
	addi	s0,sp,64
	.cfi_def_cfa 8, 0
	sw	a0,-36(s0)
	sw	a1,-40(s0)
	sw	a2,-44(s0)
	sw	a3,-48(s0)
	sw	a4,-52(s0)
	.loc 1 384 45
	lw	a5,-36(s0)
	lw	a5,0(a5)
	lw	a2,-44(s0)
	lw	a1,-40(s0)
	mv	a0,a5
	call	mbedtls_asn1_find_named_data
	sw	a0,-20(s0)
	.loc 1 384 8 discriminator 1
	lw	a5,-20(s0)
	bne	a5,zero,.L85
	.loc 1 387 43
	li	a1,32
	li	a0,1
	call	calloc
	mv	a5,a0
	sw	a5,-20(s0)
	.loc 1 389 12
	lw	a5,-20(s0)
	bne	a5,zero,.L86
	.loc 1 390 19
	li	a5,0
	j	.L87
.L86:
	.loc 1 393 22
	lw	a5,-20(s0)
	lw	a4,-44(s0)
	sw	a4,4(a5)
	.loc 1 394 22
	lw	a1,-44(s0)
	li	a0,1
	call	calloc
	mv	a5,a0
	mv	a4,a5
	.loc 1 394 20 discriminator 1
	lw	a5,-20(s0)
	sw	a4,8(a5)
	.loc 1 395 21
	lw	a5,-20(s0)
	lw	a5,8(a5)
	.loc 1 395 12
	bne	a5,zero,.L88
	.loc 1 396 13
	lw	a0,-20(s0)
	call	free
	.loc 1 397 19
	li	a5,0
	j	.L87
.L88:
	.loc 1 400 24
	lw	a5,-20(s0)
	lw	a5,8(a5)
	.loc 1 400 9
	lw	a2,-44(s0)
	lw	a1,-40(s0)
	mv	a0,a5
	call	memcpy
	.loc 1 402 22
	lw	a5,-20(s0)
	lw	a4,-52(s0)
	sw	a4,16(a5)
	.loc 1 403 12
	lw	a5,-52(s0)
	beq	a5,zero,.L89
	.loc 1 404 26
	lw	a1,-52(s0)
	li	a0,1
	call	calloc
	mv	a5,a0
	mv	a4,a5
	.loc 1 404 24 discriminator 1
	lw	a5,-20(s0)
	sw	a4,20(a5)
	.loc 1 405 25
	lw	a5,-20(s0)
	lw	a5,20(a5)
	.loc 1 405 16
	bne	a5,zero,.L89
	.loc 1 406 30
	lw	a5,-20(s0)
	lw	a5,8(a5)
	.loc 1 406 17
	mv	a0,a5
	call	free
	.loc 1 407 17
	lw	a0,-20(s0)
	call	free
	.loc 1 408 23
	li	a5,0
	j	.L87
.L89:
	.loc 1 412 21
	lw	a5,-36(s0)
	lw	a4,0(a5)
	.loc 1 412 19
	lw	a5,-20(s0)
	sw	a4,24(a5)
	.loc 1 413 15
	lw	a5,-36(s0)
	lw	a4,-20(s0)
	sw	a4,0(a5)
	j	.L90
.L85:
	.loc 1 414 15
	lw	a5,-52(s0)
	bne	a5,zero,.L91
	.loc 1 415 22
	lw	a5,-20(s0)
	lw	a5,20(a5)
	.loc 1 415 9
	mv	a0,a5
	call	free
	.loc 1 416 20
	lw	a5,-20(s0)
	sw	zero,20(a5)
	.loc 1 417 22
	lw	a5,-20(s0)
	sw	zero,16(a5)
	j	.L90
.L91:
	.loc 1 418 24
	lw	a5,-20(s0)
	lw	a5,16(a5)
	.loc 1 418 15
	lw	a4,-52(s0)
	beq	a4,a5,.L90
.LBB3:
	.loc 1 424 19
	lw	a1,-52(s0)
	li	a0,1
	call	calloc
	mv	a5,a0
	sw	a5,-24(s0)
	.loc 1 425 12
	lw	a5,-24(s0)
	bne	a5,zero,.L92
	.loc 1 426 19
	li	a5,0
	j	.L87
.L92:
	.loc 1 429 22
	lw	a5,-20(s0)
	lw	a5,20(a5)
	.loc 1 429 9
	mv	a0,a5
	call	free
	.loc 1 430 20
	lw	a5,-20(s0)
	lw	a4,-24(s0)
	sw	a4,20(a5)
	.loc 1 431 22
	lw	a5,-20(s0)
	lw	a4,-52(s0)
	sw	a4,16(a5)
.L90:
.LBE3:
	.loc 1 434 8
	lw	a5,-48(s0)
	beq	a5,zero,.L93
	.loc 1 434 20 discriminator 1
	lw	a5,-52(s0)
	beq	a5,zero,.L93
	.loc 1 435 24
	lw	a5,-20(s0)
	lw	a5,20(a5)
	.loc 1 435 9
	lw	a2,-52(s0)
	lw	a1,-48(s0)
	mv	a0,a5
	call	memcpy
.L93:
	.loc 1 438 12
	lw	a5,-20(s0)
.L87:
	.loc 1 439 1
	mv	a0,a5
	lw	ra,60(sp)
	.cfi_restore 1
	lw	s0,56(sp)
	.cfi_restore 8
	.cfi_def_cfa 2, 64
	addi	sp,sp,64
	.cfi_def_cfa_offset 0
	jr	ra
	.cfi_endproc
.LFE35:
	.size	mbedtls_asn1_store_named_data, .-mbedtls_asn1_store_named_data
	.text
.Letext0:
	.file 2 "/home/chandu/sdk/bl602_iot_sdk/toolchain/compiler/lib/gcc/riscv32-unknown-elf/15.1.0/include/stddef.h"
	.file 3 "/home/chandu/sdk/bl602_iot_sdk/toolchain/compiler/lib/gcc/riscv32-unknown-elf/15.1.0/include/stdint-gcc.h"
	.file 4 "/home/chandu/sdk/bl602_iot_sdk/components/security/mbedtls-bl602/include/mbedtls/bignum.h"
	.file 5 "/home/chandu/sdk/bl602_iot_sdk/components/security/mbedtls-bl602/include/mbedtls/asn1.h"
	.file 6 "/home/chandu/sdk/bl602_iot_sdk/toolchain/compiler/riscv32-unknown-elf/include/stdlib.h"
	.file 7 "/home/chandu/sdk/bl602_iot_sdk/toolchain/compiler/riscv32-unknown-elf/include/string.h"
	.section	.note.GNU-stack,"",@progbits
