	.file	"bl602_port.c"
	.option nopic
	.attribute arch, "rv32i2p1_m2p0_f2p2_c2p0_zicsr2p0_zmmul1p0_zca1p0_zcf1p0"
	.attribute unaligned_access, 0
	.attribute stack_align, 16
	.text
.Ltext0:
	.cfi_sections	.debug_frame
	.file 0 "/home/chandu/sdk/bl602_iot_sdk/customer_app/suas_app_pqkem_gateway/build_out/mbedtls-bl602" "/home/chandu/sdk/bl602_iot_sdk/components/security/mbedtls-bl602/library/bl602_port.c"
	.section	.text.mbedtls_hardware_poll,"ax",@progbits
	.align	1
	.globl	mbedtls_hardware_poll
	.type	mbedtls_hardware_poll, @function
mbedtls_hardware_poll:
.LFB89:
	.file 1 "/home/chandu/sdk/bl602_iot_sdk/components/security/mbedtls-bl602/library/bl602_port.c"
	.loc 1 18 1
	.cfi_startproc
	addi	sp,sp,-48
	.cfi_def_cfa_offset 48
	sw	ra,44(sp)
	sw	s0,40(sp)
	.cfi_offset 1, -4
	.cfi_offset 8, -8
	addi	s0,sp,48
	.cfi_def_cfa 8, 0
	sw	a0,-36(s0)
	sw	a1,-40(s0)
	sw	a2,-44(s0)
	sw	a3,-48(s0)
	.loc 1 21 11
	lw	a5,-48(s0)
	sw	zero,0(a5)
	.loc 1 22 18
	sw	zero,-24(s0)
	.loc 1 24 12
	sw	zero,-20(s0)
	.loc 1 24 5
	j	.L2
.L4:
	.loc 1 25 21
	lw	a5,-20(s0)
	andi	a5,a5,3
	.loc 1 25 12
	bne	a5,zero,.L3
	.loc 1 26 24
	call	bl_rand
	mv	a5,a0
	.loc 1 26 22 discriminator 1
	sw	a5,-24(s0)
.L3:
	.loc 1 28 15
	lw	a4,-40(s0)
	lw	a5,-20(s0)
	add	a5,a4,a5
	.loc 1 28 19
	lw	a4,-24(s0)
	andi	a4,a4,0xff
	sb	a4,0(a5)
	.loc 1 29 18
	lw	a5,-24(s0)
	srli	a5,a5,8
	sw	a5,-24(s0)
	.loc 1 24 27 discriminator 2
	lw	a5,-20(s0)
	addi	a5,a5,1
	sw	a5,-20(s0)
.L2:
	.loc 1 24 19 discriminator 1
	lw	a4,-20(s0)
	lw	a5,-44(s0)
	bltu	a4,a5,.L4
	.loc 1 32 11
	lw	a5,-48(s0)
	lw	a4,-44(s0)
	sw	a4,0(a5)
	.loc 1 34 12
	li	a5,0
	.loc 1 35 1
	mv	a0,a5
	lw	ra,44(sp)
	.cfi_restore 1
	lw	s0,40(sp)
	.cfi_restore 8
	.cfi_def_cfa 2, 48
	addi	sp,sp,48
	.cfi_def_cfa_offset 0
	jr	ra
	.cfi_endproc
.LFE89:
	.size	mbedtls_hardware_poll, .-mbedtls_hardware_poll
	.section	.text.mbedtls_net_init,"ax",@progbits
	.align	1
	.globl	mbedtls_net_init
	.type	mbedtls_net_init, @function
mbedtls_net_init:
.LFB90:
	.loc 1 44 1
	.cfi_startproc
	addi	sp,sp,-32
	.cfi_def_cfa_offset 32
	sw	ra,28(sp)
	sw	s0,24(sp)
	.cfi_offset 1, -4
	.cfi_offset 8, -8
	addi	s0,sp,32
	.cfi_def_cfa 8, 0
	sw	a0,-20(s0)
	.loc 1 45 13
	lw	a5,-20(s0)
	li	a4,-1
	sw	a4,0(a5)
	.loc 1 46 1
	nop
	lw	ra,28(sp)
	.cfi_restore 1
	lw	s0,24(sp)
	.cfi_restore 8
	.cfi_def_cfa 2, 32
	addi	sp,sp,32
	.cfi_def_cfa_offset 0
	jr	ra
	.cfi_endproc
.LFE90:
	.size	mbedtls_net_init, .-mbedtls_net_init
	.section	.rodata
	.align	2
.LC0:
	.string	"%s %d: getaddrinfo fail- errno: %d\n"
	.section	.text.mbedtls_net_connect,"ax",@progbits
	.align	1
	.globl	mbedtls_net_connect
	.type	mbedtls_net_connect, @function
mbedtls_net_connect:
.LFB91:
	.loc 1 51 1
	.cfi_startproc
	addi	sp,sp,-80
	.cfi_def_cfa_offset 80
	sw	ra,76(sp)
	sw	s0,72(sp)
	.cfi_offset 1, -4
	.cfi_offset 8, -8
	addi	s0,sp,80
	.cfi_def_cfa 8, 0
	sw	a0,-68(s0)
	sw	a1,-72(s0)
	sw	a2,-76(s0)
	sw	a3,-80(s0)
	.loc 1 52 9
	li	a5,-110
	sw	a5,-20(s0)
	.loc 1 56 5
	addi	a5,s0,-56
	li	a2,32
	li	a1,0
	mv	a0,a5
	call	memset
	.loc 1 57 21
	sw	zero,-52(s0)
	.loc 1 58 40
	lw	a4,-80(s0)
	li	a5,1
	bne	a4,a5,.L8
	.loc 1 58 40 is_stmt 0 discriminator 1
	li	a5,2
	j	.L9
.L8:
	.loc 1 58 40 discriminator 2
	li	a5,1
.L9:
	.loc 1 58 23 is_stmt 1 discriminator 4
	sw	a5,-48(s0)
	.loc 1 59 41
	lw	a4,-80(s0)
	li	a5,1
	bne	a4,a5,.L10
	.loc 1 59 41 is_stmt 0 discriminator 1
	li	a5,17
	j	.L11
.L10:
	.loc 1 59 41 discriminator 2
	li	a5,6
.L11:
	.loc 1 59 23 is_stmt 1 discriminator 4
	sw	a5,-44(s0)
	.loc 1 61 9
	addi	a4,s0,-60
	addi	a5,s0,-56
	mv	a3,a4
	mv	a2,a5
	lw	a1,-76(s0)
	lw	a0,-72(s0)
	call	lwip_getaddrinfo
	mv	a5,a0
	.loc 1 61 8 discriminator 1
	beq	a5,zero,.L12
	.loc 1 62 9
	lui	a5,%hi(errno)
	lw	a5,%lo(errno)(a5)
	mv	a3,a5
	li	a2,62
	lui	a5,%hi(__FUNCTION__.2)
	addi	a1,a5,%lo(__FUNCTION__.2)
	lui	a5,%hi(.LC0)
	addi	a0,a5,%lo(.LC0)
	call	printf
	.loc 1 63 16
	li	a5,-82
	j	.L20
.L12:
	.loc 1 67 9
	li	a5,-82
	sw	a5,-20(s0)
	.loc 1 69 13
	lw	a5,-60(s0)
	sw	a5,-24(s0)
	.loc 1 69 5
	j	.L14
.L19:
	.loc 1 70 19
	lw	a5,-24(s0)
	lw	a4,4(a5)
	lw	a5,-24(s0)
	lw	a3,8(a5)
	lw	a5,-24(s0)
	lw	a5,12(a5)
	mv	a2,a5
	mv	a1,a3
	mv	a0,a4
	call	lwip_socket
	mv	a4,a0
	.loc 1 70 17 discriminator 1
	lw	a5,-68(s0)
	sw	a4,0(a5)
	.loc 1 71 16
	lw	a5,-68(s0)
	lw	a5,0(a5)
	.loc 1 71 12
	bge	a5,zero,.L15
	.loc 1 72 17
	li	a5,-66
	sw	a5,-20(s0)
	.loc 1 73 13
	j	.L16
.L15:
	.loc 1 76 13
	lw	a5,-68(s0)
	lw	a4,0(a5)
	.loc 1 76 37
	lw	a5,-24(s0)
	lw	a3,20(a5)
	.loc 1 76 13
	lw	a5,-24(s0)
	lw	a5,16(a5)
	mv	a2,a5
	mv	a1,a3
	mv	a0,a4
	call	lwip_connect
	mv	a5,a0
	.loc 1 76 12 discriminator 1
	bne	a5,zero,.L17
	.loc 1 77 17
	sw	zero,-20(s0)
	.loc 1 78 13
	j	.L18
.L17:
	.loc 1 80 9
	lw	a0,-68(s0)
	call	mbedtls_net_close
	.loc 1 81 13
	li	a5,-68
	sw	a5,-20(s0)
.L16:
	.loc 1 69 41 discriminator 2
	lw	a5,-24(s0)
	lw	a5,28(a5)
	sw	a5,-24(s0)
.L14:
	.loc 1 69 29 discriminator 1
	lw	a5,-24(s0)
	bne	a5,zero,.L19
.L18:
	.loc 1 83 5
	lw	a5,-60(s0)
	mv	a0,a5
	call	lwip_freeaddrinfo
	.loc 1 84 12
	lw	a5,-20(s0)
.L20:
	.loc 1 85 1
	mv	a0,a5
	lw	ra,76(sp)
	.cfi_restore 1
	lw	s0,72(sp)
	.cfi_restore 8
	.cfi_def_cfa 2, 80
	addi	sp,sp,80
	.cfi_def_cfa_offset 0
	jr	ra
	.cfi_endproc
.LFE91:
	.size	mbedtls_net_connect, .-mbedtls_net_connect
	.section	.text.mbedtls_net_set_block,"ax",@progbits
	.align	1
	.globl	mbedtls_net_set_block
	.type	mbedtls_net_set_block, @function
mbedtls_net_set_block:
.LFB92:
	.loc 1 89 1
	.cfi_startproc
	addi	sp,sp,-48
	.cfi_def_cfa_offset 48
	sw	ra,44(sp)
	sw	s0,40(sp)
	.cfi_offset 1, -4
	.cfi_offset 8, -8
	addi	s0,sp,48
	.cfi_def_cfa 8, 0
	sw	a0,-36(s0)
	.loc 1 90 17
	lw	a5,-36(s0)
	lw	a5,0(a5)
	li	a2,0
	li	a1,3
	mv	a0,a5
	call	lwip_fcntl
	sw	a0,-20(s0)
	.loc 1 91 11
	lw	a5,-20(s0)
	andi	a5,a5,-2
	sw	a5,-20(s0)
	.loc 1 92 12
	lw	a5,-36(s0)
	lw	a5,0(a5)
	lw	a2,-20(s0)
	li	a1,4
	mv	a0,a5
	call	lwip_fcntl
	mv	a5,a0
	.loc 1 93 1
	mv	a0,a5
	lw	ra,44(sp)
	.cfi_restore 1
	lw	s0,40(sp)
	.cfi_restore 8
	.cfi_def_cfa 2, 48
	addi	sp,sp,48
	.cfi_def_cfa_offset 0
	jr	ra
	.cfi_endproc
.LFE92:
	.size	mbedtls_net_set_block, .-mbedtls_net_set_block
	.section	.text.mbedtls_net_set_nonblock,"ax",@progbits
	.align	1
	.globl	mbedtls_net_set_nonblock
	.type	mbedtls_net_set_nonblock, @function
mbedtls_net_set_nonblock:
.LFB93:
	.loc 1 96 1
	.cfi_startproc
	addi	sp,sp,-48
	.cfi_def_cfa_offset 48
	sw	ra,44(sp)
	sw	s0,40(sp)
	.cfi_offset 1, -4
	.cfi_offset 8, -8
	addi	s0,sp,48
	.cfi_def_cfa 8, 0
	sw	a0,-36(s0)
	.loc 1 97 17
	lw	a5,-36(s0)
	lw	a5,0(a5)
	li	a2,0
	li	a1,3
	mv	a0,a5
	call	lwip_fcntl
	sw	a0,-20(s0)
	.loc 1 98 11
	lw	a5,-20(s0)
	ori	a5,a5,1
	sw	a5,-20(s0)
	.loc 1 99 12
	lw	a5,-36(s0)
	lw	a5,0(a5)
	lw	a2,-20(s0)
	li	a1,4
	mv	a0,a5
	call	lwip_fcntl
	mv	a5,a0
	.loc 1 100 1
	mv	a0,a5
	lw	ra,44(sp)
	.cfi_restore 1
	lw	s0,40(sp)
	.cfi_restore 8
	.cfi_def_cfa 2, 48
	addi	sp,sp,48
	.cfi_def_cfa_offset 0
	jr	ra
	.cfi_endproc
.LFE93:
	.size	mbedtls_net_set_nonblock, .-mbedtls_net_set_nonblock
	.section	.text.mbedtls_net_recv_timeout,"ax",@progbits
	.align	1
	.globl	mbedtls_net_recv_timeout
	.type	mbedtls_net_recv_timeout, @function
mbedtls_net_recv_timeout:
.LFB94:
	.loc 1 105 1
	.cfi_startproc
	addi	sp,sp,-64
	.cfi_def_cfa_offset 64
	sw	ra,60(sp)
	sw	s0,56(sp)
	.cfi_offset 1, -4
	.cfi_offset 8, -8
	addi	s0,sp,64
	.cfi_def_cfa 8, 0
	sw	a0,-52(s0)
	sw	a1,-56(s0)
	sw	a2,-60(s0)
	sw	a3,-64(s0)
	.loc 1 106 9
	li	a5,-110
	sw	a5,-20(s0)
	.loc 1 109 9
	lw	a5,-52(s0)
	lw	a5,0(a5)
	sw	a5,-24(s0)
	.loc 1 111 8
	lw	a5,-24(s0)
	bge	a5,zero,.L26
	.loc 1 112 16
	li	a5,-69
	j	.L34
.L26:
	.loc 1 115 5
	addi	a5,s0,-36
	li	a2,2
	li	a1,0
	mv	a0,a5
	call	memset
	.loc 1 116 13
	lw	a4,-24(s0)
	li	a5,15
	bgt	a4,a5,.L28
	.loc 1 116 39 discriminator 1
	lw	a5,-24(s0)
	blt	a5,zero,.L28
	.loc 1 116 139 discriminator 2
	lw	a5,-24(s0)
	srai	a4,a5,31
	andi	a4,a4,7
	add	a5,a4,a5
	srai	a5,a5,3
	.loc 1 116 130 discriminator 2
	addi	a5,a5,-16
	add	a5,a5,s0
	lbu	a5,-20(a5)
	slli	a4,a5,24
	srai	a4,a4,24
	.loc 1 116 161 discriminator 2
	lw	a5,-24(s0)
	andi	a5,a5,7
	.loc 1 116 148 discriminator 2
	li	a3,1
	sll	a5,a3,a5
	.loc 1 116 143 discriminator 2
	slli	a5,a5,24
	srai	a5,a5,24
	or	a5,a4,a5
	slli	a3,a5,24
	srai	a3,a3,24
	.loc 1 116 97 discriminator 2
	lw	a5,-24(s0)
	srai	a4,a5,31
	andi	a4,a4,7
	add	a5,a4,a5
	srai	a5,a5,3
	.loc 1 116 103 discriminator 2
	andi	a4,a3,0xff
	.loc 1 116 101 discriminator 2
	addi	a5,a5,-16
	add	a5,a5,s0
	sb	a4,-20(a5)
.L28:
	.loc 1 118 25
	lw	a4,-64(s0)
	li	a5,274878464
	addi	a5,a5,-557
	mulhu	a5,a4,a5
	srli	a5,a5,6
	.loc 1 118 15
	sw	a5,-32(s0)
	.loc 1 119 27
	lw	a4,-64(s0)
	li	a5,274878464
	addi	a5,a5,-557
	mulhu	a5,a4,a5
	srli	a5,a5,6
	li	a3,1000
	mul	a5,a5,a3
	sub	a5,a4,a5
	.loc 1 119 35
	li	a4,1000
	mul	a5,a5,a4
	.loc 1 119 16
	sw	a5,-28(s0)
	.loc 1 121 11
	lw	a5,-24(s0)
	addi	a0,a5,1
	lw	a5,-64(s0)
	beq	a5,zero,.L29
	.loc 1 121 11 is_stmt 0 discriminator 1
	addi	a5,s0,-32
	j	.L30
.L29:
	.loc 1 121 11 discriminator 2
	li	a5,0
.L30:
	.loc 1 121 11 discriminator 4
	addi	a1,s0,-36
	mv	a4,a5
	li	a3,0
	li	a2,0
	call	lwip_select
	sw	a0,-20(s0)
	.loc 1 124 8 is_stmt 1
	lw	a5,-20(s0)
	bne	a5,zero,.L31
	.loc 1 125 16
	li	a5,-24576
	addi	a5,a5,-2048
	j	.L34
.L31:
	.loc 1 128 8
	lw	a5,-20(s0)
	bge	a5,zero,.L32
	.loc 1 129 19
	lui	a5,%hi(errno)
	lw	a4,%lo(errno)(a5)
	.loc 1 129 12
	li	a5,4
	bne	a4,a5,.L33
	.loc 1 130 20
	li	a5,-28672
	addi	a5,a5,1792
	j	.L34
.L33:
	.loc 1 133 16
	li	a5,-76
	j	.L34
.L32:
	.loc 1 137 12
	lw	a2,-60(s0)
	lw	a1,-56(s0)
	lw	a0,-52(s0)
	call	mbedtls_net_recv
	mv	a5,a0
.L34:
	.loc 1 138 1
	mv	a0,a5
	lw	ra,60(sp)
	.cfi_restore 1
	lw	s0,56(sp)
	.cfi_restore 8
	.cfi_def_cfa 2, 64
	addi	sp,sp,64
	.cfi_def_cfa_offset 0
	jr	ra
	.cfi_endproc
.LFE94:
	.size	mbedtls_net_recv_timeout, .-mbedtls_net_recv_timeout
	.section	.text.net_would_block,"ax",@progbits
	.align	1
	.type	net_would_block, @function
net_would_block:
.LFB95:
	.loc 1 144 1
	.cfi_startproc
	addi	sp,sp,-32
	.cfi_def_cfa_offset 32
	sw	ra,28(sp)
	sw	s0,24(sp)
	.cfi_offset 1, -4
	.cfi_offset 8, -8
	addi	s0,sp,32
	.cfi_def_cfa 8, 0
	sw	a0,-20(s0)
	.loc 1 148 24
	lw	a5,-20(s0)
	lw	a5,0(a5)
	.loc 1 148 10
	li	a2,0
	li	a1,3
	mv	a0,a5
	call	lwip_fcntl
	mv	a5,a0
	.loc 1 148 34 discriminator 1
	andi	a4,a5,1
	.loc 1 148 8 discriminator 1
	li	a5,1
	beq	a4,a5,.L36
	.loc 1 149 16
	li	a5,0
	j	.L37
.L36:
	.loc 1 152 5
	lui	a5,%hi(errno)
	lw	a4,%lo(errno)(a5)
	li	a5,11
	bne	a4,a5,.L38
	.loc 1 159 20
	li	a5,1
	j	.L37
.L38:
	.loc 1 162 12
	li	a5,0
.L37:
	.loc 1 163 1
	mv	a0,a5
	lw	ra,28(sp)
	.cfi_restore 1
	lw	s0,24(sp)
	.cfi_restore 8
	.cfi_def_cfa 2, 32
	addi	sp,sp,32
	.cfi_def_cfa_offset 0
	jr	ra
	.cfi_endproc
.LFE95:
	.size	net_would_block, .-net_would_block
	.section	.rodata
	.align	2
.LC1:
	.string	"%s %d: net reset - errno: %d\n"
	.align	2
.LC2:
	.string	"%s %d: net send failed - errno: %d\n"
	.section	.text.mbedtls_net_send,"ax",@progbits
	.align	1
	.globl	mbedtls_net_send
	.type	mbedtls_net_send, @function
mbedtls_net_send:
.LFB96:
	.loc 1 167 1
	.cfi_startproc
	addi	sp,sp,-48
	.cfi_def_cfa_offset 48
	sw	ra,44(sp)
	sw	s0,40(sp)
	.cfi_offset 1, -4
	.cfi_offset 8, -8
	addi	s0,sp,48
	.cfi_def_cfa 8, 0
	sw	a0,-36(s0)
	sw	a1,-40(s0)
	sw	a2,-44(s0)
	.loc 1 168 9
	li	a5,-110
	sw	a5,-20(s0)
	.loc 1 169 9
	lw	a5,-36(s0)
	lw	a5,0(a5)
	sw	a5,-24(s0)
	.loc 1 171 8
	lw	a5,-24(s0)
	bge	a5,zero,.L40
	.loc 1 172 16
	li	a5,-69
	j	.L41
.L40:
	.loc 1 175 16
	lw	a2,-44(s0)
	lw	a1,-40(s0)
	lw	a0,-24(s0)
	call	lwip_write
	sw	a0,-20(s0)
	.loc 1 177 8
	lw	a5,-20(s0)
	bge	a5,zero,.L42
	.loc 1 178 13
	lw	a0,-36(s0)
	call	net_would_block
	mv	a5,a0
	.loc 1 178 12 discriminator 1
	beq	a5,zero,.L43
	.loc 1 179 20
	li	a5,-28672
	addi	a5,a5,1920
	j	.L41
.L43:
	.loc 1 182 19
	lui	a5,%hi(errno)
	lw	a4,%lo(errno)(a5)
	.loc 1 182 12
	li	a5,32
	beq	a4,a5,.L44
	.loc 1 182 34 discriminator 1
	lui	a5,%hi(errno)
	lw	a4,%lo(errno)(a5)
	.loc 1 182 25 discriminator 1
	li	a5,104
	bne	a4,a5,.L45
.L44:
	.loc 1 183 13
	lui	a5,%hi(errno)
	lw	a5,%lo(errno)(a5)
	mv	a3,a5
	li	a2,183
	lui	a5,%hi(__FUNCTION__.1)
	addi	a1,a5,%lo(__FUNCTION__.1)
	lui	a5,%hi(.LC1)
	addi	a0,a5,%lo(.LC1)
	call	printf
	.loc 1 184 20
	li	a5,-80
	j	.L41
.L45:
	.loc 1 187 19
	lui	a5,%hi(errno)
	lw	a4,%lo(errno)(a5)
	.loc 1 187 12
	li	a5,4
	bne	a4,a5,.L46
	.loc 1 188 20
	li	a5,-28672
	addi	a5,a5,1920
	j	.L41
.L46:
	.loc 1 191 9
	lui	a5,%hi(errno)
	lw	a5,%lo(errno)(a5)
	mv	a3,a5
	li	a2,191
	lui	a5,%hi(__FUNCTION__.1)
	addi	a1,a5,%lo(__FUNCTION__.1)
	lui	a5,%hi(.LC2)
	addi	a0,a5,%lo(.LC2)
	call	printf
	.loc 1 192 16
	li	a5,-78
	j	.L41
.L42:
	.loc 1 195 12
	lw	a5,-20(s0)
.L41:
	.loc 1 196 1
	mv	a0,a5
	lw	ra,44(sp)
	.cfi_restore 1
	lw	s0,40(sp)
	.cfi_restore 8
	.cfi_def_cfa 2, 48
	addi	sp,sp,48
	.cfi_def_cfa_offset 0
	jr	ra
	.cfi_endproc
.LFE96:
	.size	mbedtls_net_send, .-mbedtls_net_send
	.section	.rodata
	.align	2
.LC3:
	.string	"%s %d: invalid socket fd\n"
	.align	2
.LC4:
	.string	"%s %d: net recv failed - errno: %d\n"
	.section	.text.mbedtls_net_recv,"ax",@progbits
	.align	1
	.globl	mbedtls_net_recv
	.type	mbedtls_net_recv, @function
mbedtls_net_recv:
.LFB97:
	.loc 1 200 1
	.cfi_startproc
	addi	sp,sp,-48
	.cfi_def_cfa_offset 48
	sw	ra,44(sp)
	sw	s0,40(sp)
	.cfi_offset 1, -4
	.cfi_offset 8, -8
	addi	s0,sp,48
	.cfi_def_cfa 8, 0
	sw	a0,-36(s0)
	sw	a1,-40(s0)
	sw	a2,-44(s0)
	.loc 1 201 9
	li	a5,-110
	sw	a5,-20(s0)
	.loc 1 202 9
	lw	a5,-36(s0)
	lw	a5,0(a5)
	sw	a5,-24(s0)
	.loc 1 204 8
	lw	a5,-24(s0)
	bge	a5,zero,.L48
	.loc 1 205 9
	li	a2,205
	lui	a5,%hi(__FUNCTION__.0)
	addi	a1,a5,%lo(__FUNCTION__.0)
	lui	a5,%hi(.LC3)
	addi	a0,a5,%lo(.LC3)
	call	printf
	.loc 1 206 16
	li	a5,-69
	j	.L49
.L48:
	.loc 1 209 16
	lw	a2,-44(s0)
	lw	a1,-40(s0)
	lw	a0,-24(s0)
	call	lwip_read
	sw	a0,-20(s0)
	.loc 1 211 8
	lw	a5,-20(s0)
	bge	a5,zero,.L50
	.loc 1 212 13
	lw	a0,-36(s0)
	call	net_would_block
	mv	a5,a0
	.loc 1 212 12 discriminator 1
	beq	a5,zero,.L51
	.loc 1 213 20
	li	a5,-28672
	addi	a5,a5,1792
	j	.L49
.L51:
	.loc 1 216 19
	lui	a5,%hi(errno)
	lw	a4,%lo(errno)(a5)
	.loc 1 216 12
	li	a5,32
	beq	a4,a5,.L52
	.loc 1 216 34 discriminator 1
	lui	a5,%hi(errno)
	lw	a4,%lo(errno)(a5)
	.loc 1 216 25 discriminator 1
	li	a5,104
	bne	a4,a5,.L53
.L52:
	.loc 1 217 13
	lui	a5,%hi(errno)
	lw	a5,%lo(errno)(a5)
	mv	a3,a5
	li	a2,217
	lui	a5,%hi(__FUNCTION__.0)
	addi	a1,a5,%lo(__FUNCTION__.0)
	lui	a5,%hi(.LC1)
	addi	a0,a5,%lo(.LC1)
	call	printf
	.loc 1 218 20
	li	a5,-80
	j	.L49
.L53:
	.loc 1 221 19
	lui	a5,%hi(errno)
	lw	a4,%lo(errno)(a5)
	.loc 1 221 12
	li	a5,4
	bne	a4,a5,.L54
	.loc 1 222 20
	li	a5,-28672
	addi	a5,a5,1792
	j	.L49
.L54:
	.loc 1 225 9
	lui	a5,%hi(errno)
	lw	a5,%lo(errno)(a5)
	mv	a3,a5
	li	a2,225
	lui	a5,%hi(__FUNCTION__.0)
	addi	a1,a5,%lo(__FUNCTION__.0)
	lui	a5,%hi(.LC4)
	addi	a0,a5,%lo(.LC4)
	call	printf
	.loc 1 226 16
	li	a5,-76
	j	.L49
.L50:
	.loc 1 229 12
	lw	a5,-20(s0)
.L49:
	.loc 1 230 1
	mv	a0,a5
	lw	ra,44(sp)
	.cfi_restore 1
	lw	s0,40(sp)
	.cfi_restore 8
	.cfi_def_cfa 2, 48
	addi	sp,sp,48
	.cfi_def_cfa_offset 0
	jr	ra
	.cfi_endproc
.LFE97:
	.size	mbedtls_net_recv, .-mbedtls_net_recv
	.section	.text.mbedtls_net_terminate,"ax",@progbits
	.align	1
	.globl	mbedtls_net_terminate
	.type	mbedtls_net_terminate, @function
mbedtls_net_terminate:
.LFB98:
	.loc 1 234 1
	.cfi_startproc
	addi	sp,sp,-32
	.cfi_def_cfa_offset 32
	sw	ra,28(sp)
	sw	s0,24(sp)
	.cfi_offset 1, -4
	.cfi_offset 8, -8
	addi	s0,sp,32
	.cfi_def_cfa 8, 0
	sw	a0,-20(s0)
	mv	a5,a1
	sb	a5,-21(s0)
	.loc 1 235 12
	lw	a5,-20(s0)
	lw	a4,0(a5)
	.loc 1 235 8
	li	a5,-1
	beq	a4,a5,.L59
	.loc 1 239 8
	lbu	a5,-21(s0)
	beq	a5,zero,.L58
	.loc 1 240 9
	lw	a5,-20(s0)
	lw	a5,0(a5)
	li	a1,2
	mv	a0,a5
	call	lwip_shutdown
.L58:
	.loc 1 243 5
	lw	a5,-20(s0)
	lw	a5,0(a5)
	mv	a0,a5
	call	lwip_close
	.loc 1 244 13
	lw	a5,-20(s0)
	li	a4,-1
	sw	a4,0(a5)
	j	.L55
.L59:
	.loc 1 236 9
	nop
.L55:
	.loc 1 245 1
	lw	ra,28(sp)
	.cfi_restore 1
	lw	s0,24(sp)
	.cfi_restore 8
	.cfi_def_cfa 2, 32
	addi	sp,sp,32
	.cfi_def_cfa_offset 0
	jr	ra
	.cfi_endproc
.LFE98:
	.size	mbedtls_net_terminate, .-mbedtls_net_terminate
	.section	.text.mbedtls_net_close,"ax",@progbits
	.align	1
	.globl	mbedtls_net_close
	.type	mbedtls_net_close, @function
mbedtls_net_close:
.LFB99:
	.loc 1 248 1
	.cfi_startproc
	addi	sp,sp,-32
	.cfi_def_cfa_offset 32
	sw	ra,28(sp)
	sw	s0,24(sp)
	.cfi_offset 1, -4
	.cfi_offset 8, -8
	addi	s0,sp,32
	.cfi_def_cfa 8, 0
	sw	a0,-20(s0)
	.loc 1 249 5
	li	a1,0
	lw	a0,-20(s0)
	call	mbedtls_net_terminate
	.loc 1 250 1
	nop
	lw	ra,28(sp)
	.cfi_restore 1
	lw	s0,24(sp)
	.cfi_restore 8
	.cfi_def_cfa 2, 32
	addi	sp,sp,32
	.cfi_def_cfa_offset 0
	jr	ra
	.cfi_endproc
.LFE99:
	.size	mbedtls_net_close, .-mbedtls_net_close
	.section	.text.mbedtls_net_free,"ax",@progbits
	.align	1
	.globl	mbedtls_net_free
	.type	mbedtls_net_free, @function
mbedtls_net_free:
.LFB100:
	.loc 1 253 1
	.cfi_startproc
	addi	sp,sp,-32
	.cfi_def_cfa_offset 32
	sw	ra,28(sp)
	sw	s0,24(sp)
	.cfi_offset 1, -4
	.cfi_offset 8, -8
	addi	s0,sp,32
	.cfi_def_cfa 8, 0
	sw	a0,-20(s0)
	.loc 1 254 5
	li	a1,1
	lw	a0,-20(s0)
	call	mbedtls_net_terminate
	.loc 1 255 1
	nop
	lw	ra,28(sp)
	.cfi_restore 1
	lw	s0,24(sp)
	.cfi_restore 8
	.cfi_def_cfa 2, 32
	addi	sp,sp,32
	.cfi_def_cfa_offset 0
	jr	ra
	.cfi_endproc
.LFE100:
	.size	mbedtls_net_free, .-mbedtls_net_free
	.section	.text.get_current_time_ms,"ax",@progbits
	.align	1
	.globl	get_current_time_ms
	.type	get_current_time_ms, @function
get_current_time_ms:
.LFB101:
	.loc 1 259 1
	.cfi_startproc
	addi	sp,sp,-16
	.cfi_def_cfa_offset 16
	sw	ra,12(sp)
	sw	s0,8(sp)
	.cfi_offset 1, -4
	.cfi_offset 8, -8
	addi	s0,sp,16
	.cfi_def_cfa 8, 0
	.loc 1 260 12
	call	bl_timer_now_us
	mv	a4,a0
	.loc 1 260 30 discriminator 1
	li	a5,274878464
	addi	a5,a5,-557
	mulhu	a5,a4,a5
	srli	a5,a5,6
	.loc 1 261 1
	mv	a0,a5
	lw	ra,12(sp)
	.cfi_restore 1
	lw	s0,8(sp)
	.cfi_restore 8
	.cfi_def_cfa 2, 16
	addi	sp,sp,16
	.cfi_def_cfa_offset 0
	jr	ra
	.cfi_endproc
.LFE101:
	.size	get_current_time_ms, .-get_current_time_ms
	.section	.text.mbedtls_timing_get_timer,"ax",@progbits
	.align	1
	.globl	mbedtls_timing_get_timer
	.type	mbedtls_timing_get_timer, @function
mbedtls_timing_get_timer:
.LFB102:
	.loc 1 264 1
	.cfi_startproc
	addi	sp,sp,-32
	.cfi_def_cfa_offset 32
	sw	ra,28(sp)
	sw	s0,24(sp)
	.cfi_offset 1, -4
	.cfi_offset 8, -8
	addi	s0,sp,32
	.cfi_def_cfa 8, 0
	sw	a0,-20(s0)
	sw	a1,-24(s0)
	.loc 1 265 8
	lw	a5,-24(s0)
	beq	a5,zero,.L65
	.loc 1 266 27
	call	get_current_time_ms
	mv	a5,a0
	.loc 1 266 27 is_stmt 0 discriminator 1
	mv	a4,a5
	.loc 1 266 25 is_stmt 1 discriminator 1
	lw	a5,-20(s0)
	sw	a4,0(a5)
	.loc 1 267 16
	li	a5,0
	j	.L66
.L65:
	.loc 1 269 16
	call	get_current_time_ms
	mv	a5,a0
	.loc 1 269 16 is_stmt 0 discriminator 1
	mv	a4,a5
	.loc 1 269 43 is_stmt 1 discriminator 1
	lw	a5,-20(s0)
	lw	a5,0(a5)
	.loc 1 269 38 discriminator 1
	sub	a5,a4,a5
.L66:
	.loc 1 271 1
	mv	a0,a5
	lw	ra,28(sp)
	.cfi_restore 1
	lw	s0,24(sp)
	.cfi_restore 8
	.cfi_def_cfa 2, 32
	addi	sp,sp,32
	.cfi_def_cfa_offset 0
	jr	ra
	.cfi_endproc
.LFE102:
	.size	mbedtls_timing_get_timer, .-mbedtls_timing_get_timer
	.section	.text.mbedtls_timing_set_delay,"ax",@progbits
	.align	1
	.globl	mbedtls_timing_set_delay
	.type	mbedtls_timing_set_delay, @function
mbedtls_timing_set_delay:
.LFB103:
	.loc 1 274 1
	.cfi_startproc
	addi	sp,sp,-48
	.cfi_def_cfa_offset 48
	sw	ra,44(sp)
	sw	s0,40(sp)
	.cfi_offset 1, -4
	.cfi_offset 8, -8
	addi	s0,sp,48
	.cfi_def_cfa 8, 0
	sw	a0,-36(s0)
	sw	a1,-40(s0)
	sw	a2,-44(s0)
	.loc 1 275 35
	lw	a5,-36(s0)
	sw	a5,-20(s0)
	.loc 1 276 17
	lw	a5,-20(s0)
	lw	a4,-40(s0)
	sw	a4,4(a5)
	.loc 1 277 17
	lw	a5,-20(s0)
	lw	a4,-44(s0)
	sw	a4,8(a5)
	.loc 1 279 8
	lw	a5,-44(s0)
	beq	a5,zero,.L69
	.loc 1 280 9
	lw	a5,-20(s0)
	li	a1,1
	mv	a0,a5
	call	mbedtls_timing_get_timer
.L69:
	.loc 1 282 1
	nop
	lw	ra,44(sp)
	.cfi_restore 1
	lw	s0,40(sp)
	.cfi_restore 8
	.cfi_def_cfa 2, 48
	addi	sp,sp,48
	.cfi_def_cfa_offset 0
	jr	ra
	.cfi_endproc
.LFE103:
	.size	mbedtls_timing_set_delay, .-mbedtls_timing_set_delay
	.section	.text.mbedtls_timing_get_delay,"ax",@progbits
	.align	1
	.globl	mbedtls_timing_get_delay
	.type	mbedtls_timing_get_delay, @function
mbedtls_timing_get_delay:
.LFB104:
	.loc 1 285 1
	.cfi_startproc
	addi	sp,sp,-48
	.cfi_def_cfa_offset 48
	sw	ra,44(sp)
	sw	s0,40(sp)
	.cfi_offset 1, -4
	.cfi_offset 8, -8
	addi	s0,sp,48
	.cfi_def_cfa 8, 0
	sw	a0,-36(s0)
	.loc 1 286 35
	lw	a5,-36(s0)
	sw	a5,-20(s0)
	.loc 1 289 12
	lw	a5,-20(s0)
	lw	a5,8(a5)
	.loc 1 289 8
	bne	a5,zero,.L71
	.loc 1 290 16
	li	a5,-1
	j	.L72
.L71:
	.loc 1 293 18
	lw	a5,-20(s0)
	li	a1,0
	mv	a0,a5
	call	mbedtls_timing_get_timer
	sw	a0,-24(s0)
	.loc 1 295 26
	lw	a5,-20(s0)
	lw	a5,8(a5)
	.loc 1 295 8
	lw	a4,-24(s0)
	bltu	a4,a5,.L73
	.loc 1 296 16
	li	a5,2
	j	.L72
.L73:
	.loc 1 297 33
	lw	a5,-20(s0)
	lw	a5,4(a5)
	.loc 1 297 15
	lw	a4,-24(s0)
	bltu	a4,a5,.L74
	.loc 1 298 16
	li	a5,1
	j	.L72
.L74:
	.loc 1 300 16
	li	a5,0
.L72:
	.loc 1 302 1
	mv	a0,a5
	lw	ra,44(sp)
	.cfi_restore 1
	lw	s0,40(sp)
	.cfi_restore 8
	.cfi_def_cfa 2, 48
	addi	sp,sp,48
	.cfi_def_cfa_offset 0
	jr	ra
	.cfi_endproc
.LFE104:
	.size	mbedtls_timing_get_delay, .-mbedtls_timing_get_delay
	.section	.rodata.__FUNCTION__.2,"a"
	.align	2
	.type	__FUNCTION__.2, @object
	.size	__FUNCTION__.2, 20
__FUNCTION__.2:
	.string	"mbedtls_net_connect"
	.section	.rodata.__FUNCTION__.1,"a"
	.align	2
	.type	__FUNCTION__.1, @object
	.size	__FUNCTION__.1, 17
__FUNCTION__.1:
	.string	"mbedtls_net_send"
	.section	.rodata.__FUNCTION__.0,"a"
	.align	2
	.type	__FUNCTION__.0, @object
	.size	__FUNCTION__.0, 17
__FUNCTION__.0:
	.string	"mbedtls_net_recv"
	.text
.Letext0:
	.file 2 "/home/chandu/sdk/bl602_iot_sdk/toolchain/compiler/lib/gcc/riscv32-unknown-elf/15.1.0/include/stddef.h"
	.file 3 "/home/chandu/sdk/bl602_iot_sdk/toolchain/compiler/riscv32-unknown-elf/include/sys/_types.h"
	.file 4 "/home/chandu/sdk/bl602_iot_sdk/toolchain/compiler/riscv32-unknown-elf/include/stdio.h"
	.file 5 "/home/chandu/sdk/bl602_iot_sdk/toolchain/compiler/lib/gcc/riscv32-unknown-elf/15.1.0/include/stdint-gcc.h"
	.file 6 "/home/chandu/sdk/bl602_iot_sdk/components/network/lwip/src/include/lwip/arch.h"
	.file 7 "/home/chandu/sdk/bl602_iot_sdk/components/network/lwip/src/include/lwip/sockets.h"
	.file 8 "/home/chandu/sdk/bl602_iot_sdk/components/network/lwip/src/include/lwip/netdb.h"
	.file 9 "/home/chandu/sdk/bl602_iot_sdk/components/security/mbedtls-bl602/include/mbedtls/net_sockets.h"
	.file 10 "/home/chandu/sdk/bl602_iot_sdk/components/security/mbedtls-bl602/include/mbedtls/bl602_port.h"
	.file 11 "/home/chandu/sdk/bl602_iot_sdk/toolchain/compiler/riscv32-unknown-elf/include/string.h"
	.file 12 "/home/chandu/sdk/bl602_iot_sdk/components/hal_drv/bl602_hal/bl_timer.h"
	.file 13 "/home/chandu/sdk/bl602_iot_sdk/components/network/lwip/src/include/lwip/errno.h"
	.section	.note.GNU-stack,"",@progbits
