	.file	"cipher_wrap.c"
	.option nopic
	.attribute arch, "rv32i2p1_m2p0_f2p2_c2p0_zicsr2p0_zmmul1p0_zca1p0_zcf1p0"
	.attribute unaligned_access, 0
	.attribute stack_align, 16
	.text
.Ltext0:
	.cfi_sections	.debug_frame
	.file 0 "/home/chandu/sdk/bl602_iot_sdk/customer_app/suas_app_pqkem_gateway/build_out/mbedtls-bl602" "/home/chandu/sdk/bl602_iot_sdk/components/security/mbedtls-bl602/library/cipher_wrap.c"
	.section	.text.gcm_ctx_alloc,"ax",@progbits
	.align	1
	.type	gcm_ctx_alloc, @function
gcm_ctx_alloc:
.LFB30:
	.file 1 "/home/chandu/sdk/bl602_iot_sdk/components/security/mbedtls-bl602/library/cipher_wrap.c"
	.loc 1 122 1
	.cfi_startproc
	addi	sp,sp,-32
	.cfi_def_cfa_offset 32
	sw	ra,28(sp)
	sw	s0,24(sp)
	.cfi_offset 1, -4
	.cfi_offset 8, -8
	addi	s0,sp,32
	.cfi_def_cfa 8, 0
	.loc 1 123 17
	li	a5,4096
	addi	a1,a5,144
	li	a0,1
	call	calloc
	mv	a5,a0
	sw	a5,-20(s0)
	.loc 1 125 8
	lw	a5,-20(s0)
	beq	a5,zero,.L2
	.loc 1 126 9
	lw	a0,-20(s0)
	call	mbedtls_gcm_init
.L2:
	.loc 1 129 12
	lw	a5,-20(s0)
	.loc 1 130 1
	mv	a0,a5
	lw	ra,28(sp)
	.cfi_restore 1
	lw	s0,24(sp)
	.cfi_restore 8
	.cfi_def_cfa 2, 32
	addi	sp,sp,32
	.cfi_def_cfa_offset 0
	jr	ra
	.cfi_endproc
.LFE30:
	.size	gcm_ctx_alloc, .-gcm_ctx_alloc
	.section	.text.gcm_ctx_free,"ax",@progbits
	.align	1
	.type	gcm_ctx_free, @function
gcm_ctx_free:
.LFB31:
	.loc 1 133 1
	.cfi_startproc
	addi	sp,sp,-32
	.cfi_def_cfa_offset 32
	sw	ra,28(sp)
	sw	s0,24(sp)
	.cfi_offset 1, -4
	.cfi_offset 8, -8
	addi	s0,sp,32
	.cfi_def_cfa 8, 0
	sw	a0,-20(s0)
	.loc 1 134 5
	lw	a0,-20(s0)
	call	mbedtls_gcm_free
	.loc 1 135 5
	lw	a0,-20(s0)
	call	free
	.loc 1 136 1
	nop
	lw	ra,28(sp)
	.cfi_restore 1
	lw	s0,24(sp)
	.cfi_restore 8
	.cfi_def_cfa 2, 32
	addi	sp,sp,32
	.cfi_def_cfa_offset 0
	jr	ra
	.cfi_endproc
.LFE31:
	.size	gcm_ctx_free, .-gcm_ctx_free
	.section	.text.ccm_ctx_alloc,"ax",@progbits
	.align	1
	.type	ccm_ctx_alloc, @function
ccm_ctx_alloc:
.LFB32:
	.loc 1 144 1
	.cfi_startproc
	addi	sp,sp,-32
	.cfi_def_cfa_offset 32
	sw	ra,28(sp)
	sw	s0,24(sp)
	.cfi_offset 1, -4
	.cfi_offset 8, -8
	addi	s0,sp,32
	.cfi_def_cfa 8, 0
	.loc 1 145 17
	li	a1,128
	li	a0,1
	call	calloc
	mv	a5,a0
	sw	a5,-20(s0)
	.loc 1 147 8
	lw	a5,-20(s0)
	beq	a5,zero,.L6
	.loc 1 148 9
	lw	a0,-20(s0)
	call	mbedtls_ccm_init
.L6:
	.loc 1 151 12
	lw	a5,-20(s0)
	.loc 1 152 1
	mv	a0,a5
	lw	ra,28(sp)
	.cfi_restore 1
	lw	s0,24(sp)
	.cfi_restore 8
	.cfi_def_cfa 2, 32
	addi	sp,sp,32
	.cfi_def_cfa_offset 0
	jr	ra
	.cfi_endproc
.LFE32:
	.size	ccm_ctx_alloc, .-ccm_ctx_alloc
	.section	.text.ccm_ctx_free,"ax",@progbits
	.align	1
	.type	ccm_ctx_free, @function
ccm_ctx_free:
.LFB33:
	.loc 1 155 1
	.cfi_startproc
	addi	sp,sp,-32
	.cfi_def_cfa_offset 32
	sw	ra,28(sp)
	sw	s0,24(sp)
	.cfi_offset 1, -4
	.cfi_offset 8, -8
	addi	s0,sp,32
	.cfi_def_cfa 8, 0
	sw	a0,-20(s0)
	.loc 1 156 5
	lw	a0,-20(s0)
	call	mbedtls_ccm_free
	.loc 1 157 5
	lw	a0,-20(s0)
	call	free
	.loc 1 158 1
	nop
	lw	ra,28(sp)
	.cfi_restore 1
	lw	s0,24(sp)
	.cfi_restore 8
	.cfi_def_cfa 2, 32
	addi	sp,sp,32
	.cfi_def_cfa_offset 0
	jr	ra
	.cfi_endproc
.LFE33:
	.size	ccm_ctx_free, .-ccm_ctx_free
	.section	.text.aes_crypt_ecb_wrap,"ax",@progbits
	.align	1
	.type	aes_crypt_ecb_wrap, @function
aes_crypt_ecb_wrap:
.LFB34:
	.loc 1 165 1
	.cfi_startproc
	addi	sp,sp,-32
	.cfi_def_cfa_offset 32
	sw	ra,28(sp)
	sw	s0,24(sp)
	.cfi_offset 1, -4
	.cfi_offset 8, -8
	addi	s0,sp,32
	.cfi_def_cfa 8, 0
	sw	a0,-20(s0)
	mv	a5,a1
	sw	a2,-28(s0)
	sw	a3,-32(s0)
	sb	a5,-21(s0)
	.loc 1 166 12
	lb	a5,-21(s0)
	lw	a3,-32(s0)
	lw	a2,-28(s0)
	mv	a1,a5
	lw	a0,-20(s0)
	call	mbedtls_aes_crypt_ecb
	mv	a5,a0
	.loc 1 167 1
	mv	a0,a5
	lw	ra,28(sp)
	.cfi_restore 1
	lw	s0,24(sp)
	.cfi_restore 8
	.cfi_def_cfa 2, 32
	addi	sp,sp,32
	.cfi_def_cfa_offset 0
	jr	ra
	.cfi_endproc
.LFE34:
	.size	aes_crypt_ecb_wrap, .-aes_crypt_ecb_wrap
	.section	.text.aes_crypt_cbc_wrap,"ax",@progbits
	.align	1
	.type	aes_crypt_cbc_wrap, @function
aes_crypt_cbc_wrap:
.LFB35:
	.loc 1 172 1
	.cfi_startproc
	addi	sp,sp,-48
	.cfi_def_cfa_offset 48
	sw	ra,44(sp)
	sw	s0,40(sp)
	.cfi_offset 1, -4
	.cfi_offset 8, -8
	addi	s0,sp,48
	.cfi_def_cfa 8, 0
	sw	a0,-20(s0)
	sw	a2,-28(s0)
	sw	a3,-32(s0)
	sw	a4,-36(s0)
	sw	a5,-40(s0)
	mv	a5,a1
	sb	a5,-21(s0)
	.loc 1 173 12
	lb	a1,-21(s0)
	lw	a5,-40(s0)
	lw	a4,-36(s0)
	lw	a3,-32(s0)
	lw	a2,-28(s0)
	lw	a0,-20(s0)
	call	mbedtls_aes_crypt_cbc
	mv	a5,a0
	.loc 1 175 1
	mv	a0,a5
	lw	ra,44(sp)
	.cfi_restore 1
	lw	s0,40(sp)
	.cfi_restore 8
	.cfi_def_cfa 2, 48
	addi	sp,sp,48
	.cfi_def_cfa_offset 0
	jr	ra
	.cfi_endproc
.LFE35:
	.size	aes_crypt_cbc_wrap, .-aes_crypt_cbc_wrap
	.section	.text.aes_crypt_cfb128_wrap,"ax",@progbits
	.align	1
	.type	aes_crypt_cfb128_wrap, @function
aes_crypt_cfb128_wrap:
.LFB36:
	.loc 1 182 1
	.cfi_startproc
	addi	sp,sp,-48
	.cfi_def_cfa_offset 48
	sw	ra,44(sp)
	sw	s0,40(sp)
	.cfi_offset 1, -4
	.cfi_offset 8, -8
	addi	s0,sp,48
	.cfi_def_cfa 8, 0
	sw	a0,-20(s0)
	sw	a2,-28(s0)
	sw	a3,-32(s0)
	sw	a4,-36(s0)
	sw	a5,-40(s0)
	sw	a6,-44(s0)
	mv	a5,a1
	sb	a5,-21(s0)
	.loc 1 183 12
	lb	a1,-21(s0)
	lw	a6,-44(s0)
	lw	a5,-40(s0)
	lw	a4,-36(s0)
	lw	a3,-32(s0)
	lw	a2,-28(s0)
	lw	a0,-20(s0)
	call	mbedtls_aes_crypt_cfb128
	mv	a5,a0
	.loc 1 185 1
	mv	a0,a5
	lw	ra,44(sp)
	.cfi_restore 1
	lw	s0,40(sp)
	.cfi_restore 8
	.cfi_def_cfa 2, 48
	addi	sp,sp,48
	.cfi_def_cfa_offset 0
	jr	ra
	.cfi_endproc
.LFE36:
	.size	aes_crypt_cfb128_wrap, .-aes_crypt_cfb128_wrap
	.section	.text.aes_crypt_ofb_wrap,"ax",@progbits
	.align	1
	.type	aes_crypt_ofb_wrap, @function
aes_crypt_ofb_wrap:
.LFB37:
	.loc 1 191 1
	.cfi_startproc
	addi	sp,sp,-48
	.cfi_def_cfa_offset 48
	sw	ra,44(sp)
	sw	s0,40(sp)
	.cfi_offset 1, -4
	.cfi_offset 8, -8
	addi	s0,sp,48
	.cfi_def_cfa 8, 0
	sw	a0,-20(s0)
	sw	a1,-24(s0)
	sw	a2,-28(s0)
	sw	a3,-32(s0)
	sw	a4,-36(s0)
	sw	a5,-40(s0)
	.loc 1 192 12
	lw	a5,-40(s0)
	lw	a4,-36(s0)
	lw	a3,-32(s0)
	lw	a2,-28(s0)
	lw	a1,-24(s0)
	lw	a0,-20(s0)
	call	mbedtls_aes_crypt_ofb
	mv	a5,a0
	.loc 1 194 1
	mv	a0,a5
	lw	ra,44(sp)
	.cfi_restore 1
	lw	s0,40(sp)
	.cfi_restore 8
	.cfi_def_cfa 2, 48
	addi	sp,sp,48
	.cfi_def_cfa_offset 0
	jr	ra
	.cfi_endproc
.LFE37:
	.size	aes_crypt_ofb_wrap, .-aes_crypt_ofb_wrap
	.section	.text.aes_crypt_ctr_wrap,"ax",@progbits
	.align	1
	.type	aes_crypt_ctr_wrap, @function
aes_crypt_ctr_wrap:
.LFB38:
	.loc 1 201 1
	.cfi_startproc
	addi	sp,sp,-48
	.cfi_def_cfa_offset 48
	sw	ra,44(sp)
	sw	s0,40(sp)
	.cfi_offset 1, -4
	.cfi_offset 8, -8
	addi	s0,sp,48
	.cfi_def_cfa 8, 0
	sw	a0,-20(s0)
	sw	a1,-24(s0)
	sw	a2,-28(s0)
	sw	a3,-32(s0)
	sw	a4,-36(s0)
	sw	a5,-40(s0)
	sw	a6,-44(s0)
	.loc 1 202 12
	lw	a6,-44(s0)
	lw	a5,-40(s0)
	lw	a4,-36(s0)
	lw	a3,-32(s0)
	lw	a2,-28(s0)
	lw	a1,-24(s0)
	lw	a0,-20(s0)
	call	mbedtls_aes_crypt_ctr
	mv	a5,a0
	.loc 1 204 1
	mv	a0,a5
	lw	ra,44(sp)
	.cfi_restore 1
	lw	s0,40(sp)
	.cfi_restore 8
	.cfi_def_cfa 2, 48
	addi	sp,sp,48
	.cfi_def_cfa_offset 0
	jr	ra
	.cfi_endproc
.LFE38:
	.size	aes_crypt_ctr_wrap, .-aes_crypt_ctr_wrap
	.section	.text.aes_setkey_dec_wrap,"ax",@progbits
	.align	1
	.type	aes_setkey_dec_wrap, @function
aes_setkey_dec_wrap:
.LFB39:
	.loc 1 236 1
	.cfi_startproc
	addi	sp,sp,-32
	.cfi_def_cfa_offset 32
	sw	ra,28(sp)
	sw	s0,24(sp)
	.cfi_offset 1, -4
	.cfi_offset 8, -8
	addi	s0,sp,32
	.cfi_def_cfa 8, 0
	sw	a0,-20(s0)
	sw	a1,-24(s0)
	sw	a2,-28(s0)
	.loc 1 237 12
	lw	a2,-28(s0)
	lw	a1,-24(s0)
	lw	a0,-20(s0)
	call	mbedtls_aes_setkey_dec
	mv	a5,a0
	.loc 1 238 1
	mv	a0,a5
	lw	ra,28(sp)
	.cfi_restore 1
	lw	s0,24(sp)
	.cfi_restore 8
	.cfi_def_cfa 2, 32
	addi	sp,sp,32
	.cfi_def_cfa_offset 0
	jr	ra
	.cfi_endproc
.LFE39:
	.size	aes_setkey_dec_wrap, .-aes_setkey_dec_wrap
	.section	.text.aes_setkey_enc_wrap,"ax",@progbits
	.align	1
	.type	aes_setkey_enc_wrap, @function
aes_setkey_enc_wrap:
.LFB40:
	.loc 1 243 1
	.cfi_startproc
	addi	sp,sp,-32
	.cfi_def_cfa_offset 32
	sw	ra,28(sp)
	sw	s0,24(sp)
	.cfi_offset 1, -4
	.cfi_offset 8, -8
	addi	s0,sp,32
	.cfi_def_cfa 8, 0
	sw	a0,-20(s0)
	sw	a1,-24(s0)
	sw	a2,-28(s0)
	.loc 1 244 12
	lw	a2,-28(s0)
	lw	a1,-24(s0)
	lw	a0,-20(s0)
	call	mbedtls_aes_setkey_enc
	mv	a5,a0
	.loc 1 245 1
	mv	a0,a5
	lw	ra,28(sp)
	.cfi_restore 1
	lw	s0,24(sp)
	.cfi_restore 8
	.cfi_def_cfa 2, 32
	addi	sp,sp,32
	.cfi_def_cfa_offset 0
	jr	ra
	.cfi_endproc
.LFE40:
	.size	aes_setkey_enc_wrap, .-aes_setkey_enc_wrap
	.section	.text.aes_ctx_alloc,"ax",@progbits
	.align	1
	.type	aes_ctx_alloc, @function
aes_ctx_alloc:
.LFB41:
	.loc 1 248 1
	.cfi_startproc
	addi	sp,sp,-32
	.cfi_def_cfa_offset 32
	sw	ra,28(sp)
	sw	s0,24(sp)
	.cfi_offset 1, -4
	.cfi_offset 8, -8
	addi	s0,sp,32
	.cfi_def_cfa 8, 0
	.loc 1 249 32
	li	a1,280
	li	a0,1
	call	calloc
	mv	a5,a0
	sw	a5,-20(s0)
	.loc 1 251 8
	lw	a5,-20(s0)
	bne	a5,zero,.L24
	.loc 1 252 15
	li	a5,0
	j	.L25
.L24:
	.loc 1 255 5
	lw	a0,-20(s0)
	call	mbedtls_aes_init
	.loc 1 257 12
	lw	a5,-20(s0)
.L25:
	.loc 1 258 1
	mv	a0,a5
	lw	ra,28(sp)
	.cfi_restore 1
	lw	s0,24(sp)
	.cfi_restore 8
	.cfi_def_cfa 2, 32
	addi	sp,sp,32
	.cfi_def_cfa_offset 0
	jr	ra
	.cfi_endproc
.LFE41:
	.size	aes_ctx_alloc, .-aes_ctx_alloc
	.section	.text.aes_ctx_free,"ax",@progbits
	.align	1
	.type	aes_ctx_free, @function
aes_ctx_free:
.LFB42:
	.loc 1 261 1
	.cfi_startproc
	addi	sp,sp,-32
	.cfi_def_cfa_offset 32
	sw	ra,28(sp)
	sw	s0,24(sp)
	.cfi_offset 1, -4
	.cfi_offset 8, -8
	addi	s0,sp,32
	.cfi_def_cfa 8, 0
	sw	a0,-20(s0)
	.loc 1 262 5
	lw	a0,-20(s0)
	call	mbedtls_aes_free
	.loc 1 263 5
	lw	a0,-20(s0)
	call	free
	.loc 1 264 1
	nop
	lw	ra,28(sp)
	.cfi_restore 1
	lw	s0,24(sp)
	.cfi_restore 8
	.cfi_def_cfa 2, 32
	addi	sp,sp,32
	.cfi_def_cfa_offset 0
	jr	ra
	.cfi_endproc
.LFE42:
	.size	aes_ctx_free, .-aes_ctx_free
	.section	.rodata.aes_info,"a"
	.align	2
	.type	aes_info, @object
	.size	aes_info, 44
aes_info:
	.byte	2
	.zero	3
	.word	aes_crypt_ecb_wrap
	.word	aes_crypt_cbc_wrap
	.word	aes_crypt_cfb128_wrap
	.word	aes_crypt_ofb_wrap
	.word	aes_crypt_ctr_wrap
	.word	0
	.word	aes_setkey_enc_wrap
	.word	aes_setkey_dec_wrap
	.word	aes_ctx_alloc
	.word	aes_ctx_free
	.section	.rodata
	.align	2
.LC0:
	.string	"AES-128-ECB"
	.section	.srodata.aes_128_ecb_info,"a"
	.align	2
	.type	aes_128_ecb_info, @object
	.size	aes_128_ecb_info, 8
aes_128_ecb_info:
	.word	.LC0
	.byte	16
	.byte	18
	.byte	2
	.byte	0
	.section	.rodata
	.align	2
.LC1:
	.string	"AES-192-ECB"
	.section	.srodata.aes_192_ecb_info,"a"
	.align	2
	.type	aes_192_ecb_info, @object
	.size	aes_192_ecb_info, 8
aes_192_ecb_info:
	.word	.LC1
	.byte	16
	.byte	19
	.byte	3
	.byte	0
	.section	.rodata
	.align	2
.LC2:
	.string	"AES-256-ECB"
	.section	.srodata.aes_256_ecb_info,"a"
	.align	2
	.type	aes_256_ecb_info, @object
	.size	aes_256_ecb_info, 8
aes_256_ecb_info:
	.word	.LC2
	.byte	16
	.byte	20
	.byte	4
	.byte	0
	.section	.rodata
	.align	2
.LC3:
	.string	"AES-128-CBC"
	.section	.srodata.aes_128_cbc_info,"a"
	.align	2
	.type	aes_128_cbc_info, @object
	.size	aes_128_cbc_info, 8
aes_128_cbc_info:
	.word	.LC3
	.byte	144
	.byte	34
	.byte	5
	.byte	0
	.section	.rodata
	.align	2
.LC4:
	.string	"AES-192-CBC"
	.section	.srodata.aes_192_cbc_info,"a"
	.align	2
	.type	aes_192_cbc_info, @object
	.size	aes_192_cbc_info, 8
aes_192_cbc_info:
	.word	.LC4
	.byte	144
	.byte	35
	.byte	6
	.byte	0
	.section	.rodata
	.align	2
.LC5:
	.string	"AES-256-CBC"
	.section	.srodata.aes_256_cbc_info,"a"
	.align	2
	.type	aes_256_cbc_info, @object
	.size	aes_256_cbc_info, 8
aes_256_cbc_info:
	.word	.LC5
	.byte	144
	.byte	36
	.byte	7
	.byte	0
	.section	.rodata
	.align	2
.LC6:
	.string	"AES-128-CFB128"
	.section	.srodata.aes_128_cfb128_info,"a"
	.align	2
	.type	aes_128_cfb128_info, @object
	.size	aes_128_cfb128_info, 8
aes_128_cfb128_info:
	.word	.LC6
	.byte	144
	.byte	50
	.byte	8
	.byte	0
	.section	.rodata
	.align	2
.LC7:
	.string	"AES-192-CFB128"
	.section	.srodata.aes_192_cfb128_info,"a"
	.align	2
	.type	aes_192_cfb128_info, @object
	.size	aes_192_cfb128_info, 8
aes_192_cfb128_info:
	.word	.LC7
	.byte	144
	.byte	51
	.byte	9
	.byte	0
	.section	.rodata
	.align	2
.LC8:
	.string	"AES-256-CFB128"
	.section	.srodata.aes_256_cfb128_info,"a"
	.align	2
	.type	aes_256_cfb128_info, @object
	.size	aes_256_cfb128_info, 8
aes_256_cfb128_info:
	.word	.LC8
	.byte	144
	.byte	52
	.byte	10
	.byte	0
	.section	.rodata
	.align	2
.LC9:
	.string	"AES-128-OFB"
	.section	.srodata.aes_128_ofb_info,"a"
	.align	2
	.type	aes_128_ofb_info, @object
	.size	aes_128_ofb_info, 8
aes_128_ofb_info:
	.word	.LC9
	.byte	144
	.byte	66
	.byte	71
	.byte	0
	.section	.rodata
	.align	2
.LC10:
	.string	"AES-192-OFB"
	.section	.srodata.aes_192_ofb_info,"a"
	.align	2
	.type	aes_192_ofb_info, @object
	.size	aes_192_ofb_info, 8
aes_192_ofb_info:
	.word	.LC10
	.byte	144
	.byte	67
	.byte	72
	.byte	0
	.section	.rodata
	.align	2
.LC11:
	.string	"AES-256-OFB"
	.section	.srodata.aes_256_ofb_info,"a"
	.align	2
	.type	aes_256_ofb_info, @object
	.size	aes_256_ofb_info, 8
aes_256_ofb_info:
	.word	.LC11
	.byte	144
	.byte	68
	.byte	73
	.byte	0
	.section	.rodata
	.align	2
.LC12:
	.string	"AES-128-CTR"
	.section	.srodata.aes_128_ctr_info,"a"
	.align	2
	.type	aes_128_ctr_info, @object
	.size	aes_128_ctr_info, 8
aes_128_ctr_info:
	.word	.LC12
	.byte	144
	.byte	82
	.byte	11
	.byte	0
	.section	.rodata
	.align	2
.LC13:
	.string	"AES-192-CTR"
	.section	.srodata.aes_192_ctr_info,"a"
	.align	2
	.type	aes_192_ctr_info, @object
	.size	aes_192_ctr_info, 8
aes_192_ctr_info:
	.word	.LC13
	.byte	144
	.byte	83
	.byte	12
	.byte	0
	.section	.rodata
	.align	2
.LC14:
	.string	"AES-256-CTR"
	.section	.srodata.aes_256_ctr_info,"a"
	.align	2
	.type	aes_256_ctr_info, @object
	.size	aes_256_ctr_info, 8
aes_256_ctr_info:
	.word	.LC14
	.byte	144
	.byte	84
	.byte	13
	.byte	0
	.section	.text.gcm_aes_setkey_wrap,"ax",@progbits
	.align	1
	.type	gcm_aes_setkey_wrap, @function
gcm_aes_setkey_wrap:
.LFB43:
	.loc 1 572 1
	.cfi_startproc
	addi	sp,sp,-32
	.cfi_def_cfa_offset 32
	sw	ra,28(sp)
	sw	s0,24(sp)
	.cfi_offset 1, -4
	.cfi_offset 8, -8
	addi	s0,sp,32
	.cfi_def_cfa 8, 0
	sw	a0,-20(s0)
	sw	a1,-24(s0)
	sw	a2,-28(s0)
	.loc 1 573 12
	lw	a3,-28(s0)
	lw	a2,-24(s0)
	li	a1,2
	lw	a0,-20(s0)
	call	mbedtls_gcm_setkey
	mv	a5,a0
	.loc 1 575 1
	mv	a0,a5
	lw	ra,28(sp)
	.cfi_restore 1
	lw	s0,24(sp)
	.cfi_restore 8
	.cfi_def_cfa 2, 32
	addi	sp,sp,32
	.cfi_def_cfa_offset 0
	jr	ra
	.cfi_endproc
.LFE43:
	.size	gcm_aes_setkey_wrap, .-gcm_aes_setkey_wrap
	.section	.rodata.gcm_aes_info,"a"
	.align	2
	.type	gcm_aes_info, @object
	.size	gcm_aes_info, 44
gcm_aes_info:
	.byte	2
	.zero	3
	.word	0
	.word	0
	.word	0
	.word	0
	.word	0
	.word	0
	.word	gcm_aes_setkey_wrap
	.word	gcm_aes_setkey_wrap
	.word	gcm_ctx_alloc
	.word	gcm_ctx_free
	.section	.rodata
	.align	2
.LC15:
	.string	"AES-128-GCM"
	.section	.srodata.aes_128_gcm_info,"a"
	.align	2
	.type	aes_128_gcm_info, @object
	.size	aes_128_gcm_info, 8
aes_128_gcm_info:
	.word	.LC15
	.byte	112
	.byte	98
	.byte	14
	.byte	25
	.section	.rodata
	.align	2
.LC16:
	.string	"AES-192-GCM"
	.section	.srodata.aes_192_gcm_info,"a"
	.align	2
	.type	aes_192_gcm_info, @object
	.size	aes_192_gcm_info, 8
aes_192_gcm_info:
	.word	.LC16
	.byte	112
	.byte	99
	.byte	15
	.byte	25
	.section	.rodata
	.align	2
.LC17:
	.string	"AES-256-GCM"
	.section	.srodata.aes_256_gcm_info,"a"
	.align	2
	.type	aes_256_gcm_info, @object
	.size	aes_256_gcm_info, 8
aes_256_gcm_info:
	.word	.LC17
	.byte	112
	.byte	100
	.byte	16
	.byte	25
	.section	.text.ccm_aes_setkey_wrap,"ax",@progbits
	.align	1
	.type	ccm_aes_setkey_wrap, @function
ccm_aes_setkey_wrap:
.LFB44:
	.loc 1 656 1
	.cfi_startproc
	addi	sp,sp,-32
	.cfi_def_cfa_offset 32
	sw	ra,28(sp)
	sw	s0,24(sp)
	.cfi_offset 1, -4
	.cfi_offset 8, -8
	addi	s0,sp,32
	.cfi_def_cfa 8, 0
	sw	a0,-20(s0)
	sw	a1,-24(s0)
	sw	a2,-28(s0)
	.loc 1 657 12
	lw	a3,-28(s0)
	lw	a2,-24(s0)
	li	a1,2
	lw	a0,-20(s0)
	call	mbedtls_ccm_setkey
	mv	a5,a0
	.loc 1 659 1
	mv	a0,a5
	lw	ra,28(sp)
	.cfi_restore 1
	lw	s0,24(sp)
	.cfi_restore 8
	.cfi_def_cfa 2, 32
	addi	sp,sp,32
	.cfi_def_cfa_offset 0
	jr	ra
	.cfi_endproc
.LFE44:
	.size	ccm_aes_setkey_wrap, .-ccm_aes_setkey_wrap
	.section	.rodata.ccm_aes_info,"a"
	.align	2
	.type	ccm_aes_info, @object
	.size	ccm_aes_info, 44
ccm_aes_info:
	.byte	2
	.zero	3
	.word	0
	.word	0
	.word	0
	.word	0
	.word	0
	.word	0
	.word	ccm_aes_setkey_wrap
	.word	ccm_aes_setkey_wrap
	.word	ccm_ctx_alloc
	.word	ccm_ctx_free
	.section	.rodata
	.align	2
.LC18:
	.string	"AES-128-CCM"
	.section	.srodata.aes_128_ccm_info,"a"
	.align	2
	.type	aes_128_ccm_info, @object
	.size	aes_128_ccm_info, 8
aes_128_ccm_info:
	.word	.LC18
	.byte	112
	.byte	130
	.byte	38
	.byte	5
	.section	.rodata
	.align	2
.LC19:
	.string	"AES-192-CCM"
	.section	.srodata.aes_192_ccm_info,"a"
	.align	2
	.type	aes_192_ccm_info, @object
	.size	aes_192_ccm_info, 8
aes_192_ccm_info:
	.word	.LC19
	.byte	112
	.byte	131
	.byte	39
	.byte	5
	.section	.rodata
	.align	2
.LC20:
	.string	"AES-256-CCM"
	.section	.srodata.aes_256_ccm_info,"a"
	.align	2
	.type	aes_256_ccm_info, @object
	.size	aes_256_ccm_info, 8
aes_256_ccm_info:
	.word	.LC20
	.byte	112
	.byte	132
	.byte	40
	.byte	5
	.section	.rodata
	.align	2
.LC21:
	.string	"AES-128-CCM*-NO-TAG"
	.section	.srodata.aes_128_ccm_star_no_tag_info,"a"
	.align	2
	.type	aes_128_ccm_star_no_tag_info, @object
	.size	aes_128_ccm_star_no_tag_info, 8
aes_128_ccm_star_no_tag_info:
	.word	.LC21
	.byte	112
	.byte	146
	.byte	41
	.byte	5
	.section	.rodata
	.align	2
.LC22:
	.string	"AES-192-CCM*-NO-TAG"
	.section	.srodata.aes_192_ccm_star_no_tag_info,"a"
	.align	2
	.type	aes_192_ccm_star_no_tag_info, @object
	.size	aes_192_ccm_star_no_tag_info, 8
aes_192_ccm_star_no_tag_info:
	.word	.LC22
	.byte	112
	.byte	147
	.byte	42
	.byte	5
	.section	.rodata
	.align	2
.LC23:
	.string	"AES-256-CCM*-NO-TAG"
	.section	.srodata.aes_256_ccm_star_no_tag_info,"a"
	.align	2
	.type	aes_256_ccm_star_no_tag_info, @object
	.size	aes_256_ccm_star_no_tag_info, 8
aes_256_ccm_star_no_tag_info:
	.word	.LC23
	.byte	112
	.byte	148
	.byte	43
	.byte	5
	.section	.text.des_crypt_ecb_wrap,"ax",@progbits
	.align	1
	.type	des_crypt_ecb_wrap, @function
des_crypt_ecb_wrap:
.LFB45:
	.loc 1 1614 1
	.cfi_startproc
	addi	sp,sp,-32
	.cfi_def_cfa_offset 32
	sw	ra,28(sp)
	sw	s0,24(sp)
	.cfi_offset 1, -4
	.cfi_offset 8, -8
	addi	s0,sp,32
	.cfi_def_cfa 8, 0
	sw	a0,-20(s0)
	mv	a5,a1
	sw	a2,-28(s0)
	sw	a3,-32(s0)
	sb	a5,-21(s0)
	.loc 1 1616 12
	lw	a2,-32(s0)
	lw	a1,-28(s0)
	lw	a0,-20(s0)
	call	mbedtls_des_crypt_ecb
	mv	a5,a0
	.loc 1 1617 1
	mv	a0,a5
	lw	ra,28(sp)
	.cfi_restore 1
	lw	s0,24(sp)
	.cfi_restore 8
	.cfi_def_cfa 2, 32
	addi	sp,sp,32
	.cfi_def_cfa_offset 0
	jr	ra
	.cfi_endproc
.LFE45:
	.size	des_crypt_ecb_wrap, .-des_crypt_ecb_wrap
	.section	.text.des3_crypt_ecb_wrap,"ax",@progbits
	.align	1
	.type	des3_crypt_ecb_wrap, @function
des3_crypt_ecb_wrap:
.LFB46:
	.loc 1 1621 1
	.cfi_startproc
	addi	sp,sp,-32
	.cfi_def_cfa_offset 32
	sw	ra,28(sp)
	sw	s0,24(sp)
	.cfi_offset 1, -4
	.cfi_offset 8, -8
	addi	s0,sp,32
	.cfi_def_cfa 8, 0
	sw	a0,-20(s0)
	mv	a5,a1
	sw	a2,-28(s0)
	sw	a3,-32(s0)
	sb	a5,-21(s0)
	.loc 1 1623 12
	lw	a2,-32(s0)
	lw	a1,-28(s0)
	lw	a0,-20(s0)
	call	mbedtls_des3_crypt_ecb
	mv	a5,a0
	.loc 1 1624 1
	mv	a0,a5
	lw	ra,28(sp)
	.cfi_restore 1
	lw	s0,24(sp)
	.cfi_restore 8
	.cfi_def_cfa 2, 32
	addi	sp,sp,32
	.cfi_def_cfa_offset 0
	jr	ra
	.cfi_endproc
.LFE46:
	.size	des3_crypt_ecb_wrap, .-des3_crypt_ecb_wrap
	.section	.text.des_crypt_cbc_wrap,"ax",@progbits
	.align	1
	.type	des_crypt_cbc_wrap, @function
des_crypt_cbc_wrap:
.LFB47:
	.loc 1 1629 1
	.cfi_startproc
	addi	sp,sp,-48
	.cfi_def_cfa_offset 48
	sw	ra,44(sp)
	sw	s0,40(sp)
	.cfi_offset 1, -4
	.cfi_offset 8, -8
	addi	s0,sp,48
	.cfi_def_cfa 8, 0
	sw	a0,-20(s0)
	sw	a2,-28(s0)
	sw	a3,-32(s0)
	sw	a4,-36(s0)
	sw	a5,-40(s0)
	mv	a5,a1
	sb	a5,-21(s0)
	.loc 1 1630 12
	lb	a1,-21(s0)
	lw	a5,-40(s0)
	lw	a4,-36(s0)
	lw	a3,-32(s0)
	lw	a2,-28(s0)
	lw	a0,-20(s0)
	call	mbedtls_des_crypt_cbc
	mv	a5,a0
	.loc 1 1632 1
	mv	a0,a5
	lw	ra,44(sp)
	.cfi_restore 1
	lw	s0,40(sp)
	.cfi_restore 8
	.cfi_def_cfa 2, 48
	addi	sp,sp,48
	.cfi_def_cfa_offset 0
	jr	ra
	.cfi_endproc
.LFE47:
	.size	des_crypt_cbc_wrap, .-des_crypt_cbc_wrap
	.section	.text.des3_crypt_cbc_wrap,"ax",@progbits
	.align	1
	.type	des3_crypt_cbc_wrap, @function
des3_crypt_cbc_wrap:
.LFB48:
	.loc 1 1638 1
	.cfi_startproc
	addi	sp,sp,-48
	.cfi_def_cfa_offset 48
	sw	ra,44(sp)
	sw	s0,40(sp)
	.cfi_offset 1, -4
	.cfi_offset 8, -8
	addi	s0,sp,48
	.cfi_def_cfa 8, 0
	sw	a0,-20(s0)
	sw	a2,-28(s0)
	sw	a3,-32(s0)
	sw	a4,-36(s0)
	sw	a5,-40(s0)
	mv	a5,a1
	sb	a5,-21(s0)
	.loc 1 1639 12
	lb	a1,-21(s0)
	lw	a5,-40(s0)
	lw	a4,-36(s0)
	lw	a3,-32(s0)
	lw	a2,-28(s0)
	lw	a0,-20(s0)
	call	mbedtls_des3_crypt_cbc
	mv	a5,a0
	.loc 1 1641 1
	mv	a0,a5
	lw	ra,44(sp)
	.cfi_restore 1
	lw	s0,40(sp)
	.cfi_restore 8
	.cfi_def_cfa 2, 48
	addi	sp,sp,48
	.cfi_def_cfa_offset 0
	jr	ra
	.cfi_endproc
.LFE48:
	.size	des3_crypt_cbc_wrap, .-des3_crypt_cbc_wrap
	.section	.text.des_setkey_dec_wrap,"ax",@progbits
	.align	1
	.type	des_setkey_dec_wrap, @function
des_setkey_dec_wrap:
.LFB49:
	.loc 1 1646 1
	.cfi_startproc
	addi	sp,sp,-32
	.cfi_def_cfa_offset 32
	sw	ra,28(sp)
	sw	s0,24(sp)
	.cfi_offset 1, -4
	.cfi_offset 8, -8
	addi	s0,sp,32
	.cfi_def_cfa 8, 0
	sw	a0,-20(s0)
	sw	a1,-24(s0)
	sw	a2,-28(s0)
	.loc 1 1649 12
	lw	a1,-24(s0)
	lw	a0,-20(s0)
	call	mbedtls_des_setkey_dec
	mv	a5,a0
	.loc 1 1650 1
	mv	a0,a5
	lw	ra,28(sp)
	.cfi_restore 1
	lw	s0,24(sp)
	.cfi_restore 8
	.cfi_def_cfa 2, 32
	addi	sp,sp,32
	.cfi_def_cfa_offset 0
	jr	ra
	.cfi_endproc
.LFE49:
	.size	des_setkey_dec_wrap, .-des_setkey_dec_wrap
	.section	.text.des_setkey_enc_wrap,"ax",@progbits
	.align	1
	.type	des_setkey_enc_wrap, @function
des_setkey_enc_wrap:
.LFB50:
	.loc 1 1654 1
	.cfi_startproc
	addi	sp,sp,-32
	.cfi_def_cfa_offset 32
	sw	ra,28(sp)
	sw	s0,24(sp)
	.cfi_offset 1, -4
	.cfi_offset 8, -8
	addi	s0,sp,32
	.cfi_def_cfa 8, 0
	sw	a0,-20(s0)
	sw	a1,-24(s0)
	sw	a2,-28(s0)
	.loc 1 1657 12
	lw	a1,-24(s0)
	lw	a0,-20(s0)
	call	mbedtls_des_setkey_enc
	mv	a5,a0
	.loc 1 1658 1
	mv	a0,a5
	lw	ra,28(sp)
	.cfi_restore 1
	lw	s0,24(sp)
	.cfi_restore 8
	.cfi_def_cfa 2, 32
	addi	sp,sp,32
	.cfi_def_cfa_offset 0
	jr	ra
	.cfi_endproc
.LFE50:
	.size	des_setkey_enc_wrap, .-des_setkey_enc_wrap
	.section	.text.des3_set2key_dec_wrap,"ax",@progbits
	.align	1
	.type	des3_set2key_dec_wrap, @function
des3_set2key_dec_wrap:
.LFB51:
	.loc 1 1662 1
	.cfi_startproc
	addi	sp,sp,-32
	.cfi_def_cfa_offset 32
	sw	ra,28(sp)
	sw	s0,24(sp)
	.cfi_offset 1, -4
	.cfi_offset 8, -8
	addi	s0,sp,32
	.cfi_def_cfa 8, 0
	sw	a0,-20(s0)
	sw	a1,-24(s0)
	sw	a2,-28(s0)
	.loc 1 1665 12
	lw	a1,-24(s0)
	lw	a0,-20(s0)
	call	mbedtls_des3_set2key_dec
	mv	a5,a0
	.loc 1 1666 1
	mv	a0,a5
	lw	ra,28(sp)
	.cfi_restore 1
	lw	s0,24(sp)
	.cfi_restore 8
	.cfi_def_cfa 2, 32
	addi	sp,sp,32
	.cfi_def_cfa_offset 0
	jr	ra
	.cfi_endproc
.LFE51:
	.size	des3_set2key_dec_wrap, .-des3_set2key_dec_wrap
	.section	.text.des3_set2key_enc_wrap,"ax",@progbits
	.align	1
	.type	des3_set2key_enc_wrap, @function
des3_set2key_enc_wrap:
.LFB52:
	.loc 1 1670 1
	.cfi_startproc
	addi	sp,sp,-32
	.cfi_def_cfa_offset 32
	sw	ra,28(sp)
	sw	s0,24(sp)
	.cfi_offset 1, -4
	.cfi_offset 8, -8
	addi	s0,sp,32
	.cfi_def_cfa 8, 0
	sw	a0,-20(s0)
	sw	a1,-24(s0)
	sw	a2,-28(s0)
	.loc 1 1673 12
	lw	a1,-24(s0)
	lw	a0,-20(s0)
	call	mbedtls_des3_set2key_enc
	mv	a5,a0
	.loc 1 1674 1
	mv	a0,a5
	lw	ra,28(sp)
	.cfi_restore 1
	lw	s0,24(sp)
	.cfi_restore 8
	.cfi_def_cfa 2, 32
	addi	sp,sp,32
	.cfi_def_cfa_offset 0
	jr	ra
	.cfi_endproc
.LFE52:
	.size	des3_set2key_enc_wrap, .-des3_set2key_enc_wrap
	.section	.text.des3_set3key_dec_wrap,"ax",@progbits
	.align	1
	.type	des3_set3key_dec_wrap, @function
des3_set3key_dec_wrap:
.LFB53:
	.loc 1 1678 1
	.cfi_startproc
	addi	sp,sp,-32
	.cfi_def_cfa_offset 32
	sw	ra,28(sp)
	sw	s0,24(sp)
	.cfi_offset 1, -4
	.cfi_offset 8, -8
	addi	s0,sp,32
	.cfi_def_cfa 8, 0
	sw	a0,-20(s0)
	sw	a1,-24(s0)
	sw	a2,-28(s0)
	.loc 1 1681 12
	lw	a1,-24(s0)
	lw	a0,-20(s0)
	call	mbedtls_des3_set3key_dec
	mv	a5,a0
	.loc 1 1682 1
	mv	a0,a5
	lw	ra,28(sp)
	.cfi_restore 1
	lw	s0,24(sp)
	.cfi_restore 8
	.cfi_def_cfa 2, 32
	addi	sp,sp,32
	.cfi_def_cfa_offset 0
	jr	ra
	.cfi_endproc
.LFE53:
	.size	des3_set3key_dec_wrap, .-des3_set3key_dec_wrap
	.section	.text.des3_set3key_enc_wrap,"ax",@progbits
	.align	1
	.type	des3_set3key_enc_wrap, @function
des3_set3key_enc_wrap:
.LFB54:
	.loc 1 1686 1
	.cfi_startproc
	addi	sp,sp,-32
	.cfi_def_cfa_offset 32
	sw	ra,28(sp)
	sw	s0,24(sp)
	.cfi_offset 1, -4
	.cfi_offset 8, -8
	addi	s0,sp,32
	.cfi_def_cfa 8, 0
	sw	a0,-20(s0)
	sw	a1,-24(s0)
	sw	a2,-28(s0)
	.loc 1 1689 12
	lw	a1,-24(s0)
	lw	a0,-20(s0)
	call	mbedtls_des3_set3key_enc
	mv	a5,a0
	.loc 1 1690 1
	mv	a0,a5
	lw	ra,28(sp)
	.cfi_restore 1
	lw	s0,24(sp)
	.cfi_restore 8
	.cfi_def_cfa 2, 32
	addi	sp,sp,32
	.cfi_def_cfa_offset 0
	jr	ra
	.cfi_endproc
.LFE54:
	.size	des3_set3key_enc_wrap, .-des3_set3key_enc_wrap
	.section	.text.des_ctx_alloc,"ax",@progbits
	.align	1
	.type	des_ctx_alloc, @function
des_ctx_alloc:
.LFB55:
	.loc 1 1693 1
	.cfi_startproc
	addi	sp,sp,-32
	.cfi_def_cfa_offset 32
	sw	ra,28(sp)
	sw	s0,24(sp)
	.cfi_offset 1, -4
	.cfi_offset 8, -8
	addi	s0,sp,32
	.cfi_def_cfa 8, 0
	.loc 1 1694 32
	li	a1,128
	li	a0,1
	call	calloc
	mv	a5,a0
	sw	a5,-20(s0)
	.loc 1 1696 8
	lw	a5,-20(s0)
	bne	a5,zero,.L52
	.loc 1 1697 15
	li	a5,0
	j	.L53
.L52:
	.loc 1 1700 5
	lw	a0,-20(s0)
	call	mbedtls_des_init
	.loc 1 1702 12
	lw	a5,-20(s0)
.L53:
	.loc 1 1703 1
	mv	a0,a5
	lw	ra,28(sp)
	.cfi_restore 1
	lw	s0,24(sp)
	.cfi_restore 8
	.cfi_def_cfa 2, 32
	addi	sp,sp,32
	.cfi_def_cfa_offset 0
	jr	ra
	.cfi_endproc
.LFE55:
	.size	des_ctx_alloc, .-des_ctx_alloc
	.section	.text.des_ctx_free,"ax",@progbits
	.align	1
	.type	des_ctx_free, @function
des_ctx_free:
.LFB56:
	.loc 1 1706 1
	.cfi_startproc
	addi	sp,sp,-32
	.cfi_def_cfa_offset 32
	sw	ra,28(sp)
	sw	s0,24(sp)
	.cfi_offset 1, -4
	.cfi_offset 8, -8
	addi	s0,sp,32
	.cfi_def_cfa 8, 0
	sw	a0,-20(s0)
	.loc 1 1707 5
	lw	a0,-20(s0)
	call	mbedtls_des_free
	.loc 1 1708 5
	lw	a0,-20(s0)
	call	free
	.loc 1 1709 1
	nop
	lw	ra,28(sp)
	.cfi_restore 1
	lw	s0,24(sp)
	.cfi_restore 8
	.cfi_def_cfa 2, 32
	addi	sp,sp,32
	.cfi_def_cfa_offset 0
	jr	ra
	.cfi_endproc
.LFE56:
	.size	des_ctx_free, .-des_ctx_free
	.section	.text.des3_ctx_alloc,"ax",@progbits
	.align	1
	.type	des3_ctx_alloc, @function
des3_ctx_alloc:
.LFB57:
	.loc 1 1712 1
	.cfi_startproc
	addi	sp,sp,-32
	.cfi_def_cfa_offset 32
	sw	ra,28(sp)
	sw	s0,24(sp)
	.cfi_offset 1, -4
	.cfi_offset 8, -8
	addi	s0,sp,32
	.cfi_def_cfa 8, 0
	.loc 1 1714 12
	li	a1,384
	li	a0,1
	call	calloc
	mv	a5,a0
	sw	a5,-20(s0)
	.loc 1 1716 8
	lw	a5,-20(s0)
	bne	a5,zero,.L56
	.loc 1 1717 15
	li	a5,0
	j	.L57
.L56:
	.loc 1 1720 5
	lw	a0,-20(s0)
	call	mbedtls_des3_init
	.loc 1 1722 12
	lw	a5,-20(s0)
.L57:
	.loc 1 1723 1
	mv	a0,a5
	lw	ra,28(sp)
	.cfi_restore 1
	lw	s0,24(sp)
	.cfi_restore 8
	.cfi_def_cfa 2, 32
	addi	sp,sp,32
	.cfi_def_cfa_offset 0
	jr	ra
	.cfi_endproc
.LFE57:
	.size	des3_ctx_alloc, .-des3_ctx_alloc
	.section	.text.des3_ctx_free,"ax",@progbits
	.align	1
	.type	des3_ctx_free, @function
des3_ctx_free:
.LFB58:
	.loc 1 1726 1
	.cfi_startproc
	addi	sp,sp,-32
	.cfi_def_cfa_offset 32
	sw	ra,28(sp)
	sw	s0,24(sp)
	.cfi_offset 1, -4
	.cfi_offset 8, -8
	addi	s0,sp,32
	.cfi_def_cfa 8, 0
	sw	a0,-20(s0)
	.loc 1 1727 5
	lw	a0,-20(s0)
	call	mbedtls_des3_free
	.loc 1 1728 5
	lw	a0,-20(s0)
	call	free
	.loc 1 1729 1
	nop
	lw	ra,28(sp)
	.cfi_restore 1
	lw	s0,24(sp)
	.cfi_restore 8
	.cfi_def_cfa 2, 32
	addi	sp,sp,32
	.cfi_def_cfa_offset 0
	jr	ra
	.cfi_endproc
.LFE58:
	.size	des3_ctx_free, .-des3_ctx_free
	.section	.rodata.des_info,"a"
	.align	2
	.type	des_info, @object
	.size	des_info, 44
des_info:
	.byte	3
	.zero	3
	.word	des_crypt_ecb_wrap
	.word	des_crypt_cbc_wrap
	.word	0
	.word	0
	.word	0
	.word	0
	.word	des_setkey_enc_wrap
	.word	des_setkey_dec_wrap
	.word	des_ctx_alloc
	.word	des_ctx_free
	.section	.rodata
	.align	2
.LC24:
	.string	"DES-ECB"
	.section	.srodata.des_ecb_info,"a"
	.align	2
	.type	des_ecb_info, @object
	.size	des_ecb_info, 8
des_ecb_info:
	.word	.LC24
	.byte	8
	.byte	17
	.byte	32
	.byte	20
	.section	.rodata
	.align	2
.LC25:
	.string	"DES-CBC"
	.section	.srodata.des_cbc_info,"a"
	.align	2
	.type	des_cbc_info, @object
	.size	des_cbc_info, 8
des_cbc_info:
	.word	.LC25
	.byte	72
	.byte	33
	.byte	33
	.byte	20
	.section	.rodata.des_ede_info,"a"
	.align	2
	.type	des_ede_info, @object
	.size	des_ede_info, 44
des_ede_info:
	.byte	3
	.zero	3
	.word	des3_crypt_ecb_wrap
	.word	des3_crypt_cbc_wrap
	.word	0
	.word	0
	.word	0
	.word	0
	.word	des3_set2key_enc_wrap
	.word	des3_set2key_dec_wrap
	.word	des3_ctx_alloc
	.word	des3_ctx_free
	.section	.rodata
	.align	2
.LC26:
	.string	"DES-EDE-ECB"
	.section	.srodata.des_ede_ecb_info,"a"
	.align	2
	.type	des_ede_ecb_info, @object
	.size	des_ede_ecb_info, 8
des_ede_ecb_info:
	.word	.LC26
	.byte	8
	.byte	18
	.byte	34
	.byte	16
	.section	.rodata
	.align	2
.LC27:
	.string	"DES-EDE-CBC"
	.section	.srodata.des_ede_cbc_info,"a"
	.align	2
	.type	des_ede_cbc_info, @object
	.size	des_ede_cbc_info, 8
des_ede_cbc_info:
	.word	.LC27
	.byte	72
	.byte	34
	.byte	35
	.byte	16
	.section	.rodata.des_ede3_info,"a"
	.align	2
	.type	des_ede3_info, @object
	.size	des_ede3_info, 44
des_ede3_info:
	.byte	4
	.zero	3
	.word	des3_crypt_ecb_wrap
	.word	des3_crypt_cbc_wrap
	.word	0
	.word	0
	.word	0
	.word	0
	.word	des3_set3key_enc_wrap
	.word	des3_set3key_dec_wrap
	.word	des3_ctx_alloc
	.word	des3_ctx_free
	.section	.rodata
	.align	2
.LC28:
	.string	"DES-EDE3-ECB"
	.section	.srodata.des_ede3_ecb_info,"a"
	.align	2
	.type	des_ede3_ecb_info, @object
	.size	des_ede3_ecb_info, 8
des_ede3_ecb_info:
	.word	.LC28
	.byte	8
	.byte	19
	.byte	36
	.byte	12
	.section	.rodata
	.align	2
.LC29:
	.string	"DES-EDE3-CBC"
	.section	.srodata.des_ede3_cbc_info,"a"
	.align	2
	.type	des_ede3_cbc_info, @object
	.size	des_ede3_cbc_info, 8
des_ede3_cbc_info:
	.word	.LC29
	.byte	72
	.byte	35
	.byte	37
	.byte	12
	.section	.text.chacha20_setkey_wrap,"ax",@progbits
	.align	1
	.type	chacha20_setkey_wrap, @function
chacha20_setkey_wrap:
.LFB59:
	.loc 1 1888 1
	.cfi_startproc
	addi	sp,sp,-32
	.cfi_def_cfa_offset 32
	sw	ra,28(sp)
	sw	s0,24(sp)
	.cfi_offset 1, -4
	.cfi_offset 8, -8
	addi	s0,sp,32
	.cfi_def_cfa 8, 0
	sw	a0,-20(s0)
	sw	a1,-24(s0)
	sw	a2,-28(s0)
	.loc 1 1889 8
	lw	a4,-28(s0)
	li	a5,256
	beq	a4,a5,.L60
	.loc 1 1890 16
	li	a5,-24576
	addi	a5,a5,-256
	j	.L61
.L60:
	.loc 1 1893 14
	lw	a1,-24(s0)
	lw	a0,-20(s0)
	call	mbedtls_chacha20_setkey
	mv	a5,a0
	.loc 1 1893 8 discriminator 1
	beq	a5,zero,.L62
	.loc 1 1894 16
	li	a5,-24576
	addi	a5,a5,-256
	j	.L61
.L62:
	.loc 1 1897 12
	li	a5,0
.L61:
	.loc 1 1898 1
	mv	a0,a5
	lw	ra,28(sp)
	.cfi_restore 1
	lw	s0,24(sp)
	.cfi_restore 8
	.cfi_def_cfa 2, 32
	addi	sp,sp,32
	.cfi_def_cfa_offset 0
	jr	ra
	.cfi_endproc
.LFE59:
	.size	chacha20_setkey_wrap, .-chacha20_setkey_wrap
	.section	.text.chacha20_stream_wrap,"ax",@progbits
	.align	1
	.type	chacha20_stream_wrap, @function
chacha20_stream_wrap:
.LFB60:
	.loc 1 1903 1
	.cfi_startproc
	addi	sp,sp,-48
	.cfi_def_cfa_offset 48
	sw	ra,44(sp)
	sw	s0,40(sp)
	.cfi_offset 1, -4
	.cfi_offset 8, -8
	addi	s0,sp,48
	.cfi_def_cfa 8, 0
	sw	a0,-36(s0)
	sw	a1,-40(s0)
	sw	a2,-44(s0)
	sw	a3,-48(s0)
	.loc 1 1904 9
	li	a5,-110
	sw	a5,-20(s0)
	.loc 1 1906 11
	lw	a3,-48(s0)
	lw	a2,-44(s0)
	lw	a1,-40(s0)
	lw	a0,-36(s0)
	call	mbedtls_chacha20_update
	sw	a0,-20(s0)
	.loc 1 1907 8
	lw	a4,-20(s0)
	li	a5,-81
	bne	a4,a5,.L64
	.loc 1 1908 16
	li	a5,-24576
	addi	a5,a5,-256
	j	.L65
.L64:
	.loc 1 1911 12
	lw	a5,-20(s0)
.L65:
	.loc 1 1912 1
	mv	a0,a5
	lw	ra,44(sp)
	.cfi_restore 1
	lw	s0,40(sp)
	.cfi_restore 8
	.cfi_def_cfa 2, 48
	addi	sp,sp,48
	.cfi_def_cfa_offset 0
	jr	ra
	.cfi_endproc
.LFE60:
	.size	chacha20_stream_wrap, .-chacha20_stream_wrap
	.section	.text.chacha20_ctx_alloc,"ax",@progbits
	.align	1
	.type	chacha20_ctx_alloc, @function
chacha20_ctx_alloc:
.LFB61:
	.loc 1 1915 1
	.cfi_startproc
	addi	sp,sp,-32
	.cfi_def_cfa_offset 32
	sw	ra,28(sp)
	sw	s0,24(sp)
	.cfi_offset 1, -4
	.cfi_offset 8, -8
	addi	s0,sp,32
	.cfi_def_cfa 8, 0
	.loc 1 1917 11
	li	a1,132
	li	a0,1
	call	calloc
	mv	a5,a0
	sw	a5,-20(s0)
	.loc 1 1919 8
	lw	a5,-20(s0)
	bne	a5,zero,.L67
	.loc 1 1920 15
	li	a5,0
	j	.L68
.L67:
	.loc 1 1923 5
	lw	a0,-20(s0)
	call	mbedtls_chacha20_init
	.loc 1 1925 12
	lw	a5,-20(s0)
.L68:
	.loc 1 1926 1
	mv	a0,a5
	lw	ra,28(sp)
	.cfi_restore 1
	lw	s0,24(sp)
	.cfi_restore 8
	.cfi_def_cfa 2, 32
	addi	sp,sp,32
	.cfi_def_cfa_offset 0
	jr	ra
	.cfi_endproc
.LFE61:
	.size	chacha20_ctx_alloc, .-chacha20_ctx_alloc
	.section	.text.chacha20_ctx_free,"ax",@progbits
	.align	1
	.type	chacha20_ctx_free, @function
chacha20_ctx_free:
.LFB62:
	.loc 1 1929 1
	.cfi_startproc
	addi	sp,sp,-32
	.cfi_def_cfa_offset 32
	sw	ra,28(sp)
	sw	s0,24(sp)
	.cfi_offset 1, -4
	.cfi_offset 8, -8
	addi	s0,sp,32
	.cfi_def_cfa 8, 0
	sw	a0,-20(s0)
	.loc 1 1930 5
	lw	a0,-20(s0)
	call	mbedtls_chacha20_free
	.loc 1 1931 5
	lw	a0,-20(s0)
	call	free
	.loc 1 1932 1
	nop
	lw	ra,28(sp)
	.cfi_restore 1
	lw	s0,24(sp)
	.cfi_restore 8
	.cfi_def_cfa 2, 32
	addi	sp,sp,32
	.cfi_def_cfa_offset 0
	jr	ra
	.cfi_endproc
.LFE62:
	.size	chacha20_ctx_free, .-chacha20_ctx_free
	.section	.rodata.chacha20_base_info,"a"
	.align	2
	.type	chacha20_base_info, @object
	.size	chacha20_base_info, 44
chacha20_base_info:
	.byte	7
	.zero	3
	.word	0
	.word	0
	.word	0
	.word	0
	.word	0
	.word	chacha20_stream_wrap
	.word	chacha20_setkey_wrap
	.word	chacha20_setkey_wrap
	.word	chacha20_ctx_alloc
	.word	chacha20_ctx_free
	.section	.rodata
	.align	2
.LC30:
	.string	"CHACHA20"
	.section	.srodata.chacha20_info,"a"
	.align	2
	.type	chacha20_info, @object
	.size	chacha20_info, 8
chacha20_info:
	.word	.LC30
	.byte	97
	.byte	116
	.byte	76
	.byte	8
	.section	.text.kw_ctx_alloc,"ax",@progbits
	.align	1
	.type	kw_ctx_alloc, @function
kw_ctx_alloc:
.LFB63:
	.loc 1 2124 1
	.cfi_startproc
	addi	sp,sp,-32
	.cfi_def_cfa_offset 32
	sw	ra,28(sp)
	sw	s0,24(sp)
	.cfi_offset 1, -4
	.cfi_offset 8, -8
	addi	s0,sp,32
	.cfi_def_cfa 8, 0
	.loc 1 2125 17
	li	a1,68
	li	a0,1
	call	calloc
	mv	a5,a0
	sw	a5,-20(s0)
	.loc 1 2127 8
	lw	a5,-20(s0)
	beq	a5,zero,.L71
	.loc 1 2128 9
	lw	a0,-20(s0)
	call	mbedtls_nist_kw_init
.L71:
	.loc 1 2131 12
	lw	a5,-20(s0)
	.loc 1 2132 1
	mv	a0,a5
	lw	ra,28(sp)
	.cfi_restore 1
	lw	s0,24(sp)
	.cfi_restore 8
	.cfi_def_cfa 2, 32
	addi	sp,sp,32
	.cfi_def_cfa_offset 0
	jr	ra
	.cfi_endproc
.LFE63:
	.size	kw_ctx_alloc, .-kw_ctx_alloc
	.section	.text.kw_ctx_free,"ax",@progbits
	.align	1
	.type	kw_ctx_free, @function
kw_ctx_free:
.LFB64:
	.loc 1 2135 1
	.cfi_startproc
	addi	sp,sp,-32
	.cfi_def_cfa_offset 32
	sw	ra,28(sp)
	sw	s0,24(sp)
	.cfi_offset 1, -4
	.cfi_offset 8, -8
	addi	s0,sp,32
	.cfi_def_cfa 8, 0
	sw	a0,-20(s0)
	.loc 1 2136 5
	lw	a0,-20(s0)
	call	mbedtls_nist_kw_free
	.loc 1 2137 5
	lw	a0,-20(s0)
	call	free
	.loc 1 2138 1
	nop
	lw	ra,28(sp)
	.cfi_restore 1
	lw	s0,24(sp)
	.cfi_restore 8
	.cfi_def_cfa 2, 32
	addi	sp,sp,32
	.cfi_def_cfa_offset 0
	jr	ra
	.cfi_endproc
.LFE64:
	.size	kw_ctx_free, .-kw_ctx_free
	.section	.text.kw_aes_setkey_wrap,"ax",@progbits
	.align	1
	.type	kw_aes_setkey_wrap, @function
kw_aes_setkey_wrap:
.LFB65:
	.loc 1 2142 1
	.cfi_startproc
	addi	sp,sp,-32
	.cfi_def_cfa_offset 32
	sw	ra,28(sp)
	sw	s0,24(sp)
	.cfi_offset 1, -4
	.cfi_offset 8, -8
	addi	s0,sp,32
	.cfi_def_cfa 8, 0
	sw	a0,-20(s0)
	sw	a1,-24(s0)
	sw	a2,-28(s0)
	.loc 1 2143 12
	li	a4,1
	lw	a3,-28(s0)
	lw	a2,-24(s0)
	li	a1,2
	lw	a0,-20(s0)
	call	mbedtls_nist_kw_setkey
	mv	a5,a0
	.loc 1 2145 1
	mv	a0,a5
	lw	ra,28(sp)
	.cfi_restore 1
	lw	s0,24(sp)
	.cfi_restore 8
	.cfi_def_cfa 2, 32
	addi	sp,sp,32
	.cfi_def_cfa_offset 0
	jr	ra
	.cfi_endproc
.LFE65:
	.size	kw_aes_setkey_wrap, .-kw_aes_setkey_wrap
	.section	.text.kw_aes_setkey_unwrap,"ax",@progbits
	.align	1
	.type	kw_aes_setkey_unwrap, @function
kw_aes_setkey_unwrap:
.LFB66:
	.loc 1 2149 1
	.cfi_startproc
	addi	sp,sp,-32
	.cfi_def_cfa_offset 32
	sw	ra,28(sp)
	sw	s0,24(sp)
	.cfi_offset 1, -4
	.cfi_offset 8, -8
	addi	s0,sp,32
	.cfi_def_cfa 8, 0
	sw	a0,-20(s0)
	sw	a1,-24(s0)
	sw	a2,-28(s0)
	.loc 1 2150 12
	li	a4,0
	lw	a3,-28(s0)
	lw	a2,-24(s0)
	li	a1,2
	lw	a0,-20(s0)
	call	mbedtls_nist_kw_setkey
	mv	a5,a0
	.loc 1 2152 1
	mv	a0,a5
	lw	ra,28(sp)
	.cfi_restore 1
	lw	s0,24(sp)
	.cfi_restore 8
	.cfi_def_cfa 2, 32
	addi	sp,sp,32
	.cfi_def_cfa_offset 0
	jr	ra
	.cfi_endproc
.LFE66:
	.size	kw_aes_setkey_unwrap, .-kw_aes_setkey_unwrap
	.section	.rodata.kw_aes_info,"a"
	.align	2
	.type	kw_aes_info, @object
	.size	kw_aes_info, 44
kw_aes_info:
	.byte	2
	.zero	3
	.word	0
	.word	0
	.word	0
	.word	0
	.word	0
	.word	0
	.word	kw_aes_setkey_wrap
	.word	kw_aes_setkey_unwrap
	.word	kw_ctx_alloc
	.word	kw_ctx_free
	.section	.rodata
	.align	2
.LC31:
	.string	"AES-128-KW"
	.section	.srodata.aes_128_nist_kw_info,"a"
	.align	2
	.type	aes_128_nist_kw_info, @object
	.size	aes_128_nist_kw_info, 8
aes_128_nist_kw_info:
	.word	.LC31
	.byte	16
	.byte	194
	.byte	78
	.byte	28
	.section	.rodata
	.align	2
.LC32:
	.string	"AES-192-KW"
	.section	.srodata.aes_192_nist_kw_info,"a"
	.align	2
	.type	aes_192_nist_kw_info, @object
	.size	aes_192_nist_kw_info, 8
aes_192_nist_kw_info:
	.word	.LC32
	.byte	16
	.byte	195
	.byte	79
	.byte	28
	.section	.rodata
	.align	2
.LC33:
	.string	"AES-256-KW"
	.section	.srodata.aes_256_nist_kw_info,"a"
	.align	2
	.type	aes_256_nist_kw_info, @object
	.size	aes_256_nist_kw_info, 8
aes_256_nist_kw_info:
	.word	.LC33
	.byte	16
	.byte	196
	.byte	80
	.byte	28
	.section	.rodata
	.align	2
.LC34:
	.string	"AES-128-KWP"
	.section	.srodata.aes_128_nist_kwp_info,"a"
	.align	2
	.type	aes_128_nist_kwp_info, @object
	.size	aes_128_nist_kwp_info, 8
aes_128_nist_kwp_info:
	.word	.LC34
	.byte	16
	.byte	210
	.byte	81
	.byte	28
	.section	.rodata
	.align	2
.LC35:
	.string	"AES-192-KWP"
	.section	.srodata.aes_192_nist_kwp_info,"a"
	.align	2
	.type	aes_192_nist_kwp_info, @object
	.size	aes_192_nist_kwp_info, 8
aes_192_nist_kwp_info:
	.word	.LC35
	.byte	16
	.byte	211
	.byte	82
	.byte	28
	.section	.rodata
	.align	2
.LC36:
	.string	"AES-256-KWP"
	.section	.srodata.aes_256_nist_kwp_info,"a"
	.align	2
	.type	aes_256_nist_kwp_info, @object
	.size	aes_256_nist_kwp_info, 8
aes_256_nist_kwp_info:
	.word	.LC36
	.byte	16
	.byte	212
	.byte	83
	.byte	28
	.globl	mbedtls_cipher_definitions
	.section	.rodata.mbedtls_cipher_definitions,"a"
	.align	2
	.type	mbedtls_cipher_definitions, @object
	.size	mbedtls_cipher_definitions, 304
mbedtls_cipher_definitions:
	.byte	2
	.zero	3
	.word	aes_128_ecb_info
	.byte	3
	.zero	3
	.word	aes_192_ecb_info
	.byte	4
	.zero	3
	.word	aes_256_ecb_info
	.byte	5
	.zero	3
	.word	aes_128_cbc_info
	.byte	6
	.zero	3
	.word	aes_192_cbc_info
	.byte	7
	.zero	3
	.word	aes_256_cbc_info
	.byte	8
	.zero	3
	.word	aes_128_cfb128_info
	.byte	9
	.zero	3
	.word	aes_192_cfb128_info
	.byte	10
	.zero	3
	.word	aes_256_cfb128_info
	.byte	71
	.zero	3
	.word	aes_128_ofb_info
	.byte	72
	.zero	3
	.word	aes_192_ofb_info
	.byte	73
	.zero	3
	.word	aes_256_ofb_info
	.byte	11
	.zero	3
	.word	aes_128_ctr_info
	.byte	12
	.zero	3
	.word	aes_192_ctr_info
	.byte	13
	.zero	3
	.word	aes_256_ctr_info
	.byte	14
	.zero	3
	.word	aes_128_gcm_info
	.byte	15
	.zero	3
	.word	aes_192_gcm_info
	.byte	16
	.zero	3
	.word	aes_256_gcm_info
	.byte	38
	.zero	3
	.word	aes_128_ccm_info
	.byte	39
	.zero	3
	.word	aes_192_ccm_info
	.byte	40
	.zero	3
	.word	aes_256_ccm_info
	.byte	41
	.zero	3
	.word	aes_128_ccm_star_no_tag_info
	.byte	42
	.zero	3
	.word	aes_192_ccm_star_no_tag_info
	.byte	43
	.zero	3
	.word	aes_256_ccm_star_no_tag_info
	.byte	32
	.zero	3
	.word	des_ecb_info
	.byte	34
	.zero	3
	.word	des_ede_ecb_info
	.byte	36
	.zero	3
	.word	des_ede3_ecb_info
	.byte	33
	.zero	3
	.word	des_cbc_info
	.byte	35
	.zero	3
	.word	des_ede_cbc_info
	.byte	37
	.zero	3
	.word	des_ede3_cbc_info
	.byte	76
	.zero	3
	.word	chacha20_info
	.byte	78
	.zero	3
	.word	aes_128_nist_kw_info
	.byte	79
	.zero	3
	.word	aes_192_nist_kw_info
	.byte	80
	.zero	3
	.word	aes_256_nist_kw_info
	.byte	81
	.zero	3
	.word	aes_128_nist_kwp_info
	.byte	82
	.zero	3
	.word	aes_192_nist_kwp_info
	.byte	83
	.zero	3
	.word	aes_256_nist_kwp_info
	.byte	0
	.zero	3
	.word	0
	.globl	mbedtls_cipher_supported
	.section	.bss.mbedtls_cipher_supported,"aw",@nobits
	.align	2
	.type	mbedtls_cipher_supported, @object
	.size	mbedtls_cipher_supported, 152
mbedtls_cipher_supported:
	.zero	152
	.globl	mbedtls_cipher_base_lookup_table
	.section	.rodata.mbedtls_cipher_base_lookup_table,"a"
	.align	2
	.type	mbedtls_cipher_base_lookup_table, @object
	.size	mbedtls_cipher_base_lookup_table, 32
mbedtls_cipher_base_lookup_table:
	.word	aes_info
	.word	ccm_aes_info
	.word	chacha20_base_info
	.word	des_ede3_info
	.word	des_ede_info
	.word	des_info
	.word	gcm_aes_info
	.word	kw_aes_info
	.text
.Letext0:
	.file 2 "/home/chandu/sdk/bl602_iot_sdk/toolchain/compiler/lib/gcc/riscv32-unknown-elf/15.1.0/include/stddef.h"
	.file 3 "/home/chandu/sdk/bl602_iot_sdk/toolchain/compiler/lib/gcc/riscv32-unknown-elf/15.1.0/include/stdint-gcc.h"
	.file 4 "/home/chandu/sdk/bl602_iot_sdk/components/security/mbedtls-bl602/include/mbedtls/cipher.h"
	.file 5 "/home/chandu/sdk/bl602_iot_sdk/components/security/mbedtls-bl602/library/cipher_wrap.h"
	.file 6 "/home/chandu/sdk/bl602_iot_sdk/components/security/mbedtls-bl602/include/mbedtls/aes.h"
	.file 7 "/home/chandu/sdk/bl602_iot_sdk/components/security/mbedtls-bl602/include/mbedtls/des.h"
	.file 8 "/home/chandu/sdk/bl602_iot_sdk/components/security/mbedtls-bl602/include/mbedtls/chacha20.h"
	.file 9 "/home/chandu/sdk/bl602_iot_sdk/components/security/mbedtls-bl602/include/mbedtls/gcm.h"
	.file 10 "/home/chandu/sdk/bl602_iot_sdk/components/security/mbedtls-bl602/include/mbedtls/ccm.h"
	.file 11 "/home/chandu/sdk/bl602_iot_sdk/components/security/mbedtls-bl602/include/mbedtls/nist_kw.h"
	.file 12 "/home/chandu/sdk/bl602_iot_sdk/toolchain/compiler/riscv32-unknown-elf/include/stdlib.h"
	.section	.note.GNU-stack,"",@progbits
