	.file	"constant_time.c"
	.option nopic
	.attribute arch, "rv32i2p1_m2p0_f2p2_c2p0_zicsr2p0_zmmul1p0_zca1p0_zcf1p0"
	.attribute unaligned_access, 0
	.attribute stack_align, 16
	.text
.Ltext0:
	.cfi_sections	.debug_frame
	.file 0 "/home/chandu/sdk/bl602_iot_sdk/customer_app/suas_app_pqkem_gateway/build_out/mbedtls-bl602" "/home/chandu/sdk/bl602_iot_sdk/components/security/mbedtls-bl602/library/constant_time.c"
	.section	.text.mbedtls_ct_compiler_opaque,"ax",@progbits
	.align	1
	.type	mbedtls_ct_compiler_opaque, @function
mbedtls_ct_compiler_opaque:
.LFB11:
	.file 1 "/home/chandu/sdk/bl602_iot_sdk/components/security/mbedtls-bl602/library/constant_time_impl.h"
	.loc 1 86 1
	.cfi_startproc
	addi	sp,sp,-32
	.cfi_def_cfa_offset 32
	sw	ra,28(sp)
	sw	s0,24(sp)
	.cfi_offset 1, -4
	.cfi_offset 8, -8
	addi	s0,sp,32
	.cfi_def_cfa 8, 0
	sw	a0,-20(s0)
	.loc 1 88 5
	lw	a5,-20(s0)
	sw	a5,-20(s0)
	.loc 1 89 12
	lw	a5,-20(s0)
	.loc 1 93 1
	mv	a0,a5
	lw	ra,28(sp)
	.cfi_restore 1
	lw	s0,24(sp)
	.cfi_restore 8
	.cfi_def_cfa 2, 32
	addi	sp,sp,32
	.cfi_def_cfa_offset 0
	jr	ra
	.cfi_endproc
.LFE11:
	.size	mbedtls_ct_compiler_opaque, .-mbedtls_ct_compiler_opaque
	.section	.text.mbedtls_ct_bool,"ax",@progbits
	.align	1
	.type	mbedtls_ct_bool, @function
mbedtls_ct_bool:
.LFB12:
	.loc 1 121 1
	.cfi_startproc
	addi	sp,sp,-48
	.cfi_def_cfa_offset 48
	sw	ra,44(sp)
	sw	s0,40(sp)
	.cfi_offset 1, -4
	.cfi_offset 8, -8
	addi	s0,sp,48
	.cfi_def_cfa 8, 0
	sw	a0,-36(s0)
	.loc 1 184 34
	lw	a0,-36(s0)
	call	mbedtls_ct_compiler_opaque
	sw	a0,-20(s0)
	.loc 1 192 27
	lw	a5,-20(s0)
	neg	a4,a5
	.loc 1 192 39
	lw	a5,-20(s0)
	srli	a5,a5,1
	.loc 1 192 34
	neg	a5,a5
	.loc 1 192 32
	or	a5,a4,a5
	.loc 1 192 22
	sw	a5,-24(s0)
	.loc 1 195 11
	lw	a5,-24(s0)
	.loc 1 195 34
	srli	a5,a5,31
	.loc 1 195 7
	sw	a5,-24(s0)
	.loc 1 198 38
	lw	a5,-24(s0)
	neg	a5,a5
	.loc 1 203 1
	mv	a0,a5
	lw	ra,44(sp)
	.cfi_restore 1
	lw	s0,40(sp)
	.cfi_restore 8
	.cfi_def_cfa 2, 48
	addi	sp,sp,48
	.cfi_def_cfa_offset 0
	jr	ra
	.cfi_endproc
.LFE12:
	.size	mbedtls_ct_bool, .-mbedtls_ct_bool
	.section	.text.mbedtls_ct_if,"ax",@progbits
	.align	1
	.type	mbedtls_ct_if, @function
mbedtls_ct_if:
.LFB13:
	.loc 1 208 1
	.cfi_startproc
	addi	sp,sp,-48
	.cfi_def_cfa_offset 48
	sw	ra,44(sp)
	sw	s0,40(sp)
	.cfi_offset 1, -4
	.cfi_offset 8, -8
	addi	s0,sp,48
	.cfi_def_cfa 8, 0
	sw	a0,-36(s0)
	sw	a1,-40(s0)
	sw	a2,-44(s0)
	.loc 1 266 36
	lw	a0,-36(s0)
	call	mbedtls_ct_compiler_opaque
	mv	a5,a0
	.loc 1 265 28
	not	a5,a5
	sw	a5,-20(s0)
	.loc 1 267 44
	lw	a4,-36(s0)
	lw	a5,-40(s0)
	and	a4,a4,a5
	.loc 1 267 63
	lw	a3,-20(s0)
	lw	a5,-44(s0)
	and	a5,a3,a5
	.loc 1 267 12
	or	a5,a4,a5
	.loc 1 269 1
	mv	a0,a5
	lw	ra,44(sp)
	.cfi_restore 1
	lw	s0,40(sp)
	.cfi_restore 8
	.cfi_def_cfa 2, 48
	addi	sp,sp,48
	.cfi_def_cfa_offset 0
	jr	ra
	.cfi_endproc
.LFE13:
	.size	mbedtls_ct_if, .-mbedtls_ct_if
	.section	.text.mbedtls_ct_uint_lt,"ax",@progbits
	.align	1
	.type	mbedtls_ct_uint_lt, @function
mbedtls_ct_uint_lt:
.LFB14:
	.loc 1 272 1
	.cfi_startproc
	addi	sp,sp,-48
	.cfi_def_cfa_offset 48
	sw	ra,44(sp)
	sw	s0,40(sp)
	.cfi_offset 1, -4
	.cfi_offset 8, -8
	addi	s0,sp,48
	.cfi_def_cfa 8, 0
	sw	a0,-36(s0)
	sw	a1,-40(s0)
	.loc 1 354 34
	lw	a0,-36(s0)
	call	mbedtls_ct_compiler_opaque
	sw	a0,-20(s0)
	.loc 1 355 34
	lw	a0,-40(s0)
	call	mbedtls_ct_compiler_opaque
	sw	a0,-24(s0)
	.loc 1 360 55
	lw	a4,-20(s0)
	lw	a5,-24(s0)
	xor	a5,a4,a5
	.loc 1 360 35
	srli	a5,a5,31
	mv	a0,a5
	call	mbedtls_ct_bool
	sw	a0,-28(s0)
	.loc 1 372 29
	lw	a4,-20(s0)
	lw	a5,-24(s0)
	sub	a5,a4,a5
	mv	a2,a5
	lw	a1,-24(s0)
	lw	a0,-28(s0)
	call	mbedtls_ct_if
	sw	a0,-32(s0)
	.loc 1 375 9
	lw	a5,-32(s0)
	srli	a5,a5,31
	sw	a5,-32(s0)
	.loc 1 378 12
	lw	a0,-32(s0)
	call	mbedtls_ct_bool
	mv	a5,a0
	.loc 1 380 1
	mv	a0,a5
	lw	ra,44(sp)
	.cfi_restore 1
	lw	s0,40(sp)
	.cfi_restore 8
	.cfi_def_cfa 2, 48
	addi	sp,sp,48
	.cfi_def_cfa_offset 0
	jr	ra
	.cfi_endproc
.LFE14:
	.size	mbedtls_ct_uint_lt, .-mbedtls_ct_uint_lt
	.section	.text.mbedtls_ct_uint_ne,"ax",@progbits
	.align	1
	.type	mbedtls_ct_uint_ne, @function
mbedtls_ct_uint_ne:
.LFB15:
	.loc 1 383 1
	.cfi_startproc
	addi	sp,sp,-48
	.cfi_def_cfa_offset 48
	sw	ra,44(sp)
	sw	s0,40(sp)
	sw	s1,36(sp)
	.cfi_offset 1, -4
	.cfi_offset 8, -8
	.cfi_offset 9, -12
	addi	s0,sp,48
	.cfi_def_cfa 8, 0
	sw	a0,-36(s0)
	sw	a1,-40(s0)
	.loc 1 385 36
	lw	a0,-36(s0)
	call	mbedtls_ct_compiler_opaque
	mv	s1,a0
	.loc 1 385 68 discriminator 1
	lw	a0,-40(s0)
	call	mbedtls_ct_compiler_opaque
	mv	a5,a0
	.loc 1 385 29 discriminator 2
	xor	a5,s1,a5
	sw	a5,-20(s0)
	.loc 1 388 12
	lw	a0,-20(s0)
	call	mbedtls_ct_bool
	mv	a5,a0
	.loc 1 389 1
	mv	a0,a5
	lw	ra,44(sp)
	.cfi_restore 1
	lw	s0,40(sp)
	.cfi_restore 8
	.cfi_def_cfa 2, 48
	lw	s1,36(sp)
	.cfi_restore 9
	addi	sp,sp,48
	.cfi_def_cfa_offset 0
	jr	ra
	.cfi_endproc
.LFE15:
	.size	mbedtls_ct_uint_ne, .-mbedtls_ct_uint_ne
	.section	.text.mbedtls_ct_uint_if,"ax",@progbits
	.align	1
	.type	mbedtls_ct_uint_if, @function
mbedtls_ct_uint_if:
.LFB18:
	.loc 1 421 1
	.cfi_startproc
	addi	sp,sp,-32
	.cfi_def_cfa_offset 32
	sw	ra,28(sp)
	sw	s0,24(sp)
	.cfi_offset 1, -4
	.cfi_offset 8, -8
	addi	s0,sp,32
	.cfi_def_cfa 8, 0
	sw	a0,-20(s0)
	sw	a1,-24(s0)
	sw	a2,-28(s0)
	.loc 1 422 23
	lw	a2,-28(s0)
	lw	a1,-24(s0)
	lw	a0,-20(s0)
	call	mbedtls_ct_if
	mv	a5,a0
	.loc 1 423 1
	mv	a0,a5
	lw	ra,28(sp)
	.cfi_restore 1
	lw	s0,24(sp)
	.cfi_restore 8
	.cfi_def_cfa 2, 32
	addi	sp,sp,32
	.cfi_def_cfa_offset 0
	jr	ra
	.cfi_endproc
.LFE18:
	.size	mbedtls_ct_uint_if, .-mbedtls_ct_uint_if
	.section	.text.mbedtls_ct_uint_if_else_0,"ax",@progbits
	.align	1
	.type	mbedtls_ct_uint_if_else_0, @function
mbedtls_ct_uint_if_else_0:
.LFB22:
	.loc 1 452 1
	.cfi_startproc
	addi	sp,sp,-32
	.cfi_def_cfa_offset 32
	sw	ra,28(sp)
	sw	s0,24(sp)
	.cfi_offset 1, -4
	.cfi_offset 8, -8
	addi	s0,sp,32
	.cfi_def_cfa 8, 0
	sw	a0,-20(s0)
	sw	a1,-24(s0)
	.loc 1 453 12
	lw	a4,-20(s0)
	lw	a5,-24(s0)
	and	a5,a4,a5
	.loc 1 454 1
	mv	a0,a5
	lw	ra,28(sp)
	.cfi_restore 1
	lw	s0,24(sp)
	.cfi_restore 8
	.cfi_def_cfa 2, 32
	addi	sp,sp,32
	.cfi_def_cfa_offset 0
	jr	ra
	.cfi_endproc
.LFE22:
	.size	mbedtls_ct_uint_if_else_0, .-mbedtls_ct_uint_if_else_0
	.section	.text.mbedtls_ct_uint_eq,"ax",@progbits
	.align	1
	.type	mbedtls_ct_uint_eq, @function
mbedtls_ct_uint_eq:
.LFB27:
	.loc 1 491 1
	.cfi_startproc
	addi	sp,sp,-32
	.cfi_def_cfa_offset 32
	sw	ra,28(sp)
	sw	s0,24(sp)
	.cfi_offset 1, -4
	.cfi_offset 8, -8
	addi	s0,sp,32
	.cfi_def_cfa 8, 0
	sw	a0,-20(s0)
	sw	a1,-24(s0)
	.loc 1 492 13
	lw	a1,-24(s0)
	lw	a0,-20(s0)
	call	mbedtls_ct_uint_ne
	mv	a5,a0
	.loc 1 492 12 discriminator 1
	not	a5,a5
	.loc 1 493 1
	mv	a0,a5
	lw	ra,28(sp)
	.cfi_restore 1
	lw	s0,24(sp)
	.cfi_restore 8
	.cfi_def_cfa 2, 32
	addi	sp,sp,32
	.cfi_def_cfa_offset 0
	jr	ra
	.cfi_endproc
.LFE27:
	.size	mbedtls_ct_uint_eq, .-mbedtls_ct_uint_eq
	.section	.text.mbedtls_ct_uint_gt,"ax",@progbits
	.align	1
	.type	mbedtls_ct_uint_gt, @function
mbedtls_ct_uint_gt:
.LFB28:
	.loc 1 497 1
	.cfi_startproc
	addi	sp,sp,-32
	.cfi_def_cfa_offset 32
	sw	ra,28(sp)
	sw	s0,24(sp)
	.cfi_offset 1, -4
	.cfi_offset 8, -8
	addi	s0,sp,32
	.cfi_def_cfa 8, 0
	sw	a0,-20(s0)
	sw	a1,-24(s0)
	.loc 1 498 12
	lw	a1,-20(s0)
	lw	a0,-24(s0)
	call	mbedtls_ct_uint_lt
	mv	a5,a0
	.loc 1 499 1
	mv	a0,a5
	lw	ra,28(sp)
	.cfi_restore 1
	lw	s0,24(sp)
	.cfi_restore 8
	.cfi_def_cfa 2, 32
	addi	sp,sp,32
	.cfi_def_cfa_offset 0
	jr	ra
	.cfi_endproc
.LFE28:
	.size	mbedtls_ct_uint_gt, .-mbedtls_ct_uint_gt
	.section	.text.mbedtls_ct_uint_ge,"ax",@progbits
	.align	1
	.type	mbedtls_ct_uint_ge, @function
mbedtls_ct_uint_ge:
.LFB29:
	.loc 1 503 1
	.cfi_startproc
	addi	sp,sp,-32
	.cfi_def_cfa_offset 32
	sw	ra,28(sp)
	sw	s0,24(sp)
	.cfi_offset 1, -4
	.cfi_offset 8, -8
	addi	s0,sp,32
	.cfi_def_cfa 8, 0
	sw	a0,-20(s0)
	sw	a1,-24(s0)
	.loc 1 504 13
	lw	a1,-24(s0)
	lw	a0,-20(s0)
	call	mbedtls_ct_uint_lt
	mv	a5,a0
	.loc 1 504 12 discriminator 1
	not	a5,a5
	.loc 1 505 1
	mv	a0,a5
	lw	ra,28(sp)
	.cfi_restore 1
	lw	s0,24(sp)
	.cfi_restore 8
	.cfi_def_cfa 2, 32
	addi	sp,sp,32
	.cfi_def_cfa_offset 0
	jr	ra
	.cfi_endproc
.LFE29:
	.size	mbedtls_ct_uint_ge, .-mbedtls_ct_uint_ge
	.section	.text.mbedtls_ct_bool_and,"ax",@progbits
	.align	1
	.type	mbedtls_ct_bool_and, @function
mbedtls_ct_bool_and:
.LFB32:
	.loc 1 521 1
	.cfi_startproc
	addi	sp,sp,-32
	.cfi_def_cfa_offset 32
	sw	ra,28(sp)
	sw	s0,24(sp)
	.cfi_offset 1, -4
	.cfi_offset 8, -8
	addi	s0,sp,32
	.cfi_def_cfa 8, 0
	sw	a0,-20(s0)
	sw	a1,-24(s0)
	.loc 1 522 12
	lw	a4,-20(s0)
	lw	a5,-24(s0)
	and	a5,a4,a5
	.loc 1 523 1
	mv	a0,a5
	lw	ra,28(sp)
	.cfi_restore 1
	lw	s0,24(sp)
	.cfi_restore 8
	.cfi_def_cfa 2, 32
	addi	sp,sp,32
	.cfi_def_cfa_offset 0
	jr	ra
	.cfi_endproc
.LFE32:
	.size	mbedtls_ct_bool_and, .-mbedtls_ct_bool_and
	.section	.text.mbedtls_ct_memcmp,"ax",@progbits
	.align	1
	.globl	mbedtls_ct_memcmp
	.type	mbedtls_ct_memcmp, @function
mbedtls_ct_memcmp:
.LFB36:
	.file 2 "/home/chandu/sdk/bl602_iot_sdk/components/security/mbedtls-bl602/library/constant_time.c"
	.loc 2 71 1
	.cfi_startproc
	addi	sp,sp,-64
	.cfi_def_cfa_offset 64
	sw	ra,60(sp)
	sw	s0,56(sp)
	.cfi_offset 1, -4
	.cfi_offset 8, -8
	addi	s0,sp,64
	.cfi_def_cfa 8, 0
	sw	a0,-52(s0)
	sw	a1,-56(s0)
	sw	a2,-60(s0)
	.loc 2 72 12
	sw	zero,-20(s0)
	.loc 2 79 35
	lw	a5,-52(s0)
	sw	a5,-28(s0)
	.loc 2 80 35
	lw	a5,-56(s0)
	sw	a5,-32(s0)
	.loc 2 81 14
	sw	zero,-24(s0)
	.loc 2 91 5
	j	.L24
.L25:
.LBB2:
	.loc 2 95 28
	lw	a4,-28(s0)
	lw	a5,-20(s0)
	add	a5,a4,a5
	.loc 2 95 23
	lbu	a5,0(a5)
	sb	a5,-33(s0)
	.loc 2 95 38
	lw	a4,-32(s0)
	lw	a5,-20(s0)
	add	a5,a4,a5
	.loc 2 95 33
	lbu	a5,0(a5)
	sb	a5,-34(s0)
	.loc 2 96 19
	lbu	a5,-33(s0)
	mv	a4,a5
	lbu	a5,-34(s0)
	xor	a5,a4,a5
	andi	a5,a5,0xff
	mv	a4,a5
	.loc 2 96 14
	lw	a5,-24(s0)
	or	a5,a5,a4
	sw	a5,-24(s0)
.LBE2:
	.loc 2 91 20 discriminator 2
	lw	a5,-20(s0)
	addi	a5,a5,1
	sw	a5,-20(s0)
.L24:
	.loc 2 91 14 discriminator 1
	lw	a4,-20(s0)
	lw	a5,-60(s0)
	bltu	a4,a5,.L25
	.loc 2 115 25
	lw	a5,-24(s0)
	slli	a4,a5,16
	srli	a4,a4,16
	.loc 2 115 43
	lw	a5,-24(s0)
	srli	a5,a5,16
	.loc 2 115 35
	or	a5,a4,a5
	.loc 2 117 1
	mv	a0,a5
	lw	ra,60(sp)
	.cfi_restore 1
	lw	s0,56(sp)
	.cfi_restore 8
	.cfi_def_cfa 2, 64
	addi	sp,sp,64
	.cfi_def_cfa_offset 0
	jr	ra
	.cfi_endproc
.LFE36:
	.size	mbedtls_ct_memcmp, .-mbedtls_ct_memcmp
	.section	.text.mbedtls_ct_memcmp_partial,"ax",@progbits
	.align	1
	.globl	mbedtls_ct_memcmp_partial
	.type	mbedtls_ct_memcmp_partial, @function
mbedtls_ct_memcmp_partial:
.LFB37:
	.loc 2 126 1
	.cfi_startproc
	addi	sp,sp,-80
	.cfi_def_cfa_offset 80
	sw	ra,76(sp)
	sw	s0,72(sp)
	sw	s1,68(sp)
	.cfi_offset 1, -4
	.cfi_offset 8, -8
	.cfi_offset 9, -12
	addi	s0,sp,80
	.cfi_def_cfa 8, 0
	sw	a0,-52(s0)
	sw	a1,-56(s0)
	sw	a2,-60(s0)
	sw	a3,-64(s0)
	sw	a4,-68(s0)
	.loc 2 127 18
	sw	zero,-20(s0)
	.loc 2 129 35
	lw	a5,-52(s0)
	sw	a5,-28(s0)
	.loc 2 130 35
	lw	a5,-56(s0)
	sw	a5,-32(s0)
	.loc 2 132 12
	lw	a4,-60(s0)
	lw	a5,-68(s0)
	sub	a5,a4,a5
	sw	a5,-36(s0)
.LBB3:
	.loc 2 134 17
	sw	zero,-24(s0)
	.loc 2 134 5
	j	.L28
.L29:
.LBB4:
	.loc 2 135 28
	lw	a4,-28(s0)
	lw	a5,-24(s0)
	add	a5,a4,a5
	.loc 2 135 23
	lbu	a5,0(a5)
	sb	a5,-37(s0)
	.loc 2 135 38
	lw	a4,-32(s0)
	lw	a5,-24(s0)
	add	a5,a4,a5
	.loc 2 135 33
	lbu	a5,0(a5)
	sb	a5,-38(s0)
	.loc 2 136 28
	lbu	a5,-37(s0)
	mv	a4,a5
	lbu	a5,-38(s0)
	xor	a5,a4,a5
	andi	a5,a5,0xff
	.loc 2 136 22
	sw	a5,-44(s0)
	.loc 2 137 40
	lw	a1,-64(s0)
	lw	a0,-24(s0)
	call	mbedtls_ct_uint_ge
	mv	s1,a0
	.loc 2 137 40 is_stmt 0 discriminator 1
	lw	a1,-36(s0)
	lw	a0,-24(s0)
	call	mbedtls_ct_uint_lt
	mv	a5,a0
	.loc 2 137 40 discriminator 2
	mv	a1,a5
	mv	a0,s1
	call	mbedtls_ct_bool_and
	sw	a0,-48(s0)
	.loc 2 139 17 is_stmt 1
	lw	a1,-44(s0)
	lw	a0,-48(s0)
	call	mbedtls_ct_uint_if_else_0
	mv	a4,a0
	.loc 2 139 14 discriminator 1
	lw	a5,-20(s0)
	or	a5,a5,a4
	sw	a5,-20(s0)
.LBE4:
	.loc 2 134 32 discriminator 3
	lw	a5,-24(s0)
	addi	a5,a5,1
	sw	a5,-24(s0)
.L28:
	.loc 2 134 26 discriminator 1
	lw	a4,-24(s0)
	lw	a5,-60(s0)
	bltu	a4,a5,.L29
.LBE3:
	.loc 2 144 12
	lw	a5,-20(s0)
	.loc 2 145 1
	mv	a0,a5
	lw	ra,76(sp)
	.cfi_restore 1
	lw	s0,72(sp)
	.cfi_restore 8
	.cfi_def_cfa 2, 80
	lw	s1,68(sp)
	.cfi_restore 9
	addi	sp,sp,80
	.cfi_def_cfa_offset 0
	jr	ra
	.cfi_endproc
.LFE37:
	.size	mbedtls_ct_memcmp_partial, .-mbedtls_ct_memcmp_partial
	.section	.text.mbedtls_ct_memmove_left,"ax",@progbits
	.align	1
	.globl	mbedtls_ct_memmove_left
	.type	mbedtls_ct_memmove_left, @function
mbedtls_ct_memmove_left:
.LFB38:
	.loc 2 152 1
	.cfi_startproc
	addi	sp,sp,-64
	.cfi_def_cfa_offset 64
	sw	ra,60(sp)
	sw	s0,56(sp)
	.cfi_offset 1, -4
	.cfi_offset 8, -8
	addi	s0,sp,64
	.cfi_def_cfa 8, 0
	sw	a0,-52(s0)
	sw	a1,-56(s0)
	sw	a2,-60(s0)
	.loc 2 153 29
	lw	a5,-52(s0)
	sw	a5,-28(s0)
.LBB5:
	.loc 2 154 17
	sw	zero,-20(s0)
	.loc 2 154 5
	j	.L32
.L35:
.LBB6:
	.loc 2 155 65
	lw	a4,-56(s0)
	lw	a5,-60(s0)
	sub	a5,a4,a5
	.loc 2 155 40
	lw	a1,-20(s0)
	mv	a0,a5
	call	mbedtls_ct_uint_gt
	sw	a0,-32(s0)
.LBB7:
	.loc 2 159 21
	sw	zero,-24(s0)
	.loc 2 159 9
	j	.L33
.L34:
.LBB8:
	.loc 2 160 40
	lw	a4,-28(s0)
	lw	a5,-24(s0)
	add	a5,a4,a5
	.loc 2 160 27
	lbu	a5,0(a5)
	sb	a5,-33(s0)
	.loc 2 161 37
	lw	a5,-24(s0)
	addi	a5,a5,1
	lw	a4,-28(s0)
	add	a5,a4,a5
	.loc 2 161 27
	lbu	a5,0(a5)
	sb	a5,-34(s0)
	.loc 2 162 22
	lbu	a5,-33(s0)
	lbu	a4,-34(s0)
	mv	a2,a4
	mv	a1,a5
	lw	a0,-32(s0)
	call	mbedtls_ct_uint_if
	mv	a3,a0
	.loc 2 162 16 discriminator 1
	lw	a4,-28(s0)
	lw	a5,-24(s0)
	add	a5,a4,a5
	.loc 2 162 20 discriminator 1
	andi	a4,a3,0xff
	sb	a4,0(a5)
.LBE8:
	.loc 2 159 44 discriminator 3
	lw	a5,-24(s0)
	addi	a5,a5,1
	sw	a5,-24(s0)
.L33:
	.loc 2 159 38 discriminator 1
	lw	a5,-56(s0)
	addi	a5,a5,-1
	.loc 2 159 30 discriminator 1
	lw	a4,-24(s0)
	bltu	a4,a5,.L34
.LBE7:
	.loc 2 164 60
	lw	a5,-56(s0)
	addi	a5,a5,-1
	lw	a4,-28(s0)
	add	a5,a4,a5
	lbu	a5,0(a5)
	andi	a5,a5,0xff
	.loc 2 164 24
	mv	a1,a5
	lw	a0,-32(s0)
	call	mbedtls_ct_uint_if_else_0
	mv	a3,a0
	.loc 2 164 12 discriminator 1
	lw	a5,-56(s0)
	addi	a5,a5,-1
	lw	a4,-28(s0)
	add	a5,a4,a5
	.loc 2 164 22 discriminator 1
	andi	a4,a3,0xff
	sb	a4,0(a5)
.LBE6:
	.loc 2 154 36 discriminator 2
	lw	a5,-20(s0)
	addi	a5,a5,1
	sw	a5,-20(s0)
.L32:
	.loc 2 154 26 discriminator 1
	lw	a4,-20(s0)
	lw	a5,-56(s0)
	bltu	a4,a5,.L35
.LBE5:
	.loc 2 166 1
	nop
	nop
	lw	ra,60(sp)
	.cfi_restore 1
	lw	s0,56(sp)
	.cfi_restore 8
	.cfi_def_cfa 2, 64
	addi	sp,sp,64
	.cfi_def_cfa_offset 0
	jr	ra
	.cfi_endproc
.LFE38:
	.size	mbedtls_ct_memmove_left, .-mbedtls_ct_memmove_left
	.section	.text.mbedtls_ct_memcpy_if,"ax",@progbits
	.align	1
	.globl	mbedtls_ct_memcpy_if
	.type	mbedtls_ct_memcpy_if, @function
mbedtls_ct_memcpy_if:
.LFB39:
	.loc 2 175 1
	.cfi_startproc
	addi	sp,sp,-64
	.cfi_def_cfa_offset 64
	sw	ra,60(sp)
	sw	s0,56(sp)
	.cfi_offset 1, -4
	.cfi_offset 8, -8
	addi	s0,sp,64
	.cfi_def_cfa 8, 0
	sw	a0,-36(s0)
	sw	a1,-40(s0)
	sw	a2,-44(s0)
	sw	a3,-48(s0)
	sw	a4,-52(s0)
	.loc 2 180 20
	lw	a5,-36(s0)
	sw	a5,-24(s0)
	.loc 2 181 43
	lw	a0,-36(s0)
	call	mbedtls_ct_compiler_opaque
	mv	a5,a0
	.loc 2 181 20 discriminator 1
	not	a5,a5
	sw	a5,-28(s0)
	.loc 2 189 8
	lw	a5,-48(s0)
	bne	a5,zero,.L37
	.loc 2 190 14
	lw	a5,-40(s0)
	sw	a5,-48(s0)
.L37:
	.loc 2 194 12
	sw	zero,-20(s0)
	.loc 2 210 5
	j	.L38
.L39:
	.loc 2 211 24
	lw	a4,-44(s0)
	lw	a5,-20(s0)
	add	a5,a4,a5
	lbu	a4,0(a5)
	.loc 2 211 28
	lw	a5,-24(s0)
	andi	a5,a5,0xff
	and	a5,a4,a5
	andi	a3,a5,0xff
	.loc 2 211 43
	lw	a4,-48(s0)
	lw	a5,-20(s0)
	add	a5,a4,a5
	lbu	a4,0(a5)
	.loc 2 211 47
	lw	a5,-28(s0)
	andi	a5,a5,0xff
	and	a5,a4,a5
	andi	a4,a5,0xff
	.loc 2 211 13
	lw	a2,-40(s0)
	lw	a5,-20(s0)
	add	a5,a2,a5
	.loc 2 211 36
	or	a4,a3,a4
	andi	a4,a4,0xff
	.loc 2 211 17
	sb	a4,0(a5)
	.loc 2 210 22 discriminator 2
	lw	a5,-20(s0)
	addi	a5,a5,1
	sw	a5,-20(s0)
.L38:
	.loc 2 210 14 discriminator 1
	lw	a4,-20(s0)
	lw	a5,-52(s0)
	bltu	a4,a5,.L39
	.loc 2 213 1
	nop
	nop
	lw	ra,60(sp)
	.cfi_restore 1
	lw	s0,56(sp)
	.cfi_restore 8
	.cfi_def_cfa 2, 64
	addi	sp,sp,64
	.cfi_def_cfa_offset 0
	jr	ra
	.cfi_endproc
.LFE39:
	.size	mbedtls_ct_memcpy_if, .-mbedtls_ct_memcpy_if
	.section	.text.mbedtls_ct_memcpy_offset,"ax",@progbits
	.align	1
	.globl	mbedtls_ct_memcpy_offset
	.type	mbedtls_ct_memcpy_offset, @function
mbedtls_ct_memcpy_offset:
.LFB40:
	.loc 2 221 1
	.cfi_startproc
	addi	sp,sp,-64
	.cfi_def_cfa_offset 64
	sw	ra,60(sp)
	sw	s0,56(sp)
	.cfi_offset 1, -4
	.cfi_offset 8, -8
	addi	s0,sp,64
	.cfi_def_cfa 8, 0
	sw	a0,-36(s0)
	sw	a1,-40(s0)
	sw	a2,-44(s0)
	sw	a3,-48(s0)
	sw	a4,-52(s0)
	sw	a5,-56(s0)
	.loc 2 224 20
	lw	a5,-48(s0)
	sw	a5,-20(s0)
	.loc 2 224 5
	j	.L41
.L42:
	.loc 2 225 9
	lw	a1,-44(s0)
	lw	a0,-20(s0)
	call	mbedtls_ct_uint_eq
	.loc 2 225 9 is_stmt 0 discriminator 1
	lw	a4,-40(s0)
	lw	a5,-20(s0)
	add	a5,a4,a5
	lw	a4,-56(s0)
	li	a3,0
	mv	a2,a5
	lw	a1,-36(s0)
	call	mbedtls_ct_memcpy_if
	.loc 2 224 68 is_stmt 1 discriminator 3
	lw	a5,-20(s0)
	addi	a5,a5,1
	sw	a5,-20(s0)
.L41:
	.loc 2 224 44 discriminator 1
	lw	a4,-20(s0)
	lw	a5,-52(s0)
	bleu	a4,a5,.L42
	.loc 2 228 1
	nop
	nop
	lw	ra,60(sp)
	.cfi_restore 1
	lw	s0,56(sp)
	.cfi_restore 8
	.cfi_def_cfa 2, 64
	addi	sp,sp,64
	.cfi_def_cfa_offset 0
	jr	ra
	.cfi_endproc
.LFE40:
	.size	mbedtls_ct_memcpy_offset, .-mbedtls_ct_memcpy_offset
	.section	.text.mbedtls_ct_zeroize_if,"ax",@progbits
	.align	1
	.globl	mbedtls_ct_zeroize_if
	.type	mbedtls_ct_zeroize_if, @function
mbedtls_ct_zeroize_if:
.LFB41:
	.loc 2 233 1
	.cfi_startproc
	addi	sp,sp,-48
	.cfi_def_cfa_offset 48
	sw	ra,44(sp)
	sw	s0,40(sp)
	.cfi_offset 1, -4
	.cfi_offset 8, -8
	addi	s0,sp,48
	.cfi_def_cfa 8, 0
	sw	a0,-36(s0)
	sw	a1,-40(s0)
	sw	a2,-44(s0)
	.loc 2 234 14
	lw	a5,-36(s0)
	not	a5,a5
	sw	a5,-24(s0)
	.loc 2 235 14
	lw	a5,-40(s0)
	sw	a5,-28(s0)
	.loc 2 236 12
	sw	zero,-20(s0)
	.loc 2 243 5
	j	.L44
.L45:
	.loc 2 244 17
	lw	a4,-28(s0)
	lw	a5,-20(s0)
	add	a5,a4,a5
	lbu	a3,0(a5)
	.loc 2 244 21
	lw	a5,-24(s0)
	andi	a4,a5,0xff
	.loc 2 244 10
	lw	a2,-28(s0)
	lw	a5,-20(s0)
	add	a5,a2,a5
	.loc 2 244 21
	and	a4,a3,a4
	andi	a4,a4,0xff
	.loc 2 244 14
	sb	a4,0(a5)
	.loc 2 243 22 discriminator 2
	lw	a5,-20(s0)
	addi	a5,a5,1
	sw	a5,-20(s0)
.L44:
	.loc 2 243 14 discriminator 1
	lw	a4,-20(s0)
	lw	a5,-44(s0)
	bltu	a4,a5,.L45
	.loc 2 246 1
	nop
	nop
	lw	ra,44(sp)
	.cfi_restore 1
	lw	s0,40(sp)
	.cfi_restore 8
	.cfi_def_cfa 2, 48
	addi	sp,sp,48
	.cfi_def_cfa_offset 0
	jr	ra
	.cfi_endproc
.LFE41:
	.size	mbedtls_ct_zeroize_if, .-mbedtls_ct_zeroize_if
	.text
.Letext0:
	.file 3 "/home/chandu/sdk/bl602_iot_sdk/toolchain/compiler/lib/gcc/riscv32-unknown-elf/15.1.0/include/stdint-gcc.h"
	.file 4 "/home/chandu/sdk/bl602_iot_sdk/toolchain/compiler/lib/gcc/riscv32-unknown-elf/15.1.0/include/stddef.h"
	.file 5 "/home/chandu/sdk/bl602_iot_sdk/components/security/mbedtls-bl602/library/constant_time_internal.h"
	.section	.note.GNU-stack,"",@progbits
