	.file	"debug.c"
	.option nopic
	.attribute arch, "rv32i2p1_m2p0_f2p2_c2p0_zicsr2p0_zmmul1p0_zca1p0_zcf1p0"
	.attribute unaligned_access, 0
	.attribute stack_align, 16
	.text
.Ltext0:
	.cfi_sections	.debug_frame
	.file 0 "/home/chandu/sdk/bl602_iot_sdk/customer_app/suas_app_pqkem_gateway/build_out/mbedtls-bl602" "/home/chandu/sdk/bl602_iot_sdk/components/security/mbedtls-bl602/library/debug.c"
	.section	.sbss.debug_threshold,"aw",@nobits
	.align	2
	.type	debug_threshold, @object
	.size	debug_threshold, 4
debug_threshold:
	.zero	4
	.section	.text.mbedtls_debug_set_threshold,"ax",@progbits
	.align	1
	.globl	mbedtls_debug_set_threshold
	.type	mbedtls_debug_set_threshold, @function
mbedtls_debug_set_threshold:
.LFB98:
	.file 1 "/home/chandu/sdk/bl602_iot_sdk/components/security/mbedtls-bl602/library/debug.c"
	.loc 1 27 1
	.cfi_startproc
	addi	sp,sp,-32
	.cfi_def_cfa_offset 32
	sw	ra,28(sp)
	sw	s0,24(sp)
	.cfi_offset 1, -4
	.cfi_offset 8, -8
	addi	s0,sp,32
	.cfi_def_cfa 8, 0
	sw	a0,-20(s0)
	.loc 1 28 21
	lui	a5,%hi(debug_threshold)
	lw	a4,-20(s0)
	sw	a4,%lo(debug_threshold)(a5)
	.loc 1 29 1
	nop
	lw	ra,28(sp)
	.cfi_restore 1
	lw	s0,24(sp)
	.cfi_restore 8
	.cfi_def_cfa 2, 32
	addi	sp,sp,32
	.cfi_def_cfa_offset 0
	jr	ra
	.cfi_endproc
.LFE98:
	.size	mbedtls_debug_set_threshold, .-mbedtls_debug_set_threshold
	.section	.text.debug_send_line,"ax",@progbits
	.align	1
	.type	debug_send_line, @function
debug_send_line:
.LFB99:
	.loc 1 37 1
	.cfi_startproc
	addi	sp,sp,-48
	.cfi_def_cfa_offset 48
	sw	ra,44(sp)
	sw	s0,40(sp)
	.cfi_offset 1, -4
	.cfi_offset 8, -8
	addi	s0,sp,48
	.cfi_def_cfa 8, 0
	sw	a0,-20(s0)
	sw	a1,-24(s0)
	sw	a2,-28(s0)
	sw	a3,-32(s0)
	sw	a4,-36(s0)
	.loc 1 48 8
	lw	a5,-20(s0)
	lw	a5,0(a5)
	.loc 1 48 14
	lw	a5,24(a5)
	.loc 1 48 25
	lw	a4,-20(s0)
	lw	a4,0(a4)
	.loc 1 48 31
	lw	a0,28(a4)
	.loc 1 48 5
	lw	a4,-36(s0)
	lw	a3,-32(s0)
	lw	a2,-28(s0)
	lw	a1,-24(s0)
	jalr	a5
.LVL0:
	.loc 1 50 1
	nop
	lw	ra,44(sp)
	.cfi_restore 1
	lw	s0,40(sp)
	.cfi_restore 8
	.cfi_def_cfa 2, 48
	addi	sp,sp,48
	.cfi_def_cfa_offset 0
	jr	ra
	.cfi_endproc
.LFE99:
	.size	debug_send_line, .-debug_send_line
	.section	.text.mbedtls_debug_print_msg,"ax",@progbits
	.align	1
	.globl	mbedtls_debug_print_msg
	.type	mbedtls_debug_print_msg, @function
mbedtls_debug_print_msg:
.LFB100:
	.loc 1 56 1
	.cfi_startproc
	addi	sp,sp,-592
	.cfi_def_cfa_offset 592
	sw	ra,572(sp)
	sw	s0,568(sp)
	.cfi_offset 1, -20
	.cfi_offset 8, -24
	addi	s0,sp,576
	.cfi_def_cfa 8, 16
	sw	a0,-548(s0)
	sw	a1,-552(s0)
	sw	a2,-556(s0)
	sw	a3,-560(s0)
	sw	a4,-564(s0)
	sw	a5,4(s0)
	sw	a6,8(s0)
	sw	a7,12(s0)
	.loc 1 59 9
	li	a5,-110
	sw	a5,-20(s0)
	.loc 1 63 8
	lw	a5,-548(s0)
	beq	a5,zero,.L9
	.loc 1 64 19
	lw	a5,-548(s0)
	lw	a5,0(a5)
	.loc 1 63 20 discriminator 1
	beq	a5,zero,.L9
	.loc 1 65 19
	lw	a5,-548(s0)
	lw	a5,0(a5)
	.loc 1 65 25
	lw	a5,24(a5)
	.loc 1 64 26
	beq	a5,zero,.L9
	.loc 1 66 15
	lui	a5,%hi(debug_threshold)
	lw	a5,%lo(debug_threshold)(a5)
	.loc 1 65 33
	lw	a4,-552(s0)
	bgt	a4,a5,.L9
	.loc 1 70 4
	addi	a5,s0,16
	sw	a5,-568(s0)
	lw	a5,-568(s0)
	addi	a5,a5,-12
	sw	a5,-24(s0)
	.loc 1 71 11
	lw	a4,-24(s0)
	addi	a5,s0,-536
	mv	a3,a4
	lw	a2,-564(s0)
	li	a1,512
	mv	a0,a5
	call	vsnprintf
	sw	a0,-20(s0)
	.loc 1 74 8
	lw	a5,-20(s0)
	bge	a5,zero,.L7
	.loc 1 75 13
	sw	zero,-20(s0)
	j	.L8
.L7:
	.loc 1 77 12
	lw	a4,-20(s0)
	li	a5,510
	ble	a4,a5,.L8
	.loc 1 78 17
	li	a5,510
	sw	a5,-20(s0)
.L8:
	.loc 1 81 14
	lw	a5,-20(s0)
	addi	a5,a5,-16
	add	a5,a5,s0
	li	a4,10
	sb	a4,-520(a5)
	.loc 1 82 13
	lw	a5,-20(s0)
	addi	a5,a5,1
	.loc 1 82 18
	addi	a5,a5,-16
	add	a5,a5,s0
	sb	zero,-520(a5)
	.loc 1 84 5
	addi	a5,s0,-536
	mv	a4,a5
	lw	a3,-560(s0)
	lw	a2,-556(s0)
	lw	a1,-552(s0)
	lw	a0,-548(s0)
	call	debug_send_line
	j	.L3
.L9:
	.loc 1 67 9 discriminator 1
	nop
.L3:
	.loc 1 85 1
	lw	ra,572(sp)
	.cfi_restore 1
	lw	s0,568(sp)
	.cfi_restore 8
	.cfi_def_cfa 2, 592
	addi	sp,sp,592
	.cfi_def_cfa_offset 0
	jr	ra
	.cfi_endproc
.LFE100:
	.size	mbedtls_debug_print_msg, .-mbedtls_debug_print_msg
	.section	.rodata
	.align	2
.LC0:
	.string	"%s() returned %d (-0x%04x)\n"
	.section	.text.mbedtls_debug_print_ret,"ax",@progbits
	.align	1
	.globl	mbedtls_debug_print_ret
	.type	mbedtls_debug_print_ret, @function
mbedtls_debug_print_ret:
.LFB101:
	.loc 1 90 1
	.cfi_startproc
	addi	sp,sp,-560
	.cfi_def_cfa_offset 560
	sw	ra,556(sp)
	sw	s0,552(sp)
	.cfi_offset 1, -4
	.cfi_offset 8, -8
	addi	s0,sp,560
	.cfi_def_cfa 8, 0
	sw	a0,-532(s0)
	sw	a1,-536(s0)
	sw	a2,-540(s0)
	sw	a3,-544(s0)
	sw	a4,-548(s0)
	sw	a5,-552(s0)
	.loc 1 93 8
	lw	a5,-532(s0)
	beq	a5,zero,.L16
	.loc 1 94 19
	lw	a5,-532(s0)
	lw	a5,0(a5)
	.loc 1 93 20 discriminator 1
	beq	a5,zero,.L16
	.loc 1 95 19
	lw	a5,-532(s0)
	lw	a5,0(a5)
	.loc 1 95 25
	lw	a5,24(a5)
	.loc 1 94 26
	beq	a5,zero,.L16
	.loc 1 96 15
	lui	a5,%hi(debug_threshold)
	lw	a5,%lo(debug_threshold)(a5)
	.loc 1 95 33
	lw	a4,-536(s0)
	bgt	a4,a5,.L16
	.loc 1 105 8
	lw	a4,-552(s0)
	li	a5,-28672
	addi	a5,a5,1792
	beq	a4,a5,.L17
	.loc 1 110 48
	lw	a5,-552(s0)
	neg	a5,a5
	.loc 1 109 5
	addi	a0,s0,-528
	lw	a4,-552(s0)
	lw	a3,-548(s0)
	lui	a2,%hi(.LC0)
	addi	a2,a2,%lo(.LC0)
	li	a1,512
	call	snprintf
	.loc 1 112 5
	addi	a5,s0,-528
	mv	a4,a5
	lw	a3,-544(s0)
	lw	a2,-540(s0)
	lw	a1,-536(s0)
	lw	a0,-532(s0)
	call	debug_send_line
	j	.L10
.L16:
	.loc 1 97 9
	nop
	j	.L10
.L17:
	.loc 1 106 9
	nop
.L10:
	.loc 1 113 1
	lw	ra,556(sp)
	.cfi_restore 1
	lw	s0,552(sp)
	.cfi_restore 8
	.cfi_def_cfa 2, 560
	addi	sp,sp,560
	.cfi_def_cfa_offset 0
	jr	ra
	.cfi_endproc
.LFE101:
	.size	mbedtls_debug_print_ret, .-mbedtls_debug_print_ret
	.section	.rodata
	.align	2
.LC1:
	.string	"dumping '%s' (%u bytes)\n"
	.align	2
.LC2:
	.string	"  %s\n"
	.align	2
.LC3:
	.string	"%04x: "
	.align	2
.LC4:
	.string	" %02x"
	.align	2
.LC5:
	.string	"   "
	.section	.text.mbedtls_debug_print_buf,"ax",@progbits
	.align	1
	.globl	mbedtls_debug_print_buf
	.type	mbedtls_debug_print_buf, @function
mbedtls_debug_print_buf:
.LFB102:
	.loc 1 118 1
	.cfi_startproc
	addi	sp,sp,-592
	.cfi_def_cfa_offset 592
	sw	ra,588(sp)
	sw	s0,584(sp)
	.cfi_offset 1, -4
	.cfi_offset 8, -8
	addi	s0,sp,592
	.cfi_def_cfa 8, 0
	sw	a0,-564(s0)
	sw	a1,-568(s0)
	sw	a2,-572(s0)
	sw	a3,-576(s0)
	sw	a4,-580(s0)
	sw	a5,-584(s0)
	sw	a6,-588(s0)
	.loc 1 121 15
	sw	zero,-24(s0)
	.loc 1 123 8
	lw	a5,-564(s0)
	beq	a5,zero,.L33
	.loc 1 124 19
	lw	a5,-564(s0)
	lw	a5,0(a5)
	.loc 1 123 20 discriminator 1
	beq	a5,zero,.L33
	.loc 1 125 19
	lw	a5,-564(s0)
	lw	a5,0(a5)
	.loc 1 125 25
	lw	a5,24(a5)
	.loc 1 124 26
	beq	a5,zero,.L33
	.loc 1 126 15
	lui	a5,%hi(debug_threshold)
	lw	a5,%lo(debug_threshold)(a5)
	.loc 1 125 33
	lw	a4,-568(s0)
	bgt	a4,a5,.L33
	.loc 1 130 5
	addi	a4,s0,-536
	lw	a5,-24(s0)
	add	a0,a4,a5
	.loc 1 130 37
	li	a4,512
	lw	a5,-24(s0)
	sub	a1,a4,a5
	.loc 1 130 5
	lw	a4,-588(s0)
	lw	a3,-580(s0)
	lui	a5,%hi(.LC1)
	addi	a2,a5,%lo(.LC1)
	call	snprintf
	.loc 1 133 5
	addi	a5,s0,-536
	mv	a4,a5
	lw	a3,-576(s0)
	lw	a2,-572(s0)
	lw	a1,-568(s0)
	lw	a0,-564(s0)
	call	debug_send_line
	.loc 1 135 5
	addi	a5,s0,-556
	li	a2,17
	li	a1,0
	mv	a0,a5
	call	memset
	.loc 1 136 12
	sw	zero,-20(s0)
	.loc 1 136 5
	j	.L22
.L29:
	.loc 1 137 12
	lw	a4,-20(s0)
	li	a5,4096
	bgeu	a4,a5,.L34
	.loc 1 141 15
	lw	a5,-20(s0)
	andi	a5,a5,15
	.loc 1 141 12
	bne	a5,zero,.L25
	.loc 1 142 16
	lw	a5,-20(s0)
	beq	a5,zero,.L26
	.loc 1 143 17
	addi	a4,s0,-536
	lw	a5,-24(s0)
	add	a0,a4,a5
	.loc 1 143 49
	li	a4,512
	lw	a5,-24(s0)
	sub	a4,a4,a5
	.loc 1 143 17
	addi	a5,s0,-556
	mv	a3,a5
	lui	a5,%hi(.LC2)
	addi	a2,a5,%lo(.LC2)
	mv	a1,a4
	call	snprintf
	.loc 1 144 17
	addi	a5,s0,-536
	mv	a4,a5
	lw	a3,-576(s0)
	lw	a2,-572(s0)
	lw	a1,-568(s0)
	lw	a0,-564(s0)
	call	debug_send_line
	.loc 1 146 21
	sw	zero,-24(s0)
	.loc 1 147 17
	addi	a5,s0,-556
	li	a2,17
	li	a1,0
	mv	a0,a5
	call	memset
.L26:
	.loc 1 150 20
	addi	a4,s0,-536
	lw	a5,-24(s0)
	add	a0,a4,a5
	.loc 1 150 52
	li	a4,512
	lw	a5,-24(s0)
	sub	a4,a4,a5
	.loc 1 150 20
	lw	a3,-20(s0)
	lui	a5,%hi(.LC3)
	addi	a2,a5,%lo(.LC3)
	mv	a1,a4
	call	snprintf
	mv	a5,a0
	.loc 1 150 20 is_stmt 0 discriminator 1
	mv	a4,a5
	.loc 1 150 17 is_stmt 1 discriminator 1
	lw	a5,-24(s0)
	add	a5,a5,a4
	sw	a5,-24(s0)
.L25:
	.loc 1 155 16
	addi	a4,s0,-536
	lw	a5,-24(s0)
	add	a0,a4,a5
	.loc 1 155 48
	li	a4,512
	lw	a5,-24(s0)
	sub	a1,a4,a5
	.loc 1 156 51
	lw	a4,-584(s0)
	lw	a5,-20(s0)
	add	a5,a4,a5
	lbu	a5,0(a5)
	.loc 1 155 16
	mv	a3,a5
	lui	a5,%hi(.LC4)
	addi	a2,a5,%lo(.LC4)
	call	snprintf
	mv	a5,a0
	.loc 1 155 16 is_stmt 0 discriminator 1
	mv	a4,a5
	.loc 1 155 13 is_stmt 1 discriminator 1
	lw	a5,-24(s0)
	add	a5,a5,a4
	sw	a5,-24(s0)
	.loc 1 157 27
	lw	a4,-584(s0)
	lw	a5,-20(s0)
	add	a5,a4,a5
	lbu	a4,0(a5)
	.loc 1 157 21
	li	a5,31
	bleu	a4,a5,.L27
	.loc 1 157 42 discriminator 1
	lw	a4,-584(s0)
	lw	a5,-20(s0)
	add	a5,a4,a5
	lbu	a4,0(a5)
	.loc 1 157 36 discriminator 1
	li	a5,126
	bgtu	a4,a5,.L27
	.loc 1 157 58 discriminator 3
	lw	a4,-584(s0)
	lw	a5,-20(s0)
	add	a5,a4,a5
	.loc 1 157 21 discriminator 3
	lbu	a5,0(a5)
	.loc 1 157 21 is_stmt 0
	j	.L28
.L27:
	.loc 1 157 21 discriminator 4
	li	a5,46
.L28:
	.loc 1 157 15 is_stmt 1 discriminator 6
	lw	a4,-20(s0)
	andi	a4,a4,15
	.loc 1 157 21 discriminator 6
	addi	a4,a4,-16
	add	a4,a4,s0
	sb	a5,-540(a4)
	.loc 1 136 27 discriminator 2
	lw	a5,-20(s0)
	addi	a5,a5,1
	sw	a5,-20(s0)
.L22:
	.loc 1 136 19 discriminator 1
	lw	a4,-20(s0)
	lw	a5,-588(s0)
	bltu	a4,a5,.L29
	j	.L24
.L34:
	.loc 1 138 13
	nop
.L24:
	.loc 1 160 8
	lw	a5,-588(s0)
	beq	a5,zero,.L18
	.loc 1 161 9
	j	.L31
.L32:
	.loc 1 162 20
	addi	a4,s0,-536
	lw	a5,-24(s0)
	add	a3,a4,a5
	.loc 1 162 52
	li	a4,512
	lw	a5,-24(s0)
	sub	a4,a4,a5
	.loc 1 162 20
	lui	a5,%hi(.LC5)
	addi	a2,a5,%lo(.LC5)
	mv	a1,a4
	mv	a0,a3
	call	snprintf
	mv	a5,a0
	.loc 1 162 20 is_stmt 0 discriminator 1
	mv	a4,a5
	.loc 1 162 17 is_stmt 1 discriminator 1
	lw	a5,-24(s0)
	add	a5,a5,a4
	sw	a5,-24(s0)
	.loc 1 161 31 discriminator 2
	lw	a5,-20(s0)
	addi	a5,a5,1
	sw	a5,-20(s0)
.L31:
	.loc 1 161 19 discriminator 1
	lw	a5,-20(s0)
	andi	a5,a5,15
	.loc 1 161 24 discriminator 1
	bne	a5,zero,.L32
	.loc 1 165 9
	addi	a4,s0,-536
	lw	a5,-24(s0)
	add	a0,a4,a5
	.loc 1 165 41
	li	a4,512
	lw	a5,-24(s0)
	sub	a4,a4,a5
	.loc 1 165 9
	addi	a5,s0,-556
	mv	a3,a5
	lui	a5,%hi(.LC2)
	addi	a2,a5,%lo(.LC2)
	mv	a1,a4
	call	snprintf
	.loc 1 166 9
	addi	a5,s0,-536
	mv	a4,a5
	lw	a3,-576(s0)
	lw	a2,-572(s0)
	lw	a1,-568(s0)
	lw	a0,-564(s0)
	call	debug_send_line
	j	.L18
.L33:
	.loc 1 127 9 discriminator 1
	nop
.L18:
	.loc 1 168 1
	lw	ra,588(sp)
	.cfi_restore 1
	lw	s0,584(sp)
	.cfi_restore 8
	.cfi_def_cfa 2, 592
	addi	sp,sp,592
	.cfi_def_cfa_offset 0
	jr	ra
	.cfi_endproc
.LFE102:
	.size	mbedtls_debug_print_buf, .-mbedtls_debug_print_buf
	.section	.rodata
	.align	2
.LC6:
	.string	"%s(X)"
	.align	2
.LC7:
	.string	"%s(Y)"
	.section	.text.mbedtls_debug_print_ecp,"ax",@progbits
	.align	1
	.globl	mbedtls_debug_print_ecp
	.type	mbedtls_debug_print_ecp, @function
mbedtls_debug_print_ecp:
.LFB103:
	.loc 1 174 1
	.cfi_startproc
	addi	sp,sp,-560
	.cfi_def_cfa_offset 560
	sw	ra,556(sp)
	sw	s0,552(sp)
	.cfi_offset 1, -4
	.cfi_offset 8, -8
	addi	s0,sp,560
	.cfi_def_cfa 8, 0
	sw	a0,-532(s0)
	sw	a1,-536(s0)
	sw	a2,-540(s0)
	sw	a3,-544(s0)
	sw	a4,-548(s0)
	sw	a5,-552(s0)
	.loc 1 177 8
	lw	a5,-532(s0)
	beq	a5,zero,.L39
	.loc 1 178 19
	lw	a5,-532(s0)
	lw	a5,0(a5)
	.loc 1 177 20 discriminator 1
	beq	a5,zero,.L39
	.loc 1 179 19
	lw	a5,-532(s0)
	lw	a5,0(a5)
	.loc 1 179 25
	lw	a5,24(a5)
	.loc 1 178 26
	beq	a5,zero,.L39
	.loc 1 180 15
	lui	a5,%hi(debug_threshold)
	lw	a5,%lo(debug_threshold)(a5)
	.loc 1 179 33
	lw	a4,-536(s0)
	bgt	a4,a5,.L39
	.loc 1 184 5
	addi	a4,s0,-528
	lw	a3,-548(s0)
	lui	a5,%hi(.LC6)
	addi	a2,a5,%lo(.LC6)
	li	a1,512
	mv	a0,a4
	call	snprintf
	.loc 1 185 5
	lw	a5,-552(s0)
	addi	a4,s0,-528
	lw	a3,-544(s0)
	lw	a2,-540(s0)
	lw	a1,-536(s0)
	lw	a0,-532(s0)
	call	mbedtls_debug_print_mpi
	.loc 1 187 5
	addi	a4,s0,-528
	lw	a3,-548(s0)
	lui	a5,%hi(.LC7)
	addi	a2,a5,%lo(.LC7)
	li	a1,512
	mv	a0,a4
	call	snprintf
	.loc 1 188 5
	lw	a5,-552(s0)
	addi	a5,a5,8
	addi	a4,s0,-528
	lw	a3,-544(s0)
	lw	a2,-540(s0)
	lw	a1,-536(s0)
	lw	a0,-532(s0)
	call	mbedtls_debug_print_mpi
	j	.L35
.L39:
	.loc 1 181 9 discriminator 1
	nop
.L35:
	.loc 1 189 1
	lw	ra,556(sp)
	.cfi_restore 1
	lw	s0,552(sp)
	.cfi_restore 8
	.cfi_def_cfa 2, 560
	addi	sp,sp,560
	.cfi_def_cfa_offset 0
	jr	ra
	.cfi_endproc
.LFE103:
	.size	mbedtls_debug_print_ecp, .-mbedtls_debug_print_ecp
	.section	.rodata
	.align	2
.LC8:
	.string	"value of '%s' (%u bits) is:\n"
	.align	2
.LC9:
	.string	"\n"
	.section	.text.mbedtls_debug_print_mpi,"ax",@progbits
	.align	1
	.globl	mbedtls_debug_print_mpi
	.type	mbedtls_debug_print_mpi, @function
mbedtls_debug_print_mpi:
.LFB104:
	.loc 1 268 1
	.cfi_startproc
	addi	sp,sp,-592
	.cfi_def_cfa_offset 592
	sw	ra,588(sp)
	sw	s0,584(sp)
	.cfi_offset 1, -4
	.cfi_offset 8, -8
	addi	s0,sp,592
	.cfi_def_cfa 8, 0
	sw	a0,-564(s0)
	sw	a1,-568(s0)
	sw	a2,-572(s0)
	sw	a3,-576(s0)
	sw	a4,-580(s0)
	sw	a5,-584(s0)
	.loc 1 271 12
	sw	zero,-20(s0)
	.loc 1 273 8
	lw	a5,-564(s0)
	beq	a5,zero,.L50
	.loc 1 274 19
	lw	a5,-564(s0)
	lw	a5,0(a5)
	.loc 1 273 20 discriminator 1
	beq	a5,zero,.L50
	.loc 1 275 19
	lw	a5,-564(s0)
	lw	a5,0(a5)
	.loc 1 275 25
	lw	a5,24(a5)
	.loc 1 274 26
	beq	a5,zero,.L50
	.loc 1 275 33
	lw	a5,-584(s0)
	beq	a5,zero,.L50
	.loc 1 277 15
	lui	a5,%hi(debug_threshold)
	lw	a5,%lo(debug_threshold)(a5)
	.loc 1 276 18
	lw	a4,-568(s0)
	bgt	a4,a5,.L50
	.loc 1 281 14
	lw	a0,-584(s0)
	call	mbedtls_mpi_bitlen
	sw	a0,-28(s0)
	.loc 1 283 5
	addi	a0,s0,-552
	lw	a4,-28(s0)
	lw	a3,-580(s0)
	lui	a5,%hi(.LC8)
	addi	a2,a5,%lo(.LC8)
	li	a1,512
	call	snprintf
	.loc 1 285 5
	addi	a5,s0,-552
	mv	a4,a5
	lw	a3,-576(s0)
	lw	a2,-572(s0)
	lw	a1,-568(s0)
	lw	a0,-564(s0)
	call	debug_send_line
	.loc 1 287 8
	lw	a5,-28(s0)
	bne	a5,zero,.L44
	.loc 1 288 16
	li	a5,32
	sb	a5,-552(s0)
	.loc 1 288 30
	li	a5,48
	sb	a5,-551(s0)
	.loc 1 288 44
	li	a5,48
	sb	a5,-550(s0)
	.loc 1 289 13
	li	a5,3
	sw	a5,-20(s0)
	j	.L45
.L44:
.LBB2:
	.loc 1 292 33
	lw	a5,-28(s0)
	addi	a5,a5,-1
	.loc 1 292 38
	srli	a5,a5,3
	.loc 1 292 16
	sw	a5,-24(s0)
	.loc 1 292 9
	j	.L46
.L48:
.LBB3:
	.loc 1 293 36
	lw	a5,-24(s0)
	.loc 1 293 20
	srli	a5,a5,2
	sw	a5,-32(s0)
	.loc 1 294 39
	lw	a5,-24(s0)
	.loc 1 294 20
	andi	a5,a5,3
	sw	a5,-36(s0)
	.loc 1 296 19
	lw	a5,-584(s0)
	lw	a4,0(a5)
	.loc 1 296 22
	lw	a5,-32(s0)
	slli	a5,a5,2
	add	a5,a4,a5
	lw	a4,0(a5)
	.loc 1 296 55
	lw	a5,-36(s0)
	slli	a5,a5,3
	.loc 1 296 36
	srl	a5,a4,a5
	.loc 1 295 27
	sb	a5,-37(s0)
	.loc 1 297 13
	addi	a4,s0,-552
	lw	a5,-20(s0)
	add	a0,a4,a5
	.loc 1 297 45
	li	a4,512
	lw	a5,-20(s0)
	sub	a4,a4,a5
	.loc 1 297 13
	lbu	a5,-37(s0)
	mv	a3,a5
	lui	a5,%hi(.LC4)
	addi	a2,a5,%lo(.LC4)
	mv	a1,a4
	call	snprintf
	.loc 1 298 17
	lw	a5,-20(s0)
	addi	a5,a5,3
	sw	a5,-20(s0)
	.loc 1 300 16
	lw	a4,-20(s0)
	li	a5,47
	bleu	a4,a5,.L47
	.loc 1 301 17
	addi	a4,s0,-552
	lw	a5,-20(s0)
	add	a3,a4,a5
	.loc 1 301 49
	li	a4,512
	lw	a5,-20(s0)
	sub	a4,a4,a5
	.loc 1 301 17
	lui	a5,%hi(.LC9)
	addi	a2,a5,%lo(.LC9)
	mv	a1,a4
	mv	a0,a3
	call	snprintf
	.loc 1 302 17
	addi	a5,s0,-552
	mv	a4,a5
	lw	a3,-576(s0)
	lw	a2,-572(s0)
	lw	a1,-568(s0)
	lw	a0,-564(s0)
	call	debug_send_line
	.loc 1 303 21
	sw	zero,-20(s0)
.L47:
.LBE3:
	.loc 1 292 53 discriminator 2
	lw	a5,-24(s0)
	addi	a5,a5,-1
	sw	a5,-24(s0)
.L46:
	.loc 1 292 46 discriminator 1
	lw	a5,-24(s0)
	bge	a5,zero,.L48
.L45:
.LBE2:
	.loc 1 308 8
	lw	a5,-20(s0)
	beq	a5,zero,.L40
	.loc 1 309 9
	addi	a4,s0,-552
	lw	a5,-20(s0)
	add	a3,a4,a5
	.loc 1 309 41
	li	a4,512
	lw	a5,-20(s0)
	sub	a4,a4,a5
	.loc 1 309 9
	lui	a5,%hi(.LC9)
	addi	a2,a5,%lo(.LC9)
	mv	a1,a4
	mv	a0,a3
	call	snprintf
	.loc 1 310 9
	addi	a5,s0,-552
	mv	a4,a5
	lw	a3,-576(s0)
	lw	a2,-572(s0)
	lw	a1,-568(s0)
	lw	a0,-564(s0)
	call	debug_send_line
	j	.L40
.L50:
	.loc 1 278 9 discriminator 1
	nop
.L40:
	.loc 1 312 1
	lw	ra,588(sp)
	.cfi_restore 1
	lw	s0,584(sp)
	.cfi_restore 8
	.cfi_def_cfa 2, 592
	addi	sp,sp,592
	.cfi_def_cfa_offset 0
	jr	ra
	.cfi_endproc
.LFE104:
	.size	mbedtls_debug_print_mpi, .-mbedtls_debug_print_mpi
	.section	.rodata
	.align	2
.LC10:
	.string	"invalid PK context\n"
	.align	2
.LC11:
	.string	"%s%s"
	.align	2
.LC12:
	.string	"should not happen\n"
	.section	.text.debug_print_pk,"ax",@progbits
	.align	1
	.type	debug_print_pk, @function
debug_print_pk:
.LFB105:
	.loc 1 319 1
	.cfi_startproc
	addi	sp,sp,-112
	.cfi_def_cfa_offset 112
	sw	ra,108(sp)
	sw	s0,104(sp)
	.cfi_offset 1, -4
	.cfi_offset 8, -8
	addi	s0,sp,112
	.cfi_def_cfa 8, 0
	sw	a0,-84(s0)
	sw	a1,-88(s0)
	sw	a2,-92(s0)
	sw	a3,-96(s0)
	sw	a4,-100(s0)
	sw	a5,-104(s0)
	.loc 1 324 5
	addi	a5,s0,-56
	li	a2,36
	li	a1,0
	mv	a0,a5
	call	memset
	.loc 1 326 9
	addi	a5,s0,-56
	mv	a1,a5
	lw	a0,-104(s0)
	call	mbedtls_pk_debug
	mv	a5,a0
	.loc 1 326 8 discriminator 1
	beq	a5,zero,.L52
	.loc 1 327 9
	lui	a5,%hi(.LC10)
	addi	a4,a5,%lo(.LC10)
	lw	a3,-96(s0)
	lw	a2,-92(s0)
	lw	a1,-88(s0)
	lw	a0,-84(s0)
	call	debug_send_line
	.loc 1 329 9
	j	.L51
.L52:
	.loc 1 332 12
	sw	zero,-20(s0)
	.loc 1 332 5
	j	.L54
.L59:
	.loc 1 333 21
	lw	a4,-20(s0)
	mv	a5,a4
	slli	a5,a5,1
	add	a5,a5,a4
	slli	a5,a5,2
	addi	a5,a5,-16
	add	a5,a5,s0
	lbu	a5,-40(a5)
	.loc 1 333 12
	beq	a5,zero,.L61
	.loc 1 337 9
	lw	a4,-20(s0)
	mv	a5,a4
	slli	a5,a5,1
	add	a5,a5,a4
	slli	a5,a5,2
	addi	a5,a5,-16
	add	a5,a5,s0
	lw	a5,-36(a5)
	addi	a0,s0,-72
	mv	a4,a5
	lw	a3,-100(s0)
	lui	a5,%hi(.LC11)
	addi	a2,a5,%lo(.LC11)
	li	a1,16
	call	snprintf
	.loc 1 338 32
	sb	zero,-57(s0)
	.loc 1 341 21
	lw	a4,-20(s0)
	mv	a5,a4
	slli	a5,a5,1
	add	a5,a5,a4
	slli	a5,a5,2
	addi	a5,a5,-16
	add	a5,a5,s0
	lbu	a4,-40(a5)
	.loc 1 341 12
	li	a5,1
	bne	a4,a5,.L56
	.loc 1 342 75
	lw	a4,-20(s0)
	mv	a5,a4
	slli	a5,a5,1
	add	a5,a5,a4
	slli	a5,a5,2
	addi	a5,a5,-16
	add	a5,a5,s0
	lw	a5,-32(a5)
	.loc 1 342 13
	addi	a4,s0,-72
	lw	a3,-96(s0)
	lw	a2,-92(s0)
	lw	a1,-88(s0)
	lw	a0,-84(s0)
	call	mbedtls_debug_print_mpi
	j	.L57
.L56:
	.loc 1 346 21
	lw	a4,-20(s0)
	mv	a5,a4
	slli	a5,a5,1
	add	a5,a5,a4
	slli	a5,a5,2
	addi	a5,a5,-16
	add	a5,a5,s0
	lbu	a4,-40(a5)
	.loc 1 346 12
	li	a5,2
	bne	a4,a5,.L58
	.loc 1 347 75
	lw	a4,-20(s0)
	mv	a5,a4
	slli	a5,a5,1
	add	a5,a5,a4
	slli	a5,a5,2
	addi	a5,a5,-16
	add	a5,a5,s0
	lw	a5,-32(a5)
	.loc 1 347 13
	addi	a4,s0,-72
	lw	a3,-96(s0)
	lw	a2,-92(s0)
	lw	a1,-88(s0)
	lw	a0,-84(s0)
	call	mbedtls_debug_print_ecp
	j	.L57
.L58:
	.loc 1 355 11
	lui	a5,%hi(.LC12)
	addi	a4,a5,%lo(.LC12)
	lw	a3,-96(s0)
	lw	a2,-92(s0)
	lw	a1,-88(s0)
	lw	a0,-84(s0)
	call	debug_send_line
.L57:
	.loc 1 332 25 discriminator 2
	lw	a5,-20(s0)
	addi	a5,a5,1
	sw	a5,-20(s0)
.L54:
	.loc 1 332 19 discriminator 1
	lw	a4,-20(s0)
	li	a5,2
	bleu	a4,a5,.L59
	j	.L51
.L61:
	.loc 1 334 13
	nop
.L51:
	.loc 1 358 1
	lw	ra,108(sp)
	.cfi_restore 1
	lw	s0,104(sp)
	.cfi_restore 8
	.cfi_def_cfa 2, 112
	addi	sp,sp,112
	.cfi_def_cfa_offset 0
	jr	ra
	.cfi_endproc
.LFE105:
	.size	debug_print_pk, .-debug_print_pk
	.section	.text.debug_print_line_by_line,"ax",@progbits
	.align	1
	.type	debug_print_line_by_line, @function
debug_print_line_by_line:
.LFB106:
	.loc 1 362 1
	.cfi_startproc
	addi	sp,sp,-576
	.cfi_def_cfa_offset 576
	sw	ra,572(sp)
	sw	s0,568(sp)
	.cfi_offset 1, -4
	.cfi_offset 8, -8
	addi	s0,sp,576
	.cfi_def_cfa 8, 0
	sw	a0,-548(s0)
	sw	a1,-552(s0)
	sw	a2,-556(s0)
	sw	a3,-560(s0)
	sw	a4,-564(s0)
	.loc 1 366 11
	lw	a5,-564(s0)
	sw	a5,-20(s0)
	.loc 1 367 14
	lw	a5,-564(s0)
	sw	a5,-24(s0)
	.loc 1 367 5
	j	.L63
.L66:
	.loc 1 368 13
	lw	a5,-24(s0)
	lbu	a4,0(a5)
	.loc 1 368 12
	li	a5,10
	bne	a4,a5,.L64
.LBB4:
	.loc 1 369 40
	lw	a4,-24(s0)
	lw	a5,-20(s0)
	sub	a5,a4,a5
	.loc 1 369 20
	addi	a5,a5,1
	sw	a5,-28(s0)
	.loc 1 370 16
	lw	a4,-28(s0)
	li	a5,511
	bleu	a4,a5,.L65
	.loc 1 371 21
	li	a5,511
	sw	a5,-28(s0)
.L65:
	.loc 1 374 13
	addi	a5,s0,-540
	lw	a2,-28(s0)
	lw	a1,-20(s0)
	mv	a0,a5
	call	memcpy
	.loc 1 375 22
	lw	a5,-28(s0)
	addi	a5,a5,-16
	add	a5,a5,s0
	sb	zero,-524(a5)
	.loc 1 377 13
	addi	a5,s0,-540
	mv	a4,a5
	lw	a3,-560(s0)
	lw	a2,-556(s0)
	lw	a1,-552(s0)
	lw	a0,-548(s0)
	call	debug_send_line
	.loc 1 379 19
	lw	a5,-24(s0)
	addi	a5,a5,1
	sw	a5,-20(s0)
.L64:
.LBE4:
	.loc 1 367 39 discriminator 2
	lw	a5,-24(s0)
	addi	a5,a5,1
	sw	a5,-24(s0)
.L63:
	.loc 1 367 22 discriminator 1
	lw	a5,-24(s0)
	lbu	a5,0(a5)
	.loc 1 367 27 discriminator 1
	bne	a5,zero,.L66
	.loc 1 382 1
	nop
	nop
	lw	ra,572(sp)
	.cfi_restore 1
	lw	s0,568(sp)
	.cfi_restore 8
	.cfi_def_cfa 2, 576
	addi	sp,sp,576
	.cfi_def_cfa_offset 0
	jr	ra
	.cfi_endproc
.LFE106:
	.size	debug_print_line_by_line, .-debug_print_line_by_line
	.section	.rodata
	.align	2
.LC13:
	.string	"%s #%d:\n"
	.align	2
.LC14:
	.string	""
	.align	2
.LC15:
	.string	"crt->"
	.section	.text.mbedtls_debug_print_crt,"ax",@progbits
	.align	1
	.globl	mbedtls_debug_print_crt
	.type	mbedtls_debug_print_crt, @function
mbedtls_debug_print_crt:
.LFB107:
	.loc 1 387 1
	.cfi_startproc
	addi	sp,sp,-1600
	.cfi_def_cfa_offset 1600
	sw	ra,1596(sp)
	sw	s0,1592(sp)
	.cfi_offset 1, -4
	.cfi_offset 8, -8
	addi	s0,sp,1600
	.cfi_def_cfa 8, 0
	sw	a0,-1572(s0)
	sw	a1,-1576(s0)
	sw	a2,-1580(s0)
	sw	a3,-1584(s0)
	sw	a4,-1588(s0)
	sw	a5,-1592(s0)
	.loc 1 389 9
	sw	zero,-20(s0)
	.loc 1 391 8
	lw	a5,-1572(s0)
	beq	a5,zero,.L73
	.loc 1 392 19
	lw	a5,-1572(s0)
	lw	a5,0(a5)
	.loc 1 391 20 discriminator 1
	beq	a5,zero,.L73
	.loc 1 393 19
	lw	a5,-1572(s0)
	lw	a5,0(a5)
	.loc 1 393 25
	lw	a5,24(a5)
	.loc 1 392 26
	beq	a5,zero,.L73
	.loc 1 393 33
	lw	a5,-1592(s0)
	beq	a5,zero,.L73
	.loc 1 395 15
	lui	a5,%hi(debug_threshold)
	lw	a5,%lo(debug_threshold)(a5)
	.loc 1 394 20
	lw	a4,-1576(s0)
	bgt	a4,a5,.L73
	.loc 1 399 11
	j	.L71
.L72:
.LBB5:
	.loc 1 402 9
	lw	a5,-20(s0)
	addi	a5,a5,1
	sw	a5,-20(s0)
	addi	a0,s0,-532
	lw	a4,-20(s0)
	lw	a3,-1588(s0)
	lui	a5,%hi(.LC13)
	addi	a2,a5,%lo(.LC13)
	li	a1,512
	call	snprintf
	.loc 1 403 9
	addi	a5,s0,-532
	mv	a4,a5
	lw	a3,-1584(s0)
	lw	a2,-1580(s0)
	lw	a1,-1576(s0)
	lw	a0,-1572(s0)
	call	debug_send_line
	.loc 1 405 9
	addi	a4,s0,-1556
	lw	a3,-1592(s0)
	lui	a5,%hi(.LC14)
	addi	a2,a5,%lo(.LC14)
	li	a1,1023
	mv	a0,a4
	call	mbedtls_x509_crt_info
	.loc 1 406 9
	addi	a5,s0,-1556
	mv	a4,a5
	lw	a3,-1584(s0)
	lw	a2,-1580(s0)
	lw	a1,-1576(s0)
	lw	a0,-1572(s0)
	call	debug_print_line_by_line
	.loc 1 408 9
	lw	a5,-1592(s0)
	addi	a5,a5,204
	lui	a4,%hi(.LC15)
	addi	a4,a4,%lo(.LC15)
	lw	a3,-1584(s0)
	lw	a2,-1580(s0)
	lw	a1,-1576(s0)
	lw	a0,-1572(s0)
	call	debug_print_pk
	.loc 1 410 13
	lw	a5,-1592(s0)
	lw	a5,400(a5)
	sw	a5,-1592(s0)
.L71:
.LBE5:
	.loc 1 399 16
	lw	a5,-1592(s0)
	bne	a5,zero,.L72
	j	.L67
.L73:
	.loc 1 396 9 discriminator 1
	nop
.L67:
	.loc 1 412 1
	lw	ra,1596(sp)
	.cfi_restore 1
	lw	s0,1592(sp)
	.cfi_restore 8
	.cfi_def_cfa 2, 1600
	addi	sp,sp,1600
	.cfi_def_cfa_offset 0
	jr	ra
	.cfi_endproc
.LFE107:
	.size	mbedtls_debug_print_crt, .-mbedtls_debug_print_crt
	.section	.rodata
	.align	2
.LC16:
	.string	"ECDH: Q"
	.align	2
.LC17:
	.string	"ECDH: Qp"
	.align	2
.LC18:
	.string	"ECDH: z"
	.section	.text.mbedtls_debug_printf_ecdh_internal,"ax",@progbits
	.align	1
	.type	mbedtls_debug_printf_ecdh_internal, @function
mbedtls_debug_printf_ecdh_internal:
.LFB108:
	.loc 1 422 1
	.cfi_startproc
	addi	sp,sp,-64
	.cfi_def_cfa_offset 64
	sw	ra,60(sp)
	sw	s0,56(sp)
	.cfi_offset 1, -4
	.cfi_offset 8, -8
	addi	s0,sp,64
	.cfi_def_cfa 8, 0
	sw	a0,-36(s0)
	sw	a1,-40(s0)
	sw	a2,-44(s0)
	sw	a3,-48(s0)
	sw	a4,-52(s0)
	sb	a5,-53(s0)
	.loc 1 424 33
	lw	a5,-52(s0)
	sw	a5,-20(s0)
	.loc 1 429 5
	lbu	a5,-53(s0)
	li	a4,2
	beq	a5,a4,.L75
	li	a4,2
	bgt	a5,a4,.L80
	beq	a5,zero,.L77
	li	a4,1
	beq	a5,a4,.L78
	.loc 1 443 13
	j	.L80
.L77:
	.loc 1 431 13
	lw	a5,-20(s0)
	addi	a5,a5,104
	lui	a4,%hi(.LC16)
	addi	a4,a4,%lo(.LC16)
	lw	a3,-48(s0)
	lw	a2,-44(s0)
	lw	a1,-40(s0)
	lw	a0,-36(s0)
	call	mbedtls_debug_print_ecp
	.loc 1 433 13
	j	.L79
.L78:
	.loc 1 435 13
	lw	a5,-20(s0)
	addi	a5,a5,128
	lui	a4,%hi(.LC17)
	addi	a4,a4,%lo(.LC17)
	lw	a3,-48(s0)
	lw	a2,-44(s0)
	lw	a1,-40(s0)
	lw	a0,-36(s0)
	call	mbedtls_debug_print_ecp
	.loc 1 437 13
	j	.L79
.L75:
	.loc 1 439 13
	lw	a5,-20(s0)
	addi	a5,a5,152
	lui	a4,%hi(.LC18)
	addi	a4,a4,%lo(.LC18)
	lw	a3,-48(s0)
	lw	a2,-44(s0)
	lw	a1,-40(s0)
	lw	a0,-36(s0)
	call	mbedtls_debug_print_mpi
	.loc 1 441 13
	j	.L79
.L80:
	.loc 1 443 13
	nop
.L79:
	.loc 1 445 1
	nop
	lw	ra,60(sp)
	.cfi_restore 1
	lw	s0,56(sp)
	.cfi_restore 8
	.cfi_def_cfa 2, 64
	addi	sp,sp,64
	.cfi_def_cfa_offset 0
	jr	ra
	.cfi_endproc
.LFE108:
	.size	mbedtls_debug_printf_ecdh_internal, .-mbedtls_debug_printf_ecdh_internal
	.section	.text.mbedtls_debug_printf_ecdh,"ax",@progbits
	.align	1
	.globl	mbedtls_debug_printf_ecdh
	.type	mbedtls_debug_printf_ecdh, @function
mbedtls_debug_printf_ecdh:
.LFB109:
	.loc 1 451 1
	.cfi_startproc
	addi	sp,sp,-48
	.cfi_def_cfa_offset 48
	sw	ra,44(sp)
	sw	s0,40(sp)
	.cfi_offset 1, -4
	.cfi_offset 8, -8
	addi	s0,sp,48
	.cfi_def_cfa 8, 0
	sw	a0,-20(s0)
	sw	a1,-24(s0)
	sw	a2,-28(s0)
	sw	a3,-32(s0)
	sw	a4,-36(s0)
	sb	a5,-37(s0)
	.loc 1 453 5
	lbu	a5,-37(s0)
	lw	a4,-36(s0)
	lw	a3,-32(s0)
	lw	a2,-28(s0)
	lw	a1,-24(s0)
	lw	a0,-20(s0)
	call	mbedtls_debug_printf_ecdh_internal
	.loc 1 461 1
	nop
	lw	ra,44(sp)
	.cfi_restore 1
	lw	s0,40(sp)
	.cfi_restore 8
	.cfi_def_cfa 2, 48
	addi	sp,sp,48
	.cfi_def_cfa_offset 0
	jr	ra
	.cfi_endproc
.LFE109:
	.size	mbedtls_debug_printf_ecdh, .-mbedtls_debug_printf_ecdh
	.text
.Letext0:
	.file 2 "/home/chandu/sdk/bl602_iot_sdk/toolchain/compiler/lib/gcc/riscv32-unknown-elf/15.1.0/include/stddef.h"
	.file 3 "/home/chandu/sdk/bl602_iot_sdk/toolchain/compiler/lib/gcc/riscv32-unknown-elf/15.1.0/include/stdint-gcc.h"
	.file 4 "/home/chandu/sdk/bl602_iot_sdk/toolchain/compiler/lib/gcc/riscv32-unknown-elf/15.1.0/include/stdarg.h"
	.file 5 "/home/chandu/sdk/bl602_iot_sdk/toolchain/compiler/riscv32-unknown-elf/include/stdio.h"
	.file 6 "/home/chandu/sdk/bl602_iot_sdk/components/security/mbedtls-bl602/include/mbedtls/bignum.h"
	.file 7 "/home/chandu/sdk/bl602_iot_sdk/components/security/mbedtls-bl602/include/mbedtls/ecp.h"
	.file 8 "/home/chandu/sdk/bl602_iot_sdk/components/security/mbedtls-bl602/include/mbedtls/md.h"
	.file 9 "/home/chandu/sdk/bl602_iot_sdk/components/security/mbedtls-bl602/include/mbedtls/pk.h"
	.file 10 "/home/chandu/sdk/bl602_iot_sdk/components/security/mbedtls-bl602/include/mbedtls/asn1.h"
	.file 11 "/home/chandu/sdk/bl602_iot_sdk/components/security/mbedtls-bl602/include/mbedtls/x509.h"
	.file 12 "/home/chandu/sdk/bl602_iot_sdk/components/security/mbedtls-bl602/include/mbedtls/x509_crl.h"
	.file 13 "/home/chandu/sdk/bl602_iot_sdk/components/security/mbedtls-bl602/include/mbedtls/x509_crt.h"
	.file 14 "/home/chandu/sdk/bl602_iot_sdk/components/security/mbedtls-bl602/include/mbedtls/ecdh.h"
	.file 15 "/home/chandu/sdk/bl602_iot_sdk/components/security/mbedtls-bl602/include/mbedtls/ssl.h"
	.file 16 "/home/chandu/sdk/bl602_iot_sdk/components/security/mbedtls-bl602/library/debug_internal.h"
	.file 17 "/home/chandu/sdk/bl602_iot_sdk/toolchain/compiler/riscv32-unknown-elf/include/string.h"
	.section	.note.GNU-stack,"",@progbits
