	.file	"hkdf.c"
	.option nopic
	.attribute arch, "rv32i2p1_m2p0_f2p2_c2p0_zicsr2p0_zmmul1p0_zca1p0_zcf1p0"
	.attribute unaligned_access, 0
	.attribute stack_align, 16
	.text
.Ltext0:
	.cfi_sections	.debug_frame
	.file 0 "/home/chandu/sdk/bl602_iot_sdk/customer_app/suas_app_pqkem_gateway/build_out/mbedtls-bl602" "/home/chandu/sdk/bl602_iot_sdk/components/security/mbedtls-bl602/library/hkdf.c"
	.section	.text.mbedtls_hkdf,"ax",@progbits
	.align	1
	.globl	mbedtls_hkdf
	.type	mbedtls_hkdf, @function
mbedtls_hkdf:
.LFB13:
	.file 1 "/home/chandu/sdk/bl602_iot_sdk/components/security/mbedtls-bl602/library/hkdf.c"
	.loc 1 20 1
	.cfi_startproc
	addi	sp,sp,-128
	.cfi_def_cfa_offset 128
	sw	ra,124(sp)
	sw	s0,120(sp)
	.cfi_offset 1, -4
	.cfi_offset 8, -8
	addi	s0,sp,128
	.cfi_def_cfa 8, 0
	sw	a0,-100(s0)
	sw	a1,-104(s0)
	sw	a2,-108(s0)
	sw	a3,-112(s0)
	sw	a4,-116(s0)
	sw	a5,-120(s0)
	sw	a6,-124(s0)
	sw	a7,-128(s0)
	.loc 1 21 9
	li	a5,-110
	sw	a5,-20(s0)
	.loc 1 24 11
	addi	a5,s0,-84
	lw	a4,-116(s0)
	lw	a3,-112(s0)
	lw	a2,-108(s0)
	lw	a1,-104(s0)
	lw	a0,-100(s0)
	call	mbedtls_hkdf_extract
	sw	a0,-20(s0)
	.loc 1 26 8
	lw	a5,-20(s0)
	bne	a5,zero,.L2
	.loc 1 27 44
	lw	a0,-100(s0)
	call	mbedtls_md_get_size
	mv	a5,a0
	.loc 1 27 15 discriminator 1
	mv	a2,a5
	addi	a1,s0,-84
	lw	a6,0(s0)
	lw	a5,-128(s0)
	lw	a4,-124(s0)
	lw	a3,-120(s0)
	lw	a0,-100(s0)
	call	mbedtls_hkdf_expand
	sw	a0,-20(s0)
.L2:
	.loc 1 31 5
	addi	a5,s0,-84
	li	a1,64
	mv	a0,a5
	call	mbedtls_platform_zeroize
	.loc 1 33 12
	lw	a5,-20(s0)
	.loc 1 34 1
	mv	a0,a5
	lw	ra,124(sp)
	.cfi_restore 1
	lw	s0,120(sp)
	.cfi_restore 8
	.cfi_def_cfa 2, 128
	addi	sp,sp,128
	.cfi_def_cfa_offset 0
	jr	ra
	.cfi_endproc
.LFE13:
	.size	mbedtls_hkdf, .-mbedtls_hkdf
	.section	.text.mbedtls_hkdf_extract,"ax",@progbits
	.align	1
	.globl	mbedtls_hkdf_extract
	.type	mbedtls_hkdf_extract, @function
mbedtls_hkdf_extract:
.LFB14:
	.loc 1 40 1
	.cfi_startproc
	addi	sp,sp,-128
	.cfi_def_cfa_offset 128
	sw	ra,124(sp)
	sw	s0,120(sp)
	.cfi_offset 1, -4
	.cfi_offset 8, -8
	addi	s0,sp,128
	.cfi_def_cfa 8, 0
	sw	a0,-100(s0)
	sw	a1,-104(s0)
	sw	a2,-108(s0)
	sw	a3,-112(s0)
	sw	a4,-116(s0)
	sw	a5,-120(s0)
	.loc 1 41 19
	addi	a5,s0,-84
	li	a4,64
	mv	a2,a4
	li	a1,0
	mv	a0,a5
	call	memset
	.loc 1 43 8
	lw	a5,-104(s0)
	bne	a5,zero,.L5
.LBB2:
	.loc 1 46 12
	lw	a5,-108(s0)
	beq	a5,zero,.L6
	.loc 1 47 20
	li	a5,-24576
	addi	a5,a5,128
	j	.L9
.L6:
	.loc 1 50 20
	lw	a0,-100(s0)
	call	mbedtls_md_get_size
	mv	a5,a0
	.loc 1 50 18 discriminator 1
	sw	a5,-20(s0)
	.loc 1 52 12
	lw	a5,-20(s0)
	bne	a5,zero,.L8
	.loc 1 53 20
	li	a5,-24576
	addi	a5,a5,128
	j	.L9
.L8:
	.loc 1 56 14
	addi	a5,s0,-84
	sw	a5,-104(s0)
	.loc 1 57 18
	lw	a5,-20(s0)
	sw	a5,-108(s0)
.L5:
.LBE2:
	.loc 1 60 12
	lw	a5,-120(s0)
	lw	a4,-116(s0)
	lw	a3,-112(s0)
	lw	a2,-108(s0)
	lw	a1,-104(s0)
	lw	a0,-100(s0)
	call	mbedtls_md_hmac
	mv	a5,a0
.L9:
	.loc 1 61 1
	mv	a0,a5
	lw	ra,124(sp)
	.cfi_restore 1
	lw	s0,120(sp)
	.cfi_restore 8
	.cfi_def_cfa 2, 128
	addi	sp,sp,128
	.cfi_def_cfa_offset 0
	jr	ra
	.cfi_endproc
.LFE14:
	.size	mbedtls_hkdf_extract, .-mbedtls_hkdf_extract
	.section	.rodata
	.align	2
.LC0:
	.string	""
	.section	.text.mbedtls_hkdf_expand,"ax",@progbits
	.align	1
	.globl	mbedtls_hkdf_expand
	.type	mbedtls_hkdf_expand, @function
mbedtls_hkdf_expand:
.LFB15:
	.loc 1 66 1
	.cfi_startproc
	addi	sp,sp,-160
	.cfi_def_cfa_offset 160
	sw	ra,156(sp)
	sw	s0,152(sp)
	.cfi_offset 1, -4
	.cfi_offset 8, -8
	addi	s0,sp,160
	.cfi_def_cfa 8, 0
	sw	a0,-132(s0)
	sw	a1,-136(s0)
	sw	a2,-140(s0)
	sw	a3,-144(s0)
	sw	a4,-148(s0)
	sw	a5,-152(s0)
	sw	a6,-156(s0)
	.loc 1 68 12
	sw	zero,-20(s0)
	.loc 1 70 12
	sw	zero,-28(s0)
	.loc 1 72 9
	sw	zero,-36(s0)
	.loc 1 76 8
	lw	a5,-152(s0)
	bne	a5,zero,.L11
	.loc 1 77 16
	li	a5,-24576
	addi	a5,a5,128
	j	.L30
.L11:
	.loc 1 80 16
	lw	a0,-132(s0)
	call	mbedtls_md_get_size
	mv	a5,a0
	.loc 1 80 14 discriminator 1
	sw	a5,-44(s0)
	.loc 1 82 8
	lw	a4,-140(s0)
	lw	a5,-44(s0)
	bltu	a4,a5,.L13
	.loc 1 82 28 discriminator 1
	lw	a5,-44(s0)
	bne	a5,zero,.L14
.L13:
	.loc 1 83 16
	li	a5,-24576
	addi	a5,a5,128
	j	.L30
.L14:
	.loc 1 86 8
	lw	a5,-144(s0)
	bne	a5,zero,.L15
	.loc 1 87 14
	lui	a5,%hi(.LC0)
	addi	a5,a5,%lo(.LC0)
	sw	a5,-144(s0)
	.loc 1 88 18
	sw	zero,-148(s0)
.L15:
	.loc 1 91 7
	lw	a4,-156(s0)
	lw	a5,-44(s0)
	divu	a5,a4,a5
	sw	a5,-24(s0)
	.loc 1 93 17
	lw	a4,-156(s0)
	lw	a5,-44(s0)
	remu	a5,a4,a5
	.loc 1 93 8
	beq	a5,zero,.L16
	.loc 1 94 10
	lw	a5,-24(s0)
	addi	a5,a5,1
	sw	a5,-24(s0)
.L16:
	.loc 1 101 8
	lw	a4,-24(s0)
	li	a5,255
	bleu	a4,a5,.L17
	.loc 1 102 16
	li	a5,-24576
	addi	a5,a5,128
	j	.L30
.L17:
	.loc 1 105 5
	addi	a5,s0,-56
	mv	a0,a5
	call	mbedtls_md_init
	.loc 1 107 16
	addi	a5,s0,-56
	li	a2,1
	lw	a1,-132(s0)
	mv	a0,a5
	call	mbedtls_md_setup
	sw	a0,-36(s0)
	.loc 1 107 8 discriminator 1
	lw	a5,-36(s0)
	bne	a5,zero,.L31
	.loc 1 111 5
	addi	a5,s0,-120
	lw	a2,-44(s0)
	li	a1,0
	mv	a0,a5
	call	memset
	.loc 1 117 12
	li	a5,1
	sw	a5,-32(s0)
	.loc 1 117 5
	j	.L20
.L29:
.LBB3:
	.loc 1 119 23
	lw	a5,-32(s0)
	andi	a5,a5,0xff
	sb	a5,-121(s0)
	.loc 1 121 15
	addi	a5,s0,-56
	lw	a2,-140(s0)
	lw	a1,-136(s0)
	mv	a0,a5
	call	mbedtls_md_hmac_starts
	sw	a0,-36(s0)
	.loc 1 122 12
	lw	a5,-36(s0)
	bne	a5,zero,.L32
	.loc 1 126 15
	addi	a4,s0,-120
	addi	a5,s0,-56
	lw	a2,-28(s0)
	mv	a1,a4
	mv	a0,a5
	call	mbedtls_md_hmac_update
	sw	a0,-36(s0)
	.loc 1 127 12
	lw	a5,-36(s0)
	bne	a5,zero,.L33
	.loc 1 131 15
	addi	a5,s0,-56
	lw	a2,-148(s0)
	lw	a1,-144(s0)
	mv	a0,a5
	call	mbedtls_md_hmac_update
	sw	a0,-36(s0)
	.loc 1 132 12
	lw	a5,-36(s0)
	bne	a5,zero,.L34
	.loc 1 138 15
	addi	a4,s0,-121
	addi	a5,s0,-56
	li	a2,1
	mv	a1,a4
	mv	a0,a5
	call	mbedtls_md_hmac_update
	sw	a0,-36(s0)
	.loc 1 139 12
	lw	a5,-36(s0)
	bne	a5,zero,.L35
	.loc 1 143 15
	addi	a4,s0,-120
	addi	a5,s0,-56
	mv	a1,a4
	mv	a0,a5
	call	mbedtls_md_hmac_finish
	sw	a0,-36(s0)
	.loc 1 144 12
	lw	a5,-36(s0)
	bne	a5,zero,.L36
	.loc 1 148 41
	lw	a4,-32(s0)
	lw	a5,-24(s0)
	bne	a4,a5,.L27
	.loc 1 148 21 discriminator 1
	lw	a4,-156(s0)
	lw	a5,-20(s0)
	sub	a5,a4,a5
	sw	a5,-40(s0)
	j	.L28
.L27:
	.loc 1 148 21 is_stmt 0 discriminator 2
	lw	a5,-44(s0)
	sw	a5,-40(s0)
.L28:
	.loc 1 149 20 is_stmt 1
	lw	a4,-152(s0)
	lw	a5,-20(s0)
	add	a5,a4,a5
	.loc 1 149 9
	addi	a4,s0,-120
	lw	a2,-40(s0)
	mv	a1,a4
	mv	a0,a5
	call	memcpy
	.loc 1 150 15
	lw	a4,-20(s0)
	lw	a5,-44(s0)
	add	a5,a4,a5
	sw	a5,-20(s0)
	.loc 1 151 15
	lw	a5,-44(s0)
	sw	a5,-28(s0)
.LBE3:
	.loc 1 117 26 discriminator 2
	lw	a5,-32(s0)
	addi	a5,a5,1
	sw	a5,-32(s0)
.L20:
	.loc 1 117 19 discriminator 1
	lw	a4,-32(s0)
	lw	a5,-24(s0)
	bleu	a4,a5,.L29
	.loc 1 154 1
	j	.L19
.L31:
	.loc 1 108 9
	nop
	j	.L19
.L32:
.LBB4:
	.loc 1 123 13
	nop
	j	.L19
.L33:
	.loc 1 128 13
	nop
	j	.L19
.L34:
	.loc 1 133 13
	nop
	j	.L19
.L35:
	.loc 1 140 13
	nop
	j	.L19
.L36:
	.loc 1 145 13
	nop
.L19:
.LBE4:
	.loc 1 155 5
	addi	a5,s0,-56
	mv	a0,a5
	call	mbedtls_md_free
	.loc 1 156 5
	addi	a5,s0,-120
	li	a1,64
	mv	a0,a5
	call	mbedtls_platform_zeroize
	.loc 1 158 12
	lw	a5,-36(s0)
.L30:
	.loc 1 159 1
	mv	a0,a5
	lw	ra,156(sp)
	.cfi_restore 1
	lw	s0,152(sp)
	.cfi_restore 8
	.cfi_def_cfa 2, 160
	addi	sp,sp,160
	.cfi_def_cfa_offset 0
	jr	ra
	.cfi_endproc
.LFE15:
	.size	mbedtls_hkdf_expand, .-mbedtls_hkdf_expand
	.text
.Letext0:
	.file 2 "/home/chandu/sdk/bl602_iot_sdk/toolchain/compiler/lib/gcc/riscv32-unknown-elf/15.1.0/include/stddef.h"
	.file 3 "/home/chandu/sdk/bl602_iot_sdk/components/security/mbedtls-bl602/include/mbedtls/md.h"
	.file 4 "/home/chandu/sdk/bl602_iot_sdk/toolchain/compiler/riscv32-unknown-elf/include/string.h"
	.file 5 "/home/chandu/sdk/bl602_iot_sdk/components/security/mbedtls-bl602/include/mbedtls/platform_util.h"
	.section	.note.GNU-stack,"",@progbits
