	.file	"md.c"
	.option nopic
	.attribute arch, "rv32i2p1_m2p0_f2p2_c2p0_zicsr2p0_zmmul1p0_zca1p0_zcf1p0"
	.attribute unaligned_access, 0
	.attribute stack_align, 16
	.text
.Ltext0:
	.cfi_sections	.debug_frame
	.file 0 "/home/chandu/sdk/bl602_iot_sdk/customer_app/suas_app_pqkem_gateway/build_out/mbedtls-bl602" "/home/chandu/sdk/bl602_iot_sdk/components/security/mbedtls-bl602/library/md.c"
	.section	.srodata.mbedtls_md5_info,"a"
	.align	2
	.type	mbedtls_md5_info, @object
	.size	mbedtls_md5_info, 3
mbedtls_md5_info:
	.byte	3
	.byte	16
	.byte	64
	.section	.srodata.mbedtls_ripemd160_info,"a"
	.align	2
	.type	mbedtls_ripemd160_info, @object
	.size	mbedtls_ripemd160_info, 3
mbedtls_ripemd160_info:
	.byte	4
	.byte	20
	.byte	64
	.section	.srodata.mbedtls_sha1_info,"a"
	.align	2
	.type	mbedtls_sha1_info, @object
	.size	mbedtls_sha1_info, 3
mbedtls_sha1_info:
	.byte	5
	.byte	20
	.byte	64
	.section	.srodata.mbedtls_sha224_info,"a"
	.align	2
	.type	mbedtls_sha224_info, @object
	.size	mbedtls_sha224_info, 3
mbedtls_sha224_info:
	.byte	8
	.byte	28
	.byte	64
	.section	.srodata.mbedtls_sha256_info,"a"
	.align	2
	.type	mbedtls_sha256_info, @object
	.size	mbedtls_sha256_info, 3
mbedtls_sha256_info:
	.byte	9
	.byte	32
	.byte	64
	.section	.srodata.mbedtls_sha384_info,"a"
	.align	2
	.type	mbedtls_sha384_info, @object
	.size	mbedtls_sha384_info, 3
mbedtls_sha384_info:
	.byte	10
	.byte	48
	.byte	-128
	.section	.srodata.mbedtls_sha512_info,"a"
	.align	2
	.type	mbedtls_sha512_info, @object
	.size	mbedtls_sha512_info, 3
mbedtls_sha512_info:
	.byte	11
	.byte	64
	.byte	-128
	.section	.srodata.mbedtls_sha3_224_info,"a"
	.align	2
	.type	mbedtls_sha3_224_info, @object
	.size	mbedtls_sha3_224_info, 3
mbedtls_sha3_224_info:
	.byte	16
	.byte	28
	.byte	-112
	.section	.srodata.mbedtls_sha3_256_info,"a"
	.align	2
	.type	mbedtls_sha3_256_info, @object
	.size	mbedtls_sha3_256_info, 3
mbedtls_sha3_256_info:
	.byte	17
	.byte	32
	.byte	-120
	.section	.srodata.mbedtls_sha3_384_info,"a"
	.align	2
	.type	mbedtls_sha3_384_info, @object
	.size	mbedtls_sha3_384_info, 3
mbedtls_sha3_384_info:
	.byte	18
	.byte	48
	.byte	104
	.section	.srodata.mbedtls_sha3_512_info,"a"
	.align	2
	.type	mbedtls_sha3_512_info, @object
	.size	mbedtls_sha3_512_info, 3
mbedtls_sha3_512_info:
	.byte	19
	.byte	64
	.byte	72
	.section	.text.mbedtls_md_info_from_type,"ax",@progbits
	.align	1
	.globl	mbedtls_md_info_from_type
	.type	mbedtls_md_info_from_type, @function
mbedtls_md_info_from_type:
.LFB72:
	.file 1 "/home/chandu/sdk/bl602_iot_sdk/components/security/mbedtls-bl602/library/md.c"
	.loc 1 140 1
	.cfi_startproc
	addi	sp,sp,-32
	.cfi_def_cfa_offset 32
	sw	ra,28(sp)
	sw	s0,24(sp)
	.cfi_offset 1, -4
	.cfi_offset 8, -8
	addi	s0,sp,32
	.cfi_def_cfa 8, 0
	mv	a5,a0
	sb	a5,-17(s0)
	.loc 1 141 5
	lbu	a5,-17(s0)
	li	a4,19
	beq	a5,a4,.L2
	li	a4,19
	bgt	a5,a4,.L3
	li	a4,18
	beq	a5,a4,.L4
	li	a4,18
	bgt	a5,a4,.L3
	li	a4,17
	beq	a5,a4,.L5
	li	a4,17
	bgt	a5,a4,.L3
	li	a4,16
	beq	a5,a4,.L6
	li	a4,16
	bgt	a5,a4,.L3
	li	a4,11
	beq	a5,a4,.L7
	li	a4,11
	bgt	a5,a4,.L3
	li	a4,10
	beq	a5,a4,.L8
	li	a4,10
	bgt	a5,a4,.L3
	li	a4,9
	beq	a5,a4,.L9
	li	a4,9
	bgt	a5,a4,.L3
	li	a4,8
	beq	a5,a4,.L10
	li	a4,8
	bgt	a5,a4,.L3
	li	a4,5
	beq	a5,a4,.L11
	li	a4,5
	bgt	a5,a4,.L3
	li	a4,3
	beq	a5,a4,.L12
	li	a4,4
	beq	a5,a4,.L13
	j	.L3
.L12:
	.loc 1 144 20
	lui	a5,%hi(mbedtls_md5_info)
	addi	a5,a5,%lo(mbedtls_md5_info)
	j	.L14
.L13:
	.loc 1 148 20
	lui	a5,%hi(mbedtls_ripemd160_info)
	addi	a5,a5,%lo(mbedtls_ripemd160_info)
	j	.L14
.L11:
	.loc 1 152 20
	lui	a5,%hi(mbedtls_sha1_info)
	addi	a5,a5,%lo(mbedtls_sha1_info)
	j	.L14
.L10:
	.loc 1 156 20
	lui	a5,%hi(mbedtls_sha224_info)
	addi	a5,a5,%lo(mbedtls_sha224_info)
	j	.L14
.L9:
	.loc 1 160 20
	lui	a5,%hi(mbedtls_sha256_info)
	addi	a5,a5,%lo(mbedtls_sha256_info)
	j	.L14
.L8:
	.loc 1 164 20
	lui	a5,%hi(mbedtls_sha384_info)
	addi	a5,a5,%lo(mbedtls_sha384_info)
	j	.L14
.L7:
	.loc 1 168 20
	lui	a5,%hi(mbedtls_sha512_info)
	addi	a5,a5,%lo(mbedtls_sha512_info)
	j	.L14
.L6:
	.loc 1 172 20
	lui	a5,%hi(mbedtls_sha3_224_info)
	addi	a5,a5,%lo(mbedtls_sha3_224_info)
	j	.L14
.L5:
	.loc 1 176 20
	lui	a5,%hi(mbedtls_sha3_256_info)
	addi	a5,a5,%lo(mbedtls_sha3_256_info)
	j	.L14
.L4:
	.loc 1 180 20
	lui	a5,%hi(mbedtls_sha3_384_info)
	addi	a5,a5,%lo(mbedtls_sha3_384_info)
	j	.L14
.L2:
	.loc 1 184 20
	lui	a5,%hi(mbedtls_sha3_512_info)
	addi	a5,a5,%lo(mbedtls_sha3_512_info)
	j	.L14
.L3:
	.loc 1 187 19
	li	a5,0
.L14:
	.loc 1 189 1
	mv	a0,a5
	lw	ra,28(sp)
	.cfi_restore 1
	lw	s0,24(sp)
	.cfi_restore 8
	.cfi_def_cfa 2, 32
	addi	sp,sp,32
	.cfi_def_cfa_offset 0
	jr	ra
	.cfi_endproc
.LFE72:
	.size	mbedtls_md_info_from_type, .-mbedtls_md_info_from_type
	.section	.text.mbedtls_md_init,"ax",@progbits
	.align	1
	.globl	mbedtls_md_init
	.type	mbedtls_md_init, @function
mbedtls_md_init:
.LFB73:
	.loc 1 256 1
	.cfi_startproc
	addi	sp,sp,-32
	.cfi_def_cfa_offset 32
	sw	ra,28(sp)
	sw	s0,24(sp)
	.cfi_offset 1, -4
	.cfi_offset 8, -8
	addi	s0,sp,32
	.cfi_def_cfa 8, 0
	sw	a0,-20(s0)
	.loc 1 258 5
	li	a2,12
	li	a1,0
	lw	a0,-20(s0)
	call	memset
	.loc 1 259 1
	nop
	lw	ra,28(sp)
	.cfi_restore 1
	lw	s0,24(sp)
	.cfi_restore 8
	.cfi_def_cfa 2, 32
	addi	sp,sp,32
	.cfi_def_cfa_offset 0
	jr	ra
	.cfi_endproc
.LFE73:
	.size	mbedtls_md_init, .-mbedtls_md_init
	.section	.text.mbedtls_md_free,"ax",@progbits
	.align	1
	.globl	mbedtls_md_free
	.type	mbedtls_md_free, @function
mbedtls_md_free:
.LFB74:
	.loc 1 262 1
	.cfi_startproc
	addi	sp,sp,-32
	.cfi_def_cfa_offset 32
	sw	ra,28(sp)
	sw	s0,24(sp)
	.cfi_offset 1, -4
	.cfi_offset 8, -8
	addi	s0,sp,32
	.cfi_def_cfa 8, 0
	sw	a0,-20(s0)
	.loc 1 263 8
	lw	a5,-20(s0)
	beq	a5,zero,.L32
	.loc 1 263 26 discriminator 1
	lw	a5,-20(s0)
	lw	a5,0(a5)
	.loc 1 263 20 discriminator 1
	beq	a5,zero,.L32
	.loc 1 267 12
	lw	a5,-20(s0)
	lw	a5,4(a5)
	.loc 1 267 8
	beq	a5,zero,.L20
	.loc 1 273 20
	lw	a5,-20(s0)
	lw	a5,0(a5)
	.loc 1 273 29
	lbu	a5,0(a5)
	.loc 1 273 9
	li	a4,19
	bgt	a5,a4,.L33
	li	a4,16
	bge	a5,a4,.L22
	li	a4,11
	beq	a5,a4,.L23
	li	a4,11
	bgt	a5,a4,.L33
	li	a4,10
	beq	a5,a4,.L24
	li	a4,10
	bgt	a5,a4,.L33
	li	a4,9
	beq	a5,a4,.L25
	li	a4,9
	bgt	a5,a4,.L33
	li	a4,8
	beq	a5,a4,.L26
	li	a4,8
	bgt	a5,a4,.L33
	li	a4,5
	beq	a5,a4,.L27
	li	a4,5
	bgt	a5,a4,.L33
	li	a4,3
	beq	a5,a4,.L28
	li	a4,4
	beq	a5,a4,.L29
	.loc 1 319 17
	j	.L33
.L28:
	.loc 1 276 37
	lw	a5,-20(s0)
	lw	a5,4(a5)
	.loc 1 276 17
	mv	a0,a5
	call	mbedtls_md5_free
	.loc 1 277 17
	j	.L30
.L29:
	.loc 1 281 43
	lw	a5,-20(s0)
	lw	a5,4(a5)
	.loc 1 281 17
	mv	a0,a5
	call	mbedtls_ripemd160_free
	.loc 1 282 17
	j	.L30
.L27:
	.loc 1 286 38
	lw	a5,-20(s0)
	lw	a5,4(a5)
	.loc 1 286 17
	mv	a0,a5
	call	mbedtls_sha1_free
	.loc 1 287 17
	j	.L30
.L26:
	.loc 1 291 40
	lw	a5,-20(s0)
	lw	a5,4(a5)
	.loc 1 291 17
	mv	a0,a5
	call	mbedtls_sha256_free
	.loc 1 292 17
	j	.L30
.L25:
	.loc 1 296 40
	lw	a5,-20(s0)
	lw	a5,4(a5)
	.loc 1 296 17
	mv	a0,a5
	call	mbedtls_sha256_free
	.loc 1 297 17
	j	.L30
.L24:
	.loc 1 301 40
	lw	a5,-20(s0)
	lw	a5,4(a5)
	.loc 1 301 17
	mv	a0,a5
	call	mbedtls_sha512_free
	.loc 1 302 17
	j	.L30
.L23:
	.loc 1 306 40
	lw	a5,-20(s0)
	lw	a5,4(a5)
	.loc 1 306 17
	mv	a0,a5
	call	mbedtls_sha512_free
	.loc 1 307 17
	j	.L30
.L22:
	.loc 1 314 38
	lw	a5,-20(s0)
	lw	a5,4(a5)
	.loc 1 314 17
	mv	a0,a5
	call	mbedtls_sha3_free
	.loc 1 315 17
	j	.L30
.L33:
	.loc 1 319 17
	nop
.L30:
	.loc 1 321 9
	lw	a5,-20(s0)
	lw	a5,4(a5)
	mv	a0,a5
	call	free
.L20:
	.loc 1 325 12
	lw	a5,-20(s0)
	lw	a5,8(a5)
	.loc 1 325 8
	beq	a5,zero,.L31
	.loc 1 326 9
	lw	a5,-20(s0)
	lw	a4,8(a5)
	.loc 1 327 41
	lw	a5,-20(s0)
	lw	a5,0(a5)
	.loc 1 327 50
	lbu	a5,2(a5)
	.loc 1 327 36
	slli	a5,a5,1
	.loc 1 326 9
	mv	a1,a5
	mv	a0,a4
	call	mbedtls_zeroize_and_free
.L31:
	.loc 1 331 5
	li	a1,12
	lw	a0,-20(s0)
	call	mbedtls_platform_zeroize
	j	.L16
.L32:
	.loc 1 264 9
	nop
.L16:
	.loc 1 332 1
	lw	ra,28(sp)
	.cfi_restore 1
	lw	s0,24(sp)
	.cfi_restore 8
	.cfi_def_cfa 2, 32
	addi	sp,sp,32
	.cfi_def_cfa_offset 0
	jr	ra
	.cfi_endproc
.LFE74:
	.size	mbedtls_md_free, .-mbedtls_md_free
	.section	.text.mbedtls_md_clone,"ax",@progbits
	.align	1
	.globl	mbedtls_md_clone
	.type	mbedtls_md_clone, @function
mbedtls_md_clone:
.LFB75:
	.loc 1 336 1
	.cfi_startproc
	addi	sp,sp,-32
	.cfi_def_cfa_offset 32
	sw	ra,28(sp)
	sw	s0,24(sp)
	.cfi_offset 1, -4
	.cfi_offset 8, -8
	addi	s0,sp,32
	.cfi_def_cfa 8, 0
	sw	a0,-20(s0)
	sw	a1,-24(s0)
	.loc 1 337 8
	lw	a5,-20(s0)
	beq	a5,zero,.L35
	.loc 1 337 26 discriminator 1
	lw	a5,-20(s0)
	lw	a5,0(a5)
	.loc 1 337 20 discriminator 1
	beq	a5,zero,.L35
	.loc 1 337 44 discriminator 2
	lw	a5,-24(s0)
	beq	a5,zero,.L35
	.loc 1 338 26
	lw	a5,-24(s0)
	lw	a5,0(a5)
	.loc 1 338 20
	beq	a5,zero,.L35
	.loc 1 339 12
	lw	a5,-20(s0)
	lw	a4,0(a5)
	.loc 1 339 28
	lw	a5,-24(s0)
	lw	a5,0(a5)
	.loc 1 338 44 discriminator 1
	beq	a4,a5,.L36
.L35:
	.loc 1 340 16
	li	a5,-20480
	addi	a5,a5,-256
	j	.L37
.L36:
	.loc 1 358 16
	lw	a5,-24(s0)
	lw	a5,0(a5)
	.loc 1 358 25
	lbu	a5,0(a5)
	.loc 1 358 5
	li	a4,19
	bgt	a5,a4,.L38
	li	a4,16
	bge	a5,a4,.L39
	li	a4,11
	beq	a5,a4,.L40
	li	a4,11
	bgt	a5,a4,.L38
	li	a4,10
	beq	a5,a4,.L41
	li	a4,10
	bgt	a5,a4,.L38
	li	a4,9
	beq	a5,a4,.L42
	li	a4,9
	bgt	a5,a4,.L38
	li	a4,8
	beq	a5,a4,.L43
	li	a4,8
	bgt	a5,a4,.L38
	li	a4,5
	beq	a5,a4,.L44
	li	a4,5
	bgt	a5,a4,.L38
	li	a4,3
	beq	a5,a4,.L45
	li	a4,4
	beq	a5,a4,.L46
	j	.L38
.L45:
	.loc 1 361 34
	lw	a5,-20(s0)
	lw	a4,4(a5)
	.loc 1 361 47
	lw	a5,-24(s0)
	lw	a5,4(a5)
	.loc 1 361 13
	mv	a1,a5
	mv	a0,a4
	call	mbedtls_md5_clone
	.loc 1 362 13
	j	.L47
.L46:
	.loc 1 366 40
	lw	a5,-20(s0)
	lw	a4,4(a5)
	.loc 1 366 53
	lw	a5,-24(s0)
	lw	a5,4(a5)
	.loc 1 366 13
	mv	a1,a5
	mv	a0,a4
	call	mbedtls_ripemd160_clone
	.loc 1 367 13
	j	.L47
.L44:
	.loc 1 371 35
	lw	a5,-20(s0)
	lw	a4,4(a5)
	.loc 1 371 48
	lw	a5,-24(s0)
	lw	a5,4(a5)
	.loc 1 371 13
	mv	a1,a5
	mv	a0,a4
	call	mbedtls_sha1_clone
	.loc 1 372 13
	j	.L47
.L43:
	.loc 1 376 37
	lw	a5,-20(s0)
	lw	a4,4(a5)
	.loc 1 376 50
	lw	a5,-24(s0)
	lw	a5,4(a5)
	.loc 1 376 13
	mv	a1,a5
	mv	a0,a4
	call	mbedtls_sha256_clone
	.loc 1 377 13
	j	.L47
.L42:
	.loc 1 381 37
	lw	a5,-20(s0)
	lw	a4,4(a5)
	.loc 1 381 50
	lw	a5,-24(s0)
	lw	a5,4(a5)
	.loc 1 381 13
	mv	a1,a5
	mv	a0,a4
	call	mbedtls_sha256_clone
	.loc 1 382 13
	j	.L47
.L41:
	.loc 1 386 37
	lw	a5,-20(s0)
	lw	a4,4(a5)
	.loc 1 386 50
	lw	a5,-24(s0)
	lw	a5,4(a5)
	.loc 1 386 13
	mv	a1,a5
	mv	a0,a4
	call	mbedtls_sha512_clone
	.loc 1 387 13
	j	.L47
.L40:
	.loc 1 391 37
	lw	a5,-20(s0)
	lw	a4,4(a5)
	.loc 1 391 50
	lw	a5,-24(s0)
	lw	a5,4(a5)
	.loc 1 391 13
	mv	a1,a5
	mv	a0,a4
	call	mbedtls_sha512_clone
	.loc 1 392 13
	j	.L47
.L39:
	.loc 1 399 35
	lw	a5,-20(s0)
	lw	a4,4(a5)
	.loc 1 399 48
	lw	a5,-24(s0)
	lw	a5,4(a5)
	.loc 1 399 13
	mv	a1,a5
	mv	a0,a4
	call	mbedtls_sha3_clone
	.loc 1 400 13
	j	.L47
.L38:
	.loc 1 403 20
	li	a5,-20480
	addi	a5,a5,-256
	j	.L37
.L47:
	.loc 1 406 12
	li	a5,0
.L37:
	.loc 1 407 1
	mv	a0,a5
	lw	ra,28(sp)
	.cfi_restore 1
	lw	s0,24(sp)
	.cfi_restore 8
	.cfi_def_cfa 2, 32
	addi	sp,sp,32
	.cfi_def_cfa_offset 0
	jr	ra
	.cfi_endproc
.LFE75:
	.size	mbedtls_md_clone, .-mbedtls_md_clone
	.section	.text.mbedtls_md_setup,"ax",@progbits
	.align	1
	.globl	mbedtls_md_setup
	.type	mbedtls_md_setup, @function
mbedtls_md_setup:
.LFB76:
	.loc 1 419 1
	.cfi_startproc
	addi	sp,sp,-32
	.cfi_def_cfa_offset 32
	sw	ra,28(sp)
	sw	s0,24(sp)
	.cfi_offset 1, -4
	.cfi_offset 8, -8
	addi	s0,sp,32
	.cfi_def_cfa 8, 0
	sw	a0,-20(s0)
	sw	a1,-24(s0)
	sw	a2,-28(s0)
	.loc 1 421 8
	lw	a5,-20(s0)
	bne	a5,zero,.L49
	.loc 1 422 16
	li	a5,-20480
	addi	a5,a5,-256
	j	.L50
.L49:
	.loc 1 425 8
	lw	a5,-24(s0)
	bne	a5,zero,.L51
	.loc 1 426 16
	li	a5,-20480
	addi	a5,a5,-256
	j	.L50
.L51:
	.loc 1 429 18
	lw	a5,-20(s0)
	lw	a4,-24(s0)
	sw	a4,0(a5)
	.loc 1 430 17
	lw	a5,-20(s0)
	sw	zero,4(a5)
	.loc 1 432 19
	lw	a5,-20(s0)
	sw	zero,8(a5)
	.loc 1 448 20
	lw	a5,-24(s0)
	lbu	a5,0(a5)
	.loc 1 448 5
	li	a4,19
	bgt	a5,a4,.L52
	li	a4,16
	bge	a5,a4,.L53
	li	a4,11
	beq	a5,a4,.L54
	li	a4,11
	bgt	a5,a4,.L52
	li	a4,10
	beq	a5,a4,.L55
	li	a4,10
	bgt	a5,a4,.L52
	li	a4,9
	beq	a5,a4,.L56
	li	a4,9
	bgt	a5,a4,.L52
	li	a4,8
	beq	a5,a4,.L57
	li	a4,8
	bgt	a5,a4,.L52
	li	a4,5
	beq	a5,a4,.L58
	li	a4,5
	bgt	a5,a4,.L52
	li	a4,3
	beq	a5,a4,.L59
	li	a4,4
	beq	a5,a4,.L60
	j	.L52
.L59:
	.loc 1 451 32
	li	a1,88
	li	a0,1
	call	calloc
	mv	a5,a0
	mv	a4,a5
	.loc 1 451 30 discriminator 1
	lw	a5,-20(s0)
	sw	a4,4(a5)
	.loc 1 451 79 discriminator 1
	lw	a5,-20(s0)
	lw	a5,4(a5)
	.loc 1 451 75 discriminator 1
	bne	a5,zero,.L61
	.loc 1 451 21 discriminator 2
	li	a5,-20480
	addi	a5,a5,-384
	.loc 1 451 21 is_stmt 0
	j	.L50
.L61:
	.loc 1 451 50 is_stmt 1 discriminator 3
	lw	a5,-20(s0)
	lw	a5,4(a5)
	.loc 1 451 30 discriminator 3
	mv	a0,a5
	call	mbedtls_md5_init
	.loc 1 452 13
	j	.L62
.L60:
	.loc 1 456 32
	li	a1,92
	li	a0,1
	call	calloc
	mv	a5,a0
	mv	a4,a5
	.loc 1 456 30 discriminator 1
	lw	a5,-20(s0)
	sw	a4,4(a5)
	.loc 1 456 85 discriminator 1
	lw	a5,-20(s0)
	lw	a5,4(a5)
	.loc 1 456 81 discriminator 1
	bne	a5,zero,.L63
	.loc 1 456 21 discriminator 2
	li	a5,-20480
	addi	a5,a5,-384
	.loc 1 456 21 is_stmt 0
	j	.L50
.L63:
	.loc 1 456 56 is_stmt 1 discriminator 3
	lw	a5,-20(s0)
	lw	a5,4(a5)
	.loc 1 456 30 discriminator 3
	mv	a0,a5
	call	mbedtls_ripemd160_init
	.loc 1 457 13
	j	.L62
.L58:
	.loc 1 461 32
	li	a1,92
	li	a0,1
	call	calloc
	mv	a5,a0
	mv	a4,a5
	.loc 1 461 30 discriminator 1
	lw	a5,-20(s0)
	sw	a4,4(a5)
	.loc 1 461 80 discriminator 1
	lw	a5,-20(s0)
	lw	a5,4(a5)
	.loc 1 461 76 discriminator 1
	bne	a5,zero,.L64
	.loc 1 461 21 discriminator 2
	li	a5,-20480
	addi	a5,a5,-384
	.loc 1 461 21 is_stmt 0
	j	.L50
.L64:
	.loc 1 461 51 is_stmt 1 discriminator 3
	lw	a5,-20(s0)
	lw	a5,4(a5)
	.loc 1 461 30 discriminator 3
	mv	a0,a5
	call	mbedtls_sha1_init
	.loc 1 462 13
	j	.L62
.L57:
	.loc 1 466 32
	li	a1,108
	li	a0,1
	call	calloc
	mv	a5,a0
	mv	a4,a5
	.loc 1 466 30 discriminator 1
	lw	a5,-20(s0)
	sw	a4,4(a5)
	.loc 1 466 82 discriminator 1
	lw	a5,-20(s0)
	lw	a5,4(a5)
	.loc 1 466 78 discriminator 1
	bne	a5,zero,.L65
	.loc 1 466 21 discriminator 2
	li	a5,-20480
	addi	a5,a5,-384
	.loc 1 466 21 is_stmt 0
	j	.L50
.L65:
	.loc 1 466 53 is_stmt 1 discriminator 3
	lw	a5,-20(s0)
	lw	a5,4(a5)
	.loc 1 466 30 discriminator 3
	mv	a0,a5
	call	mbedtls_sha256_init
	.loc 1 467 13
	j	.L62
.L56:
	.loc 1 471 32
	li	a1,108
	li	a0,1
	call	calloc
	mv	a5,a0
	mv	a4,a5
	.loc 1 471 30 discriminator 1
	lw	a5,-20(s0)
	sw	a4,4(a5)
	.loc 1 471 82 discriminator 1
	lw	a5,-20(s0)
	lw	a5,4(a5)
	.loc 1 471 78 discriminator 1
	bne	a5,zero,.L66
	.loc 1 471 21 discriminator 2
	li	a5,-20480
	addi	a5,a5,-384
	.loc 1 471 21 is_stmt 0
	j	.L50
.L66:
	.loc 1 471 53 is_stmt 1 discriminator 3
	lw	a5,-20(s0)
	lw	a5,4(a5)
	.loc 1 471 30 discriminator 3
	mv	a0,a5
	call	mbedtls_sha256_init
	.loc 1 472 13
	j	.L62
.L55:
	.loc 1 476 32
	li	a1,216
	li	a0,1
	call	calloc
	mv	a5,a0
	mv	a4,a5
	.loc 1 476 30 discriminator 1
	lw	a5,-20(s0)
	sw	a4,4(a5)
	.loc 1 476 82 discriminator 1
	lw	a5,-20(s0)
	lw	a5,4(a5)
	.loc 1 476 78 discriminator 1
	bne	a5,zero,.L67
	.loc 1 476 21 discriminator 2
	li	a5,-20480
	addi	a5,a5,-384
	.loc 1 476 21 is_stmt 0
	j	.L50
.L67:
	.loc 1 476 53 is_stmt 1 discriminator 3
	lw	a5,-20(s0)
	lw	a5,4(a5)
	.loc 1 476 30 discriminator 3
	mv	a0,a5
	call	mbedtls_sha512_init
	.loc 1 477 13
	j	.L62
.L54:
	.loc 1 481 32
	li	a1,216
	li	a0,1
	call	calloc
	mv	a5,a0
	mv	a4,a5
	.loc 1 481 30 discriminator 1
	lw	a5,-20(s0)
	sw	a4,4(a5)
	.loc 1 481 82 discriminator 1
	lw	a5,-20(s0)
	lw	a5,4(a5)
	.loc 1 481 78 discriminator 1
	bne	a5,zero,.L68
	.loc 1 481 21 discriminator 2
	li	a5,-20480
	addi	a5,a5,-384
	.loc 1 481 21 is_stmt 0
	j	.L50
.L68:
	.loc 1 481 53 is_stmt 1 discriminator 3
	lw	a5,-20(s0)
	lw	a5,4(a5)
	.loc 1 481 30 discriminator 3
	mv	a0,a5
	call	mbedtls_sha512_init
	.loc 1 482 13
	j	.L62
.L53:
	.loc 1 489 32
	li	a1,208
	li	a0,1
	call	calloc
	mv	a5,a0
	mv	a4,a5
	.loc 1 489 30 discriminator 1
	lw	a5,-20(s0)
	sw	a4,4(a5)
	.loc 1 489 80 discriminator 1
	lw	a5,-20(s0)
	lw	a5,4(a5)
	.loc 1 489 76 discriminator 1
	bne	a5,zero,.L69
	.loc 1 489 21 discriminator 2
	li	a5,-20480
	addi	a5,a5,-384
	.loc 1 489 21 is_stmt 0
	j	.L50
.L69:
	.loc 1 489 51 is_stmt 1 discriminator 3
	lw	a5,-20(s0)
	lw	a5,4(a5)
	.loc 1 489 30 discriminator 3
	mv	a0,a5
	call	mbedtls_sha3_init
	.loc 1 490 13
	j	.L62
.L52:
	.loc 1 493 20
	li	a5,-20480
	addi	a5,a5,-256
	j	.L50
.L62:
	.loc 1 497 8
	lw	a5,-28(s0)
	beq	a5,zero,.L70
	.loc 1 498 42
	lw	a5,-24(s0)
	lbu	a5,2(a5)
	.loc 1 498 25
	mv	a1,a5
	li	a0,2
	call	calloc
	mv	a5,a0
	mv	a4,a5
	.loc 1 498 23 discriminator 1
	lw	a5,-20(s0)
	sw	a4,8(a5)
	.loc 1 499 16
	lw	a5,-20(s0)
	lw	a5,8(a5)
	.loc 1 499 12
	bne	a5,zero,.L70
	.loc 1 500 13
	lw	a0,-20(s0)
	call	mbedtls_md_free
	.loc 1 501 20
	li	a5,-20480
	addi	a5,a5,-384
	j	.L50
.L70:
	.loc 1 506 12
	li	a5,0
.L50:
	.loc 1 507 1
	mv	a0,a5
	lw	ra,28(sp)
	.cfi_restore 1
	lw	s0,24(sp)
	.cfi_restore 8
	.cfi_def_cfa 2, 32
	addi	sp,sp,32
	.cfi_def_cfa_offset 0
	jr	ra
	.cfi_endproc
.LFE76:
	.size	mbedtls_md_setup, .-mbedtls_md_setup
	.section	.text.mbedtls_md_starts,"ax",@progbits
	.align	1
	.globl	mbedtls_md_starts
	.type	mbedtls_md_starts, @function
mbedtls_md_starts:
.LFB77:
	.loc 1 511 1
	.cfi_startproc
	addi	sp,sp,-32
	.cfi_def_cfa_offset 32
	sw	ra,28(sp)
	sw	s0,24(sp)
	.cfi_offset 1, -4
	.cfi_offset 8, -8
	addi	s0,sp,32
	.cfi_def_cfa 8, 0
	sw	a0,-20(s0)
	.loc 1 513 8
	lw	a5,-20(s0)
	beq	a5,zero,.L72
	.loc 1 513 26 discriminator 1
	lw	a5,-20(s0)
	lw	a5,0(a5)
	.loc 1 513 20 discriminator 1
	bne	a5,zero,.L73
.L72:
	.loc 1 514 16
	li	a5,-20480
	addi	a5,a5,-256
	j	.L74
.L73:
	.loc 1 527 16
	lw	a5,-20(s0)
	lw	a5,0(a5)
	.loc 1 527 25
	lbu	a5,0(a5)
	.loc 1 527 5
	li	a4,19
	beq	a5,a4,.L75
	li	a4,19
	bgt	a5,a4,.L76
	li	a4,18
	beq	a5,a4,.L77
	li	a4,18
	bgt	a5,a4,.L76
	li	a4,17
	beq	a5,a4,.L78
	li	a4,17
	bgt	a5,a4,.L76
	li	a4,16
	beq	a5,a4,.L79
	li	a4,16
	bgt	a5,a4,.L76
	li	a4,11
	beq	a5,a4,.L80
	li	a4,11
	bgt	a5,a4,.L76
	li	a4,10
	beq	a5,a4,.L81
	li	a4,10
	bgt	a5,a4,.L76
	li	a4,9
	beq	a5,a4,.L82
	li	a4,9
	bgt	a5,a4,.L76
	li	a4,8
	beq	a5,a4,.L83
	li	a4,8
	bgt	a5,a4,.L76
	li	a4,5
	beq	a5,a4,.L84
	li	a4,5
	bgt	a5,a4,.L76
	li	a4,3
	beq	a5,a4,.L85
	li	a4,4
	beq	a5,a4,.L86
	j	.L76
.L85:
	.loc 1 530 42
	lw	a5,-20(s0)
	lw	a5,4(a5)
	.loc 1 530 20
	mv	a0,a5
	call	mbedtls_md5_starts
	mv	a5,a0
	j	.L74
.L86:
	.loc 1 534 48
	lw	a5,-20(s0)
	lw	a5,4(a5)
	.loc 1 534 20
	mv	a0,a5
	call	mbedtls_ripemd160_starts
	mv	a5,a0
	j	.L74
.L84:
	.loc 1 538 43
	lw	a5,-20(s0)
	lw	a5,4(a5)
	.loc 1 538 20
	mv	a0,a5
	call	mbedtls_sha1_starts
	mv	a5,a0
	j	.L74
.L83:
	.loc 1 542 45
	lw	a5,-20(s0)
	lw	a5,4(a5)
	.loc 1 542 20
	li	a1,1
	mv	a0,a5
	call	mbedtls_sha256_starts
	mv	a5,a0
	j	.L74
.L82:
	.loc 1 546 45
	lw	a5,-20(s0)
	lw	a5,4(a5)
	.loc 1 546 20
	li	a1,0
	mv	a0,a5
	call	mbedtls_sha256_starts
	mv	a5,a0
	j	.L74
.L81:
	.loc 1 550 45
	lw	a5,-20(s0)
	lw	a5,4(a5)
	.loc 1 550 20
	li	a1,1
	mv	a0,a5
	call	mbedtls_sha512_starts
	mv	a5,a0
	j	.L74
.L80:
	.loc 1 554 45
	lw	a5,-20(s0)
	lw	a5,4(a5)
	.loc 1 554 20
	li	a1,0
	mv	a0,a5
	call	mbedtls_sha512_starts
	mv	a5,a0
	j	.L74
.L79:
	.loc 1 558 43
	lw	a5,-20(s0)
	lw	a5,4(a5)
	.loc 1 558 20
	li	a1,1
	mv	a0,a5
	call	mbedtls_sha3_starts
	mv	a5,a0
	j	.L74
.L78:
	.loc 1 560 43
	lw	a5,-20(s0)
	lw	a5,4(a5)
	.loc 1 560 20
	li	a1,2
	mv	a0,a5
	call	mbedtls_sha3_starts
	mv	a5,a0
	j	.L74
.L77:
	.loc 1 562 43
	lw	a5,-20(s0)
	lw	a5,4(a5)
	.loc 1 562 20
	li	a1,3
	mv	a0,a5
	call	mbedtls_sha3_starts
	mv	a5,a0
	j	.L74
.L75:
	.loc 1 564 43
	lw	a5,-20(s0)
	lw	a5,4(a5)
	.loc 1 564 20
	li	a1,4
	mv	a0,a5
	call	mbedtls_sha3_starts
	mv	a5,a0
	j	.L74
.L76:
	.loc 1 567 20
	li	a5,-20480
	addi	a5,a5,-256
.L74:
	.loc 1 569 1
	mv	a0,a5
	lw	ra,28(sp)
	.cfi_restore 1
	lw	s0,24(sp)
	.cfi_restore 8
	.cfi_def_cfa 2, 32
	addi	sp,sp,32
	.cfi_def_cfa_offset 0
	jr	ra
	.cfi_endproc
.LFE77:
	.size	mbedtls_md_starts, .-mbedtls_md_starts
	.section	.text.mbedtls_md_update,"ax",@progbits
	.align	1
	.globl	mbedtls_md_update
	.type	mbedtls_md_update, @function
mbedtls_md_update:
.LFB78:
	.loc 1 572 1
	.cfi_startproc
	addi	sp,sp,-32
	.cfi_def_cfa_offset 32
	sw	ra,28(sp)
	sw	s0,24(sp)
	.cfi_offset 1, -4
	.cfi_offset 8, -8
	addi	s0,sp,32
	.cfi_def_cfa 8, 0
	sw	a0,-20(s0)
	sw	a1,-24(s0)
	sw	a2,-28(s0)
	.loc 1 574 8
	lw	a5,-20(s0)
	beq	a5,zero,.L88
	.loc 1 574 26 discriminator 1
	lw	a5,-20(s0)
	lw	a5,0(a5)
	.loc 1 574 20 discriminator 1
	bne	a5,zero,.L89
.L88:
	.loc 1 575 16
	li	a5,-20480
	addi	a5,a5,-256
	j	.L90
.L89:
	.loc 1 586 16
	lw	a5,-20(s0)
	lw	a5,0(a5)
	.loc 1 586 25
	lbu	a5,0(a5)
	.loc 1 586 5
	li	a4,19
	bgt	a5,a4,.L91
	li	a4,16
	bge	a5,a4,.L92
	li	a4,11
	beq	a5,a4,.L93
	li	a4,11
	bgt	a5,a4,.L91
	li	a4,10
	beq	a5,a4,.L94
	li	a4,10
	bgt	a5,a4,.L91
	li	a4,9
	beq	a5,a4,.L95
	li	a4,9
	bgt	a5,a4,.L91
	li	a4,8
	beq	a5,a4,.L96
	li	a4,8
	bgt	a5,a4,.L91
	li	a4,5
	beq	a5,a4,.L97
	li	a4,5
	bgt	a5,a4,.L91
	li	a4,3
	beq	a5,a4,.L98
	li	a4,4
	beq	a5,a4,.L99
	j	.L91
.L98:
	.loc 1 589 42
	lw	a5,-20(s0)
	lw	a5,4(a5)
	.loc 1 589 20
	lw	a2,-28(s0)
	lw	a1,-24(s0)
	mv	a0,a5
	call	mbedtls_md5_update
	mv	a5,a0
	j	.L90
.L99:
	.loc 1 593 48
	lw	a5,-20(s0)
	lw	a5,4(a5)
	.loc 1 593 20
	lw	a2,-28(s0)
	lw	a1,-24(s0)
	mv	a0,a5
	call	mbedtls_ripemd160_update
	mv	a5,a0
	j	.L90
.L97:
	.loc 1 597 43
	lw	a5,-20(s0)
	lw	a5,4(a5)
	.loc 1 597 20
	lw	a2,-28(s0)
	lw	a1,-24(s0)
	mv	a0,a5
	call	mbedtls_sha1_update
	mv	a5,a0
	j	.L90
.L96:
	.loc 1 601 45
	lw	a5,-20(s0)
	lw	a5,4(a5)
	.loc 1 601 20
	lw	a2,-28(s0)
	lw	a1,-24(s0)
	mv	a0,a5
	call	mbedtls_sha256_update
	mv	a5,a0
	j	.L90
.L95:
	.loc 1 605 45
	lw	a5,-20(s0)
	lw	a5,4(a5)
	.loc 1 605 20
	lw	a2,-28(s0)
	lw	a1,-24(s0)
	mv	a0,a5
	call	mbedtls_sha256_update
	mv	a5,a0
	j	.L90
.L94:
	.loc 1 609 45
	lw	a5,-20(s0)
	lw	a5,4(a5)
	.loc 1 609 20
	lw	a2,-28(s0)
	lw	a1,-24(s0)
	mv	a0,a5
	call	mbedtls_sha512_update
	mv	a5,a0
	j	.L90
.L93:
	.loc 1 613 45
	lw	a5,-20(s0)
	lw	a5,4(a5)
	.loc 1 613 20
	lw	a2,-28(s0)
	lw	a1,-24(s0)
	mv	a0,a5
	call	mbedtls_sha512_update
	mv	a5,a0
	j	.L90
.L92:
	.loc 1 620 43
	lw	a5,-20(s0)
	lw	a5,4(a5)
	.loc 1 620 20
	lw	a2,-28(s0)
	lw	a1,-24(s0)
	mv	a0,a5
	call	mbedtls_sha3_update
	mv	a5,a0
	j	.L90
.L91:
	.loc 1 623 20
	li	a5,-20480
	addi	a5,a5,-256
.L90:
	.loc 1 625 1
	mv	a0,a5
	lw	ra,28(sp)
	.cfi_restore 1
	lw	s0,24(sp)
	.cfi_restore 8
	.cfi_def_cfa 2, 32
	addi	sp,sp,32
	.cfi_def_cfa_offset 0
	jr	ra
	.cfi_endproc
.LFE78:
	.size	mbedtls_md_update, .-mbedtls_md_update
	.section	.text.mbedtls_md_finish,"ax",@progbits
	.align	1
	.globl	mbedtls_md_finish
	.type	mbedtls_md_finish, @function
mbedtls_md_finish:
.LFB79:
	.loc 1 628 1
	.cfi_startproc
	addi	sp,sp,-32
	.cfi_def_cfa_offset 32
	sw	ra,28(sp)
	sw	s0,24(sp)
	.cfi_offset 1, -4
	.cfi_offset 8, -8
	addi	s0,sp,32
	.cfi_def_cfa 8, 0
	sw	a0,-20(s0)
	sw	a1,-24(s0)
	.loc 1 630 8
	lw	a5,-20(s0)
	beq	a5,zero,.L101
	.loc 1 630 26 discriminator 1
	lw	a5,-20(s0)
	lw	a5,0(a5)
	.loc 1 630 20 discriminator 1
	bne	a5,zero,.L102
.L101:
	.loc 1 631 16
	li	a5,-20480
	addi	a5,a5,-256
	j	.L103
.L102:
	.loc 1 644 16
	lw	a5,-20(s0)
	lw	a5,0(a5)
	.loc 1 644 25
	lbu	a5,0(a5)
	.loc 1 644 5
	li	a4,19
	bgt	a5,a4,.L104
	li	a4,16
	bge	a5,a4,.L105
	li	a4,11
	beq	a5,a4,.L106
	li	a4,11
	bgt	a5,a4,.L104
	li	a4,10
	beq	a5,a4,.L107
	li	a4,10
	bgt	a5,a4,.L104
	li	a4,9
	beq	a5,a4,.L108
	li	a4,9
	bgt	a5,a4,.L104
	li	a4,8
	beq	a5,a4,.L109
	li	a4,8
	bgt	a5,a4,.L104
	li	a4,5
	beq	a5,a4,.L110
	li	a4,5
	bgt	a5,a4,.L104
	li	a4,3
	beq	a5,a4,.L111
	li	a4,4
	beq	a5,a4,.L112
	j	.L104
.L111:
	.loc 1 647 42
	lw	a5,-20(s0)
	lw	a5,4(a5)
	.loc 1 647 20
	lw	a1,-24(s0)
	mv	a0,a5
	call	mbedtls_md5_finish
	mv	a5,a0
	j	.L103
.L112:
	.loc 1 651 48
	lw	a5,-20(s0)
	lw	a5,4(a5)
	.loc 1 651 20
	lw	a1,-24(s0)
	mv	a0,a5
	call	mbedtls_ripemd160_finish
	mv	a5,a0
	j	.L103
.L110:
	.loc 1 655 43
	lw	a5,-20(s0)
	lw	a5,4(a5)
	.loc 1 655 20
	lw	a1,-24(s0)
	mv	a0,a5
	call	mbedtls_sha1_finish
	mv	a5,a0
	j	.L103
.L109:
	.loc 1 659 45
	lw	a5,-20(s0)
	lw	a5,4(a5)
	.loc 1 659 20
	lw	a1,-24(s0)
	mv	a0,a5
	call	mbedtls_sha256_finish
	mv	a5,a0
	j	.L103
.L108:
	.loc 1 663 45
	lw	a5,-20(s0)
	lw	a5,4(a5)
	.loc 1 663 20
	lw	a1,-24(s0)
	mv	a0,a5
	call	mbedtls_sha256_finish
	mv	a5,a0
	j	.L103
.L107:
	.loc 1 667 45
	lw	a5,-20(s0)
	lw	a5,4(a5)
	.loc 1 667 20
	lw	a1,-24(s0)
	mv	a0,a5
	call	mbedtls_sha512_finish
	mv	a5,a0
	j	.L103
.L106:
	.loc 1 671 45
	lw	a5,-20(s0)
	lw	a5,4(a5)
	.loc 1 671 20
	lw	a1,-24(s0)
	mv	a0,a5
	call	mbedtls_sha512_finish
	mv	a5,a0
	j	.L103
.L105:
	.loc 1 678 43
	lw	a5,-20(s0)
	lw	a4,4(a5)
	.loc 1 678 64
	lw	a5,-20(s0)
	lw	a5,0(a5)
	.loc 1 678 73
	lbu	a5,1(a5)
	.loc 1 678 20
	mv	a2,a5
	lw	a1,-24(s0)
	mv	a0,a4
	call	mbedtls_sha3_finish
	mv	a5,a0
	j	.L103
.L104:
	.loc 1 681 20
	li	a5,-20480
	addi	a5,a5,-256
.L103:
	.loc 1 683 1
	mv	a0,a5
	lw	ra,28(sp)
	.cfi_restore 1
	lw	s0,24(sp)
	.cfi_restore 8
	.cfi_def_cfa 2, 32
	addi	sp,sp,32
	.cfi_def_cfa_offset 0
	jr	ra
	.cfi_endproc
.LFE79:
	.size	mbedtls_md_finish, .-mbedtls_md_finish
	.section	.text.mbedtls_md,"ax",@progbits
	.align	1
	.globl	mbedtls_md
	.type	mbedtls_md, @function
mbedtls_md:
.LFB80:
	.loc 1 687 1
	.cfi_startproc
	addi	sp,sp,-32
	.cfi_def_cfa_offset 32
	sw	ra,28(sp)
	sw	s0,24(sp)
	.cfi_offset 1, -4
	.cfi_offset 8, -8
	addi	s0,sp,32
	.cfi_def_cfa 8, 0
	sw	a0,-20(s0)
	sw	a1,-24(s0)
	sw	a2,-28(s0)
	sw	a3,-32(s0)
	.loc 1 688 8
	lw	a5,-20(s0)
	bne	a5,zero,.L114
	.loc 1 689 16
	li	a5,-20480
	addi	a5,a5,-256
	j	.L115
.L114:
	.loc 1 702 20
	lw	a5,-20(s0)
	lbu	a5,0(a5)
	.loc 1 702 5
	li	a4,19
	beq	a5,a4,.L116
	li	a4,19
	bgt	a5,a4,.L117
	li	a4,18
	beq	a5,a4,.L118
	li	a4,18
	bgt	a5,a4,.L117
	li	a4,17
	beq	a5,a4,.L119
	li	a4,17
	bgt	a5,a4,.L117
	li	a4,16
	beq	a5,a4,.L120
	li	a4,16
	bgt	a5,a4,.L117
	li	a4,11
	beq	a5,a4,.L121
	li	a4,11
	bgt	a5,a4,.L117
	li	a4,10
	beq	a5,a4,.L122
	li	a4,10
	bgt	a5,a4,.L117
	li	a4,9
	beq	a5,a4,.L123
	li	a4,9
	bgt	a5,a4,.L117
	li	a4,8
	beq	a5,a4,.L124
	li	a4,8
	bgt	a5,a4,.L117
	li	a4,5
	beq	a5,a4,.L125
	li	a4,5
	bgt	a5,a4,.L117
	li	a4,3
	beq	a5,a4,.L126
	li	a4,4
	beq	a5,a4,.L127
	j	.L117
.L126:
	.loc 1 705 20
	lw	a2,-32(s0)
	lw	a1,-28(s0)
	lw	a0,-24(s0)
	call	mbedtls_md5
	mv	a5,a0
	j	.L115
.L127:
	.loc 1 709 20
	lw	a2,-32(s0)
	lw	a1,-28(s0)
	lw	a0,-24(s0)
	call	mbedtls_ripemd160
	mv	a5,a0
	j	.L115
.L125:
	.loc 1 713 20
	lw	a2,-32(s0)
	lw	a1,-28(s0)
	lw	a0,-24(s0)
	call	mbedtls_sha1
	mv	a5,a0
	j	.L115
.L124:
	.loc 1 717 20
	li	a3,1
	lw	a2,-32(s0)
	lw	a1,-28(s0)
	lw	a0,-24(s0)
	call	mbedtls_sha256
	mv	a5,a0
	j	.L115
.L123:
	.loc 1 721 20
	li	a3,0
	lw	a2,-32(s0)
	lw	a1,-28(s0)
	lw	a0,-24(s0)
	call	mbedtls_sha256
	mv	a5,a0
	j	.L115
.L122:
	.loc 1 725 20
	li	a3,1
	lw	a2,-32(s0)
	lw	a1,-28(s0)
	lw	a0,-24(s0)
	call	mbedtls_sha512
	mv	a5,a0
	j	.L115
.L121:
	.loc 1 729 20
	li	a3,0
	lw	a2,-32(s0)
	lw	a1,-28(s0)
	lw	a0,-24(s0)
	call	mbedtls_sha512
	mv	a5,a0
	j	.L115
.L120:
	.loc 1 733 79
	lw	a5,-20(s0)
	lbu	a5,1(a5)
	.loc 1 733 20
	mv	a4,a5
	lw	a3,-32(s0)
	lw	a2,-28(s0)
	lw	a1,-24(s0)
	li	a0,1
	call	mbedtls_sha3
	mv	a5,a0
	j	.L115
.L119:
	.loc 1 735 79
	lw	a5,-20(s0)
	lbu	a5,1(a5)
	.loc 1 735 20
	mv	a4,a5
	lw	a3,-32(s0)
	lw	a2,-28(s0)
	lw	a1,-24(s0)
	li	a0,2
	call	mbedtls_sha3
	mv	a5,a0
	j	.L115
.L118:
	.loc 1 737 79
	lw	a5,-20(s0)
	lbu	a5,1(a5)
	.loc 1 737 20
	mv	a4,a5
	lw	a3,-32(s0)
	lw	a2,-28(s0)
	lw	a1,-24(s0)
	li	a0,3
	call	mbedtls_sha3
	mv	a5,a0
	j	.L115
.L116:
	.loc 1 739 79
	lw	a5,-20(s0)
	lbu	a5,1(a5)
	.loc 1 739 20
	mv	a4,a5
	lw	a3,-32(s0)
	lw	a2,-28(s0)
	lw	a1,-24(s0)
	li	a0,4
	call	mbedtls_sha3
	mv	a5,a0
	j	.L115
.L117:
	.loc 1 742 20
	li	a5,-20480
	addi	a5,a5,-256
.L115:
	.loc 1 744 1
	mv	a0,a5
	lw	ra,28(sp)
	.cfi_restore 1
	lw	s0,24(sp)
	.cfi_restore 8
	.cfi_def_cfa 2, 32
	addi	sp,sp,32
	.cfi_def_cfa_offset 0
	jr	ra
	.cfi_endproc
.LFE80:
	.size	mbedtls_md, .-mbedtls_md
	.section	.text.mbedtls_md_get_size,"ax",@progbits
	.align	1
	.globl	mbedtls_md_get_size
	.type	mbedtls_md_get_size, @function
mbedtls_md_get_size:
.LFB81:
	.loc 1 747 1
	.cfi_startproc
	addi	sp,sp,-32
	.cfi_def_cfa_offset 32
	sw	ra,28(sp)
	sw	s0,24(sp)
	.cfi_offset 1, -4
	.cfi_offset 8, -8
	addi	s0,sp,32
	.cfi_def_cfa 8, 0
	sw	a0,-20(s0)
	.loc 1 748 8
	lw	a5,-20(s0)
	bne	a5,zero,.L129
	.loc 1 749 16
	li	a5,0
	j	.L130
.L129:
	.loc 1 752 19
	lw	a5,-20(s0)
	lbu	a5,1(a5)
.L130:
	.loc 1 753 1
	mv	a0,a5
	lw	ra,28(sp)
	.cfi_restore 1
	lw	s0,24(sp)
	.cfi_restore 8
	.cfi_def_cfa 2, 32
	addi	sp,sp,32
	.cfi_def_cfa_offset 0
	jr	ra
	.cfi_endproc
.LFE81:
	.size	mbedtls_md_get_size, .-mbedtls_md_get_size
	.section	.text.mbedtls_md_get_type,"ax",@progbits
	.align	1
	.globl	mbedtls_md_get_type
	.type	mbedtls_md_get_type, @function
mbedtls_md_get_type:
.LFB82:
	.loc 1 756 1
	.cfi_startproc
	addi	sp,sp,-32
	.cfi_def_cfa_offset 32
	sw	ra,28(sp)
	sw	s0,24(sp)
	.cfi_offset 1, -4
	.cfi_offset 8, -8
	addi	s0,sp,32
	.cfi_def_cfa 8, 0
	sw	a0,-20(s0)
	.loc 1 757 8
	lw	a5,-20(s0)
	bne	a5,zero,.L132
	.loc 1 758 16
	li	a5,0
	j	.L133
.L132:
	.loc 1 761 19
	lw	a5,-20(s0)
	lbu	a5,0(a5)
.L133:
	.loc 1 762 1
	mv	a0,a5
	lw	ra,28(sp)
	.cfi_restore 1
	lw	s0,24(sp)
	.cfi_restore 8
	.cfi_def_cfa 2, 32
	addi	sp,sp,32
	.cfi_def_cfa_offset 0
	jr	ra
	.cfi_endproc
.LFE82:
	.size	mbedtls_md_get_type, .-mbedtls_md_get_type
	.section	.text.mbedtls_md_error_from_psa,"ax",@progbits
	.align	1
	.globl	mbedtls_md_error_from_psa
	.type	mbedtls_md_error_from_psa, @function
mbedtls_md_error_from_psa:
.LFB83:
	.loc 1 766 1
	.cfi_startproc
	addi	sp,sp,-32
	.cfi_def_cfa_offset 32
	sw	ra,28(sp)
	sw	s0,24(sp)
	.cfi_offset 1, -4
	.cfi_offset 8, -8
	addi	s0,sp,32
	.cfi_def_cfa 8, 0
	sw	a0,-20(s0)
	.loc 1 767 12
	lui	a5,%hi(psa_generic_status_to_mbedtls)
	addi	a3,a5,%lo(psa_generic_status_to_mbedtls)
	li	a2,4
	lui	a5,%hi(psa_to_md_errors)
	addi	a1,a5,%lo(psa_to_md_errors)
	lw	a0,-20(s0)
	call	psa_status_to_mbedtls
	mv	a5,a0
	.loc 1 769 1
	mv	a0,a5
	lw	ra,28(sp)
	.cfi_restore 1
	lw	s0,24(sp)
	.cfi_restore 8
	.cfi_def_cfa 2, 32
	addi	sp,sp,32
	.cfi_def_cfa_offset 0
	jr	ra
	.cfi_endproc
.LFE83:
	.size	mbedtls_md_error_from_psa, .-mbedtls_md_error_from_psa
	.section	.rodata.supported_digests,"a"
	.align	2
	.type	supported_digests, @object
	.size	supported_digests, 48
supported_digests:
	.word	11
	.word	10
	.word	9
	.word	8
	.word	5
	.word	4
	.word	3
	.word	16
	.word	17
	.word	18
	.word	19
	.word	0
	.section	.text.mbedtls_md_list,"ax",@progbits
	.align	1
	.globl	mbedtls_md_list
	.type	mbedtls_md_list, @function
mbedtls_md_list:
.LFB84:
	.loc 1 831 1
	.cfi_startproc
	addi	sp,sp,-16
	.cfi_def_cfa_offset 16
	sw	ra,12(sp)
	sw	s0,8(sp)
	.cfi_offset 1, -4
	.cfi_offset 8, -8
	addi	s0,sp,16
	.cfi_def_cfa 8, 0
	.loc 1 832 12
	lui	a5,%hi(supported_digests)
	addi	a5,a5,%lo(supported_digests)
	.loc 1 833 1
	mv	a0,a5
	lw	ra,12(sp)
	.cfi_restore 1
	lw	s0,8(sp)
	.cfi_restore 8
	.cfi_def_cfa 2, 16
	addi	sp,sp,16
	.cfi_def_cfa_offset 0
	jr	ra
	.cfi_endproc
.LFE84:
	.size	mbedtls_md_list, .-mbedtls_md_list
	.section	.rodata
	.align	2
.LC0:
	.string	"MD5"
	.align	2
.LC1:
	.string	"RIPEMD160"
	.align	2
.LC2:
	.string	"SHA1"
	.align	2
.LC3:
	.string	"SHA"
	.align	2
.LC4:
	.string	"SHA224"
	.align	2
.LC5:
	.string	"SHA256"
	.align	2
.LC6:
	.string	"SHA384"
	.align	2
.LC7:
	.string	"SHA512"
	.align	2
.LC8:
	.string	"SHA3-224"
	.align	2
.LC9:
	.string	"SHA3-256"
	.align	2
.LC10:
	.string	"SHA3-384"
	.align	2
.LC11:
	.string	"SHA3-512"
	.section	.rodata.md_names,"a"
	.align	2
	.type	md_names, @object
	.size	md_names, 104
md_names:
	.word	.LC0
	.byte	3
	.zero	3
	.word	.LC1
	.byte	4
	.zero	3
	.word	.LC2
	.byte	5
	.zero	3
	.word	.LC3
	.byte	5
	.zero	3
	.word	.LC4
	.byte	8
	.zero	3
	.word	.LC5
	.byte	9
	.zero	3
	.word	.LC6
	.byte	10
	.zero	3
	.word	.LC7
	.byte	11
	.zero	3
	.word	.LC8
	.byte	16
	.zero	3
	.word	.LC9
	.byte	17
	.zero	3
	.word	.LC10
	.byte	18
	.zero	3
	.word	.LC11
	.byte	19
	.zero	3
	.word	0
	.byte	0
	.zero	3
	.section	.text.mbedtls_md_info_from_string,"ax",@progbits
	.align	1
	.globl	mbedtls_md_info_from_string
	.type	mbedtls_md_info_from_string, @function
mbedtls_md_info_from_string:
.LFB85:
	.loc 1 879 1
	.cfi_startproc
	addi	sp,sp,-48
	.cfi_def_cfa_offset 48
	sw	ra,44(sp)
	sw	s0,40(sp)
	.cfi_offset 1, -4
	.cfi_offset 8, -8
	addi	s0,sp,48
	.cfi_def_cfa 8, 0
	sw	a0,-36(s0)
	.loc 1 880 8
	lw	a5,-36(s0)
	bne	a5,zero,.L139
	.loc 1 881 15
	li	a5,0
	j	.L140
.L139:
	.loc 1 884 26
	lui	a5,%hi(md_names)
	addi	a5,a5,%lo(md_names)
	sw	a5,-20(s0)
	.loc 1 885 11
	j	.L141
.L143:
	.loc 1 887 9
	lw	a5,-20(s0)
	addi	a5,a5,8
	sw	a5,-20(s0)
.L141:
	.loc 1 885 17
	lw	a5,-20(s0)
	lw	a5,0(a5)
	.loc 1 885 34
	beq	a5,zero,.L142
	.loc 1 886 24
	lw	a5,-20(s0)
	lw	a5,0(a5)
	.loc 1 886 12
	lw	a1,-36(s0)
	mv	a0,a5
	call	strcmp
	mv	a5,a0
	.loc 1 885 34 discriminator 1
	bne	a5,zero,.L143
.L142:
	.loc 1 890 43
	lw	a5,-20(s0)
	lbu	a5,4(a5)
	.loc 1 890 12
	mv	a0,a5
	call	mbedtls_md_info_from_type
	mv	a5,a0
.L140:
	.loc 1 891 1
	mv	a0,a5
	lw	ra,44(sp)
	.cfi_restore 1
	lw	s0,40(sp)
	.cfi_restore 8
	.cfi_def_cfa 2, 48
	addi	sp,sp,48
	.cfi_def_cfa_offset 0
	jr	ra
	.cfi_endproc
.LFE85:
	.size	mbedtls_md_info_from_string, .-mbedtls_md_info_from_string
	.section	.text.mbedtls_md_get_name,"ax",@progbits
	.align	1
	.globl	mbedtls_md_get_name
	.type	mbedtls_md_get_name, @function
mbedtls_md_get_name:
.LFB86:
	.loc 1 894 1
	.cfi_startproc
	addi	sp,sp,-48
	.cfi_def_cfa_offset 48
	sw	ra,44(sp)
	sw	s0,40(sp)
	.cfi_offset 1, -4
	.cfi_offset 8, -8
	addi	s0,sp,48
	.cfi_def_cfa 8, 0
	sw	a0,-36(s0)
	.loc 1 895 8
	lw	a5,-36(s0)
	bne	a5,zero,.L145
	.loc 1 896 15
	li	a5,0
	j	.L146
.L145:
	.loc 1 899 26
	lui	a5,%hi(md_names)
	addi	a5,a5,%lo(md_names)
	sw	a5,-20(s0)
	.loc 1 900 11
	j	.L147
.L149:
	.loc 1 902 9
	lw	a5,-20(s0)
	addi	a5,a5,8
	sw	a5,-20(s0)
.L147:
	.loc 1 900 17
	lw	a5,-20(s0)
	lbu	a5,4(a5)
	.loc 1 900 46
	beq	a5,zero,.L148
	.loc 1 901 17
	lw	a5,-20(s0)
	lbu	a4,4(a5)
	.loc 1 901 37
	lw	a5,-36(s0)
	lbu	a5,0(a5)
	.loc 1 900 46 discriminator 1
	bne	a4,a5,.L149
.L148:
	.loc 1 905 17
	lw	a5,-20(s0)
	lw	a5,0(a5)
.L146:
	.loc 1 906 1
	mv	a0,a5
	lw	ra,44(sp)
	.cfi_restore 1
	lw	s0,40(sp)
	.cfi_restore 8
	.cfi_def_cfa 2, 48
	addi	sp,sp,48
	.cfi_def_cfa_offset 0
	jr	ra
	.cfi_endproc
.LFE86:
	.size	mbedtls_md_get_name, .-mbedtls_md_get_name
	.section	.text.mbedtls_md_info_from_ctx,"ax",@progbits
	.align	1
	.globl	mbedtls_md_info_from_ctx
	.type	mbedtls_md_info_from_ctx, @function
mbedtls_md_info_from_ctx:
.LFB87:
	.loc 1 910 1
	.cfi_startproc
	addi	sp,sp,-32
	.cfi_def_cfa_offset 32
	sw	ra,28(sp)
	sw	s0,24(sp)
	.cfi_offset 1, -4
	.cfi_offset 8, -8
	addi	s0,sp,32
	.cfi_def_cfa 8, 0
	sw	a0,-20(s0)
	.loc 1 911 8
	lw	a5,-20(s0)
	bne	a5,zero,.L151
	.loc 1 912 15
	li	a5,0
	j	.L152
.L151:
	.loc 1 915 15
	lw	a5,-20(s0)
	lw	a5,0(a5)
.L152:
	.loc 1 916 1
	mv	a0,a5
	lw	ra,28(sp)
	.cfi_restore 1
	lw	s0,24(sp)
	.cfi_restore 8
	.cfi_def_cfa 2, 32
	addi	sp,sp,32
	.cfi_def_cfa_offset 0
	jr	ra
	.cfi_endproc
.LFE87:
	.size	mbedtls_md_info_from_ctx, .-mbedtls_md_info_from_ctx
	.section	.text.mbedtls_md_hmac_starts,"ax",@progbits
	.align	1
	.globl	mbedtls_md_hmac_starts
	.type	mbedtls_md_hmac_starts, @function
mbedtls_md_hmac_starts:
.LFB88:
	.loc 1 970 1
	.cfi_startproc
	addi	sp,sp,-160
	.cfi_def_cfa_offset 160
	sw	ra,156(sp)
	sw	s0,152(sp)
	.cfi_offset 1, -4
	.cfi_offset 8, -8
	addi	s0,sp,160
	.cfi_def_cfa 8, 0
	sw	a0,-148(s0)
	sw	a1,-152(s0)
	sw	a2,-156(s0)
	.loc 1 971 9
	li	a5,-110
	sw	a5,-20(s0)
	.loc 1 975 8
	lw	a5,-148(s0)
	beq	a5,zero,.L154
	.loc 1 975 26 discriminator 1
	lw	a5,-148(s0)
	lw	a5,0(a5)
	.loc 1 975 20 discriminator 1
	beq	a5,zero,.L154
	.loc 1 975 50 discriminator 2
	lw	a5,-148(s0)
	lw	a5,8(a5)
	.loc 1 975 44 discriminator 2
	bne	a5,zero,.L155
.L154:
	.loc 1 976 16
	li	a5,-20480
	addi	a5,a5,-256
	j	.L167
.L155:
	.loc 1 979 30
	lw	a5,-148(s0)
	lw	a5,0(a5)
	.loc 1 979 39
	lbu	a5,2(a5)
	.loc 1 979 18
	mv	a4,a5
	.loc 1 979 8
	lw	a5,-156(s0)
	bleu	a5,a4,.L157
	.loc 1 980 20
	lw	a0,-148(s0)
	call	mbedtls_md_starts
	sw	a0,-20(s0)
	.loc 1 980 12 discriminator 1
	lw	a5,-20(s0)
	bne	a5,zero,.L168
	.loc 1 983 20
	lw	a2,-156(s0)
	lw	a1,-152(s0)
	lw	a0,-148(s0)
	call	mbedtls_md_update
	sw	a0,-20(s0)
	.loc 1 983 12 discriminator 1
	lw	a5,-20(s0)
	bne	a5,zero,.L169
	.loc 1 986 20
	addi	a5,s0,-132
	mv	a1,a5
	lw	a0,-148(s0)
	call	mbedtls_md_finish
	sw	a0,-20(s0)
	.loc 1 986 12 discriminator 1
	lw	a5,-20(s0)
	bne	a5,zero,.L170
	.loc 1 990 21
	lw	a5,-148(s0)
	lw	a5,0(a5)
	.loc 1 990 30
	lbu	a5,1(a5)
	.loc 1 990 16
	sw	a5,-156(s0)
	.loc 1 991 13
	addi	a5,s0,-132
	sw	a5,-152(s0)
.L157:
	.loc 1 994 10
	lw	a5,-148(s0)
	lw	a5,8(a5)
	sw	a5,-24(s0)
	.loc 1 995 33
	lw	a5,-148(s0)
	lw	a5,8(a5)
	.loc 1 995 49
	lw	a4,-148(s0)
	lw	a4,0(a4)
	.loc 1 995 58
	lbu	a4,2(a4)
	.loc 1 995 10
	add	a5,a5,a4
	sw	a5,-28(s0)
	.loc 1 997 27
	lw	a5,-148(s0)
	lw	a5,0(a5)
	.loc 1 997 36
	lbu	a5,2(a5)
	.loc 1 997 5
	mv	a2,a5
	li	a1,54
	lw	a0,-24(s0)
	call	memset
	.loc 1 998 27
	lw	a5,-148(s0)
	lw	a5,0(a5)
	.loc 1 998 36
	lbu	a5,2(a5)
	.loc 1 998 5
	mv	a2,a5
	li	a1,92
	lw	a0,-28(s0)
	call	memset
	lw	a5,-24(s0)
	sw	a5,-52(s0)
	lw	a5,-24(s0)
	sw	a5,-56(s0)
	lw	a5,-152(s0)
	sw	a5,-60(s0)
	lw	a5,-156(s0)
	sw	a5,-64(s0)
.LBB6:
.LBB7:
	.file 2 "/home/chandu/sdk/bl602_iot_sdk/components/security/mbedtls-bl602/library/common.h"
	.loc 2 191 12
	sw	zero,-68(s0)
	.loc 2 234 5
	j	.L162
.L163:
	.loc 2 235 17
	lw	a4,-56(s0)
	lw	a5,-68(s0)
	add	a5,a4,a5
	lbu	a3,0(a5)
	.loc 2 235 24
	lw	a4,-60(s0)
	lw	a5,-68(s0)
	add	a5,a4,a5
	lbu	a4,0(a5)
	.loc 2 235 10
	lw	a2,-52(s0)
	lw	a5,-68(s0)
	add	a5,a2,a5
	.loc 2 235 14
	xor	a4,a3,a4
	andi	a4,a4,0xff
	sb	a4,0(a5)
	.loc 2 234 20 discriminator 2
	lw	a5,-68(s0)
	addi	a5,a5,1
	sw	a5,-68(s0)
.L162:
	.loc 2 234 14 discriminator 1
	lw	a4,-64(s0)
	lw	a5,-68(s0)
	bgtu	a4,a5,.L163
	.loc 2 237 1
	nop
	lw	a5,-28(s0)
	sw	a5,-32(s0)
	lw	a5,-28(s0)
	sw	a5,-36(s0)
	lw	a5,-152(s0)
	sw	a5,-40(s0)
	lw	a5,-156(s0)
	sw	a5,-44(s0)
.LBE7:
.LBE6:
.LBB8:
.LBB9:
	.loc 2 191 12
	sw	zero,-48(s0)
	.loc 2 234 5
	j	.L164
.L165:
	.loc 2 235 17
	lw	a4,-36(s0)
	lw	a5,-48(s0)
	add	a5,a4,a5
	lbu	a3,0(a5)
	.loc 2 235 24
	lw	a4,-40(s0)
	lw	a5,-48(s0)
	add	a5,a4,a5
	lbu	a4,0(a5)
	.loc 2 235 10
	lw	a2,-32(s0)
	lw	a5,-48(s0)
	add	a5,a2,a5
	.loc 2 235 14
	xor	a4,a3,a4
	andi	a4,a4,0xff
	sb	a4,0(a5)
	.loc 2 234 20 discriminator 2
	lw	a5,-48(s0)
	addi	a5,a5,1
	sw	a5,-48(s0)
.L164:
	.loc 2 234 14 discriminator 1
	lw	a4,-44(s0)
	lw	a5,-48(s0)
	bgtu	a4,a5,.L165
	.loc 2 237 1
	nop
.LBE9:
.LBE8:
	.loc 1 1003 16
	lw	a0,-148(s0)
	call	mbedtls_md_starts
	sw	a0,-20(s0)
	.loc 1 1003 8 discriminator 1
	lw	a5,-20(s0)
	bne	a5,zero,.L171
	.loc 1 1007 37
	lw	a5,-148(s0)
	lw	a5,0(a5)
	.loc 1 1007 46
	lbu	a5,2(a5)
	.loc 1 1006 16
	mv	a2,a5
	lw	a1,-24(s0)
	lw	a0,-148(s0)
	call	mbedtls_md_update
	sw	a0,-20(s0)
	.loc 1 1011 1
	j	.L159
.L168:
	.loc 1 981 13
	nop
	j	.L159
.L169:
	.loc 1 984 13
	nop
	j	.L159
.L170:
	.loc 1 987 13
	nop
	j	.L159
.L171:
	.loc 1 1004 9
	nop
.L159:
	.loc 1 1012 5
	addi	a5,s0,-132
	li	a1,64
	mv	a0,a5
	call	mbedtls_platform_zeroize
	.loc 1 1014 12
	lw	a5,-20(s0)
.L167:
	.loc 1 1015 1
	mv	a0,a5
	lw	ra,156(sp)
	.cfi_restore 1
	lw	s0,152(sp)
	.cfi_restore 8
	.cfi_def_cfa 2, 160
	addi	sp,sp,160
	.cfi_def_cfa_offset 0
	jr	ra
	.cfi_endproc
.LFE88:
	.size	mbedtls_md_hmac_starts, .-mbedtls_md_hmac_starts
	.section	.text.mbedtls_md_hmac_update,"ax",@progbits
	.align	1
	.globl	mbedtls_md_hmac_update
	.type	mbedtls_md_hmac_update, @function
mbedtls_md_hmac_update:
.LFB89:
	.loc 1 1018 1
	.cfi_startproc
	addi	sp,sp,-32
	.cfi_def_cfa_offset 32
	sw	ra,28(sp)
	sw	s0,24(sp)
	.cfi_offset 1, -4
	.cfi_offset 8, -8
	addi	s0,sp,32
	.cfi_def_cfa 8, 0
	sw	a0,-20(s0)
	sw	a1,-24(s0)
	sw	a2,-28(s0)
	.loc 1 1019 8
	lw	a5,-20(s0)
	beq	a5,zero,.L173
	.loc 1 1019 26 discriminator 1
	lw	a5,-20(s0)
	lw	a5,0(a5)
	.loc 1 1019 20 discriminator 1
	beq	a5,zero,.L173
	.loc 1 1019 50 discriminator 2
	lw	a5,-20(s0)
	lw	a5,8(a5)
	.loc 1 1019 44 discriminator 2
	bne	a5,zero,.L174
.L173:
	.loc 1 1020 16
	li	a5,-20480
	addi	a5,a5,-256
	j	.L175
.L174:
	.loc 1 1023 12
	lw	a2,-28(s0)
	lw	a1,-24(s0)
	lw	a0,-20(s0)
	call	mbedtls_md_update
	mv	a5,a0
.L175:
	.loc 1 1024 1
	mv	a0,a5
	lw	ra,28(sp)
	.cfi_restore 1
	lw	s0,24(sp)
	.cfi_restore 8
	.cfi_def_cfa 2, 32
	addi	sp,sp,32
	.cfi_def_cfa_offset 0
	jr	ra
	.cfi_endproc
.LFE89:
	.size	mbedtls_md_hmac_update, .-mbedtls_md_hmac_update
	.section	.text.mbedtls_md_hmac_finish,"ax",@progbits
	.align	1
	.globl	mbedtls_md_hmac_finish
	.type	mbedtls_md_hmac_finish, @function
mbedtls_md_hmac_finish:
.LFB90:
	.loc 1 1027 1
	.cfi_startproc
	addi	sp,sp,-112
	.cfi_def_cfa_offset 112
	sw	ra,108(sp)
	sw	s0,104(sp)
	.cfi_offset 1, -4
	.cfi_offset 8, -8
	addi	s0,sp,112
	.cfi_def_cfa 8, 0
	sw	a0,-100(s0)
	sw	a1,-104(s0)
	.loc 1 1028 9
	li	a5,-110
	sw	a5,-20(s0)
	.loc 1 1032 8
	lw	a5,-100(s0)
	beq	a5,zero,.L177
	.loc 1 1032 26 discriminator 1
	lw	a5,-100(s0)
	lw	a5,0(a5)
	.loc 1 1032 20 discriminator 1
	beq	a5,zero,.L177
	.loc 1 1032 50 discriminator 2
	lw	a5,-100(s0)
	lw	a5,8(a5)
	.loc 1 1032 44 discriminator 2
	bne	a5,zero,.L178
.L177:
	.loc 1 1033 16
	li	a5,-20480
	addi	a5,a5,-256
	j	.L184
.L178:
	.loc 1 1036 33
	lw	a5,-100(s0)
	lw	a5,8(a5)
	.loc 1 1036 49
	lw	a4,-100(s0)
	lw	a4,0(a4)
	.loc 1 1036 58
	lbu	a4,2(a4)
	.loc 1 1036 10
	add	a5,a5,a4
	sw	a5,-24(s0)
	.loc 1 1038 16
	addi	a5,s0,-88
	mv	a1,a5
	lw	a0,-100(s0)
	call	mbedtls_md_finish
	sw	a0,-20(s0)
	.loc 1 1038 8 discriminator 1
	lw	a5,-20(s0)
	beq	a5,zero,.L180
	.loc 1 1039 16
	lw	a5,-20(s0)
	j	.L184
.L180:
	.loc 1 1041 16
	lw	a0,-100(s0)
	call	mbedtls_md_starts
	sw	a0,-20(s0)
	.loc 1 1041 8 discriminator 1
	lw	a5,-20(s0)
	beq	a5,zero,.L181
	.loc 1 1042 16
	lw	a5,-20(s0)
	j	.L184
.L181:
	.loc 1 1045 37
	lw	a5,-100(s0)
	lw	a5,0(a5)
	.loc 1 1045 46
	lbu	a5,2(a5)
	.loc 1 1044 16
	mv	a2,a5
	lw	a1,-24(s0)
	lw	a0,-100(s0)
	call	mbedtls_md_update
	sw	a0,-20(s0)
	.loc 1 1044 8 discriminator 1
	lw	a5,-20(s0)
	beq	a5,zero,.L182
	.loc 1 1046 16
	lw	a5,-20(s0)
	j	.L184
.L182:
	.loc 1 1049 37
	lw	a5,-100(s0)
	lw	a5,0(a5)
	.loc 1 1049 46
	lbu	a5,1(a5)
	.loc 1 1048 16
	mv	a4,a5
	addi	a5,s0,-88
	mv	a2,a4
	mv	a1,a5
	lw	a0,-100(s0)
	call	mbedtls_md_update
	sw	a0,-20(s0)
	.loc 1 1048 8 discriminator 1
	lw	a5,-20(s0)
	beq	a5,zero,.L183
	.loc 1 1050 16
	lw	a5,-20(s0)
	j	.L184
.L183:
	.loc 1 1052 12
	lw	a1,-104(s0)
	lw	a0,-100(s0)
	call	mbedtls_md_finish
	mv	a5,a0
.L184:
	.loc 1 1053 1
	mv	a0,a5
	lw	ra,108(sp)
	.cfi_restore 1
	lw	s0,104(sp)
	.cfi_restore 8
	.cfi_def_cfa 2, 112
	addi	sp,sp,112
	.cfi_def_cfa_offset 0
	jr	ra
	.cfi_endproc
.LFE90:
	.size	mbedtls_md_hmac_finish, .-mbedtls_md_hmac_finish
	.section	.text.mbedtls_md_hmac_reset,"ax",@progbits
	.align	1
	.globl	mbedtls_md_hmac_reset
	.type	mbedtls_md_hmac_reset, @function
mbedtls_md_hmac_reset:
.LFB91:
	.loc 1 1056 1
	.cfi_startproc
	addi	sp,sp,-48
	.cfi_def_cfa_offset 48
	sw	ra,44(sp)
	sw	s0,40(sp)
	.cfi_offset 1, -4
	.cfi_offset 8, -8
	addi	s0,sp,48
	.cfi_def_cfa 8, 0
	sw	a0,-36(s0)
	.loc 1 1057 9
	li	a5,-110
	sw	a5,-20(s0)
	.loc 1 1060 8
	lw	a5,-36(s0)
	beq	a5,zero,.L186
	.loc 1 1060 26 discriminator 1
	lw	a5,-36(s0)
	lw	a5,0(a5)
	.loc 1 1060 20 discriminator 1
	beq	a5,zero,.L186
	.loc 1 1060 50 discriminator 2
	lw	a5,-36(s0)
	lw	a5,8(a5)
	.loc 1 1060 44 discriminator 2
	bne	a5,zero,.L187
.L186:
	.loc 1 1061 16
	li	a5,-20480
	addi	a5,a5,-256
	j	.L188
.L187:
	.loc 1 1064 10
	lw	a5,-36(s0)
	lw	a5,8(a5)
	sw	a5,-24(s0)
	.loc 1 1066 16
	lw	a0,-36(s0)
	call	mbedtls_md_starts
	sw	a0,-20(s0)
	.loc 1 1066 8 discriminator 1
	lw	a5,-20(s0)
	beq	a5,zero,.L189
	.loc 1 1067 16
	lw	a5,-20(s0)
	j	.L188
.L189:
	.loc 1 1069 44
	lw	a5,-36(s0)
	lw	a5,0(a5)
	.loc 1 1069 53
	lbu	a5,2(a5)
	.loc 1 1069 12
	mv	a2,a5
	lw	a1,-24(s0)
	lw	a0,-36(s0)
	call	mbedtls_md_update
	mv	a5,a0
.L188:
	.loc 1 1070 1
	mv	a0,a5
	lw	ra,44(sp)
	.cfi_restore 1
	lw	s0,40(sp)
	.cfi_restore 8
	.cfi_def_cfa 2, 48
	addi	sp,sp,48
	.cfi_def_cfa_offset 0
	jr	ra
	.cfi_endproc
.LFE91:
	.size	mbedtls_md_hmac_reset, .-mbedtls_md_hmac_reset
	.section	.text.mbedtls_md_hmac,"ax",@progbits
	.align	1
	.globl	mbedtls_md_hmac
	.type	mbedtls_md_hmac, @function
mbedtls_md_hmac:
.LFB92:
	.loc 1 1076 1
	.cfi_startproc
	addi	sp,sp,-64
	.cfi_def_cfa_offset 64
	sw	ra,60(sp)
	sw	s0,56(sp)
	.cfi_offset 1, -4
	.cfi_offset 8, -8
	addi	s0,sp,64
	.cfi_def_cfa 8, 0
	sw	a0,-36(s0)
	sw	a1,-40(s0)
	sw	a2,-44(s0)
	sw	a3,-48(s0)
	sw	a4,-52(s0)
	sw	a5,-56(s0)
	.loc 1 1078 9
	li	a5,-110
	sw	a5,-20(s0)
	.loc 1 1080 8
	lw	a5,-36(s0)
	bne	a5,zero,.L191
	.loc 1 1081 16
	li	a5,-20480
	addi	a5,a5,-256
	j	.L197
.L191:
	.loc 1 1084 5
	addi	a5,s0,-32
	mv	a0,a5
	call	mbedtls_md_init
	.loc 1 1086 16
	addi	a5,s0,-32
	li	a2,1
	lw	a1,-36(s0)
	mv	a0,a5
	call	mbedtls_md_setup
	sw	a0,-20(s0)
	.loc 1 1086 8 discriminator 1
	lw	a5,-20(s0)
	bne	a5,zero,.L198
	.loc 1 1090 16
	addi	a5,s0,-32
	lw	a2,-44(s0)
	lw	a1,-40(s0)
	mv	a0,a5
	call	mbedtls_md_hmac_starts
	sw	a0,-20(s0)
	.loc 1 1090 8 discriminator 1
	lw	a5,-20(s0)
	bne	a5,zero,.L199
	.loc 1 1093 16
	addi	a5,s0,-32
	lw	a2,-52(s0)
	lw	a1,-48(s0)
	mv	a0,a5
	call	mbedtls_md_hmac_update
	sw	a0,-20(s0)
	.loc 1 1093 8 discriminator 1
	lw	a5,-20(s0)
	bne	a5,zero,.L200
	.loc 1 1096 16
	addi	a5,s0,-32
	lw	a1,-56(s0)
	mv	a0,a5
	call	mbedtls_md_hmac_finish
	sw	a0,-20(s0)
	.loc 1 1100 1
	j	.L194
.L198:
	.loc 1 1087 9
	nop
	j	.L194
.L199:
	.loc 1 1091 9
	nop
	j	.L194
.L200:
	.loc 1 1094 9
	nop
.L194:
	.loc 1 1101 5
	addi	a5,s0,-32
	mv	a0,a5
	call	mbedtls_md_free
	.loc 1 1103 12
	lw	a5,-20(s0)
.L197:
	.loc 1 1104 1
	mv	a0,a5
	lw	ra,60(sp)
	.cfi_restore 1
	lw	s0,56(sp)
	.cfi_restore 8
	.cfi_def_cfa 2, 64
	addi	sp,sp,64
	.cfi_def_cfa_offset 0
	jr	ra
	.cfi_endproc
.LFE92:
	.size	mbedtls_md_hmac, .-mbedtls_md_hmac
	.text
.Letext0:
	.file 3 "/home/chandu/sdk/bl602_iot_sdk/toolchain/compiler/lib/gcc/riscv32-unknown-elf/15.1.0/include/stddef.h"
	.file 4 "/home/chandu/sdk/bl602_iot_sdk/toolchain/compiler/lib/gcc/riscv32-unknown-elf/15.1.0/include/stdint-gcc.h"
	.file 5 "/home/chandu/sdk/bl602_iot_sdk/components/security/mbedtls-bl602/include/mbedtls/md.h"
	.file 6 "/home/chandu/sdk/bl602_iot_sdk/components/security/mbedtls-bl602/library/md_wrap.h"
	.file 7 "/home/chandu/sdk/bl602_iot_sdk/components/security/mbedtls-bl602/include/mbedtls/md5.h"
	.file 8 "/home/chandu/sdk/bl602_iot_sdk/components/security/mbedtls-bl602/include/mbedtls/ripemd160.h"
	.file 9 "/home/chandu/sdk/bl602_iot_sdk/components/security/mbedtls-bl602/include/mbedtls/sha1.h"
	.file 10 "/home/chandu/sdk/bl602_iot_sdk/components/security/mbedtls-bl602/include/mbedtls/sha256.h"
	.file 11 "/home/chandu/sdk/bl602_iot_sdk/components/security/mbedtls-bl602/include/mbedtls/sha512.h"
	.file 12 "/home/chandu/sdk/bl602_iot_sdk/components/security/mbedtls-bl602/include/mbedtls/sha3.h"
	.file 13 "/home/chandu/sdk/bl602_iot_sdk/components/security/mbedtls-bl602/include/psa/crypto_types.h"
	.file 14 "/home/chandu/sdk/bl602_iot_sdk/components/security/mbedtls-bl602/library/psa_util_internal.h"
	.file 15 "/home/chandu/sdk/bl602_iot_sdk/toolchain/compiler/riscv32-unknown-elf/include/string.h"
	.file 16 "/home/chandu/sdk/bl602_iot_sdk/toolchain/compiler/riscv32-unknown-elf/include/stdlib.h"
	.file 17 "/home/chandu/sdk/bl602_iot_sdk/components/security/mbedtls-bl602/include/mbedtls/platform_util.h"
	.section	.note.GNU-stack,"",@progbits
