	.file	"md5.c"
	.option nopic
	.attribute arch, "rv32i2p1_m2p0_f2p2_c2p0_zicsr2p0_zmmul1p0_zca1p0_zcf1p0"
	.attribute unaligned_access, 0
	.attribute stack_align, 16
	.text
.Ltext0:
	.cfi_sections	.debug_frame
	.file 0 "/home/chandu/sdk/bl602_iot_sdk/customer_app/suas_app_pqkem_gateway/build_out/mbedtls-bl602" "/home/chandu/sdk/bl602_iot_sdk/components/security/mbedtls-bl602/library/md5.c"
	.section	.text.mbedtls_md5_init,"ax",@progbits
	.align	1
	.globl	mbedtls_md5_init
	.type	mbedtls_md5_init, @function
mbedtls_md5_init:
.LFB15:
	.file 1 "/home/chandu/sdk/bl602_iot_sdk/components/security/mbedtls-bl602/library/md5.c"
	.loc 1 28 1
	.cfi_startproc
	addi	sp,sp,-32
	.cfi_def_cfa_offset 32
	sw	ra,28(sp)
	sw	s0,24(sp)
	.cfi_offset 1, -4
	.cfi_offset 8, -8
	addi	s0,sp,32
	.cfi_def_cfa 8, 0
	sw	a0,-20(s0)
	.loc 1 29 5
	li	a2,88
	li	a1,0
	lw	a0,-20(s0)
	call	memset
	.loc 1 30 1
	nop
	lw	ra,28(sp)
	.cfi_restore 1
	lw	s0,24(sp)
	.cfi_restore 8
	.cfi_def_cfa 2, 32
	addi	sp,sp,32
	.cfi_def_cfa_offset 0
	jr	ra
	.cfi_endproc
.LFE15:
	.size	mbedtls_md5_init, .-mbedtls_md5_init
	.section	.text.mbedtls_md5_free,"ax",@progbits
	.align	1
	.globl	mbedtls_md5_free
	.type	mbedtls_md5_free, @function
mbedtls_md5_free:
.LFB16:
	.loc 1 33 1
	.cfi_startproc
	addi	sp,sp,-32
	.cfi_def_cfa_offset 32
	sw	ra,28(sp)
	sw	s0,24(sp)
	.cfi_offset 1, -4
	.cfi_offset 8, -8
	addi	s0,sp,32
	.cfi_def_cfa 8, 0
	sw	a0,-20(s0)
	.loc 1 34 8
	lw	a5,-20(s0)
	beq	a5,zero,.L5
	.loc 1 38 5
	li	a1,88
	lw	a0,-20(s0)
	call	mbedtls_platform_zeroize
	j	.L2
.L5:
	.loc 1 35 9
	nop
.L2:
	.loc 1 39 1
	lw	ra,28(sp)
	.cfi_restore 1
	lw	s0,24(sp)
	.cfi_restore 8
	.cfi_def_cfa 2, 32
	addi	sp,sp,32
	.cfi_def_cfa_offset 0
	jr	ra
	.cfi_endproc
.LFE16:
	.size	mbedtls_md5_free, .-mbedtls_md5_free
	.section	.text.mbedtls_md5_clone,"ax",@progbits
	.align	1
	.globl	mbedtls_md5_clone
	.type	mbedtls_md5_clone, @function
mbedtls_md5_clone:
.LFB17:
	.loc 1 43 1
	.cfi_startproc
	addi	sp,sp,-32
	.cfi_def_cfa_offset 32
	sw	ra,28(sp)
	sw	s0,24(sp)
	.cfi_offset 1, -4
	.cfi_offset 8, -8
	addi	s0,sp,32
	.cfi_def_cfa 8, 0
	sw	a0,-20(s0)
	sw	a1,-24(s0)
	.loc 1 44 10
	lw	a4,-20(s0)
	lw	a5,-24(s0)
	mv	a3,a5
	li	a5,88
	mv	a2,a5
	mv	a1,a3
	mv	a0,a4
	call	memcpy
	.loc 1 45 1
	nop
	lw	ra,28(sp)
	.cfi_restore 1
	lw	s0,24(sp)
	.cfi_restore 8
	.cfi_def_cfa 2, 32
	addi	sp,sp,32
	.cfi_def_cfa_offset 0
	jr	ra
	.cfi_endproc
.LFE17:
	.size	mbedtls_md5_clone, .-mbedtls_md5_clone
	.section	.text.mbedtls_md5_starts,"ax",@progbits
	.align	1
	.globl	mbedtls_md5_starts
	.type	mbedtls_md5_starts, @function
mbedtls_md5_starts:
.LFB18:
	.loc 1 51 1
	.cfi_startproc
	addi	sp,sp,-32
	.cfi_def_cfa_offset 32
	sw	ra,28(sp)
	sw	s0,24(sp)
	.cfi_offset 1, -4
	.cfi_offset 8, -8
	addi	s0,sp,32
	.cfi_def_cfa 8, 0
	sw	a0,-20(s0)
	.loc 1 52 19
	lw	a5,-20(s0)
	sw	zero,0(a5)
	.loc 1 53 19
	lw	a5,-20(s0)
	sw	zero,4(a5)
	.loc 1 55 19
	lw	a5,-20(s0)
	li	a4,1732583424
	addi	a4,a4,769
	sw	a4,8(a5)
	.loc 1 56 19
	lw	a5,-20(s0)
	li	a4,-271732736
	addi	a4,a4,-1143
	sw	a4,12(a5)
	.loc 1 57 19
	lw	a5,-20(s0)
	li	a4,-1732583424
	addi	a4,a4,-770
	sw	a4,16(a5)
	.loc 1 58 19
	lw	a5,-20(s0)
	li	a4,271732736
	addi	a4,a4,1142
	sw	a4,20(a5)
	.loc 1 60 12
	li	a5,0
	.loc 1 61 1
	mv	a0,a5
	lw	ra,28(sp)
	.cfi_restore 1
	lw	s0,24(sp)
	.cfi_restore 8
	.cfi_def_cfa 2, 32
	addi	sp,sp,32
	.cfi_def_cfa_offset 0
	jr	ra
	.cfi_endproc
.LFE18:
	.size	mbedtls_md5_starts, .-mbedtls_md5_starts
	.section	.text.mbedtls_internal_md5_process,"ax",@progbits
	.align	1
	.globl	mbedtls_internal_md5_process
	.type	mbedtls_internal_md5_process, @function
mbedtls_internal_md5_process:
.LFB19:
	.loc 1 66 1
	.cfi_startproc
	addi	sp,sp,-304
	.cfi_def_cfa_offset 304
	sw	ra,300(sp)
	sw	s0,296(sp)
	.cfi_offset 1, -4
	.cfi_offset 8, -8
	addi	s0,sp,304
	.cfi_def_cfa 8, 0
	sw	a0,-292(s0)
	sw	a1,-296(s0)
	lw	a5,-296(s0)
	sw	a5,-200(s0)
.LBB46:
.LBB47:
	.file 2 "/home/chandu/sdk/bl602_iot_sdk/components/security/mbedtls-bl602/library/alignment.h"
	.loc 2 174 33
	lw	a5,-200(s0)
	sw	a5,-204(s0)
	.loc 2 175 7
	lw	a5,-204(s0)
	lbu	a4,0(a5)
	lbu	a3,1(a5)
	slli	a3,a3,8
	or	a4,a3,a4
	lbu	a3,2(a5)
	slli	a3,a3,16
	or	a4,a3,a4
	lbu	a5,3(a5)
	slli	a5,a5,24
	or	a5,a5,a4
	sw	a5,-208(s0)
	.loc 2 179 12
	lw	a5,-208(s0)
.LBE47:
.LBE46:
	.loc 1 71 16 discriminator 1
	sw	a5,-288(s0)
	.loc 1 72 125
	lw	a5,-296(s0)
	addi	a5,a5,4
	sw	a5,-188(s0)
.LBB48:
.LBB49:
	.loc 2 174 33
	lw	a5,-188(s0)
	sw	a5,-192(s0)
	.loc 2 175 7
	lw	a5,-192(s0)
	lbu	a4,0(a5)
	lbu	a3,1(a5)
	slli	a3,a3,8
	or	a4,a3,a4
	lbu	a3,2(a5)
	slli	a3,a3,16
	or	a4,a3,a4
	lbu	a5,3(a5)
	slli	a5,a5,24
	or	a5,a5,a4
	sw	a5,-196(s0)
	.loc 2 179 12
	lw	a5,-196(s0)
.LBE49:
.LBE48:
	.loc 1 72 16 discriminator 1
	sw	a5,-284(s0)
	.loc 1 73 125
	lw	a5,-296(s0)
	addi	a5,a5,8
	sw	a5,-176(s0)
.LBB50:
.LBB51:
	.loc 2 174 33
	lw	a5,-176(s0)
	sw	a5,-180(s0)
	.loc 2 175 7
	lw	a5,-180(s0)
	lbu	a4,0(a5)
	lbu	a3,1(a5)
	slli	a3,a3,8
	or	a4,a3,a4
	lbu	a3,2(a5)
	slli	a3,a3,16
	or	a4,a3,a4
	lbu	a5,3(a5)
	slli	a5,a5,24
	or	a5,a5,a4
	sw	a5,-184(s0)
	.loc 2 179 12
	lw	a5,-184(s0)
.LBE51:
.LBE50:
	.loc 1 73 16 discriminator 1
	sw	a5,-280(s0)
	.loc 1 74 126
	lw	a5,-296(s0)
	addi	a5,a5,12
	sw	a5,-164(s0)
.LBB52:
.LBB53:
	.loc 2 174 33
	lw	a5,-164(s0)
	sw	a5,-168(s0)
	.loc 2 175 7
	lw	a5,-168(s0)
	lbu	a4,0(a5)
	lbu	a3,1(a5)
	slli	a3,a3,8
	or	a4,a3,a4
	lbu	a3,2(a5)
	slli	a3,a3,16
	or	a4,a3,a4
	lbu	a5,3(a5)
	slli	a5,a5,24
	or	a5,a5,a4
	sw	a5,-172(s0)
	.loc 2 179 12
	lw	a5,-172(s0)
.LBE53:
.LBE52:
	.loc 1 74 16 discriminator 1
	sw	a5,-276(s0)
	.loc 1 75 126
	lw	a5,-296(s0)
	addi	a5,a5,16
	sw	a5,-152(s0)
.LBB54:
.LBB55:
	.loc 2 174 33
	lw	a5,-152(s0)
	sw	a5,-156(s0)
	.loc 2 175 7
	lw	a5,-156(s0)
	lbu	a4,0(a5)
	lbu	a3,1(a5)
	slli	a3,a3,8
	or	a4,a3,a4
	lbu	a3,2(a5)
	slli	a3,a3,16
	or	a4,a3,a4
	lbu	a5,3(a5)
	slli	a5,a5,24
	or	a5,a5,a4
	sw	a5,-160(s0)
	.loc 2 179 12
	lw	a5,-160(s0)
.LBE55:
.LBE54:
	.loc 1 75 16 discriminator 1
	sw	a5,-272(s0)
	.loc 1 76 126
	lw	a5,-296(s0)
	addi	a5,a5,20
	sw	a5,-140(s0)
.LBB56:
.LBB57:
	.loc 2 174 33
	lw	a5,-140(s0)
	sw	a5,-144(s0)
	.loc 2 175 7
	lw	a5,-144(s0)
	lbu	a4,0(a5)
	lbu	a3,1(a5)
	slli	a3,a3,8
	or	a4,a3,a4
	lbu	a3,2(a5)
	slli	a3,a3,16
	or	a4,a3,a4
	lbu	a5,3(a5)
	slli	a5,a5,24
	or	a5,a5,a4
	sw	a5,-148(s0)
	.loc 2 179 12
	lw	a5,-148(s0)
.LBE57:
.LBE56:
	.loc 1 76 16 discriminator 1
	sw	a5,-268(s0)
	.loc 1 77 126
	lw	a5,-296(s0)
	addi	a5,a5,24
	sw	a5,-128(s0)
.LBB58:
.LBB59:
	.loc 2 174 33
	lw	a5,-128(s0)
	sw	a5,-132(s0)
	.loc 2 175 7
	lw	a5,-132(s0)
	lbu	a4,0(a5)
	lbu	a3,1(a5)
	slli	a3,a3,8
	or	a4,a3,a4
	lbu	a3,2(a5)
	slli	a3,a3,16
	or	a4,a3,a4
	lbu	a5,3(a5)
	slli	a5,a5,24
	or	a5,a5,a4
	sw	a5,-136(s0)
	.loc 2 179 12
	lw	a5,-136(s0)
.LBE59:
.LBE58:
	.loc 1 77 16 discriminator 1
	sw	a5,-264(s0)
	.loc 1 78 126
	lw	a5,-296(s0)
	addi	a5,a5,28
	sw	a5,-116(s0)
.LBB60:
.LBB61:
	.loc 2 174 33
	lw	a5,-116(s0)
	sw	a5,-120(s0)
	.loc 2 175 7
	lw	a5,-120(s0)
	lbu	a4,0(a5)
	lbu	a3,1(a5)
	slli	a3,a3,8
	or	a4,a3,a4
	lbu	a3,2(a5)
	slli	a3,a3,16
	or	a4,a3,a4
	lbu	a5,3(a5)
	slli	a5,a5,24
	or	a5,a5,a4
	sw	a5,-124(s0)
	.loc 2 179 12
	lw	a5,-124(s0)
.LBE61:
.LBE60:
	.loc 1 78 16 discriminator 1
	sw	a5,-260(s0)
	.loc 1 79 126
	lw	a5,-296(s0)
	addi	a5,a5,32
	sw	a5,-104(s0)
.LBB62:
.LBB63:
	.loc 2 174 33
	lw	a5,-104(s0)
	sw	a5,-108(s0)
	.loc 2 175 7
	lw	a5,-108(s0)
	lbu	a4,0(a5)
	lbu	a3,1(a5)
	slli	a3,a3,8
	or	a4,a3,a4
	lbu	a3,2(a5)
	slli	a3,a3,16
	or	a4,a3,a4
	lbu	a5,3(a5)
	slli	a5,a5,24
	or	a5,a5,a4
	sw	a5,-112(s0)
	.loc 2 179 12
	lw	a5,-112(s0)
.LBE63:
.LBE62:
	.loc 1 79 16 discriminator 1
	sw	a5,-256(s0)
	.loc 1 80 126
	lw	a5,-296(s0)
	addi	a5,a5,36
	sw	a5,-92(s0)
.LBB64:
.LBB65:
	.loc 2 174 33
	lw	a5,-92(s0)
	sw	a5,-96(s0)
	.loc 2 175 7
	lw	a5,-96(s0)
	lbu	a4,0(a5)
	lbu	a3,1(a5)
	slli	a3,a3,8
	or	a4,a3,a4
	lbu	a3,2(a5)
	slli	a3,a3,16
	or	a4,a3,a4
	lbu	a5,3(a5)
	slli	a5,a5,24
	or	a5,a5,a4
	sw	a5,-100(s0)
	.loc 2 179 12
	lw	a5,-100(s0)
.LBE65:
.LBE64:
	.loc 1 80 16 discriminator 1
	sw	a5,-252(s0)
	.loc 1 81 127
	lw	a5,-296(s0)
	addi	a5,a5,40
	sw	a5,-80(s0)
.LBB66:
.LBB67:
	.loc 2 174 33
	lw	a5,-80(s0)
	sw	a5,-84(s0)
	.loc 2 175 7
	lw	a5,-84(s0)
	lbu	a4,0(a5)
	lbu	a3,1(a5)
	slli	a3,a3,8
	or	a4,a3,a4
	lbu	a3,2(a5)
	slli	a3,a3,16
	or	a4,a3,a4
	lbu	a5,3(a5)
	slli	a5,a5,24
	or	a5,a5,a4
	sw	a5,-88(s0)
	.loc 2 179 12
	lw	a5,-88(s0)
.LBE67:
.LBE66:
	.loc 1 81 17 discriminator 1
	sw	a5,-248(s0)
	.loc 1 82 127
	lw	a5,-296(s0)
	addi	a5,a5,44
	sw	a5,-68(s0)
.LBB68:
.LBB69:
	.loc 2 174 33
	lw	a5,-68(s0)
	sw	a5,-72(s0)
	.loc 2 175 7
	lw	a5,-72(s0)
	lbu	a4,0(a5)
	lbu	a3,1(a5)
	slli	a3,a3,8
	or	a4,a3,a4
	lbu	a3,2(a5)
	slli	a3,a3,16
	or	a4,a3,a4
	lbu	a5,3(a5)
	slli	a5,a5,24
	or	a5,a5,a4
	sw	a5,-76(s0)
	.loc 2 179 12
	lw	a5,-76(s0)
.LBE69:
.LBE68:
	.loc 1 82 17 discriminator 1
	sw	a5,-244(s0)
	.loc 1 83 127
	lw	a5,-296(s0)
	addi	a5,a5,48
	sw	a5,-56(s0)
.LBB70:
.LBB71:
	.loc 2 174 33
	lw	a5,-56(s0)
	sw	a5,-60(s0)
	.loc 2 175 7
	lw	a5,-60(s0)
	lbu	a4,0(a5)
	lbu	a3,1(a5)
	slli	a3,a3,8
	or	a4,a3,a4
	lbu	a3,2(a5)
	slli	a3,a3,16
	or	a4,a3,a4
	lbu	a5,3(a5)
	slli	a5,a5,24
	or	a5,a5,a4
	sw	a5,-64(s0)
	.loc 2 179 12
	lw	a5,-64(s0)
.LBE71:
.LBE70:
	.loc 1 83 17 discriminator 1
	sw	a5,-240(s0)
	.loc 1 84 127
	lw	a5,-296(s0)
	addi	a5,a5,52
	sw	a5,-44(s0)
.LBB72:
.LBB73:
	.loc 2 174 33
	lw	a5,-44(s0)
	sw	a5,-48(s0)
	.loc 2 175 7
	lw	a5,-48(s0)
	lbu	a4,0(a5)
	lbu	a3,1(a5)
	slli	a3,a3,8
	or	a4,a3,a4
	lbu	a3,2(a5)
	slli	a3,a3,16
	or	a4,a3,a4
	lbu	a5,3(a5)
	slli	a5,a5,24
	or	a5,a5,a4
	sw	a5,-52(s0)
	.loc 2 179 12
	lw	a5,-52(s0)
.LBE73:
.LBE72:
	.loc 1 84 17 discriminator 1
	sw	a5,-236(s0)
	.loc 1 85 127
	lw	a5,-296(s0)
	addi	a5,a5,56
	sw	a5,-32(s0)
.LBB74:
.LBB75:
	.loc 2 174 33
	lw	a5,-32(s0)
	sw	a5,-36(s0)
	.loc 2 175 7
	lw	a5,-36(s0)
	lbu	a4,0(a5)
	lbu	a3,1(a5)
	slli	a3,a3,8
	or	a4,a3,a4
	lbu	a3,2(a5)
	slli	a3,a3,16
	or	a4,a3,a4
	lbu	a5,3(a5)
	slli	a5,a5,24
	or	a5,a5,a4
	sw	a5,-40(s0)
	.loc 2 179 12
	lw	a5,-40(s0)
.LBE75:
.LBE74:
	.loc 1 85 17 discriminator 1
	sw	a5,-232(s0)
	.loc 1 86 127
	lw	a5,-296(s0)
	addi	a5,a5,60
	sw	a5,-20(s0)
.LBB76:
.LBB77:
	.loc 2 174 33
	lw	a5,-20(s0)
	sw	a5,-24(s0)
	.loc 2 175 7
	lw	a5,-24(s0)
	lbu	a4,0(a5)
	lbu	a3,1(a5)
	slli	a3,a3,8
	or	a4,a3,a4
	lbu	a3,2(a5)
	slli	a3,a3,16
	or	a4,a3,a4
	lbu	a5,3(a5)
	slli	a5,a5,24
	or	a5,a5,a4
	sw	a5,-28(s0)
	.loc 2 179 12
	lw	a5,-28(s0)
.LBE77:
.LBE76:
	.loc 1 86 17 discriminator 1
	sw	a5,-228(s0)
	.loc 1 98 25
	lw	a5,-292(s0)
	lw	a5,8(a5)
	.loc 1 98 13
	sw	a5,-224(s0)
	.loc 1 99 25
	lw	a5,-292(s0)
	lw	a5,12(a5)
	.loc 1 99 13
	sw	a5,-220(s0)
	.loc 1 100 25
	lw	a5,-292(s0)
	lw	a5,16(a5)
	.loc 1 100 13
	sw	a5,-216(s0)
	.loc 1 101 25
	lw	a5,-292(s0)
	lw	a5,20(a5)
	.loc 1 101 13
	sw	a5,-212(s0)
	.loc 1 105 16
	lw	a4,-224(s0)
	.loc 1 105 31
	lw	a3,-212(s0)
	.loc 1 105 46
	lw	a2,-220(s0)
	.loc 1 105 61
	lw	a1,-216(s0)
	.loc 1 105 75
	lw	a5,-212(s0)
	.loc 1 105 66
	xor	a5,a1,a5
	.loc 1 105 51
	and	a5,a2,a5
	.loc 1 105 36
	xor	a3,a3,a5
	.loc 1 105 92
	lw	a5,-288(s0)
	.loc 1 105 83
	add	a5,a3,a5
	.loc 1 105 20
	add	a4,a4,a5
	li	a5,-680878080
	addi	a5,a5,1144
	add	a5,a4,a5
	sw	a5,-224(s0)
	.loc 1 105 135
	lw	a5,-224(s0)
	.loc 1 105 150
	srli	a4,a5,25
	slli	a5,a5,7
	add	a5,a5,a4
	.loc 1 105 206
	lw	a4,-220(s0)
	.loc 1 105 198
	add	a5,a5,a4
	.loc 1 105 124
	sw	a5,-224(s0)
	.loc 1 106 16
	lw	a4,-212(s0)
	.loc 1 106 31
	lw	a3,-216(s0)
	.loc 1 106 46
	lw	a2,-224(s0)
	.loc 1 106 61
	lw	a1,-220(s0)
	.loc 1 106 75
	lw	a5,-216(s0)
	.loc 1 106 66
	xor	a5,a1,a5
	.loc 1 106 51
	and	a5,a2,a5
	.loc 1 106 36
	xor	a3,a3,a5
	.loc 1 106 92
	lw	a5,-284(s0)
	.loc 1 106 83
	add	a5,a3,a5
	.loc 1 106 20
	add	a4,a4,a5
	li	a5,-389566464
	addi	a5,a5,1878
	add	a5,a4,a5
	sw	a5,-212(s0)
	.loc 1 106 135
	lw	a5,-212(s0)
	.loc 1 106 151
	srli	a4,a5,20
	slli	a5,a5,12
	add	a5,a5,a4
	.loc 1 106 208
	lw	a4,-224(s0)
	.loc 1 106 200
	add	a5,a5,a4
	.loc 1 106 124
	sw	a5,-212(s0)
	.loc 1 107 16
	lw	a4,-216(s0)
	.loc 1 107 31
	lw	a3,-220(s0)
	.loc 1 107 46
	lw	a2,-212(s0)
	.loc 1 107 61
	lw	a1,-224(s0)
	.loc 1 107 75
	lw	a5,-220(s0)
	.loc 1 107 66
	xor	a5,a1,a5
	.loc 1 107 51
	and	a5,a2,a5
	.loc 1 107 36
	xor	a3,a3,a5
	.loc 1 107 92
	lw	a5,-280(s0)
	.loc 1 107 83
	add	a5,a3,a5
	.loc 1 107 20
	add	a4,a4,a5
	li	a5,606105600
	addi	a5,a5,219
	add	a5,a4,a5
	sw	a5,-216(s0)
	.loc 1 107 135
	lw	a5,-216(s0)
	.loc 1 107 151
	srli	a4,a5,15
	slli	a5,a5,17
	add	a5,a5,a4
	.loc 1 107 208
	lw	a4,-212(s0)
	.loc 1 107 200
	add	a5,a5,a4
	.loc 1 107 124
	sw	a5,-216(s0)
	.loc 1 108 16
	lw	a4,-220(s0)
	.loc 1 108 31
	lw	a3,-224(s0)
	.loc 1 108 46
	lw	a2,-216(s0)
	.loc 1 108 61
	lw	a1,-212(s0)
	.loc 1 108 75
	lw	a5,-224(s0)
	.loc 1 108 66
	xor	a5,a1,a5
	.loc 1 108 51
	and	a5,a2,a5
	.loc 1 108 36
	xor	a3,a3,a5
	.loc 1 108 92
	lw	a5,-276(s0)
	.loc 1 108 83
	add	a5,a3,a5
	.loc 1 108 20
	add	a4,a4,a5
	li	a5,-1044525056
	addi	a5,a5,-274
	add	a5,a4,a5
	sw	a5,-220(s0)
	.loc 1 108 135
	lw	a5,-220(s0)
	.loc 1 108 151
	srli	a4,a5,10
	slli	a5,a5,22
	add	a5,a5,a4
	.loc 1 108 208
	lw	a4,-216(s0)
	.loc 1 108 200
	add	a5,a5,a4
	.loc 1 108 124
	sw	a5,-220(s0)
	.loc 1 109 16
	lw	a4,-224(s0)
	.loc 1 109 31
	lw	a3,-212(s0)
	.loc 1 109 46
	lw	a2,-220(s0)
	.loc 1 109 61
	lw	a1,-216(s0)
	.loc 1 109 75
	lw	a5,-212(s0)
	.loc 1 109 66
	xor	a5,a1,a5
	.loc 1 109 51
	and	a5,a2,a5
	.loc 1 109 36
	xor	a3,a3,a5
	.loc 1 109 92
	lw	a5,-272(s0)
	.loc 1 109 83
	add	a5,a3,a5
	.loc 1 109 20
	add	a4,a4,a5
	li	a5,-176418816
	addi	a5,a5,-81
	add	a5,a4,a5
	sw	a5,-224(s0)
	.loc 1 109 135
	lw	a5,-224(s0)
	.loc 1 109 150
	srli	a4,a5,25
	slli	a5,a5,7
	add	a5,a5,a4
	.loc 1 109 206
	lw	a4,-220(s0)
	.loc 1 109 198
	add	a5,a5,a4
	.loc 1 109 124
	sw	a5,-224(s0)
	.loc 1 110 16
	lw	a4,-212(s0)
	.loc 1 110 31
	lw	a3,-216(s0)
	.loc 1 110 46
	lw	a2,-224(s0)
	.loc 1 110 61
	lw	a1,-220(s0)
	.loc 1 110 75
	lw	a5,-216(s0)
	.loc 1 110 66
	xor	a5,a1,a5
	.loc 1 110 51
	and	a5,a2,a5
	.loc 1 110 36
	xor	a3,a3,a5
	.loc 1 110 92
	lw	a5,-268(s0)
	.loc 1 110 83
	add	a5,a3,a5
	.loc 1 110 20
	add	a4,a4,a5
	li	a5,1200078848
	addi	a5,a5,1578
	add	a5,a4,a5
	sw	a5,-212(s0)
	.loc 1 110 135
	lw	a5,-212(s0)
	.loc 1 110 151
	srli	a4,a5,20
	slli	a5,a5,12
	add	a5,a5,a4
	.loc 1 110 208
	lw	a4,-224(s0)
	.loc 1 110 200
	add	a5,a5,a4
	.loc 1 110 124
	sw	a5,-212(s0)
	.loc 1 111 16
	lw	a4,-216(s0)
	.loc 1 111 31
	lw	a3,-220(s0)
	.loc 1 111 46
	lw	a2,-212(s0)
	.loc 1 111 61
	lw	a1,-224(s0)
	.loc 1 111 75
	lw	a5,-220(s0)
	.loc 1 111 66
	xor	a5,a1,a5
	.loc 1 111 51
	and	a5,a2,a5
	.loc 1 111 36
	xor	a3,a3,a5
	.loc 1 111 92
	lw	a5,-264(s0)
	.loc 1 111 83
	add	a5,a3,a5
	.loc 1 111 20
	add	a4,a4,a5
	li	a5,-1473232896
	addi	a5,a5,1555
	add	a5,a4,a5
	sw	a5,-216(s0)
	.loc 1 111 135
	lw	a5,-216(s0)
	.loc 1 111 151
	srli	a4,a5,15
	slli	a5,a5,17
	add	a5,a5,a4
	.loc 1 111 208
	lw	a4,-212(s0)
	.loc 1 111 200
	add	a5,a5,a4
	.loc 1 111 124
	sw	a5,-216(s0)
	.loc 1 112 16
	lw	a4,-220(s0)
	.loc 1 112 31
	lw	a3,-224(s0)
	.loc 1 112 46
	lw	a2,-216(s0)
	.loc 1 112 61
	lw	a1,-212(s0)
	.loc 1 112 75
	lw	a5,-224(s0)
	.loc 1 112 66
	xor	a5,a1,a5
	.loc 1 112 51
	and	a5,a2,a5
	.loc 1 112 36
	xor	a3,a3,a5
	.loc 1 112 92
	lw	a5,-260(s0)
	.loc 1 112 83
	add	a5,a3,a5
	.loc 1 112 20
	add	a4,a4,a5
	li	a5,-45707264
	addi	a5,a5,1281
	add	a5,a4,a5
	sw	a5,-220(s0)
	.loc 1 112 135
	lw	a5,-220(s0)
	.loc 1 112 151
	srli	a4,a5,10
	slli	a5,a5,22
	add	a5,a5,a4
	.loc 1 112 208
	lw	a4,-216(s0)
	.loc 1 112 200
	add	a5,a5,a4
	.loc 1 112 124
	sw	a5,-220(s0)
	.loc 1 113 16
	lw	a4,-224(s0)
	.loc 1 113 31
	lw	a3,-212(s0)
	.loc 1 113 46
	lw	a2,-220(s0)
	.loc 1 113 61
	lw	a1,-216(s0)
	.loc 1 113 75
	lw	a5,-212(s0)
	.loc 1 113 66
	xor	a5,a1,a5
	.loc 1 113 51
	and	a5,a2,a5
	.loc 1 113 36
	xor	a3,a3,a5
	.loc 1 113 92
	lw	a5,-256(s0)
	.loc 1 113 83
	add	a5,a3,a5
	.loc 1 113 20
	add	a4,a4,a5
	li	a5,1770037248
	addi	a5,a5,-1832
	add	a5,a4,a5
	sw	a5,-224(s0)
	.loc 1 113 135
	lw	a5,-224(s0)
	.loc 1 113 150
	srli	a4,a5,25
	slli	a5,a5,7
	add	a5,a5,a4
	.loc 1 113 206
	lw	a4,-220(s0)
	.loc 1 113 198
	add	a5,a5,a4
	.loc 1 113 124
	sw	a5,-224(s0)
	.loc 1 114 16
	lw	a4,-212(s0)
	.loc 1 114 31
	lw	a3,-216(s0)
	.loc 1 114 46
	lw	a2,-224(s0)
	.loc 1 114 61
	lw	a1,-220(s0)
	.loc 1 114 75
	lw	a5,-216(s0)
	.loc 1 114 66
	xor	a5,a1,a5
	.loc 1 114 51
	and	a5,a2,a5
	.loc 1 114 36
	xor	a3,a3,a5
	.loc 1 114 92
	lw	a5,-252(s0)
	.loc 1 114 83
	add	a5,a3,a5
	.loc 1 114 20
	add	a4,a4,a5
	li	a5,-1958416384
	addi	a5,a5,1967
	add	a5,a4,a5
	sw	a5,-212(s0)
	.loc 1 114 135
	lw	a5,-212(s0)
	.loc 1 114 151
	srli	a4,a5,20
	slli	a5,a5,12
	add	a5,a5,a4
	.loc 1 114 208
	lw	a4,-224(s0)
	.loc 1 114 200
	add	a5,a5,a4
	.loc 1 114 124
	sw	a5,-212(s0)
	.loc 1 115 16
	lw	a4,-216(s0)
	.loc 1 115 31
	lw	a3,-220(s0)
	.loc 1 115 46
	lw	a2,-212(s0)
	.loc 1 115 61
	lw	a1,-224(s0)
	.loc 1 115 75
	lw	a5,-220(s0)
	.loc 1 115 66
	xor	a5,a1,a5
	.loc 1 115 51
	and	a5,a2,a5
	.loc 1 115 36
	xor	a3,a3,a5
	.loc 1 115 92
	lw	a5,-248(s0)
	.loc 1 115 83
	add	a5,a3,a5
	.loc 1 115 20
	add	a4,a4,a5
	li	a5,-40960
	addi	a5,a5,-1103
	add	a5,a4,a5
	sw	a5,-216(s0)
	.loc 1 115 136
	lw	a5,-216(s0)
	.loc 1 115 152
	srli	a4,a5,15
	slli	a5,a5,17
	add	a5,a5,a4
	.loc 1 115 209
	lw	a4,-212(s0)
	.loc 1 115 201
	add	a5,a5,a4
	.loc 1 115 125
	sw	a5,-216(s0)
	.loc 1 116 16
	lw	a4,-220(s0)
	.loc 1 116 31
	lw	a3,-224(s0)
	.loc 1 116 46
	lw	a2,-216(s0)
	.loc 1 116 61
	lw	a1,-212(s0)
	.loc 1 116 75
	lw	a5,-224(s0)
	.loc 1 116 66
	xor	a5,a1,a5
	.loc 1 116 51
	and	a5,a2,a5
	.loc 1 116 36
	xor	a3,a3,a5
	.loc 1 116 92
	lw	a5,-244(s0)
	.loc 1 116 83
	add	a5,a3,a5
	.loc 1 116 20
	add	a4,a4,a5
	li	a5,-1990406144
	addi	a5,a5,1982
	add	a5,a4,a5
	sw	a5,-220(s0)
	.loc 1 116 136
	lw	a5,-220(s0)
	.loc 1 116 152
	srli	a4,a5,10
	slli	a5,a5,22
	add	a5,a5,a4
	.loc 1 116 209
	lw	a4,-216(s0)
	.loc 1 116 201
	add	a5,a5,a4
	.loc 1 116 125
	sw	a5,-220(s0)
	.loc 1 117 16
	lw	a4,-224(s0)
	.loc 1 117 31
	lw	a3,-212(s0)
	.loc 1 117 46
	lw	a2,-220(s0)
	.loc 1 117 61
	lw	a1,-216(s0)
	.loc 1 117 75
	lw	a5,-212(s0)
	.loc 1 117 66
	xor	a5,a1,a5
	.loc 1 117 51
	and	a5,a2,a5
	.loc 1 117 36
	xor	a3,a3,a5
	.loc 1 117 92
	lw	a5,-240(s0)
	.loc 1 117 83
	add	a5,a3,a5
	.loc 1 117 20
	add	a4,a4,a5
	li	a5,1804603392
	addi	a5,a5,290
	add	a5,a4,a5
	sw	a5,-224(s0)
	.loc 1 117 136
	lw	a5,-224(s0)
	.loc 1 117 151
	srli	a4,a5,25
	slli	a5,a5,7
	add	a5,a5,a4
	.loc 1 117 207
	lw	a4,-220(s0)
	.loc 1 117 199
	add	a5,a5,a4
	.loc 1 117 125
	sw	a5,-224(s0)
	.loc 1 118 16
	lw	a4,-212(s0)
	.loc 1 118 31
	lw	a3,-216(s0)
	.loc 1 118 46
	lw	a2,-224(s0)
	.loc 1 118 61
	lw	a1,-220(s0)
	.loc 1 118 75
	lw	a5,-216(s0)
	.loc 1 118 66
	xor	a5,a1,a5
	.loc 1 118 51
	and	a5,a2,a5
	.loc 1 118 36
	xor	a3,a3,a5
	.loc 1 118 92
	lw	a5,-236(s0)
	.loc 1 118 83
	add	a5,a3,a5
	.loc 1 118 20
	add	a4,a4,a5
	li	a5,-40341504
	addi	a5,a5,403
	add	a5,a4,a5
	sw	a5,-212(s0)
	.loc 1 118 136
	lw	a5,-212(s0)
	.loc 1 118 152
	srli	a4,a5,20
	slli	a5,a5,12
	add	a5,a5,a4
	.loc 1 118 209
	lw	a4,-224(s0)
	.loc 1 118 201
	add	a5,a5,a4
	.loc 1 118 125
	sw	a5,-212(s0)
	.loc 1 119 16
	lw	a4,-216(s0)
	.loc 1 119 31
	lw	a3,-220(s0)
	.loc 1 119 46
	lw	a2,-212(s0)
	.loc 1 119 61
	lw	a1,-224(s0)
	.loc 1 119 75
	lw	a5,-220(s0)
	.loc 1 119 66
	xor	a5,a1,a5
	.loc 1 119 51
	and	a5,a2,a5
	.loc 1 119 36
	xor	a3,a3,a5
	.loc 1 119 92
	lw	a5,-232(s0)
	.loc 1 119 83
	add	a5,a3,a5
	.loc 1 119 20
	add	a4,a4,a5
	li	a5,-1502003200
	addi	a5,a5,910
	add	a5,a4,a5
	sw	a5,-216(s0)
	.loc 1 119 136
	lw	a5,-216(s0)
	.loc 1 119 152
	srli	a4,a5,15
	slli	a5,a5,17
	add	a5,a5,a4
	.loc 1 119 209
	lw	a4,-212(s0)
	.loc 1 119 201
	add	a5,a5,a4
	.loc 1 119 125
	sw	a5,-216(s0)
	.loc 1 120 16
	lw	a4,-220(s0)
	.loc 1 120 31
	lw	a3,-224(s0)
	.loc 1 120 46
	lw	a2,-216(s0)
	.loc 1 120 61
	lw	a1,-212(s0)
	.loc 1 120 75
	lw	a5,-224(s0)
	.loc 1 120 66
	xor	a5,a1,a5
	.loc 1 120 51
	and	a5,a2,a5
	.loc 1 120 36
	xor	a3,a3,a5
	.loc 1 120 92
	lw	a5,-228(s0)
	.loc 1 120 83
	add	a5,a3,a5
	.loc 1 120 20
	add	a4,a4,a5
	li	a5,1236537344
	addi	a5,a5,-2015
	add	a5,a4,a5
	sw	a5,-220(s0)
	.loc 1 120 136
	lw	a5,-220(s0)
	.loc 1 120 152
	srli	a4,a5,10
	slli	a5,a5,22
	add	a5,a5,a4
	.loc 1 120 209
	lw	a4,-216(s0)
	.loc 1 120 201
	add	a5,a5,a4
	.loc 1 120 125
	sw	a5,-220(s0)
	.loc 1 126 16
	lw	a4,-224(s0)
	.loc 1 126 31
	lw	a3,-216(s0)
	.loc 1 126 46
	lw	a2,-212(s0)
	.loc 1 126 61
	lw	a1,-220(s0)
	.loc 1 126 75
	lw	a5,-216(s0)
	.loc 1 126 66
	xor	a5,a1,a5
	.loc 1 126 51
	and	a5,a2,a5
	.loc 1 126 36
	xor	a3,a3,a5
	.loc 1 126 92
	lw	a5,-284(s0)
	.loc 1 126 83
	add	a5,a3,a5
	.loc 1 126 20
	add	a4,a4,a5
	li	a5,-165797888
	addi	a5,a5,1378
	add	a5,a4,a5
	sw	a5,-224(s0)
	.loc 1 126 135
	lw	a5,-224(s0)
	.loc 1 126 150
	srli	a4,a5,27
	slli	a5,a5,5
	add	a5,a5,a4
	.loc 1 126 206
	lw	a4,-220(s0)
	.loc 1 126 198
	add	a5,a5,a4
	.loc 1 126 124
	sw	a5,-224(s0)
	.loc 1 127 16
	lw	a4,-212(s0)
	.loc 1 127 31
	lw	a3,-220(s0)
	.loc 1 127 46
	lw	a2,-216(s0)
	.loc 1 127 61
	lw	a1,-224(s0)
	.loc 1 127 75
	lw	a5,-220(s0)
	.loc 1 127 66
	xor	a5,a1,a5
	.loc 1 127 51
	and	a5,a2,a5
	.loc 1 127 36
	xor	a3,a3,a5
	.loc 1 127 92
	lw	a5,-264(s0)
	.loc 1 127 83
	add	a5,a3,a5
	.loc 1 127 20
	add	a4,a4,a5
	li	a5,-1069502464
	addi	a5,a5,832
	add	a5,a4,a5
	sw	a5,-212(s0)
	.loc 1 127 135
	lw	a5,-212(s0)
	.loc 1 127 150
	srli	a4,a5,23
	slli	a5,a5,9
	add	a5,a5,a4
	.loc 1 127 206
	lw	a4,-224(s0)
	.loc 1 127 198
	add	a5,a5,a4
	.loc 1 127 124
	sw	a5,-212(s0)
	.loc 1 128 16
	lw	a4,-216(s0)
	.loc 1 128 31
	lw	a3,-224(s0)
	.loc 1 128 46
	lw	a2,-220(s0)
	.loc 1 128 61
	lw	a1,-212(s0)
	.loc 1 128 75
	lw	a5,-224(s0)
	.loc 1 128 66
	xor	a5,a1,a5
	.loc 1 128 51
	and	a5,a2,a5
	.loc 1 128 36
	xor	a3,a3,a5
	.loc 1 128 92
	lw	a5,-244(s0)
	.loc 1 128 83
	add	a5,a3,a5
	.loc 1 128 20
	add	a4,a4,a5
	li	a5,643719168
	addi	a5,a5,-1455
	add	a5,a4,a5
	sw	a5,-216(s0)
	.loc 1 128 136
	lw	a5,-216(s0)
	.loc 1 128 152
	srli	a4,a5,18
	slli	a5,a5,14
	add	a5,a5,a4
	.loc 1 128 209
	lw	a4,-212(s0)
	.loc 1 128 201
	add	a5,a5,a4
	.loc 1 128 125
	sw	a5,-216(s0)
	.loc 1 129 16
	lw	a4,-220(s0)
	.loc 1 129 31
	lw	a3,-212(s0)
	.loc 1 129 46
	lw	a2,-224(s0)
	.loc 1 129 61
	lw	a1,-216(s0)
	.loc 1 129 75
	lw	a5,-212(s0)
	.loc 1 129 66
	xor	a5,a1,a5
	.loc 1 129 51
	and	a5,a2,a5
	.loc 1 129 36
	xor	a3,a3,a5
	.loc 1 129 92
	lw	a5,-288(s0)
	.loc 1 129 83
	add	a5,a3,a5
	.loc 1 129 20
	add	a4,a4,a5
	li	a5,-373899264
	addi	a5,a5,1962
	add	a5,a4,a5
	sw	a5,-220(s0)
	.loc 1 129 135
	lw	a5,-220(s0)
	.loc 1 129 151
	srli	a4,a5,12
	slli	a5,a5,20
	add	a5,a5,a4
	.loc 1 129 208
	lw	a4,-216(s0)
	.loc 1 129 200
	add	a5,a5,a4
	.loc 1 129 124
	sw	a5,-220(s0)
	.loc 1 130 16
	lw	a4,-224(s0)
	.loc 1 130 31
	lw	a3,-216(s0)
	.loc 1 130 46
	lw	a2,-212(s0)
	.loc 1 130 61
	lw	a1,-220(s0)
	.loc 1 130 75
	lw	a5,-216(s0)
	.loc 1 130 66
	xor	a5,a1,a5
	.loc 1 130 51
	and	a5,a2,a5
	.loc 1 130 36
	xor	a3,a3,a5
	.loc 1 130 92
	lw	a5,-268(s0)
	.loc 1 130 83
	add	a5,a3,a5
	.loc 1 130 20
	add	a4,a4,a5
	li	a5,-701558784
	addi	a5,a5,93
	add	a5,a4,a5
	sw	a5,-224(s0)
	.loc 1 130 135
	lw	a5,-224(s0)
	.loc 1 130 150
	srli	a4,a5,27
	slli	a5,a5,5
	add	a5,a5,a4
	.loc 1 130 206
	lw	a4,-220(s0)
	.loc 1 130 198
	add	a5,a5,a4
	.loc 1 130 124
	sw	a5,-224(s0)
	.loc 1 131 16
	lw	a4,-212(s0)
	.loc 1 131 31
	lw	a3,-220(s0)
	.loc 1 131 46
	lw	a2,-216(s0)
	.loc 1 131 61
	lw	a1,-224(s0)
	.loc 1 131 75
	lw	a5,-220(s0)
	.loc 1 131 66
	xor	a5,a1,a5
	.loc 1 131 51
	and	a5,a2,a5
	.loc 1 131 36
	xor	a3,a3,a5
	.loc 1 131 92
	lw	a5,-248(s0)
	.loc 1 131 83
	add	a5,a3,a5
	.loc 1 131 20
	add	a4,a4,a5
	li	a5,38014976
	addi	a5,a5,1107
	add	a5,a4,a5
	sw	a5,-212(s0)
	.loc 1 131 136
	lw	a5,-212(s0)
	.loc 1 131 151
	srli	a4,a5,23
	slli	a5,a5,9
	add	a5,a5,a4
	.loc 1 131 207
	lw	a4,-224(s0)
	.loc 1 131 199
	add	a5,a5,a4
	.loc 1 131 125
	sw	a5,-212(s0)
	.loc 1 132 16
	lw	a4,-216(s0)
	.loc 1 132 31
	lw	a3,-224(s0)
	.loc 1 132 46
	lw	a2,-220(s0)
	.loc 1 132 61
	lw	a1,-212(s0)
	.loc 1 132 75
	lw	a5,-224(s0)
	.loc 1 132 66
	xor	a5,a1,a5
	.loc 1 132 51
	and	a5,a2,a5
	.loc 1 132 36
	xor	a3,a3,a5
	.loc 1 132 92
	lw	a5,-228(s0)
	.loc 1 132 83
	add	a5,a3,a5
	.loc 1 132 20
	add	a4,a4,a5
	li	a5,-660480000
	addi	a5,a5,1665
	add	a5,a4,a5
	sw	a5,-216(s0)
	.loc 1 132 136
	lw	a5,-216(s0)
	.loc 1 132 152
	srli	a4,a5,18
	slli	a5,a5,14
	add	a5,a5,a4
	.loc 1 132 209
	lw	a4,-212(s0)
	.loc 1 132 201
	add	a5,a5,a4
	.loc 1 132 125
	sw	a5,-216(s0)
	.loc 1 133 16
	lw	a4,-220(s0)
	.loc 1 133 31
	lw	a3,-212(s0)
	.loc 1 133 46
	lw	a2,-224(s0)
	.loc 1 133 61
	lw	a1,-216(s0)
	.loc 1 133 75
	lw	a5,-212(s0)
	.loc 1 133 66
	xor	a5,a1,a5
	.loc 1 133 51
	and	a5,a2,a5
	.loc 1 133 36
	xor	a3,a3,a5
	.loc 1 133 92
	lw	a5,-272(s0)
	.loc 1 133 83
	add	a5,a3,a5
	.loc 1 133 20
	add	a4,a4,a5
	li	a5,-405536768
	addi	a5,a5,-1080
	add	a5,a4,a5
	sw	a5,-220(s0)
	.loc 1 133 135
	lw	a5,-220(s0)
	.loc 1 133 151
	srli	a4,a5,12
	slli	a5,a5,20
	add	a5,a5,a4
	.loc 1 133 208
	lw	a4,-216(s0)
	.loc 1 133 200
	add	a5,a5,a4
	.loc 1 133 124
	sw	a5,-220(s0)
	.loc 1 134 16
	lw	a4,-224(s0)
	.loc 1 134 31
	lw	a3,-216(s0)
	.loc 1 134 46
	lw	a2,-212(s0)
	.loc 1 134 61
	lw	a1,-220(s0)
	.loc 1 134 75
	lw	a5,-216(s0)
	.loc 1 134 66
	xor	a5,a1,a5
	.loc 1 134 51
	and	a5,a2,a5
	.loc 1 134 36
	xor	a3,a3,a5
	.loc 1 134 92
	lw	a5,-252(s0)
	.loc 1 134 83
	add	a5,a3,a5
	.loc 1 134 20
	add	a4,a4,a5
	li	a5,568446976
	addi	a5,a5,-538
	add	a5,a4,a5
	sw	a5,-224(s0)
	.loc 1 134 135
	lw	a5,-224(s0)
	.loc 1 134 150
	srli	a4,a5,27
	slli	a5,a5,5
	add	a5,a5,a4
	.loc 1 134 206
	lw	a4,-220(s0)
	.loc 1 134 198
	add	a5,a5,a4
	.loc 1 134 124
	sw	a5,-224(s0)
	.loc 1 135 16
	lw	a4,-212(s0)
	.loc 1 135 31
	lw	a3,-220(s0)
	.loc 1 135 46
	lw	a2,-216(s0)
	.loc 1 135 61
	lw	a1,-224(s0)
	.loc 1 135 75
	lw	a5,-220(s0)
	.loc 1 135 66
	xor	a5,a1,a5
	.loc 1 135 51
	and	a5,a2,a5
	.loc 1 135 36
	xor	a3,a3,a5
	.loc 1 135 92
	lw	a5,-232(s0)
	.loc 1 135 83
	add	a5,a3,a5
	.loc 1 135 20
	add	a4,a4,a5
	li	a5,-1019805696
	addi	a5,a5,2006
	add	a5,a4,a5
	sw	a5,-212(s0)
	.loc 1 135 136
	lw	a5,-212(s0)
	.loc 1 135 151
	srli	a4,a5,23
	slli	a5,a5,9
	add	a5,a5,a4
	.loc 1 135 207
	lw	a4,-224(s0)
	.loc 1 135 199
	add	a5,a5,a4
	.loc 1 135 125
	sw	a5,-212(s0)
	.loc 1 136 16
	lw	a4,-216(s0)
	.loc 1 136 31
	lw	a3,-224(s0)
	.loc 1 136 46
	lw	a2,-220(s0)
	.loc 1 136 61
	lw	a1,-212(s0)
	.loc 1 136 75
	lw	a5,-224(s0)
	.loc 1 136 66
	xor	a5,a1,a5
	.loc 1 136 51
	and	a5,a2,a5
	.loc 1 136 36
	xor	a3,a3,a5
	.loc 1 136 92
	lw	a5,-276(s0)
	.loc 1 136 83
	add	a5,a3,a5
	.loc 1 136 20
	add	a4,a4,a5
	li	a5,-187363328
	addi	a5,a5,-633
	add	a5,a4,a5
	sw	a5,-216(s0)
	.loc 1 136 135
	lw	a5,-216(s0)
	.loc 1 136 151
	srli	a4,a5,18
	slli	a5,a5,14
	add	a5,a5,a4
	.loc 1 136 208
	lw	a4,-212(s0)
	.loc 1 136 200
	add	a5,a5,a4
	.loc 1 136 124
	sw	a5,-216(s0)
	.loc 1 137 16
	lw	a4,-220(s0)
	.loc 1 137 31
	lw	a3,-212(s0)
	.loc 1 137 46
	lw	a2,-224(s0)
	.loc 1 137 61
	lw	a1,-216(s0)
	.loc 1 137 75
	lw	a5,-212(s0)
	.loc 1 137 66
	xor	a5,a1,a5
	.loc 1 137 51
	and	a5,a2,a5
	.loc 1 137 36
	xor	a3,a3,a5
	.loc 1 137 92
	lw	a5,-256(s0)
	.loc 1 137 83
	add	a5,a3,a5
	.loc 1 137 20
	add	a4,a4,a5
	li	a5,1163530240
	addi	a5,a5,1261
	add	a5,a4,a5
	sw	a5,-220(s0)
	.loc 1 137 135
	lw	a5,-220(s0)
	.loc 1 137 151
	srli	a4,a5,12
	slli	a5,a5,20
	add	a5,a5,a4
	.loc 1 137 208
	lw	a4,-216(s0)
	.loc 1 137 200
	add	a5,a5,a4
	.loc 1 137 124
	sw	a5,-220(s0)
	.loc 1 138 16
	lw	a4,-224(s0)
	.loc 1 138 31
	lw	a3,-216(s0)
	.loc 1 138 46
	lw	a2,-212(s0)
	.loc 1 138 61
	lw	a1,-220(s0)
	.loc 1 138 75
	lw	a5,-216(s0)
	.loc 1 138 66
	xor	a5,a1,a5
	.loc 1 138 51
	and	a5,a2,a5
	.loc 1 138 36
	xor	a3,a3,a5
	.loc 1 138 92
	lw	a5,-236(s0)
	.loc 1 138 83
	add	a5,a3,a5
	.loc 1 138 20
	add	a4,a4,a5
	li	a5,-1444679680
	addi	a5,a5,-1787
	add	a5,a4,a5
	sw	a5,-224(s0)
	.loc 1 138 136
	lw	a5,-224(s0)
	.loc 1 138 151
	srli	a4,a5,27
	slli	a5,a5,5
	add	a5,a5,a4
	.loc 1 138 207
	lw	a4,-220(s0)
	.loc 1 138 199
	add	a5,a5,a4
	.loc 1 138 125
	sw	a5,-224(s0)
	.loc 1 139 16
	lw	a4,-212(s0)
	.loc 1 139 31
	lw	a3,-220(s0)
	.loc 1 139 46
	lw	a2,-216(s0)
	.loc 1 139 61
	lw	a1,-224(s0)
	.loc 1 139 75
	lw	a5,-220(s0)
	.loc 1 139 66
	xor	a5,a1,a5
	.loc 1 139 51
	and	a5,a2,a5
	.loc 1 139 36
	xor	a3,a3,a5
	.loc 1 139 92
	lw	a5,-280(s0)
	.loc 1 139 83
	add	a5,a3,a5
	.loc 1 139 20
	add	a4,a4,a5
	li	a5,-51404800
	addi	a5,a5,1016
	add	a5,a4,a5
	sw	a5,-212(s0)
	.loc 1 139 135
	lw	a5,-212(s0)
	.loc 1 139 150
	srli	a4,a5,23
	slli	a5,a5,9
	add	a5,a5,a4
	.loc 1 139 206
	lw	a4,-224(s0)
	.loc 1 139 198
	add	a5,a5,a4
	.loc 1 139 124
	sw	a5,-212(s0)
	.loc 1 140 16
	lw	a4,-216(s0)
	.loc 1 140 31
	lw	a3,-224(s0)
	.loc 1 140 46
	lw	a2,-220(s0)
	.loc 1 140 61
	lw	a1,-212(s0)
	.loc 1 140 75
	lw	a5,-224(s0)
	.loc 1 140 66
	xor	a5,a1,a5
	.loc 1 140 51
	and	a5,a2,a5
	.loc 1 140 36
	xor	a3,a3,a5
	.loc 1 140 92
	lw	a5,-260(s0)
	.loc 1 140 83
	add	a5,a3,a5
	.loc 1 140 20
	add	a4,a4,a5
	li	a5,1735327744
	addi	a5,a5,729
	add	a5,a4,a5
	sw	a5,-216(s0)
	.loc 1 140 135
	lw	a5,-216(s0)
	.loc 1 140 151
	srli	a4,a5,18
	slli	a5,a5,14
	add	a5,a5,a4
	.loc 1 140 208
	lw	a4,-212(s0)
	.loc 1 140 200
	add	a5,a5,a4
	.loc 1 140 124
	sw	a5,-216(s0)
	.loc 1 141 16
	lw	a4,-220(s0)
	.loc 1 141 31
	lw	a3,-212(s0)
	.loc 1 141 46
	lw	a2,-224(s0)
	.loc 1 141 61
	lw	a1,-216(s0)
	.loc 1 141 75
	lw	a5,-212(s0)
	.loc 1 141 66
	xor	a5,a1,a5
	.loc 1 141 51
	and	a5,a2,a5
	.loc 1 141 36
	xor	a3,a3,a5
	.loc 1 141 92
	lw	a5,-240(s0)
	.loc 1 141 83
	add	a5,a3,a5
	.loc 1 141 20
	add	a4,a4,a5
	li	a5,-1926606848
	addi	a5,a5,-886
	add	a5,a4,a5
	sw	a5,-220(s0)
	.loc 1 141 136
	lw	a5,-220(s0)
	.loc 1 141 152
	srli	a4,a5,12
	slli	a5,a5,20
	add	a5,a5,a4
	.loc 1 141 209
	lw	a4,-216(s0)
	.loc 1 141 201
	add	a5,a5,a4
	.loc 1 141 125
	sw	a5,-220(s0)
	.loc 1 147 16
	lw	a4,-224(s0)
	.loc 1 147 31
	lw	a3,-220(s0)
	.loc 1 147 45
	lw	a5,-216(s0)
	.loc 1 147 36
	xor	a3,a3,a5
	.loc 1 147 59
	lw	a5,-212(s0)
	.loc 1 147 50
	xor	a3,a3,a5
	.loc 1 147 74
	lw	a5,-268(s0)
	.loc 1 147 65
	add	a5,a3,a5
	.loc 1 147 20
	add	a4,a4,a5
	li	a5,-376832
	addi	a5,a5,-1726
	add	a5,a4,a5
	sw	a5,-224(s0)
	.loc 1 147 117
	lw	a5,-224(s0)
	.loc 1 147 132
	srli	a4,a5,28
	slli	a5,a5,4
	add	a5,a5,a4
	.loc 1 147 188
	lw	a4,-220(s0)
	.loc 1 147 180
	add	a5,a5,a4
	.loc 1 147 106
	sw	a5,-224(s0)
	.loc 1 148 16
	lw	a4,-212(s0)
	.loc 1 148 31
	lw	a3,-224(s0)
	.loc 1 148 45
	lw	a5,-220(s0)
	.loc 1 148 36
	xor	a3,a3,a5
	.loc 1 148 59
	lw	a5,-216(s0)
	.loc 1 148 50
	xor	a3,a3,a5
	.loc 1 148 74
	lw	a5,-256(s0)
	.loc 1 148 65
	add	a5,a3,a5
	.loc 1 148 20
	add	a4,a4,a5
	li	a5,-2022576128
	addi	a5,a5,1665
	add	a5,a4,a5
	sw	a5,-212(s0)
	.loc 1 148 117
	lw	a5,-212(s0)
	.loc 1 148 133
	srli	a4,a5,21
	slli	a5,a5,11
	add	a5,a5,a4
	.loc 1 148 190
	lw	a4,-224(s0)
	.loc 1 148 182
	add	a5,a5,a4
	.loc 1 148 106
	sw	a5,-212(s0)
	.loc 1 149 16
	lw	a4,-216(s0)
	.loc 1 149 31
	lw	a3,-212(s0)
	.loc 1 149 45
	lw	a5,-224(s0)
	.loc 1 149 36
	xor	a3,a3,a5
	.loc 1 149 59
	lw	a5,-220(s0)
	.loc 1 149 50
	xor	a3,a3,a5
	.loc 1 149 74
	lw	a5,-244(s0)
	.loc 1 149 65
	add	a5,a3,a5
	.loc 1 149 20
	add	a4,a4,a5
	li	a5,1839030272
	addi	a5,a5,290
	add	a5,a4,a5
	sw	a5,-216(s0)
	.loc 1 149 118
	lw	a5,-216(s0)
	.loc 1 149 134
	srli	a4,a5,16
	slli	a5,a5,16
	add	a5,a5,a4
	.loc 1 149 191
	lw	a4,-212(s0)
	.loc 1 149 183
	add	a5,a5,a4
	.loc 1 149 107
	sw	a5,-216(s0)
	.loc 1 150 16
	lw	a4,-220(s0)
	.loc 1 150 31
	lw	a3,-216(s0)
	.loc 1 150 45
	lw	a5,-212(s0)
	.loc 1 150 36
	xor	a3,a3,a5
	.loc 1 150 59
	lw	a5,-224(s0)
	.loc 1 150 50
	xor	a3,a3,a5
	.loc 1 150 74
	lw	a5,-232(s0)
	.loc 1 150 65
	add	a5,a3,a5
	.loc 1 150 20
	add	a4,a4,a5
	li	a5,-35307520
	addi	a5,a5,-2036
	add	a5,a4,a5
	sw	a5,-220(s0)
	.loc 1 150 118
	lw	a5,-220(s0)
	.loc 1 150 134
	srli	a4,a5,9
	slli	a5,a5,23
	add	a5,a5,a4
	.loc 1 150 191
	lw	a4,-216(s0)
	.loc 1 150 183
	add	a5,a5,a4
	.loc 1 150 107
	sw	a5,-220(s0)
	.loc 1 151 16
	lw	a4,-224(s0)
	.loc 1 151 31
	lw	a3,-220(s0)
	.loc 1 151 45
	lw	a5,-216(s0)
	.loc 1 151 36
	xor	a3,a3,a5
	.loc 1 151 59
	lw	a5,-212(s0)
	.loc 1 151 50
	xor	a3,a3,a5
	.loc 1 151 74
	lw	a5,-284(s0)
	.loc 1 151 65
	add	a5,a3,a5
	.loc 1 151 20
	add	a4,a4,a5
	li	a5,-1530990592
	addi	a5,a5,-1468
	add	a5,a4,a5
	sw	a5,-224(s0)
	.loc 1 151 117
	lw	a5,-224(s0)
	.loc 1 151 132
	srli	a4,a5,28
	slli	a5,a5,4
	add	a5,a5,a4
	.loc 1 151 188
	lw	a4,-220(s0)
	.loc 1 151 180
	add	a5,a5,a4
	.loc 1 151 106
	sw	a5,-224(s0)
	.loc 1 152 16
	lw	a4,-212(s0)
	.loc 1 152 31
	lw	a3,-224(s0)
	.loc 1 152 45
	lw	a5,-220(s0)
	.loc 1 152 36
	xor	a3,a3,a5
	.loc 1 152 59
	lw	a5,-216(s0)
	.loc 1 152 50
	xor	a3,a3,a5
	.loc 1 152 74
	lw	a5,-272(s0)
	.loc 1 152 65
	add	a5,a3,a5
	.loc 1 152 20
	add	a4,a4,a5
	li	a5,1272893440
	addi	a5,a5,-87
	add	a5,a4,a5
	sw	a5,-212(s0)
	.loc 1 152 117
	lw	a5,-212(s0)
	.loc 1 152 133
	srli	a4,a5,21
	slli	a5,a5,11
	add	a5,a5,a4
	.loc 1 152 190
	lw	a4,-224(s0)
	.loc 1 152 182
	add	a5,a5,a4
	.loc 1 152 106
	sw	a5,-212(s0)
	.loc 1 153 16
	lw	a4,-216(s0)
	.loc 1 153 31
	lw	a3,-212(s0)
	.loc 1 153 45
	lw	a5,-224(s0)
	.loc 1 153 36
	xor	a3,a3,a5
	.loc 1 153 59
	lw	a5,-220(s0)
	.loc 1 153 50
	xor	a3,a3,a5
	.loc 1 153 74
	lw	a5,-260(s0)
	.loc 1 153 65
	add	a5,a3,a5
	.loc 1 153 20
	add	a4,a4,a5
	li	a5,-155496448
	addi	a5,a5,-1184
	add	a5,a4,a5
	sw	a5,-216(s0)
	.loc 1 153 117
	lw	a5,-216(s0)
	.loc 1 153 133
	srli	a4,a5,16
	slli	a5,a5,16
	add	a5,a5,a4
	.loc 1 153 190
	lw	a4,-212(s0)
	.loc 1 153 182
	add	a5,a5,a4
	.loc 1 153 106
	sw	a5,-216(s0)
	.loc 1 154 16
	lw	a4,-220(s0)
	.loc 1 154 31
	lw	a3,-216(s0)
	.loc 1 154 45
	lw	a5,-212(s0)
	.loc 1 154 36
	xor	a3,a3,a5
	.loc 1 154 59
	lw	a5,-224(s0)
	.loc 1 154 50
	xor	a3,a3,a5
	.loc 1 154 74
	lw	a5,-248(s0)
	.loc 1 154 65
	add	a5,a3,a5
	.loc 1 154 20
	add	a4,a4,a5
	li	a5,-1094729728
	addi	a5,a5,-912
	add	a5,a4,a5
	sw	a5,-220(s0)
	.loc 1 154 118
	lw	a5,-220(s0)
	.loc 1 154 134
	srli	a4,a5,9
	slli	a5,a5,23
	add	a5,a5,a4
	.loc 1 154 191
	lw	a4,-216(s0)
	.loc 1 154 183
	add	a5,a5,a4
	.loc 1 154 107
	sw	a5,-220(s0)
	.loc 1 155 16
	lw	a4,-224(s0)
	.loc 1 155 31
	lw	a3,-220(s0)
	.loc 1 155 45
	lw	a5,-216(s0)
	.loc 1 155 36
	xor	a3,a3,a5
	.loc 1 155 59
	lw	a5,-212(s0)
	.loc 1 155 50
	xor	a3,a3,a5
	.loc 1 155 74
	lw	a5,-236(s0)
	.loc 1 155 65
	add	a5,a3,a5
	.loc 1 155 20
	add	a4,a4,a5
	li	a5,681279488
	addi	a5,a5,-314
	add	a5,a4,a5
	sw	a5,-224(s0)
	.loc 1 155 118
	lw	a5,-224(s0)
	.loc 1 155 133
	srli	a4,a5,28
	slli	a5,a5,4
	add	a5,a5,a4
	.loc 1 155 189
	lw	a4,-220(s0)
	.loc 1 155 181
	add	a5,a5,a4
	.loc 1 155 107
	sw	a5,-224(s0)
	.loc 1 156 16
	lw	a4,-212(s0)
	.loc 1 156 31
	lw	a3,-224(s0)
	.loc 1 156 45
	lw	a5,-220(s0)
	.loc 1 156 36
	xor	a3,a3,a5
	.loc 1 156 59
	lw	a5,-216(s0)
	.loc 1 156 50
	xor	a3,a3,a5
	.loc 1 156 74
	lw	a5,-288(s0)
	.loc 1 156 65
	add	a5,a3,a5
	.loc 1 156 20
	add	a4,a4,a5
	li	a5,-358539264
	addi	a5,a5,2042
	add	a5,a4,a5
	sw	a5,-212(s0)
	.loc 1 156 117
	lw	a5,-212(s0)
	.loc 1 156 133
	srli	a4,a5,21
	slli	a5,a5,11
	add	a5,a5,a4
	.loc 1 156 190
	lw	a4,-224(s0)
	.loc 1 156 182
	add	a5,a5,a4
	.loc 1 156 106
	sw	a5,-212(s0)
	.loc 1 157 16
	lw	a4,-216(s0)
	.loc 1 157 31
	lw	a3,-212(s0)
	.loc 1 157 45
	lw	a5,-224(s0)
	.loc 1 157 36
	xor	a3,a3,a5
	.loc 1 157 59
	lw	a5,-220(s0)
	.loc 1 157 50
	xor	a3,a3,a5
	.loc 1 157 74
	lw	a5,-276(s0)
	.loc 1 157 65
	add	a5,a3,a5
	.loc 1 157 20
	add	a4,a4,a5
	li	a5,-722522112
	addi	a5,a5,133
	add	a5,a4,a5
	sw	a5,-216(s0)
	.loc 1 157 117
	lw	a5,-216(s0)
	.loc 1 157 133
	srli	a4,a5,16
	slli	a5,a5,16
	add	a5,a5,a4
	.loc 1 157 190
	lw	a4,-212(s0)
	.loc 1 157 182
	add	a5,a5,a4
	.loc 1 157 106
	sw	a5,-216(s0)
	.loc 1 158 16
	lw	a4,-220(s0)
	.loc 1 158 31
	lw	a3,-216(s0)
	.loc 1 158 45
	lw	a5,-212(s0)
	.loc 1 158 36
	xor	a3,a3,a5
	.loc 1 158 59
	lw	a5,-224(s0)
	.loc 1 158 50
	xor	a3,a3,a5
	.loc 1 158 74
	lw	a5,-264(s0)
	.loc 1 158 65
	add	a5,a3,a5
	.loc 1 158 20
	add	a4,a4,a5
	li	a5,76029952
	addi	a5,a5,-763
	add	a5,a4,a5
	sw	a5,-220(s0)
	.loc 1 158 117
	lw	a5,-220(s0)
	.loc 1 158 133
	srli	a4,a5,9
	slli	a5,a5,23
	add	a5,a5,a4
	.loc 1 158 190
	lw	a4,-216(s0)
	.loc 1 158 182
	add	a5,a5,a4
	.loc 1 158 106
	sw	a5,-220(s0)
	.loc 1 159 16
	lw	a4,-224(s0)
	.loc 1 159 31
	lw	a3,-220(s0)
	.loc 1 159 45
	lw	a5,-216(s0)
	.loc 1 159 36
	xor	a3,a3,a5
	.loc 1 159 59
	lw	a5,-212(s0)
	.loc 1 159 50
	xor	a3,a3,a5
	.loc 1 159 74
	lw	a5,-252(s0)
	.loc 1 159 65
	add	a5,a3,a5
	.loc 1 159 20
	add	a4,a4,a5
	li	a5,-640364544
	addi	a5,a5,57
	add	a5,a4,a5
	sw	a5,-224(s0)
	.loc 1 159 117
	lw	a5,-224(s0)
	.loc 1 159 132
	srli	a4,a5,28
	slli	a5,a5,4
	add	a5,a5,a4
	.loc 1 159 188
	lw	a4,-220(s0)
	.loc 1 159 180
	add	a5,a5,a4
	.loc 1 159 106
	sw	a5,-224(s0)
	.loc 1 160 16
	lw	a4,-212(s0)
	.loc 1 160 31
	lw	a3,-224(s0)
	.loc 1 160 45
	lw	a5,-220(s0)
	.loc 1 160 36
	xor	a3,a3,a5
	.loc 1 160 59
	lw	a5,-216(s0)
	.loc 1 160 50
	xor	a3,a3,a5
	.loc 1 160 74
	lw	a5,-240(s0)
	.loc 1 160 65
	add	a5,a3,a5
	.loc 1 160 20
	add	a4,a4,a5
	li	a5,-421814272
	addi	a5,a5,-1563
	add	a5,a4,a5
	sw	a5,-212(s0)
	.loc 1 160 118
	lw	a5,-212(s0)
	.loc 1 160 134
	srli	a4,a5,21
	slli	a5,a5,11
	add	a5,a5,a4
	.loc 1 160 191
	lw	a4,-224(s0)
	.loc 1 160 183
	add	a5,a5,a4
	.loc 1 160 107
	sw	a5,-212(s0)
	.loc 1 161 16
	lw	a4,-216(s0)
	.loc 1 161 31
	lw	a3,-212(s0)
	.loc 1 161 45
	lw	a5,-224(s0)
	.loc 1 161 36
	xor	a3,a3,a5
	.loc 1 161 59
	lw	a5,-220(s0)
	.loc 1 161 50
	xor	a3,a3,a5
	.loc 1 161 74
	lw	a5,-228(s0)
	.loc 1 161 65
	add	a5,a3,a5
	.loc 1 161 20
	add	a4,a4,a5
	li	a5,530743296
	addi	a5,a5,-776
	add	a5,a4,a5
	sw	a5,-216(s0)
	.loc 1 161 118
	lw	a5,-216(s0)
	.loc 1 161 134
	srli	a4,a5,16
	slli	a5,a5,16
	add	a5,a5,a4
	.loc 1 161 191
	lw	a4,-212(s0)
	.loc 1 161 183
	add	a5,a5,a4
	.loc 1 161 107
	sw	a5,-216(s0)
	.loc 1 162 16
	lw	a4,-220(s0)
	.loc 1 162 31
	lw	a3,-216(s0)
	.loc 1 162 45
	lw	a5,-212(s0)
	.loc 1 162 36
	xor	a3,a3,a5
	.loc 1 162 59
	lw	a5,-224(s0)
	.loc 1 162 50
	xor	a3,a3,a5
	.loc 1 162 74
	lw	a5,-280(s0)
	.loc 1 162 65
	add	a5,a3,a5
	.loc 1 162 20
	add	a4,a4,a5
	li	a5,-995340288
	addi	a5,a5,1637
	add	a5,a4,a5
	sw	a5,-220(s0)
	.loc 1 162 117
	lw	a5,-220(s0)
	.loc 1 162 133
	srli	a4,a5,9
	slli	a5,a5,23
	add	a5,a5,a4
	.loc 1 162 190
	lw	a4,-216(s0)
	.loc 1 162 182
	add	a5,a5,a4
	.loc 1 162 106
	sw	a5,-220(s0)
	.loc 1 168 16
	lw	a4,-224(s0)
	.loc 1 168 31
	lw	a3,-216(s0)
	.loc 1 168 46
	lw	a2,-220(s0)
	.loc 1 168 61
	lw	a5,-212(s0)
	.loc 1 168 53
	not	a5,a5
	.loc 1 168 51
	or	a5,a2,a5
	.loc 1 168 36
	xor	a3,a3,a5
	.loc 1 168 77
	lw	a5,-288(s0)
	.loc 1 168 68
	add	a5,a3,a5
	.loc 1 168 20
	add	a4,a4,a5
	li	a5,-198631424
	addi	a5,a5,580
	add	a5,a4,a5
	sw	a5,-224(s0)
	.loc 1 168 120
	lw	a5,-224(s0)
	.loc 1 168 135
	srli	a4,a5,26
	slli	a5,a5,6
	add	a5,a5,a4
	.loc 1 168 191
	lw	a4,-220(s0)
	.loc 1 168 183
	add	a5,a5,a4
	.loc 1 168 109
	sw	a5,-224(s0)
	.loc 1 169 16
	lw	a4,-212(s0)
	.loc 1 169 31
	lw	a3,-220(s0)
	.loc 1 169 46
	lw	a2,-224(s0)
	.loc 1 169 61
	lw	a5,-216(s0)
	.loc 1 169 53
	not	a5,a5
	.loc 1 169 51
	or	a5,a2,a5
	.loc 1 169 36
	xor	a3,a3,a5
	.loc 1 169 77
	lw	a5,-260(s0)
	.loc 1 169 68
	add	a5,a3,a5
	.loc 1 169 20
	add	a4,a4,a5
	li	a5,1126891520
	addi	a5,a5,-105
	add	a5,a4,a5
	sw	a5,-212(s0)
	.loc 1 169 120
	lw	a5,-212(s0)
	.loc 1 169 136
	srli	a4,a5,22
	slli	a5,a5,10
	add	a5,a5,a4
	.loc 1 169 193
	lw	a4,-224(s0)
	.loc 1 169 185
	add	a5,a5,a4
	.loc 1 169 109
	sw	a5,-212(s0)
	.loc 1 170 16
	lw	a4,-216(s0)
	.loc 1 170 31
	lw	a3,-224(s0)
	.loc 1 170 46
	lw	a2,-212(s0)
	.loc 1 170 61
	lw	a5,-220(s0)
	.loc 1 170 53
	not	a5,a5
	.loc 1 170 51
	or	a5,a2,a5
	.loc 1 170 36
	xor	a3,a3,a5
	.loc 1 170 77
	lw	a5,-232(s0)
	.loc 1 170 68
	add	a5,a3,a5
	.loc 1 170 20
	add	a4,a4,a5
	li	a5,-1416355840
	addi	a5,a5,935
	add	a5,a4,a5
	sw	a5,-216(s0)
	.loc 1 170 121
	lw	a5,-216(s0)
	.loc 1 170 137
	srli	a4,a5,17
	slli	a5,a5,15
	add	a5,a5,a4
	.loc 1 170 194
	lw	a4,-212(s0)
	.loc 1 170 186
	add	a5,a5,a4
	.loc 1 170 110
	sw	a5,-216(s0)
	.loc 1 171 16
	lw	a4,-220(s0)
	.loc 1 171 31
	lw	a3,-212(s0)
	.loc 1 171 46
	lw	a2,-216(s0)
	.loc 1 171 61
	lw	a5,-224(s0)
	.loc 1 171 53
	not	a5,a5
	.loc 1 171 51
	or	a5,a2,a5
	.loc 1 171 36
	xor	a3,a3,a5
	.loc 1 171 77
	lw	a5,-268(s0)
	.loc 1 171 68
	add	a5,a3,a5
	.loc 1 171 20
	add	a4,a4,a5
	li	a5,-57434112
	addi	a5,a5,57
	add	a5,a4,a5
	sw	a5,-220(s0)
	.loc 1 171 120
	lw	a5,-220(s0)
	.loc 1 171 136
	srli	a4,a5,11
	slli	a5,a5,21
	add	a5,a5,a4
	.loc 1 171 193
	lw	a4,-216(s0)
	.loc 1 171 185
	add	a5,a5,a4
	.loc 1 171 109
	sw	a5,-220(s0)
	.loc 1 172 16
	lw	a4,-224(s0)
	.loc 1 172 31
	lw	a3,-216(s0)
	.loc 1 172 46
	lw	a2,-220(s0)
	.loc 1 172 61
	lw	a5,-212(s0)
	.loc 1 172 53
	not	a5,a5
	.loc 1 172 51
	or	a5,a2,a5
	.loc 1 172 36
	xor	a3,a3,a5
	.loc 1 172 77
	lw	a5,-240(s0)
	.loc 1 172 68
	add	a5,a3,a5
	.loc 1 172 20
	add	a4,a4,a5
	li	a5,1700487168
	addi	a5,a5,-1597
	add	a5,a4,a5
	sw	a5,-224(s0)
	.loc 1 172 121
	lw	a5,-224(s0)
	.loc 1 172 136
	srli	a4,a5,26
	slli	a5,a5,6
	add	a5,a5,a4
	.loc 1 172 192
	lw	a4,-220(s0)
	.loc 1 172 184
	add	a5,a5,a4
	.loc 1 172 110
	sw	a5,-224(s0)
	.loc 1 173 16
	lw	a4,-212(s0)
	.loc 1 173 31
	lw	a3,-220(s0)
	.loc 1 173 46
	lw	a2,-224(s0)
	.loc 1 173 61
	lw	a5,-216(s0)
	.loc 1 173 53
	not	a5,a5
	.loc 1 173 51
	or	a5,a2,a5
	.loc 1 173 36
	xor	a3,a3,a5
	.loc 1 173 77
	lw	a5,-276(s0)
	.loc 1 173 68
	add	a5,a3,a5
	.loc 1 173 20
	add	a4,a4,a5
	li	a5,-1894985728
	addi	a5,a5,-878
	add	a5,a4,a5
	sw	a5,-212(s0)
	.loc 1 173 120
	lw	a5,-212(s0)
	.loc 1 173 136
	srli	a4,a5,22
	slli	a5,a5,10
	add	a5,a5,a4
	.loc 1 173 193
	lw	a4,-224(s0)
	.loc 1 173 185
	add	a5,a5,a4
	.loc 1 173 109
	sw	a5,-212(s0)
	.loc 1 174 16
	lw	a4,-216(s0)
	.loc 1 174 31
	lw	a3,-224(s0)
	.loc 1 174 46
	lw	a2,-212(s0)
	.loc 1 174 61
	lw	a5,-220(s0)
	.loc 1 174 53
	not	a5,a5
	.loc 1 174 51
	or	a5,a2,a5
	.loc 1 174 36
	xor	a3,a3,a5
	.loc 1 174 77
	lw	a5,-248(s0)
	.loc 1 174 68
	add	a5,a3,a5
	.loc 1 174 20
	add	a4,a4,a5
	li	a5,-1052672
	addi	a5,a5,1149
	add	a5,a4,a5
	sw	a5,-216(s0)
	.loc 1 174 121
	lw	a5,-216(s0)
	.loc 1 174 137
	srli	a4,a5,17
	slli	a5,a5,15
	add	a5,a5,a4
	.loc 1 174 194
	lw	a4,-212(s0)
	.loc 1 174 186
	add	a5,a5,a4
	.loc 1 174 110
	sw	a5,-216(s0)
	.loc 1 175 16
	lw	a4,-220(s0)
	.loc 1 175 31
	lw	a3,-212(s0)
	.loc 1 175 46
	lw	a2,-216(s0)
	.loc 1 175 61
	lw	a5,-224(s0)
	.loc 1 175 53
	not	a5,a5
	.loc 1 175 51
	or	a5,a2,a5
	.loc 1 175 36
	xor	a3,a3,a5
	.loc 1 175 77
	lw	a5,-284(s0)
	.loc 1 175 68
	add	a5,a3,a5
	.loc 1 175 20
	add	a4,a4,a5
	li	a5,-2054922240
	addi	a5,a5,-559
	add	a5,a4,a5
	sw	a5,-220(s0)
	.loc 1 175 120
	lw	a5,-220(s0)
	.loc 1 175 136
	srli	a4,a5,11
	slli	a5,a5,21
	add	a5,a5,a4
	.loc 1 175 193
	lw	a4,-216(s0)
	.loc 1 175 185
	add	a5,a5,a4
	.loc 1 175 109
	sw	a5,-220(s0)
	.loc 1 176 16
	lw	a4,-224(s0)
	.loc 1 176 31
	lw	a3,-216(s0)
	.loc 1 176 46
	lw	a2,-220(s0)
	.loc 1 176 61
	lw	a5,-212(s0)
	.loc 1 176 53
	not	a5,a5
	.loc 1 176 51
	or	a5,a2,a5
	.loc 1 176 36
	xor	a3,a3,a5
	.loc 1 176 77
	lw	a5,-256(s0)
	.loc 1 176 68
	add	a5,a3,a5
	.loc 1 176 20
	add	a4,a4,a5
	li	a5,1873313792
	addi	a5,a5,-433
	add	a5,a4,a5
	sw	a5,-224(s0)
	.loc 1 176 120
	lw	a5,-224(s0)
	.loc 1 176 135
	srli	a4,a5,26
	slli	a5,a5,6
	add	a5,a5,a4
	.loc 1 176 191
	lw	a4,-220(s0)
	.loc 1 176 183
	add	a5,a5,a4
	.loc 1 176 109
	sw	a5,-224(s0)
	.loc 1 177 16
	lw	a4,-212(s0)
	.loc 1 177 31
	lw	a3,-220(s0)
	.loc 1 177 46
	lw	a2,-224(s0)
	.loc 1 177 61
	lw	a5,-216(s0)
	.loc 1 177 53
	not	a5,a5
	.loc 1 177 51
	or	a5,a2,a5
	.loc 1 177 36
	xor	a3,a3,a5
	.loc 1 177 77
	lw	a5,-228(s0)
	.loc 1 177 68
	add	a5,a3,a5
	.loc 1 177 20
	add	a4,a4,a5
	li	a5,-30613504
	addi	a5,a5,1760
	add	a5,a4,a5
	sw	a5,-212(s0)
	.loc 1 177 121
	lw	a5,-212(s0)
	.loc 1 177 137
	srli	a4,a5,22
	slli	a5,a5,10
	add	a5,a5,a4
	.loc 1 177 194
	lw	a4,-224(s0)
	.loc 1 177 186
	add	a5,a5,a4
	.loc 1 177 110
	sw	a5,-212(s0)
	.loc 1 178 16
	lw	a4,-216(s0)
	.loc 1 178 31
	lw	a3,-224(s0)
	.loc 1 178 46
	lw	a2,-212(s0)
	.loc 1 178 61
	lw	a5,-220(s0)
	.loc 1 178 53
	not	a5,a5
	.loc 1 178 51
	or	a5,a2,a5
	.loc 1 178 36
	xor	a3,a3,a5
	.loc 1 178 77
	lw	a5,-264(s0)
	.loc 1 178 68
	add	a5,a3,a5
	.loc 1 178 20
	add	a4,a4,a5
	li	a5,-1560199168
	addi	a5,a5,788
	add	a5,a4,a5
	sw	a5,-216(s0)
	.loc 1 178 120
	lw	a5,-216(s0)
	.loc 1 178 136
	srli	a4,a5,17
	slli	a5,a5,15
	add	a5,a5,a4
	.loc 1 178 193
	lw	a4,-212(s0)
	.loc 1 178 185
	add	a5,a5,a4
	.loc 1 178 109
	sw	a5,-216(s0)
	.loc 1 179 16
	lw	a4,-220(s0)
	.loc 1 179 31
	lw	a3,-212(s0)
	.loc 1 179 46
	lw	a2,-216(s0)
	.loc 1 179 61
	lw	a5,-224(s0)
	.loc 1 179 53
	not	a5,a5
	.loc 1 179 51
	or	a5,a2,a5
	.loc 1 179 36
	xor	a3,a3,a5
	.loc 1 179 77
	lw	a5,-236(s0)
	.loc 1 179 68
	add	a5,a3,a5
	.loc 1 179 20
	add	a4,a4,a5
	li	a5,1309151232
	addi	a5,a5,417
	add	a5,a4,a5
	sw	a5,-220(s0)
	.loc 1 179 121
	lw	a5,-220(s0)
	.loc 1 179 137
	srli	a4,a5,11
	slli	a5,a5,21
	add	a5,a5,a4
	.loc 1 179 194
	lw	a4,-216(s0)
	.loc 1 179 186
	add	a5,a5,a4
	.loc 1 179 110
	sw	a5,-220(s0)
	.loc 1 180 16
	lw	a4,-224(s0)
	.loc 1 180 31
	lw	a3,-216(s0)
	.loc 1 180 46
	lw	a2,-220(s0)
	.loc 1 180 61
	lw	a5,-212(s0)
	.loc 1 180 53
	not	a5,a5
	.loc 1 180 51
	or	a5,a2,a5
	.loc 1 180 36
	xor	a3,a3,a5
	.loc 1 180 77
	lw	a5,-272(s0)
	.loc 1 180 68
	add	a5,a3,a5
	.loc 1 180 20
	add	a4,a4,a5
	li	a5,-145522688
	addi	a5,a5,-382
	add	a5,a4,a5
	sw	a5,-224(s0)
	.loc 1 180 120
	lw	a5,-224(s0)
	.loc 1 180 135
	srli	a4,a5,26
	slli	a5,a5,6
	add	a5,a5,a4
	.loc 1 180 191
	lw	a4,-220(s0)
	.loc 1 180 183
	add	a5,a5,a4
	.loc 1 180 109
	sw	a5,-224(s0)
	.loc 1 181 16
	lw	a4,-212(s0)
	.loc 1 181 31
	lw	a3,-220(s0)
	.loc 1 181 46
	lw	a2,-224(s0)
	.loc 1 181 61
	lw	a5,-216(s0)
	.loc 1 181 53
	not	a5,a5
	.loc 1 181 51
	or	a5,a2,a5
	.loc 1 181 36
	xor	a3,a3,a5
	.loc 1 181 77
	lw	a5,-244(s0)
	.loc 1 181 68
	add	a5,a3,a5
	.loc 1 181 20
	add	a4,a4,a5
	li	a5,-1120210944
	addi	a5,a5,565
	add	a5,a4,a5
	sw	a5,-212(s0)
	.loc 1 181 121
	lw	a5,-212(s0)
	.loc 1 181 137
	srli	a4,a5,22
	slli	a5,a5,10
	add	a5,a5,a4
	.loc 1 181 194
	lw	a4,-224(s0)
	.loc 1 181 186
	add	a5,a5,a4
	.loc 1 181 110
	sw	a5,-212(s0)
	.loc 1 182 16
	lw	a4,-216(s0)
	.loc 1 182 31
	lw	a3,-224(s0)
	.loc 1 182 46
	lw	a2,-212(s0)
	.loc 1 182 61
	lw	a5,-220(s0)
	.loc 1 182 53
	not	a5,a5
	.loc 1 182 51
	or	a5,a2,a5
	.loc 1 182 36
	xor	a3,a3,a5
	.loc 1 182 77
	lw	a5,-280(s0)
	.loc 1 182 68
	add	a5,a3,a5
	.loc 1 182 20
	add	a4,a4,a5
	li	a5,718786560
	addi	a5,a5,699
	add	a5,a4,a5
	sw	a5,-216(s0)
	.loc 1 182 120
	lw	a5,-216(s0)
	.loc 1 182 136
	srli	a4,a5,17
	slli	a5,a5,15
	add	a5,a5,a4
	.loc 1 182 193
	lw	a4,-212(s0)
	.loc 1 182 185
	add	a5,a5,a4
	.loc 1 182 109
	sw	a5,-216(s0)
	.loc 1 183 16
	lw	a4,-220(s0)
	.loc 1 183 31
	lw	a3,-212(s0)
	.loc 1 183 46
	lw	a2,-216(s0)
	.loc 1 183 61
	lw	a5,-224(s0)
	.loc 1 183 53
	not	a5,a5
	.loc 1 183 51
	or	a5,a2,a5
	.loc 1 183 36
	xor	a3,a3,a5
	.loc 1 183 77
	lw	a5,-252(s0)
	.loc 1 183 68
	add	a5,a3,a5
	.loc 1 183 20
	add	a4,a4,a5
	li	a5,-343486464
	addi	a5,a5,913
	add	a5,a4,a5
	sw	a5,-220(s0)
	.loc 1 183 120
	lw	a5,-220(s0)
	.loc 1 183 136
	srli	a4,a5,11
	slli	a5,a5,21
	add	a5,a5,a4
	.loc 1 183 193
	lw	a4,-216(s0)
	.loc 1 183 185
	add	a5,a5,a4
	.loc 1 183 109
	sw	a5,-220(s0)
	.loc 1 187 15
	lw	a5,-292(s0)
	lw	a4,8(a5)
	.loc 1 187 27
	lw	a5,-224(s0)
	.loc 1 187 19
	add	a4,a4,a5
	lw	a5,-292(s0)
	sw	a4,8(a5)
	.loc 1 188 15
	lw	a5,-292(s0)
	lw	a4,12(a5)
	.loc 1 188 27
	lw	a5,-220(s0)
	.loc 1 188 19
	add	a4,a4,a5
	lw	a5,-292(s0)
	sw	a4,12(a5)
	.loc 1 189 15
	lw	a5,-292(s0)
	lw	a4,16(a5)
	.loc 1 189 27
	lw	a5,-216(s0)
	.loc 1 189 19
	add	a4,a4,a5
	lw	a5,-292(s0)
	sw	a4,16(a5)
	.loc 1 190 15
	lw	a5,-292(s0)
	lw	a4,20(a5)
	.loc 1 190 27
	lw	a5,-212(s0)
	.loc 1 190 19
	add	a4,a4,a5
	lw	a5,-292(s0)
	sw	a4,20(a5)
	.loc 1 193 5
	addi	a5,s0,-288
	li	a1,80
	mv	a0,a5
	call	mbedtls_platform_zeroize
	.loc 1 195 12
	li	a5,0
	.loc 1 196 1
	mv	a0,a5
	lw	ra,300(sp)
	.cfi_restore 1
	lw	s0,296(sp)
	.cfi_restore 8
	.cfi_def_cfa 2, 304
	addi	sp,sp,304
	.cfi_def_cfa_offset 0
	jr	ra
	.cfi_endproc
.LFE19:
	.size	mbedtls_internal_md5_process, .-mbedtls_internal_md5_process
	.section	.text.mbedtls_md5_update,"ax",@progbits
	.align	1
	.globl	mbedtls_md5_update
	.type	mbedtls_md5_update, @function
mbedtls_md5_update:
.LFB20:
	.loc 1 206 1
	.cfi_startproc
	addi	sp,sp,-48
	.cfi_def_cfa_offset 48
	sw	ra,44(sp)
	sw	s0,40(sp)
	.cfi_offset 1, -4
	.cfi_offset 8, -8
	addi	s0,sp,48
	.cfi_def_cfa 8, 0
	sw	a0,-36(s0)
	sw	a1,-40(s0)
	sw	a2,-44(s0)
	.loc 1 207 9
	li	a5,-110
	sw	a5,-24(s0)
	.loc 1 211 8
	lw	a5,-44(s0)
	bne	a5,zero,.L28
	.loc 1 212 16
	li	a5,0
	j	.L29
.L28:
	.loc 1 215 22
	lw	a5,-36(s0)
	lw	a5,0(a5)
	.loc 1 215 10
	andi	a5,a5,63
	sw	a5,-20(s0)
	.loc 1 216 10
	li	a4,64
	lw	a5,-20(s0)
	sub	a5,a4,a5
	sw	a5,-28(s0)
	.loc 1 218 15
	lw	a5,-36(s0)
	lw	a4,0(a5)
	.loc 1 218 19
	lw	a5,-44(s0)
	add	a4,a4,a5
	lw	a5,-36(s0)
	sw	a4,0(a5)
	.loc 1 219 15
	lw	a5,-36(s0)
	lw	a4,0(a5)
	.loc 1 219 19
	lw	a5,-36(s0)
	sw	a4,0(a5)
	.loc 1 221 19
	lw	a5,-36(s0)
	lw	a5,0(a5)
	.loc 1 221 8
	lw	a4,-44(s0)
	bleu	a4,a5,.L30
	.loc 1 222 19
	lw	a5,-36(s0)
	lw	a5,4(a5)
	.loc 1 222 22
	addi	a4,a5,1
	lw	a5,-36(s0)
	sw	a4,4(a5)
.L30:
	.loc 1 225 8
	lw	a5,-20(s0)
	beq	a5,zero,.L33
	.loc 1 225 14 discriminator 1
	lw	a4,-44(s0)
	lw	a5,-28(s0)
	bltu	a4,a5,.L33
	.loc 1 226 26
	lw	a5,-36(s0)
	addi	a4,a5,24
	.loc 1 226 9
	lw	a5,-20(s0)
	add	a5,a4,a5
	lw	a2,-28(s0)
	lw	a1,-40(s0)
	mv	a0,a5
	call	memcpy
	.loc 1 227 57
	lw	a5,-36(s0)
	addi	a5,a5,24
	.loc 1 227 20
	mv	a1,a5
	lw	a0,-36(s0)
	call	mbedtls_internal_md5_process
	sw	a0,-24(s0)
	.loc 1 227 12 discriminator 1
	lw	a5,-24(s0)
	beq	a5,zero,.L32
	.loc 1 228 20
	lw	a5,-24(s0)
	j	.L29
.L32:
	.loc 1 231 15
	lw	a4,-40(s0)
	lw	a5,-28(s0)
	add	a5,a4,a5
	sw	a5,-40(s0)
	.loc 1 232 14
	lw	a4,-44(s0)
	lw	a5,-28(s0)
	sub	a5,a4,a5
	sw	a5,-44(s0)
	.loc 1 233 14
	sw	zero,-20(s0)
	.loc 1 236 11
	j	.L33
.L35:
	.loc 1 237 20
	lw	a1,-40(s0)
	lw	a0,-36(s0)
	call	mbedtls_internal_md5_process
	sw	a0,-24(s0)
	.loc 1 237 12 discriminator 1
	lw	a5,-24(s0)
	beq	a5,zero,.L34
	.loc 1 238 20
	lw	a5,-24(s0)
	j	.L29
.L34:
	.loc 1 241 15
	lw	a5,-40(s0)
	addi	a5,a5,64
	sw	a5,-40(s0)
	.loc 1 242 14
	lw	a5,-44(s0)
	addi	a5,a5,-64
	sw	a5,-44(s0)
.L33:
	.loc 1 236 17
	lw	a4,-44(s0)
	li	a5,63
	bgtu	a4,a5,.L35
	.loc 1 245 8
	lw	a5,-44(s0)
	beq	a5,zero,.L36
	.loc 1 246 26
	lw	a5,-36(s0)
	addi	a4,a5,24
	.loc 1 246 9
	lw	a5,-20(s0)
	add	a5,a4,a5
	lw	a2,-44(s0)
	lw	a1,-40(s0)
	mv	a0,a5
	call	memcpy
.L36:
	.loc 1 249 12
	li	a5,0
.L29:
	.loc 1 250 1
	mv	a0,a5
	lw	ra,44(sp)
	.cfi_restore 1
	lw	s0,40(sp)
	.cfi_restore 8
	.cfi_def_cfa 2, 48
	addi	sp,sp,48
	.cfi_def_cfa_offset 0
	jr	ra
	.cfi_endproc
.LFE20:
	.size	mbedtls_md5_update, .-mbedtls_md5_update
	.section	.text.mbedtls_md5_finish,"ax",@progbits
	.align	1
	.globl	mbedtls_md5_finish
	.type	mbedtls_md5_finish, @function
mbedtls_md5_finish:
.LFB21:
	.loc 1 257 1
	.cfi_startproc
	addi	sp,sp,-128
	.cfi_def_cfa_offset 128
	sw	ra,124(sp)
	sw	s0,120(sp)
	.cfi_offset 1, -4
	.cfi_offset 8, -8
	addi	s0,sp,128
	.cfi_def_cfa 8, 0
	sw	a0,-116(s0)
	sw	a1,-120(s0)
	.loc 1 258 9
	li	a5,-110
	sw	a5,-28(s0)
	.loc 1 265 22
	lw	a5,-116(s0)
	lw	a5,0(a5)
	.loc 1 265 10
	andi	a5,a5,63
	sw	a5,-32(s0)
	.loc 1 267 21
	lw	a5,-32(s0)
	addi	a4,a5,1
	sw	a4,-32(s0)
	.loc 1 267 25
	lw	a4,-116(s0)
	add	a5,a4,a5
	li	a4,-128
	sb	a4,24(a5)
	.loc 1 269 8
	lw	a4,-32(s0)
	li	a5,56
	bgtu	a4,a5,.L38
	.loc 1 271 16
	lw	a5,-116(s0)
	addi	a4,a5,24
	.loc 1 271 9
	lw	a5,-32(s0)
	add	a3,a4,a5
	.loc 1 271 42
	li	a4,56
	lw	a5,-32(s0)
	sub	a5,a4,a5
	.loc 1 271 9
	mv	a2,a5
	li	a1,0
	mv	a0,a3
	call	memset
	j	.L39
.L38:
	.loc 1 274 16
	lw	a5,-116(s0)
	addi	a4,a5,24
	.loc 1 274 9
	lw	a5,-32(s0)
	add	a3,a4,a5
	.loc 1 274 42
	li	a4,64
	lw	a5,-32(s0)
	sub	a5,a4,a5
	.loc 1 274 9
	mv	a2,a5
	li	a1,0
	mv	a0,a3
	call	memset
	.loc 1 276 57
	lw	a5,-116(s0)
	addi	a5,a5,24
	.loc 1 276 20
	mv	a1,a5
	lw	a0,-116(s0)
	call	mbedtls_internal_md5_process
	sw	a0,-28(s0)
	.loc 1 276 12 discriminator 1
	lw	a5,-28(s0)
	bne	a5,zero,.L44
	.loc 1 280 19
	lw	a5,-116(s0)
	addi	a5,a5,24
	.loc 1 280 9
	li	a2,56
	li	a1,0
	mv	a0,a5
	call	memset
.L39:
	.loc 1 286 23
	lw	a5,-116(s0)
	lw	a5,0(a5)
	.loc 1 286 27
	srli	a4,a5,29
	.loc 1 287 25
	lw	a5,-116(s0)
	lw	a5,4(a5)
	.loc 1 287 29
	slli	a5,a5,3
	.loc 1 286 10
	or	a5,a4,a5
	sw	a5,-20(s0)
	.loc 1 288 22
	lw	a5,-116(s0)
	lw	a5,0(a5)
	.loc 1 288 9
	slli	a5,a5,3
	sw	a5,-24(s0)
	.loc 1 290 143 discriminator 2
	lw	a5,-116(s0)
	addi	a5,a5,24
	.loc 1 290 114 discriminator 2
	addi	a5,a5,56
	sw	a5,-40(s0)
	lw	a5,-24(s0)
	sw	a5,-36(s0)
.LBB78:
.LBB79:
	.loc 2 200 33
	lw	a5,-40(s0)
	sw	a5,-44(s0)
	.loc 2 201 12
	lw	a5,-44(s0)
	lw	a4,-36(s0)
	andi	a4,a4,255
	lbu	a3,0(a5)
	andi	a3,a3,0
	or	a4,a3,a4
	sb	a4,0(a5)
	lw	a4,-36(s0)
	srli	a4,a4,8
	andi	a4,a4,255
	lbu	a3,1(a5)
	andi	a3,a3,0
	or	a4,a3,a4
	sb	a4,1(a5)
	lw	a4,-36(s0)
	srli	a4,a4,16
	andi	a4,a4,255
	lbu	a3,2(a5)
	andi	a3,a3,0
	or	a4,a3,a4
	sb	a4,2(a5)
	lw	a4,-36(s0)
	srli	a4,a4,24
	lbu	a3,3(a5)
	andi	a3,a3,0
	or	a4,a3,a4
	sb	a4,3(a5)
	.loc 2 205 1
	nop
.LBE79:
.LBE78:
	.loc 1 291 144 discriminator 2
	lw	a5,-116(s0)
	addi	a5,a5,24
	.loc 1 291 115 discriminator 2
	addi	a5,a5,60
	sw	a5,-48(s0)
	lw	a5,-20(s0)
	sw	a5,-52(s0)
.LBB80:
.LBB81:
	.loc 2 200 33
	lw	a5,-48(s0)
	sw	a5,-56(s0)
	.loc 2 201 12
	lw	a5,-56(s0)
	lw	a4,-52(s0)
	andi	a4,a4,255
	lbu	a3,0(a5)
	andi	a3,a3,0
	or	a4,a3,a4
	sb	a4,0(a5)
	lw	a4,-52(s0)
	srli	a4,a4,8
	andi	a4,a4,255
	lbu	a3,1(a5)
	andi	a3,a3,0
	or	a4,a3,a4
	sb	a4,1(a5)
	lw	a4,-52(s0)
	srli	a4,a4,16
	andi	a4,a4,255
	lbu	a3,2(a5)
	andi	a3,a3,0
	or	a4,a3,a4
	sb	a4,2(a5)
	lw	a4,-52(s0)
	srli	a4,a4,24
	lbu	a3,3(a5)
	andi	a3,a3,0
	or	a4,a3,a4
	sb	a4,3(a5)
	.loc 2 205 1
	nop
.LBE81:
.LBE80:
	.loc 1 293 53
	lw	a5,-116(s0)
	addi	a5,a5,24
	.loc 1 293 16
	mv	a1,a5
	lw	a0,-116(s0)
	call	mbedtls_internal_md5_process
	sw	a0,-28(s0)
	.loc 1 293 8 discriminator 1
	lw	a5,-28(s0)
	bne	a5,zero,.L45
	.loc 1 300 118 discriminator 2
	lw	a5,-116(s0)
	lw	a5,8(a5)
	lw	a4,-120(s0)
	sw	a4,-60(s0)
	sw	a5,-64(s0)
.LBB82:
.LBB83:
	.loc 2 200 33
	lw	a5,-60(s0)
	sw	a5,-68(s0)
	.loc 2 201 12
	lw	a5,-68(s0)
	lw	a4,-64(s0)
	andi	a4,a4,255
	lbu	a3,0(a5)
	andi	a3,a3,0
	or	a4,a3,a4
	sb	a4,0(a5)
	lw	a4,-64(s0)
	srli	a4,a4,8
	andi	a4,a4,255
	lbu	a3,1(a5)
	andi	a3,a3,0
	or	a4,a3,a4
	sb	a4,1(a5)
	lw	a4,-64(s0)
	srli	a4,a4,16
	andi	a4,a4,255
	lbu	a3,2(a5)
	andi	a3,a3,0
	or	a4,a3,a4
	sb	a4,2(a5)
	lw	a4,-64(s0)
	srli	a4,a4,24
	lbu	a3,3(a5)
	andi	a3,a3,0
	or	a4,a3,a4
	sb	a4,3(a5)
	.loc 2 205 1
	nop
.LBE83:
.LBE82:
	.loc 1 301 156 discriminator 2
	lw	a5,-120(s0)
	addi	a4,a5,4
	.loc 1 301 118 discriminator 2
	lw	a5,-116(s0)
	lw	a5,12(a5)
	sw	a4,-72(s0)
	sw	a5,-76(s0)
.LBB84:
.LBB85:
	.loc 2 200 33
	lw	a5,-72(s0)
	sw	a5,-80(s0)
	.loc 2 201 12
	lw	a5,-80(s0)
	lw	a4,-76(s0)
	andi	a4,a4,255
	lbu	a3,0(a5)
	andi	a3,a3,0
	or	a4,a3,a4
	sb	a4,0(a5)
	lw	a4,-76(s0)
	srli	a4,a4,8
	andi	a4,a4,255
	lbu	a3,1(a5)
	andi	a3,a3,0
	or	a4,a3,a4
	sb	a4,1(a5)
	lw	a4,-76(s0)
	srli	a4,a4,16
	andi	a4,a4,255
	lbu	a3,2(a5)
	andi	a3,a3,0
	or	a4,a3,a4
	sb	a4,2(a5)
	lw	a4,-76(s0)
	srli	a4,a4,24
	lbu	a3,3(a5)
	andi	a3,a3,0
	or	a4,a3,a4
	sb	a4,3(a5)
	.loc 2 205 1
	nop
.LBE85:
.LBE84:
	.loc 1 302 156 discriminator 2
	lw	a5,-120(s0)
	addi	a4,a5,8
	.loc 1 302 118 discriminator 2
	lw	a5,-116(s0)
	lw	a5,16(a5)
	sw	a4,-84(s0)
	sw	a5,-88(s0)
.LBB86:
.LBB87:
	.loc 2 200 33
	lw	a5,-84(s0)
	sw	a5,-92(s0)
	.loc 2 201 12
	lw	a5,-92(s0)
	lw	a4,-88(s0)
	andi	a4,a4,255
	lbu	a3,0(a5)
	andi	a3,a3,0
	or	a4,a3,a4
	sb	a4,0(a5)
	lw	a4,-88(s0)
	srli	a4,a4,8
	andi	a4,a4,255
	lbu	a3,1(a5)
	andi	a3,a3,0
	or	a4,a3,a4
	sb	a4,1(a5)
	lw	a4,-88(s0)
	srli	a4,a4,16
	andi	a4,a4,255
	lbu	a3,2(a5)
	andi	a3,a3,0
	or	a4,a3,a4
	sb	a4,2(a5)
	lw	a4,-88(s0)
	srli	a4,a4,24
	lbu	a3,3(a5)
	andi	a3,a3,0
	or	a4,a3,a4
	sb	a4,3(a5)
	.loc 2 205 1
	nop
.LBE87:
.LBE86:
	.loc 1 303 157 discriminator 2
	lw	a5,-120(s0)
	addi	a4,a5,12
	.loc 1 303 119 discriminator 2
	lw	a5,-116(s0)
	lw	a5,20(a5)
	sw	a4,-96(s0)
	sw	a5,-100(s0)
.LBB88:
.LBB89:
	.loc 2 200 33
	lw	a5,-96(s0)
	sw	a5,-104(s0)
	.loc 2 201 12
	lw	a5,-104(s0)
	lw	a4,-100(s0)
	andi	a4,a4,255
	lbu	a3,0(a5)
	andi	a3,a3,0
	or	a4,a3,a4
	sb	a4,0(a5)
	lw	a4,-100(s0)
	srli	a4,a4,8
	andi	a4,a4,255
	lbu	a3,1(a5)
	andi	a3,a3,0
	or	a4,a3,a4
	sb	a4,1(a5)
	lw	a4,-100(s0)
	srli	a4,a4,16
	andi	a4,a4,255
	lbu	a3,2(a5)
	andi	a3,a3,0
	or	a4,a3,a4
	sb	a4,2(a5)
	lw	a4,-100(s0)
	srli	a4,a4,24
	lbu	a3,3(a5)
	andi	a3,a3,0
	or	a4,a3,a4
	sb	a4,3(a5)
	.loc 2 205 1
	nop
.LBE89:
.LBE88:
	.loc 1 305 9
	sw	zero,-28(s0)
	j	.L41
.L44:
	.loc 1 277 13
	nop
	j	.L41
.L45:
	.loc 1 294 9
	nop
.L41:
	.loc 1 308 5
	lw	a0,-116(s0)
	call	mbedtls_md5_free
	.loc 1 309 12
	lw	a5,-28(s0)
	.loc 1 310 1
	mv	a0,a5
	lw	ra,124(sp)
	.cfi_restore 1
	lw	s0,120(sp)
	.cfi_restore 8
	.cfi_def_cfa 2, 128
	addi	sp,sp,128
	.cfi_def_cfa_offset 0
	jr	ra
	.cfi_endproc
.LFE21:
	.size	mbedtls_md5_finish, .-mbedtls_md5_finish
	.section	.text.mbedtls_md5,"ax",@progbits
	.align	1
	.globl	mbedtls_md5
	.type	mbedtls_md5, @function
mbedtls_md5:
.LFB22:
	.loc 1 320 1
	.cfi_startproc
	addi	sp,sp,-128
	.cfi_def_cfa_offset 128
	sw	ra,124(sp)
	sw	s0,120(sp)
	.cfi_offset 1, -4
	.cfi_offset 8, -8
	addi	s0,sp,128
	.cfi_def_cfa 8, 0
	sw	a0,-116(s0)
	sw	a1,-120(s0)
	sw	a2,-124(s0)
	.loc 1 321 9
	li	a5,-110
	sw	a5,-20(s0)
	.loc 1 324 5
	addi	a5,s0,-108
	mv	a0,a5
	call	mbedtls_md5_init
	.loc 1 326 16
	addi	a5,s0,-108
	mv	a0,a5
	call	mbedtls_md5_starts
	sw	a0,-20(s0)
	.loc 1 326 8 discriminator 1
	lw	a5,-20(s0)
	bne	a5,zero,.L51
	.loc 1 330 16
	addi	a5,s0,-108
	lw	a2,-120(s0)
	lw	a1,-116(s0)
	mv	a0,a5
	call	mbedtls_md5_update
	sw	a0,-20(s0)
	.loc 1 330 8 discriminator 1
	lw	a5,-20(s0)
	bne	a5,zero,.L52
	.loc 1 334 16
	addi	a5,s0,-108
	lw	a1,-124(s0)
	mv	a0,a5
	call	mbedtls_md5_finish
	sw	a0,-20(s0)
	.loc 1 338 1
	j	.L48
.L51:
	.loc 1 327 9
	nop
	j	.L48
.L52:
	.loc 1 331 9
	nop
.L48:
	.loc 1 339 5
	addi	a5,s0,-108
	mv	a0,a5
	call	mbedtls_md5_free
	.loc 1 341 12
	lw	a5,-20(s0)
	.loc 1 342 1
	mv	a0,a5
	lw	ra,124(sp)
	.cfi_restore 1
	lw	s0,120(sp)
	.cfi_restore 8
	.cfi_def_cfa 2, 128
	addi	sp,sp,128
	.cfi_def_cfa_offset 0
	jr	ra
	.cfi_endproc
.LFE22:
	.size	mbedtls_md5, .-mbedtls_md5
	.section	.rodata.md5_test_buf,"a"
	.align	2
	.type	md5_test_buf, @object
	.size	md5_test_buf, 567
md5_test_buf:
	.string	""
	.zero	80
	.string	"a"
	.zero	79
	.string	"abc"
	.zero	77
	.string	"message digest"
	.zero	66
	.string	"abcdefghijklmnopqrstuvwxyz"
	.zero	54
	.string	"ABCDEFGHIJKLMNOPQRSTUVWXYZabcdefghijklmnopqrstuvwxyz0123456789"
	.zero	18
	.string	"12345678901234567890123456789012345678901234567890123456789012345678901234567890"
	.section	.rodata.md5_test_buflen,"a"
	.align	2
	.type	md5_test_buflen, @object
	.size	md5_test_buflen, 28
md5_test_buflen:
	.word	0
	.word	1
	.word	3
	.word	14
	.word	26
	.word	62
	.word	80
	.section	.rodata.md5_test_sum,"a"
	.align	2
	.type	md5_test_sum, @object
	.size	md5_test_sum, 112
md5_test_sum:
	.base64	"1B2M2Y8AsgTpgAmY7PhCfg=="
	.base64	"DMF1ucDxtqgxw5niaXcmYQ=="
	.base64	"kAFQmDzST7DWlj99KOF/cg=="
	.base64	"+WtpfXy3k41SWi8xqvFh0A=="
	.base64	"w/zT12GS5AB9+0lsymfhOw=="
	.base64	"0XSrmNJ32fWlYRwsn0Gdnw=="
	.base64	"V+30oivjyVWsSdouIQe2eg=="
	.section	.rodata
	.align	2
.LC0:
	.string	"  MD5 test #%d: "
	.align	2
.LC1:
	.string	"passed\n"
	.align	2
.LC2:
	.string	"\n"
	.align	2
.LC3:
	.string	"failed\n"
	.section	.text.mbedtls_md5_self_test,"ax",@progbits
	.align	1
	.globl	mbedtls_md5_self_test
	.type	mbedtls_md5_self_test, @function
mbedtls_md5_self_test:
.LFB23:
	.loc 1 386 1
	.cfi_startproc
	addi	sp,sp,-64
	.cfi_def_cfa_offset 64
	sw	ra,60(sp)
	sw	s0,56(sp)
	.cfi_offset 1, -4
	.cfi_offset 8, -8
	addi	s0,sp,64
	.cfi_def_cfa 8, 0
	sw	a0,-52(s0)
	.loc 1 387 12
	sw	zero,-24(s0)
	.loc 1 390 12
	sw	zero,-20(s0)
	.loc 1 390 5
	j	.L54
.L60:
	.loc 1 391 12
	lw	a5,-52(s0)
	beq	a5,zero,.L55
	.loc 1 392 13
	lw	a5,-20(s0)
	addi	a5,a5,1
	mv	a1,a5
	lui	a5,%hi(.LC0)
	addi	a0,a5,%lo(.LC0)
	call	printf
.L55:
	.loc 1 395 39
	lw	a4,-20(s0)
	mv	a5,a4
	slli	a5,a5,2
	add	a5,a5,a4
	slli	a5,a5,4
	add	a5,a5,a4
	lui	a4,%hi(md5_test_buf)
	addi	a4,a4,%lo(md5_test_buf)
	add	a3,a5,a4
	.loc 1 395 59
	lui	a5,%hi(md5_test_buflen)
	addi	a4,a5,%lo(md5_test_buflen)
	lw	a5,-20(s0)
	slli	a5,a5,2
	add	a5,a4,a5
	lw	a5,0(a5)
	.loc 1 395 15
	addi	a4,s0,-40
	mv	a2,a4
	mv	a1,a5
	mv	a0,a3
	call	mbedtls_md5
	sw	a0,-24(s0)
	.loc 1 396 12
	lw	a5,-24(s0)
	bne	a5,zero,.L65
	.loc 1 400 40
	lw	a5,-20(s0)
	slli	a4,a5,4
	lui	a5,%hi(md5_test_sum)
	addi	a5,a5,%lo(md5_test_sum)
	add	a4,a4,a5
	.loc 1 400 13
	addi	a5,s0,-40
	li	a2,16
	mv	a1,a4
	mv	a0,a5
	call	memcmp
	mv	a5,a0
	.loc 1 400 12 discriminator 1
	beq	a5,zero,.L58
	.loc 1 401 17
	li	a5,1
	sw	a5,-24(s0)
	.loc 1 402 13
	j	.L57
.L58:
	.loc 1 405 12
	lw	a5,-52(s0)
	beq	a5,zero,.L59
	.loc 1 406 13
	lui	a5,%hi(.LC1)
	addi	a0,a5,%lo(.LC1)
	call	printf
.L59:
	.loc 1 390 25 discriminator 2
	lw	a5,-20(s0)
	addi	a5,a5,1
	sw	a5,-20(s0)
.L54:
	.loc 1 390 19 discriminator 1
	lw	a4,-20(s0)
	li	a5,6
	ble	a4,a5,.L60
	.loc 1 410 8
	lw	a5,-52(s0)
	beq	a5,zero,.L61
	.loc 1 411 9
	lui	a5,%hi(.LC2)
	addi	a0,a5,%lo(.LC2)
	call	printf
.L61:
	.loc 1 414 12
	li	a5,0
	j	.L64
.L65:
	.loc 1 397 13
	nop
.L57:
	.loc 1 417 8
	lw	a5,-52(s0)
	beq	a5,zero,.L63
	.loc 1 418 9
	lui	a5,%hi(.LC3)
	addi	a0,a5,%lo(.LC3)
	call	printf
.L63:
	.loc 1 421 12
	lw	a5,-24(s0)
.L64:
	.loc 1 422 1
	mv	a0,a5
	lw	ra,60(sp)
	.cfi_restore 1
	lw	s0,56(sp)
	.cfi_restore 8
	.cfi_def_cfa 2, 64
	addi	sp,sp,64
	.cfi_def_cfa_offset 0
	jr	ra
	.cfi_endproc
.LFE23:
	.size	mbedtls_md5_self_test, .-mbedtls_md5_self_test
	.text
.Letext0:
	.file 3 "/home/chandu/sdk/bl602_iot_sdk/toolchain/compiler/lib/gcc/riscv32-unknown-elf/15.1.0/include/stddef.h"
	.file 4 "/home/chandu/sdk/bl602_iot_sdk/toolchain/compiler/lib/gcc/riscv32-unknown-elf/15.1.0/include/stdint-gcc.h"
	.file 5 "/home/chandu/sdk/bl602_iot_sdk/components/security/mbedtls-bl602/include/mbedtls/md5.h"
	.file 6 "/home/chandu/sdk/bl602_iot_sdk/toolchain/compiler/riscv32-unknown-elf/include/string.h"
	.file 7 "/home/chandu/sdk/bl602_iot_sdk/toolchain/compiler/riscv32-unknown-elf/include/stdio.h"
	.file 8 "/home/chandu/sdk/bl602_iot_sdk/components/security/mbedtls-bl602/include/mbedtls/platform_util.h"
	.section	.note.GNU-stack,"",@progbits
