	.file	"pk.c"
	.option nopic
	.attribute arch, "rv32i2p1_m2p0_f2p2_c2p0_zicsr2p0_zmmul1p0_zca1p0_zcf1p0"
	.attribute unaligned_access, 0
	.attribute stack_align, 16
	.text
.Ltext0:
	.cfi_sections	.debug_frame
	.file 0 "/home/chandu/sdk/bl602_iot_sdk/customer_app/suas_app_pqkem_gateway/build_out/mbedtls-bl602" "/home/chandu/sdk/bl602_iot_sdk/components/security/mbedtls-bl602/library/pk.c"
	.section	.text.mbedtls_md_get_size_from_type,"ax",@progbits
	.align	1
	.type	mbedtls_md_get_size_from_type, @function
mbedtls_md_get_size_from_type:
.LFB11:
	.file 1 "/home/chandu/sdk/bl602_iot_sdk/components/security/mbedtls-bl602/include/mbedtls/md.h"
	.loc 1 247 1
	.cfi_startproc
	addi	sp,sp,-32
	.cfi_def_cfa_offset 32
	sw	ra,28(sp)
	sw	s0,24(sp)
	.cfi_offset 1, -4
	.cfi_offset 8, -8
	addi	s0,sp,32
	.cfi_def_cfa 8, 0
	mv	a5,a0
	sb	a5,-17(s0)
	.loc 1 248 12
	lbu	a5,-17(s0)
	mv	a0,a5
	call	mbedtls_md_info_from_type
	mv	a5,a0
	.loc 1 248 12 is_stmt 0 discriminator 1
	mv	a0,a5
	call	mbedtls_md_get_size
	mv	a5,a0
	.loc 1 249 1 is_stmt 1
	mv	a0,a5
	lw	ra,28(sp)
	.cfi_restore 1
	lw	s0,24(sp)
	.cfi_restore 8
	.cfi_def_cfa 2, 32
	addi	sp,sp,32
	.cfi_def_cfa_offset 0
	jr	ra
	.cfi_endproc
.LFE11:
	.size	mbedtls_md_get_size_from_type, .-mbedtls_md_get_size_from_type
	.section	.text.psa_extend_key_usage_flags,"ax",@progbits
	.align	1
	.type	psa_extend_key_usage_flags, @function
psa_extend_key_usage_flags:
.LFB42:
	.file 2 "/home/chandu/sdk/bl602_iot_sdk/components/security/mbedtls-bl602/include/psa/crypto_struct.h"
	.loc 2 384 1
	.cfi_startproc
	addi	sp,sp,-32
	.cfi_def_cfa_offset 32
	sw	ra,28(sp)
	sw	s0,24(sp)
	.cfi_offset 1, -4
	.cfi_offset 8, -8
	addi	s0,sp,32
	.cfi_def_cfa 8, 0
	sw	a0,-20(s0)
	.loc 2 385 9
	lw	a5,-20(s0)
	lw	a4,0(a5)
	.loc 2 385 22
	li	a5,4096
	and	a5,a4,a5
	.loc 2 385 8
	beq	a5,zero,.L4
	.loc 2 386 9
	lw	a5,-20(s0)
	lw	a5,0(a5)
	.loc 2 386 22
	ori	a4,a5,1024
	lw	a5,-20(s0)
	sw	a4,0(a5)
.L4:
	.loc 2 389 9
	lw	a5,-20(s0)
	lw	a4,0(a5)
	.loc 2 389 22
	li	a5,8192
	and	a5,a4,a5
	.loc 2 389 8
	beq	a5,zero,.L6
	.loc 2 390 9
	lw	a5,-20(s0)
	lw	a4,0(a5)
	.loc 2 390 22
	li	a5,4096
	addi	a5,a5,-2048
	or	a4,a4,a5
	lw	a5,-20(s0)
	sw	a4,0(a5)
.L6:
	.loc 2 392 1
	nop
	lw	ra,28(sp)
	.cfi_restore 1
	lw	s0,24(sp)
	.cfi_restore 8
	.cfi_def_cfa 2, 32
	addi	sp,sp,32
	.cfi_def_cfa_offset 0
	jr	ra
	.cfi_endproc
.LFE42:
	.size	psa_extend_key_usage_flags, .-psa_extend_key_usage_flags
	.section	.text.psa_set_key_usage_flags,"ax",@progbits
	.align	1
	.type	psa_set_key_usage_flags, @function
psa_set_key_usage_flags:
.LFB43:
	.loc 2 396 1
	.cfi_startproc
	addi	sp,sp,-32
	.cfi_def_cfa_offset 32
	sw	ra,28(sp)
	sw	s0,24(sp)
	.cfi_offset 1, -4
	.cfi_offset 8, -8
	addi	s0,sp,32
	.cfi_def_cfa 8, 0
	sw	a0,-20(s0)
	sw	a1,-24(s0)
	.loc 2 397 5
	addi	a5,s0,-24
	mv	a0,a5
	call	psa_extend_key_usage_flags
	.loc 2 398 30
	lw	a4,-24(s0)
	lw	a5,-20(s0)
	sw	a4,8(a5)
	.loc 2 399 1
	nop
	lw	ra,28(sp)
	.cfi_restore 1
	lw	s0,24(sp)
	.cfi_restore 8
	.cfi_def_cfa 2, 32
	addi	sp,sp,32
	.cfi_def_cfa_offset 0
	jr	ra
	.cfi_endproc
.LFE43:
	.size	psa_set_key_usage_flags, .-psa_set_key_usage_flags
	.section	.text.psa_set_key_algorithm,"ax",@progbits
	.align	1
	.type	psa_set_key_algorithm, @function
psa_set_key_algorithm:
.LFB45:
	.loc 2 409 1
	.cfi_startproc
	addi	sp,sp,-32
	.cfi_def_cfa_offset 32
	sw	ra,28(sp)
	sw	s0,24(sp)
	.cfi_offset 1, -4
	.cfi_offset 8, -8
	addi	s0,sp,32
	.cfi_def_cfa 8, 0
	sw	a0,-20(s0)
	sw	a1,-24(s0)
	.loc 2 410 28
	lw	a5,-20(s0)
	lw	a4,-24(s0)
	sw	a4,12(a5)
	.loc 2 411 1
	nop
	lw	ra,28(sp)
	.cfi_restore 1
	lw	s0,24(sp)
	.cfi_restore 8
	.cfi_def_cfa 2, 32
	addi	sp,sp,32
	.cfi_def_cfa_offset 0
	jr	ra
	.cfi_endproc
.LFE45:
	.size	psa_set_key_algorithm, .-psa_set_key_algorithm
	.section	.text.psa_get_key_algorithm,"ax",@progbits
	.align	1
	.type	psa_get_key_algorithm, @function
psa_get_key_algorithm:
.LFB46:
	.loc 2 415 1
	.cfi_startproc
	addi	sp,sp,-32
	.cfi_def_cfa_offset 32
	sw	ra,28(sp)
	sw	s0,24(sp)
	.cfi_offset 1, -4
	.cfi_offset 8, -8
	addi	s0,sp,32
	.cfi_def_cfa 8, 0
	sw	a0,-20(s0)
	.loc 2 416 30
	lw	a5,-20(s0)
	lw	a5,12(a5)
	.loc 2 417 1
	mv	a0,a5
	lw	ra,28(sp)
	.cfi_restore 1
	lw	s0,24(sp)
	.cfi_restore 8
	.cfi_def_cfa 2, 32
	addi	sp,sp,32
	.cfi_def_cfa_offset 0
	jr	ra
	.cfi_endproc
.LFE46:
	.size	psa_get_key_algorithm, .-psa_get_key_algorithm
	.section	.text.psa_set_key_type,"ax",@progbits
	.align	1
	.type	psa_set_key_type, @function
psa_set_key_type:
.LFB47:
	.loc 2 421 1
	.cfi_startproc
	addi	sp,sp,-32
	.cfi_def_cfa_offset 32
	sw	ra,28(sp)
	sw	s0,24(sp)
	.cfi_offset 1, -4
	.cfi_offset 8, -8
	addi	s0,sp,32
	.cfi_def_cfa 8, 0
	sw	a0,-20(s0)
	mv	a5,a1
	sh	a5,-22(s0)
	.loc 2 422 22
	lw	a5,-20(s0)
	lhu	a4,-22(s0)
	sh	a4,0(a5)
	.loc 2 423 1
	nop
	lw	ra,28(sp)
	.cfi_restore 1
	lw	s0,24(sp)
	.cfi_restore 8
	.cfi_def_cfa 2, 32
	addi	sp,sp,32
	.cfi_def_cfa_offset 0
	jr	ra
	.cfi_endproc
.LFE47:
	.size	psa_set_key_type, .-psa_set_key_type
	.section	.text.psa_get_key_type,"ax",@progbits
	.align	1
	.type	psa_get_key_type, @function
psa_get_key_type:
.LFB48:
	.loc 2 427 1
	.cfi_startproc
	addi	sp,sp,-32
	.cfi_def_cfa_offset 32
	sw	ra,28(sp)
	sw	s0,24(sp)
	.cfi_offset 1, -4
	.cfi_offset 8, -8
	addi	s0,sp,32
	.cfi_def_cfa 8, 0
	sw	a0,-20(s0)
	.loc 2 428 22
	lw	a5,-20(s0)
	lhu	a5,0(a5)
	.loc 2 429 1
	mv	a0,a5
	lw	ra,28(sp)
	.cfi_restore 1
	lw	s0,24(sp)
	.cfi_restore 8
	.cfi_def_cfa 2, 32
	addi	sp,sp,32
	.cfi_def_cfa_offset 0
	jr	ra
	.cfi_endproc
.LFE48:
	.size	psa_get_key_type, .-psa_get_key_type
	.section	.text.psa_set_key_bits,"ax",@progbits
	.align	1
	.type	psa_set_key_bits, @function
psa_set_key_bits:
.LFB49:
	.loc 2 433 1
	.cfi_startproc
	addi	sp,sp,-32
	.cfi_def_cfa_offset 32
	sw	ra,28(sp)
	sw	s0,24(sp)
	.cfi_offset 1, -4
	.cfi_offset 8, -8
	addi	s0,sp,32
	.cfi_def_cfa 8, 0
	sw	a0,-20(s0)
	sw	a1,-24(s0)
	.loc 2 434 8
	lw	a4,-24(s0)
	li	a5,65536
	addi	a5,a5,-8
	bleu	a4,a5,.L15
	.loc 2 435 26
	lw	a5,-20(s0)
	li	a4,-1
	sh	a4,2(a5)
	.loc 2 439 1
	j	.L17
.L15:
	.loc 2 437 28
	lw	a5,-24(s0)
	slli	a4,a5,16
	srli	a4,a4,16
	.loc 2 437 26
	lw	a5,-20(s0)
	sh	a4,2(a5)
.L17:
	.loc 2 439 1
	nop
	lw	ra,28(sp)
	.cfi_restore 1
	lw	s0,24(sp)
	.cfi_restore 8
	.cfi_def_cfa 2, 32
	addi	sp,sp,32
	.cfi_def_cfa_offset 0
	jr	ra
	.cfi_endproc
.LFE49:
	.size	psa_set_key_bits, .-psa_set_key_bits
	.section	.text.psa_get_key_bits,"ax",@progbits
	.align	1
	.type	psa_get_key_bits, @function
psa_get_key_bits:
.LFB50:
	.loc 2 443 1
	.cfi_startproc
	addi	sp,sp,-32
	.cfi_def_cfa_offset 32
	sw	ra,28(sp)
	sw	s0,24(sp)
	.cfi_offset 1, -4
	.cfi_offset 8, -8
	addi	s0,sp,32
	.cfi_def_cfa 8, 0
	sw	a0,-20(s0)
	.loc 2 444 22
	lw	a5,-20(s0)
	lhu	a5,2(a5)
	.loc 2 445 1
	mv	a0,a5
	lw	ra,28(sp)
	.cfi_restore 1
	lw	s0,24(sp)
	.cfi_restore 8
	.cfi_def_cfa 2, 32
	addi	sp,sp,32
	.cfi_def_cfa_offset 0
	jr	ra
	.cfi_endproc
.LFE50:
	.size	psa_get_key_bits, .-psa_get_key_bits
	.section	.text.psa_set_key_enrollment_algorithm,"ax",@progbits
	.align	1
	.type	psa_set_key_enrollment_algorithm, @function
psa_set_key_enrollment_algorithm:
.LFB54:
	.file 3 "/home/chandu/sdk/bl602_iot_sdk/components/security/mbedtls-bl602/include/psa/crypto_extra.h"
	.loc 3 71 1
	.cfi_startproc
	addi	sp,sp,-32
	.cfi_def_cfa_offset 32
	sw	ra,28(sp)
	sw	s0,24(sp)
	.cfi_offset 1, -4
	.cfi_offset 8, -8
	addi	s0,sp,32
	.cfi_def_cfa 8, 0
	sw	a0,-20(s0)
	sw	a1,-24(s0)
	.loc 3 72 29
	lw	a5,-20(s0)
	lw	a4,-24(s0)
	sw	a4,16(a5)
	.loc 3 73 1
	nop
	lw	ra,28(sp)
	.cfi_restore 1
	lw	s0,24(sp)
	.cfi_restore 8
	.cfi_def_cfa 2, 32
	addi	sp,sp,32
	.cfi_def_cfa_offset 0
	jr	ra
	.cfi_endproc
.LFE54:
	.size	psa_set_key_enrollment_algorithm, .-psa_set_key_enrollment_algorithm
	.section	.text.mbedtls_pk_get_len,"ax",@progbits
	.align	1
	.type	mbedtls_pk_get_len, @function
mbedtls_pk_get_len:
.LFB66:
	.file 4 "/home/chandu/sdk/bl602_iot_sdk/components/security/mbedtls-bl602/include/mbedtls/pk.h"
	.loc 4 440 1
	.cfi_startproc
	addi	sp,sp,-32
	.cfi_def_cfa_offset 32
	sw	ra,28(sp)
	sw	s0,24(sp)
	.cfi_offset 1, -4
	.cfi_offset 8, -8
	addi	s0,sp,32
	.cfi_def_cfa 8, 0
	sw	a0,-20(s0)
	.loc 4 441 13
	lw	a0,-20(s0)
	call	mbedtls_pk_get_bitlen
	mv	a5,a0
	.loc 4 441 40 discriminator 1
	addi	a5,a5,7
	.loc 4 441 45 discriminator 1
	srli	a5,a5,3
	.loc 4 442 1
	mv	a0,a5
	lw	ra,28(sp)
	.cfi_restore 1
	lw	s0,24(sp)
	.cfi_restore 8
	.cfi_def_cfa 2, 32
	addi	sp,sp,32
	.cfi_def_cfa_offset 0
	jr	ra
	.cfi_endproc
.LFE66:
	.size	mbedtls_pk_get_len, .-mbedtls_pk_get_len
	.section	.text.mbedtls_pk_rsa,"ax",@progbits
	.align	1
	.type	mbedtls_pk_rsa, @function
mbedtls_pk_rsa:
.LFB67:
	.loc 4 1038 1
	.cfi_startproc
	addi	sp,sp,-32
	.cfi_def_cfa_offset 32
	sw	ra,28(sp)
	sw	s0,24(sp)
	.cfi_offset 1, -4
	.cfi_offset 8, -8
	addi	s0,sp,32
	.cfi_def_cfa 8, 0
	sw	a0,-24(s0)
	sw	a1,-20(s0)
	.loc 4 1039 13
	addi	a5,s0,-24
	mv	a0,a5
	call	mbedtls_pk_get_type
	mv	a5,a0
	.loc 4 1039 13 is_stmt 0 discriminator 1
	mv	a4,a5
	.loc 4 1039 5 is_stmt 1 discriminator 1
	li	a5,1
	bne	a4,a5,.L24
	.loc 4 1041 20
	lw	a5,-20(s0)
	j	.L25
.L24:
	.loc 4 1043 19
	li	a5,0
.L25:
	.loc 4 1045 1
	mv	a0,a5
	lw	ra,28(sp)
	.cfi_restore 1
	lw	s0,24(sp)
	.cfi_restore 8
	.cfi_def_cfa 2, 32
	addi	sp,sp,32
	.cfi_def_cfa_offset 0
	jr	ra
	.cfi_endproc
.LFE67:
	.size	mbedtls_pk_rsa, .-mbedtls_pk_rsa
	.section	.text.mbedtls_md_psa_alg_from_type,"ax",@progbits
	.align	1
	.type	mbedtls_md_psa_alg_from_type, @function
mbedtls_md_psa_alg_from_type:
.LFB69:
	.file 5 "/home/chandu/sdk/bl602_iot_sdk/components/security/mbedtls-bl602/include/mbedtls/psa_util.h"
	.loc 5 122 1
	.cfi_startproc
	addi	sp,sp,-32
	.cfi_def_cfa_offset 32
	sw	ra,28(sp)
	sw	s0,24(sp)
	.cfi_offset 1, -4
	.cfi_offset 8, -8
	addi	s0,sp,32
	.cfi_def_cfa 8, 0
	mv	a5,a0
	sb	a5,-17(s0)
	.loc 5 123 45
	lbu	a4,-17(s0)
	.loc 5 123 43
	li	a5,33554432
	or	a5,a4,a5
	.loc 5 124 1
	mv	a0,a5
	lw	ra,28(sp)
	.cfi_restore 1
	lw	s0,24(sp)
	.cfi_restore 8
	.cfi_def_cfa 2, 32
	addi	sp,sp,32
	.cfi_def_cfa_offset 0
	jr	ra
	.cfi_endproc
.LFE69:
	.size	mbedtls_md_psa_alg_from_type, .-mbedtls_md_psa_alg_from_type
	.section	.text.mbedtls_md_type_from_psa_alg,"ax",@progbits
	.align	1
	.type	mbedtls_md_type_from_psa_alg, @function
mbedtls_md_type_from_psa_alg:
.LFB70:
	.loc 5 139 1
	.cfi_startproc
	addi	sp,sp,-32
	.cfi_def_cfa_offset 32
	sw	ra,28(sp)
	sw	s0,24(sp)
	.cfi_offset 1, -4
	.cfi_offset 8, -8
	addi	s0,sp,32
	.cfi_def_cfa 8, 0
	sw	a0,-20(s0)
	.loc 5 140 12
	lw	a5,-20(s0)
	andi	a5,a5,0xff
	.loc 5 141 1
	mv	a0,a5
	lw	ra,28(sp)
	.cfi_restore 1
	lw	s0,24(sp)
	.cfi_restore 8
	.cfi_def_cfa 2, 32
	addi	sp,sp,32
	.cfi_def_cfa_offset 0
	jr	ra
	.cfi_endproc
.LFE70:
	.size	mbedtls_md_type_from_psa_alg, .-mbedtls_md_type_from_psa_alg
	.section	.text.mbedtls_pk_ec_ro,"ax",@progbits
	.align	1
	.type	mbedtls_pk_ec_ro, @function
mbedtls_pk_ec_ro:
.LFB71:
	.file 6 "/home/chandu/sdk/bl602_iot_sdk/components/security/mbedtls-bl602/library/pk_internal.h"
	.loc 6 61 1
	.cfi_startproc
	addi	sp,sp,-32
	.cfi_def_cfa_offset 32
	sw	ra,28(sp)
	sw	s0,24(sp)
	.cfi_offset 1, -4
	.cfi_offset 8, -8
	addi	s0,sp,32
	.cfi_def_cfa 8, 0
	sw	a0,-24(s0)
	sw	a1,-20(s0)
	.loc 6 62 13
	addi	a5,s0,-24
	mv	a0,a5
	call	mbedtls_pk_get_type
	mv	a5,a0
	addi	a4,a5,-2
	.loc 6 62 5 discriminator 1
	li	a5,2
	bgtu	a4,a5,.L31
	.loc 6 66 20
	lw	a5,-20(s0)
	j	.L32
.L31:
	.loc 6 68 19
	li	a5,0
.L32:
	.loc 6 70 1
	mv	a0,a5
	lw	ra,28(sp)
	.cfi_restore 1
	lw	s0,24(sp)
	.cfi_restore 8
	.cfi_def_cfa 2, 32
	addi	sp,sp,32
	.cfi_def_cfa_offset 0
	jr	ra
	.cfi_endproc
.LFE71:
	.size	mbedtls_pk_ec_ro, .-mbedtls_pk_ec_ro
	.section	.text.mbedtls_pk_init,"ax",@progbits
	.align	1
	.globl	mbedtls_pk_init
	.type	mbedtls_pk_init, @function
mbedtls_pk_init:
.LFB76:
	.file 7 "/home/chandu/sdk/bl602_iot_sdk/components/security/mbedtls-bl602/library/pk.c"
	.loc 7 42 1
	.cfi_startproc
	addi	sp,sp,-32
	.cfi_def_cfa_offset 32
	sw	ra,28(sp)
	sw	s0,24(sp)
	.cfi_offset 1, -4
	.cfi_offset 8, -8
	addi	s0,sp,32
	.cfi_def_cfa 8, 0
	sw	a0,-20(s0)
	.loc 7 43 18
	lw	a5,-20(s0)
	sw	zero,0(a5)
	.loc 7 44 17
	lw	a5,-20(s0)
	sw	zero,4(a5)
	.loc 7 54 1
	nop
	lw	ra,28(sp)
	.cfi_restore 1
	lw	s0,24(sp)
	.cfi_restore 8
	.cfi_def_cfa 2, 32
	addi	sp,sp,32
	.cfi_def_cfa_offset 0
	jr	ra
	.cfi_endproc
.LFE76:
	.size	mbedtls_pk_init, .-mbedtls_pk_init
	.section	.text.mbedtls_pk_free,"ax",@progbits
	.align	1
	.globl	mbedtls_pk_free
	.type	mbedtls_pk_free, @function
mbedtls_pk_free:
.LFB77:
	.loc 7 60 1
	.cfi_startproc
	addi	sp,sp,-32
	.cfi_def_cfa_offset 32
	sw	ra,28(sp)
	sw	s0,24(sp)
	.cfi_offset 1, -4
	.cfi_offset 8, -8
	addi	s0,sp,32
	.cfi_def_cfa 8, 0
	sw	a0,-20(s0)
	.loc 7 61 8
	lw	a5,-20(s0)
	beq	a5,zero,.L38
	.loc 7 65 13
	lw	a5,-20(s0)
	lw	a5,0(a5)
	.loc 7 65 8
	beq	a5,zero,.L37
	.loc 7 65 38 discriminator 1
	lw	a5,-20(s0)
	lw	a5,0(a5)
	.loc 7 65 47 discriminator 1
	lw	a5,48(a5)
	.loc 7 65 31 discriminator 1
	beq	a5,zero,.L37
	.loc 7 66 12
	lw	a5,-20(s0)
	lw	a5,0(a5)
	.loc 7 66 21
	lw	a5,48(a5)
	.loc 7 66 9
	lw	a4,-20(s0)
	lw	a4,4(a4)
	mv	a0,a4
	jalr	a5
.LVL0:
.L37:
	.loc 7 77 5
	li	a1,8
	lw	a0,-20(s0)
	call	mbedtls_platform_zeroize
	j	.L34
.L38:
	.loc 7 62 9
	nop
.L34:
	.loc 7 78 1
	lw	ra,28(sp)
	.cfi_restore 1
	lw	s0,24(sp)
	.cfi_restore 8
	.cfi_def_cfa 2, 32
	addi	sp,sp,32
	.cfi_def_cfa_offset 0
	jr	ra
	.cfi_endproc
.LFE77:
	.size	mbedtls_pk_free, .-mbedtls_pk_free
	.section	.text.mbedtls_pk_restart_init,"ax",@progbits
	.align	1
	.globl	mbedtls_pk_restart_init
	.type	mbedtls_pk_restart_init, @function
mbedtls_pk_restart_init:
.LFB78:
	.loc 7 85 1
	.cfi_startproc
	addi	sp,sp,-32
	.cfi_def_cfa_offset 32
	sw	ra,28(sp)
	sw	s0,24(sp)
	.cfi_offset 1, -4
	.cfi_offset 8, -8
	addi	s0,sp,32
	.cfi_def_cfa 8, 0
	sw	a0,-20(s0)
	.loc 7 86 18
	lw	a5,-20(s0)
	sw	zero,0(a5)
	.loc 7 87 17
	lw	a5,-20(s0)
	sw	zero,4(a5)
	.loc 7 88 1
	nop
	lw	ra,28(sp)
	.cfi_restore 1
	lw	s0,24(sp)
	.cfi_restore 8
	.cfi_def_cfa 2, 32
	addi	sp,sp,32
	.cfi_def_cfa_offset 0
	jr	ra
	.cfi_endproc
.LFE78:
	.size	mbedtls_pk_restart_init, .-mbedtls_pk_restart_init
	.section	.text.mbedtls_pk_restart_free,"ax",@progbits
	.align	1
	.globl	mbedtls_pk_restart_free
	.type	mbedtls_pk_restart_free, @function
mbedtls_pk_restart_free:
.LFB79:
	.loc 7 94 1
	.cfi_startproc
	addi	sp,sp,-32
	.cfi_def_cfa_offset 32
	sw	ra,28(sp)
	sw	s0,24(sp)
	.cfi_offset 1, -4
	.cfi_offset 8, -8
	addi	s0,sp,32
	.cfi_def_cfa 8, 0
	sw	a0,-20(s0)
	.loc 7 95 8
	lw	a5,-20(s0)
	beq	a5,zero,.L44
	.loc 7 95 26 discriminator 1
	lw	a5,-20(s0)
	lw	a5,0(a5)
	.loc 7 95 20 discriminator 1
	beq	a5,zero,.L44
	.loc 7 96 12
	lw	a5,-20(s0)
	lw	a5,0(a5)
	.loc 7 96 21
	lw	a5,56(a5)
	.loc 7 95 44 discriminator 2
	beq	a5,zero,.L44
	.loc 7 100 8
	lw	a5,-20(s0)
	lw	a5,0(a5)
	.loc 7 100 17
	lw	a5,56(a5)
	.loc 7 100 5
	lw	a4,-20(s0)
	lw	a4,4(a4)
	mv	a0,a4
	jalr	a5
.LVL1:
	.loc 7 102 18
	lw	a5,-20(s0)
	sw	zero,0(a5)
	.loc 7 103 17
	lw	a5,-20(s0)
	sw	zero,4(a5)
	j	.L40
.L44:
	.loc 7 97 9
	nop
.L40:
	.loc 7 104 1
	lw	ra,28(sp)
	.cfi_restore 1
	lw	s0,24(sp)
	.cfi_restore 8
	.cfi_def_cfa 2, 32
	addi	sp,sp,32
	.cfi_def_cfa_offset 0
	jr	ra
	.cfi_endproc
.LFE79:
	.size	mbedtls_pk_restart_free, .-mbedtls_pk_restart_free
	.section	.text.mbedtls_pk_info_from_type,"ax",@progbits
	.align	1
	.globl	mbedtls_pk_info_from_type
	.type	mbedtls_pk_info_from_type, @function
mbedtls_pk_info_from_type:
.LFB80:
	.loc 7 111 1
	.cfi_startproc
	addi	sp,sp,-32
	.cfi_def_cfa_offset 32
	sw	ra,28(sp)
	sw	s0,24(sp)
	.cfi_offset 1, -4
	.cfi_offset 8, -8
	addi	s0,sp,32
	.cfi_def_cfa 8, 0
	mv	a5,a0
	sb	a5,-17(s0)
	.loc 7 112 5
	lbu	a5,-17(s0)
	li	a4,4
	beq	a5,a4,.L46
	li	a4,4
	bgt	a5,a4,.L47
	li	a4,3
	beq	a5,a4,.L48
	li	a4,3
	bgt	a5,a4,.L47
	li	a4,1
	beq	a5,a4,.L49
	li	a4,2
	beq	a5,a4,.L50
	j	.L47
.L49:
	.loc 7 115 20
	lui	a5,%hi(mbedtls_rsa_info)
	addi	a5,a5,%lo(mbedtls_rsa_info)
	j	.L51
.L50:
	.loc 7 119 20
	lui	a5,%hi(mbedtls_eckey_info)
	addi	a5,a5,%lo(mbedtls_eckey_info)
	j	.L51
.L48:
	.loc 7 121 20
	lui	a5,%hi(mbedtls_eckeydh_info)
	addi	a5,a5,%lo(mbedtls_eckeydh_info)
	j	.L51
.L46:
	.loc 7 125 20
	lui	a5,%hi(mbedtls_ecdsa_info)
	addi	a5,a5,%lo(mbedtls_ecdsa_info)
	j	.L51
.L47:
	.loc 7 129 19
	li	a5,0
.L51:
	.loc 7 131 1
	mv	a0,a5
	lw	ra,28(sp)
	.cfi_restore 1
	lw	s0,24(sp)
	.cfi_restore 8
	.cfi_def_cfa 2, 32
	addi	sp,sp,32
	.cfi_def_cfa_offset 0
	jr	ra
	.cfi_endproc
.LFE80:
	.size	mbedtls_pk_info_from_type, .-mbedtls_pk_info_from_type
	.section	.text.mbedtls_pk_setup,"ax",@progbits
	.align	1
	.globl	mbedtls_pk_setup
	.type	mbedtls_pk_setup, @function
mbedtls_pk_setup:
.LFB81:
	.loc 7 137 1
	.cfi_startproc
	addi	sp,sp,-32
	.cfi_def_cfa_offset 32
	sw	ra,28(sp)
	sw	s0,24(sp)
	.cfi_offset 1, -4
	.cfi_offset 8, -8
	addi	s0,sp,32
	.cfi_def_cfa 8, 0
	sw	a0,-20(s0)
	sw	a1,-24(s0)
	.loc 7 138 8
	lw	a5,-24(s0)
	beq	a5,zero,.L53
	.loc 7 138 27 discriminator 1
	lw	a5,-20(s0)
	lw	a5,0(a5)
	.loc 7 138 21 discriminator 1
	beq	a5,zero,.L54
.L53:
	.loc 7 139 16
	li	a5,-16384
	addi	a5,a5,384
	j	.L55
.L54:
	.loc 7 142 14
	lw	a5,-24(s0)
	lw	a5,44(a5)
	.loc 7 142 8
	beq	a5,zero,.L56
	.loc 7 143 29
	lw	a5,-24(s0)
	lw	a5,44(a5)
	.loc 7 143 25
	jalr	a5
.LVL2:
	mv	a4,a0
	.loc 7 143 23 discriminator 1
	lw	a5,-20(s0)
	sw	a4,4(a5)
	.loc 7 143 14 discriminator 1
	lw	a5,-20(s0)
	lw	a5,4(a5)
	.loc 7 142 39 discriminator 1
	bne	a5,zero,.L56
	.loc 7 144 16
	li	a5,-16384
	addi	a5,a5,128
	j	.L55
.L56:
	.loc 7 147 18
	lw	a5,-20(s0)
	lw	a4,-24(s0)
	sw	a4,0(a5)
	.loc 7 149 12
	li	a5,0
.L55:
	.loc 7 150 1
	mv	a0,a5
	lw	ra,28(sp)
	.cfi_restore 1
	lw	s0,24(sp)
	.cfi_restore 8
	.cfi_def_cfa 2, 32
	addi	sp,sp,32
	.cfi_def_cfa_offset 0
	jr	ra
	.cfi_endproc
.LFE81:
	.size	mbedtls_pk_setup, .-mbedtls_pk_setup
	.section	.text.mbedtls_pk_can_do,"ax",@progbits
	.align	1
	.globl	mbedtls_pk_can_do
	.type	mbedtls_pk_can_do, @function
mbedtls_pk_can_do:
.LFB82:
	.loc 7 228 1
	.cfi_startproc
	addi	sp,sp,-32
	.cfi_def_cfa_offset 32
	sw	ra,28(sp)
	sw	s0,24(sp)
	.cfi_offset 1, -4
	.cfi_offset 8, -8
	addi	s0,sp,32
	.cfi_def_cfa 8, 0
	sw	a0,-20(s0)
	mv	a5,a1
	sb	a5,-21(s0)
	.loc 7 232 8
	lw	a5,-20(s0)
	beq	a5,zero,.L58
	.loc 7 232 26 discriminator 1
	lw	a5,-20(s0)
	lw	a5,0(a5)
	.loc 7 232 20 discriminator 1
	bne	a5,zero,.L59
.L58:
	.loc 7 233 16
	li	a5,0
	j	.L60
.L59:
	.loc 7 236 15
	lw	a5,-20(s0)
	lw	a5,0(a5)
	.loc 7 236 24
	lw	a5,12(a5)
	.loc 7 236 12
	lbu	a4,-21(s0)
	mv	a0,a4
	jalr	a5
.LVL3:
	mv	a5,a0
.L60:
	.loc 7 237 1
	mv	a0,a5
	lw	ra,28(sp)
	.cfi_restore 1
	lw	s0,24(sp)
	.cfi_restore 8
	.cfi_def_cfa 2, 32
	addi	sp,sp,32
	.cfi_def_cfa_offset 0
	jr	ra
	.cfi_endproc
.LFE82:
	.size	mbedtls_pk_can_do, .-mbedtls_pk_can_do
	.section	.text.psa_algorithm_for_rsa,"ax",@progbits
	.align	1
	.type	psa_algorithm_for_rsa, @function
psa_algorithm_for_rsa:
.LFB83:
	.loc 7 382 1
	.cfi_startproc
	addi	sp,sp,-48
	.cfi_def_cfa_offset 48
	sw	ra,44(sp)
	sw	s0,40(sp)
	.cfi_offset 1, -4
	.cfi_offset 8, -8
	addi	s0,sp,48
	.cfi_def_cfa 8, 0
	sw	a0,-36(s0)
	sw	a1,-40(s0)
	.loc 7 383 9
	lw	a0,-36(s0)
	call	mbedtls_rsa_get_padding_mode
	mv	a4,a0
	.loc 7 383 8 discriminator 1
	li	a5,1
	bne	a4,a5,.L62
	.loc 7 384 12
	lw	a5,-40(s0)
	beq	a5,zero,.L63
.LBB2:
	.loc 7 385 61
	lw	a0,-36(s0)
	call	mbedtls_rsa_get_md_alg
	mv	a5,a0
	.loc 7 385 31 discriminator 1
	sb	a5,-17(s0)
	.loc 7 386 56
	lbu	a5,-17(s0)
	mv	a0,a5
	call	mbedtls_md_psa_alg_from_type
	mv	a5,a0
	.loc 7 386 95 discriminator 1
	andi	a4,a5,255
	.loc 7 386 52 discriminator 1
	li	a5,117440512
	addi	a5,a5,768
	or	a5,a4,a5
	.loc 7 386 52 is_stmt 0
	j	.L64
.L63:
.LBE2:
	.loc 7 388 20 is_stmt 1
	li	a5,100667392
	addi	a5,a5,1023
	j	.L64
.L62:
	.loc 7 391 12
	lw	a5,-40(s0)
	beq	a5,zero,.L65
	.loc 7 392 20
	li	a5,117440512
	addi	a5,a5,512
	j	.L64
.L65:
	.loc 7 394 20
	li	a5,100663296
	addi	a5,a5,767
.L64:
	.loc 7 397 1
	mv	a0,a5
	lw	ra,44(sp)
	.cfi_restore 1
	lw	s0,40(sp)
	.cfi_restore 8
	.cfi_def_cfa 2, 48
	addi	sp,sp,48
	.cfi_def_cfa_offset 0
	jr	ra
	.cfi_endproc
.LFE83:
	.size	psa_algorithm_for_rsa, .-psa_algorithm_for_rsa
	.section	.text.mbedtls_pk_get_psa_attributes,"ax",@progbits
	.align	1
	.globl	mbedtls_pk_get_psa_attributes
	.type	mbedtls_pk_get_psa_attributes, @function
mbedtls_pk_get_psa_attributes:
.LFB84:
	.loc 7 403 1
	.cfi_startproc
	addi	sp,sp,-96
	.cfi_def_cfa_offset 96
	sw	ra,92(sp)
	sw	s0,88(sp)
	.cfi_offset 1, -4
	.cfi_offset 8, -8
	addi	s0,sp,96
	.cfi_def_cfa 8, 0
	sw	a0,-84(s0)
	sw	a1,-88(s0)
	sw	a2,-92(s0)
	.loc 7 404 33
	lw	a0,-84(s0)
	call	mbedtls_pk_get_type
	mv	a5,a0
	sb	a5,-29(s0)
	.loc 7 406 21
	lw	a5,-88(s0)
	sw	a5,-20(s0)
	.loc 7 407 8
	lw	a4,-88(s0)
	li	a5,1024
	bne	a4,a5,.L67
	.loc 7 408 20
	lw	a4,-20(s0)
	li	a5,4096
	addi	a5,a5,-2048
	or	a5,a4,a5
	sw	a5,-20(s0)
	j	.L68
.L67:
	.loc 7 409 15
	lw	a4,-88(s0)
	li	a5,4096
	bne	a4,a5,.L69
	.loc 7 410 20
	lw	a4,-20(s0)
	li	a5,8192
	or	a5,a4,a5
	sw	a5,-20(s0)
	j	.L68
.L69:
	.loc 7 411 15
	lw	a4,-88(s0)
	li	a5,512
	bne	a4,a5,.L68
	.loc 7 412 20
	lw	a5,-20(s0)
	ori	a5,a5,256
	sw	a5,-20(s0)
.L68:
	.loc 7 414 16
	lw	a5,-20(s0)
	ori	a5,a5,3
	sw	a5,-20(s0)
	.loc 7 416 24
	lw	a5,-88(s0)
	addi	a5,a5,-2048
	beq	a5,zero,.L70
	.loc 7 416 66 discriminator 1
	lw	a4,-88(s0)
	li	a5,8192
	beq	a4,a5,.L70
	.loc 7 416 24 discriminator 3
	lw	a4,-88(s0)
	li	a5,256
	beq	a4,a5,.L70
	.loc 7 416 24 is_stmt 0 discriminator 5
	li	a5,1
	.loc 7 416 24
	j	.L71
.L70:
	.loc 7 416 24 discriminator 6
	li	a5,0
.L71:
	.loc 7 416 9 is_stmt 1 discriminator 8
	sw	a5,-36(s0)
	.loc 7 420 5
	lbu	a5,-29(s0)
	li	a4,1
	beq	a5,a4,.L72
	ble	a5,zero,.L73
	addi	a4,a5,-2
	li	a5,2
	bgtu	a4,a5,.L73
	j	.L94
.L72:
.LBB3:
	.loc 7 424 17
	sw	zero,-24(s0)
	.loc 7 425 13
	lw	a4,-88(s0)
	li	a5,8192
	beq	a4,a5,.L95
	lw	a4,-88(s0)
	li	a5,8192
	bgtu	a4,a5,.L76
	lw	a4,-88(s0)
	li	a5,4096
	beq	a4,a5,.L95
	lw	a4,-88(s0)
	li	a5,4096
	bgtu	a4,a5,.L76
	lw	a5,-88(s0)
	addi	a5,a5,-2048
	beq	a5,zero,.L95
	lw	a4,-88(s0)
	li	a5,4096
	addi	a5,a5,-2048
	bgtu	a4,a5,.L76
	lw	a4,-88(s0)
	li	a5,1024
	beq	a4,a5,.L95
	lw	a4,-88(s0)
	li	a5,1024
	bgtu	a4,a5,.L76
	lw	a4,-88(s0)
	li	a5,256
	beq	a4,a5,.L77
	lw	a4,-88(s0)
	li	a5,512
	bne	a4,a5,.L76
.L77:
	.loc 7 434 32
	li	a5,1
	sw	a5,-24(s0)
	.loc 7 435 21
	j	.L78
.L76:
	.loc 7 437 28
	li	a5,-16384
	addi	a5,a5,256
	j	.L79
.L95:
	.loc 7 431 21
	nop
.L78:
	.loc 7 441 40
	lw	a5,-84(s0)
	lw	a0,0(a5)
	lw	a1,4(a5)
	call	mbedtls_pk_rsa
	sw	a0,-60(s0)
	.loc 7 442 32
	lw	a0,-60(s0)
	call	mbedtls_rsa_check_privkey
	mv	a5,a0
	.loc 7 442 63 discriminator 1
	seqz	a5,a5
	andi	a5,a5,0xff
	.loc 7 442 17 discriminator 1
	sw	a5,-64(s0)
	.loc 7 443 16
	lw	a5,-36(s0)
	beq	a5,zero,.L80
	.loc 7 443 30 discriminator 1
	lw	a5,-64(s0)
	bne	a5,zero,.L80
	.loc 7 444 24
	li	a5,-16384
	addi	a5,a5,256
	j	.L79
.L80:
	.loc 7 446 13
	lw	a5,-36(s0)
	beq	a5,zero,.L81
	.loc 7 446 13 is_stmt 0 discriminator 1
	li	a5,28672
	addi	a5,a5,1
	j	.L82
.L81:
	.loc 7 446 13 discriminator 2
	li	a5,16384
	addi	a5,a5,1
.L82:
	.loc 7 446 13 discriminator 4
	mv	a1,a5
	lw	a0,-92(s0)
	call	psa_set_key_type
	.loc 7 449 13 is_stmt 1
	lw	a0,-84(s0)
	call	mbedtls_pk_get_bitlen
	mv	a5,a0
	.loc 7 449 13 is_stmt 0 discriminator 1
	mv	a1,a5
	lw	a0,-92(s0)
	call	psa_set_key_bits
	.loc 7 450 13 is_stmt 1
	lw	a1,-24(s0)
	lw	a0,-60(s0)
	call	psa_algorithm_for_rsa
	mv	a5,a0
	.loc 7 450 13 is_stmt 0 discriminator 1
	mv	a1,a5
	lw	a0,-92(s0)
	call	psa_set_key_algorithm
	.loc 7 452 13 is_stmt 1
	j	.L83
.L94:
.LBE3:
.LBB4:
	.loc 7 461 36
	lbu	a5,-29(s0)
	addi	a5,a5,-3
	snez	a5,a5
	andi	a5,a5,0xff
	.loc 7 461 17
	sw	a5,-40(s0)
	.loc 7 462 38
	lbu	a5,-29(s0)
	addi	a5,a5,-4
	snez	a5,a5
	andi	a5,a5,0xff
	.loc 7 462 17
	sw	a5,-44(s0)
	.loc 7 471 45
	lw	a5,-84(s0)
	lw	a0,0(a5)
	lw	a1,4(a5)
	call	mbedtls_pk_ec_ro
	sw	a0,-48(s0)
	.loc 7 472 37
	lw	a5,-48(s0)
	lhu	a5,102(a5)
	.loc 7 472 40
	snez	a5,a5
	andi	a5,a5,0xff
	.loc 7 472 17
	sw	a5,-52(s0)
	.loc 7 473 20
	sw	zero,-68(s0)
	.loc 7 475 49
	lw	a5,-48(s0)
	lbu	a5,0(a5)
	.loc 7 475 17
	addi	a4,s0,-68
	mv	a1,a4
	mv	a0,a5
	call	mbedtls_ecc_group_to_psa
	mv	a5,a0
	sb	a5,-53(s0)
	.loc 7 477 29
	sw	zero,-28(s0)
	.loc 7 478 13
	lw	a4,-88(s0)
	li	a5,16384
	beq	a4,a5,.L84
	lw	a4,-88(s0)
	li	a5,16384
	bgtu	a4,a5,.L85
	lw	a4,-88(s0)
	li	a5,8192
	beq	a4,a5,.L86
	lw	a4,-88(s0)
	li	a5,8192
	bgtu	a4,a5,.L85
	lw	a4,-88(s0)
	li	a5,4096
	beq	a4,a5,.L86
	lw	a4,-88(s0)
	li	a5,4096
	bgtu	a4,a5,.L85
	lw	a4,-88(s0)
	li	a5,1024
	beq	a4,a5,.L86
	lw	a5,-88(s0)
	addi	a5,a5,-2048
	bne	a5,zero,.L85
.L86:
	.loc 7 483 24
	lw	a5,-40(s0)
	bne	a5,zero,.L87
	.loc 7 484 32
	li	a5,-16384
	addi	a5,a5,256
	j	.L79
.L87:
	.loc 7 487 25
	li	a5,100663296
	addi	a5,a5,2047
	sw	a5,-28(s0)
	.loc 7 491 21
	j	.L89
.L84:
	.loc 7 493 25
	li	a5,151126016
	sw	a5,-28(s0)
	.loc 7 494 24
	lw	a5,-44(s0)
	bne	a5,zero,.L96
	.loc 7 495 32
	li	a5,-16384
	addi	a5,a5,256
	j	.L79
.L85:
	.loc 7 499 28
	li	a5,-16384
	addi	a5,a5,256
	j	.L79
.L96:
	.loc 7 497 21
	nop
.L89:
	.loc 7 501 16
	lw	a5,-36(s0)
	beq	a5,zero,.L91
	.loc 7 501 30 discriminator 1
	lw	a5,-52(s0)
	bne	a5,zero,.L91
	.loc 7 502 24
	li	a5,-16384
	addi	a5,a5,256
	j	.L79
.L91:
	.loc 7 504 13
	lw	a5,-36(s0)
	beq	a5,zero,.L92
	.loc 7 505 70
	lbu	a5,-53(s0)
	slli	a4,a5,16
	srai	a4,a4,16
	li	a5,28672
	addi	a5,a5,256
	or	a5,a4,a5
	slli	a5,a5,16
	srai	a5,a5,16
	.loc 7 504 13 discriminator 1
	slli	a5,a5,16
	srli	a5,a5,16
	j	.L93
.L92:
	.loc 7 506 70
	lbu	a5,-53(s0)
	slli	a4,a5,16
	srai	a4,a4,16
	li	a5,16384
	addi	a5,a5,256
	or	a5,a4,a5
	slli	a5,a5,16
	srai	a5,a5,16
	.loc 7 504 13 discriminator 2
	slli	a5,a5,16
	srli	a5,a5,16
.L93:
	.loc 7 504 13 is_stmt 0 discriminator 4
	mv	a1,a5
	lw	a0,-92(s0)
	call	psa_set_key_type
	.loc 7 507 13 is_stmt 1
	lw	a5,-68(s0)
	mv	a1,a5
	lw	a0,-92(s0)
	call	psa_set_key_bits
	.loc 7 508 13
	lw	a1,-28(s0)
	lw	a0,-92(s0)
	call	psa_set_key_algorithm
	j	.L83
.L73:
.LBE4:
	.loc 7 571 20
	li	a5,-16384
	addi	a5,a5,384
	j	.L79
.L83:
	.loc 7 574 5
	lw	a1,-20(s0)
	lw	a0,-92(s0)
	call	psa_set_key_usage_flags
	.loc 7 581 5
	li	a1,0
	lw	a0,-92(s0)
	call	psa_set_key_enrollment_algorithm
	.loc 7 584 12
	li	a5,0
.L79:
	.loc 7 585 1
	mv	a0,a5
	lw	ra,92(sp)
	.cfi_restore 1
	lw	s0,88(sp)
	.cfi_restore 8
	.cfi_def_cfa 2, 96
	addi	sp,sp,96
	.cfi_def_cfa_offset 0
	jr	ra
	.cfi_endproc
.LFE84:
	.size	mbedtls_pk_get_psa_attributes, .-mbedtls_pk_get_psa_attributes
	.section	.text.import_pair_into_psa,"ax",@progbits
	.align	1
	.type	import_pair_into_psa, @function
import_pair_into_psa:
.LFB85:
	.loc 7 644 1
	.cfi_startproc
	addi	sp,sp,-2032
	.cfi_def_cfa_offset 2032
	sw	ra,2028(sp)
	sw	s0,2024(sp)
	.cfi_offset 1, -4
	.cfi_offset 8, -8
	addi	s0,sp,2032
	.cfi_def_cfa 8, 0
	addi	sp,sp,-416
	li	a5,-4096
	addi	a5,a5,-16
	add	a5,a5,s0
	sw	a0,1676(a5)
	li	a5,-4096
	addi	a5,a5,-16
	add	a5,a5,s0
	sw	a1,1672(a5)
	li	a5,-4096
	addi	a5,a5,-16
	add	a5,a5,s0
	sw	a2,1668(a5)
	.loc 7 645 13
	li	a5,-4096
	addi	a5,a5,-16
	add	a5,a5,s0
	lw	a0,1676(a5)
	call	mbedtls_pk_get_type
	mv	a5,a0
	.loc 7 645 5 discriminator 1
	li	a4,1
	beq	a5,a4,.L98
	ble	a5,zero,.L99
	addi	a4,a5,-2
	li	a5,2
	bgtu	a4,a5,.L99
	j	.L109
.L98:
.LBB5:
	.loc 7 649 17
	li	a5,-4096
	addi	a5,a5,-16
	add	a5,a5,s0
	lw	a0,1672(a5)
	call	psa_get_key_type
	mv	a5,a0
	mv	a4,a5
	.loc 7 649 16 discriminator 1
	li	a5,28672
	addi	a5,a5,1
	beq	a4,a5,.L101
	.loc 7 650 24
	li	a5,-16384
	addi	a5,a5,256
	j	.L104
.L101:
	.loc 7 654 34
	li	a5,-4096
	addi	a5,a5,1692
	addi	a5,a5,-16
	add	a4,a5,s0
	li	a5,4096
	addi	a5,a5,-1733
	add	a5,a4,a5
	sw	a5,-36(s0)
	.loc 7 655 28
	lw	a5,-36(s0)
	sw	a5,-48(s0)
	.loc 7 656 45
	li	a5,-4096
	addi	a5,a5,-16
	add	a5,a5,s0
	lw	a5,1676(a5)
	lw	a0,0(a5)
	lw	a1,4(a5)
	call	mbedtls_pk_rsa
	mv	a3,a0
	.loc 7 656 23 discriminator 1
	addi	a4,s0,-48
	li	a5,-4096
	addi	a5,a5,1692
	addi	a5,a5,-16
	add	a5,a5,s0
	mv	a2,a4
	mv	a1,a5
	mv	a0,a3
	call	mbedtls_rsa_write_key
	sw	a0,-40(s0)
	.loc 7 658 16
	lw	a5,-40(s0)
	bge	a5,zero,.L103
	.loc 7 659 24
	lw	a5,-40(s0)
	j	.L104
.L103:
	.loc 7 661 41
	lw	a5,-48(s0)
	lw	a4,-36(s0)
	sub	a5,a4,a5
	.loc 7 661 20
	sw	a5,-44(s0)
	.loc 7 662 19
	lw	a1,-48(s0)
	li	a5,-4096
	addi	a5,a5,-16
	add	a4,a5,s0
	li	a5,-4096
	addi	a5,a5,-16
	add	a5,a5,s0
	lw	a3,1668(a4)
	lw	a2,-44(s0)
	lw	a0,1672(a5)
	call	psa_import_key
	mv	a5,a0
	.loc 7 662 19 is_stmt 0 discriminator 1
	mv	a0,a5
	call	psa_pk_status_to_mbedtls
	sw	a0,-40(s0)
	.loc 7 665 13 is_stmt 1
	lw	a5,-48(s0)
	lw	a1,-44(s0)
	mv	a0,a5
	call	mbedtls_platform_zeroize
	.loc 7 666 20
	lw	a5,-40(s0)
	j	.L104
.L109:
.LBE5:
.LBB6:
	.loc 7 680 38
	li	a5,-4096
	addi	a5,a5,-16
	add	a5,a5,s0
	lw	a0,1672(a5)
	call	psa_get_key_type
	mv	a5,a0
	sh	a5,-18(s0)
	.loc 7 684 45
	li	a5,-4096
	addi	a5,a5,-16
	add	a5,a5,s0
	lw	a5,1676(a5)
	lw	a0,0(a5)
	lw	a1,4(a5)
	call	mbedtls_pk_ec_ro
	sw	a0,-24(s0)
	.loc 7 685 20
	sw	zero,-52(s0)
	.loc 7 686 76
	lw	a5,-24(s0)
	lbu	a5,0(a5)
	.loc 7 686 44
	addi	a4,s0,-52
	mv	a1,a4
	mv	a0,a5
	call	mbedtls_ecc_group_to_psa
	mv	a5,a0
	sb	a5,-25(s0)
	.loc 7 689 25
	lhu	a4,-18(s0)
	.loc 7 689 55
	lbu	a3,-25(s0)
	li	a5,28672
	addi	a5,a5,256
	or	a5,a3,a5
	.loc 7 689 16
	beq	a4,a5,.L105
	.loc 7 690 24
	li	a5,-16384
	addi	a5,a5,256
	j	.L104
.L105:
	.loc 7 700 22
	lw	a5,-24(s0)
	lhu	a5,102(a5)
	.loc 7 700 16
	bne	a5,zero,.L107
	.loc 7 707 24
	li	a5,-16384
	addi	a5,a5,256
	j	.L104
.L107:
	.loc 7 710 20
	sw	zero,-56(s0)
	.loc 7 711 23
	li	a5,-4096
	addi	a5,a5,1692
	addi	a5,a5,-16
	add	a4,a5,s0
	addi	a5,s0,-56
	li	a3,66
	mv	a2,a4
	mv	a1,a5
	lw	a0,-24(s0)
	call	mbedtls_ecp_write_key_ext
	sw	a0,-32(s0)
	.loc 7 713 16
	lw	a5,-32(s0)
	bge	a5,zero,.L108
	.loc 7 714 24
	lw	a5,-32(s0)
	j	.L104
.L108:
	.loc 7 716 19
	lw	a2,-56(s0)
	li	a5,-4096
	addi	a5,a5,-16
	add	a4,a5,s0
	li	a5,-4096
	addi	a5,a5,1692
	addi	a5,a5,-16
	add	a1,a5,s0
	li	a5,-4096
	addi	a5,a5,-16
	add	a5,a5,s0
	lw	a3,1668(a4)
	lw	a0,1672(a5)
	call	psa_import_key
	mv	a5,a0
	.loc 7 716 19 is_stmt 0 discriminator 1
	mv	a0,a5
	call	psa_pk_status_to_mbedtls
	sw	a0,-32(s0)
	.loc 7 719 13 is_stmt 1
	lw	a4,-56(s0)
	li	a5,-4096
	addi	a5,a5,1692
	addi	a5,a5,-16
	add	a5,a5,s0
	mv	a1,a4
	mv	a0,a5
	call	mbedtls_platform_zeroize
	.loc 7 720 20
	lw	a5,-32(s0)
	j	.L104
.L99:
.LBE6:
	.loc 7 731 20
	li	a5,-16384
	addi	a5,a5,384
.L104:
	.loc 7 733 1
	mv	a0,a5
	addi	sp,sp,416
	.cfi_def_cfa 2, 2032
	lw	ra,2028(sp)
	.cfi_restore 1
	lw	s0,2024(sp)
	.cfi_restore 8
	addi	sp,sp,2032
	.cfi_def_cfa_offset 0
	jr	ra
	.cfi_endproc
.LFE85:
	.size	import_pair_into_psa, .-import_pair_into_psa
	.section	.text.import_public_into_psa,"ax",@progbits
	.align	1
	.type	import_public_into_psa, @function
import_public_into_psa:
.LFB86:
	.loc 7 738 1
	.cfi_startproc
	addi	sp,sp,-1104
	.cfi_def_cfa_offset 1104
	sw	ra,1100(sp)
	sw	s0,1096(sp)
	.cfi_offset 1, -4
	.cfi_offset 8, -8
	addi	s0,sp,1104
	.cfi_def_cfa 8, 0
	sw	a0,-1092(s0)
	sw	a1,-1096(s0)
	sw	a2,-1100(s0)
	.loc 7 739 31
	lw	a0,-1096(s0)
	call	psa_get_key_type
	mv	a5,a0
	sh	a5,-18(s0)
	.loc 7 746 20
	sw	zero,-1068(s0)
	.loc 7 747 12
	sw	zero,-1072(s0)
	.loc 7 749 13
	lw	a0,-1092(s0)
	call	mbedtls_pk_get_type
	mv	a5,a0
	.loc 7 749 5 discriminator 1
	li	a4,1
	beq	a5,a4,.L111
	ble	a5,zero,.L112
	addi	a4,a5,-2
	li	a5,2
	bgtu	a4,a5,.L112
	j	.L122
.L111:
.LBB7:
	.loc 7 753 16
	lhu	a4,-18(s0)
	li	a5,16384
	addi	a5,a5,1
	beq	a4,a5,.L114
	.loc 7 754 24
	li	a5,-16384
	addi	a5,a5,256
	j	.L121
.L114:
	.loc 7 756 34
	addi	a5,s0,-1064
	addi	a5,a5,1024
	sw	a5,-36(s0)
	.loc 7 757 22
	lw	a5,-36(s0)
	sw	a5,-1068(s0)
	.loc 7 758 48
	lw	a5,-1092(s0)
	lw	a0,0(a5)
	lw	a1,4(a5)
	call	mbedtls_pk_rsa
	mv	a3,a0
	.loc 7 758 23 discriminator 1
	addi	a4,s0,-1068
	addi	a5,s0,-1064
	mv	a2,a4
	mv	a1,a5
	mv	a0,a3
	call	mbedtls_rsa_write_pubkey
	sw	a0,-40(s0)
	.loc 7 760 16
	lw	a5,-40(s0)
	bge	a5,zero,.L116
	.loc 7 761 24
	lw	a5,-40(s0)
	j	.L121
.L116:
	.loc 7 763 26
	lw	a5,-40(s0)
	.loc 7 763 24
	sw	a5,-1072(s0)
	.loc 7 764 13
	j	.L117
.L122:
.LBE7:
.LBB8:
	.loc 7 785 45
	lw	a5,-1092(s0)
	lw	a0,0(a5)
	lw	a1,4(a5)
	call	mbedtls_pk_ec_ro
	sw	a0,-24(s0)
	.loc 7 786 20
	sw	zero,-1076(s0)
	.loc 7 787 76
	lw	a5,-24(s0)
	lbu	a5,0(a5)
	.loc 7 787 44
	addi	a4,s0,-1076
	mv	a1,a4
	mv	a0,a5
	call	mbedtls_ecc_group_to_psa
	mv	a5,a0
	sb	a5,-25(s0)
	.loc 7 789 26
	lhu	a4,-18(s0)
	.loc 7 789 56
	lbu	a3,-25(s0)
	li	a5,16384
	addi	a5,a5,256
	or	a5,a3,a5
	.loc 7 789 16
	beq	a4,a5,.L118
	.loc 7 790 24
	li	a5,-16384
	addi	a5,a5,256
	j	.L121
.L118:
	.loc 7 792 23
	addi	a3,s0,-1064
	addi	a5,s0,-1072
	li	a4,1024
	mv	a2,a5
	li	a1,0
	lw	a0,-24(s0)
	call	mbedtls_ecp_write_public_key
	sw	a0,-32(s0)
	.loc 7 795 16
	lw	a5,-32(s0)
	bge	a5,zero,.L120
	.loc 7 796 24
	lw	a5,-32(s0)
	j	.L121
.L120:
	.loc 7 798 22
	addi	a5,s0,-1064
	sw	a5,-1068(s0)
	j	.L117
.L112:
.LBE8:
	.loc 7 830 20
	li	a5,-16384
	addi	a5,a5,384
	j	.L121
.L117:
	.loc 7 833 12
	lw	a5,-1068(s0)
	lw	a4,-1072(s0)
	lw	a3,-1100(s0)
	mv	a2,a4
	mv	a1,a5
	lw	a0,-1096(s0)
	call	psa_import_key
	mv	a5,a0
	.loc 7 833 12 is_stmt 0 discriminator 1
	mv	a0,a5
	call	psa_pk_status_to_mbedtls
	mv	a5,a0
.L121:
	.loc 7 836 1 is_stmt 1
	mv	a0,a5
	lw	ra,1100(sp)
	.cfi_restore 1
	lw	s0,1096(sp)
	.cfi_restore 8
	.cfi_def_cfa 2, 1104
	addi	sp,sp,1104
	.cfi_def_cfa_offset 0
	jr	ra
	.cfi_endproc
.LFE86:
	.size	import_public_into_psa, .-import_public_into_psa
	.section	.text.mbedtls_pk_import_into_psa,"ax",@progbits
	.align	1
	.globl	mbedtls_pk_import_into_psa
	.type	mbedtls_pk_import_into_psa, @function
mbedtls_pk_import_into_psa:
.LFB87:
	.loc 7 841 1
	.cfi_startproc
	addi	sp,sp,-48
	.cfi_def_cfa_offset 48
	sw	ra,44(sp)
	sw	s0,40(sp)
	.cfi_offset 1, -4
	.cfi_offset 8, -8
	addi	s0,sp,48
	.cfi_def_cfa 8, 0
	sw	a0,-36(s0)
	sw	a1,-40(s0)
	sw	a2,-44(s0)
	.loc 7 844 13
	lw	a5,-44(s0)
	sw	zero,0(a5)
	.loc 7 852 26
	lw	a0,-40(s0)
	call	psa_get_key_type
	mv	a5,a0
	.loc 7 852 56 discriminator 1
	mv	a4,a5
	li	a5,28672
	and	a4,a4,a5
	.loc 7 852 85 discriminator 1
	li	a5,-16384
	add	a5,a4,a5
	seqz	a5,a5
	andi	a5,a5,0xff
	.loc 7 852 9 discriminator 1
	sw	a5,-20(s0)
	.loc 7 853 8
	lw	a5,-20(s0)
	beq	a5,zero,.L124
	.loc 7 854 16
	lw	a2,-44(s0)
	lw	a1,-40(s0)
	lw	a0,-36(s0)
	call	import_public_into_psa
	mv	a5,a0
	j	.L125
.L124:
	.loc 7 856 16
	lw	a2,-44(s0)
	lw	a1,-40(s0)
	lw	a0,-36(s0)
	call	import_pair_into_psa
	mv	a5,a0
.L125:
	.loc 7 858 1
	mv	a0,a5
	lw	ra,44(sp)
	.cfi_restore 1
	lw	s0,40(sp)
	.cfi_restore 8
	.cfi_def_cfa 2, 48
	addi	sp,sp,48
	.cfi_def_cfa_offset 0
	jr	ra
	.cfi_endproc
.LFE87:
	.size	mbedtls_pk_import_into_psa, .-mbedtls_pk_import_into_psa
	.section	.text.copy_from_psa,"ax",@progbits
	.align	1
	.type	copy_from_psa, @function
copy_from_psa:
.LFB88:
	.loc 7 863 1
	.cfi_startproc
	addi	sp,sp,-2032
	.cfi_def_cfa_offset 2032
	sw	ra,2028(sp)
	sw	s0,2024(sp)
	.cfi_offset 1, -4
	.cfi_offset 8, -8
	addi	s0,sp,2032
	.cfi_def_cfa 8, 0
	addi	sp,sp,-432
	li	a5,-4096
	addi	a5,a5,-16
	add	a5,a5,s0
	sw	a0,1660(a5)
	li	a5,-4096
	addi	a5,a5,-16
	add	a5,a5,s0
	sw	a1,1656(a5)
	li	a5,-4096
	addi	a5,a5,-16
	add	a5,a5,s0
	sw	a2,1652(a5)
	.loc 7 865 26
	sh	zero,-68(s0)
	sh	zero,-66(s0)
	sw	zero,-64(s0)
	sw	zero,-60(s0)
	sw	zero,-56(s0)
	sw	zero,-52(s0)
	sw	zero,-48(s0)
	.loc 7 871 9
	li	a5,-16384
	addi	a5,a5,384
	sw	a5,-28(s0)
	.loc 7 873 8
	li	a5,-4096
	addi	a5,a5,-16
	add	a5,a5,s0
	lw	a5,1656(a5)
	bne	a5,zero,.L127
	.loc 7 874 16
	li	a5,-16384
	addi	a5,a5,384
	j	.L158
.L127:
	.loc 7 877 14
	addi	a4,s0,-68
	li	a5,-4096
	addi	a5,a5,-16
	add	a5,a5,s0
	mv	a1,a4
	lw	a0,1660(a5)
	call	psa_get_key_attributes
	sw	a0,-20(s0)
	.loc 7 878 8
	lw	a5,-20(s0)
	beq	a5,zero,.L129
	.loc 7 879 16
	li	a5,-16384
	addi	a5,a5,384
	j	.L158
.L129:
	.loc 7 882 8
	li	a5,-4096
	addi	a5,a5,-16
	add	a5,a5,s0
	lw	a5,1652(a5)
	beq	a5,zero,.L130
	.loc 7 883 18
	li	a5,-4096
	addi	a5,a5,1676
	addi	a5,a5,-16
	add	a4,a5,s0
	li	a5,-4096
	addi	a5,a5,1680
	addi	a5,a5,-16
	add	a1,a5,s0
	li	a5,-4096
	addi	a5,a5,-16
	add	a5,a5,s0
	mv	a3,a4
	li	a4,4096
	addi	a2,a4,-1733
	lw	a0,1660(a5)
	call	psa_export_public_key
	sw	a0,-20(s0)
	j	.L131
.L130:
	.loc 7 885 18
	li	a5,-4096
	addi	a5,a5,1676
	addi	a5,a5,-16
	add	a4,a5,s0
	li	a5,-4096
	addi	a5,a5,1680
	addi	a5,a5,-16
	add	a1,a5,s0
	li	a5,-4096
	addi	a5,a5,-16
	add	a5,a5,s0
	mv	a3,a4
	li	a4,4096
	addi	a2,a4,-1733
	lw	a0,1660(a5)
	call	psa_export_key
	sw	a0,-20(s0)
.L131:
	.loc 7 887 8
	lw	a5,-20(s0)
	beq	a5,zero,.L132
	.loc 7 888 15
	lw	a0,-20(s0)
	call	psa_pk_status_to_mbedtls
	sw	a0,-28(s0)
	.loc 7 889 9
	j	.L133
.L132:
	.loc 7 892 16
	addi	a5,s0,-68
	mv	a0,a5
	call	psa_get_key_type
	mv	a5,a0
	sh	a5,-22(s0)
	.loc 7 893 8
	li	a5,-4096
	addi	a5,a5,-16
	add	a5,a5,s0
	lw	a5,1652(a5)
	beq	a5,zero,.L134
	.loc 7 894 18
	lhu	a5,-22(s0)
	mv	a4,a5
	li	a5,-12288
	addi	a5,a5,-1
	and	a5,a4,a5
	sh	a5,-22(s0)
.L134:
	.loc 7 896 16
	addi	a5,s0,-68
	mv	a0,a5
	call	psa_get_key_bits
	sw	a0,-36(s0)
	.loc 7 899 8
	lhu	a4,-22(s0)
	li	a5,28672
	addi	a5,a5,1
	beq	a4,a5,.L135
	.loc 7 899 49 discriminator 1
	lhu	a4,-22(s0)
	li	a5,16384
	addi	a5,a5,1
	bne	a4,a5,.L136
.L135:
.LBB9:
	.loc 7 902 15
	li	a0,1
	call	mbedtls_pk_info_from_type
	mv	a4,a0
	.loc 7 902 15 is_stmt 0 discriminator 1
	li	a5,-4096
	addi	a5,a5,-16
	add	a5,a5,s0
	mv	a1,a4
	lw	a0,1656(a5)
	call	mbedtls_pk_setup
	sw	a0,-28(s0)
	.loc 7 903 12 is_stmt 1
	lw	a5,-28(s0)
	bne	a5,zero,.L159
	.loc 7 907 12
	lhu	a4,-22(s0)
	li	a5,28672
	addi	a5,a5,1
	bne	a4,a5,.L138
	.loc 7 908 19
	li	a5,-4096
	addi	a5,a5,-16
	add	a5,a5,s0
	lw	a5,1656(a5)
	lw	a0,0(a5)
	lw	a1,4(a5)
	call	mbedtls_pk_rsa
	mv	a3,a0
	.loc 7 908 19 is_stmt 0 discriminator 1
	li	a5,-4096
	addi	a5,a5,-16
	add	a5,a5,s0
	lw	a4,1676(a5)
	li	a5,-4096
	addi	a5,a5,1680
	addi	a5,a5,-16
	add	a5,a5,s0
	mv	a2,a4
	mv	a1,a5
	mv	a0,a3
	call	mbedtls_rsa_parse_key
	sw	a0,-28(s0)
	j	.L139
.L138:
	.loc 7 910 19 is_stmt 1
	li	a5,-4096
	addi	a5,a5,-16
	add	a5,a5,s0
	lw	a5,1656(a5)
	lw	a0,0(a5)
	lw	a1,4(a5)
	call	mbedtls_pk_rsa
	mv	a3,a0
	.loc 7 910 19 is_stmt 0 discriminator 1
	li	a5,-4096
	addi	a5,a5,-16
	add	a5,a5,s0
	lw	a4,1676(a5)
	li	a5,-4096
	addi	a5,a5,1680
	addi	a5,a5,-16
	add	a5,a5,s0
	mv	a2,a4
	mv	a1,a5
	mv	a0,a3
	call	mbedtls_rsa_parse_pubkey
	sw	a0,-28(s0)
.L139:
	.loc 7 912 12 is_stmt 1
	lw	a5,-28(s0)
	bne	a5,zero,.L160
	.loc 7 916 36
	addi	a5,s0,-68
	mv	a0,a5
	call	psa_get_key_algorithm
	sw	a0,-44(s0)
	.loc 7 917 27
	sb	zero,-29(s0)
	.loc 7 918 26
	lw	a5,-44(s0)
	andi	a5,a5,255
	.loc 7 918 12
	beq	a5,zero,.L141
	.loc 7 918 96 discriminator 1
	lw	a5,-44(s0)
	andi	a4,a5,255
	.loc 7 918 82 discriminator 1
	li	a5,33554432
	or	a4,a4,a5
	.loc 7 918 111 discriminator 1
	li	a5,33554432
	addi	a5,a5,255
	beq	a4,a5,.L142
.L141:
	.loc 7 919 23
	lw	a0,-44(s0)
	call	mbedtls_md_type_from_psa_alg
	mv	a5,a0
	sb	a5,-29(s0)
.L142:
	.loc 7 922 26
	lw	a5,-44(s0)
	andi	a4,a5,-256
	.loc 7 922 12
	li	a5,117440512
	addi	a5,a5,768
	beq	a4,a5,.L143
	.loc 7 922 113 discriminator 1
	lw	a5,-44(s0)
	andi	a4,a5,-256
	.loc 7 922 96 discriminator 1
	li	a5,100663296
	addi	a5,a5,768
	beq	a4,a5,.L143
	.loc 7 922 199 discriminator 2
	lw	a5,-44(s0)
	andi	a4,a5,-256
	.loc 7 922 183 discriminator 2
	li	a5,100667392
	addi	a5,a5,768
	bne	a4,a5,.L144
.L143:
	.loc 7 923 19
	li	a5,-4096
	addi	a5,a5,-16
	add	a5,a5,s0
	lw	a5,1656(a5)
	lw	a0,0(a5)
	lw	a1,4(a5)
	call	mbedtls_pk_rsa
	mv	a4,a0
	.loc 7 923 19 is_stmt 0 discriminator 1
	lbu	a5,-29(s0)
	mv	a2,a5
	li	a1,1
	mv	a0,a4
	call	mbedtls_rsa_set_padding
	sw	a0,-28(s0)
	.loc 7 923 17 is_stmt 1
	nop
.LBE9:
	.loc 7 900 50
	j	.L161
.L144:
.LBB10:
	.loc 7 924 33
	lw	a5,-44(s0)
	andi	a4,a5,-256
	.loc 7 924 19
	li	a5,100663296
	addi	a5,a5,512
	beq	a4,a5,.L146
	.loc 7 924 103 discriminator 1
	lw	a4,-44(s0)
	li	a5,117440512
	addi	a5,a5,512
	bne	a4,a5,.L161
.L146:
	.loc 7 926 19
	li	a5,-4096
	addi	a5,a5,-16
	add	a5,a5,s0
	lw	a5,1656(a5)
	lw	a0,0(a5)
	lw	a1,4(a5)
	call	mbedtls_pk_rsa
	mv	a4,a0
	.loc 7 926 19 is_stmt 0 discriminator 1
	lbu	a5,-29(s0)
	mv	a2,a5
	li	a1,0
	mv	a0,a4
	call	mbedtls_rsa_set_padding
	sw	a0,-28(s0)
.LBE10:
	.loc 7 900 50 is_stmt 1
	j	.L161
.L136:
	.loc 7 934 22
	lhu	a5,-22(s0)
	andi	a4,a5,-256
	.loc 7 934 8
	li	a5,28672
	addi	a5,a5,256
	beq	a4,a5,.L148
	.loc 7 935 22
	lhu	a5,-22(s0)
	andi	a4,a5,-256
	.loc 7 934 82 discriminator 1
	li	a5,16384
	addi	a5,a5,256
	bne	a4,a5,.L149
.L148:
.LBB11:
	.loc 7 938 15
	li	a0,2
	call	mbedtls_pk_info_from_type
	mv	a4,a0
	.loc 7 938 15 is_stmt 0 discriminator 1
	li	a5,-4096
	addi	a5,a5,-16
	add	a5,a5,s0
	mv	a1,a4
	lw	a0,1656(a5)
	call	mbedtls_pk_setup
	sw	a0,-28(s0)
	.loc 7 939 12 is_stmt 1
	lw	a5,-28(s0)
	bne	a5,zero,.L162
	.loc 7 943 110
	lhu	a4,-22(s0)
	li	a5,-12288
	addi	a5,a5,-256
	and	a4,a4,a5
	.loc 7 943 18
	li	a5,16384
	addi	a5,a5,256
	bne	a4,a5,.L151
	.loc 7 943 18 is_stmt 0 discriminator 1
	lhu	a5,-22(s0)
	andi	a5,a5,0xff
	j	.L152
.L151:
	.loc 7 943 18 discriminator 2
	li	a5,0
.L152:
	.loc 7 943 18 discriminator 4
	lw	a1,-36(s0)
	mv	a0,a5
	call	mbedtls_ecc_group_from_psa
	mv	a5,a0
	sb	a5,-37(s0)
	.loc 7 944 15 is_stmt 1
	lbu	a4,-37(s0)
	li	a5,-4096
	addi	a5,a5,-16
	add	a5,a5,s0
	mv	a1,a4
	lw	a0,1656(a5)
	call	mbedtls_pk_ecc_set_group
	sw	a0,-28(s0)
	.loc 7 945 12
	lw	a5,-28(s0)
	bne	a5,zero,.L163
	.loc 7 949 26
	lhu	a5,-22(s0)
	andi	a4,a5,-256
	.loc 7 949 12
	li	a5,28672
	addi	a5,a5,256
	bne	a4,a5,.L154
	.loc 7 950 19
	li	a5,-4096
	addi	a5,a5,-16
	add	a5,a5,s0
	lw	a3,1676(a5)
	li	a5,-4096
	addi	a5,a5,1680
	addi	a5,a5,-16
	add	a4,a5,s0
	li	a5,-4096
	addi	a5,a5,-16
	add	a5,a5,s0
	mv	a2,a3
	mv	a1,a4
	lw	a0,1656(a5)
	call	mbedtls_pk_ecc_set_key
	sw	a0,-28(s0)
	.loc 7 951 16
	lw	a5,-28(s0)
	bne	a5,zero,.L164
	.loc 7 954 19
	li	a5,-4096
	addi	a5,a5,-16
	add	a5,a5,s0
	lw	a2,1676(a5)
	li	a5,-4096
	addi	a5,a5,1680
	addi	a5,a5,-16
	add	a1,a5,s0
	li	a5,-4096
	addi	a5,a5,-16
	add	a5,a5,s0
	li	a4,0
	lui	a3,%hi(mbedtls_psa_get_random)
	addi	a3,a3,%lo(mbedtls_psa_get_random)
	lw	a0,1656(a5)
	call	mbedtls_pk_ecc_set_pubkey_from_prv
	sw	a0,-28(s0)
.LBE11:
	.loc 7 935 83
	j	.L133
.L154:
.LBB12:
	.loc 7 958 19
	li	a5,-4096
	addi	a5,a5,-16
	add	a5,a5,s0
	lw	a3,1676(a5)
	li	a5,-4096
	addi	a5,a5,1680
	addi	a5,a5,-16
	add	a4,a5,s0
	li	a5,-4096
	addi	a5,a5,-16
	add	a5,a5,s0
	mv	a2,a3
	mv	a1,a4
	lw	a0,1656(a5)
	call	mbedtls_pk_ecc_set_pubkey
	sw	a0,-28(s0)
.LBE12:
	.loc 7 935 83
	j	.L133
.L149:
	.loc 7 967 16
	li	a5,-16384
	addi	a5,a5,384
	j	.L158
.L159:
.LBB13:
	.loc 7 904 13
	nop
	j	.L133
.L160:
	.loc 7 913 13
	nop
	j	.L133
.L161:
.LBE13:
	.loc 7 900 50
	nop
	j	.L133
.L162:
.LBB14:
	.loc 7 940 13
	nop
	j	.L133
.L163:
	.loc 7 946 13
	nop
	j	.L133
.L164:
	.loc 7 952 17
	nop
.L133:
.LBE14:
	.loc 7 971 5
	addi	a5,s0,-68
	mv	a0,a5
	call	psa_reset_key_attributes
	.loc 7 972 5
	li	a5,-4096
	addi	a5,a5,1680
	addi	a5,a5,-16
	add	a4,a5,s0
	li	a5,4096
	addi	a1,a5,-1733
	mv	a0,a4
	call	mbedtls_platform_zeroize
	.loc 7 974 12
	lw	a5,-28(s0)
.L158:
	.loc 7 975 1
	mv	a0,a5
	addi	sp,sp,432
	.cfi_def_cfa 2, 2032
	lw	ra,2028(sp)
	.cfi_restore 1
	lw	s0,2024(sp)
	.cfi_restore 8
	addi	sp,sp,2032
	.cfi_def_cfa_offset 0
	jr	ra
	.cfi_endproc
.LFE88:
	.size	copy_from_psa, .-copy_from_psa
	.section	.text.mbedtls_pk_copy_from_psa,"ax",@progbits
	.align	1
	.globl	mbedtls_pk_copy_from_psa
	.type	mbedtls_pk_copy_from_psa, @function
mbedtls_pk_copy_from_psa:
.LFB89:
	.loc 7 979 1
	.cfi_startproc
	addi	sp,sp,-32
	.cfi_def_cfa_offset 32
	sw	ra,28(sp)
	sw	s0,24(sp)
	.cfi_offset 1, -4
	.cfi_offset 8, -8
	addi	s0,sp,32
	.cfi_def_cfa 8, 0
	sw	a0,-20(s0)
	sw	a1,-24(s0)
	.loc 7 980 12
	li	a2,0
	lw	a1,-24(s0)
	lw	a0,-20(s0)
	call	copy_from_psa
	mv	a5,a0
	.loc 7 981 1
	mv	a0,a5
	lw	ra,28(sp)
	.cfi_restore 1
	lw	s0,24(sp)
	.cfi_restore 8
	.cfi_def_cfa 2, 32
	addi	sp,sp,32
	.cfi_def_cfa_offset 0
	jr	ra
	.cfi_endproc
.LFE89:
	.size	mbedtls_pk_copy_from_psa, .-mbedtls_pk_copy_from_psa
	.section	.text.mbedtls_pk_copy_public_from_psa,"ax",@progbits
	.align	1
	.globl	mbedtls_pk_copy_public_from_psa
	.type	mbedtls_pk_copy_public_from_psa, @function
mbedtls_pk_copy_public_from_psa:
.LFB90:
	.loc 7 985 1
	.cfi_startproc
	addi	sp,sp,-32
	.cfi_def_cfa_offset 32
	sw	ra,28(sp)
	sw	s0,24(sp)
	.cfi_offset 1, -4
	.cfi_offset 8, -8
	addi	s0,sp,32
	.cfi_def_cfa 8, 0
	sw	a0,-20(s0)
	sw	a1,-24(s0)
	.loc 7 986 12
	li	a2,1
	lw	a1,-24(s0)
	lw	a0,-20(s0)
	call	copy_from_psa
	mv	a5,a0
	.loc 7 987 1
	mv	a0,a5
	lw	ra,28(sp)
	.cfi_restore 1
	lw	s0,24(sp)
	.cfi_restore 8
	.cfi_def_cfa 2, 32
	addi	sp,sp,32
	.cfi_def_cfa_offset 0
	jr	ra
	.cfi_endproc
.LFE90:
	.size	mbedtls_pk_copy_public_from_psa, .-mbedtls_pk_copy_public_from_psa
	.section	.text.pk_hashlen_helper,"ax",@progbits
	.align	1
	.type	pk_hashlen_helper, @function
pk_hashlen_helper:
.LFB91:
	.loc 7 994 1
	.cfi_startproc
	addi	sp,sp,-32
	.cfi_def_cfa_offset 32
	sw	ra,28(sp)
	sw	s0,24(sp)
	.cfi_offset 1, -4
	.cfi_offset 8, -8
	addi	s0,sp,32
	.cfi_def_cfa 8, 0
	mv	a5,a0
	sw	a1,-24(s0)
	sb	a5,-17(s0)
	.loc 7 995 9
	lw	a5,-24(s0)
	lw	a5,0(a5)
	.loc 7 995 8
	beq	a5,zero,.L170
	.loc 7 996 16
	li	a5,0
	j	.L171
.L170:
	.loc 7 999 17
	lbu	a5,-17(s0)
	mv	a0,a5
	call	mbedtls_md_get_size_from_type
	mv	a5,a0
	.loc 7 999 17 is_stmt 0 discriminator 1
	mv	a4,a5
	.loc 7 999 15 is_stmt 1 discriminator 1
	lw	a5,-24(s0)
	sw	a4,0(a5)
	.loc 7 1001 9
	lw	a5,-24(s0)
	lw	a5,0(a5)
	.loc 7 1001 8
	bne	a5,zero,.L172
	.loc 7 1002 16
	li	a5,-1
	j	.L171
.L172:
	.loc 7 1005 12
	li	a5,0
.L171:
	.loc 7 1006 1
	mv	a0,a5
	lw	ra,28(sp)
	.cfi_restore 1
	lw	s0,24(sp)
	.cfi_restore 8
	.cfi_def_cfa 2, 32
	addi	sp,sp,32
	.cfi_def_cfa_offset 0
	jr	ra
	.cfi_endproc
.LFE91:
	.size	pk_hashlen_helper, .-pk_hashlen_helper
	.section	.text.pk_restart_setup,"ax",@progbits
	.align	1
	.type	pk_restart_setup, @function
pk_restart_setup:
.LFB92:
	.loc 7 1014 1
	.cfi_startproc
	addi	sp,sp,-32
	.cfi_def_cfa_offset 32
	sw	ra,28(sp)
	sw	s0,24(sp)
	.cfi_offset 1, -4
	.cfi_offset 8, -8
	addi	s0,sp,32
	.cfi_def_cfa 8, 0
	sw	a0,-20(s0)
	sw	a1,-24(s0)
	.loc 7 1016 8
	lw	a5,-20(s0)
	beq	a5,zero,.L174
	.loc 7 1016 26 discriminator 1
	lw	a5,-20(s0)
	lw	a5,0(a5)
	.loc 7 1016 20 discriminator 1
	beq	a5,zero,.L175
.L174:
	.loc 7 1017 16
	li	a5,0
	j	.L176
.L175:
	.loc 7 1021 13
	lw	a5,-24(s0)
	lw	a5,52(a5)
	.loc 7 1021 8
	beq	a5,zero,.L177
	.loc 7 1021 43 discriminator 1
	lw	a5,-24(s0)
	lw	a5,56(a5)
	.loc 7 1021 36 discriminator 1
	bne	a5,zero,.L178
.L177:
	.loc 7 1022 16
	li	a5,-16384
	addi	a5,a5,384
	j	.L176
.L178:
	.loc 7 1025 28
	lw	a5,-24(s0)
	lw	a5,52(a5)
	.loc 7 1025 24
	jalr	a5
.LVL4:
	mv	a4,a0
	.loc 7 1025 22 discriminator 1
	lw	a5,-20(s0)
	sw	a4,4(a5)
	.loc 7 1025 13 discriminator 1
	lw	a5,-20(s0)
	lw	a5,4(a5)
	.loc 7 1025 8 discriminator 1
	bne	a5,zero,.L179
	.loc 7 1026 16
	li	a5,-16384
	addi	a5,a5,128
	j	.L176
.L179:
	.loc 7 1029 18
	lw	a5,-20(s0)
	lw	a4,-24(s0)
	sw	a4,0(a5)
	.loc 7 1031 12
	li	a5,0
.L176:
	.loc 7 1032 1
	mv	a0,a5
	lw	ra,28(sp)
	.cfi_restore 1
	lw	s0,24(sp)
	.cfi_restore 8
	.cfi_def_cfa 2, 32
	addi	sp,sp,32
	.cfi_def_cfa_offset 0
	jr	ra
	.cfi_endproc
.LFE92:
	.size	pk_restart_setup, .-pk_restart_setup
	.section	.text.mbedtls_pk_verify_restartable,"ax",@progbits
	.align	1
	.globl	mbedtls_pk_verify_restartable
	.type	mbedtls_pk_verify_restartable, @function
mbedtls_pk_verify_restartable:
.LFB93:
	.loc 7 1043 1
	.cfi_startproc
	addi	sp,sp,-64
	.cfi_def_cfa_offset 64
	sw	ra,60(sp)
	sw	s0,56(sp)
	.cfi_offset 1, -4
	.cfi_offset 8, -8
	addi	s0,sp,64
	.cfi_def_cfa 8, 0
	sw	a0,-36(s0)
	sw	a2,-44(s0)
	sw	a3,-48(s0)
	sw	a4,-52(s0)
	sw	a5,-56(s0)
	sw	a6,-60(s0)
	mv	a5,a1
	sb	a5,-37(s0)
	.loc 7 1044 8
	lbu	a5,-37(s0)
	bne	a5,zero,.L181
	.loc 7 1044 48 discriminator 2
	lw	a5,-48(s0)
	.loc 7 1044 36 discriminator 2
	beq	a5,zero,.L182
.L181:
	.loc 7 1044 54 discriminator 3
	lw	a5,-44(s0)
	bne	a5,zero,.L182
	.loc 7 1045 16
	li	a5,-16384
	addi	a5,a5,384
	j	.L183
.L182:
	.loc 7 1048 12
	lw	a5,-36(s0)
	lw	a5,0(a5)
	.loc 7 1048 8
	beq	a5,zero,.L184
	.loc 7 1049 9
	addi	a4,s0,-48
	lbu	a5,-37(s0)
	mv	a1,a4
	mv	a0,a5
	call	pk_hashlen_helper
	mv	a5,a0
	.loc 7 1048 29 discriminator 1
	beq	a5,zero,.L185
.L184:
	.loc 7 1050 16
	li	a5,-16384
	addi	a5,a5,384
	j	.L183
.L185:
	.loc 7 1055 8
	lw	a5,-60(s0)
	beq	a5,zero,.L186
	.loc 7 1056 9
	call	mbedtls_ecp_restart_is_enabled
	mv	a5,a0
	.loc 7 1055 23 discriminator 1
	beq	a5,zero,.L186
	.loc 7 1057 12
	lw	a5,-36(s0)
	lw	a5,0(a5)
	.loc 7 1057 21
	lw	a5,24(a5)
	.loc 7 1056 42
	beq	a5,zero,.L186
.LBB15:
	.loc 7 1058 13
	li	a5,-110
	sw	a5,-20(s0)
	.loc 7 1060 20
	lw	a5,-36(s0)
	lw	a5,0(a5)
	mv	a1,a5
	lw	a0,-60(s0)
	call	pk_restart_setup
	sw	a0,-20(s0)
	.loc 7 1060 12 discriminator 1
	lw	a5,-20(s0)
	beq	a5,zero,.L187
	.loc 7 1061 20
	lw	a5,-20(s0)
	j	.L183
.L187:
	.loc 7 1064 18
	lw	a5,-36(s0)
	lw	a5,0(a5)
	.loc 7 1064 27
	lw	a7,24(a5)
	.loc 7 1064 15
	lw	a3,-48(s0)
	lw	a5,-60(s0)
	lw	a5,4(a5)
	lbu	a1,-37(s0)
	mv	a6,a5
	lw	a5,-56(s0)
	lw	a4,-52(s0)
	lw	a2,-44(s0)
	lw	a0,-36(s0)
	jalr	a7
.LVL5:
	sw	a0,-20(s0)
	.loc 7 1067 12
	lw	a4,-20(s0)
	li	a5,-20480
	addi	a5,a5,1280
	beq	a4,a5,.L188
	.loc 7 1068 13
	lw	a0,-60(s0)
	call	mbedtls_pk_restart_free
.L188:
	.loc 7 1071 16
	lw	a5,-20(s0)
	j	.L183
.L186:
.LBE15:
	.loc 7 1077 12
	lw	a5,-36(s0)
	lw	a5,0(a5)
	.loc 7 1077 21
	lw	a5,16(a5)
	.loc 7 1077 8
	bne	a5,zero,.L189
	.loc 7 1078 16
	li	a5,-16384
	addi	a5,a5,256
	j	.L183
.L189:
	.loc 7 1081 15
	lw	a5,-36(s0)
	lw	a5,0(a5)
	.loc 7 1081 24
	lw	a6,16(a5)
	.loc 7 1081 12
	lw	a3,-48(s0)
	lbu	a1,-37(s0)
	lw	a5,-56(s0)
	lw	a4,-52(s0)
	lw	a2,-44(s0)
	lw	a0,-36(s0)
	jalr	a6
.LVL6:
	mv	a5,a0
.L183:
	.loc 7 1083 1
	mv	a0,a5
	lw	ra,60(sp)
	.cfi_restore 1
	lw	s0,56(sp)
	.cfi_restore 8
	.cfi_def_cfa 2, 64
	addi	sp,sp,64
	.cfi_def_cfa_offset 0
	jr	ra
	.cfi_endproc
.LFE93:
	.size	mbedtls_pk_verify_restartable, .-mbedtls_pk_verify_restartable
	.section	.text.mbedtls_pk_verify,"ax",@progbits
	.align	1
	.globl	mbedtls_pk_verify
	.type	mbedtls_pk_verify, @function
mbedtls_pk_verify:
.LFB94:
	.loc 7 1091 1
	.cfi_startproc
	addi	sp,sp,-48
	.cfi_def_cfa_offset 48
	sw	ra,44(sp)
	sw	s0,40(sp)
	.cfi_offset 1, -4
	.cfi_offset 8, -8
	addi	s0,sp,48
	.cfi_def_cfa 8, 0
	sw	a0,-20(s0)
	sw	a2,-28(s0)
	sw	a3,-32(s0)
	sw	a4,-36(s0)
	sw	a5,-40(s0)
	mv	a5,a1
	sb	a5,-21(s0)
	.loc 7 1092 12
	lbu	a1,-21(s0)
	li	a6,0
	lw	a5,-40(s0)
	lw	a4,-36(s0)
	lw	a3,-32(s0)
	lw	a2,-28(s0)
	lw	a0,-20(s0)
	call	mbedtls_pk_verify_restartable
	mv	a5,a0
	.loc 7 1094 1
	mv	a0,a5
	lw	ra,44(sp)
	.cfi_restore 1
	lw	s0,40(sp)
	.cfi_restore 8
	.cfi_def_cfa 2, 48
	addi	sp,sp,48
	.cfi_def_cfa_offset 0
	jr	ra
	.cfi_endproc
.LFE94:
	.size	mbedtls_pk_verify, .-mbedtls_pk_verify
	.section	.text.mbedtls_pk_verify_ext,"ax",@progbits
	.align	1
	.globl	mbedtls_pk_verify_ext
	.type	mbedtls_pk_verify_ext, @function
mbedtls_pk_verify_ext:
.LFB95:
	.loc 7 1103 1
	.cfi_startproc
	addi	sp,sp,-64
	.cfi_def_cfa_offset 64
	sw	ra,60(sp)
	sw	s0,56(sp)
	.cfi_offset 1, -4
	.cfi_offset 8, -8
	addi	s0,sp,64
	.cfi_def_cfa 8, 0
	sw	a1,-40(s0)
	sw	a2,-44(s0)
	sw	a4,-48(s0)
	sw	a5,-52(s0)
	sw	a6,-56(s0)
	sw	a7,-60(s0)
	mv	a5,a0
	sb	a5,-33(s0)
	mv	a5,a3
	sb	a5,-34(s0)
	.loc 7 1104 8
	lbu	a5,-34(s0)
	bne	a5,zero,.L193
	.loc 7 1104 36 discriminator 2
	lw	a5,-52(s0)
	beq	a5,zero,.L194
.L193:
	.loc 7 1104 54 discriminator 3
	lw	a5,-48(s0)
	bne	a5,zero,.L194
	.loc 7 1105 16
	li	a5,-16384
	addi	a5,a5,384
	j	.L195
.L194:
	.loc 7 1108 12
	lw	a5,-44(s0)
	lw	a5,0(a5)
	.loc 7 1108 8
	bne	a5,zero,.L196
	.loc 7 1109 16
	li	a5,-16384
	addi	a5,a5,384
	j	.L195
.L196:
	.loc 7 1112 10
	lbu	a5,-33(s0)
	mv	a1,a5
	lw	a0,-44(s0)
	call	mbedtls_pk_can_do
	mv	a5,a0
	.loc 7 1112 8 discriminator 1
	bne	a5,zero,.L197
	.loc 7 1113 16
	li	a5,-16384
	addi	a5,a5,256
	j	.L195
.L197:
	.loc 7 1116 8
	lbu	a4,-33(s0)
	li	a5,6
	beq	a4,a5,.L198
	.loc 7 1118 12
	lw	a5,-40(s0)
	beq	a5,zero,.L199
	.loc 7 1119 20
	li	a5,-16384
	addi	a5,a5,384
	j	.L195
.L199:
	.loc 7 1122 16
	lbu	a1,-34(s0)
	lw	a5,-60(s0)
	lw	a4,-56(s0)
	lw	a3,-52(s0)
	lw	a2,-48(s0)
	lw	a0,-44(s0)
	call	mbedtls_pk_verify
	mv	a5,a0
	j	.L195
.L198:
	.loc 7 1127 9
	lw	a0,-44(s0)
	call	mbedtls_pk_get_type
	mv	a5,a0
	mv	a4,a5
	.loc 7 1127 8 discriminator 1
	li	a5,1
	beq	a4,a5,.L200
	.loc 7 1128 16
	li	a5,-16384
	addi	a5,a5,1664
	j	.L195
.L200:
	.loc 7 1132 9
	li	a5,-110
	sw	a5,-20(s0)
	.loc 7 1141 8
	lw	a5,-40(s0)
	bne	a5,zero,.L201
	.loc 7 1142 16
	li	a5,-16384
	addi	a5,a5,384
	j	.L195
.L201:
	.loc 7 1145 14
	lw	a5,-40(s0)
	sw	a5,-24(s0)
	.loc 7 1202 23
	lw	a0,-44(s0)
	call	mbedtls_pk_get_len
	mv	a4,a0
	.loc 7 1202 12 discriminator 1
	lw	a5,-60(s0)
	bgeu	a5,a4,.L202
	.loc 7 1203 20
	li	a5,-16384
	addi	a5,a5,-896
	j	.L195
.L202:
	.loc 7 1206 15
	lw	a5,-44(s0)
	lw	a0,0(a5)
	lw	a1,4(a5)
	call	mbedtls_pk_rsa
	.loc 7 1208 57
	lw	a5,-24(s0)
	lbu	a4,0(a5)
	.loc 7 1209 57
	lw	a5,-24(s0)
	lw	a5,4(a5)
	.loc 7 1206 15
	lbu	a1,-34(s0)
	lw	a6,-56(s0)
	lw	a3,-48(s0)
	lw	a2,-52(s0)
	call	mbedtls_rsa_rsassa_pss_verify_ext
	sw	a0,-20(s0)
	.loc 7 1211 12
	lw	a5,-20(s0)
	beq	a5,zero,.L203
	.loc 7 1212 20
	lw	a5,-20(s0)
	j	.L195
.L203:
	.loc 7 1215 23
	lw	a0,-44(s0)
	call	mbedtls_pk_get_len
	mv	a4,a0
	.loc 7 1215 12 discriminator 1
	lw	a5,-60(s0)
	bleu	a5,a4,.L204
	.loc 7 1216 20
	li	a5,-16384
	addi	a5,a5,1792
	j	.L195
.L204:
	.loc 7 1219 16
	li	a5,0
.L195:
	.loc 7 1224 1
	mv	a0,a5
	lw	ra,60(sp)
	.cfi_restore 1
	lw	s0,56(sp)
	.cfi_restore 8
	.cfi_def_cfa 2, 64
	addi	sp,sp,64
	.cfi_def_cfa_offset 0
	jr	ra
	.cfi_endproc
.LFE95:
	.size	mbedtls_pk_verify_ext, .-mbedtls_pk_verify_ext
	.section	.text.mbedtls_pk_sign_restartable,"ax",@progbits
	.align	1
	.globl	mbedtls_pk_sign_restartable
	.type	mbedtls_pk_sign_restartable, @function
mbedtls_pk_sign_restartable:
.LFB96:
	.loc 7 1235 1
	.cfi_startproc
	addi	sp,sp,-80
	.cfi_def_cfa_offset 80
	sw	ra,76(sp)
	sw	s0,72(sp)
	.cfi_offset 1, -4
	.cfi_offset 8, -8
	addi	s0,sp,80
	.cfi_def_cfa 8, 0
	sw	a0,-36(s0)
	sw	a2,-44(s0)
	sw	a3,-48(s0)
	sw	a4,-52(s0)
	sw	a5,-56(s0)
	sw	a6,-60(s0)
	sw	a7,-64(s0)
	mv	a5,a1
	sb	a5,-37(s0)
	.loc 7 1236 8
	lbu	a5,-37(s0)
	bne	a5,zero,.L206
	.loc 7 1236 48 discriminator 2
	lw	a5,-48(s0)
	.loc 7 1236 36 discriminator 2
	beq	a5,zero,.L207
.L206:
	.loc 7 1236 54 discriminator 3
	lw	a5,-44(s0)
	bne	a5,zero,.L207
	.loc 7 1237 16
	li	a5,-16384
	addi	a5,a5,384
	j	.L208
.L207:
	.loc 7 1240 12
	lw	a5,-36(s0)
	lw	a5,0(a5)
	.loc 7 1240 8
	beq	a5,zero,.L209
	.loc 7 1240 32 discriminator 1
	addi	a4,s0,-48
	lbu	a5,-37(s0)
	mv	a1,a4
	mv	a0,a5
	call	pk_hashlen_helper
	mv	a5,a0
	.loc 7 1240 29 discriminator 2
	beq	a5,zero,.L210
.L209:
	.loc 7 1241 16
	li	a5,-16384
	addi	a5,a5,384
	j	.L208
.L210:
	.loc 7 1246 8
	lw	a5,4(s0)
	beq	a5,zero,.L211
	.loc 7 1247 9
	call	mbedtls_ecp_restart_is_enabled
	mv	a5,a0
	.loc 7 1246 23 discriminator 1
	beq	a5,zero,.L211
	.loc 7 1248 12
	lw	a5,-36(s0)
	lw	a5,0(a5)
	.loc 7 1248 21
	lw	a5,28(a5)
	.loc 7 1247 42
	beq	a5,zero,.L211
.LBB16:
	.loc 7 1249 13
	li	a5,-110
	sw	a5,-20(s0)
	.loc 7 1251 20
	lw	a5,-36(s0)
	lw	a5,0(a5)
	mv	a1,a5
	lw	a0,4(s0)
	call	pk_restart_setup
	sw	a0,-20(s0)
	.loc 7 1251 12 discriminator 1
	lw	a5,-20(s0)
	beq	a5,zero,.L212
	.loc 7 1252 20
	lw	a5,-20(s0)
	j	.L208
.L212:
	.loc 7 1255 18
	lw	a5,-36(s0)
	lw	a5,0(a5)
	.loc 7 1255 27
	lw	t1,28(a5)
	.loc 7 1255 15
	lw	a3,-48(s0)
	lw	a5,4(s0)
	lw	a5,4(a5)
	lbu	a1,-37(s0)
	sw	a5,4(sp)
	lw	a5,0(s0)
	sw	a5,0(sp)
	lw	a7,-64(s0)
	lw	a6,-60(s0)
	lw	a5,-56(s0)
	lw	a4,-52(s0)
	lw	a2,-44(s0)
	lw	a0,-36(s0)
	jalr	t1
.LVL7:
	sw	a0,-20(s0)
	.loc 7 1260 12
	lw	a4,-20(s0)
	li	a5,-20480
	addi	a5,a5,1280
	beq	a4,a5,.L213
	.loc 7 1261 13
	lw	a0,4(s0)
	call	mbedtls_pk_restart_free
.L213:
	.loc 7 1264 16
	lw	a5,-20(s0)
	j	.L208
.L211:
.LBE16:
	.loc 7 1270 12
	lw	a5,-36(s0)
	lw	a5,0(a5)
	.loc 7 1270 21
	lw	a5,20(a5)
	.loc 7 1270 8
	bne	a5,zero,.L214
	.loc 7 1271 16
	li	a5,-16384
	addi	a5,a5,256
	j	.L208
.L214:
	.loc 7 1274 15
	lw	a5,-36(s0)
	lw	a5,0(a5)
	.loc 7 1274 24
	lw	t1,20(a5)
	.loc 7 1274 12
	lw	a3,-48(s0)
	lbu	a1,-37(s0)
	lw	a5,0(s0)
	sw	a5,0(sp)
	lw	a7,-64(s0)
	lw	a6,-60(s0)
	lw	a5,-56(s0)
	lw	a4,-52(s0)
	lw	a2,-44(s0)
	lw	a0,-36(s0)
	jalr	t1
.LVL8:
	mv	a5,a0
.L208:
	.loc 7 1278 1
	mv	a0,a5
	lw	ra,76(sp)
	.cfi_restore 1
	lw	s0,72(sp)
	.cfi_restore 8
	.cfi_def_cfa 2, 80
	addi	sp,sp,80
	.cfi_def_cfa_offset 0
	jr	ra
	.cfi_endproc
.LFE96:
	.size	mbedtls_pk_sign_restartable, .-mbedtls_pk_sign_restartable
	.section	.text.mbedtls_pk_sign,"ax",@progbits
	.align	1
	.globl	mbedtls_pk_sign
	.type	mbedtls_pk_sign, @function
mbedtls_pk_sign:
.LFB97:
	.loc 7 1287 1
	.cfi_startproc
	addi	sp,sp,-64
	.cfi_def_cfa_offset 64
	sw	ra,60(sp)
	sw	s0,56(sp)
	.cfi_offset 1, -4
	.cfi_offset 8, -8
	addi	s0,sp,64
	.cfi_def_cfa 8, 0
	sw	a0,-20(s0)
	sw	a2,-28(s0)
	sw	a3,-32(s0)
	sw	a4,-36(s0)
	sw	a5,-40(s0)
	sw	a6,-44(s0)
	sw	a7,-48(s0)
	mv	a5,a1
	sb	a5,-21(s0)
	.loc 7 1288 12
	lbu	a1,-21(s0)
	sw	zero,4(sp)
	lw	a5,0(s0)
	sw	a5,0(sp)
	lw	a7,-48(s0)
	lw	a6,-44(s0)
	lw	a5,-40(s0)
	lw	a4,-36(s0)
	lw	a3,-32(s0)
	lw	a2,-28(s0)
	lw	a0,-20(s0)
	call	mbedtls_pk_sign_restartable
	mv	a5,a0
	.loc 7 1291 1
	mv	a0,a5
	lw	ra,60(sp)
	.cfi_restore 1
	lw	s0,56(sp)
	.cfi_restore 8
	.cfi_def_cfa 2, 64
	addi	sp,sp,64
	.cfi_def_cfa_offset 0
	jr	ra
	.cfi_endproc
.LFE97:
	.size	mbedtls_pk_sign, .-mbedtls_pk_sign
	.section	.text.mbedtls_pk_sign_ext,"ax",@progbits
	.align	1
	.globl	mbedtls_pk_sign_ext
	.type	mbedtls_pk_sign_ext, @function
mbedtls_pk_sign_ext:
.LFB98:
	.loc 7 1303 1
	.cfi_startproc
	addi	sp,sp,-80
	.cfi_def_cfa_offset 80
	sw	ra,76(sp)
	sw	s0,72(sp)
	.cfi_offset 1, -4
	.cfi_offset 8, -8
	addi	s0,sp,80
	.cfi_def_cfa 8, 0
	sw	a1,-40(s0)
	sw	a3,-44(s0)
	sw	a4,-48(s0)
	sw	a5,-52(s0)
	sw	a6,-56(s0)
	sw	a7,-60(s0)
	mv	a5,a0
	sb	a5,-33(s0)
	mv	a5,a2
	sb	a5,-34(s0)
	.loc 7 1304 12
	lw	a5,-40(s0)
	lw	a5,0(a5)
	.loc 7 1304 8
	bne	a5,zero,.L218
	.loc 7 1305 16
	li	a5,-16384
	addi	a5,a5,384
	j	.L219
.L218:
	.loc 7 1308 10
	lbu	a5,-33(s0)
	mv	a1,a5
	lw	a0,-40(s0)
	call	mbedtls_pk_can_do
	mv	a5,a0
	.loc 7 1308 8 discriminator 1
	bne	a5,zero,.L220
	.loc 7 1309 16
	li	a5,-16384
	addi	a5,a5,256
	j	.L219
.L220:
	.loc 7 1312 8
	lbu	a4,-33(s0)
	li	a5,6
	beq	a4,a5,.L221
	.loc 7 1313 16
	lw	a3,-48(s0)
	lbu	a1,-34(s0)
	lw	a5,4(s0)
	sw	a5,0(sp)
	lw	a7,0(s0)
	lw	a6,-60(s0)
	lw	a5,-56(s0)
	lw	a4,-52(s0)
	lw	a2,-44(s0)
	lw	a0,-40(s0)
	call	mbedtls_pk_sign
	mv	a5,a0
	j	.L219
.L221:
	.loc 7 1347 20
	lw	a0,-40(s0)
	call	mbedtls_pk_get_len
	mv	a4,a0
	.loc 7 1347 8 discriminator 1
	lw	a5,-56(s0)
	bgeu	a5,a4,.L222
	.loc 7 1348 16
	li	a5,-16384
	addi	a5,a5,1920
	j	.L219
.L222:
	.loc 7 1351 9
	addi	a4,s0,-48
	lbu	a5,-34(s0)
	mv	a1,a4
	mv	a0,a5
	call	pk_hashlen_helper
	mv	a5,a0
	.loc 7 1351 8 discriminator 1
	beq	a5,zero,.L223
	.loc 7 1352 16
	li	a5,-16384
	addi	a5,a5,384
	j	.L219
.L223:
	.loc 7 1355 42
	lw	a5,-40(s0)
	lw	a0,0(a5)
	lw	a1,4(a5)
	call	mbedtls_pk_rsa
	sw	a0,-20(s0)
	.loc 7 1357 21
	lw	a4,-48(s0)
	lbu	a3,-34(s0)
	lw	a6,-52(s0)
	lw	a5,-44(s0)
	lw	a2,4(s0)
	lw	a1,0(s0)
	lw	a0,-20(s0)
	call	mbedtls_rsa_rsassa_pss_sign_no_mode_check
	sw	a0,-24(s0)
	.loc 7 1359 8
	lw	a5,-24(s0)
	bne	a5,zero,.L224
	.loc 7 1360 27
	lw	a5,-20(s0)
	lw	a4,4(a5)
	.loc 7 1360 18
	lw	a5,-60(s0)
	sw	a4,0(a5)
.L224:
	.loc 7 1362 12
	lw	a5,-24(s0)
.L219:
	.loc 7 1369 1
	mv	a0,a5
	lw	ra,76(sp)
	.cfi_restore 1
	lw	s0,72(sp)
	.cfi_restore 8
	.cfi_def_cfa 2, 80
	addi	sp,sp,80
	.cfi_def_cfa_offset 0
	jr	ra
	.cfi_endproc
.LFE98:
	.size	mbedtls_pk_sign_ext, .-mbedtls_pk_sign_ext
	.section	.text.mbedtls_pk_decrypt,"ax",@progbits
	.align	1
	.globl	mbedtls_pk_decrypt
	.type	mbedtls_pk_decrypt, @function
mbedtls_pk_decrypt:
.LFB99:
	.loc 7 1378 1
	.cfi_startproc
	addi	sp,sp,-48
	.cfi_def_cfa_offset 48
	sw	ra,44(sp)
	sw	s0,40(sp)
	.cfi_offset 1, -4
	.cfi_offset 8, -8
	addi	s0,sp,48
	.cfi_def_cfa 8, 0
	sw	a0,-20(s0)
	sw	a1,-24(s0)
	sw	a2,-28(s0)
	sw	a3,-32(s0)
	sw	a4,-36(s0)
	sw	a5,-40(s0)
	sw	a6,-44(s0)
	sw	a7,-48(s0)
	.loc 7 1379 12
	lw	a5,-20(s0)
	lw	a5,0(a5)
	.loc 7 1379 8
	bne	a5,zero,.L226
	.loc 7 1380 16
	li	a5,-16384
	addi	a5,a5,384
	j	.L227
.L226:
	.loc 7 1383 12
	lw	a5,-20(s0)
	lw	a5,0(a5)
	.loc 7 1383 21
	lw	a5,32(a5)
	.loc 7 1383 8
	bne	a5,zero,.L228
	.loc 7 1384 16
	li	a5,-16384
	addi	a5,a5,256
	j	.L227
.L228:
	.loc 7 1387 15
	lw	a5,-20(s0)
	lw	a5,0(a5)
	.loc 7 1387 24
	lw	t1,32(a5)
	.loc 7 1387 12
	lw	a7,-48(s0)
	lw	a6,-44(s0)
	lw	a5,-40(s0)
	lw	a4,-36(s0)
	lw	a3,-32(s0)
	lw	a2,-28(s0)
	lw	a1,-24(s0)
	lw	a0,-20(s0)
	jalr	t1
.LVL9:
	mv	a5,a0
.L227:
	.loc 7 1389 1
	mv	a0,a5
	lw	ra,44(sp)
	.cfi_restore 1
	lw	s0,40(sp)
	.cfi_restore 8
	.cfi_def_cfa 2, 48
	addi	sp,sp,48
	.cfi_def_cfa_offset 0
	jr	ra
	.cfi_endproc
.LFE99:
	.size	mbedtls_pk_decrypt, .-mbedtls_pk_decrypt
	.section	.text.mbedtls_pk_encrypt,"ax",@progbits
	.align	1
	.globl	mbedtls_pk_encrypt
	.type	mbedtls_pk_encrypt, @function
mbedtls_pk_encrypt:
.LFB100:
	.loc 7 1398 1
	.cfi_startproc
	addi	sp,sp,-48
	.cfi_def_cfa_offset 48
	sw	ra,44(sp)
	sw	s0,40(sp)
	.cfi_offset 1, -4
	.cfi_offset 8, -8
	addi	s0,sp,48
	.cfi_def_cfa 8, 0
	sw	a0,-20(s0)
	sw	a1,-24(s0)
	sw	a2,-28(s0)
	sw	a3,-32(s0)
	sw	a4,-36(s0)
	sw	a5,-40(s0)
	sw	a6,-44(s0)
	sw	a7,-48(s0)
	.loc 7 1399 12
	lw	a5,-20(s0)
	lw	a5,0(a5)
	.loc 7 1399 8
	bne	a5,zero,.L230
	.loc 7 1400 16
	li	a5,-16384
	addi	a5,a5,384
	j	.L231
.L230:
	.loc 7 1403 12
	lw	a5,-20(s0)
	lw	a5,0(a5)
	.loc 7 1403 21
	lw	a5,36(a5)
	.loc 7 1403 8
	bne	a5,zero,.L232
	.loc 7 1404 16
	li	a5,-16384
	addi	a5,a5,256
	j	.L231
.L232:
	.loc 7 1407 15
	lw	a5,-20(s0)
	lw	a5,0(a5)
	.loc 7 1407 24
	lw	t1,36(a5)
	.loc 7 1407 12
	lw	a7,-48(s0)
	lw	a6,-44(s0)
	lw	a5,-40(s0)
	lw	a4,-36(s0)
	lw	a3,-32(s0)
	lw	a2,-28(s0)
	lw	a1,-24(s0)
	lw	a0,-20(s0)
	jalr	t1
.LVL10:
	mv	a5,a0
.L231:
	.loc 7 1409 1
	mv	a0,a5
	lw	ra,44(sp)
	.cfi_restore 1
	lw	s0,40(sp)
	.cfi_restore 8
	.cfi_def_cfa 2, 48
	addi	sp,sp,48
	.cfi_def_cfa_offset 0
	jr	ra
	.cfi_endproc
.LFE100:
	.size	mbedtls_pk_encrypt, .-mbedtls_pk_encrypt
	.section	.text.mbedtls_pk_check_pair,"ax",@progbits
	.align	1
	.globl	mbedtls_pk_check_pair
	.type	mbedtls_pk_check_pair, @function
mbedtls_pk_check_pair:
.LFB101:
	.loc 7 1418 1
	.cfi_startproc
	addi	sp,sp,-32
	.cfi_def_cfa_offset 32
	sw	ra,28(sp)
	sw	s0,24(sp)
	.cfi_offset 1, -4
	.cfi_offset 8, -8
	addi	s0,sp,32
	.cfi_def_cfa 8, 0
	sw	a0,-20(s0)
	sw	a1,-24(s0)
	sw	a2,-28(s0)
	sw	a3,-32(s0)
	.loc 7 1419 12
	lw	a5,-20(s0)
	lw	a5,0(a5)
	.loc 7 1419 8
	beq	a5,zero,.L234
	.loc 7 1420 12
	lw	a5,-24(s0)
	lw	a5,0(a5)
	.loc 7 1419 29 discriminator 1
	bne	a5,zero,.L235
.L234:
	.loc 7 1421 16
	li	a5,-16384
	addi	a5,a5,384
	j	.L236
.L235:
	.loc 7 1424 8
	lw	a5,-28(s0)
	bne	a5,zero,.L237
	.loc 7 1425 16
	li	a5,-16384
	addi	a5,a5,384
	j	.L236
.L237:
	.loc 7 1428 12
	lw	a5,-24(s0)
	lw	a5,0(a5)
	.loc 7 1428 21
	lw	a5,40(a5)
	.loc 7 1428 8
	bne	a5,zero,.L238
	.loc 7 1429 16
	li	a5,-16384
	addi	a5,a5,1664
	j	.L236
.L238:
	.loc 7 1432 12
	lw	a5,-24(s0)
	lw	a5,0(a5)
	.loc 7 1432 21
	lbu	a4,0(a5)
	.loc 7 1432 8
	li	a5,5
	bne	a4,a5,.L239
	.loc 7 1433 16
	lw	a5,-20(s0)
	lw	a5,0(a5)
	.loc 7 1433 25
	lbu	a4,0(a5)
	.loc 7 1433 12
	li	a5,1
	beq	a4,a5,.L240
	.loc 7 1434 20
	li	a5,-16384
	addi	a5,a5,256
	j	.L236
.L239:
	.loc 7 1437 17
	lw	a5,-24(s0)
	lw	a5,0(a5)
	.loc 7 1437 26
	lbu	a4,0(a5)
	.loc 7 1437 12
	li	a5,7
	beq	a4,a5,.L240
	.loc 7 1438 17
	lw	a5,-20(s0)
	lw	a4,0(a5)
	.loc 7 1438 33
	lw	a5,-24(s0)
	lw	a5,0(a5)
	.loc 7 1437 55 discriminator 1
	beq	a4,a5,.L240
	.loc 7 1439 20
	li	a5,-16384
	addi	a5,a5,256
	j	.L236
.L240:
	.loc 7 1443 15
	lw	a5,-24(s0)
	lw	a5,0(a5)
	.loc 7 1443 24
	lw	a5,40(a5)
	.loc 7 1443 12
	lw	a3,-32(s0)
	lw	a2,-28(s0)
	lw	a1,-24(s0)
	lw	a0,-20(s0)
	jalr	a5
.LVL11:
	mv	a5,a0
.L236:
	.loc 7 1446 1
	mv	a0,a5
	lw	ra,28(sp)
	.cfi_restore 1
	lw	s0,24(sp)
	.cfi_restore 8
	.cfi_def_cfa 2, 32
	addi	sp,sp,32
	.cfi_def_cfa_offset 0
	jr	ra
	.cfi_endproc
.LFE101:
	.size	mbedtls_pk_check_pair, .-mbedtls_pk_check_pair
	.section	.text.mbedtls_pk_get_bitlen,"ax",@progbits
	.align	1
	.globl	mbedtls_pk_get_bitlen
	.type	mbedtls_pk_get_bitlen, @function
mbedtls_pk_get_bitlen:
.LFB102:
	.loc 7 1452 1
	.cfi_startproc
	addi	sp,sp,-32
	.cfi_def_cfa_offset 32
	sw	ra,28(sp)
	sw	s0,24(sp)
	.cfi_offset 1, -4
	.cfi_offset 8, -8
	addi	s0,sp,32
	.cfi_def_cfa 8, 0
	sw	a0,-20(s0)
	.loc 7 1455 8
	lw	a5,-20(s0)
	beq	a5,zero,.L242
	.loc 7 1455 26 discriminator 1
	lw	a5,-20(s0)
	lw	a5,0(a5)
	.loc 7 1455 20 discriminator 1
	bne	a5,zero,.L243
.L242:
	.loc 7 1456 16
	li	a5,0
	j	.L244
.L243:
	.loc 7 1459 15
	lw	a5,-20(s0)
	lw	a5,0(a5)
	.loc 7 1459 24
	lw	a5,8(a5)
	.loc 7 1459 12
	lw	a0,-20(s0)
	jalr	a5
.LVL12:
	mv	a5,a0
.L244:
	.loc 7 1460 1
	mv	a0,a5
	lw	ra,28(sp)
	.cfi_restore 1
	lw	s0,24(sp)
	.cfi_restore 8
	.cfi_def_cfa 2, 32
	addi	sp,sp,32
	.cfi_def_cfa_offset 0
	jr	ra
	.cfi_endproc
.LFE102:
	.size	mbedtls_pk_get_bitlen, .-mbedtls_pk_get_bitlen
	.section	.text.mbedtls_pk_debug,"ax",@progbits
	.align	1
	.globl	mbedtls_pk_debug
	.type	mbedtls_pk_debug, @function
mbedtls_pk_debug:
.LFB103:
	.loc 7 1466 1
	.cfi_startproc
	addi	sp,sp,-32
	.cfi_def_cfa_offset 32
	sw	ra,28(sp)
	sw	s0,24(sp)
	.cfi_offset 1, -4
	.cfi_offset 8, -8
	addi	s0,sp,32
	.cfi_def_cfa 8, 0
	sw	a0,-20(s0)
	sw	a1,-24(s0)
	.loc 7 1467 12
	lw	a5,-20(s0)
	lw	a5,0(a5)
	.loc 7 1467 8
	bne	a5,zero,.L246
	.loc 7 1468 16
	li	a5,-16384
	addi	a5,a5,384
	j	.L247
.L246:
	.loc 7 1471 12
	lw	a5,-20(s0)
	lw	a5,0(a5)
	.loc 7 1471 21
	lw	a5,60(a5)
	.loc 7 1471 8
	bne	a5,zero,.L248
	.loc 7 1472 16
	li	a5,-16384
	addi	a5,a5,256
	j	.L247
.L248:
	.loc 7 1475 8
	lw	a5,-20(s0)
	lw	a5,0(a5)
	.loc 7 1475 17
	lw	a5,60(a5)
	.loc 7 1475 5
	lw	a1,-24(s0)
	lw	a0,-20(s0)
	jalr	a5
.LVL13:
	.loc 7 1476 12
	li	a5,0
.L247:
	.loc 7 1477 1
	mv	a0,a5
	lw	ra,28(sp)
	.cfi_restore 1
	lw	s0,24(sp)
	.cfi_restore 8
	.cfi_def_cfa 2, 32
	addi	sp,sp,32
	.cfi_def_cfa_offset 0
	jr	ra
	.cfi_endproc
.LFE103:
	.size	mbedtls_pk_debug, .-mbedtls_pk_debug
	.section	.rodata
	.align	2
.LC0:
	.string	"invalid PK"
	.section	.text.mbedtls_pk_get_name,"ax",@progbits
	.align	1
	.globl	mbedtls_pk_get_name
	.type	mbedtls_pk_get_name, @function
mbedtls_pk_get_name:
.LFB104:
	.loc 7 1483 1
	.cfi_startproc
	addi	sp,sp,-32
	.cfi_def_cfa_offset 32
	sw	ra,28(sp)
	sw	s0,24(sp)
	.cfi_offset 1, -4
	.cfi_offset 8, -8
	addi	s0,sp,32
	.cfi_def_cfa 8, 0
	sw	a0,-20(s0)
	.loc 7 1484 8
	lw	a5,-20(s0)
	beq	a5,zero,.L250
	.loc 7 1484 26 discriminator 1
	lw	a5,-20(s0)
	lw	a5,0(a5)
	.loc 7 1484 20 discriminator 1
	bne	a5,zero,.L251
.L250:
	.loc 7 1485 16
	lui	a5,%hi(.LC0)
	addi	a5,a5,%lo(.LC0)
	j	.L252
.L251:
	.loc 7 1488 15
	lw	a5,-20(s0)
	lw	a5,0(a5)
	.loc 7 1488 24
	lw	a5,4(a5)
.L252:
	.loc 7 1489 1
	mv	a0,a5
	lw	ra,28(sp)
	.cfi_restore 1
	lw	s0,24(sp)
	.cfi_restore 8
	.cfi_def_cfa 2, 32
	addi	sp,sp,32
	.cfi_def_cfa_offset 0
	jr	ra
	.cfi_endproc
.LFE104:
	.size	mbedtls_pk_get_name, .-mbedtls_pk_get_name
	.section	.text.mbedtls_pk_get_type,"ax",@progbits
	.align	1
	.globl	mbedtls_pk_get_type
	.type	mbedtls_pk_get_type, @function
mbedtls_pk_get_type:
.LFB105:
	.loc 7 1495 1
	.cfi_startproc
	addi	sp,sp,-32
	.cfi_def_cfa_offset 32
	sw	ra,28(sp)
	sw	s0,24(sp)
	.cfi_offset 1, -4
	.cfi_offset 8, -8
	addi	s0,sp,32
	.cfi_def_cfa 8, 0
	sw	a0,-20(s0)
	.loc 7 1496 8
	lw	a5,-20(s0)
	beq	a5,zero,.L254
	.loc 7 1496 26 discriminator 1
	lw	a5,-20(s0)
	lw	a5,0(a5)
	.loc 7 1496 20 discriminator 1
	bne	a5,zero,.L255
.L254:
	.loc 7 1497 16
	li	a5,0
	j	.L256
.L255:
	.loc 7 1500 15
	lw	a5,-20(s0)
	lw	a5,0(a5)
	.loc 7 1500 24
	lbu	a5,0(a5)
.L256:
	.loc 7 1501 1
	mv	a0,a5
	lw	ra,28(sp)
	.cfi_restore 1
	lw	s0,24(sp)
	.cfi_restore 8
	.cfi_def_cfa 2, 32
	addi	sp,sp,32
	.cfi_def_cfa_offset 0
	jr	ra
	.cfi_endproc
.LFE105:
	.size	mbedtls_pk_get_type, .-mbedtls_pk_get_type
	.text
.Letext0:
	.file 8 "/home/chandu/sdk/bl602_iot_sdk/toolchain/compiler/lib/gcc/riscv32-unknown-elf/15.1.0/include/stddef.h"
	.file 9 "/home/chandu/sdk/bl602_iot_sdk/toolchain/compiler/lib/gcc/riscv32-unknown-elf/15.1.0/include/stdint-gcc.h"
	.file 10 "/home/chandu/sdk/bl602_iot_sdk/components/security/mbedtls-bl602/include/mbedtls/bignum.h"
	.file 11 "/home/chandu/sdk/bl602_iot_sdk/components/security/mbedtls-bl602/include/mbedtls/rsa.h"
	.file 12 "/home/chandu/sdk/bl602_iot_sdk/components/security/mbedtls-bl602/include/mbedtls/ecp.h"
	.file 13 "/home/chandu/sdk/bl602_iot_sdk/components/security/mbedtls-bl602/include/psa/crypto_types.h"
	.file 14 "/home/chandu/sdk/bl602_iot_sdk/components/security/mbedtls-bl602/library/pk_wrap.h"
	.file 15 "/home/chandu/sdk/bl602_iot_sdk/components/security/mbedtls-bl602/library/rsa_internal.h"
	.file 16 "/home/chandu/sdk/bl602_iot_sdk/components/security/mbedtls-bl602/include/psa/crypto.h"
	.file 17 "/home/chandu/sdk/bl602_iot_sdk/components/security/mbedtls-bl602/library/psa_util_internal.h"
	.file 18 "/home/chandu/sdk/bl602_iot_sdk/components/security/mbedtls-bl602/include/mbedtls/platform_util.h"
	.section	.note.GNU-stack,"",@progbits
