	.file	"pk_wrap.c"
	.option nopic
	.attribute arch, "rv32i2p1_m2p0_f2p2_c2p0_zicsr2p0_zmmul1p0_zca1p0_zcf1p0"
	.attribute unaligned_access, 0
	.attribute stack_align, 16
	.text
.Ltext0:
	.cfi_sections	.debug_frame
	.file 0 "/home/chandu/sdk/bl602_iot_sdk/customer_app/suas_app_pqkem_gateway/build_out/mbedtls-bl602" "/home/chandu/sdk/bl602_iot_sdk/components/security/mbedtls-bl602/library/pk_wrap.c"
	.section	.text.rsa_can_do,"ax",@progbits
	.align	1
	.type	rsa_can_do, @function
rsa_can_do:
.LFB79:
	.file 1 "/home/chandu/sdk/bl602_iot_sdk/components/security/mbedtls-bl602/library/pk_wrap.c"
	.loc 1 53 1
	.cfi_startproc
	addi	sp,sp,-32
	.cfi_def_cfa_offset 32
	sw	ra,28(sp)
	sw	s0,24(sp)
	.cfi_offset 1, -4
	.cfi_offset 8, -8
	addi	s0,sp,32
	.cfi_def_cfa 8, 0
	mv	a5,a0
	sb	a5,-17(s0)
	.loc 1 54 35
	lbu	a4,-17(s0)
	li	a5,1
	beq	a4,a5,.L2
	.loc 1 54 35 is_stmt 0 discriminator 2
	lbu	a4,-17(s0)
	li	a5,6
	bne	a4,a5,.L3
.L2:
	.loc 1 54 35 discriminator 3
	li	a5,1
	.loc 1 54 35
	j	.L5
.L3:
	.loc 1 54 35 discriminator 4
	li	a5,0
.L5:
	.loc 1 56 1 is_stmt 1
	mv	a0,a5
	lw	ra,28(sp)
	.cfi_restore 1
	lw	s0,24(sp)
	.cfi_restore 8
	.cfi_def_cfa 2, 32
	addi	sp,sp,32
	.cfi_def_cfa_offset 0
	jr	ra
	.cfi_endproc
.LFE79:
	.size	rsa_can_do, .-rsa_can_do
	.section	.text.rsa_get_bitlen,"ax",@progbits
	.align	1
	.type	rsa_get_bitlen, @function
rsa_get_bitlen:
.LFB80:
	.loc 1 59 1
	.cfi_startproc
	addi	sp,sp,-48
	.cfi_def_cfa_offset 48
	sw	ra,44(sp)
	sw	s0,40(sp)
	.cfi_offset 1, -4
	.cfi_offset 8, -8
	addi	s0,sp,48
	.cfi_def_cfa 8, 0
	sw	a0,-36(s0)
	.loc 1 60 32
	lw	a5,-36(s0)
	lw	a5,4(a5)
	sw	a5,-20(s0)
	.loc 1 61 12
	lw	a0,-20(s0)
	call	mbedtls_rsa_get_bitlen
	mv	a5,a0
	.loc 1 62 1
	mv	a0,a5
	lw	ra,44(sp)
	.cfi_restore 1
	lw	s0,40(sp)
	.cfi_restore 8
	.cfi_def_cfa 2, 48
	addi	sp,sp,48
	.cfi_def_cfa_offset 0
	jr	ra
	.cfi_endproc
.LFE80:
	.size	rsa_get_bitlen, .-rsa_get_bitlen
	.section	.text.rsa_verify_wrap,"ax",@progbits
	.align	1
	.type	rsa_verify_wrap, @function
rsa_verify_wrap:
.LFB81:
	.loc 1 133 1
	.cfi_startproc
	addi	sp,sp,-64
	.cfi_def_cfa_offset 64
	sw	ra,60(sp)
	sw	s0,56(sp)
	.cfi_offset 1, -4
	.cfi_offset 8, -8
	addi	s0,sp,64
	.cfi_def_cfa 8, 0
	sw	a0,-36(s0)
	sw	a2,-44(s0)
	sw	a3,-48(s0)
	sw	a4,-52(s0)
	sw	a5,-56(s0)
	mv	a5,a1
	sb	a5,-37(s0)
	.loc 1 134 9
	li	a5,-110
	sw	a5,-20(s0)
	.loc 1 135 26
	lw	a5,-36(s0)
	lw	a5,4(a5)
	sw	a5,-24(s0)
	.loc 1 136 22
	lw	a0,-24(s0)
	call	mbedtls_rsa_get_len
	sw	a0,-28(s0)
	.loc 1 144 8
	lw	a4,-56(s0)
	lw	a5,-28(s0)
	bgeu	a4,a5,.L9
	.loc 1 145 16
	li	a5,-16384
	addi	a5,a5,-896
	j	.L10
.L9:
	.loc 1 148 16
	lbu	a5,-37(s0)
	lw	a4,-52(s0)
	lw	a3,-44(s0)
	lw	a2,-48(s0)
	mv	a1,a5
	lw	a0,-24(s0)
	call	mbedtls_rsa_pkcs1_verify
	sw	a0,-20(s0)
	.loc 1 148 8 discriminator 1
	lw	a5,-20(s0)
	beq	a5,zero,.L11
	.loc 1 151 16
	lw	a5,-20(s0)
	j	.L10
.L11:
	.loc 1 159 8
	lw	a4,-56(s0)
	lw	a5,-28(s0)
	bleu	a4,a5,.L12
	.loc 1 160 16
	li	a5,-16384
	addi	a5,a5,1792
	j	.L10
.L12:
	.loc 1 163 12
	li	a5,0
.L10:
	.loc 1 164 1
	mv	a0,a5
	lw	ra,60(sp)
	.cfi_restore 1
	lw	s0,56(sp)
	.cfi_restore 8
	.cfi_def_cfa 2, 64
	addi	sp,sp,64
	.cfi_def_cfa_offset 0
	jr	ra
	.cfi_endproc
.LFE81:
	.size	rsa_verify_wrap, .-rsa_verify_wrap
	.section	.text.rsa_sign_wrap,"ax",@progbits
	.align	1
	.type	rsa_sign_wrap, @function
rsa_sign_wrap:
.LFB82:
	.loc 1 258 1
	.cfi_startproc
	addi	sp,sp,-64
	.cfi_def_cfa_offset 64
	sw	ra,60(sp)
	sw	s0,56(sp)
	.cfi_offset 1, -4
	.cfi_offset 8, -8
	addi	s0,sp,64
	.cfi_def_cfa 8, 0
	sw	a0,-36(s0)
	sw	a2,-44(s0)
	sw	a3,-48(s0)
	sw	a4,-52(s0)
	sw	a5,-56(s0)
	sw	a6,-60(s0)
	sw	a7,-64(s0)
	mv	a5,a1
	sb	a5,-37(s0)
	.loc 1 259 26
	lw	a5,-36(s0)
	lw	a5,4(a5)
	sw	a5,-20(s0)
	.loc 1 267 16
	lw	a0,-20(s0)
	call	mbedtls_rsa_get_len
	mv	a4,a0
	.loc 1 267 14 discriminator 1
	lw	a5,-60(s0)
	sw	a4,0(a5)
	.loc 1 268 20
	lw	a5,-60(s0)
	lw	a5,0(a5)
	.loc 1 268 8
	lw	a4,-56(s0)
	bgeu	a4,a5,.L14
	.loc 1 269 16
	li	a5,-16384
	addi	a5,a5,1920
	j	.L15
.L14:
	.loc 1 272 12
	lbu	a3,-37(s0)
	lw	a6,-52(s0)
	lw	a5,-44(s0)
	lw	a4,-48(s0)
	lw	a2,0(s0)
	lw	a1,-64(s0)
	lw	a0,-20(s0)
	call	mbedtls_rsa_pkcs1_sign
	mv	a5,a0
.L15:
	.loc 1 275 1
	mv	a0,a5
	lw	ra,60(sp)
	.cfi_restore 1
	lw	s0,56(sp)
	.cfi_restore 8
	.cfi_def_cfa 2, 64
	addi	sp,sp,64
	.cfi_def_cfa_offset 0
	jr	ra
	.cfi_endproc
.LFE82:
	.size	rsa_sign_wrap, .-rsa_sign_wrap
	.section	.text.rsa_decrypt_wrap,"ax",@progbits
	.align	1
	.type	rsa_decrypt_wrap, @function
rsa_decrypt_wrap:
.LFB83:
	.loc 1 349 1
	.cfi_startproc
	addi	sp,sp,-64
	.cfi_def_cfa_offset 64
	sw	ra,60(sp)
	sw	s0,56(sp)
	.cfi_offset 1, -4
	.cfi_offset 8, -8
	addi	s0,sp,64
	.cfi_def_cfa 8, 0
	sw	a0,-36(s0)
	sw	a1,-40(s0)
	sw	a2,-44(s0)
	sw	a3,-48(s0)
	sw	a4,-52(s0)
	sw	a5,-56(s0)
	sw	a6,-60(s0)
	sw	a7,-64(s0)
	.loc 1 350 26
	lw	a5,-36(s0)
	lw	a5,4(a5)
	sw	a5,-20(s0)
	.loc 1 352 17
	lw	a0,-20(s0)
	call	mbedtls_rsa_get_len
	mv	a4,a0
	.loc 1 352 8 discriminator 1
	lw	a5,-44(s0)
	beq	a5,a4,.L17
	.loc 1 353 16
	li	a5,-16384
	addi	a5,a5,-128
	j	.L18
.L17:
	.loc 1 356 12
	lw	a6,-56(s0)
	lw	a5,-48(s0)
	lw	a4,-40(s0)
	lw	a3,-52(s0)
	lw	a2,-64(s0)
	lw	a1,-60(s0)
	lw	a0,-20(s0)
	call	mbedtls_rsa_pkcs1_decrypt
	mv	a5,a0
.L18:
	.loc 1 358 1
	mv	a0,a5
	lw	ra,60(sp)
	.cfi_restore 1
	lw	s0,56(sp)
	.cfi_restore 8
	.cfi_def_cfa 2, 64
	addi	sp,sp,64
	.cfi_def_cfa_offset 0
	jr	ra
	.cfi_endproc
.LFE83:
	.size	rsa_decrypt_wrap, .-rsa_decrypt_wrap
	.section	.text.rsa_encrypt_wrap,"ax",@progbits
	.align	1
	.type	rsa_encrypt_wrap, @function
rsa_encrypt_wrap:
.LFB84:
	.loc 1 431 1
	.cfi_startproc
	addi	sp,sp,-64
	.cfi_def_cfa_offset 64
	sw	ra,60(sp)
	sw	s0,56(sp)
	.cfi_offset 1, -4
	.cfi_offset 8, -8
	addi	s0,sp,64
	.cfi_def_cfa 8, 0
	sw	a0,-36(s0)
	sw	a1,-40(s0)
	sw	a2,-44(s0)
	sw	a3,-48(s0)
	sw	a4,-52(s0)
	sw	a5,-56(s0)
	sw	a6,-60(s0)
	sw	a7,-64(s0)
	.loc 1 432 26
	lw	a5,-36(s0)
	lw	a5,4(a5)
	sw	a5,-20(s0)
	.loc 1 433 13
	lw	a0,-20(s0)
	call	mbedtls_rsa_get_len
	mv	a4,a0
	.loc 1 433 11 discriminator 1
	lw	a5,-52(s0)
	sw	a4,0(a5)
	.loc 1 435 9
	lw	a5,-52(s0)
	lw	a5,0(a5)
	.loc 1 435 8
	lw	a4,-56(s0)
	bgeu	a4,a5,.L20
	.loc 1 436 16
	li	a5,-16384
	addi	a5,a5,-1024
	j	.L21
.L20:
	.loc 1 439 12
	lw	a5,-48(s0)
	lw	a4,-40(s0)
	lw	a3,-44(s0)
	lw	a2,-64(s0)
	lw	a1,-60(s0)
	lw	a0,-20(s0)
	call	mbedtls_rsa_pkcs1_encrypt
	mv	a5,a0
.L21:
	.loc 1 441 1
	mv	a0,a5
	lw	ra,60(sp)
	.cfi_restore 1
	lw	s0,56(sp)
	.cfi_restore 8
	.cfi_def_cfa 2, 64
	addi	sp,sp,64
	.cfi_def_cfa_offset 0
	jr	ra
	.cfi_endproc
.LFE84:
	.size	rsa_encrypt_wrap, .-rsa_encrypt_wrap
	.section	.text.rsa_check_pair_wrap,"ax",@progbits
	.align	1
	.type	rsa_check_pair_wrap, @function
rsa_check_pair_wrap:
.LFB85:
	.loc 1 447 1
	.cfi_startproc
	addi	sp,sp,-32
	.cfi_def_cfa_offset 32
	sw	ra,28(sp)
	sw	s0,24(sp)
	.cfi_offset 1, -4
	.cfi_offset 8, -8
	addi	s0,sp,32
	.cfi_def_cfa 8, 0
	sw	a0,-20(s0)
	sw	a1,-24(s0)
	sw	a2,-28(s0)
	sw	a3,-32(s0)
	.loc 1 450 72
	lw	a5,-20(s0)
	lw	a4,4(a5)
	.loc 1 451 72
	lw	a5,-24(s0)
	lw	a5,4(a5)
	.loc 1 450 12
	mv	a1,a5
	mv	a0,a4
	call	mbedtls_rsa_check_pub_priv
	mv	a5,a0
	.loc 1 452 1
	mv	a0,a5
	lw	ra,28(sp)
	.cfi_restore 1
	lw	s0,24(sp)
	.cfi_restore 8
	.cfi_def_cfa 2, 32
	addi	sp,sp,32
	.cfi_def_cfa_offset 0
	jr	ra
	.cfi_endproc
.LFE85:
	.size	rsa_check_pair_wrap, .-rsa_check_pair_wrap
	.section	.text.rsa_alloc_wrap,"ax",@progbits
	.align	1
	.type	rsa_alloc_wrap, @function
rsa_alloc_wrap:
.LFB86:
	.loc 1 455 1
	.cfi_startproc
	addi	sp,sp,-32
	.cfi_def_cfa_offset 32
	sw	ra,28(sp)
	sw	s0,24(sp)
	.cfi_offset 1, -4
	.cfi_offset 8, -8
	addi	s0,sp,32
	.cfi_def_cfa 8, 0
	.loc 1 456 17
	li	a1,120
	li	a0,1
	call	calloc
	mv	a5,a0
	sw	a5,-20(s0)
	.loc 1 458 8
	lw	a5,-20(s0)
	beq	a5,zero,.L25
	.loc 1 459 9
	lw	a0,-20(s0)
	call	mbedtls_rsa_init
.L25:
	.loc 1 462 12
	lw	a5,-20(s0)
	.loc 1 463 1
	mv	a0,a5
	lw	ra,28(sp)
	.cfi_restore 1
	lw	s0,24(sp)
	.cfi_restore 8
	.cfi_def_cfa 2, 32
	addi	sp,sp,32
	.cfi_def_cfa_offset 0
	jr	ra
	.cfi_endproc
.LFE86:
	.size	rsa_alloc_wrap, .-rsa_alloc_wrap
	.section	.text.rsa_free_wrap,"ax",@progbits
	.align	1
	.type	rsa_free_wrap, @function
rsa_free_wrap:
.LFB87:
	.loc 1 466 1
	.cfi_startproc
	addi	sp,sp,-32
	.cfi_def_cfa_offset 32
	sw	ra,28(sp)
	sw	s0,24(sp)
	.cfi_offset 1, -4
	.cfi_offset 8, -8
	addi	s0,sp,32
	.cfi_def_cfa 8, 0
	sw	a0,-20(s0)
	.loc 1 467 5
	lw	a0,-20(s0)
	call	mbedtls_rsa_free
	.loc 1 468 5
	lw	a0,-20(s0)
	call	free
	.loc 1 469 1
	nop
	lw	ra,28(sp)
	.cfi_restore 1
	lw	s0,24(sp)
	.cfi_restore 8
	.cfi_def_cfa 2, 32
	addi	sp,sp,32
	.cfi_def_cfa_offset 0
	jr	ra
	.cfi_endproc
.LFE87:
	.size	rsa_free_wrap, .-rsa_free_wrap
	.section	.rodata
	.align	2
.LC0:
	.string	"rsa.N"
	.align	2
.LC1:
	.string	"rsa.E"
	.section	.text.rsa_debug,"ax",@progbits
	.align	1
	.type	rsa_debug, @function
rsa_debug:
.LFB88:
	.loc 1 472 1
	.cfi_startproc
	addi	sp,sp,-48
	.cfi_def_cfa_offset 48
	sw	ra,44(sp)
	sw	s0,40(sp)
	.cfi_offset 1, -4
	.cfi_offset 8, -8
	addi	s0,sp,48
	.cfi_def_cfa 8, 0
	sw	a0,-36(s0)
	sw	a1,-40(s0)
	.loc 1 478 26
	lw	a5,-36(s0)
	lw	a5,4(a5)
	sw	a5,-20(s0)
	.loc 1 480 17
	lw	a5,-40(s0)
	li	a4,1
	sb	a4,0(a5)
	.loc 1 481 17
	lw	a5,-40(s0)
	lui	a4,%hi(.LC0)
	addi	a4,a4,%lo(.LC0)
	sw	a4,4(a5)
	.loc 1 482 20
	lw	a5,-20(s0)
	addi	a4,a5,8
	.loc 1 482 18
	lw	a5,-40(s0)
	sw	a4,8(a5)
	.loc 1 484 10
	lw	a5,-40(s0)
	addi	a5,a5,12
	sw	a5,-40(s0)
	.loc 1 486 17
	lw	a5,-40(s0)
	li	a4,1
	sb	a4,0(a5)
	.loc 1 487 17
	lw	a5,-40(s0)
	lui	a4,%hi(.LC1)
	addi	a4,a4,%lo(.LC1)
	sw	a4,4(a5)
	.loc 1 488 20
	lw	a5,-20(s0)
	addi	a4,a5,16
	.loc 1 488 18
	lw	a5,-40(s0)
	sw	a4,8(a5)
	.loc 1 490 1
	nop
	lw	ra,44(sp)
	.cfi_restore 1
	lw	s0,40(sp)
	.cfi_restore 8
	.cfi_def_cfa 2, 48
	addi	sp,sp,48
	.cfi_def_cfa_offset 0
	jr	ra
	.cfi_endproc
.LFE88:
	.size	rsa_debug, .-rsa_debug
	.globl	mbedtls_rsa_info
	.section	.rodata
	.align	2
.LC2:
	.string	"RSA"
	.section	.rodata.mbedtls_rsa_info,"a"
	.align	2
	.type	mbedtls_rsa_info, @object
	.size	mbedtls_rsa_info, 64
mbedtls_rsa_info:
	.byte	1
	.zero	3
	.word	.LC2
	.word	rsa_get_bitlen
	.word	rsa_can_do
	.word	rsa_verify_wrap
	.word	rsa_sign_wrap
	.word	0
	.word	0
	.word	rsa_decrypt_wrap
	.word	rsa_encrypt_wrap
	.word	rsa_check_pair_wrap
	.word	rsa_alloc_wrap
	.word	rsa_free_wrap
	.word	0
	.word	0
	.word	rsa_debug
	.section	.text.eckey_can_do,"ax",@progbits
	.align	1
	.type	eckey_can_do, @function
eckey_can_do:
.LFB89:
	.loc 1 519 1
	.cfi_startproc
	addi	sp,sp,-32
	.cfi_def_cfa_offset 32
	sw	ra,28(sp)
	sw	s0,24(sp)
	.cfi_offset 1, -4
	.cfi_offset 8, -8
	addi	s0,sp,32
	.cfi_def_cfa 8, 0
	mv	a5,a0
	sb	a5,-17(s0)
	.loc 1 521 40
	lbu	a4,-17(s0)
	li	a5,2
	beq	a4,a5,.L30
	.loc 1 520 37
	lbu	a4,-17(s0)
	li	a5,3
	beq	a4,a5,.L30
	.loc 1 521 40 discriminator 2
	lbu	a4,-17(s0)
	li	a5,4
	bne	a4,a5,.L31
.L30:
	.loc 1 521 40 is_stmt 0 discriminator 1
	li	a5,1
	.loc 1 521 40
	j	.L33
.L31:
	.loc 1 521 40 discriminator 3
	li	a5,0
.L33:
	.loc 1 523 1 is_stmt 1
	mv	a0,a5
	lw	ra,28(sp)
	.cfi_restore 1
	lw	s0,24(sp)
	.cfi_restore 8
	.cfi_def_cfa 2, 32
	addi	sp,sp,32
	.cfi_def_cfa_offset 0
	jr	ra
	.cfi_endproc
.LFE89:
	.size	eckey_can_do, .-eckey_can_do
	.section	.text.eckey_get_bitlen,"ax",@progbits
	.align	1
	.type	eckey_get_bitlen, @function
eckey_get_bitlen:
.LFB90:
	.loc 1 526 1
	.cfi_startproc
	addi	sp,sp,-48
	.cfi_def_cfa_offset 48
	sw	ra,44(sp)
	sw	s0,40(sp)
	.cfi_offset 1, -4
	.cfi_offset 8, -8
	addi	s0,sp,48
	.cfi_def_cfa 8, 0
	sw	a0,-36(s0)
	.loc 1 530 26
	lw	a5,-36(s0)
	lw	a5,4(a5)
	sw	a5,-20(s0)
	.loc 1 531 20
	lw	a5,-20(s0)
	lw	a5,60(a5)
	.loc 1 533 1
	mv	a0,a5
	lw	ra,44(sp)
	.cfi_restore 1
	lw	s0,40(sp)
	.cfi_restore 8
	.cfi_def_cfa 2, 48
	addi	sp,sp,48
	.cfi_def_cfa_offset 0
	jr	ra
	.cfi_endproc
.LFE90:
	.size	eckey_get_bitlen, .-eckey_get_bitlen
	.section	.text.ecdsa_verify_wrap,"ax",@progbits
	.align	1
	.type	ecdsa_verify_wrap, @function
ecdsa_verify_wrap:
.LFB91:
	.loc 1 674 1
	.cfi_startproc
	addi	sp,sp,-64
	.cfi_def_cfa_offset 64
	sw	ra,60(sp)
	sw	s0,56(sp)
	.cfi_offset 1, -4
	.cfi_offset 8, -8
	addi	s0,sp,64
	.cfi_def_cfa 8, 0
	sw	a0,-36(s0)
	sw	a2,-44(s0)
	sw	a3,-48(s0)
	sw	a4,-52(s0)
	sw	a5,-56(s0)
	mv	a5,a1
	sb	a5,-37(s0)
	.loc 1 675 9
	li	a5,-110
	sw	a5,-20(s0)
	.loc 1 678 68
	lw	a5,-36(s0)
	lw	a5,4(a5)
	.loc 1 678 11
	lw	a4,-56(s0)
	lw	a3,-52(s0)
	lw	a2,-48(s0)
	lw	a1,-44(s0)
	mv	a0,a5
	call	mbedtls_ecdsa_read_signature
	sw	a0,-20(s0)
	.loc 1 681 8
	lw	a4,-20(s0)
	li	a5,-20480
	addi	a5,a5,1024
	bne	a4,a5,.L37
	.loc 1 682 16
	li	a5,-16384
	addi	a5,a5,1792
	j	.L38
.L37:
	.loc 1 685 12
	lw	a5,-20(s0)
.L38:
	.loc 1 686 1
	mv	a0,a5
	lw	ra,60(sp)
	.cfi_restore 1
	lw	s0,56(sp)
	.cfi_restore 8
	.cfi_def_cfa 2, 64
	addi	sp,sp,64
	.cfi_def_cfa_offset 0
	jr	ra
	.cfi_endproc
.LFE91:
	.size	ecdsa_verify_wrap, .-ecdsa_verify_wrap
	.section	.text.ecdsa_sign_wrap,"ax",@progbits
	.align	1
	.type	ecdsa_sign_wrap, @function
ecdsa_sign_wrap:
.LFB92:
	.loc 1 813 1
	.cfi_startproc
	addi	sp,sp,-64
	.cfi_def_cfa_offset 64
	sw	ra,60(sp)
	sw	s0,56(sp)
	.cfi_offset 1, -4
	.cfi_offset 8, -8
	addi	s0,sp,64
	.cfi_def_cfa 8, 0
	sw	a0,-20(s0)
	sw	a2,-28(s0)
	sw	a3,-32(s0)
	sw	a4,-36(s0)
	sw	a5,-40(s0)
	sw	a6,-44(s0)
	sw	a7,-48(s0)
	mv	a5,a1
	sb	a5,-21(s0)
	.loc 1 814 70
	lw	a5,-20(s0)
	lw	a0,4(a5)
	.loc 1 814 12
	lbu	a1,-21(s0)
	lw	a5,0(s0)
	sw	a5,0(sp)
	lw	a7,-48(s0)
	lw	a6,-44(s0)
	lw	a5,-40(s0)
	lw	a4,-36(s0)
	lw	a3,-32(s0)
	lw	a2,-28(s0)
	call	mbedtls_ecdsa_write_signature
	mv	a5,a0
	.loc 1 818 1
	mv	a0,a5
	lw	ra,60(sp)
	.cfi_restore 1
	lw	s0,56(sp)
	.cfi_restore 8
	.cfi_def_cfa 2, 64
	addi	sp,sp,64
	.cfi_def_cfa_offset 0
	jr	ra
	.cfi_endproc
.LFE92:
	.size	ecdsa_sign_wrap, .-ecdsa_sign_wrap
	.section	.text.eckey_rs_alloc,"ax",@progbits
	.align	1
	.type	eckey_rs_alloc, @function
eckey_rs_alloc:
.LFB93:
	.loc 1 847 1
	.cfi_startproc
	addi	sp,sp,-32
	.cfi_def_cfa_offset 32
	sw	ra,28(sp)
	sw	s0,24(sp)
	.cfi_offset 1, -4
	.cfi_offset 8, -8
	addi	s0,sp,32
	.cfi_def_cfa 8, 0
	.loc 1 850 17
	li	a1,156
	li	a0,1
	call	calloc
	mv	a5,a0
	sw	a5,-20(s0)
	.loc 1 852 8
	lw	a5,-20(s0)
	beq	a5,zero,.L42
	.loc 1 853 16
	lw	a5,-20(s0)
	sw	a5,-24(s0)
	.loc 1 854 9
	lw	a5,-24(s0)
	mv	a0,a5
	call	mbedtls_ecdsa_restart_init
	.loc 1 855 9
	lw	a5,-24(s0)
	addi	a5,a5,28
	mv	a0,a5
	call	mbedtls_ecdsa_init
.L42:
	.loc 1 858 12
	lw	a5,-20(s0)
	.loc 1 859 1
	mv	a0,a5
	lw	ra,28(sp)
	.cfi_restore 1
	lw	s0,24(sp)
	.cfi_restore 8
	.cfi_def_cfa 2, 32
	addi	sp,sp,32
	.cfi_def_cfa_offset 0
	jr	ra
	.cfi_endproc
.LFE93:
	.size	eckey_rs_alloc, .-eckey_rs_alloc
	.section	.text.eckey_rs_free,"ax",@progbits
	.align	1
	.type	eckey_rs_free, @function
eckey_rs_free:
.LFB94:
	.loc 1 862 1
	.cfi_startproc
	addi	sp,sp,-48
	.cfi_def_cfa_offset 48
	sw	ra,44(sp)
	sw	s0,40(sp)
	.cfi_offset 1, -4
	.cfi_offset 8, -8
	addi	s0,sp,48
	.cfi_def_cfa 8, 0
	sw	a0,-36(s0)
	.loc 1 865 8
	lw	a5,-36(s0)
	beq	a5,zero,.L47
	.loc 1 869 12
	lw	a5,-36(s0)
	sw	a5,-20(s0)
	.loc 1 870 5
	lw	a5,-20(s0)
	mv	a0,a5
	call	mbedtls_ecdsa_restart_free
	.loc 1 871 5
	lw	a5,-20(s0)
	addi	a5,a5,28
	mv	a0,a5
	call	mbedtls_ecdsa_free
	.loc 1 873 5
	lw	a0,-36(s0)
	call	free
	j	.L44
.L47:
	.loc 1 866 9
	nop
.L44:
	.loc 1 874 1
	lw	ra,44(sp)
	.cfi_restore 1
	lw	s0,40(sp)
	.cfi_restore 8
	.cfi_def_cfa 2, 48
	addi	sp,sp,48
	.cfi_def_cfa_offset 0
	jr	ra
	.cfi_endproc
.LFE94:
	.size	eckey_rs_free, .-eckey_rs_free
	.section	.text.eckey_verify_rs_wrap,"ax",@progbits
	.align	1
	.type	eckey_verify_rs_wrap, @function
eckey_verify_rs_wrap:
.LFB95:
	.loc 1 880 1
	.cfi_startproc
	addi	sp,sp,-64
	.cfi_def_cfa_offset 64
	sw	ra,60(sp)
	sw	s0,56(sp)
	.cfi_offset 1, -4
	.cfi_offset 8, -8
	addi	s0,sp,64
	.cfi_def_cfa 8, 0
	sw	a0,-36(s0)
	sw	a2,-44(s0)
	sw	a3,-48(s0)
	sw	a4,-52(s0)
	sw	a5,-56(s0)
	sw	a6,-60(s0)
	mv	a5,a1
	sb	a5,-37(s0)
	.loc 1 881 9
	li	a5,-110
	sw	a5,-20(s0)
	.loc 1 882 24
	lw	a5,-60(s0)
	sw	a5,-24(s0)
	.loc 1 885 8
	lw	a5,-24(s0)
	bne	a5,zero,.L49
	.loc 1 886 16
	li	a5,-16384
	addi	a5,a5,384
	j	.L50
.L49:
	.loc 1 890 26
	lw	a5,-24(s0)
	lw	a5,88(a5)
	.loc 1 890 8
	bne	a5,zero,.L51
	.loc 1 891 26
	lw	a5,-24(s0)
	addi	a4,a5,28
	.loc 1 891 71
	lw	a5,-36(s0)
	lw	a5,4(a5)
	.loc 1 891 26
	mv	a1,a5
	mv	a0,a4
	call	mbedtls_ecdsa_from_keypair
	sw	a0,-20(s0)
	.loc 1 891 17 discriminator 1
	lw	a5,-20(s0)
	bne	a5,zero,.L53
.L51:
	.loc 1 894 85
	lw	a5,-24(s0)
	.loc 1 894 22
	lbu	a1,-37(s0)
	mv	a6,a5
	lw	a5,-56(s0)
	lw	a4,-52(s0)
	lw	a3,-48(s0)
	lw	a2,-44(s0)
	lw	a0,-36(s0)
	call	ecdsa_verify_rs_wrap
	sw	a0,-20(s0)
	.loc 1 898 1
	j	.L52
.L53:
	.loc 1 891 89
	nop
.L52:
	.loc 1 899 12
	lw	a5,-20(s0)
.L50:
	.loc 1 900 1
	mv	a0,a5
	lw	ra,60(sp)
	.cfi_restore 1
	lw	s0,56(sp)
	.cfi_restore 8
	.cfi_def_cfa 2, 64
	addi	sp,sp,64
	.cfi_def_cfa_offset 0
	jr	ra
	.cfi_endproc
.LFE95:
	.size	eckey_verify_rs_wrap, .-eckey_verify_rs_wrap
	.section	.text.eckey_sign_rs_wrap,"ax",@progbits
	.align	1
	.type	eckey_sign_rs_wrap, @function
eckey_sign_rs_wrap:
.LFB96:
	.loc 1 907 1
	.cfi_startproc
	addi	sp,sp,-80
	.cfi_def_cfa_offset 80
	sw	ra,76(sp)
	sw	s0,72(sp)
	.cfi_offset 1, -4
	.cfi_offset 8, -8
	addi	s0,sp,80
	.cfi_def_cfa 8, 0
	sw	a0,-36(s0)
	sw	a2,-44(s0)
	sw	a3,-48(s0)
	sw	a4,-52(s0)
	sw	a5,-56(s0)
	sw	a6,-60(s0)
	sw	a7,-64(s0)
	mv	a5,a1
	sb	a5,-37(s0)
	.loc 1 908 9
	li	a5,-110
	sw	a5,-20(s0)
	.loc 1 909 24
	lw	a5,4(s0)
	sw	a5,-24(s0)
	.loc 1 912 8
	lw	a5,-24(s0)
	bne	a5,zero,.L55
	.loc 1 913 16
	li	a5,-16384
	addi	a5,a5,384
	j	.L56
.L55:
	.loc 1 917 26
	lw	a5,-24(s0)
	lw	a5,88(a5)
	.loc 1 917 8
	bne	a5,zero,.L57
	.loc 1 918 26
	lw	a5,-24(s0)
	addi	a4,a5,28
	.loc 1 918 71
	lw	a5,-36(s0)
	lw	a5,4(a5)
	.loc 1 918 26
	mv	a1,a5
	mv	a0,a4
	call	mbedtls_ecdsa_from_keypair
	sw	a0,-20(s0)
	.loc 1 918 17 discriminator 1
	lw	a5,-20(s0)
	bne	a5,zero,.L59
.L57:
	.loc 1 921 107
	lw	a5,-24(s0)
	.loc 1 921 22
	lbu	a1,-37(s0)
	sw	a5,4(sp)
	lw	a5,0(s0)
	sw	a5,0(sp)
	lw	a7,-64(s0)
	lw	a6,-60(s0)
	lw	a5,-56(s0)
	lw	a4,-52(s0)
	lw	a3,-48(s0)
	lw	a2,-44(s0)
	lw	a0,-36(s0)
	call	ecdsa_sign_rs_wrap
	sw	a0,-20(s0)
	.loc 1 925 1
	j	.L58
.L59:
	.loc 1 918 89
	nop
.L58:
	.loc 1 926 12
	lw	a5,-20(s0)
.L56:
	.loc 1 927 1
	mv	a0,a5
	lw	ra,76(sp)
	.cfi_restore 1
	lw	s0,72(sp)
	.cfi_restore 8
	.cfi_def_cfa 2, 80
	addi	sp,sp,80
	.cfi_def_cfa_offset 0
	jr	ra
	.cfi_endproc
.LFE96:
	.size	eckey_sign_rs_wrap, .-eckey_sign_rs_wrap
	.section	.text.eckey_check_pair_wrap,"ax",@progbits
	.align	1
	.type	eckey_check_pair_wrap, @function
eckey_check_pair_wrap:
.LFB97:
	.loc 1 1031 1
	.cfi_startproc
	addi	sp,sp,-32
	.cfi_def_cfa_offset 32
	sw	ra,28(sp)
	sw	s0,24(sp)
	.cfi_offset 1, -4
	.cfi_offset 8, -8
	addi	s0,sp,32
	.cfi_def_cfa 8, 0
	sw	a0,-20(s0)
	sw	a1,-24(s0)
	sw	a2,-28(s0)
	sw	a3,-32(s0)
	.loc 1 1032 72
	lw	a5,-20(s0)
	lw	a4,4(a5)
	.loc 1 1033 72
	lw	a5,-24(s0)
	lw	a5,4(a5)
	.loc 1 1032 12
	lw	a3,-32(s0)
	lw	a2,-28(s0)
	mv	a1,a5
	mv	a0,a4
	call	mbedtls_ecp_check_pub_priv
	mv	a5,a0
	.loc 1 1035 1
	mv	a0,a5
	lw	ra,28(sp)
	.cfi_restore 1
	lw	s0,24(sp)
	.cfi_restore 8
	.cfi_def_cfa 2, 32
	addi	sp,sp,32
	.cfi_def_cfa_offset 0
	jr	ra
	.cfi_endproc
.LFE97:
	.size	eckey_check_pair_wrap, .-eckey_check_pair_wrap
	.section	.text.eckey_alloc_wrap,"ax",@progbits
	.align	1
	.type	eckey_alloc_wrap, @function
eckey_alloc_wrap:
.LFB98:
	.loc 1 1082 1
	.cfi_startproc
	addi	sp,sp,-32
	.cfi_def_cfa_offset 32
	sw	ra,28(sp)
	sw	s0,24(sp)
	.cfi_offset 1, -4
	.cfi_offset 8, -8
	addi	s0,sp,32
	.cfi_def_cfa 8, 0
	.loc 1 1083 17
	li	a1,128
	li	a0,1
	call	calloc
	mv	a5,a0
	sw	a5,-20(s0)
	.loc 1 1085 8
	lw	a5,-20(s0)
	beq	a5,zero,.L63
	.loc 1 1086 9
	lw	a0,-20(s0)
	call	mbedtls_ecp_keypair_init
.L63:
	.loc 1 1089 12
	lw	a5,-20(s0)
	.loc 1 1090 1
	mv	a0,a5
	lw	ra,28(sp)
	.cfi_restore 1
	lw	s0,24(sp)
	.cfi_restore 8
	.cfi_def_cfa 2, 32
	addi	sp,sp,32
	.cfi_def_cfa_offset 0
	jr	ra
	.cfi_endproc
.LFE98:
	.size	eckey_alloc_wrap, .-eckey_alloc_wrap
	.section	.text.eckey_free_wrap,"ax",@progbits
	.align	1
	.type	eckey_free_wrap, @function
eckey_free_wrap:
.LFB99:
	.loc 1 1093 1
	.cfi_startproc
	addi	sp,sp,-32
	.cfi_def_cfa_offset 32
	sw	ra,28(sp)
	sw	s0,24(sp)
	.cfi_offset 1, -4
	.cfi_offset 8, -8
	addi	s0,sp,32
	.cfi_def_cfa 8, 0
	sw	a0,-20(s0)
	.loc 1 1094 5
	lw	a0,-20(s0)
	call	mbedtls_ecp_keypair_free
	.loc 1 1095 5
	lw	a0,-20(s0)
	call	free
	.loc 1 1096 1
	nop
	lw	ra,28(sp)
	.cfi_restore 1
	lw	s0,24(sp)
	.cfi_restore 8
	.cfi_def_cfa 2, 32
	addi	sp,sp,32
	.cfi_def_cfa_offset 0
	jr	ra
	.cfi_endproc
.LFE99:
	.size	eckey_free_wrap, .-eckey_free_wrap
	.section	.rodata
	.align	2
.LC3:
	.string	"eckey.Q"
	.section	.text.eckey_debug,"ax",@progbits
	.align	1
	.type	eckey_debug, @function
eckey_debug:
.LFB100:
	.loc 1 1100 1
	.cfi_startproc
	addi	sp,sp,-48
	.cfi_def_cfa_offset 48
	sw	ra,44(sp)
	sw	s0,40(sp)
	.cfi_offset 1, -4
	.cfi_offset 8, -8
	addi	s0,sp,48
	.cfi_def_cfa 8, 0
	sw	a0,-36(s0)
	sw	a1,-40(s0)
	.loc 1 1106 26
	lw	a5,-36(s0)
	lw	a5,4(a5)
	sw	a5,-20(s0)
	.loc 1 1107 17
	lw	a5,-40(s0)
	li	a4,2
	sb	a4,0(a5)
	.loc 1 1108 17
	lw	a5,-40(s0)
	lui	a4,%hi(.LC3)
	addi	a4,a4,%lo(.LC3)
	sw	a4,4(a5)
	.loc 1 1109 20
	lw	a5,-20(s0)
	addi	a4,a5,104
	.loc 1 1109 18
	lw	a5,-40(s0)
	sw	a4,8(a5)
	.loc 1 1111 1
	nop
	lw	ra,44(sp)
	.cfi_restore 1
	lw	s0,40(sp)
	.cfi_restore 8
	.cfi_def_cfa 2, 48
	addi	sp,sp,48
	.cfi_def_cfa_offset 0
	jr	ra
	.cfi_endproc
.LFE100:
	.size	eckey_debug, .-eckey_debug
	.globl	mbedtls_eckey_info
	.section	.rodata
	.align	2
.LC4:
	.string	"EC"
	.section	.rodata.mbedtls_eckey_info,"a"
	.align	2
	.type	mbedtls_eckey_info, @object
	.size	mbedtls_eckey_info, 64
mbedtls_eckey_info:
	.byte	2
	.zero	3
	.word	.LC4
	.word	eckey_get_bitlen
	.word	eckey_can_do
	.word	ecdsa_verify_wrap
	.word	ecdsa_sign_wrap
	.word	eckey_verify_rs_wrap
	.word	eckey_sign_rs_wrap
	.word	0
	.word	0
	.word	eckey_check_pair_wrap
	.word	eckey_alloc_wrap
	.word	eckey_free_wrap
	.word	eckey_rs_alloc
	.word	eckey_rs_free
	.word	eckey_debug
	.section	.text.eckeydh_can_do,"ax",@progbits
	.align	1
	.type	eckeydh_can_do, @function
eckeydh_can_do:
.LFB101:
	.loc 1 1151 1
	.cfi_startproc
	addi	sp,sp,-32
	.cfi_def_cfa_offset 32
	sw	ra,28(sp)
	sw	s0,24(sp)
	.cfi_offset 1, -4
	.cfi_offset 8, -8
	addi	s0,sp,32
	.cfi_def_cfa 8, 0
	mv	a5,a0
	sb	a5,-17(s0)
	.loc 1 1152 37
	lbu	a4,-17(s0)
	li	a5,2
	beq	a4,a5,.L68
	.loc 1 1152 37 is_stmt 0 discriminator 2
	lbu	a4,-17(s0)
	li	a5,3
	bne	a4,a5,.L69
.L68:
	.loc 1 1152 37 discriminator 3
	li	a5,1
	.loc 1 1152 37
	j	.L71
.L69:
	.loc 1 1152 37 discriminator 4
	li	a5,0
.L71:
	.loc 1 1154 1 is_stmt 1
	mv	a0,a5
	lw	ra,28(sp)
	.cfi_restore 1
	lw	s0,24(sp)
	.cfi_restore 8
	.cfi_def_cfa 2, 32
	addi	sp,sp,32
	.cfi_def_cfa_offset 0
	jr	ra
	.cfi_endproc
.LFE101:
	.size	eckeydh_can_do, .-eckeydh_can_do
	.globl	mbedtls_eckeydh_info
	.section	.rodata
	.align	2
.LC5:
	.string	"EC_DH"
	.section	.rodata.mbedtls_eckeydh_info,"a"
	.align	2
	.type	mbedtls_eckeydh_info, @object
	.size	mbedtls_eckeydh_info, 64
mbedtls_eckeydh_info:
	.byte	3
	.zero	3
	.word	.LC5
	.word	eckey_get_bitlen
	.word	eckeydh_can_do
	.word	0
	.word	0
	.word	0
	.word	0
	.word	0
	.word	0
	.word	eckey_check_pair_wrap
	.word	eckey_alloc_wrap
	.word	eckey_free_wrap
	.zero	8
	.word	eckey_debug
	.section	.text.ecdsa_can_do,"ax",@progbits
	.align	1
	.type	ecdsa_can_do, @function
ecdsa_can_do:
.LFB102:
	.loc 1 1182 1
	.cfi_startproc
	addi	sp,sp,-32
	.cfi_def_cfa_offset 32
	sw	ra,28(sp)
	sw	s0,24(sp)
	.cfi_offset 1, -4
	.cfi_offset 8, -8
	addi	s0,sp,32
	.cfi_def_cfa 8, 0
	mv	a5,a0
	sb	a5,-17(s0)
	.loc 1 1183 17
	lbu	a5,-17(s0)
	addi	a5,a5,-4
	seqz	a5,a5
	andi	a5,a5,0xff
	.loc 1 1184 1
	mv	a0,a5
	lw	ra,28(sp)
	.cfi_restore 1
	lw	s0,24(sp)
	.cfi_restore 8
	.cfi_def_cfa 2, 32
	addi	sp,sp,32
	.cfi_def_cfa_offset 0
	jr	ra
	.cfi_endproc
.LFE102:
	.size	ecdsa_can_do, .-ecdsa_can_do
	.section	.text.ecdsa_verify_rs_wrap,"ax",@progbits
	.align	1
	.type	ecdsa_verify_rs_wrap, @function
ecdsa_verify_rs_wrap:
.LFB103:
	.loc 1 1191 1
	.cfi_startproc
	addi	sp,sp,-64
	.cfi_def_cfa_offset 64
	sw	ra,60(sp)
	sw	s0,56(sp)
	.cfi_offset 1, -4
	.cfi_offset 8, -8
	addi	s0,sp,64
	.cfi_def_cfa 8, 0
	sw	a0,-36(s0)
	sw	a2,-44(s0)
	sw	a3,-48(s0)
	sw	a4,-52(s0)
	sw	a5,-56(s0)
	sw	a6,-60(s0)
	mv	a5,a1
	sb	a5,-37(s0)
	.loc 1 1192 9
	li	a5,-110
	sw	a5,-20(s0)
	.loc 1 1196 37
	lw	a5,-36(s0)
	lw	a0,4(a5)
	.loc 1 1195 11
	lw	a5,-60(s0)
	lw	a4,-56(s0)
	lw	a3,-52(s0)
	lw	a2,-48(s0)
	lw	a1,-44(s0)
	call	mbedtls_ecdsa_read_signature_restartable
	sw	a0,-20(s0)
	.loc 1 1200 8
	lw	a4,-20(s0)
	li	a5,-20480
	addi	a5,a5,1024
	bne	a4,a5,.L75
	.loc 1 1201 16
	li	a5,-16384
	addi	a5,a5,1792
	j	.L76
.L75:
	.loc 1 1204 12
	lw	a5,-20(s0)
.L76:
	.loc 1 1205 1
	mv	a0,a5
	lw	ra,60(sp)
	.cfi_restore 1
	lw	s0,56(sp)
	.cfi_restore 8
	.cfi_def_cfa 2, 64
	addi	sp,sp,64
	.cfi_def_cfa_offset 0
	jr	ra
	.cfi_endproc
.LFE103:
	.size	ecdsa_verify_rs_wrap, .-ecdsa_verify_rs_wrap
	.section	.text.ecdsa_sign_rs_wrap,"ax",@progbits
	.align	1
	.type	ecdsa_sign_rs_wrap, @function
ecdsa_sign_rs_wrap:
.LFB104:
	.loc 1 1212 1
	.cfi_startproc
	addi	sp,sp,-64
	.cfi_def_cfa_offset 64
	sw	ra,60(sp)
	sw	s0,56(sp)
	.cfi_offset 1, -4
	.cfi_offset 8, -8
	addi	s0,sp,64
	.cfi_def_cfa 8, 0
	sw	a0,-20(s0)
	sw	a2,-28(s0)
	sw	a3,-32(s0)
	sw	a4,-36(s0)
	sw	a5,-40(s0)
	sw	a6,-44(s0)
	sw	a7,-48(s0)
	mv	a5,a1
	sb	a5,-21(s0)
	.loc 1 1214 37
	lw	a5,-20(s0)
	lw	a0,4(a5)
	.loc 1 1213 12
	lbu	a1,-21(s0)
	lw	a5,4(s0)
	sw	a5,4(sp)
	lw	a5,0(s0)
	sw	a5,0(sp)
	lw	a7,-48(s0)
	lw	a6,-44(s0)
	lw	a5,-40(s0)
	lw	a4,-36(s0)
	lw	a3,-32(s0)
	lw	a2,-28(s0)
	call	mbedtls_ecdsa_write_signature_restartable
	mv	a5,a0
	.loc 1 1218 1
	mv	a0,a5
	lw	ra,60(sp)
	.cfi_restore 1
	lw	s0,56(sp)
	.cfi_restore 8
	.cfi_def_cfa 2, 64
	addi	sp,sp,64
	.cfi_def_cfa_offset 0
	jr	ra
	.cfi_endproc
.LFE104:
	.size	ecdsa_sign_rs_wrap, .-ecdsa_sign_rs_wrap
	.section	.text.ecdsa_rs_alloc,"ax",@progbits
	.align	1
	.type	ecdsa_rs_alloc, @function
ecdsa_rs_alloc:
.LFB105:
	.loc 1 1221 1
	.cfi_startproc
	addi	sp,sp,-32
	.cfi_def_cfa_offset 32
	sw	ra,28(sp)
	sw	s0,24(sp)
	.cfi_offset 1, -4
	.cfi_offset 8, -8
	addi	s0,sp,32
	.cfi_def_cfa 8, 0
	.loc 1 1222 17
	li	a1,28
	li	a0,1
	call	calloc
	mv	a5,a0
	sw	a5,-20(s0)
	.loc 1 1224 8
	lw	a5,-20(s0)
	beq	a5,zero,.L80
	.loc 1 1225 9
	lw	a0,-20(s0)
	call	mbedtls_ecdsa_restart_init
.L80:
	.loc 1 1228 12
	lw	a5,-20(s0)
	.loc 1 1229 1
	mv	a0,a5
	lw	ra,28(sp)
	.cfi_restore 1
	lw	s0,24(sp)
	.cfi_restore 8
	.cfi_def_cfa 2, 32
	addi	sp,sp,32
	.cfi_def_cfa_offset 0
	jr	ra
	.cfi_endproc
.LFE105:
	.size	ecdsa_rs_alloc, .-ecdsa_rs_alloc
	.section	.text.ecdsa_rs_free,"ax",@progbits
	.align	1
	.type	ecdsa_rs_free, @function
ecdsa_rs_free:
.LFB106:
	.loc 1 1232 1
	.cfi_startproc
	addi	sp,sp,-32
	.cfi_def_cfa_offset 32
	sw	ra,28(sp)
	sw	s0,24(sp)
	.cfi_offset 1, -4
	.cfi_offset 8, -8
	addi	s0,sp,32
	.cfi_def_cfa 8, 0
	sw	a0,-20(s0)
	.loc 1 1233 5
	lw	a0,-20(s0)
	call	mbedtls_ecdsa_restart_free
	.loc 1 1234 5
	lw	a0,-20(s0)
	call	free
	.loc 1 1235 1
	nop
	lw	ra,28(sp)
	.cfi_restore 1
	lw	s0,24(sp)
	.cfi_restore 8
	.cfi_def_cfa 2, 32
	addi	sp,sp,32
	.cfi_def_cfa_offset 0
	jr	ra
	.cfi_endproc
.LFE106:
	.size	ecdsa_rs_free, .-ecdsa_rs_free
	.globl	mbedtls_ecdsa_info
	.section	.rodata
	.align	2
.LC6:
	.string	"ECDSA"
	.section	.rodata.mbedtls_ecdsa_info,"a"
	.align	2
	.type	mbedtls_ecdsa_info, @object
	.size	mbedtls_ecdsa_info, 64
mbedtls_ecdsa_info:
	.byte	4
	.zero	3
	.word	.LC6
	.word	eckey_get_bitlen
	.word	ecdsa_can_do
	.word	ecdsa_verify_wrap
	.word	ecdsa_sign_wrap
	.word	ecdsa_verify_rs_wrap
	.word	ecdsa_sign_rs_wrap
	.word	0
	.word	0
	.word	eckey_check_pair_wrap
	.word	eckey_alloc_wrap
	.word	eckey_free_wrap
	.word	ecdsa_rs_alloc
	.word	ecdsa_rs_free
	.word	eckey_debug
	.text
.Letext0:
	.file 2 "/home/chandu/sdk/bl602_iot_sdk/toolchain/compiler/lib/gcc/riscv32-unknown-elf/15.1.0/include/stddef.h"
	.file 3 "/home/chandu/sdk/bl602_iot_sdk/toolchain/compiler/lib/gcc/riscv32-unknown-elf/15.1.0/include/stdint-gcc.h"
	.file 4 "/home/chandu/sdk/bl602_iot_sdk/components/security/mbedtls-bl602/include/mbedtls/platform_util.h"
	.file 5 "/home/chandu/sdk/bl602_iot_sdk/components/security/mbedtls-bl602/include/mbedtls/md.h"
	.file 6 "/home/chandu/sdk/bl602_iot_sdk/components/security/mbedtls-bl602/include/mbedtls/bignum.h"
	.file 7 "/home/chandu/sdk/bl602_iot_sdk/components/security/mbedtls-bl602/include/mbedtls/rsa.h"
	.file 8 "/home/chandu/sdk/bl602_iot_sdk/components/security/mbedtls-bl602/include/mbedtls/ecp.h"
	.file 9 "/home/chandu/sdk/bl602_iot_sdk/components/security/mbedtls-bl602/include/mbedtls/ecdsa.h"
	.file 10 "/home/chandu/sdk/bl602_iot_sdk/components/security/mbedtls-bl602/include/mbedtls/pk.h"
	.file 11 "/home/chandu/sdk/bl602_iot_sdk/components/security/mbedtls-bl602/library/pk_wrap.h"
	.file 12 "/home/chandu/sdk/bl602_iot_sdk/toolchain/compiler/riscv32-unknown-elf/include/stdlib.h"
	.section	.note.GNU-stack,"",@progbits
