	.file	"pkcs12.c"
	.option nopic
	.attribute arch, "rv32i2p1_m2p0_f2p2_c2p0_zicsr2p0_zmmul1p0_zca1p0_zcf1p0"
	.attribute unaligned_access, 0
	.attribute stack_align, 16
	.text
.Ltext0:
	.cfi_sections	.debug_frame
	.file 0 "/home/chandu/sdk/bl602_iot_sdk/customer_app/suas_app_pqkem_gateway/build_out/mbedtls-bl602" "/home/chandu/sdk/bl602_iot_sdk/components/security/mbedtls-bl602/library/pkcs12.c"
	.section	.text.mbedtls_md_get_size_from_type,"ax",@progbits
	.align	1
	.type	mbedtls_md_get_size_from_type, @function
mbedtls_md_get_size_from_type:
.LFB11:
	.file 1 "/home/chandu/sdk/bl602_iot_sdk/components/security/mbedtls-bl602/include/mbedtls/md.h"
	.loc 1 247 1
	.cfi_startproc
	addi	sp,sp,-32
	.cfi_def_cfa_offset 32
	sw	ra,28(sp)
	sw	s0,24(sp)
	.cfi_offset 1, -4
	.cfi_offset 8, -8
	addi	s0,sp,32
	.cfi_def_cfa 8, 0
	mv	a5,a0
	sb	a5,-17(s0)
	.loc 1 248 12
	lbu	a5,-17(s0)
	mv	a0,a5
	call	mbedtls_md_info_from_type
	mv	a5,a0
	.loc 1 248 12 is_stmt 0 discriminator 1
	mv	a0,a5
	call	mbedtls_md_get_size
	mv	a5,a0
	.loc 1 249 1 is_stmt 1
	mv	a0,a5
	lw	ra,28(sp)
	.cfi_restore 1
	lw	s0,24(sp)
	.cfi_restore 8
	.cfi_def_cfa 2, 32
	addi	sp,sp,32
	.cfi_def_cfa_offset 0
	jr	ra
	.cfi_endproc
.LFE11:
	.size	mbedtls_md_get_size_from_type, .-mbedtls_md_get_size_from_type
	.section	.text.mbedtls_cipher_info_get_key_bitlen,"ax",@progbits
	.align	1
	.type	mbedtls_cipher_info_get_key_bitlen, @function
mbedtls_cipher_info_get_key_bitlen:
.LFB14:
	.file 2 "/home/chandu/sdk/bl602_iot_sdk/components/security/mbedtls-bl602/include/mbedtls/cipher.h"
	.loc 2 486 1
	.cfi_startproc
	addi	sp,sp,-32
	.cfi_def_cfa_offset 32
	sw	ra,28(sp)
	sw	s0,24(sp)
	.cfi_offset 1, -4
	.cfi_offset 8, -8
	addi	s0,sp,32
	.cfi_def_cfa 8, 0
	sw	a0,-20(s0)
	.loc 2 487 8
	lw	a5,-20(s0)
	bne	a5,zero,.L4
	.loc 2 488 16
	li	a5,0
	j	.L5
.L4:
	.loc 2 490 30
	lw	a5,-20(s0)
	lw	a5,4(a5)
	srli	a5,a5,8
	andi	a5,a5,15
	andi	a5,a5,0xff
	.loc 2 490 44
	slli	a5,a5,6
.L5:
	.loc 2 492 1
	mv	a0,a5
	lw	ra,28(sp)
	.cfi_restore 1
	lw	s0,24(sp)
	.cfi_restore 8
	.cfi_def_cfa 2, 32
	addi	sp,sp,32
	.cfi_def_cfa_offset 0
	jr	ra
	.cfi_endproc
.LFE14:
	.size	mbedtls_cipher_info_get_key_bitlen, .-mbedtls_cipher_info_get_key_bitlen
	.section	.text.mbedtls_cipher_info_get_iv_size,"ax",@progbits
	.align	1
	.type	mbedtls_cipher_info_get_iv_size, @function
mbedtls_cipher_info_get_iv_size:
.LFB16:
	.loc 2 527 1
	.cfi_startproc
	addi	sp,sp,-32
	.cfi_def_cfa_offset 32
	sw	ra,28(sp)
	sw	s0,24(sp)
	.cfi_offset 1, -4
	.cfi_offset 8, -8
	addi	s0,sp,32
	.cfi_def_cfa 8, 0
	sw	a0,-20(s0)
	.loc 2 528 8
	lw	a5,-20(s0)
	bne	a5,zero,.L7
	.loc 2 529 16
	li	a5,0
	j	.L8
.L7:
	.loc 2 532 26
	lw	a5,-20(s0)
	lw	a5,4(a5)
	srli	a5,a5,5
	andi	a5,a5,7
	andi	a5,a5,0xff
	.loc 2 532 37
	slli	a5,a5,2
.L8:
	.loc 2 533 1
	mv	a0,a5
	lw	ra,28(sp)
	.cfi_restore 1
	lw	s0,24(sp)
	.cfi_restore 8
	.cfi_def_cfa 2, 32
	addi	sp,sp,32
	.cfi_def_cfa_offset 0
	jr	ra
	.cfi_endproc
.LFE16:
	.size	mbedtls_cipher_info_get_iv_size, .-mbedtls_cipher_info_get_iv_size
	.section	.text.mbedtls_error_add,"ax",@progbits
	.align	1
	.type	mbedtls_error_add, @function
mbedtls_error_add:
.LFB27:
	.file 3 "/home/chandu/sdk/bl602_iot_sdk/components/security/mbedtls-bl602/include/mbedtls/error.h"
	.loc 3 144 1
	.cfi_startproc
	addi	sp,sp,-32
	.cfi_def_cfa_offset 32
	sw	ra,28(sp)
	sw	s0,24(sp)
	.cfi_offset 1, -4
	.cfi_offset 8, -8
	addi	s0,sp,32
	.cfi_def_cfa 8, 0
	sw	a0,-20(s0)
	sw	a1,-24(s0)
	sw	a2,-28(s0)
	sw	a3,-32(s0)
	.loc 3 153 17
	lw	a4,-20(s0)
	lw	a5,-24(s0)
	add	a5,a4,a5
	.loc 3 154 1
	mv	a0,a5
	lw	ra,28(sp)
	.cfi_restore 1
	lw	s0,24(sp)
	.cfi_restore 8
	.cfi_def_cfa 2, 32
	addi	sp,sp,32
	.cfi_def_cfa_offset 0
	jr	ra
	.cfi_endproc
.LFE27:
	.size	mbedtls_error_add, .-mbedtls_error_add
	.section	.rodata
	.align	2
.LC0:
	.string	"/home/chandu/sdk/bl602_iot_sdk/components/security/mbedtls-bl602/library/pkcs12.c"
	.section	.text.pkcs12_parse_pbe_params,"ax",@progbits
	.align	1
	.type	pkcs12_parse_pbe_params, @function
pkcs12_parse_pbe_params:
.LFB69:
	.file 4 "/home/chandu/sdk/bl602_iot_sdk/components/security/mbedtls-bl602/library/pkcs12.c"
	.loc 4 38 1
	.cfi_startproc
	addi	sp,sp,-48
	.cfi_def_cfa_offset 48
	sw	ra,44(sp)
	sw	s0,40(sp)
	.cfi_offset 1, -4
	.cfi_offset 8, -8
	addi	s0,sp,48
	.cfi_def_cfa 8, 0
	sw	a0,-36(s0)
	sw	a1,-40(s0)
	sw	a2,-44(s0)
	.loc 4 39 9
	li	a5,-110
	sw	a5,-20(s0)
	.loc 4 40 21
	lw	a5,-36(s0)
	addi	a5,a5,8
	sw	a5,-24(s0)
	.loc 4 41 38
	lw	a5,-36(s0)
	lw	a4,8(a5)
	.loc 4 41 50
	lw	a5,-36(s0)
	lw	a5,4(a5)
	.loc 4 41 26
	add	a5,a4,a5
	sw	a5,-28(s0)
	.loc 4 50 15
	lw	a5,-36(s0)
	lw	a4,0(a5)
	.loc 4 50 8
	li	a5,48
	beq	a4,a5,.L12
	.loc 4 51 16
	li	a3,51
	lui	a5,%hi(.LC0)
	addi	a2,a5,%lo(.LC0)
	li	a1,-98
	li	a5,-8192
	addi	a0,a5,384
	call	mbedtls_error_add
	mv	a5,a0
	j	.L13
.L12:
	.loc 4 55 16
	lw	a5,-40(s0)
	addi	a5,a5,4
	li	a3,4
	mv	a2,a5
	lw	a1,-28(s0)
	lw	a0,-24(s0)
	call	mbedtls_asn1_get_tag
	sw	a0,-20(s0)
	.loc 4 55 8 discriminator 1
	lw	a5,-20(s0)
	beq	a5,zero,.L14
	.loc 4 56 16
	li	a3,56
	lui	a5,%hi(.LC0)
	addi	a2,a5,%lo(.LC0)
	lw	a1,-20(s0)
	li	a5,-8192
	addi	a0,a5,384
	call	mbedtls_error_add
	mv	a5,a0
	j	.L13
.L14:
	.loc 4 59 15
	lw	a5,-24(s0)
	lw	a4,0(a5)
	.loc 4 59 13
	lw	a5,-40(s0)
	sw	a4,8(a5)
	.loc 4 60 5
	lw	a5,-24(s0)
	lw	a4,0(a5)
	.loc 4 60 15
	lw	a5,-40(s0)
	lw	a5,4(a5)
	.loc 4 60 8
	add	a4,a4,a5
	lw	a5,-24(s0)
	sw	a4,0(a5)
	.loc 4 62 16
	lw	a2,-44(s0)
	lw	a1,-28(s0)
	lw	a0,-24(s0)
	call	mbedtls_asn1_get_int
	sw	a0,-20(s0)
	.loc 4 62 8 discriminator 1
	lw	a5,-20(s0)
	beq	a5,zero,.L15
	.loc 4 63 16
	li	a3,63
	lui	a5,%hi(.LC0)
	addi	a2,a5,%lo(.LC0)
	lw	a1,-20(s0)
	li	a5,-8192
	addi	a0,a5,384
	call	mbedtls_error_add
	mv	a5,a0
	j	.L13
.L15:
	.loc 4 66 9
	lw	a5,-24(s0)
	lw	a5,0(a5)
	.loc 4 66 8
	lw	a4,-28(s0)
	beq	a4,a5,.L16
	.loc 4 67 16
	li	a3,67
	lui	a5,%hi(.LC0)
	addi	a2,a5,%lo(.LC0)
	li	a1,-102
	li	a5,-8192
	addi	a0,a5,384
	call	mbedtls_error_add
	mv	a5,a0
	j	.L13
.L16:
	.loc 4 71 12
	li	a5,0
.L13:
	.loc 4 72 1
	mv	a0,a5
	lw	ra,44(sp)
	.cfi_restore 1
	lw	s0,40(sp)
	.cfi_restore 8
	.cfi_def_cfa 2, 48
	addi	sp,sp,48
	.cfi_def_cfa_offset 0
	jr	ra
	.cfi_endproc
.LFE69:
	.size	pkcs12_parse_pbe_params, .-pkcs12_parse_pbe_params
	.section	.text.pkcs12_pbe_derive_key_iv,"ax",@progbits
	.align	1
	.type	pkcs12_pbe_derive_key_iv, @function
pkcs12_pbe_derive_key_iv:
.LFB70:
	.loc 4 80 1
	.cfi_startproc
	addi	sp,sp,-352
	.cfi_def_cfa_offset 352
	sw	ra,348(sp)
	sw	s0,344(sp)
	.cfi_offset 1, -4
	.cfi_offset 8, -8
	addi	s0,sp,352
	.cfi_def_cfa 8, 0
	sw	a0,-308(s0)
	sw	a2,-316(s0)
	sw	a3,-320(s0)
	sw	a4,-324(s0)
	sw	a5,-328(s0)
	sw	a6,-332(s0)
	sw	a7,-336(s0)
	mv	a5,a1
	sb	a5,-309(s0)
	.loc 4 81 14
	sw	zero,-28(s0)
	.loc 4 86 8
	lw	a4,-320(s0)
	li	a5,128
	bleu	a4,a5,.L18
	.loc 4 87 16
	li	a5,-8192
	addi	a5,a5,128
	j	.L27
.L18:
	.loc 4 90 5
	addi	a5,s0,-40
	li	a2,12
	li	a1,0
	mv	a0,a5
	call	memset
	.loc 4 91 5
	addi	a5,s0,-300
	li	a2,258
	li	a1,0
	mv	a0,a5
	call	memset
	.loc 4 93 16
	addi	a4,s0,-28
	addi	a5,s0,-40
	mv	a2,a4
	mv	a1,a5
	lw	a0,-308(s0)
	call	pkcs12_parse_pbe_params
	sw	a0,-24(s0)
	.loc 4 93 8 discriminator 1
	lw	a5,-24(s0)
	beq	a5,zero,.L20
	.loc 4 95 16
	lw	a5,-24(s0)
	j	.L27
.L20:
	.loc 4 98 12
	sw	zero,-20(s0)
	.loc 4 98 5
	j	.L21
.L22:
	.loc 4 99 32
	lw	a4,-316(s0)
	lw	a5,-20(s0)
	add	a4,a4,a5
	.loc 4 99 18
	lw	a5,-20(s0)
	slli	a5,a5,1
	.loc 4 99 22
	addi	a5,a5,1
	.loc 4 99 32
	lbu	a4,0(a4)
	.loc 4 99 27
	addi	a5,a5,-16
	add	a5,a5,s0
	sb	a4,-284(a5)
	.loc 4 98 30 discriminator 3
	lw	a5,-20(s0)
	addi	a5,a5,1
	sw	a5,-20(s0)
.L21:
	.loc 4 98 19 discriminator 1
	lw	a4,-20(s0)
	lw	a5,-320(s0)
	bltu	a4,a5,.L22
	.loc 4 102 74
	lw	a5,-320(s0)
	addi	a5,a5,1
	.loc 4 102 16
	slli	a3,a5,1
	.loc 4 103 46
	lw	a4,-32(s0)
	.loc 4 102 16
	lw	a1,-36(s0)
	lw	a5,-28(s0)
	lbu	a0,-309(s0)
	addi	a2,s0,-300
	sw	a5,0(sp)
	li	a7,1
	mv	a6,a0
	mv	a5,a1
	lw	a1,-328(s0)
	lw	a0,-324(s0)
	call	mbedtls_pkcs12_derivation
	sw	a0,-24(s0)
	.loc 4 102 8 discriminator 1
	lw	a5,-24(s0)
	beq	a5,zero,.L23
	.loc 4 105 16
	lw	a5,-24(s0)
	j	.L27
.L23:
	.loc 4 108 8
	lw	a5,-332(s0)
	beq	a5,zero,.L24
	.loc 4 108 19 discriminator 1
	lw	a5,-336(s0)
	bne	a5,zero,.L25
.L24:
	.loc 4 109 16
	li	a5,0
	j	.L27
.L25:
	.loc 4 112 72
	lw	a5,-320(s0)
	addi	a5,a5,1
	.loc 4 112 16
	slli	a3,a5,1
	.loc 4 113 46
	lw	a4,-32(s0)
	.loc 4 112 16
	lw	a1,-36(s0)
	lw	a5,-28(s0)
	lbu	a0,-309(s0)
	addi	a2,s0,-300
	sw	a5,0(sp)
	li	a7,2
	mv	a6,a0
	mv	a5,a1
	lw	a1,-336(s0)
	lw	a0,-332(s0)
	call	mbedtls_pkcs12_derivation
	sw	a0,-24(s0)
	.loc 4 112 8 discriminator 1
	lw	a5,-24(s0)
	beq	a5,zero,.L26
	.loc 4 115 16
	lw	a5,-24(s0)
	j	.L27
.L26:
	.loc 4 117 12
	li	a5,0
.L27:
	.loc 4 118 1
	mv	a0,a5
	lw	ra,348(sp)
	.cfi_restore 1
	lw	s0,344(sp)
	.cfi_restore 8
	.cfi_def_cfa 2, 352
	addi	sp,sp,352
	.cfi_def_cfa_offset 0
	jr	ra
	.cfi_endproc
.LFE70:
	.size	pkcs12_pbe_derive_key_iv, .-pkcs12_pbe_derive_key_iv
	.section	.text.mbedtls_pkcs12_pbe_ext,"ax",@progbits
	.align	1
	.globl	mbedtls_pkcs12_pbe_ext
	.type	mbedtls_pkcs12_pbe_ext, @function
mbedtls_pkcs12_pbe_ext:
.LFB71:
	.loc 4 156 1
	.cfi_startproc
	addi	sp,sp,-192
	.cfi_def_cfa_offset 192
	sw	ra,188(sp)
	sw	s0,184(sp)
	.cfi_offset 1, -4
	.cfi_offset 8, -8
	addi	s0,sp,192
	.cfi_def_cfa 8, 0
	sw	a0,-164(s0)
	sw	a1,-168(s0)
	sw	a4,-176(s0)
	sw	a5,-180(s0)
	sw	a6,-184(s0)
	sw	a7,-188(s0)
	mv	a5,a2
	sb	a5,-169(s0)
	mv	a5,a3
	sb	a5,-170(s0)
	.loc 4 157 14
	sw	zero,-24(s0)
	.loc 4 162 12
	sw	zero,-28(s0)
	.loc 4 163 12
	sw	zero,-160(s0)
	.loc 4 164 18
	sw	zero,-32(s0)
	.loc 4 166 8
	lw	a5,-176(s0)
	bne	a5,zero,.L29
	.loc 4 166 20 discriminator 1
	lw	a5,-180(s0)
	beq	a5,zero,.L29
	.loc 4 167 16
	li	a5,-8192
	addi	a5,a5,128
	j	.L40
.L29:
	.loc 4 170 19
	lbu	a5,-169(s0)
	mv	a0,a5
	call	mbedtls_cipher_info_from_type
	sw	a0,-36(s0)
	.loc 4 171 8
	lw	a5,-36(s0)
	bne	a5,zero,.L31
	.loc 4 172 16
	li	a5,-8192
	addi	a5,a5,256
	j	.L40
.L31:
	.loc 4 175 20
	lw	a0,-36(s0)
	call	mbedtls_cipher_info_get_key_bitlen
	mv	a5,a0
	.loc 4 175 12 discriminator 1
	srai	a4,a5,31
	andi	a4,a4,7
	add	a5,a4,a5
	srai	a5,a5,3
	sw	a5,-24(s0)
	.loc 4 177 8
	lw	a5,-168(s0)
	bne	a5,zero,.L32
	.loc 4 178 12
	lw	a4,4(s0)
	lw	a5,-188(s0)
	bgeu	a4,a5,.L32
	.loc 4 179 20
	li	a5,-108
	j	.L40
.L32:
	.loc 4 183 8
	lw	a4,-168(s0)
	li	a5,1
	bne	a4,a5,.L33
	.loc 4 184 29
	lw	a5,-36(s0)
	lw	a5,4(a5)
	andi	a5,a5,31
	andi	a5,a5,0xff
	mv	a4,a5
	.loc 4 184 62
	lw	a5,-36(s0)
	lw	a5,4(a5)
	andi	a5,a5,31
	andi	a5,a5,0xff
	mv	a3,a5
	.loc 4 184 49
	lw	a5,-188(s0)
	remu	a5,a5,a3
	.loc 4 184 16
	sub	a5,a4,a5
	sw	a5,-32(s0)
	.loc 4 185 32
	lw	a4,-188(s0)
	lw	a5,-32(s0)
	add	a5,a4,a5
	.loc 4 185 12
	lw	a4,4(s0)
	bgeu	a4,a5,.L33
	.loc 4 186 20
	li	a5,-108
	j	.L40
.L33:
	.loc 4 190 14
	lw	a0,-36(s0)
	call	mbedtls_cipher_info_get_iv_size
	sw	a0,-28(s0)
	.loc 4 191 16
	lw	a5,-24(s0)
	addi	a3,s0,-88
	addi	a4,s0,-72
	lbu	a1,-170(s0)
	lw	a7,-28(s0)
	mv	a6,a3
	lw	a3,-180(s0)
	lw	a2,-176(s0)
	lw	a0,-164(s0)
	call	pkcs12_pbe_derive_key_iv
	sw	a0,-20(s0)
	.loc 4 191 8 discriminator 1
	lw	a5,-20(s0)
	beq	a5,zero,.L34
	.loc 4 194 16
	lw	a5,-20(s0)
	j	.L40
.L34:
	.loc 4 197 5
	addi	a5,s0,-156
	mv	a0,a5
	call	mbedtls_cipher_init
	.loc 4 199 16
	addi	a5,s0,-156
	lw	a1,-36(s0)
	mv	a0,a5
	call	mbedtls_cipher_setup
	sw	a0,-20(s0)
	.loc 4 199 8 discriminator 1
	lw	a5,-20(s0)
	bne	a5,zero,.L41
	.loc 4 203 16
	lw	a5,-24(s0)
	slli	a2,a5,3
	lw	a5,-168(s0)
	slli	a3,a5,24
	srai	a3,a3,24
	addi	a4,s0,-72
	addi	a5,s0,-156
	mv	a1,a4
	mv	a0,a5
	call	mbedtls_cipher_setkey
	sw	a0,-20(s0)
	.loc 4 203 8 discriminator 1
	lw	a5,-20(s0)
	bne	a5,zero,.L42
.LBB2:
	.loc 4 211 34
	sb	zero,-37(s0)
	.loc 4 222 20
	lbu	a4,-37(s0)
	addi	a5,s0,-156
	mv	a1,a4
	mv	a0,a5
	call	mbedtls_cipher_set_padding_mode
	sw	a0,-20(s0)
	.loc 4 222 12 discriminator 1
	lw	a5,-20(s0)
	bne	a5,zero,.L43
.LBE2:
	.loc 4 228 11
	addi	a5,s0,-160
	addi	a1,s0,-88
	addi	a0,s0,-156
	mv	a6,a5
	lw	a5,0(s0)
	lw	a4,-188(s0)
	lw	a3,-184(s0)
	lw	a2,-28(s0)
	call	mbedtls_cipher_crypt
	sw	a0,-20(s0)
	.loc 4 229 8
	lw	a4,-20(s0)
	li	a5,-24576
	addi	a5,a5,-512
	bne	a4,a5,.L39
	.loc 4 230 13
	li	a5,-8192
	addi	a5,a5,512
	sw	a5,-20(s0)
.L39:
	.loc 4 233 5
	lw	a5,8(s0)
	lw	a4,0(a5)
	.loc 4 233 17
	lw	a5,-160(s0)
	add	a4,a4,a5
	lw	a5,8(s0)
	sw	a4,0(a5)
	j	.L36
.L41:
	.loc 4 200 9
	nop
	j	.L36
.L42:
	.loc 4 205 9
	nop
	j	.L36
.L43:
.LBB3:
	.loc 4 223 13
	nop
.L36:
.LBE3:
	.loc 4 236 5
	addi	a5,s0,-72
	li	a1,32
	mv	a0,a5
	call	mbedtls_platform_zeroize
	.loc 4 237 5
	addi	a5,s0,-88
	li	a1,16
	mv	a0,a5
	call	mbedtls_platform_zeroize
	.loc 4 238 5
	addi	a5,s0,-156
	mv	a0,a5
	call	mbedtls_cipher_free
	.loc 4 240 12
	lw	a5,-20(s0)
.L40:
	.loc 4 241 1
	mv	a0,a5
	lw	ra,188(sp)
	.cfi_restore 1
	lw	s0,184(sp)
	.cfi_restore 8
	.cfi_def_cfa 2, 192
	addi	sp,sp,192
	.cfi_def_cfa_offset 0
	jr	ra
	.cfi_endproc
.LFE71:
	.size	mbedtls_pkcs12_pbe_ext, .-mbedtls_pkcs12_pbe_ext
	.section	.text.pkcs12_fill_buffer,"ax",@progbits
	.align	1
	.type	pkcs12_fill_buffer, @function
pkcs12_fill_buffer:
.LFB72:
	.loc 4 247 1
	.cfi_startproc
	addi	sp,sp,-48
	.cfi_def_cfa_offset 48
	sw	ra,44(sp)
	sw	s0,40(sp)
	.cfi_offset 1, -4
	.cfi_offset 8, -8
	addi	s0,sp,48
	.cfi_def_cfa 8, 0
	sw	a0,-36(s0)
	sw	a1,-40(s0)
	sw	a2,-44(s0)
	sw	a3,-48(s0)
	.loc 4 248 20
	lw	a5,-36(s0)
	sw	a5,-20(s0)
	.loc 4 251 8
	lw	a5,-44(s0)
	beq	a5,zero,.L49
	.loc 4 251 23 discriminator 1
	lw	a5,-48(s0)
	beq	a5,zero,.L49
	.loc 4 252 15
	j	.L46
.L48:
	.loc 4 253 21
	lw	a4,-48(s0)
	lw	a5,-40(s0)
	bleu	a5,a4,.L47
	mv	a5,a4
.L47:
	sw	a5,-24(s0)
	.loc 4 254 13
	lw	a2,-24(s0)
	lw	a1,-44(s0)
	lw	a0,-20(s0)
	call	memcpy
	.loc 4 255 15
	lw	a4,-20(s0)
	lw	a5,-24(s0)
	add	a5,a4,a5
	sw	a5,-20(s0)
	.loc 4 256 22
	lw	a4,-40(s0)
	lw	a5,-24(s0)
	sub	a5,a4,a5
	sw	a5,-40(s0)
.L46:
	.loc 4 252 25
	lw	a5,-40(s0)
	bne	a5,zero,.L48
.L49:
	.loc 4 265 1
	nop
	lw	ra,44(sp)
	.cfi_restore 1
	lw	s0,40(sp)
	.cfi_restore 8
	.cfi_def_cfa 2, 48
	addi	sp,sp,48
	.cfi_def_cfa_offset 0
	jr	ra
	.cfi_endproc
.LFE72:
	.size	pkcs12_fill_buffer, .-pkcs12_fill_buffer
	.section	.text.calculate_hashes,"ax",@progbits
	.align	1
	.type	calculate_hashes, @function
calculate_hashes:
.LFB73:
	.loc 4 272 1
	.cfi_startproc
	addi	sp,sp,-80
	.cfi_def_cfa_offset 80
	sw	ra,76(sp)
	sw	s0,72(sp)
	.cfi_offset 1, -4
	.cfi_offset 8, -8
	addi	s0,sp,80
	.cfi_def_cfa 8, 0
	sw	a1,-56(s0)
	sw	a2,-60(s0)
	sw	a3,-64(s0)
	sw	a4,-68(s0)
	sw	a5,-72(s0)
	sw	a6,-76(s0)
	sw	a7,-80(s0)
	mv	a5,a0
	sb	a5,-49(s0)
	.loc 4 273 9
	li	a5,-1
	sw	a5,-20(s0)
	.loc 4 277 15
	lbu	a5,-49(s0)
	mv	a0,a5
	call	mbedtls_md_info_from_type
	sw	a0,-28(s0)
	.loc 4 278 8
	lw	a5,-28(s0)
	bne	a5,zero,.L51
	.loc 4 279 16
	li	a5,-8192
	addi	a5,a5,256
	j	.L63
.L51:
	.loc 4 282 5
	addi	a5,s0,-40
	mv	a0,a5
	call	mbedtls_md_init
	.loc 4 284 16
	addi	a5,s0,-40
	li	a2,0
	lw	a1,-28(s0)
	mv	a0,a5
	call	mbedtls_md_setup
	sw	a0,-20(s0)
	.loc 4 284 8 discriminator 1
	lw	a5,-20(s0)
	beq	a5,zero,.L53
	.loc 4 285 16
	lw	a5,-20(s0)
	j	.L63
.L53:
	.loc 4 288 16
	addi	a5,s0,-40
	mv	a0,a5
	call	mbedtls_md_starts
	sw	a0,-20(s0)
	.loc 4 288 8 discriminator 1
	lw	a5,-20(s0)
	bne	a5,zero,.L64
	.loc 4 292 16
	addi	a5,s0,-40
	lw	a2,4(s0)
	lw	a1,-60(s0)
	mv	a0,a5
	call	mbedtls_md_update
	sw	a0,-20(s0)
	.loc 4 292 8 discriminator 1
	lw	a5,-20(s0)
	bne	a5,zero,.L65
	.loc 4 296 8
	lw	a5,-76(s0)
	beq	a5,zero,.L57
	.loc 4 297 20
	addi	a5,s0,-40
	lw	a2,4(s0)
	lw	a1,-64(s0)
	mv	a0,a5
	call	mbedtls_md_update
	sw	a0,-20(s0)
	.loc 4 297 12 discriminator 1
	lw	a5,-20(s0)
	bne	a5,zero,.L66
.L57:
	.loc 4 302 8
	lw	a5,-80(s0)
	beq	a5,zero,.L58
	.loc 4 303 20
	addi	a5,s0,-40
	lw	a2,4(s0)
	lw	a1,-68(s0)
	mv	a0,a5
	call	mbedtls_md_update
	sw	a0,-20(s0)
	.loc 4 303 12 discriminator 1
	lw	a5,-20(s0)
	bne	a5,zero,.L67
.L58:
	.loc 4 308 16
	addi	a5,s0,-40
	lw	a1,-72(s0)
	mv	a0,a5
	call	mbedtls_md_finish
	sw	a0,-20(s0)
	.loc 4 308 8 discriminator 1
	lw	a5,-20(s0)
	bne	a5,zero,.L68
	.loc 4 313 12
	li	a5,1
	sw	a5,-24(s0)
	.loc 4 313 5
	j	.L60
.L62:
	.loc 4 314 20
	lw	a3,-72(s0)
	lw	a2,0(s0)
	lw	a1,-72(s0)
	lw	a0,-28(s0)
	call	mbedtls_md
	sw	a0,-20(s0)
	.loc 4 314 12 discriminator 1
	lw	a5,-20(s0)
	bne	a5,zero,.L69
	.loc 4 313 43 discriminator 2
	lw	a5,-24(s0)
	addi	a5,a5,1
	sw	a5,-24(s0)
.L60:
	.loc 4 313 21 discriminator 1
	lw	a5,-56(s0)
	.loc 4 313 19 discriminator 1
	lw	a4,-24(s0)
	bltu	a4,a5,.L62
	.loc 4 320 1
	j	.L55
.L64:
	.loc 4 289 9
	nop
	j	.L55
.L65:
	.loc 4 293 9
	nop
	j	.L55
.L66:
	.loc 4 298 13
	nop
	j	.L55
.L67:
	.loc 4 304 13
	nop
	j	.L55
.L68:
	.loc 4 309 9
	nop
	j	.L55
.L69:
	.loc 4 316 13
	nop
.L55:
	.loc 4 321 5
	addi	a5,s0,-40
	mv	a0,a5
	call	mbedtls_md_free
	.loc 4 322 12
	lw	a5,-20(s0)
.L63:
	.loc 4 323 1
	mv	a0,a5
	lw	ra,76(sp)
	.cfi_restore 1
	lw	s0,72(sp)
	.cfi_restore 8
	.cfi_def_cfa 2, 80
	addi	sp,sp,80
	.cfi_def_cfa_offset 0
	jr	ra
	.cfi_endproc
.LFE73:
	.size	calculate_hashes, .-calculate_hashes
	.section	.text.mbedtls_pkcs12_derivation,"ax",@progbits
	.align	1
	.globl	mbedtls_pkcs12_derivation
	.type	mbedtls_pkcs12_derivation, @function
mbedtls_pkcs12_derivation:
.LFB74:
	.loc 4 330 1
	.cfi_startproc
	addi	sp,sp,-688
	.cfi_def_cfa_offset 688
	sw	ra,684(sp)
	sw	s0,680(sp)
	.cfi_offset 1, -4
	.cfi_offset 8, -8
	addi	s0,sp,688
	.cfi_def_cfa 8, 0
	sw	a0,-644(s0)
	sw	a1,-648(s0)
	sw	a2,-652(s0)
	sw	a3,-656(s0)
	sw	a4,-660(s0)
	sw	a5,-664(s0)
	mv	a5,a6
	sw	a7,-672(s0)
	sb	a5,-665(s0)
	.loc 4 331 9
	li	a5,-110
	sw	a5,-20(s0)
	.loc 4 335 52
	addi	a5,s0,-568
	li	a4,128
	mv	a2,a4
	li	a1,0
	mv	a0,a5
	call	memset
	.loc 4 339 9
	sw	zero,-40(s0)
	.loc 4 340 9
	sw	zero,-44(s0)
	.loc 4 345 8
	lw	a4,-648(s0)
	li	a5,128
	bgtu	a4,a5,.L71
	.loc 4 345 23 discriminator 1
	lw	a4,-656(s0)
	li	a5,64
	bgtu	a4,a5,.L71
	.loc 4 345 38 discriminator 2
	lw	a4,-664(s0)
	li	a5,64
	bleu	a4,a5,.L72
.L71:
	.loc 4 346 16
	li	a5,-8192
	addi	a5,a5,128
	j	.L101
.L72:
	.loc 4 349 8
	lw	a5,-652(s0)
	bne	a5,zero,.L74
	.loc 4 349 20 discriminator 1
	lw	a5,-656(s0)
	beq	a5,zero,.L74
	.loc 4 350 16
	li	a5,-8192
	addi	a5,a5,128
	j	.L101
.L74:
	.loc 4 353 8
	lw	a5,-660(s0)
	bne	a5,zero,.L75
	.loc 4 353 21 discriminator 1
	lw	a5,-664(s0)
	beq	a5,zero,.L75
	.loc 4 354 16
	li	a5,-8192
	addi	a5,a5,128
	j	.L101
.L75:
	.loc 4 357 25
	lw	a5,-652(s0)
	beq	a5,zero,.L76
	.loc 4 357 25 is_stmt 0 discriminator 1
	lw	a5,-656(s0)
	beq	a5,zero,.L76
	.loc 4 357 25 discriminator 3
	li	a5,1
	.loc 4 357 25
	j	.L77
.L76:
	.loc 4 357 25 discriminator 4
	li	a5,0
.L77:
	.loc 4 357 18 is_stmt 1 discriminator 6
	sw	a5,-40(s0)
	.loc 4 358 22
	lw	a5,-660(s0)
	beq	a5,zero,.L78
	.loc 4 358 22 is_stmt 0 discriminator 1
	lw	a5,-664(s0)
	beq	a5,zero,.L78
	.loc 4 358 22 discriminator 3
	li	a5,1
	.loc 4 358 22
	j	.L79
.L78:
	.loc 4 358 22 discriminator 4
	li	a5,0
.L79:
	.loc 4 358 14 is_stmt 1 discriminator 6
	sw	a5,-44(s0)
	.loc 4 360 12
	lbu	a5,-665(s0)
	mv	a0,a5
	call	mbedtls_md_get_size_from_type
	mv	a5,a0
	.loc 4 360 10 discriminator 1
	sw	a5,-48(s0)
	.loc 4 362 8
	lw	a4,-48(s0)
	li	a5,32
	bgtu	a4,a5,.L80
	.loc 4 363 11
	li	a5,64
	sw	a5,-32(s0)
	j	.L81
.L80:
	.loc 4 365 11
	li	a5,128
	sw	a5,-32(s0)
.L81:
	.loc 4 368 25
	lw	a5,-672(s0)
	andi	a5,a5,0xff
	.loc 4 368 5
	mv	a4,a5
	addi	a5,s0,-184
	lw	a2,-32(s0)
	mv	a1,a4
	mv	a0,a5
	call	memset
	.loc 4 370 8
	lw	a5,-44(s0)
	beq	a5,zero,.L82
	.loc 4 371 9
	addi	a5,s0,-312
	lw	a3,-664(s0)
	lw	a2,-660(s0)
	lw	a1,-32(s0)
	mv	a0,a5
	call	pkcs12_fill_buffer
.L82:
	.loc 4 374 8
	lw	a5,-40(s0)
	beq	a5,zero,.L83
	.loc 4 375 9
	addi	a5,s0,-440
	lw	a3,-656(s0)
	lw	a2,-652(s0)
	lw	a1,-32(s0)
	mv	a0,a5
	call	pkcs12_fill_buffer
.L83:
	.loc 4 378 7
	lw	a5,-644(s0)
	sw	a5,-24(s0)
	.loc 4 379 11
	j	.L84
.L100:
	.loc 4 380 13
	addi	a1,s0,-632
	addi	a4,s0,-440
	addi	a3,s0,-312
	addi	a2,s0,-184
	lbu	a0,-665(s0)
	lw	a5,-32(s0)
	sw	a5,4(sp)
	lw	a5,-48(s0)
	sw	a5,0(sp)
	lw	a7,-40(s0)
	lw	a6,-44(s0)
	mv	a5,a1
	lw	a1,0(s0)
	call	calculate_hashes
	mv	a5,a0
	.loc 4 380 12 discriminator 1
	bne	a5,zero,.L102
	.loc 4 386 17
	lw	a4,-48(s0)
	lw	a5,-648(s0)
	bleu	a5,a4,.L87
	mv	a5,a4
.L87:
	sw	a5,-52(s0)
	.loc 4 387 9
	addi	a5,s0,-632
	lw	a2,-52(s0)
	mv	a1,a5
	lw	a0,-24(s0)
	call	memcpy
	.loc 4 388 17
	lw	a4,-648(s0)
	lw	a5,-52(s0)
	sub	a5,a4,a5
	sw	a5,-648(s0)
	.loc 4 389 11
	lw	a4,-24(s0)
	lw	a5,-52(s0)
	add	a5,a4,a5
	sw	a5,-24(s0)
	.loc 4 391 12
	lw	a5,-648(s0)
	beq	a5,zero,.L103
	.loc 4 396 9
	addi	a4,s0,-632
	addi	a5,s0,-568
	lw	a3,-48(s0)
	mv	a2,a4
	lw	a1,-32(s0)
	mv	a0,a5
	call	pkcs12_fill_buffer
	.loc 4 399 16
	lw	a5,-32(s0)
	sw	a5,-36(s0)
	.loc 4 399 9
	j	.L90
.L93:
	.loc 4 400 32
	lw	a5,-36(s0)
	addi	a5,a5,-1
	.loc 4 400 29
	addi	a4,a5,-16
	add	a4,a4,s0
	lbu	a4,-552(a4)
	.loc 4 400 17
	addi	a4,a4,1
	andi	a3,a4,0xff
	.loc 4 400 16
	addi	a4,a5,-16
	add	a4,a4,s0
	sb	a3,-552(a4)
	.loc 4 400 29
	addi	a5,a5,-16
	add	a5,a5,s0
	lbu	a5,-552(a5)
	.loc 4 400 16
	bne	a5,zero,.L104
	.loc 4 399 29 discriminator 2
	lw	a5,-36(s0)
	addi	a5,a5,-1
	sw	a5,-36(s0)
.L90:
	.loc 4 399 23 discriminator 1
	lw	a5,-36(s0)
	bne	a5,zero,.L93
	j	.L92
.L104:
	.loc 4 401 17
	nop
.L92:
	.loc 4 405 12
	lw	a5,-44(s0)
	beq	a5,zero,.L94
	.loc 4 407 15
	sb	zero,-25(s0)
	.loc 4 408 20
	lw	a5,-32(s0)
	sw	a5,-36(s0)
	.loc 4 408 13
	j	.L95
.L96:
	.loc 4 409 34
	lw	a5,-36(s0)
	addi	a5,a5,-1
	.loc 4 409 31
	addi	a5,a5,-16
	add	a5,a5,s0
	lbu	a5,-296(a5)
	mv	a4,a5
	.loc 4 409 54
	lw	a5,-36(s0)
	addi	a5,a5,-1
	.loc 4 409 51
	addi	a5,a5,-16
	add	a5,a5,s0
	lbu	a5,-552(a5)
	.loc 4 409 39
	add	a4,a4,a5
	.loc 4 409 59
	lbu	a5,-25(s0)
	add	a5,a4,a5
	.loc 4 409 19
	sw	a5,-56(s0)
	.loc 4 410 38
	lw	a5,-56(s0)
	srli	a5,a5,8
	.loc 4 410 19
	sb	a5,-25(s0)
	.loc 4 411 30
	lw	a5,-36(s0)
	addi	a5,a5,-1
	.loc 4 411 38
	lw	a4,-56(s0)
	andi	a4,a4,0xff
	.loc 4 411 35
	addi	a5,a5,-16
	add	a5,a5,s0
	sb	a4,-296(a5)
	.loc 4 408 33 discriminator 3
	lw	a5,-36(s0)
	addi	a5,a5,-1
	sw	a5,-36(s0)
.L95:
	.loc 4 408 27 discriminator 1
	lw	a5,-36(s0)
	bne	a5,zero,.L96
.L94:
	.loc 4 415 12
	lw	a5,-40(s0)
	beq	a5,zero,.L84
	.loc 4 417 15
	sb	zero,-25(s0)
	.loc 4 418 20
	lw	a5,-32(s0)
	sw	a5,-36(s0)
	.loc 4 418 13
	j	.L98
.L99:
	.loc 4 419 33
	lw	a5,-36(s0)
	addi	a5,a5,-1
	.loc 4 419 30
	addi	a5,a5,-16
	add	a5,a5,s0
	lbu	a5,-424(a5)
	mv	a4,a5
	.loc 4 419 53
	lw	a5,-36(s0)
	addi	a5,a5,-1
	.loc 4 419 50
	addi	a5,a5,-16
	add	a5,a5,s0
	lbu	a5,-552(a5)
	.loc 4 419 38
	add	a4,a4,a5
	.loc 4 419 58
	lbu	a5,-25(s0)
	add	a5,a4,a5
	.loc 4 419 19
	sw	a5,-56(s0)
	.loc 4 420 38
	lw	a5,-56(s0)
	srli	a5,a5,8
	.loc 4 420 19
	sb	a5,-25(s0)
	.loc 4 421 29
	lw	a5,-36(s0)
	addi	a5,a5,-1
	.loc 4 421 37
	lw	a4,-56(s0)
	andi	a4,a4,0xff
	.loc 4 421 34
	addi	a5,a5,-16
	add	a5,a5,s0
	sb	a4,-424(a5)
	.loc 4 418 33 discriminator 3
	lw	a5,-36(s0)
	addi	a5,a5,-1
	sw	a5,-36(s0)
.L98:
	.loc 4 418 27 discriminator 1
	lw	a5,-36(s0)
	bne	a5,zero,.L99
.L84:
	.loc 4 379 20
	lw	a5,-648(s0)
	bne	a5,zero,.L100
	j	.L89
.L103:
	.loc 4 392 13
	nop
.L89:
	.loc 4 426 9
	sw	zero,-20(s0)
	j	.L86
.L102:
	.loc 4 383 13
	nop
.L86:
	.loc 4 429 5
	addi	a5,s0,-312
	li	a1,128
	mv	a0,a5
	call	mbedtls_platform_zeroize
	.loc 4 430 5
	addi	a5,s0,-440
	li	a1,128
	mv	a0,a5
	call	mbedtls_platform_zeroize
	.loc 4 431 5
	addi	a5,s0,-568
	li	a1,128
	mv	a0,a5
	call	mbedtls_platform_zeroize
	.loc 4 432 5
	addi	a5,s0,-632
	li	a1,64
	mv	a0,a5
	call	mbedtls_platform_zeroize
	.loc 4 434 12
	lw	a5,-20(s0)
.L101:
	.loc 4 435 1
	mv	a0,a5
	lw	ra,684(sp)
	.cfi_restore 1
	lw	s0,680(sp)
	.cfi_restore 8
	.cfi_def_cfa 2, 688
	addi	sp,sp,688
	.cfi_def_cfa_offset 0
	jr	ra
	.cfi_endproc
.LFE74:
	.size	mbedtls_pkcs12_derivation, .-mbedtls_pkcs12_derivation
	.text
.Letext0:
	.file 5 "/home/chandu/sdk/bl602_iot_sdk/toolchain/compiler/lib/gcc/riscv32-unknown-elf/15.1.0/include/stddef.h"
	.file 6 "/home/chandu/sdk/bl602_iot_sdk/toolchain/compiler/lib/gcc/riscv32-unknown-elf/15.1.0/include/stdint-gcc.h"
	.file 7 "/home/chandu/sdk/bl602_iot_sdk/components/security/mbedtls-bl602/include/mbedtls/cmac.h"
	.file 8 "/home/chandu/sdk/bl602_iot_sdk/components/security/mbedtls-bl602/include/mbedtls/asn1.h"
	.file 9 "/home/chandu/sdk/bl602_iot_sdk/toolchain/compiler/riscv32-unknown-elf/include/string.h"
	.file 10 "/home/chandu/sdk/bl602_iot_sdk/components/security/mbedtls-bl602/include/mbedtls/platform_util.h"
	.section	.note.GNU-stack,"",@progbits
