	.file	"psa_crypto_slot_management.c"
	.option nopic
	.attribute arch, "rv32i2p1_m2p0_f2p2_c2p0_zicsr2p0_zmmul1p0_zca1p0_zcf1p0"
	.attribute unaligned_access, 0
	.attribute stack_align, 16
	.text
.Ltext0:
	.cfi_sections	.debug_frame
	.file 0 "/home/chandu/sdk/bl602_iot_sdk/customer_app/suas_app_pqkem_gateway/build_out/mbedtls-bl602" "/home/chandu/sdk/bl602_iot_sdk/components/security/mbedtls-bl602/library/psa_crypto_slot_management.c"
	.section	.text.mbedtls_svc_key_id_equal,"ax",@progbits
	.align	1
	.type	mbedtls_svc_key_id_equal, @function
mbedtls_svc_key_id_equal:
.LFB12:
	.file 1 "/home/chandu/sdk/bl602_iot_sdk/components/security/mbedtls-bl602/include/psa/crypto_values.h"
	.loc 1 2464 1
	.cfi_startproc
	addi	sp,sp,-32
	.cfi_def_cfa_offset 32
	sw	ra,28(sp)
	sw	s0,24(sp)
	.cfi_offset 1, -4
	.cfi_offset 8, -8
	addi	s0,sp,32
	.cfi_def_cfa 8, 0
	sw	a0,-20(s0)
	sw	a1,-24(s0)
	.loc 1 2465 16
	lw	a4,-20(s0)
	lw	a5,-24(s0)
	sub	a5,a4,a5
	seqz	a5,a5
	andi	a5,a5,0xff
	.loc 1 2466 1
	mv	a0,a5
	lw	ra,28(sp)
	.cfi_restore 1
	lw	s0,24(sp)
	.cfi_restore 8
	.cfi_def_cfa 2, 32
	addi	sp,sp,32
	.cfi_def_cfa_offset 0
	jr	ra
	.cfi_endproc
.LFE12:
	.size	mbedtls_svc_key_id_equal, .-mbedtls_svc_key_id_equal
	.section	.text.mbedtls_svc_key_id_is_null,"ax",@progbits
	.align	1
	.type	mbedtls_svc_key_id_is_null, @function
mbedtls_svc_key_id_is_null:
.LFB13:
	.loc 1 2475 1
	.cfi_startproc
	addi	sp,sp,-32
	.cfi_def_cfa_offset 32
	sw	ra,28(sp)
	sw	s0,24(sp)
	.cfi_offset 1, -4
	.cfi_offset 8, -8
	addi	s0,sp,32
	.cfi_def_cfa 8, 0
	sw	a0,-20(s0)
	.loc 1 2476 16
	lw	a5,-20(s0)
	seqz	a5,a5
	andi	a5,a5,0xff
	.loc 1 2477 1
	mv	a0,a5
	lw	ra,28(sp)
	.cfi_restore 1
	lw	s0,24(sp)
	.cfi_restore 8
	.cfi_def_cfa 2, 32
	addi	sp,sp,32
	.cfi_def_cfa_offset 0
	jr	ra
	.cfi_endproc
.LFE13:
	.size	mbedtls_svc_key_id_is_null, .-mbedtls_svc_key_id_is_null
	.section	.text.psa_key_handle_is_null,"ax",@progbits
	.align	1
	.type	psa_key_handle_is_null, @function
psa_key_handle_is_null:
.LFB53:
	.file 2 "/home/chandu/sdk/bl602_iot_sdk/components/security/mbedtls-bl602/include/psa/crypto_compat.h"
	.loc 2 42 1
	.cfi_startproc
	addi	sp,sp,-32
	.cfi_def_cfa_offset 32
	sw	ra,28(sp)
	sw	s0,24(sp)
	.cfi_offset 1, -4
	.cfi_offset 8, -8
	addi	s0,sp,32
	.cfi_def_cfa 8, 0
	sw	a0,-20(s0)
	.loc 2 43 12
	lw	a0,-20(s0)
	call	mbedtls_svc_key_id_is_null
	mv	a5,a0
	.loc 2 44 1
	mv	a0,a5
	lw	ra,28(sp)
	.cfi_restore 1
	lw	s0,24(sp)
	.cfi_restore 8
	.cfi_def_cfa 2, 32
	addi	sp,sp,32
	.cfi_def_cfa_offset 0
	jr	ra
	.cfi_endproc
.LFE53:
	.size	psa_key_handle_is_null, .-psa_key_handle_is_null
	.section	.text.psa_key_slot_has_readers,"ax",@progbits
	.align	1
	.type	psa_key_slot_has_readers, @function
psa_key_slot_has_readers:
.LFB66:
	.file 3 "/home/chandu/sdk/bl602_iot_sdk/components/security/mbedtls-bl602/library/psa_crypto_core.h"
	.loc 3 195 1
	.cfi_startproc
	addi	sp,sp,-32
	.cfi_def_cfa_offset 32
	sw	ra,28(sp)
	sw	s0,24(sp)
	.cfi_offset 1, -4
	.cfi_offset 8, -8
	addi	s0,sp,32
	.cfi_def_cfa 8, 0
	sw	a0,-20(s0)
	.loc 3 196 30
	lw	a5,-20(s0)
	lw	a5,28(a5)
	.loc 3 196 50
	snez	a5,a5
	andi	a5,a5,0xff
	.loc 3 197 1
	mv	a0,a5
	lw	ra,28(sp)
	.cfi_restore 1
	lw	s0,24(sp)
	.cfi_restore 8
	.cfi_def_cfa 2, 32
	addi	sp,sp,32
	.cfi_def_cfa_offset 0
	jr	ra
	.cfi_endproc
.LFE66:
	.size	psa_key_slot_has_readers, .-psa_key_slot_has_readers
	.section	.text.psa_key_id_is_volatile,"ax",@progbits
	.align	1
	.type	psa_key_id_is_volatile, @function
psa_key_id_is_volatile:
.LFB67:
	.file 4 "/home/chandu/sdk/bl602_iot_sdk/components/security/mbedtls-bl602/library/psa_crypto_slot_management.h"
	.loc 4 49 1
	.cfi_startproc
	addi	sp,sp,-32
	.cfi_def_cfa_offset 32
	sw	ra,28(sp)
	sw	s0,24(sp)
	.cfi_offset 1, -4
	.cfi_offset 8, -8
	addi	s0,sp,32
	.cfi_def_cfa 8, 0
	sw	a0,-20(s0)
	.loc 4 50 52
	lw	a4,-20(s0)
	li	a5,1073741824
	bltu	a4,a5,.L10
	.loc 4 50 52 is_stmt 0 discriminator 1
	lw	a4,-20(s0)
	li	a5,1073741824
	addi	a5,a5,31
	bgtu	a4,a5,.L10
	.loc 4 50 52 discriminator 3
	li	a5,1
	.loc 4 50 52
	j	.L12
.L10:
	.loc 4 50 52 discriminator 4
	li	a5,0
.L12:
	.loc 4 52 1 is_stmt 1
	mv	a0,a5
	lw	ra,28(sp)
	.cfi_restore 1
	lw	s0,24(sp)
	.cfi_restore 8
	.cfi_def_cfa 2, 32
	addi	sp,sp,32
	.cfi_def_cfa_offset 0
	jr	ra
	.cfi_endproc
.LFE67:
	.size	psa_key_id_is_volatile, .-psa_key_id_is_volatile
	.section	.text.psa_key_slot_state_transition,"ax",@progbits
	.align	1
	.type	psa_key_slot_state_transition, @function
psa_key_slot_state_transition:
.LFB68:
	.loc 4 208 1
	.cfi_startproc
	addi	sp,sp,-32
	.cfi_def_cfa_offset 32
	sw	ra,28(sp)
	sw	s0,24(sp)
	.cfi_offset 1, -4
	.cfi_offset 8, -8
	addi	s0,sp,32
	.cfi_def_cfa 8, 0
	sw	a0,-20(s0)
	mv	a5,a1
	mv	a4,a2
	sb	a5,-21(s0)
	mv	a5,a4
	sb	a5,-22(s0)
	.loc 4 209 13
	lw	a5,-20(s0)
	lbu	a5,24(a5)
	.loc 4 209 8
	lbu	a4,-21(s0)
	beq	a4,a5,.L14
	.loc 4 210 16
	li	a5,-151
	j	.L15
.L14:
	.loc 4 212 17
	lw	a5,-20(s0)
	lbu	a4,-22(s0)
	sb	a4,24(a5)
	.loc 4 213 12
	li	a5,0
.L15:
	.loc 4 214 1
	mv	a0,a5
	lw	ra,28(sp)
	.cfi_restore 1
	lw	s0,24(sp)
	.cfi_restore 8
	.cfi_def_cfa 2, 32
	addi	sp,sp,32
	.cfi_def_cfa_offset 0
	jr	ra
	.cfi_endproc
.LFE68:
	.size	psa_key_slot_state_transition, .-psa_key_slot_state_transition
	.section	.text.psa_register_read,"ax",@progbits
	.align	1
	.type	psa_register_read, @function
psa_register_read:
.LFB69:
	.loc 4 231 1
	.cfi_startproc
	addi	sp,sp,-32
	.cfi_def_cfa_offset 32
	sw	ra,28(sp)
	sw	s0,24(sp)
	.cfi_offset 1, -4
	.cfi_offset 8, -8
	addi	s0,sp,32
	.cfi_def_cfa 8, 0
	sw	a0,-20(s0)
	.loc 4 232 14
	lw	a5,-20(s0)
	lbu	a4,24(a5)
	.loc 4 232 8
	li	a5,2
	bne	a4,a5,.L17
	.loc 4 233 28
	lw	a5,-20(s0)
	lw	a4,28(a5)
	.loc 4 232 40 discriminator 1
	li	a5,-1
	bne	a4,a5,.L18
.L17:
	.loc 4 234 16
	li	a5,-151
	j	.L19
.L18:
	.loc 4 236 23
	lw	a5,-20(s0)
	lw	a5,28(a5)
	.loc 4 236 42
	addi	a4,a5,1
	lw	a5,-20(s0)
	sw	a4,28(a5)
	.loc 4 238 12
	li	a5,0
.L19:
	.loc 4 239 1
	mv	a0,a5
	lw	ra,28(sp)
	.cfi_restore 1
	lw	s0,24(sp)
	.cfi_restore 8
	.cfi_def_cfa 2, 32
	addi	sp,sp,32
	.cfi_def_cfa_offset 0
	jr	ra
	.cfi_endproc
.LFE69:
	.size	psa_register_read, .-psa_register_read
	.section	.text.psa_key_lifetime_is_external,"ax",@progbits
	.align	1
	.type	psa_key_lifetime_is_external, @function
psa_key_lifetime_is_external:
.LFB70:
	.loc 4 301 1
	.cfi_startproc
	addi	sp,sp,-32
	.cfi_def_cfa_offset 32
	sw	ra,28(sp)
	sw	s0,24(sp)
	.cfi_offset 1, -4
	.cfi_offset 8, -8
	addi	s0,sp,32
	.cfi_def_cfa 8, 0
	sw	a0,-20(s0)
	.loc 4 302 46
	lw	a5,-20(s0)
	srli	a5,a5,8
	.loc 4 303 12
	snez	a5,a5
	andi	a5,a5,0xff
	.loc 4 304 1
	mv	a0,a5
	lw	ra,28(sp)
	.cfi_restore 1
	lw	s0,24(sp)
	.cfi_restore 8
	.cfi_def_cfa 2, 32
	addi	sp,sp,32
	.cfi_def_cfa_offset 0
	jr	ra
	.cfi_endproc
.LFE70:
	.size	psa_key_lifetime_is_external, .-psa_key_lifetime_is_external
	.section	.bss.global_data,"aw",@nobits
	.align	2
	.type	global_data, @object
	.size	global_data, 1284
global_data:
	.zero	1284
	.section	.text.psa_get_key_slots_initialized,"ax",@progbits
	.align	1
	.type	psa_get_key_slots_initialized, @function
psa_get_key_slots_initialized:
.LFB74:
	.file 5 "/home/chandu/sdk/bl602_iot_sdk/components/security/mbedtls-bl602/library/psa_crypto_slot_management.c"
	.loc 5 196 1
	.cfi_startproc
	addi	sp,sp,-32
	.cfi_def_cfa_offset 32
	sw	ra,28(sp)
	sw	s0,24(sp)
	.cfi_offset 1, -4
	.cfi_offset 8, -8
	addi	s0,sp,32
	.cfi_def_cfa 8, 0
	.loc 5 203 17
	lui	a5,%hi(global_data)
	addi	a5,a5,%lo(global_data)
	lbu	a5,1280(a5)
	sb	a5,-17(s0)
	.loc 5 209 12
	lbu	a5,-17(s0)
	.loc 5 210 1
	mv	a0,a5
	lw	ra,28(sp)
	.cfi_restore 1
	lw	s0,24(sp)
	.cfi_restore 8
	.cfi_def_cfa 2, 32
	addi	sp,sp,32
	.cfi_def_cfa_offset 0
	jr	ra
	.cfi_endproc
.LFE74:
	.size	psa_get_key_slots_initialized, .-psa_get_key_slots_initialized
	.section	.text.key_slice_length,"ax",@progbits
	.align	1
	.type	key_slice_length, @function
key_slice_length:
.LFB75:
	.loc 5 303 1
	.cfi_startproc
	addi	sp,sp,-32
	.cfi_def_cfa_offset 32
	sw	ra,28(sp)
	sw	s0,24(sp)
	.cfi_offset 1, -4
	.cfi_offset 8, -8
	addi	s0,sp,32
	.cfi_def_cfa 8, 0
	sw	a0,-20(s0)
	.loc 5 305 12
	li	a5,32
	.loc 5 306 1
	mv	a0,a5
	lw	ra,28(sp)
	.cfi_restore 1
	lw	s0,24(sp)
	.cfi_restore 8
	.cfi_def_cfa 2, 32
	addi	sp,sp,32
	.cfi_def_cfa_offset 0
	jr	ra
	.cfi_endproc
.LFE75:
	.size	key_slice_length, .-key_slice_length
	.section	.text.get_volatile_key_slot,"ax",@progbits
	.align	1
	.type	get_volatile_key_slot, @function
get_volatile_key_slot:
.LFB76:
	.loc 5 309 1
	.cfi_startproc
	addi	sp,sp,-32
	.cfi_def_cfa_offset 32
	sw	ra,28(sp)
	sw	s0,24(sp)
	.cfi_offset 1, -4
	.cfi_offset 8, -8
	addi	s0,sp,32
	.cfi_def_cfa 8, 0
	sw	a0,-20(s0)
	.loc 5 313 42
	lw	a4,-20(s0)
	li	a5,-1073741824
	add	a4,a4,a5
	.loc 5 313 12
	mv	a5,a4
	slli	a5,a5,2
	add	a5,a5,a4
	slli	a5,a5,3
	lui	a4,%hi(global_data)
	addi	a4,a4,%lo(global_data)
	add	a5,a5,a4
	.loc 5 314 1
	mv	a0,a5
	lw	ra,28(sp)
	.cfi_restore 1
	lw	s0,24(sp)
	.cfi_restore 8
	.cfi_def_cfa 2, 32
	addi	sp,sp,32
	.cfi_def_cfa_offset 0
	jr	ra
	.cfi_endproc
.LFE76:
	.size	get_volatile_key_slot, .-get_volatile_key_slot
	.section	.text.get_persistent_key_slot,"ax",@progbits
	.align	1
	.type	get_persistent_key_slot, @function
get_persistent_key_slot:
.LFB77:
	.loc 5 317 1
	.cfi_startproc
	addi	sp,sp,-32
	.cfi_def_cfa_offset 32
	sw	ra,28(sp)
	sw	s0,24(sp)
	.cfi_offset 1, -4
	.cfi_offset 8, -8
	addi	s0,sp,32
	.cfi_def_cfa 8, 0
	sw	a0,-20(s0)
	.loc 5 318 12
	lw	a4,-20(s0)
	mv	a5,a4
	slli	a5,a5,2
	add	a5,a5,a4
	slli	a5,a5,3
	lui	a4,%hi(global_data)
	addi	a4,a4,%lo(global_data)
	add	a5,a5,a4
	.loc 5 319 1
	mv	a0,a5
	lw	ra,28(sp)
	.cfi_restore 1
	lw	s0,24(sp)
	.cfi_restore 8
	.cfi_def_cfa 2, 32
	addi	sp,sp,32
	.cfi_def_cfa_offset 0
	jr	ra
	.cfi_endproc
.LFE77:
	.size	get_persistent_key_slot, .-get_persistent_key_slot
	.section	.text.get_key_slot,"ax",@progbits
	.align	1
	.type	get_key_slot, @function
get_key_slot:
.LFB78:
	.loc 5 322 1
	.cfi_startproc
	addi	sp,sp,-32
	.cfi_def_cfa_offset 32
	sw	ra,28(sp)
	sw	s0,24(sp)
	.cfi_offset 1, -4
	.cfi_offset 8, -8
	addi	s0,sp,32
	.cfi_def_cfa 8, 0
	sw	a0,-20(s0)
	sw	a1,-24(s0)
	.loc 5 324 12
	lw	a4,-24(s0)
	mv	a5,a4
	slli	a5,a5,2
	add	a5,a5,a4
	slli	a5,a5,3
	lui	a4,%hi(global_data)
	addi	a4,a4,%lo(global_data)
	add	a5,a5,a4
	.loc 5 325 1
	mv	a0,a5
	lw	ra,28(sp)
	.cfi_restore 1
	lw	s0,24(sp)
	.cfi_restore 8
	.cfi_def_cfa 2, 32
	addi	sp,sp,32
	.cfi_def_cfa_offset 0
	jr	ra
	.cfi_endproc
.LFE78:
	.size	get_key_slot, .-get_key_slot
	.section	.text.psa_is_valid_key_id,"ax",@progbits
	.align	1
	.globl	psa_is_valid_key_id
	.type	psa_is_valid_key_id, @function
psa_is_valid_key_id:
.LFB79:
	.loc 5 332 1
	.cfi_startproc
	addi	sp,sp,-48
	.cfi_def_cfa_offset 48
	sw	ra,44(sp)
	sw	s0,40(sp)
	.cfi_offset 1, -4
	.cfi_offset 8, -8
	addi	s0,sp,48
	.cfi_def_cfa 8, 0
	sw	a0,-36(s0)
	sw	a1,-40(s0)
	.loc 5 333 18
	lw	a5,-36(s0)
	sw	a5,-20(s0)
	.loc 5 335 8
	lw	a5,-20(s0)
	beq	a5,zero,.L33
	.loc 5 335 49 discriminator 1
	lw	a4,-20(s0)
	li	a5,1073741824
	bgeu	a4,a5,.L33
	.loc 5 337 16
	li	a5,1
	j	.L34
.L33:
	.loc 5 340 8
	lw	a5,-40(s0)
	beq	a5,zero,.L35
	.loc 5 340 19 discriminator 1
	lw	a4,-20(s0)
	li	a5,1073741824
	bltu	a4,a5,.L35
	.loc 5 342 17
	lw	a5,-20(s0)
	.loc 5 341 49
	blt	a5,zero,.L35
	.loc 5 343 16
	li	a5,1
	j	.L34
.L35:
	.loc 5 346 12
	li	a5,0
.L34:
	.loc 5 347 1
	mv	a0,a5
	lw	ra,44(sp)
	.cfi_restore 1
	lw	s0,40(sp)
	.cfi_restore 8
	.cfi_def_cfa 2, 48
	addi	sp,sp,48
	.cfi_def_cfa_offset 0
	jr	ra
	.cfi_endproc
.LFE79:
	.size	psa_is_valid_key_id, .-psa_is_valid_key_id
	.section	.text.psa_get_and_lock_key_slot_in_memory,"ax",@progbits
	.align	1
	.type	psa_get_and_lock_key_slot_in_memory, @function
psa_get_and_lock_key_slot_in_memory:
.LFB80:
	.loc 5 385 1
	.cfi_startproc
	addi	sp,sp,-48
	.cfi_def_cfa_offset 48
	sw	ra,44(sp)
	sw	s0,40(sp)
	.cfi_offset 1, -4
	.cfi_offset 8, -8
	addi	s0,sp,48
	.cfi_def_cfa 8, 0
	sw	a0,-36(s0)
	sw	a1,-40(s0)
	.loc 5 386 18
	li	a5,-151
	sw	a5,-20(s0)
	.loc 5 387 18
	lw	a5,-36(s0)
	sw	a5,-32(s0)
	.loc 5 389 21
	sw	zero,-28(s0)
	.loc 5 391 9
	lw	a0,-32(s0)
	call	psa_key_id_is_volatile
	mv	a5,a0
	.loc 5 391 8 discriminator 1
	beq	a5,zero,.L37
	.loc 5 392 16
	lw	a0,-32(s0)
	call	get_volatile_key_slot
	sw	a0,-28(s0)
	.loc 5 396 12
	lw	a5,-28(s0)
	beq	a5,zero,.L38
	.loc 5 397 17
	lw	a5,-28(s0)
	lbu	a4,24(a5)
	.loc 5 396 25 discriminator 1
	li	a5,2
	bne	a4,a5,.L38
	.loc 5 398 13
	lw	a5,-28(s0)
	lw	a5,20(a5)
	mv	a1,a5
	lw	a0,-36(s0)
	call	mbedtls_svc_key_id_equal
	mv	a5,a0
	.loc 5 397 42
	beq	a5,zero,.L38
	.loc 5 399 20
	sw	zero,-20(s0)
	j	.L40
.L38:
	.loc 5 401 20
	li	a5,-140
	sw	a5,-20(s0)
	j	.L40
.L37:
	.loc 5 404 14
	li	a1,1
	lw	a0,-36(s0)
	call	psa_is_valid_key_id
	mv	a5,a0
	.loc 5 404 12 discriminator 1
	bne	a5,zero,.L41
	.loc 5 405 20
	li	a5,-136
	j	.L42
.L41:
	.loc 5 408 23
	sw	zero,-24(s0)
	.loc 5 408 9
	j	.L43
.L46:
	.loc 5 409 20
	lw	a0,-24(s0)
	call	get_persistent_key_slot
	sw	a0,-28(s0)
	.loc 5 411 22
	lw	a5,-28(s0)
	lbu	a4,24(a5)
	.loc 5 411 16
	li	a5,2
	bne	a4,a5,.L44
	.loc 5 412 18
	lw	a5,-28(s0)
	lw	a5,20(a5)
	mv	a1,a5
	lw	a0,-36(s0)
	call	mbedtls_svc_key_id_equal
	mv	a5,a0
	.loc 5 411 48 discriminator 1
	bne	a5,zero,.L49
.L44:
	.loc 5 408 51 discriminator 2
	lw	a5,-24(s0)
	addi	a5,a5,1
	sw	a5,-24(s0)
.L43:
	.loc 5 408 37 discriminator 1
	lw	a4,-24(s0)
	li	a5,31
	bleu	a4,a5,.L46
	j	.L45
.L49:
	.loc 5 413 17
	nop
.L45:
	.loc 5 417 36
	lw	a4,-24(s0)
	li	a5,31
	bgtu	a4,a5,.L47
	.loc 5 416 16
	sw	zero,-20(s0)
	j	.L40
.L47:
	li	a5,-140
	sw	a5,-20(s0)
.L40:
	.loc 5 420 8
	lw	a5,-20(s0)
	bne	a5,zero,.L48
	.loc 5 421 18
	lw	a0,-28(s0)
	call	psa_register_read
	sw	a0,-20(s0)
	.loc 5 422 12
	lw	a5,-20(s0)
	bne	a5,zero,.L48
	.loc 5 423 21
	lw	a5,-40(s0)
	lw	a4,-28(s0)
	sw	a4,0(a5)
.L48:
	.loc 5 427 12
	lw	a5,-20(s0)
.L42:
	.loc 5 428 1
	mv	a0,a5
	lw	ra,44(sp)
	.cfi_restore 1
	lw	s0,40(sp)
	.cfi_restore 8
	.cfi_def_cfa 2, 48
	addi	sp,sp,48
	.cfi_def_cfa_offset 0
	jr	ra
	.cfi_endproc
.LFE80:
	.size	psa_get_and_lock_key_slot_in_memory, .-psa_get_and_lock_key_slot_in_memory
	.section	.text.psa_initialize_key_slots,"ax",@progbits
	.align	1
	.globl	psa_initialize_key_slots
	.type	psa_initialize_key_slots, @function
psa_initialize_key_slots:
.LFB81:
	.loc 5 431 1
	.cfi_startproc
	addi	sp,sp,-16
	.cfi_def_cfa_offset 16
	sw	ra,12(sp)
	sw	s0,8(sp)
	.cfi_offset 1, -4
	.cfi_offset 8, -8
	addi	s0,sp,16
	.cfi_def_cfa 8, 0
	.loc 5 447 39
	lui	a5,%hi(global_data)
	addi	a5,a5,%lo(global_data)
	li	a4,1
	sb	a4,1280(a5)
	.loc 5 448 12
	li	a5,0
	.loc 5 449 1
	mv	a0,a5
	lw	ra,12(sp)
	.cfi_restore 1
	lw	s0,8(sp)
	.cfi_restore 8
	.cfi_def_cfa 2, 16
	addi	sp,sp,16
	.cfi_def_cfa_offset 0
	jr	ra
	.cfi_endproc
.LFE81:
	.size	psa_initialize_key_slots, .-psa_initialize_key_slots
	.section	.text.psa_wipe_all_key_slots,"ax",@progbits
	.align	1
	.globl	psa_wipe_all_key_slots
	.type	psa_wipe_all_key_slots, @function
psa_wipe_all_key_slots:
.LFB82:
	.loc 5 452 1
	.cfi_startproc
	addi	sp,sp,-32
	.cfi_def_cfa_offset 32
	sw	ra,28(sp)
	sw	s0,24(sp)
	.cfi_offset 1, -4
	.cfi_offset 8, -8
	addi	s0,sp,32
	.cfi_def_cfa 8, 0
.LBB2:
	.loc 5 453 17
	sw	zero,-20(s0)
	.loc 5 453 5
	j	.L53
.L56:
.LBB3:
	.loc 5 459 21
	sw	zero,-24(s0)
	.loc 5 459 9
	j	.L54
.L55:
.LBB4:
	.loc 5 460 36
	lw	a1,-24(s0)
	lw	a0,-20(s0)
	call	get_key_slot
	sw	a0,-28(s0)
	.loc 5 479 51
	lw	a5,-28(s0)
	li	a4,1
	sw	a4,28(a5)
	.loc 5 480 25
	lw	a5,-28(s0)
	li	a4,3
	sb	a4,24(a5)
	.loc 5 481 20
	lw	a0,-28(s0)
	call	psa_wipe_key_slot
.LBE4:
	.loc 5 459 83 discriminator 4
	lw	a5,-24(s0)
	addi	a5,a5,1
	sw	a5,-24(s0)
.L54:
	.loc 5 459 46 discriminator 1
	lw	a0,-20(s0)
	call	key_slice_length
	mv	a4,a0
	.loc 5 459 44 discriminator 3
	lw	a5,-24(s0)
	bltu	a5,a4,.L55
.LBE3:
	.loc 5 453 57 discriminator 2
	lw	a5,-20(s0)
	addi	a5,a5,1
	sw	a5,-20(s0)
.L53:
	.loc 5 453 42 discriminator 1
	lw	a5,-20(s0)
	beq	a5,zero,.L56
.LBE2:
	.loc 5 496 39
	lui	a5,%hi(global_data)
	addi	a5,a5,%lo(global_data)
	sb	zero,1280(a5)
	.loc 5 497 1
	nop
	lw	ra,28(sp)
	.cfi_restore 1
	lw	s0,24(sp)
	.cfi_restore 8
	.cfi_def_cfa 2, 32
	addi	sp,sp,32
	.cfi_def_cfa_offset 0
	jr	ra
	.cfi_endproc
.LFE82:
	.size	psa_wipe_all_key_slots, .-psa_wipe_all_key_slots
	.section	.text.psa_reserve_free_key_slot,"ax",@progbits
	.align	1
	.globl	psa_reserve_free_key_slot
	.type	psa_reserve_free_key_slot, @function
psa_reserve_free_key_slot:
.LFB83:
	.loc 5 597 1
	.cfi_startproc
	addi	sp,sp,-64
	.cfi_def_cfa_offset 64
	sw	ra,60(sp)
	sw	s0,56(sp)
	.cfi_offset 1, -4
	.cfi_offset 8, -8
	addi	s0,sp,64
	.cfi_def_cfa 8, 0
	sw	a0,-52(s0)
	sw	a1,-56(s0)
	.loc 5 598 18
	li	a5,-151
	sw	a5,-20(s0)
	.loc 5 602 10
	call	psa_get_key_slots_initialized
	mv	a5,a0
	.loc 5 602 8 discriminator 1
	bne	a5,zero,.L58
	.loc 5 603 16
	li	a5,-137
	sw	a5,-20(s0)
	.loc 5 604 9
	j	.L59
.L58:
	.loc 5 617 48
	sw	zero,-32(s0)
	.loc 5 617 19
	lw	a5,-32(s0)
	sw	a5,-28(s0)
	.loc 5 618 19
	sw	zero,-24(s0)
	.loc 5 618 5
	j	.L60
.L64:
.LBB5:
	.loc 5 619 32
	lw	a1,-24(s0)
	li	a0,0
	call	get_key_slot
	sw	a0,-36(s0)
	.loc 5 620 17
	lw	a5,-36(s0)
	lbu	a5,24(a5)
	.loc 5 620 12
	bne	a5,zero,.L61
	.loc 5 621 27
	lw	a5,-36(s0)
	sw	a5,-28(s0)
	.loc 5 622 13
	j	.L62
.L61:
	.loc 5 625 12
	lw	a5,-32(s0)
	bne	a5,zero,.L63
	.loc 5 626 18
	lw	a5,-36(s0)
	lbu	a4,24(a5)
	.loc 5 625 49 discriminator 1
	li	a5,2
	bne	a4,a5,.L63
	.loc 5 627 15
	lw	a0,-36(s0)
	call	psa_key_slot_has_readers
	mv	a5,a0
	.loc 5 626 44
	bne	a5,zero,.L63
	.loc 5 628 53
	lw	a5,-36(s0)
	lw	a5,4(a5)
	.loc 5 628 17
	andi	a5,a5,0xff
	.loc 5 627 47
	beq	a5,zero,.L63
	.loc 5 629 40
	lw	a5,-36(s0)
	sw	a5,-32(s0)
.L63:
.LBE5:
	.loc 5 618 47 discriminator 2
	lw	a5,-24(s0)
	addi	a5,a5,1
	sw	a5,-24(s0)
.L60:
	.loc 5 618 33 discriminator 1
	lw	a4,-24(s0)
	li	a5,31
	bleu	a4,a5,.L64
.L62:
	.loc 5 640 8
	lw	a5,-28(s0)
	bne	a5,zero,.L65
	.loc 5 640 32 discriminator 1
	lw	a5,-32(s0)
	beq	a5,zero,.L65
	.loc 5 642 23
	lw	a5,-32(s0)
	sw	a5,-28(s0)
	.loc 5 643 9
	lw	a0,-28(s0)
	call	psa_register_read
	.loc 5 644 18
	lw	a0,-28(s0)
	call	psa_wipe_key_slot
	sw	a0,-20(s0)
	.loc 5 645 12
	lw	a5,-20(s0)
	bne	a5,zero,.L70
.L65:
	.loc 5 650 8
	lw	a5,-28(s0)
	beq	a5,zero,.L66
	.loc 5 651 18
	li	a2,1
	li	a1,0
	lw	a0,-28(s0)
	call	psa_key_slot_state_transition
	sw	a0,-20(s0)
	.loc 5 653 12
	lw	a5,-20(s0)
	bne	a5,zero,.L71
	.loc 5 662 12
	lw	a5,-52(s0)
	beq	a5,zero,.L68
	.loc 5 665 38
	lw	a4,-28(s0)
	lui	a5,%hi(global_data)
	addi	a5,a5,%lo(global_data)
	sub	a5,a4,a5
	srai	a4,a5,3
	li	a5,-858992640
	addi	a5,a5,-819
	mul	a5,a4,a5
	.loc 5 665 22
	sw	a5,-24(s0)
	.loc 5 666 60
	lw	a4,-24(s0)
	li	a5,1073741824
	add	a4,a4,a5
	.loc 5 666 30
	lw	a5,-52(s0)
	sw	a4,0(a5)
.L68:
	.loc 5 669 17
	lw	a5,-56(s0)
	lw	a4,-28(s0)
	sw	a4,0(a5)
	.loc 5 671 16
	li	a5,0
	j	.L69
.L66:
	.loc 5 673 12
	li	a5,-141
	sw	a5,-20(s0)
	j	.L59
.L70:
	.loc 5 646 13
	nop
	j	.L59
.L71:
	.loc 5 654 13
	nop
.L59:
	.loc 5 676 13
	lw	a5,-56(s0)
	sw	zero,0(a5)
	.loc 5 678 12
	lw	a5,-20(s0)
.L69:
	.loc 5 679 1
	mv	a0,a5
	lw	ra,60(sp)
	.cfi_restore 1
	lw	s0,56(sp)
	.cfi_restore 8
	.cfi_def_cfa 2, 64
	addi	sp,sp,64
	.cfi_def_cfa_offset 0
	jr	ra
	.cfi_endproc
.LFE83:
	.size	psa_reserve_free_key_slot, .-psa_reserve_free_key_slot
	.section	.text.psa_get_and_lock_key_slot,"ax",@progbits
	.align	1
	.globl	psa_get_and_lock_key_slot
	.type	psa_get_and_lock_key_slot, @function
psa_get_and_lock_key_slot:
.LFB84:
	.loc 5 800 1
	.cfi_startproc
	addi	sp,sp,-48
	.cfi_def_cfa_offset 48
	sw	ra,44(sp)
	sw	s0,40(sp)
	.cfi_offset 1, -4
	.cfi_offset 8, -8
	addi	s0,sp,48
	.cfi_def_cfa 8, 0
	sw	a0,-36(s0)
	sw	a1,-40(s0)
	.loc 5 801 18
	li	a5,-151
	sw	a5,-20(s0)
	.loc 5 803 13
	lw	a5,-40(s0)
	sw	zero,0(a5)
	.loc 5 804 10
	call	psa_get_key_slots_initialized
	mv	a5,a0
	.loc 5 804 8 discriminator 1
	bne	a5,zero,.L73
	.loc 5 805 16
	li	a5,-137
	j	.L74
.L73:
	.loc 5 823 14
	lw	a1,-40(s0)
	lw	a0,-36(s0)
	call	psa_get_and_lock_key_slot_in_memory
	sw	a0,-20(s0)
	.loc 5 824 8
	lw	a4,-20(s0)
	li	a5,-140
	beq	a4,a5,.L75
	.loc 5 829 16
	lw	a5,-20(s0)
	j	.L74
.L75:
	.loc 5 878 12
	li	a5,-136
	sw	a5,-20(s0)
	.loc 5 881 8
	lw	a5,-20(s0)
	beq	a5,zero,.L76
	.loc 5 882 17
	lw	a5,-40(s0)
	sw	zero,0(a5)
.L76:
	.loc 5 888 12
	lw	a5,-20(s0)
.L74:
	.loc 5 889 1
	mv	a0,a5
	lw	ra,44(sp)
	.cfi_restore 1
	lw	s0,40(sp)
	.cfi_restore 8
	.cfi_def_cfa 2, 48
	addi	sp,sp,48
	.cfi_def_cfa_offset 0
	jr	ra
	.cfi_endproc
.LFE84:
	.size	psa_get_and_lock_key_slot, .-psa_get_and_lock_key_slot
	.section	.text.psa_unregister_read,"ax",@progbits
	.align	1
	.globl	psa_unregister_read
	.type	psa_unregister_read, @function
psa_unregister_read:
.LFB85:
	.loc 5 892 1
	.cfi_startproc
	addi	sp,sp,-32
	.cfi_def_cfa_offset 32
	sw	ra,28(sp)
	sw	s0,24(sp)
	.cfi_offset 1, -4
	.cfi_offset 8, -8
	addi	s0,sp,32
	.cfi_def_cfa 8, 0
	sw	a0,-20(s0)
	.loc 5 893 8
	lw	a5,-20(s0)
	bne	a5,zero,.L78
	.loc 5 894 16
	li	a5,0
	j	.L79
.L78:
	.loc 5 896 14
	lw	a5,-20(s0)
	lbu	a4,24(a5)
	.loc 5 896 8
	li	a5,2
	beq	a4,a5,.L80
	.loc 5 897 14
	lw	a5,-20(s0)
	lbu	a4,24(a5)
	.loc 5 896 40 discriminator 1
	li	a5,3
	beq	a4,a5,.L80
	.loc 5 898 16
	li	a5,-151
	j	.L79
.L80:
	.loc 5 903 14
	lw	a5,-20(s0)
	lbu	a4,24(a5)
	.loc 5 903 8
	li	a5,3
	bne	a4,a5,.L81
	.loc 5 904 28
	lw	a5,-20(s0)
	lw	a4,28(a5)
	.loc 5 903 52 discriminator 1
	li	a5,1
	bne	a4,a5,.L81
	.loc 5 905 16
	lw	a0,-20(s0)
	call	psa_wipe_key_slot
	mv	a5,a0
	j	.L79
.L81:
	.loc 5 908 9
	lw	a0,-20(s0)
	call	psa_key_slot_has_readers
	mv	a5,a0
	.loc 5 908 8 discriminator 1
	beq	a5,zero,.L82
	.loc 5 909 27
	lw	a5,-20(s0)
	lw	a5,28(a5)
	.loc 5 909 46
	addi	a4,a5,-1
	lw	a5,-20(s0)
	sw	a4,28(a5)
	.loc 5 910 16
	li	a5,0
	j	.L79
.L82:
	.loc 5 922 12
	li	a5,-151
.L79:
	.loc 5 923 1
	mv	a0,a5
	lw	ra,28(sp)
	.cfi_restore 1
	lw	s0,24(sp)
	.cfi_restore 8
	.cfi_def_cfa 2, 32
	addi	sp,sp,32
	.cfi_def_cfa_offset 0
	jr	ra
	.cfi_endproc
.LFE85:
	.size	psa_unregister_read, .-psa_unregister_read
	.section	.text.psa_unregister_read_under_mutex,"ax",@progbits
	.align	1
	.globl	psa_unregister_read_under_mutex
	.type	psa_unregister_read_under_mutex, @function
psa_unregister_read_under_mutex:
.LFB86:
	.loc 5 926 1
	.cfi_startproc
	addi	sp,sp,-48
	.cfi_def_cfa_offset 48
	sw	ra,44(sp)
	sw	s0,40(sp)
	.cfi_offset 1, -4
	.cfi_offset 8, -8
	addi	s0,sp,48
	.cfi_def_cfa 8, 0
	sw	a0,-36(s0)
	.loc 5 927 18
	li	a5,-151
	sw	a5,-20(s0)
	.loc 5 935 14
	lw	a0,-36(s0)
	call	psa_unregister_read
	sw	a0,-20(s0)
	.loc 5 940 12
	lw	a5,-20(s0)
	.loc 5 941 1
	mv	a0,a5
	lw	ra,44(sp)
	.cfi_restore 1
	lw	s0,40(sp)
	.cfi_restore 8
	.cfi_def_cfa 2, 48
	addi	sp,sp,48
	.cfi_def_cfa_offset 0
	jr	ra
	.cfi_endproc
.LFE86:
	.size	psa_unregister_read_under_mutex, .-psa_unregister_read_under_mutex
	.section	.text.psa_validate_key_location,"ax",@progbits
	.align	1
	.globl	psa_validate_key_location
	.type	psa_validate_key_location, @function
psa_validate_key_location:
.LFB87:
	.loc 5 945 1
	.cfi_startproc
	addi	sp,sp,-32
	.cfi_def_cfa_offset 32
	sw	ra,28(sp)
	sw	s0,24(sp)
	.cfi_offset 1, -4
	.cfi_offset 8, -8
	addi	s0,sp,32
	.cfi_def_cfa 8, 0
	sw	a0,-20(s0)
	sw	a1,-24(s0)
	.loc 5 946 9
	lw	a0,-20(s0)
	call	psa_key_lifetime_is_external
	mv	a5,a0
	.loc 5 946 8 discriminator 1
	beq	a5,zero,.L86
	.loc 5 961 16
	li	a5,0
	j	.L87
.L86:
	.loc 5 964 16
	li	a5,0
.L87:
	.loc 5 966 1
	mv	a0,a5
	lw	ra,28(sp)
	.cfi_restore 1
	lw	s0,24(sp)
	.cfi_restore 8
	.cfi_def_cfa 2, 32
	addi	sp,sp,32
	.cfi_def_cfa_offset 0
	jr	ra
	.cfi_endproc
.LFE87:
	.size	psa_validate_key_location, .-psa_validate_key_location
	.section	.text.psa_validate_key_persistence,"ax",@progbits
	.align	1
	.globl	psa_validate_key_persistence
	.type	psa_validate_key_persistence, @function
psa_validate_key_persistence:
.LFB88:
	.loc 5 969 1
	.cfi_startproc
	addi	sp,sp,-32
	.cfi_def_cfa_offset 32
	sw	ra,28(sp)
	sw	s0,24(sp)
	.cfi_offset 1, -4
	.cfi_offset 8, -8
	addi	s0,sp,32
	.cfi_def_cfa 8, 0
	sw	a0,-20(s0)
	.loc 5 970 11
	lw	a5,-20(s0)
	andi	a5,a5,0xff
	.loc 5 970 8
	bne	a5,zero,.L89
	.loc 5 972 16
	li	a5,0
	j	.L90
.L89:
	.loc 5 982 16
	li	a5,-134
.L90:
	.loc 5 985 1
	mv	a0,a5
	lw	ra,28(sp)
	.cfi_restore 1
	lw	s0,24(sp)
	.cfi_restore 8
	.cfi_def_cfa 2, 32
	addi	sp,sp,32
	.cfi_def_cfa_offset 0
	jr	ra
	.cfi_endproc
.LFE88:
	.size	psa_validate_key_persistence, .-psa_validate_key_persistence
	.section	.text.psa_open_key,"ax",@progbits
	.align	1
	.globl	psa_open_key
	.type	psa_open_key, @function
psa_open_key:
.LFB89:
	.loc 5 988 1
	.cfi_startproc
	addi	sp,sp,-32
	.cfi_def_cfa_offset 32
	sw	ra,28(sp)
	sw	s0,24(sp)
	.cfi_offset 1, -4
	.cfi_offset 8, -8
	addi	s0,sp,32
	.cfi_def_cfa 8, 0
	sw	a0,-20(s0)
	sw	a1,-24(s0)
	.loc 5 1010 13
	lw	a5,-24(s0)
	sw	zero,0(a5)
	.loc 5 1011 12
	li	a5,-134
	.loc 5 1013 1
	mv	a0,a5
	lw	ra,28(sp)
	.cfi_restore 1
	lw	s0,24(sp)
	.cfi_restore 8
	.cfi_def_cfa 2, 32
	addi	sp,sp,32
	.cfi_def_cfa_offset 0
	jr	ra
	.cfi_endproc
.LFE89:
	.size	psa_open_key, .-psa_open_key
	.section	.text.psa_close_key,"ax",@progbits
	.align	1
	.globl	psa_close_key
	.type	psa_close_key, @function
psa_close_key:
.LFB90:
	.loc 5 1016 1
	.cfi_startproc
	addi	sp,sp,-48
	.cfi_def_cfa_offset 48
	sw	ra,44(sp)
	sw	s0,40(sp)
	.cfi_offset 1, -4
	.cfi_offset 8, -8
	addi	s0,sp,48
	.cfi_def_cfa 8, 0
	sw	a0,-36(s0)
	.loc 5 1017 18
	li	a5,-151
	sw	a5,-20(s0)
	.loc 5 1020 9
	lw	a0,-36(s0)
	call	psa_key_handle_is_null
	mv	a5,a0
	.loc 5 1020 8 discriminator 1
	beq	a5,zero,.L94
	.loc 5 1021 16
	li	a5,0
	j	.L100
.L94:
	.loc 5 1031 14
	addi	a5,s0,-24
	mv	a1,a5
	lw	a0,-36(s0)
	call	psa_get_and_lock_key_slot_in_memory
	sw	a0,-20(s0)
	.loc 5 1032 8
	lw	a5,-20(s0)
	beq	a5,zero,.L96
	.loc 5 1033 12
	lw	a4,-20(s0)
	li	a5,-140
	bne	a4,a5,.L97
	.loc 5 1034 20
	li	a5,-136
	sw	a5,-20(s0)
.L97:
	.loc 5 1040 16
	lw	a5,-20(s0)
	j	.L100
.L96:
	.loc 5 1043 13
	lw	a5,-24(s0)
	.loc 5 1043 27
	lw	a4,28(a5)
	.loc 5 1043 8
	li	a5,1
	bne	a4,a5,.L98
	.loc 5 1044 18
	lw	a5,-24(s0)
	mv	a0,a5
	call	psa_wipe_key_slot
	sw	a0,-20(s0)
	j	.L99
.L98:
	.loc 5 1046 18
	lw	a5,-24(s0)
	mv	a0,a5
	call	psa_unregister_read
	sw	a0,-20(s0)
.L99:
	.loc 5 1053 12
	lw	a5,-20(s0)
.L100:
	.loc 5 1054 1
	mv	a0,a5
	lw	ra,44(sp)
	.cfi_restore 1
	lw	s0,40(sp)
	.cfi_restore 8
	.cfi_def_cfa 2, 48
	addi	sp,sp,48
	.cfi_def_cfa_offset 0
	jr	ra
	.cfi_endproc
.LFE90:
	.size	psa_close_key, .-psa_close_key
	.section	.text.psa_purge_key,"ax",@progbits
	.align	1
	.globl	psa_purge_key
	.type	psa_purge_key, @function
psa_purge_key:
.LFB91:
	.loc 5 1057 1
	.cfi_startproc
	addi	sp,sp,-48
	.cfi_def_cfa_offset 48
	sw	ra,44(sp)
	sw	s0,40(sp)
	.cfi_offset 1, -4
	.cfi_offset 8, -8
	addi	s0,sp,48
	.cfi_def_cfa 8, 0
	sw	a0,-36(s0)
	.loc 5 1058 18
	li	a5,-151
	sw	a5,-20(s0)
	.loc 5 1068 14
	addi	a5,s0,-24
	mv	a1,a5
	lw	a0,-36(s0)
	call	psa_get_and_lock_key_slot_in_memory
	sw	a0,-20(s0)
	.loc 5 1069 8
	lw	a5,-20(s0)
	beq	a5,zero,.L102
	.loc 5 1074 16
	lw	a5,-20(s0)
	j	.L106
.L102:
	.loc 5 1077 43
	lw	a5,-24(s0)
	.loc 5 1077 49
	lw	a5,4(a5)
	.loc 5 1077 13
	andi	a5,a5,0xff
	.loc 5 1077 8
	beq	a5,zero,.L104
	.loc 5 1078 14
	lw	a5,-24(s0)
	.loc 5 1078 28
	lw	a4,28(a5)
	.loc 5 1077 111 discriminator 1
	li	a5,1
	bne	a4,a5,.L104
	.loc 5 1079 18
	lw	a5,-24(s0)
	mv	a0,a5
	call	psa_wipe_key_slot
	sw	a0,-20(s0)
	.loc 5 1079 16
	j	.L105
.L104:
	.loc 5 1081 18
	lw	a5,-24(s0)
	mv	a0,a5
	call	psa_unregister_read
	sw	a0,-20(s0)
.L105:
	.loc 5 1088 12
	lw	a5,-20(s0)
.L106:
	.loc 5 1089 1
	mv	a0,a5
	lw	ra,44(sp)
	.cfi_restore 1
	lw	s0,40(sp)
	.cfi_restore 8
	.cfi_def_cfa 2, 48
	addi	sp,sp,48
	.cfi_def_cfa_offset 0
	jr	ra
	.cfi_endproc
.LFE91:
	.size	psa_purge_key, .-psa_purge_key
	.section	.text.mbedtls_psa_get_stats,"ax",@progbits
	.align	1
	.globl	mbedtls_psa_get_stats
	.type	mbedtls_psa_get_stats, @function
mbedtls_psa_get_stats:
.LFB92:
	.loc 5 1092 1
	.cfi_startproc
	addi	sp,sp,-64
	.cfi_def_cfa_offset 64
	sw	ra,60(sp)
	sw	s0,56(sp)
	.cfi_offset 1, -4
	.cfi_offset 8, -8
	addi	s0,sp,64
	.cfi_def_cfa 8, 0
	sw	a0,-52(s0)
	.loc 5 1093 5
	li	a2,36
	li	a1,0
	lw	a0,-52(s0)
	call	memset
.LBB6:
	.loc 5 1095 17
	sw	zero,-20(s0)
	.loc 5 1095 5
	j	.L108
.L116:
.LBB7:
	.loc 5 1101 21
	sw	zero,-24(s0)
	.loc 5 1101 9
	j	.L109
.L115:
.LBB8:
	.loc 5 1102 42
	lw	a1,-24(s0)
	lw	a0,-20(s0)
	call	get_key_slot
	sw	a0,-28(s0)
	.loc 5 1103 21
	lw	a5,-28(s0)
	lbu	a5,24(a5)
	.loc 5 1103 16
	bne	a5,zero,.L110
	.loc 5 1104 24
	lw	a5,-52(s0)
	lw	a5,20(a5)
	.loc 5 1104 17
	addi	a4,a5,1
	lw	a5,-52(s0)
	sw	a4,20(a5)
	.loc 5 1105 17
	j	.L111
.L110:
	.loc 5 1107 17
	lw	a0,-28(s0)
	call	psa_key_slot_has_readers
	mv	a5,a0
	.loc 5 1107 16 discriminator 1
	beq	a5,zero,.L112
	.loc 5 1108 24
	lw	a5,-52(s0)
	lw	a5,24(a5)
	.loc 5 1108 17
	addi	a4,a5,1
	lw	a5,-52(s0)
	sw	a4,24(a5)
.L112:
	.loc 5 1110 55
	lw	a5,-28(s0)
	lw	a5,4(a5)
	.loc 5 1110 19
	andi	a5,a5,0xff
	.loc 5 1110 16
	bne	a5,zero,.L113
	.loc 5 1111 24
	lw	a5,-52(s0)
	lw	a5,0(a5)
	.loc 5 1111 17
	addi	a4,a5,1
	lw	a5,-52(s0)
	sw	a4,0(a5)
	j	.L114
.L113:
.LBB9:
	.loc 5 1113 30
	lw	a5,-28(s0)
	lw	a5,20(a5)
	sw	a5,-32(s0)
	.loc 5 1114 24
	lw	a5,-52(s0)
	lw	a5,4(a5)
	.loc 5 1114 17
	addi	a4,a5,1
	lw	a5,-52(s0)
	sw	a4,4(a5)
	.loc 5 1115 31
	lw	a5,-52(s0)
	lw	a5,28(a5)
	.loc 5 1115 20
	lw	a4,-32(s0)
	bleu	a4,a5,.L114
	.loc 5 1116 53
	lw	a5,-52(s0)
	lw	a4,-32(s0)
	sw	a4,28(a5)
.L114:
.LBE9:
	.loc 5 1119 51
	lw	a5,-28(s0)
	lw	a5,4(a5)
	.loc 5 1119 62
	srli	a5,a5,8
	.loc 5 1119 16
	beq	a5,zero,.L111
.LBB10:
	.loc 5 1121 30
	lw	a5,-28(s0)
	lw	a5,20(a5)
	sw	a5,-36(s0)
	.loc 5 1122 24
	lw	a5,-52(s0)
	lw	a5,8(a5)
	.loc 5 1122 17
	addi	a4,a5,1
	lw	a5,-52(s0)
	sw	a4,8(a5)
	.loc 5 1123 31
	lw	a5,-52(s0)
	lw	a5,32(a5)
	.loc 5 1123 20
	lw	a4,-36(s0)
	bleu	a4,a5,.L111
	.loc 5 1124 53
	lw	a5,-52(s0)
	lw	a4,-36(s0)
	sw	a4,32(a5)
.L111:
.LBE10:
.LBE8:
	.loc 5 1101 83 discriminator 2
	lw	a5,-24(s0)
	addi	a5,a5,1
	sw	a5,-24(s0)
.L109:
	.loc 5 1101 46 discriminator 1
	lw	a0,-20(s0)
	call	key_slice_length
	mv	a4,a0
	.loc 5 1101 44 discriminator 3
	lw	a5,-24(s0)
	bltu	a5,a4,.L115
.LBE7:
	.loc 5 1095 57 discriminator 2
	lw	a5,-20(s0)
	addi	a5,a5,1
	sw	a5,-20(s0)
.L108:
	.loc 5 1095 42 discriminator 1
	lw	a5,-20(s0)
	beq	a5,zero,.L116
.LBE6:
	.loc 5 1129 1
	nop
	nop
	lw	ra,60(sp)
	.cfi_restore 1
	lw	s0,56(sp)
	.cfi_restore 8
	.cfi_def_cfa 2, 64
	addi	sp,sp,64
	.cfi_def_cfa_offset 0
	jr	ra
	.cfi_endproc
.LFE92:
	.size	mbedtls_psa_get_stats, .-mbedtls_psa_get_stats
	.text
.Letext0:
	.file 6 "/home/chandu/sdk/bl602_iot_sdk/toolchain/compiler/lib/gcc/riscv32-unknown-elf/15.1.0/include/stddef.h"
	.file 7 "/home/chandu/sdk/bl602_iot_sdk/toolchain/compiler/lib/gcc/riscv32-unknown-elf/15.1.0/include/stdint-gcc.h"
	.file 8 "/home/chandu/sdk/bl602_iot_sdk/components/security/mbedtls-bl602/include/psa/crypto_types.h"
	.file 9 "/home/chandu/sdk/bl602_iot_sdk/components/security/mbedtls-bl602/include/psa/crypto_struct.h"
	.file 10 "/home/chandu/sdk/bl602_iot_sdk/components/security/mbedtls-bl602/include/psa/crypto_extra.h"
	.file 11 "/home/chandu/sdk/bl602_iot_sdk/components/security/mbedtls-bl602/library/psa_crypto_se.h"
	.file 12 "/home/chandu/sdk/bl602_iot_sdk/toolchain/compiler/riscv32-unknown-elf/include/string.h"
	.section	.note.GNU-stack,"",@progbits
