	.file	"psa_crypto_ffdh.c"
	.option nopic
	.attribute arch, "rv32i2p1_m2p0_f2p2_c2p0_zicsr2p0_zmmul1p0_zca1p0_zcf1p0"
	.attribute unaligned_access, 0
	.attribute stack_align, 16
	.text
.Ltext0:
	.cfi_sections	.debug_frame
	.file 0 "/home/chandu/sdk/bl602_iot_sdk/customer_app/suas_app_pqkem_gateway/build_out/mbedtls-bl602" "/home/chandu/sdk/bl602_iot_sdk/components/security/mbedtls-bl602/library/psa_crypto_ffdh.c"
	.section	.text.psa_get_key_type,"ax",@progbits
	.align	1
	.type	psa_get_key_type, @function
psa_get_key_type:
.LFB48:
	.file 1 "/home/chandu/sdk/bl602_iot_sdk/components/security/mbedtls-bl602/include/psa/crypto_struct.h"
	.loc 1 427 1
	.cfi_startproc
	addi	sp,sp,-32
	.cfi_def_cfa_offset 32
	sw	ra,28(sp)
	sw	s0,24(sp)
	.cfi_offset 1, -4
	.cfi_offset 8, -8
	addi	s0,sp,32
	.cfi_def_cfa 8, 0
	sw	a0,-20(s0)
	.loc 1 428 22
	lw	a5,-20(s0)
	lhu	a5,0(a5)
	.loc 1 429 1
	mv	a0,a5
	lw	ra,28(sp)
	.cfi_restore 1
	lw	s0,24(sp)
	.cfi_restore 8
	.cfi_def_cfa 2, 32
	addi	sp,sp,32
	.cfi_def_cfa_offset 0
	jr	ra
	.cfi_endproc
.LFE48:
	.size	psa_get_key_type, .-psa_get_key_type
	.section	.text.mbedtls_psa_ffdh_set_prime_generator,"ax",@progbits
	.align	1
	.type	mbedtls_psa_ffdh_set_prime_generator, @function
mbedtls_psa_ffdh_set_prime_generator:
.LFB76:
	.file 2 "/home/chandu/sdk/bl602_iot_sdk/components/security/mbedtls-bl602/library/psa_crypto_ffdh.c"
	.loc 2 33 1
	.cfi_startproc
	addi	sp,sp,-64
	.cfi_def_cfa_offset 64
	sw	ra,60(sp)
	sw	s0,56(sp)
	.cfi_offset 1, -4
	.cfi_offset 8, -8
	addi	s0,sp,64
	.cfi_def_cfa 8, 0
	sw	a0,-52(s0)
	sw	a1,-56(s0)
	sw	a2,-60(s0)
	.loc 2 34 26
	sw	zero,-20(s0)
	.loc 2 35 26
	sw	zero,-24(s0)
	.loc 2 36 12
	sw	zero,-28(s0)
	.loc 2 37 12
	sw	zero,-32(s0)
	.loc 2 38 9
	li	a5,-110
	sw	a5,-36(s0)
	.loc 2 40 8
	lw	a5,-56(s0)
	bne	a5,zero,.L4
	.loc 2 40 18 discriminator 1
	lw	a5,-60(s0)
	bne	a5,zero,.L4
	.loc 2 41 16
	li	a5,-135
	j	.L5
.L4:
	.loc 2 75 5
	lw	a4,-52(s0)
	li	a5,1024
	beq	a4,a5,.L6
	lw	a4,-52(s0)
	li	a5,1024
	bgtu	a4,a5,.L7
	lw	a4,-52(s0)
	li	a5,768
	beq	a4,a5,.L8
	lw	a4,-52(s0)
	li	a5,768
	bgtu	a4,a5,.L7
	lw	a4,-52(s0)
	li	a5,512
	beq	a4,a5,.L9
	lw	a4,-52(s0)
	li	a5,512
	bgtu	a4,a5,.L7
	lw	a4,-52(s0)
	li	a5,256
	beq	a4,a5,.L10
	lw	a4,-52(s0)
	li	a5,384
	beq	a4,a5,.L11
	j	.L7
.L10:
	.loc 2 78 19
	lui	a5,%hi(dhm_P_2048.9)
	addi	a5,a5,%lo(dhm_P_2048.9)
	sw	a5,-20(s0)
	.loc 2 79 19
	lui	a5,%hi(dhm_G_2048.8)
	addi	a5,a5,%lo(dhm_G_2048.8)
	sw	a5,-24(s0)
	.loc 2 80 24
	li	a5,256
	sw	a5,-28(s0)
	.loc 2 81 24
	li	a5,1
	sw	a5,-32(s0)
	.loc 2 82 13
	j	.L12
.L11:
	.loc 2 86 19
	lui	a5,%hi(dhm_P_3072.7)
	addi	a5,a5,%lo(dhm_P_3072.7)
	sw	a5,-20(s0)
	.loc 2 87 19
	lui	a5,%hi(dhm_G_3072.6)
	addi	a5,a5,%lo(dhm_G_3072.6)
	sw	a5,-24(s0)
	.loc 2 88 24
	li	a5,384
	sw	a5,-28(s0)
	.loc 2 89 24
	li	a5,1
	sw	a5,-32(s0)
	.loc 2 90 13
	j	.L12
.L9:
	.loc 2 94 19
	lui	a5,%hi(dhm_P_4096.5)
	addi	a5,a5,%lo(dhm_P_4096.5)
	sw	a5,-20(s0)
	.loc 2 95 19
	lui	a5,%hi(dhm_G_4096.4)
	addi	a5,a5,%lo(dhm_G_4096.4)
	sw	a5,-24(s0)
	.loc 2 96 24
	li	a5,512
	sw	a5,-28(s0)
	.loc 2 97 24
	li	a5,1
	sw	a5,-32(s0)
	.loc 2 98 13
	j	.L12
.L8:
	.loc 2 102 19
	lui	a5,%hi(dhm_P_6144.3)
	addi	a5,a5,%lo(dhm_P_6144.3)
	sw	a5,-20(s0)
	.loc 2 103 19
	lui	a5,%hi(dhm_G_6144.2)
	addi	a5,a5,%lo(dhm_G_6144.2)
	sw	a5,-24(s0)
	.loc 2 104 24
	li	a5,768
	sw	a5,-28(s0)
	.loc 2 105 24
	li	a5,1
	sw	a5,-32(s0)
	.loc 2 106 13
	j	.L12
.L6:
	.loc 2 110 19
	lui	a5,%hi(dhm_P_8192.1)
	addi	a5,a5,%lo(dhm_P_8192.1)
	sw	a5,-20(s0)
	.loc 2 111 19
	lui	a5,%hi(dhm_G_8192.0)
	addi	a5,a5,%lo(dhm_G_8192.0)
	sw	a5,-24(s0)
	.loc 2 112 24
	li	a5,1024
	sw	a5,-28(s0)
	.loc 2 113 24
	li	a5,1
	sw	a5,-32(s0)
	.loc 2 114 13
	j	.L12
.L7:
	.loc 2 117 20
	li	a5,-135
	j	.L5
.L12:
	.loc 2 120 8
	lw	a5,-56(s0)
	beq	a5,zero,.L13
	.loc 2 121 26
	lw	a2,-28(s0)
	lw	a1,-20(s0)
	lw	a0,-56(s0)
	call	mbedtls_mpi_read_binary
	sw	a0,-36(s0)
	.loc 2 121 17 discriminator 1
	lw	a5,-36(s0)
	bne	a5,zero,.L16
.L13:
	.loc 2 124 8
	lw	a5,-60(s0)
	beq	a5,zero,.L17
	.loc 2 125 26
	lw	a2,-32(s0)
	lw	a1,-24(s0)
	lw	a0,-60(s0)
	call	mbedtls_mpi_read_binary
	sw	a0,-36(s0)
	.loc 2 129 1
	j	.L17
.L16:
	.loc 2 121 80
	nop
	j	.L14
.L17:
	.loc 2 129 1
	nop
.L14:
	.loc 2 130 8
	lw	a5,-36(s0)
	beq	a5,zero,.L15
	.loc 2 131 16
	lw	a0,-36(s0)
	call	mbedtls_to_psa_error
	mv	a5,a0
	j	.L5
.L15:
	.loc 2 134 12
	li	a5,0
.L5:
	.loc 2 135 1
	mv	a0,a5
	lw	ra,60(sp)
	.cfi_restore 1
	lw	s0,56(sp)
	.cfi_restore 8
	.cfi_def_cfa 2, 64
	addi	sp,sp,64
	.cfi_def_cfa_offset 0
	jr	ra
	.cfi_endproc
.LFE76:
	.size	mbedtls_psa_ffdh_set_prime_generator, .-mbedtls_psa_ffdh_set_prime_generator
	.section	.text.mbedtls_psa_ffdh_export_public_key,"ax",@progbits
	.align	1
	.globl	mbedtls_psa_ffdh_export_public_key
	.type	mbedtls_psa_ffdh_export_public_key, @function
mbedtls_psa_ffdh_export_public_key:
.LFB77:
	.loc 2 150 1
	.cfi_startproc
	addi	sp,sp,-96
	.cfi_def_cfa_offset 96
	sw	ra,92(sp)
	sw	s0,88(sp)
	.cfi_offset 1, -4
	.cfi_offset 8, -8
	addi	s0,sp,96
	.cfi_def_cfa 8, 0
	sw	a0,-68(s0)
	sw	a1,-72(s0)
	sw	a2,-76(s0)
	sw	a3,-80(s0)
	sw	a4,-84(s0)
	sw	a5,-88(s0)
	.loc 2 151 9
	li	a5,-110
	sw	a5,-20(s0)
	.loc 2 152 18
	li	a5,-151
	sw	a5,-24(s0)
	.loc 2 154 20
	lw	a5,-68(s0)
	lhu	a5,0(a5)
	sh	a5,-26(s0)
	.loc 2 156 18
	lhu	a4,-26(s0)
	li	a5,28672
	and	a4,a4,a5
	.loc 2 156 8
	li	a5,16384
	bne	a4,a5,.L19
	.loc 2 157 12
	lw	a4,-76(s0)
	lw	a5,-84(s0)
	bleu	a4,a5,.L20
	.loc 2 158 20
	li	a5,-138
	j	.L28
.L20:
	.loc 2 160 9
	lw	a2,-76(s0)
	lw	a1,-72(s0)
	lw	a0,-80(s0)
	call	memcpy
	.loc 2 161 21
	lw	a4,-80(s0)
	lw	a5,-76(s0)
	add	a3,a4,a5
	.loc 2 161 9
	lw	a4,-84(s0)
	lw	a5,-76(s0)
	sub	a5,a4,a5
	mv	a2,a5
	li	a1,0
	mv	a0,a3
	call	memset
	.loc 2 163 22
	lw	a5,-88(s0)
	lw	a4,-76(s0)
	sw	a4,0(a5)
	.loc 2 164 16
	li	a5,0
	j	.L28
.L19:
	.loc 2 167 5
	addi	a5,s0,-40
	mv	a0,a5
	call	mbedtls_mpi_init
	.loc 2 167 28 discriminator 1
	addi	a5,s0,-48
	mv	a0,a5
	call	mbedtls_mpi_init
	.loc 2 168 5
	addi	a5,s0,-56
	mv	a0,a5
	call	mbedtls_mpi_init
	.loc 2 168 27 discriminator 1
	addi	a5,s0,-64
	mv	a0,a5
	call	mbedtls_mpi_init
	.loc 2 170 35
	lw	a5,-68(s0)
	lhu	a5,2(a5)
	.loc 2 170 43
	addi	a5,a5,7
	.loc 2 170 12
	srli	a5,a5,3
	sw	a5,-32(s0)
	.loc 2 172 14
	addi	a4,s0,-48
	addi	a5,s0,-64
	mv	a2,a4
	mv	a1,a5
	lw	a0,-32(s0)
	call	mbedtls_psa_ffdh_set_prime_generator
	sw	a0,-24(s0)
	.loc 2 174 8
	lw	a5,-24(s0)
	bne	a5,zero,.L29
	.loc 2 178 22
	addi	a5,s0,-56
	lw	a2,-76(s0)
	lw	a1,-72(s0)
	mv	a0,a5
	call	mbedtls_mpi_read_binary
	sw	a0,-20(s0)
	.loc 2 178 13 discriminator 1
	lw	a5,-20(s0)
	bne	a5,zero,.L30
	.loc 2 181 22
	addi	a3,s0,-64
	addi	a2,s0,-56
	addi	a1,s0,-48
	addi	a5,s0,-40
	li	a4,0
	mv	a0,a5
	call	mbedtls_mpi_exp_mod
	sw	a0,-20(s0)
	.loc 2 181 13 discriminator 1
	lw	a5,-20(s0)
	bne	a5,zero,.L31
	.loc 2 182 22
	addi	a5,s0,-40
	lw	a2,-32(s0)
	lw	a1,-80(s0)
	mv	a0,a5
	call	mbedtls_mpi_write_binary
	sw	a0,-20(s0)
	.loc 2 182 13 discriminator 1
	lw	a5,-20(s0)
	bne	a5,zero,.L32
	.loc 2 184 18
	lw	a5,-88(s0)
	lw	a4,-32(s0)
	sw	a4,0(a5)
	.loc 2 186 9
	sw	zero,-20(s0)
	j	.L23
.L29:
	.loc 2 175 9
	nop
	j	.L23
.L30:
	.loc 2 178 87
	nop
	j	.L23
.L31:
	.loc 2 181 14
	nop
	j	.L23
.L32:
	.loc 2 182 75
	nop
.L23:
	.loc 2 188 5
	addi	a5,s0,-64
	mv	a0,a5
	call	mbedtls_mpi_free
	.loc 2 188 27 discriminator 1
	addi	a5,s0,-48
	mv	a0,a5
	call	mbedtls_mpi_free
	.loc 2 189 5
	addi	a5,s0,-56
	mv	a0,a5
	call	mbedtls_mpi_free
	.loc 2 189 27 discriminator 1
	addi	a5,s0,-40
	mv	a0,a5
	call	mbedtls_mpi_free
	.loc 2 191 8
	lw	a5,-24(s0)
	bne	a5,zero,.L27
	.loc 2 191 37 discriminator 1
	lw	a5,-20(s0)
	beq	a5,zero,.L27
	.loc 2 192 18
	lw	a0,-20(s0)
	call	mbedtls_to_psa_error
	sw	a0,-24(s0)
.L27:
	.loc 2 195 12
	lw	a5,-24(s0)
.L28:
	.loc 2 196 1
	mv	a0,a5
	lw	ra,92(sp)
	.cfi_restore 1
	lw	s0,88(sp)
	.cfi_restore 8
	.cfi_def_cfa 2, 96
	addi	sp,sp,96
	.cfi_def_cfa_offset 0
	jr	ra
	.cfi_endproc
.LFE77:
	.size	mbedtls_psa_ffdh_export_public_key, .-mbedtls_psa_ffdh_export_public_key
	.section	.text.mbedtls_psa_ffdh_generate_key,"ax",@progbits
	.align	1
	.globl	mbedtls_psa_ffdh_generate_key
	.type	mbedtls_psa_ffdh_generate_key, @function
mbedtls_psa_ffdh_generate_key:
.LFB78:
	.loc 2 204 1
	.cfi_startproc
	addi	sp,sp,-64
	.cfi_def_cfa_offset 64
	sw	ra,60(sp)
	sw	s0,56(sp)
	.cfi_offset 1, -4
	.cfi_offset 8, -8
	addi	s0,sp,64
	.cfi_def_cfa 8, 0
	sw	a0,-52(s0)
	sw	a1,-56(s0)
	sw	a2,-60(s0)
	sw	a3,-64(s0)
	.loc 2 206 9
	li	a5,-110
	sw	a5,-20(s0)
	.loc 2 207 18
	li	a5,-151
	sw	a5,-24(s0)
	.loc 2 208 5
	addi	a5,s0,-40
	mv	a0,a5
	call	mbedtls_mpi_init
	.loc 2 208 27 discriminator 1
	addi	a5,s0,-32
	mv	a0,a5
	call	mbedtls_mpi_init
	.loc 2 211 14
	addi	a5,s0,-40
	li	a2,0
	mv	a1,a5
	lw	a0,-60(s0)
	call	mbedtls_psa_ffdh_set_prime_generator
	sw	a0,-24(s0)
	.loc 2 213 8
	lw	a5,-24(s0)
	bne	a5,zero,.L42
	.loc 2 220 22
	addi	a2,s0,-40
	addi	a0,s0,-32
	li	a4,0
	lui	a5,%hi(mbedtls_psa_get_random)
	addi	a3,a5,%lo(mbedtls_psa_get_random)
	li	a1,3
	call	mbedtls_mpi_random
	sw	a0,-20(s0)
	.loc 2 220 13 discriminator 1
	lw	a5,-20(s0)
	bne	a5,zero,.L43
	.loc 2 222 22
	addi	a4,s0,-32
	addi	a5,s0,-32
	li	a2,1
	mv	a1,a4
	mv	a0,a5
	call	mbedtls_mpi_sub_int
	sw	a0,-20(s0)
	.loc 2 222 13 discriminator 1
	lw	a5,-20(s0)
	bne	a5,zero,.L44
	.loc 2 223 22
	addi	a5,s0,-32
	lw	a2,-60(s0)
	lw	a1,-56(s0)
	mv	a0,a5
	call	mbedtls_mpi_write_binary
	sw	a0,-20(s0)
	.loc 2 223 13 discriminator 1
	lw	a5,-20(s0)
	bne	a5,zero,.L45
	.loc 2 224 24
	lw	a5,-64(s0)
	lw	a4,-60(s0)
	sw	a4,0(a5)
	j	.L35
.L42:
	.loc 2 214 9
	nop
	j	.L35
.L43:
	.loc 2 220 14
	nop
	j	.L35
.L44:
	.loc 2 222 61
	nop
	j	.L35
.L45:
	.loc 2 223 88
	nop
.L35:
	.loc 2 227 5
	addi	a5,s0,-40
	mv	a0,a5
	call	mbedtls_mpi_free
	.loc 2 227 27 discriminator 1
	addi	a5,s0,-32
	mv	a0,a5
	call	mbedtls_mpi_free
	.loc 2 228 8
	lw	a5,-24(s0)
	bne	a5,zero,.L39
	.loc 2 228 37 discriminator 1
	lw	a5,-20(s0)
	beq	a5,zero,.L39
	.loc 2 229 16
	lw	a0,-20(s0)
	call	mbedtls_to_psa_error
	mv	a5,a0
	j	.L41
.L39:
	.loc 2 232 12
	lw	a5,-24(s0)
.L41:
	.loc 2 233 1
	mv	a0,a5
	lw	ra,60(sp)
	.cfi_restore 1
	lw	s0,56(sp)
	.cfi_restore 8
	.cfi_def_cfa 2, 64
	addi	sp,sp,64
	.cfi_def_cfa_offset 0
	jr	ra
	.cfi_endproc
.LFE78:
	.size	mbedtls_psa_ffdh_generate_key, .-mbedtls_psa_ffdh_generate_key
	.section	.text.mbedtls_psa_ffdh_import_key,"ax",@progbits
	.align	1
	.globl	mbedtls_psa_ffdh_import_key
	.type	mbedtls_psa_ffdh_import_key, @function
mbedtls_psa_ffdh_import_key:
.LFB79:
	.loc 2 242 1
	.cfi_startproc
	addi	sp,sp,-48
	.cfi_def_cfa_offset 48
	sw	ra,44(sp)
	sw	s0,40(sp)
	.cfi_offset 1, -4
	.cfi_offset 8, -8
	addi	s0,sp,48
	.cfi_def_cfa 8, 0
	sw	a0,-20(s0)
	sw	a1,-24(s0)
	sw	a2,-28(s0)
	sw	a3,-32(s0)
	sw	a4,-36(s0)
	sw	a5,-40(s0)
	sw	a6,-44(s0)
	.loc 2 245 8
	lw	a4,-36(s0)
	lw	a5,-28(s0)
	bgeu	a4,a5,.L47
	.loc 2 246 16
	li	a5,-138
	j	.L48
.L47:
	.loc 2 248 5
	lw	a2,-28(s0)
	lw	a1,-24(s0)
	lw	a0,-32(s0)
	call	memcpy
	.loc 2 249 24
	lw	a5,-40(s0)
	lw	a4,-28(s0)
	sw	a4,0(a5)
	.loc 2 250 28
	lw	a5,-28(s0)
	slli	a4,a5,3
	.loc 2 250 11
	lw	a5,-44(s0)
	sw	a4,0(a5)
	.loc 2 252 12
	li	a5,0
.L48:
	.loc 2 253 1
	mv	a0,a5
	lw	ra,44(sp)
	.cfi_restore 1
	lw	s0,40(sp)
	.cfi_restore 8
	.cfi_def_cfa 2, 48
	addi	sp,sp,48
	.cfi_def_cfa_offset 0
	jr	ra
	.cfi_endproc
.LFE79:
	.size	mbedtls_psa_ffdh_import_key, .-mbedtls_psa_ffdh_import_key
	.section	.text.mbedtls_psa_ffdh_key_agreement,"ax",@progbits
	.align	1
	.globl	mbedtls_psa_ffdh_key_agreement
	.type	mbedtls_psa_ffdh_key_agreement, @function
mbedtls_psa_ffdh_key_agreement:
.LFB80:
	.loc 2 266 1
	.cfi_startproc
	addi	sp,sp,-112
	.cfi_def_cfa_offset 112
	sw	ra,108(sp)
	sw	s0,104(sp)
	.cfi_offset 1, -4
	.cfi_offset 8, -8
	addi	s0,sp,112
	.cfi_def_cfa 8, 0
	sw	a0,-84(s0)
	sw	a1,-88(s0)
	sw	a2,-92(s0)
	sw	a3,-96(s0)
	sw	a4,-100(s0)
	sw	a5,-104(s0)
	sw	a6,-108(s0)
	sw	a7,-112(s0)
	.loc 2 267 9
	li	a5,-110
	sw	a5,-20(s0)
	.loc 2 268 18
	li	a5,-151
	sw	a5,-24(s0)
	.loc 2 270 18
	lw	a5,-92(s0)
	sw	a5,-28(s0)
	.loc 2 272 8
	lw	a4,-92(s0)
	lw	a5,-100(s0)
	bne	a4,a5,.L50
	.loc 2 272 44 discriminator 1
	lw	a4,-28(s0)
	lw	a5,-108(s0)
	bleu	a4,a5,.L51
.L50:
	.loc 2 274 16
	li	a5,-135
	j	.L61
.L51:
	.loc 2 277 13
	lw	a0,-84(s0)
	call	psa_get_key_type
	mv	a5,a0
	.loc 2 277 43 discriminator 1
	andi	a4,a5,-256
	.loc 2 277 8 discriminator 1
	li	a5,28672
	addi	a5,a5,512
	beq	a4,a5,.L53
	.loc 2 278 16
	li	a5,-135
	j	.L61
.L53:
	.loc 2 281 5
	addi	a5,s0,-36
	mv	a0,a5
	call	mbedtls_mpi_init
	.loc 2 281 27 discriminator 1
	addi	a5,s0,-44
	mv	a0,a5
	call	mbedtls_mpi_init
	.loc 2 282 5
	addi	a5,s0,-52
	mv	a0,a5
	call	mbedtls_mpi_init
	.loc 2 282 27 discriminator 1
	addi	a5,s0,-60
	mv	a0,a5
	call	mbedtls_mpi_init
	.loc 2 283 5
	addi	a5,s0,-68
	mv	a0,a5
	call	mbedtls_mpi_init
	.loc 2 286 22
	lw	a5,-84(s0)
	lhu	a5,2(a5)
	.loc 2 286 30
	addi	a5,a5,7
	.loc 2 286 36
	srli	a5,a5,3
	.loc 2 285 14
	addi	a3,s0,-44
	addi	a4,s0,-36
	mv	a2,a3
	mv	a1,a4
	mv	a0,a5
	call	mbedtls_psa_ffdh_set_prime_generator
	sw	a0,-24(s0)
	.loc 2 288 8
	lw	a5,-24(s0)
	bne	a5,zero,.L62
	.loc 2 292 22
	addi	a5,s0,-52
	lw	a2,-100(s0)
	lw	a1,-96(s0)
	mv	a0,a5
	call	mbedtls_mpi_read_binary
	sw	a0,-20(s0)
	.loc 2 292 13 discriminator 1
	lw	a5,-20(s0)
	bne	a5,zero,.L63
	.loc 2 295 22
	addi	a5,s0,-60
	lw	a2,-92(s0)
	lw	a1,-88(s0)
	mv	a0,a5
	call	mbedtls_mpi_read_binary
	sw	a0,-20(s0)
	.loc 2 295 13 discriminator 1
	lw	a5,-20(s0)
	bne	a5,zero,.L64
	.loc 2 299 22
	addi	a3,s0,-36
	addi	a2,s0,-52
	addi	a1,s0,-60
	addi	a5,s0,-68
	li	a4,0
	mv	a0,a5
	call	mbedtls_mpi_exp_mod
	sw	a0,-20(s0)
	.loc 2 299 13 discriminator 1
	lw	a5,-20(s0)
	bne	a5,zero,.L65
	.loc 2 301 22
	addi	a5,s0,-68
	lw	a2,-28(s0)
	lw	a1,-104(s0)
	mv	a0,a5
	call	mbedtls_mpi_write_binary
	sw	a0,-20(s0)
	.loc 2 301 13 discriminator 1
	lw	a5,-20(s0)
	bne	a5,zero,.L66
	.loc 2 304 27
	lw	a5,-112(s0)
	lw	a4,-28(s0)
	sw	a4,0(a5)
	.loc 2 306 9
	sw	zero,-20(s0)
	j	.L55
.L62:
	.loc 2 289 9
	nop
	j	.L55
.L63:
	.loc 2 292 87
	nop
	j	.L55
.L64:
	.loc 2 295 86
	nop
	j	.L55
.L65:
	.loc 2 299 14
	nop
	j	.L55
.L66:
	.loc 2 301 105
	nop
.L55:
	.loc 2 309 5
	addi	a5,s0,-36
	mv	a0,a5
	call	mbedtls_mpi_free
	.loc 2 309 27 discriminator 1
	addi	a5,s0,-44
	mv	a0,a5
	call	mbedtls_mpi_free
	.loc 2 310 5
	addi	a5,s0,-52
	mv	a0,a5
	call	mbedtls_mpi_free
	.loc 2 310 27 discriminator 1
	addi	a5,s0,-60
	mv	a0,a5
	call	mbedtls_mpi_free
	.loc 2 311 5
	addi	a5,s0,-68
	mv	a0,a5
	call	mbedtls_mpi_free
	.loc 2 313 8
	lw	a5,-24(s0)
	bne	a5,zero,.L60
	.loc 2 313 37 discriminator 1
	lw	a5,-20(s0)
	beq	a5,zero,.L60
	.loc 2 314 18
	lw	a0,-20(s0)
	call	mbedtls_to_psa_error
	sw	a0,-24(s0)
.L60:
	.loc 2 317 12
	lw	a5,-24(s0)
.L61:
	.loc 2 318 1
	mv	a0,a5
	lw	ra,108(sp)
	.cfi_restore 1
	lw	s0,104(sp)
	.cfi_restore 8
	.cfi_def_cfa 2, 112
	addi	sp,sp,112
	.cfi_def_cfa_offset 0
	jr	ra
	.cfi_endproc
.LFE80:
	.size	mbedtls_psa_ffdh_key_agreement, .-mbedtls_psa_ffdh_key_agreement
	.section	.rodata.dhm_P_2048.9,"a"
	.align	2
	.type	dhm_P_2048.9, @object
	.size	dhm_P_2048.9, 256
dhm_P_2048.9:
	.base64	"//////////+t+FRYortKmq/cViAnPTzx2LnFg84tNpWp4TZBFGQz+8yTnc4kmz75fS/jY2MMddj2gbICrsRhetPfHtXV/WVhJDP1H18GbtCFY2VVPe0a87VXE15/V8k1mE8McODmi3fipona8+/och3xWKE2rec1MKzKT0g6eXq8CrGCsyT7YdEIqUuyyOP7uWrat2DX9GgdT0Kj3jlN9K5W7edjcrsZCwenyO4KbXCeAvzhzffi7MA0BM0oNC9hkXL+nOmFg/+OTxIy7vKBg8P+OxtMb61zO7X8vC7CIAXFjvGDfRaDssbzSibBsu/6iGtCOGEoXJf/////////"
	.ascii	"\377"
	.section	.srodata.dhm_G_2048.8,"a"
	.align	2
	.type	dhm_G_2048.8, @object
	.size	dhm_G_2048.8, 1
dhm_G_2048.8:
	.ascii	"\002"
	.section	.rodata.dhm_P_3072.7,"a"
	.align	2
	.type	dhm_P_3072.7, @object
	.size	dhm_P_3072.7, 384
dhm_P_3072.7:
	.base64	"//////////+t+FRYortKmq/cViAnPTzx2LnFg84tNpWp4TZBFGQz+8yTnc4kmz75fS/jY2MMddj2gbICrsRhetPfHtXV/WVhJDP1H18GbtCFY2VVPe0a87VXE15/V8k1mE8McODmi3fipona8+/och3xWKE2rec1MKzKT0g6eXq8CrGCsyT7YdEIqUuyyOP7uWrat2DX9GgdT0Kj3jlN9K5W7edjcrsZCwenyO4KbXCeAvzhzffi7MA0BM0oNC9hkXL+nOmFg/+OTxIy7vKBg8P+OxtMb61zO7X8vC7CIAXFjvGDfRaDssbzSibBsu/6iGtCOGEfz9zeNVs7ZRkD"
	.base64	"W7w09N75nAI4YbRvydbmyQd62R0mkff37lmMsPrBhtkcrv4TCYUTknC0EwyTvEN5RPT9RFLi103TZPLiHnH1S/9croKrnJ32nuhtK8UiNjoNq8Uhl5sN6todv5pC1cRITgq80Gv6U93vPBsg7j/VnXwl5B0rZsYuN///////////"
	.section	.srodata.dhm_G_3072.6,"a"
	.align	2
	.type	dhm_G_3072.6, @object
	.size	dhm_G_3072.6, 1
dhm_G_3072.6:
	.ascii	"\002"
	.section	.rodata.dhm_P_4096.5,"a"
	.align	2
	.type	dhm_P_4096.5, @object
	.size	dhm_P_4096.5, 512
dhm_P_4096.5:
	.base64	"//////////+t+FRYortKmq/cViAnPTzx2LnFg84tNpWp4TZBFGQz+8yTnc4kmz75fS/jY2MMddj2gbICrsRhetPfHtXV/WVhJDP1H18GbtCFY2VVPe0a87VXE15/V8k1mE8McODmi3fipona8+/och3xWKE2rec1MKzKT0g6eXq8CrGCsyT7YdEIqUuyyOP7uWrat2DX9GgdT0Kj3jlN9K5W7edjcrsZCwenyO4KbXCeAvzhzffi7MA0BM0oNC9hkXL+nOmFg/+OTxIy7vKBg8P+OxtMb61zO7X8vC7CIAXFjvGDfRaDssbzSibBsu/6iGtCOGEfz9zeNVs7ZRkD"
	.base64	"W7w09N75nAI4YbRvydbmyQd62R0mkff37lmMsPrBhtkcrv4TCYUTknC0EwyTvEN5RPT9RFLi103TZPLiHnH1S/9croKrnJ32nuhtK8UiNjoNq8Uhl5sN6todv5pC1cRITgq80Gv6U93vPBsg7j/VnXwl5B0rZp4e8W5vUsMWTfT7eTDp5OWIV7asfV9C1p9tGHdjzx1VA0AEh/VbpX4xzHpxNciG77Qxiu1qHgEtnmgyqQdgCpGBMMRtx3j5ca0AOAkpmaMzy4t6Gh25PXFAADwqTs6p+Y0KzAqCkc3OyX3Pjsm1Wn+IpGtNtahR9EGC4caKAH5eZV9q////////"
	.ascii	"\377\377"
	.section	.srodata.dhm_G_4096.4,"a"
	.align	2
	.type	dhm_G_4096.4, @object
	.size	dhm_G_4096.4, 1
dhm_G_4096.4:
	.ascii	"\002"
	.section	.rodata.dhm_P_6144.3,"a"
	.align	2
	.type	dhm_P_6144.3, @object
	.size	dhm_P_6144.3, 768
dhm_P_6144.3:
	.base64	"//////////+t+FRYortKmq/cViAnPTzx2LnFg84tNpWp4TZBFGQz+8yTnc4kmz75fS/jY2MMddj2gbICrsRhetPfHtXV/WVhJDP1H18GbtCFY2VVPe0a87VXE15/V8k1mE8McODmi3fipona8+/och3xWKE2rec1MKzKT0g6eXq8CrGCsyT7YdEIqUuyyOP7uWrat2DX9GgdT0Kj3jlN9K5W7edjcrsZCwenyO4KbXCeAvzhzffi7MA0BM0oNC9hkXL+nOmFg/+OTxIy7vKBg8P+OxtMb61zO7X8vC7CIAXFjvGDfRaDssbzSibBsu/6iGtCOGEfz9zeNVs7ZRkD"
	.base64	"W7w09N75nAI4YbRvydbmyQd62R0mkff37lmMsPrBhtkcrv4TCYUTknC0EwyTvEN5RPT9RFLi103TZPLiHnH1S/9croKrnJ32nuhtK8UiNjoNq8Uhl5sN6todv5pC1cRITgq80Gv6U93vPBsg7j/VnXwl5B0rZp4e8W5vUsMWTfT7eTDp5OWIV7asfV9C1p9tGHdjzx1VA0AEh/VbpX4xzHpxNciG77Qxiu1qHgEtnmgyqQdgCpGBMMRtx3j5ca0AOAkpmaMzy4t6Gh25PXFAADwqTs6p+Y0KzAqCkc3OyX3Pjsm1Wn+IpGtNtahR9EGC4caKAH5eDdkCC/1ktkUD"
	.base64	"bHpOZ30sOFMqOiO6RELK9T6mO7RUMpt2JMiRe91kscD9TLOOjDNMcBw6za0GV/zP7HGbH1w+TkYEHziBR/tM/bR3pSRx96mpaRC4VTIu22NA2KAO8JI1BRHjCr7B//njom5/sp+MGDAjw1h+ONoAd9m0dj5OS5Syu8GUxmUed8r5ku6qwCMqKBv2s6c5wSJhFoIK6NtYR6Z8vvnJCRtGLVOM1ysDdGrnf15iKSwxFWKoRlBdyC24VDOK5J9SNclbkReMzy3Vys70A+ydGBDGJysEWztx+dxrgNY/3UqOmtseaWKmlSbUMWHBpB1XDXk42tSkDjKc0OQOZf//////"
	.base64	"////"
	.section	.srodata.dhm_G_6144.2,"a"
	.align	2
	.type	dhm_G_6144.2, @object
	.size	dhm_G_6144.2, 1
dhm_G_6144.2:
	.ascii	"\002"
	.section	.rodata.dhm_P_8192.1,"a"
	.align	2
	.type	dhm_P_8192.1, @object
	.size	dhm_P_8192.1, 1024
dhm_P_8192.1:
	.base64	"//////////+t+FRYortKmq/cViAnPTzx2LnFg84tNpWp4TZBFGQz+8yTnc4kmz75fS/jY2MMddj2gbICrsRhetPfHtXV/WVhJDP1H18GbtCFY2VVPe0a87VXE15/V8k1mE8McODmi3fipona8+/och3xWKE2rec1MKzKT0g6eXq8CrGCsyT7YdEIqUuyyOP7uWrat2DX9GgdT0Kj3jlN9K5W7edjcrsZCwenyO4KbXCeAvzhzffi7MA0BM0oNC9hkXL+nOmFg/+OTxIy7vKBg8P+OxtMb61zO7X8vC7CIAXFjvGDfRaDssbzSibBsu/6iGtCOGEfz9zeNVs7ZRkD"
	.base64	"W7w09N75nAI4YbRvydbmyQd62R0mkff37lmMsPrBhtkcrv4TCYUTknC0EwyTvEN5RPT9RFLi103TZPLiHnH1S/9croKrnJ32nuhtK8UiNjoNq8Uhl5sN6todv5pC1cRITgq80Gv6U93vPBsg7j/VnXwl5B0rZp4e8W5vUsMWTfT7eTDp5OWIV7asfV9C1p9tGHdjzx1VA0AEh/VbpX4xzHpxNciG77Qxiu1qHgEtnmgyqQdgCpGBMMRtx3j5ca0AOAkpmaMzy4t6Gh25PXFAADwqTs6p+Y0KzAqCkc3OyX3Pjsm1Wn+IpGtNtahR9EGC4caKAH5eDdkCC/1ktkUD"
	.base64	"bHpOZ30sOFMqOiO6RELK9T6mO7RUMpt2JMiRe91kscD9TLOOjDNMcBw6za0GV/zP7HGbH1w+TkYEHziBR/tM/bR3pSRx96mpaRC4VTIu22NA2KAO8JI1BRHjCr7B//njom5/sp+MGDAjw1h+ONoAd9m0dj5OS5Syu8GUxmUed8r5ku6qwCMqKBv2s6c5wSJhFoIK6NtYR6Z8vvnJCRtGLVOM1ysDdGrnf15iKSwxFWKoRlBdyC24VDOK5J9SNclbkReMzy3Vys70A+ydGBDGJysEWztx+dxrgNY/3UqOmtseaWKmlSbUMWHBpB1XDXk42tSkDjKcz/RqqjatAEz2"
	.base64	"AMg4HkJaMdlRrmT9sj/OyVCdQ2h/62nt0cxeC4zDvfZLEO+GtjFCo6uIKVVbL3R8kyZlyywPHMAb1wIpOIg50q8F5FRQSseLdYKCKEbAujXDX1xZFgzARv2CUVQfxoychrAiu3CZh2pGDnRRqKkxCXA/7hwhfmw4JuUsUappHg5CPPyZ6eMWUMEhe2JIFs2tmpX51bgBlIjZwKCh/jB1pXfiMYP4HUo/L6RXHvyM4LqKT+i2hV3+crCmbt7S+6v75Yow+vq+HF1xqH4vdB74wf6G/qa7/eUwZ38Nl9EdSfeoRD0IIuUGqfRhTgEeKpSDj/iM1oyLt8XGQkz/////"
	.base64	"/////w=="
	.section	.srodata.dhm_G_8192.0,"a"
	.align	2
	.type	dhm_G_8192.0, @object
	.size	dhm_G_8192.0, 1
dhm_G_8192.0:
	.ascii	"\002"
	.text
.Letext0:
	.file 3 "/home/chandu/sdk/bl602_iot_sdk/toolchain/compiler/lib/gcc/riscv32-unknown-elf/15.1.0/include/stddef.h"
	.file 4 "/home/chandu/sdk/bl602_iot_sdk/toolchain/compiler/lib/gcc/riscv32-unknown-elf/15.1.0/include/stdint-gcc.h"
	.file 5 "/home/chandu/sdk/bl602_iot_sdk/components/security/mbedtls-bl602/include/mbedtls/platform_util.h"
	.file 6 "/home/chandu/sdk/bl602_iot_sdk/components/security/mbedtls-bl602/include/mbedtls/bignum.h"
	.file 7 "/home/chandu/sdk/bl602_iot_sdk/components/security/mbedtls-bl602/include/psa/crypto_types.h"
	.file 8 "/home/chandu/sdk/bl602_iot_sdk/components/security/mbedtls-bl602/include/mbedtls/psa_util.h"
	.file 9 "/home/chandu/sdk/bl602_iot_sdk/toolchain/compiler/riscv32-unknown-elf/include/string.h"
	.file 10 "/home/chandu/sdk/bl602_iot_sdk/components/security/mbedtls-bl602/library/psa_crypto_core.h"
	.section	.note.GNU-stack,"",@progbits
