	.file	"psa_crypto_cipher.c"
	.option nopic
	.attribute arch, "rv32i2p1_m2p0_f2p2_c2p0_zicsr2p0_zmmul1p0_zca1p0_zcf1p0"
	.attribute unaligned_access, 0
	.attribute stack_align, 16
	.text
.Ltext0:
	.cfi_sections	.debug_frame
	.file 0 "/home/chandu/sdk/bl602_iot_sdk/customer_app/suas_app_pqkem_gateway/build_out/mbedtls-bl602" "/home/chandu/sdk/bl602_iot_sdk/components/security/mbedtls-bl602/library/psa_crypto_cipher.c"
	.section	.text.mbedtls_buffer_offset,"ax",@progbits
	.align	1
	.type	mbedtls_buffer_offset, @function
mbedtls_buffer_offset:
.LFB7:
	.file 1 "/home/chandu/sdk/bl602_iot_sdk/components/security/mbedtls-bl602/library/common.h"
	.loc 1 140 1
	.cfi_startproc
	addi	sp,sp,-32
	.cfi_def_cfa_offset 32
	sw	ra,28(sp)
	sw	s0,24(sp)
	.cfi_offset 1, -4
	.cfi_offset 8, -8
	addi	s0,sp,32
	.cfi_def_cfa 8, 0
	sw	a0,-20(s0)
	sw	a1,-24(s0)
	.loc 1 141 28
	lw	a5,-20(s0)
	beq	a5,zero,.L2
	.loc 1 141 28 is_stmt 0 discriminator 1
	lw	a4,-20(s0)
	lw	a5,-24(s0)
	add	a5,a4,a5
	.loc 1 141 28
	j	.L4
.L2:
	.loc 1 141 28 discriminator 2
	li	a5,0
.L4:
	.loc 1 142 1 is_stmt 1
	mv	a0,a5
	lw	ra,28(sp)
	.cfi_restore 1
	lw	s0,24(sp)
	.cfi_restore 8
	.cfi_def_cfa 2, 32
	addi	sp,sp,32
	.cfi_def_cfa_offset 0
	jr	ra
	.cfi_endproc
.LFE7:
	.size	mbedtls_buffer_offset, .-mbedtls_buffer_offset
	.section	.text.mbedtls_buffer_offset_const,"ax",@progbits
	.align	1
	.type	mbedtls_buffer_offset_const, @function
mbedtls_buffer_offset_const:
.LFB8:
	.loc 1 157 1
	.cfi_startproc
	addi	sp,sp,-32
	.cfi_def_cfa_offset 32
	sw	ra,28(sp)
	sw	s0,24(sp)
	.cfi_offset 1, -4
	.cfi_offset 8, -8
	addi	s0,sp,32
	.cfi_def_cfa 8, 0
	sw	a0,-20(s0)
	sw	a1,-24(s0)
	.loc 1 158 28
	lw	a5,-20(s0)
	beq	a5,zero,.L6
	.loc 1 158 28 is_stmt 0 discriminator 1
	lw	a4,-20(s0)
	lw	a5,-24(s0)
	add	a5,a4,a5
	.loc 1 158 28
	j	.L8
.L6:
	.loc 1 158 28 discriminator 2
	li	a5,0
.L8:
	.loc 1 159 1 is_stmt 1
	mv	a0,a5
	lw	ra,28(sp)
	.cfi_restore 1
	lw	s0,24(sp)
	.cfi_restore 8
	.cfi_def_cfa 2, 32
	addi	sp,sp,32
	.cfi_def_cfa_offset 0
	jr	ra
	.cfi_endproc
.LFE8:
	.size	mbedtls_buffer_offset_const, .-mbedtls_buffer_offset_const
	.section	.text.mbedtls_cipher_info_get_block_size,"ax",@progbits
	.align	1
	.type	mbedtls_cipher_info_get_block_size, @function
mbedtls_cipher_info_get_block_size:
.LFB16:
	.file 2 "/home/chandu/sdk/bl602_iot_sdk/components/security/mbedtls-bl602/include/mbedtls/cipher.h"
	.loc 2 547 1
	.cfi_startproc
	addi	sp,sp,-32
	.cfi_def_cfa_offset 32
	sw	ra,28(sp)
	sw	s0,24(sp)
	.cfi_offset 1, -4
	.cfi_offset 8, -8
	addi	s0,sp,32
	.cfi_def_cfa 8, 0
	sw	a0,-20(s0)
	.loc 2 548 8
	lw	a5,-20(s0)
	bne	a5,zero,.L10
	.loc 2 549 16
	li	a5,0
	j	.L11
.L10:
	.loc 2 552 26
	lw	a5,-20(s0)
	lw	a5,4(a5)
	andi	a5,a5,31
	andi	a5,a5,0xff
.L11:
	.loc 2 553 1
	mv	a0,a5
	lw	ra,28(sp)
	.cfi_restore 1
	lw	s0,24(sp)
	.cfi_restore 8
	.cfi_def_cfa 2, 32
	addi	sp,sp,32
	.cfi_def_cfa_offset 0
	jr	ra
	.cfi_endproc
.LFE16:
	.size	mbedtls_cipher_info_get_block_size, .-mbedtls_cipher_info_get_block_size
	.section	.text.mbedtls_ct_compiler_opaque,"ax",@progbits
	.align	1
	.type	mbedtls_ct_compiler_opaque, @function
mbedtls_ct_compiler_opaque:
.LFB72:
	.file 3 "/home/chandu/sdk/bl602_iot_sdk/components/security/mbedtls-bl602/library/constant_time_impl.h"
	.loc 3 86 1
	.cfi_startproc
	addi	sp,sp,-32
	.cfi_def_cfa_offset 32
	sw	ra,28(sp)
	sw	s0,24(sp)
	.cfi_offset 1, -4
	.cfi_offset 8, -8
	addi	s0,sp,32
	.cfi_def_cfa 8, 0
	sw	a0,-20(s0)
	.loc 3 88 5
	lw	a5,-20(s0)
	sw	a5,-20(s0)
	.loc 3 89 12
	lw	a5,-20(s0)
	.loc 3 93 1
	mv	a0,a5
	lw	ra,28(sp)
	.cfi_restore 1
	lw	s0,24(sp)
	.cfi_restore 8
	.cfi_def_cfa 2, 32
	addi	sp,sp,32
	.cfi_def_cfa_offset 0
	jr	ra
	.cfi_endproc
.LFE72:
	.size	mbedtls_ct_compiler_opaque, .-mbedtls_ct_compiler_opaque
	.section	.text.mbedtls_ct_bool,"ax",@progbits
	.align	1
	.type	mbedtls_ct_bool, @function
mbedtls_ct_bool:
.LFB73:
	.loc 3 121 1
	.cfi_startproc
	addi	sp,sp,-48
	.cfi_def_cfa_offset 48
	sw	ra,44(sp)
	sw	s0,40(sp)
	.cfi_offset 1, -4
	.cfi_offset 8, -8
	addi	s0,sp,48
	.cfi_def_cfa 8, 0
	sw	a0,-36(s0)
	.loc 3 184 34
	lw	a0,-36(s0)
	call	mbedtls_ct_compiler_opaque
	sw	a0,-20(s0)
	.loc 3 192 27
	lw	a5,-20(s0)
	neg	a4,a5
	.loc 3 192 39
	lw	a5,-20(s0)
	srli	a5,a5,1
	.loc 3 192 34
	neg	a5,a5
	.loc 3 192 32
	or	a5,a4,a5
	.loc 3 192 22
	sw	a5,-24(s0)
	.loc 3 195 11
	lw	a5,-24(s0)
	.loc 3 195 34
	srli	a5,a5,31
	.loc 3 195 7
	sw	a5,-24(s0)
	.loc 3 198 38
	lw	a5,-24(s0)
	neg	a5,a5
	.loc 3 203 1
	mv	a0,a5
	lw	ra,44(sp)
	.cfi_restore 1
	lw	s0,40(sp)
	.cfi_restore 8
	.cfi_def_cfa 2, 48
	addi	sp,sp,48
	.cfi_def_cfa_offset 0
	jr	ra
	.cfi_endproc
.LFE73:
	.size	mbedtls_ct_bool, .-mbedtls_ct_bool
	.section	.text.mbedtls_ct_if,"ax",@progbits
	.align	1
	.type	mbedtls_ct_if, @function
mbedtls_ct_if:
.LFB74:
	.loc 3 208 1
	.cfi_startproc
	addi	sp,sp,-48
	.cfi_def_cfa_offset 48
	sw	ra,44(sp)
	sw	s0,40(sp)
	.cfi_offset 1, -4
	.cfi_offset 8, -8
	addi	s0,sp,48
	.cfi_def_cfa 8, 0
	sw	a0,-36(s0)
	sw	a1,-40(s0)
	sw	a2,-44(s0)
	.loc 3 266 36
	lw	a0,-36(s0)
	call	mbedtls_ct_compiler_opaque
	mv	a5,a0
	.loc 3 265 28
	not	a5,a5
	sw	a5,-20(s0)
	.loc 3 267 44
	lw	a4,-36(s0)
	lw	a5,-40(s0)
	and	a4,a4,a5
	.loc 3 267 63
	lw	a3,-20(s0)
	lw	a5,-44(s0)
	and	a5,a3,a5
	.loc 3 267 12
	or	a5,a4,a5
	.loc 3 269 1
	mv	a0,a5
	lw	ra,44(sp)
	.cfi_restore 1
	lw	s0,40(sp)
	.cfi_restore 8
	.cfi_def_cfa 2, 48
	addi	sp,sp,48
	.cfi_def_cfa_offset 0
	jr	ra
	.cfi_endproc
.LFE74:
	.size	mbedtls_ct_if, .-mbedtls_ct_if
	.section	.text.mbedtls_ct_uint_lt,"ax",@progbits
	.align	1
	.type	mbedtls_ct_uint_lt, @function
mbedtls_ct_uint_lt:
.LFB75:
	.loc 3 272 1
	.cfi_startproc
	addi	sp,sp,-48
	.cfi_def_cfa_offset 48
	sw	ra,44(sp)
	sw	s0,40(sp)
	.cfi_offset 1, -4
	.cfi_offset 8, -8
	addi	s0,sp,48
	.cfi_def_cfa 8, 0
	sw	a0,-36(s0)
	sw	a1,-40(s0)
	.loc 3 354 34
	lw	a0,-36(s0)
	call	mbedtls_ct_compiler_opaque
	sw	a0,-20(s0)
	.loc 3 355 34
	lw	a0,-40(s0)
	call	mbedtls_ct_compiler_opaque
	sw	a0,-24(s0)
	.loc 3 360 55
	lw	a4,-20(s0)
	lw	a5,-24(s0)
	xor	a5,a4,a5
	.loc 3 360 35
	srli	a5,a5,31
	mv	a0,a5
	call	mbedtls_ct_bool
	sw	a0,-28(s0)
	.loc 3 372 29
	lw	a4,-20(s0)
	lw	a5,-24(s0)
	sub	a5,a4,a5
	mv	a2,a5
	lw	a1,-24(s0)
	lw	a0,-28(s0)
	call	mbedtls_ct_if
	sw	a0,-32(s0)
	.loc 3 375 9
	lw	a5,-32(s0)
	srli	a5,a5,31
	sw	a5,-32(s0)
	.loc 3 378 12
	lw	a0,-32(s0)
	call	mbedtls_ct_bool
	mv	a5,a0
	.loc 3 380 1
	mv	a0,a5
	lw	ra,44(sp)
	.cfi_restore 1
	lw	s0,40(sp)
	.cfi_restore 8
	.cfi_def_cfa 2, 48
	addi	sp,sp,48
	.cfi_def_cfa_offset 0
	jr	ra
	.cfi_endproc
.LFE75:
	.size	mbedtls_ct_uint_lt, .-mbedtls_ct_uint_lt
	.section	.text.mbedtls_ct_error_if,"ax",@progbits
	.align	1
	.type	mbedtls_ct_error_if, @function
mbedtls_ct_error_if:
.LFB86:
	.loc 3 473 1
	.cfi_startproc
	addi	sp,sp,-32
	.cfi_def_cfa_offset 32
	sw	ra,28(sp)
	sw	s0,24(sp)
	.cfi_offset 1, -4
	.cfi_offset 8, -8
	addi	s0,sp,32
	.cfi_def_cfa 8, 0
	sw	a0,-20(s0)
	sw	a1,-24(s0)
	sw	a2,-28(s0)
	.loc 3 480 66
	lw	a5,-24(s0)
	neg	a5,a5
	.loc 3 480 20
	mv	a4,a5
	.loc 3 481 55
	lw	a5,-28(s0)
	neg	a5,a5
	.loc 3 480 20
	mv	a2,a5
	mv	a1,a4
	lw	a0,-20(s0)
	call	mbedtls_ct_if
	mv	a5,a0
	.loc 3 480 12 discriminator 1
	neg	a5,a5
	.loc 3 482 1
	mv	a0,a5
	lw	ra,28(sp)
	.cfi_restore 1
	lw	s0,24(sp)
	.cfi_restore 8
	.cfi_def_cfa 2, 32
	addi	sp,sp,32
	.cfi_def_cfa_offset 0
	jr	ra
	.cfi_endproc
.LFE86:
	.size	mbedtls_ct_error_if, .-mbedtls_ct_error_if
	.section	.text.mbedtls_ct_error_if_else_0,"ax",@progbits
	.align	1
	.type	mbedtls_ct_error_if_else_0, @function
mbedtls_ct_error_if_else_0:
.LFB87:
	.loc 3 485 1
	.cfi_startproc
	addi	sp,sp,-32
	.cfi_def_cfa_offset 32
	sw	ra,28(sp)
	sw	s0,24(sp)
	.cfi_offset 1, -4
	.cfi_offset 8, -8
	addi	s0,sp,32
	.cfi_def_cfa 8, 0
	sw	a0,-20(s0)
	sw	a1,-24(s0)
	.loc 3 486 34
	lw	a5,-24(s0)
	neg	a5,a5
	mv	a4,a5
	.loc 3 486 31
	lw	a5,-20(s0)
	and	a5,a4,a5
	.loc 3 486 12
	neg	a5,a5
	.loc 3 487 1
	mv	a0,a5
	lw	ra,28(sp)
	.cfi_restore 1
	lw	s0,24(sp)
	.cfi_restore 8
	.cfi_def_cfa 2, 32
	addi	sp,sp,32
	.cfi_def_cfa_offset 0
	jr	ra
	.cfi_endproc
.LFE87:
	.size	mbedtls_ct_error_if_else_0, .-mbedtls_ct_error_if_else_0
	.section	.text.mbedtls_cipher_validate_values,"ax",@progbits
	.align	1
	.type	mbedtls_cipher_validate_values, @function
mbedtls_cipher_validate_values:
.LFB97:
	.file 4 "/home/chandu/sdk/bl602_iot_sdk/components/security/mbedtls-bl602/library/psa_crypto_cipher.c"
	.loc 4 33 1
	.cfi_startproc
	addi	sp,sp,-32
	.cfi_def_cfa_offset 32
	sw	ra,28(sp)
	sw	s0,24(sp)
	.cfi_offset 1, -4
	.cfi_offset 8, -8
	addi	s0,sp,32
	.cfi_def_cfa 8, 0
	sw	a0,-20(s0)
	mv	a5,a1
	sh	a5,-22(s0)
	.loc 4 88 8
	lw	a4,-20(s0)
	li	a5,75497472
	addi	a5,a5,256
	beq	a4,a5,.L28
	.loc 4 88 47 discriminator 1
	lw	a4,-20(s0)
	li	a5,83886080
	addi	a5,a5,1280
	bne	a4,a5,.L29
.L28:
	.loc 4 90 12
	lhu	a4,-22(s0)
	li	a5,8192
	addi	a5,a5,4
	bne	a4,a5,.L29
	.loc 4 91 20
	li	a5,0
	j	.L30
.L29:
	.loc 4 95 8
	lw	a4,-20(s0)
	li	a5,88080384
	addi	a5,a5,256
	beq	a4,a5,.L31
	.loc 4 95 169 discriminator 1
	lw	a4,-20(s0)
	li	a5,88080384
	addi	a5,a5,512
	beq	a4,a5,.L31
	.loc 4 96 169
	lw	a4,-20(s0)
	li	a5,79695872
	addi	a5,a5,768
	bne	a4,a5,.L32
.L31:
	.loc 4 98 12
	lhu	a4,-22(s0)
	li	a5,8192
	addi	a5,a5,1024
	beq	a4,a5,.L33
	.loc 4 98 51 discriminator 1
	lhu	a4,-22(s0)
	li	a5,8192
	addi	a5,a5,1030
	beq	a4,a5,.L33
	.loc 4 99 51
	lhu	a4,-22(s0)
	li	a5,8192
	addi	a5,a5,1027
	bne	a4,a5,.L32
.L33:
	.loc 4 101 20
	li	a5,0
	j	.L30
.L32:
	.loc 4 105 8
	lw	a4,-20(s0)
	li	a5,79695872
	beq	a4,a5,.L34
	.loc 4 105 47 discriminator 1
	lw	a4,-20(s0)
	li	a5,79695872
	addi	a5,a5,256
	beq	a4,a5,.L34
	.loc 4 106 47
	lw	a4,-20(s0)
	li	a5,79695872
	addi	a5,a5,512
	beq	a4,a5,.L34
	.loc 4 107 47
	lw	a4,-20(s0)
	li	a5,71368704
	addi	a5,a5,-256
	beq	a4,a5,.L34
	.loc 4 108 47
	lw	a4,-20(s0)
	li	a5,71319552
	addi	a5,a5,1024
	beq	a4,a5,.L34
	.loc 4 109 47
	lw	a4,-20(s0)
	li	a5,71319552
	beq	a4,a5,.L34
	.loc 4 110 47
	lw	a4,-20(s0)
	li	a5,71319552
	addi	a5,a5,256
	beq	a4,a5,.L34
	.loc 4 111 47
	lw	a4,-20(s0)
	li	a5,62914560
	addi	a5,a5,512
	bne	a4,a5,.L35
.L34:
	.loc 4 113 12
	lhu	a4,-22(s0)
	li	a5,8192
	addi	a5,a5,1024
	beq	a4,a5,.L36
	.loc 4 113 51 discriminator 1
	lhu	a4,-22(s0)
	li	a5,8192
	addi	a5,a5,1030
	beq	a4,a5,.L36
	.loc 4 114 51
	lhu	a4,-22(s0)
	li	a5,8192
	addi	a5,a5,769
	beq	a4,a5,.L36
	.loc 4 115 51
	lhu	a4,-22(s0)
	li	a5,8192
	addi	a5,a5,1027
	bne	a4,a5,.L35
.L36:
	.loc 4 117 20
	li	a5,0
	j	.L30
.L35:
	.loc 4 121 12
	li	a5,-134
.L30:
	.loc 4 122 1
	mv	a0,a5
	lw	ra,28(sp)
	.cfi_restore 1
	lw	s0,24(sp)
	.cfi_restore 8
	.cfi_def_cfa 2, 32
	addi	sp,sp,32
	.cfi_def_cfa_offset 0
	jr	ra
	.cfi_endproc
.LFE97:
	.size	mbedtls_cipher_validate_values, .-mbedtls_cipher_validate_values
	.section	.text.mbedtls_cipher_values_from_psa,"ax",@progbits
	.align	1
	.globl	mbedtls_cipher_values_from_psa
	.type	mbedtls_cipher_values_from_psa, @function
mbedtls_cipher_values_from_psa:
.LFB98:
	.loc 4 130 1
	.cfi_startproc
	addi	sp,sp,-64
	.cfi_def_cfa_offset 64
	sw	ra,60(sp)
	sw	s0,56(sp)
	.cfi_offset 1, -4
	.cfi_offset 8, -8
	addi	s0,sp,64
	.cfi_def_cfa 8, 0
	sw	a0,-36(s0)
	mv	a5,a1
	sw	a2,-44(s0)
	sw	a3,-48(s0)
	sw	a4,-52(s0)
	sh	a5,-38(s0)
	.loc 4 137 17
	lw	a4,-36(s0)
	li	a5,2130706432
	and	a4,a4,a5
	.loc 4 137 8
	li	a5,83886080
	bne	a4,a5,.L38
	.loc 4 138 13
	lw	a4,-36(s0)
	li	a5,-4161536
	addi	a5,a5,-1
	and	a5,a4,a5
	sw	a5,-36(s0)
.L38:
	.loc 4 141 17
	lw	a4,-36(s0)
	li	a5,2130706432
	and	a4,a4,a5
	.loc 4 141 8
	li	a5,67108864
	beq	a4,a5,.L39
	.loc 4 141 97 discriminator 1
	lw	a4,-36(s0)
	li	a5,2130706432
	and	a4,a4,a5
	.loc 4 141 86 discriminator 1
	li	a5,83886080
	bne	a4,a5,.L40
.L39:
	.loc 4 142 9
	lw	a4,-36(s0)
	li	a5,88080384
	addi	a5,a5,512
	beq	a4,a5,.L41
	lw	a4,-36(s0)
	li	a5,88080384
	addi	a5,a5,512
	bgtu	a4,a5,.L42
	lw	a4,-36(s0)
	li	a5,88080384
	addi	a5,a5,256
	beq	a4,a5,.L43
	lw	a4,-36(s0)
	li	a5,88080384
	addi	a5,a5,256
	bgtu	a4,a5,.L42
	lw	a4,-36(s0)
	li	a5,79695872
	addi	a5,a5,768
	beq	a4,a5,.L44
	lw	a4,-36(s0)
	li	a5,79695872
	addi	a5,a5,768
	bgtu	a4,a5,.L42
	lw	a4,-36(s0)
	li	a5,79695872
	addi	a5,a5,512
	beq	a4,a5,.L45
	lw	a4,-36(s0)
	li	a5,79695872
	addi	a5,a5,512
	bgtu	a4,a5,.L42
	lw	a4,-36(s0)
	li	a5,79695872
	addi	a5,a5,256
	beq	a4,a5,.L46
	lw	a4,-36(s0)
	li	a5,79695872
	addi	a5,a5,256
	bgtu	a4,a5,.L42
	lw	a4,-36(s0)
	li	a5,79695872
	beq	a4,a5,.L47
	lw	a4,-36(s0)
	li	a5,79695872
	bgtu	a4,a5,.L42
	lw	a4,-36(s0)
	li	a5,75497472
	addi	a5,a5,256
	beq	a4,a5,.L48
	lw	a4,-36(s0)
	li	a5,75497472
	addi	a5,a5,256
	bgtu	a4,a5,.L42
	lw	a4,-36(s0)
	li	a5,71319552
	addi	a5,a5,1024
	beq	a4,a5,.L49
	lw	a4,-36(s0)
	li	a5,71319552
	addi	a5,a5,1024
	bgtu	a4,a5,.L42
	lw	a4,-36(s0)
	li	a5,71319552
	beq	a4,a5,.L50
	lw	a4,-36(s0)
	li	a5,71319552
	addi	a5,a5,256
	beq	a4,a5,.L51
	j	.L42
.L48:
	.loc 4 145 23
	lw	a5,-48(s0)
	li	a4,7
	sb	a4,0(a5)
	.loc 4 146 17
	j	.L52
.L47:
	.loc 4 150 23
	lw	a5,-48(s0)
	li	a4,5
	sb	a4,0(a5)
	.loc 4 151 17
	j	.L52
.L46:
	.loc 4 155 23
	lw	a5,-48(s0)
	li	a4,3
	sb	a4,0(a5)
	.loc 4 156 17
	j	.L52
.L45:
	.loc 4 160 23
	lw	a5,-48(s0)
	li	a4,4
	sb	a4,0(a5)
	.loc 4 161 17
	j	.L52
.L49:
	.loc 4 165 23
	lw	a5,-48(s0)
	li	a4,1
	sb	a4,0(a5)
	.loc 4 166 17
	j	.L52
.L50:
	.loc 4 170 23
	lw	a5,-48(s0)
	li	a4,2
	sb	a4,0(a5)
	.loc 4 171 17
	j	.L52
.L51:
	.loc 4 175 23
	lw	a5,-48(s0)
	li	a4,2
	sb	a4,0(a5)
	.loc 4 176 17
	j	.L52
.L44:
	.loc 4 180 23
	lw	a5,-48(s0)
	li	a4,9
	sb	a4,0(a5)
	.loc 4 181 17
	j	.L52
.L43:
	.loc 4 185 23
	lw	a5,-48(s0)
	li	a4,8
	sb	a4,0(a5)
	.loc 4 186 17
	j	.L52
.L41:
	.loc 4 190 23
	lw	a5,-48(s0)
	li	a4,6
	sb	a4,0(a5)
	.loc 4 191 17
	j	.L52
.L42:
	.loc 4 199 24
	li	a5,-134
	j	.L53
.L52:
	.loc 4 142 9
	j	.L54
.L40:
	.loc 4 201 15
	lw	a4,-36(s0)
	li	a5,62914560
	addi	a5,a5,512
	bne	a4,a5,.L55
	.loc 4 202 15
	lw	a5,-48(s0)
	li	a4,1
	sb	a4,0(a5)
	j	.L54
.L55:
	.loc 4 204 16
	li	a5,-134
	j	.L53
.L54:
	.loc 4 207 5
	lhu	a5,-38(s0)
	li	a4,8192
	addi	a4,a4,1024
	beq	a5,a4,.L56
	li	a4,8192
	addi	a4,a4,1024
	bgt	a5,a4,.L57
	li	a4,8192
	addi	a4,a4,4
	beq	a5,a4,.L58
	li	a4,8192
	addi	a4,a4,769
	beq	a5,a4,.L59
	j	.L57
.L56:
	.loc 4 210 27
	li	a5,2
	sb	a5,-17(s0)
	.loc 4 211 13
	j	.L60
.L59:
	.loc 4 222 17
	lw	a5,-44(s0)
	lw	a4,0(a5)
	.loc 4 222 16
	li	a5,64
	bne	a4,a5,.L61
	.loc 4 223 31
	li	a5,3
	sb	a5,-17(s0)
	j	.L62
.L61:
	.loc 4 225 31
	li	a5,4
	sb	a5,-17(s0)
.L62:
	.loc 4 230 17
	lw	a5,-44(s0)
	lw	a4,0(a5)
	.loc 4 230 16
	li	a5,128
	bne	a4,a5,.L65
	.loc 4 231 27
	lw	a5,-44(s0)
	li	a4,192
	sw	a4,0(a5)
	.loc 4 233 13
	j	.L65
.L58:
	.loc 4 242 27
	li	a5,7
	sb	a5,-17(s0)
	.loc 4 243 13
	j	.L60
.L57:
	.loc 4 246 20
	li	a5,-134
	j	.L53
.L65:
	.loc 4 233 13
	nop
.L60:
	.loc 4 248 8
	lw	a5,-52(s0)
	beq	a5,zero,.L64
	.loc 4 249 20
	lw	a5,-52(s0)
	lbu	a4,-17(s0)
	sb	a4,0(a5)
.L64:
	.loc 4 252 12
	lhu	a5,-38(s0)
	mv	a1,a5
	lw	a0,-36(s0)
	call	mbedtls_cipher_validate_values
	mv	a5,a0
.L53:
	.loc 4 253 1
	mv	a0,a5
	lw	ra,60(sp)
	.cfi_restore 1
	lw	s0,56(sp)
	.cfi_restore 8
	.cfi_def_cfa 2, 64
	addi	sp,sp,64
	.cfi_def_cfa_offset 0
	jr	ra
	.cfi_endproc
.LFE98:
	.size	mbedtls_cipher_values_from_psa, .-mbedtls_cipher_values_from_psa
	.section	.text.mbedtls_cipher_info_from_psa,"ax",@progbits
	.align	1
	.globl	mbedtls_cipher_info_from_psa
	.type	mbedtls_cipher_info_from_psa, @function
mbedtls_cipher_info_from_psa:
.LFB99:
	.loc 4 261 1
	.cfi_startproc
	addi	sp,sp,-48
	.cfi_def_cfa_offset 48
	sw	ra,44(sp)
	sw	s0,40(sp)
	.cfi_offset 1, -4
	.cfi_offset 8, -8
	addi	s0,sp,48
	.cfi_def_cfa 8, 0
	sw	a0,-36(s0)
	mv	a5,a1
	sw	a2,-44(s0)
	sw	a3,-48(s0)
	sh	a5,-38(s0)
	.loc 4 264 25
	sb	zero,-22(s0)
	.loc 4 266 14
	addi	a4,s0,-22
	addi	a3,s0,-21
	addi	a2,s0,-44
	lhu	a5,-38(s0)
	mv	a1,a5
	lw	a0,-36(s0)
	call	mbedtls_cipher_values_from_psa
	sw	a0,-20(s0)
	.loc 4 267 8
	lw	a5,-20(s0)
	beq	a5,zero,.L67
	.loc 4 268 15
	li	a5,0
	j	.L70
.L67:
	.loc 4 270 8
	lw	a5,-48(s0)
	beq	a5,zero,.L69
	.loc 4 271 20
	lbu	a4,-22(s0)
	lw	a5,-48(s0)
	sb	a4,0(a5)
.L69:
	.loc 4 274 12
	lbu	a5,-22(s0)
	lw	a4,-44(s0)
	mv	a3,a4
	lbu	a4,-21(s0)
	mv	a2,a4
	mv	a1,a3
	mv	a0,a5
	call	mbedtls_cipher_info_from_values
	mv	a5,a0
.L70:
	.loc 4 275 1
	mv	a0,a5
	lw	ra,44(sp)
	.cfi_restore 1
	lw	s0,40(sp)
	.cfi_restore 8
	.cfi_def_cfa 2, 48
	addi	sp,sp,48
	.cfi_def_cfa_offset 0
	jr	ra
	.cfi_endproc
.LFE99:
	.size	mbedtls_cipher_info_from_psa, .-mbedtls_cipher_info_from_psa
	.section	.text.psa_cipher_setup,"ax",@progbits
	.align	1
	.type	psa_cipher_setup, @function
psa_cipher_setup:
.LFB100:
	.loc 4 286 1
	.cfi_startproc
	addi	sp,sp,-96
	.cfi_def_cfa_offset 96
	sw	ra,92(sp)
	sw	s0,88(sp)
	.cfi_offset 1, -4
	.cfi_offset 8, -8
	addi	s0,sp,96
	.cfi_def_cfa 8, 0
	sw	a0,-68(s0)
	sw	a1,-72(s0)
	sw	a2,-76(s0)
	sw	a3,-80(s0)
	sw	a4,-84(s0)
	sb	a5,-85(s0)
	.loc 4 287 9
	sw	zero,-20(s0)
	.loc 4 289 34
	sw	zero,-24(s0)
	.loc 4 290 20
	lw	a5,-72(s0)
	lhu	a5,0(a5)
	sh	a5,-26(s0)
	.loc 4 294 5
	lw	a5,-68(s0)
	addi	a5,a5,8
	mv	a0,a5
	call	mbedtls_cipher_init
	.loc 4 296 20
	lw	a5,-68(s0)
	lw	a4,-84(s0)
	sw	a4,0(a5)
	.loc 4 297 26
	lw	a5,-72(s0)
	lhu	a5,2(a5)
	.loc 4 297 14
	sw	a5,-32(s0)
	.loc 4 298 19
	lhu	a5,-26(s0)
	li	a3,0
	lw	a2,-32(s0)
	mv	a1,a5
	lw	a0,-84(s0)
	call	mbedtls_cipher_info_from_psa
	sw	a0,-24(s0)
	.loc 4 300 8
	lw	a5,-24(s0)
	bne	a5,zero,.L72
	.loc 4 301 16
	li	a5,-134
	j	.L73
.L72:
	.loc 4 304 11
	lw	a5,-68(s0)
	addi	a5,a5,8
	lw	a1,-24(s0)
	mv	a0,a5
	call	mbedtls_cipher_setup
	sw	a0,-20(s0)
	.loc 4 305 8
	lw	a5,-20(s0)
	bne	a5,zero,.L97
	.loc 4 310 8
	lhu	a4,-26(s0)
	li	a5,8192
	addi	a5,a5,769
	bne	a4,a5,.L76
	.loc 4 310 47 discriminator 1
	lw	a4,-32(s0)
	li	a5,128
	bne	a4,a5,.L76
.LBB2:
	.loc 4 313 9
	addi	a5,s0,-56
	li	a2,16
	lw	a1,-76(s0)
	mv	a0,a5
	call	memcpy
	.loc 4 314 9
	addi	a5,s0,-56
	addi	a5,a5,16
	li	a2,8
	lw	a1,-76(s0)
	mv	a0,a5
	call	memcpy
	.loc 4 315 15
	lw	a5,-68(s0)
	addi	a5,a5,8
	lb	a3,-85(s0)
	addi	a4,s0,-56
	li	a2,192
	mv	a1,a4
	mv	a0,a5
	call	mbedtls_cipher_setkey
	sw	a0,-20(s0)
.LBE2:
	.loc 4 310 67
	j	.L77
.L76:
	.loc 4 321 15
	lw	a5,-68(s0)
	addi	a5,a5,8
	lw	a4,-32(s0)
	lb	a3,-85(s0)
	mv	a2,a4
	lw	a1,-76(s0)
	mv	a0,a5
	call	mbedtls_cipher_setkey
	sw	a0,-20(s0)
.L77:
	.loc 4 324 8
	lw	a5,-20(s0)
	bne	a5,zero,.L98
	.loc 4 330 5
	lw	a4,-84(s0)
	li	a5,71319552
	beq	a4,a5,.L79
	lw	a4,-84(s0)
	li	a5,71319552
	addi	a5,a5,256
	beq	a4,a5,.L80
	j	.L96
.L79:
	.loc 4 332 19
	lw	a5,-68(s0)
	addi	a5,a5,8
	li	a1,4
	mv	a0,a5
	call	mbedtls_cipher_set_padding_mode
	sw	a0,-20(s0)
	.loc 4 334 13
	j	.L82
.L80:
	.loc 4 336 19
	lw	a5,-68(s0)
	addi	a5,a5,8
	li	a1,0
	mv	a0,a5
	call	mbedtls_cipher_set_padding_mode
	sw	a0,-20(s0)
	.loc 4 338 13
	j	.L82
.L96:
	.loc 4 341 17
	sw	zero,-20(s0)
	.loc 4 342 13
	nop
.L82:
	.loc 4 344 8
	lw	a5,-20(s0)
	bne	a5,zero,.L99
	.loc 4 350 40
	lw	a4,-84(s0)
	li	a5,2139095040
	and	a4,a4,a5
	.loc 4 350 29
	li	a5,75497472
	beq	a4,a5,.L84
	.loc 4 351 45
	lhu	a4,-26(s0)
	li	a5,28672
	and	a4,a4,a5
	.loc 4 350 29 discriminator 1
	li	a5,8192
	bne	a4,a5,.L85
	.loc 4 351 130
	lhu	a5,-26(s0)
	srli	a5,a5,8
	slli	a5,a5,16
	srli	a5,a5,16
	andi	a5,a5,7
	.loc 4 351 108
	li	a4,1
	sll	a5,a4,a5
	.loc 4 350 29 discriminator 3
	andi	a5,a5,0xff
	j	.L86
.L85:
	.loc 4 350 29 is_stmt 0 discriminator 4
	li	a5,0
	j	.L86
.L84:
	.loc 4 350 29 discriminator 2
	li	a5,1
.L86:
	.loc 4 350 29 discriminator 5
	lw	a4,-68(s0)
	sb	a5,5(a4)
	.loc 4 352 42 is_stmt 1
	lhu	a4,-26(s0)
	li	a5,28672
	and	a4,a4,a5
	.loc 4 352 26
	li	a5,8192
	bne	a4,a5,.L87
	.loc 4 352 127 discriminator 1
	lhu	a5,-26(s0)
	srli	a5,a5,8
	slli	a5,a5,16
	srli	a5,a5,16
	andi	a5,a5,7
	.loc 4 352 105 discriminator 1
	li	a4,1
	sll	a4,a4,a5
	.loc 4 352 138 discriminator 1
	li	a5,1
	bleu	a4,a5,.L87
	.loc 4 352 142 discriminator 3
	lw	a4,-84(s0)
	li	a5,79695872
	beq	a4,a5,.L88
	.loc 4 352 186 discriminator 6
	lw	a4,-84(s0)
	li	a5,79695872
	addi	a5,a5,256
	beq	a4,a5,.L88
	.loc 4 352 229 discriminator 8
	lw	a4,-84(s0)
	li	a5,79695872
	addi	a5,a5,512
	beq	a4,a5,.L88
	.loc 4 352 272 discriminator 10
	lw	a4,-84(s0)
	li	a5,71368704
	addi	a5,a5,-256
	beq	a4,a5,.L88
	.loc 4 352 315 discriminator 12
	lw	a4,-84(s0)
	li	a5,71319552
	beq	a4,a5,.L88
	.loc 4 352 358 discriminator 14
	lw	a4,-84(s0)
	li	a5,71319552
	addi	a5,a5,256
	bne	a4,a5,.L87
.L88:
	.loc 4 352 417 discriminator 15
	lhu	a4,-26(s0)
	li	a5,28672
	and	a4,a4,a5
	.loc 4 352 26 discriminator 15
	li	a5,8192
	bne	a4,a5,.L89
	.loc 4 352 502 discriminator 17
	lhu	a5,-26(s0)
	srli	a5,a5,8
	slli	a5,a5,16
	srli	a5,a5,16
	andi	a5,a5,7
	.loc 4 352 480 discriminator 17
	li	a4,1
	sll	a5,a4,a5
	.loc 4 352 26 discriminator 17
	andi	a5,a5,0xff
	.loc 4 352 26 is_stmt 0
	j	.L91
.L89:
	.loc 4 352 26 discriminator 18
	li	a5,0
	.loc 4 352 26
	j	.L91
.L87:
	.loc 4 352 26 discriminator 16
	lhu	a4,-26(s0)
	li	a5,8192
	addi	a5,a5,4
	bne	a4,a5,.L92
	.loc 4 352 555 is_stmt 1 discriminator 20
	lw	a4,-84(s0)
	li	a5,75497472
	addi	a5,a5,256
	beq	a4,a5,.L93
.L92:
	.loc 4 352 26 discriminator 21
	lw	a4,-84(s0)
	li	a5,79695872
	addi	a5,a5,768
	bne	a4,a5,.L94
	.loc 4 352 26 is_stmt 0 discriminator 23
	li	a5,13
	.loc 4 352 26
	j	.L91
.L94:
	.loc 4 352 26 discriminator 24
	li	a5,0
	.loc 4 352 26
	j	.L91
.L93:
	.loc 4 352 26 discriminator 22
	li	a5,12
.L91:
	.loc 4 352 26 discriminator 25
	lw	a4,-68(s0)
	sb	a5,4(a4)
	j	.L75
.L97:
	.loc 4 306 9 is_stmt 1
	nop
	j	.L75
.L98:
	.loc 4 325 9
	nop
	j	.L75
.L99:
	.loc 4 345 9
	nop
.L75:
	.loc 4 355 12
	lw	a0,-20(s0)
	call	mbedtls_to_psa_error
	mv	a5,a0
.L73:
	.loc 4 356 1
	mv	a0,a5
	lw	ra,92(sp)
	.cfi_restore 1
	lw	s0,88(sp)
	.cfi_restore 8
	.cfi_def_cfa 2, 96
	addi	sp,sp,96
	.cfi_def_cfa_offset 0
	jr	ra
	.cfi_endproc
.LFE100:
	.size	psa_cipher_setup, .-psa_cipher_setup
	.section	.text.mbedtls_psa_cipher_encrypt_setup,"ax",@progbits
	.align	1
	.globl	mbedtls_psa_cipher_encrypt_setup
	.type	mbedtls_psa_cipher_encrypt_setup, @function
mbedtls_psa_cipher_encrypt_setup:
.LFB101:
	.loc 4 363 1
	.cfi_startproc
	addi	sp,sp,-48
	.cfi_def_cfa_offset 48
	sw	ra,44(sp)
	sw	s0,40(sp)
	.cfi_offset 1, -4
	.cfi_offset 8, -8
	addi	s0,sp,48
	.cfi_def_cfa 8, 0
	sw	a0,-20(s0)
	sw	a1,-24(s0)
	sw	a2,-28(s0)
	sw	a3,-32(s0)
	sw	a4,-36(s0)
	.loc 4 364 12
	li	a5,1
	lw	a4,-36(s0)
	lw	a3,-32(s0)
	lw	a2,-28(s0)
	lw	a1,-24(s0)
	lw	a0,-20(s0)
	call	psa_cipher_setup
	mv	a5,a0
	.loc 4 367 1
	mv	a0,a5
	lw	ra,44(sp)
	.cfi_restore 1
	lw	s0,40(sp)
	.cfi_restore 8
	.cfi_def_cfa 2, 48
	addi	sp,sp,48
	.cfi_def_cfa_offset 0
	jr	ra
	.cfi_endproc
.LFE101:
	.size	mbedtls_psa_cipher_encrypt_setup, .-mbedtls_psa_cipher_encrypt_setup
	.section	.text.mbedtls_psa_cipher_decrypt_setup,"ax",@progbits
	.align	1
	.globl	mbedtls_psa_cipher_decrypt_setup
	.type	mbedtls_psa_cipher_decrypt_setup, @function
mbedtls_psa_cipher_decrypt_setup:
.LFB102:
	.loc 4 374 1
	.cfi_startproc
	addi	sp,sp,-48
	.cfi_def_cfa_offset 48
	sw	ra,44(sp)
	sw	s0,40(sp)
	.cfi_offset 1, -4
	.cfi_offset 8, -8
	addi	s0,sp,48
	.cfi_def_cfa 8, 0
	sw	a0,-20(s0)
	sw	a1,-24(s0)
	sw	a2,-28(s0)
	sw	a3,-32(s0)
	sw	a4,-36(s0)
	.loc 4 375 12
	li	a5,0
	lw	a4,-36(s0)
	lw	a3,-32(s0)
	lw	a2,-28(s0)
	lw	a1,-24(s0)
	lw	a0,-20(s0)
	call	psa_cipher_setup
	mv	a5,a0
	.loc 4 378 1
	mv	a0,a5
	lw	ra,44(sp)
	.cfi_restore 1
	lw	s0,40(sp)
	.cfi_restore 8
	.cfi_def_cfa 2, 48
	addi	sp,sp,48
	.cfi_def_cfa_offset 0
	jr	ra
	.cfi_endproc
.LFE102:
	.size	mbedtls_psa_cipher_decrypt_setup, .-mbedtls_psa_cipher_decrypt_setup
	.section	.text.mbedtls_psa_cipher_set_iv,"ax",@progbits
	.align	1
	.globl	mbedtls_psa_cipher_set_iv
	.type	mbedtls_psa_cipher_set_iv, @function
mbedtls_psa_cipher_set_iv:
.LFB103:
	.loc 4 383 1
	.cfi_startproc
	addi	sp,sp,-32
	.cfi_def_cfa_offset 32
	sw	ra,28(sp)
	sw	s0,24(sp)
	.cfi_offset 1, -4
	.cfi_offset 8, -8
	addi	s0,sp,32
	.cfi_def_cfa 8, 0
	sw	a0,-20(s0)
	sw	a1,-24(s0)
	sw	a2,-28(s0)
	.loc 4 384 31
	lw	a5,-20(s0)
	lbu	a5,4(a5)
	mv	a4,a5
	.loc 4 384 8
	lw	a5,-28(s0)
	beq	a5,a4,.L105
	.loc 4 385 16
	li	a5,-135
	j	.L106
.L105:
	.loc 4 388 12
	lw	a5,-20(s0)
	addi	a5,a5,8
	lw	a2,-28(s0)
	lw	a1,-24(s0)
	mv	a0,a5
	call	mbedtls_cipher_set_iv
	mv	a5,a0
	.loc 4 388 12 is_stmt 0 discriminator 1
	mv	a0,a5
	call	mbedtls_to_psa_error
	mv	a5,a0
.L106:
	.loc 4 391 1 is_stmt 1
	mv	a0,a5
	lw	ra,28(sp)
	.cfi_restore 1
	lw	s0,24(sp)
	.cfi_restore 8
	.cfi_def_cfa 2, 32
	addi	sp,sp,32
	.cfi_def_cfa_offset 0
	jr	ra
	.cfi_endproc
.LFE103:
	.size	mbedtls_psa_cipher_set_iv, .-mbedtls_psa_cipher_set_iv
	.section	.text.psa_cipher_update_ecb,"ax",@progbits
	.align	1
	.type	psa_cipher_update_ecb, @function
psa_cipher_update_ecb:
.LFB104:
	.loc 4 423 1
	.cfi_startproc
	addi	sp,sp,-64
	.cfi_def_cfa_offset 64
	sw	ra,60(sp)
	sw	s0,56(sp)
	.cfi_offset 1, -4
	.cfi_offset 8, -8
	addi	s0,sp,64
	.cfi_def_cfa 8, 0
	sw	a0,-36(s0)
	sw	a1,-40(s0)
	sw	a2,-44(s0)
	sw	a3,-48(s0)
	sw	a4,-52(s0)
	.loc 4 424 18
	li	a5,-151
	sw	a5,-20(s0)
	.loc 4 425 25
	lw	a5,-36(s0)
	lw	a5,0(a5)
	mv	a0,a5
	call	mbedtls_cipher_info_get_block_size
	sw	a0,-28(s0)
	.loc 4 426 12
	sw	zero,-32(s0)
	.loc 4 427 20
	lw	a5,-52(s0)
	sw	zero,0(a5)
	.loc 4 429 8
	lw	a5,-44(s0)
	bne	a5,zero,.L108
	.loc 4 430 16
	sw	zero,-20(s0)
	.loc 4 431 9
	j	.L109
.L108:
	.loc 4 434 12
	lw	a5,-36(s0)
	lw	a5,36(a5)
	.loc 4 434 8
	beq	a5,zero,.L113
.LBB3:
	.loc 4 436 48
	lw	a5,-36(s0)
	lw	a5,36(a5)
	.loc 4 436 16
	lw	a4,-28(s0)
	sub	a5,a4,a5
	sw	a5,-24(s0)
	.loc 4 438 12
	lw	a4,-44(s0)
	lw	a5,-24(s0)
	bgeu	a4,a5,.L111
	.loc 4 439 27
	lw	a5,-44(s0)
	sw	a5,-24(s0)
.L111:
	.loc 4 442 43
	lw	a5,-36(s0)
	lw	a5,36(a5)
	.loc 4 442 16
	addi	a5,a5,16
	lw	a4,-36(s0)
	add	a5,a4,a5
	addi	a5,a5,4
	.loc 4 442 9
	lw	a2,-24(s0)
	lw	a1,-40(s0)
	mv	a0,a5
	call	memcpy
	.loc 4 444 22
	lw	a4,-44(s0)
	lw	a5,-24(s0)
	sub	a5,a4,a5
	sw	a5,-44(s0)
	.loc 4 445 15
	lw	a4,-40(s0)
	lw	a5,-24(s0)
	add	a5,a4,a5
	sw	a5,-40(s0)
	.loc 4 446 12
	lw	a5,-36(s0)
	lw	a4,36(a5)
	.loc 4 446 30
	lw	a5,-24(s0)
	add	a4,a4,a5
	lw	a5,-36(s0)
	sw	a4,36(a5)
	.loc 4 448 16
	lw	a5,-36(s0)
	lw	a5,36(a5)
	.loc 4 448 12
	lw	a4,-28(s0)
	bne	a4,a5,.L113
	.loc 4 451 42
	lw	a5,-36(s0)
	addi	a5,a5,20
	.loc 4 449 22
	addi	a4,s0,-32
	lw	a3,-48(s0)
	lw	a2,-28(s0)
	mv	a1,a5
	lw	a0,-36(s0)
	call	mbedtls_cipher_update
	mv	a5,a0
	.loc 4 449 22 is_stmt 0 discriminator 1
	mv	a0,a5
	call	mbedtls_to_psa_error
	sw	a0,-20(s0)
	.loc 4 455 16 is_stmt 1
	lw	a5,-20(s0)
	bne	a5,zero,.L118
	.loc 4 459 20
	lw	a5,-32(s0)
	lw	a4,-48(s0)
	add	a5,a4,a5
	sw	a5,-48(s0)
	.loc 4 460 13
	lw	a5,-52(s0)
	lw	a4,0(a5)
	.loc 4 460 28
	lw	a5,-32(s0)
	add	a4,a4,a5
	lw	a5,-52(s0)
	sw	a4,0(a5)
	.loc 4 461 34
	lw	a5,-36(s0)
	sw	zero,36(a5)
.LBE3:
	.loc 4 465 11
	j	.L113
.L115:
	.loc 4 467 18
	addi	a5,s0,-32
	mv	a4,a5
	lw	a3,-48(s0)
	lw	a2,-28(s0)
	lw	a1,-40(s0)
	lw	a0,-36(s0)
	call	mbedtls_cipher_update
	mv	a5,a0
	.loc 4 467 18 is_stmt 0 discriminator 1
	mv	a0,a5
	call	mbedtls_to_psa_error
	sw	a0,-20(s0)
	.loc 4 472 12 is_stmt 1
	lw	a5,-20(s0)
	bne	a5,zero,.L119
	.loc 4 476 22
	lw	a4,-44(s0)
	lw	a5,-28(s0)
	sub	a5,a4,a5
	sw	a5,-44(s0)
	.loc 4 477 15
	lw	a4,-40(s0)
	lw	a5,-28(s0)
	add	a5,a4,a5
	sw	a5,-40(s0)
	.loc 4 479 16
	lw	a5,-32(s0)
	lw	a4,-48(s0)
	add	a5,a4,a5
	sw	a5,-48(s0)
	.loc 4 480 9
	lw	a5,-52(s0)
	lw	a4,0(a5)
	.loc 4 480 24
	lw	a5,-32(s0)
	add	a4,a4,a5
	lw	a5,-52(s0)
	sw	a4,0(a5)
.L113:
	.loc 4 465 25
	lw	a4,-44(s0)
	lw	a5,-28(s0)
	bgeu	a4,a5,.L115
	.loc 4 483 8
	lw	a5,-44(s0)
	beq	a5,zero,.L116
	.loc 4 485 43
	lw	a5,-36(s0)
	lw	a5,36(a5)
	.loc 4 485 16
	addi	a5,a5,16
	lw	a4,-36(s0)
	add	a5,a4,a5
	addi	a5,a5,4
	.loc 4 485 9
	lw	a2,-44(s0)
	lw	a1,-40(s0)
	mv	a0,a5
	call	memcpy
	.loc 4 487 12
	lw	a5,-36(s0)
	lw	a4,36(a5)
	.loc 4 487 30
	lw	a5,-44(s0)
	add	a4,a4,a5
	lw	a5,-36(s0)
	sw	a4,36(a5)
.L116:
	.loc 4 490 12
	sw	zero,-20(s0)
	j	.L109
.L118:
.LBB4:
	.loc 4 456 17
	nop
	j	.L109
.L119:
.LBE4:
	.loc 4 473 13
	nop
.L109:
	.loc 4 493 12
	lw	a5,-20(s0)
	.loc 4 494 1
	mv	a0,a5
	lw	ra,60(sp)
	.cfi_restore 1
	lw	s0,56(sp)
	.cfi_restore 8
	.cfi_def_cfa 2, 64
	addi	sp,sp,64
	.cfi_def_cfa_offset 0
	jr	ra
	.cfi_endproc
.LFE104:
	.size	psa_cipher_update_ecb, .-psa_cipher_update_ecb
	.section	.text.mbedtls_psa_cipher_update,"ax",@progbits
	.align	1
	.globl	mbedtls_psa_cipher_update
	.type	mbedtls_psa_cipher_update, @function
mbedtls_psa_cipher_update:
.LFB105:
	.loc 4 501 1
	.cfi_startproc
	addi	sp,sp,-64
	.cfi_def_cfa_offset 64
	sw	ra,60(sp)
	sw	s0,56(sp)
	.cfi_offset 1, -4
	.cfi_offset 8, -8
	addi	s0,sp,64
	.cfi_def_cfa 8, 0
	sw	a0,-36(s0)
	sw	a1,-40(s0)
	sw	a2,-44(s0)
	sw	a3,-48(s0)
	sw	a4,-52(s0)
	sw	a5,-56(s0)
	.loc 4 502 18
	li	a5,-151
	sw	a5,-20(s0)
	.loc 4 505 22
	lw	a5,-36(s0)
	lw	a4,0(a5)
	.loc 4 505 29
	li	a5,2139095040
	and	a4,a4,a5
	.loc 4 505 8
	li	a5,75497472
	beq	a4,a5,.L121
	.loc 4 511 35
	lw	a5,-36(s0)
	lw	a4,44(a5)
	.loc 4 511 52
	lw	a5,-44(s0)
	add	a5,a4,a5
	.loc 4 512 24
	lw	a4,-36(s0)
	lbu	a4,5(a4)
	.loc 4 512 13
	divu	a5,a5,a4
	.loc 4 512 50
	lw	a4,-36(s0)
	lbu	a4,5(a4)
	.loc 4 510 30
	mul	a5,a5,a4
	sw	a5,-24(s0)
	j	.L122
.L121:
	.loc 4 514 30
	lw	a5,-44(s0)
	sw	a5,-24(s0)
.L122:
	.loc 4 517 8
	lw	a4,-52(s0)
	lw	a5,-24(s0)
	bgeu	a4,a5,.L123
	.loc 4 518 16
	li	a5,-138
	j	.L124
.L123:
	.loc 4 522 18
	lw	a5,-36(s0)
	lw	a4,0(a5)
	.loc 4 522 8
	li	a5,71319552
	addi	a5,a5,1024
	bne	a4,a5,.L125
	.loc 4 526 18
	lw	a5,-36(s0)
	addi	a5,a5,8
	lw	a4,-56(s0)
	lw	a3,-48(s0)
	lw	a2,-44(s0)
	lw	a1,-40(s0)
	mv	a0,a5
	call	psa_cipher_update_ecb
	sw	a0,-20(s0)
	j	.L126
.L125:
	.loc 4 533 8
	lw	a5,-44(s0)
	bne	a5,zero,.L127
	.loc 4 535 24
	lw	a5,-56(s0)
	sw	zero,0(a5)
	.loc 4 536 16
	sw	zero,-20(s0)
	j	.L126
.L127:
	.loc 4 538 18
	lw	a5,-36(s0)
	addi	a5,a5,8
	lw	a4,-56(s0)
	lw	a3,-48(s0)
	lw	a2,-44(s0)
	lw	a1,-40(s0)
	mv	a0,a5
	call	mbedtls_cipher_update
	mv	a5,a0
	.loc 4 538 18 is_stmt 0 discriminator 1
	mv	a0,a5
	call	mbedtls_to_psa_error
	sw	a0,-20(s0)
	.loc 4 542 13 is_stmt 1
	lw	a5,-56(s0)
	lw	a5,0(a5)
	.loc 4 542 12
	lw	a4,-52(s0)
	bgeu	a4,a5,.L126
	.loc 4 543 20
	li	a5,-151
	j	.L124
.L126:
	.loc 4 547 12
	lw	a5,-20(s0)
.L124:
	.loc 4 548 1
	mv	a0,a5
	lw	ra,60(sp)
	.cfi_restore 1
	lw	s0,56(sp)
	.cfi_restore 8
	.cfi_def_cfa 2, 64
	addi	sp,sp,64
	.cfi_def_cfa_offset 0
	jr	ra
	.cfi_endproc
.LFE105:
	.size	mbedtls_psa_cipher_update, .-mbedtls_psa_cipher_update
	.section	.text.mbedtls_psa_cipher_finish,"ax",@progbits
	.align	1
	.globl	mbedtls_psa_cipher_finish
	.type	mbedtls_psa_cipher_finish, @function
mbedtls_psa_cipher_finish:
.LFB106:
	.loc 4 553 1
	.cfi_startproc
	addi	sp,sp,-64
	.cfi_def_cfa_offset 64
	sw	ra,60(sp)
	sw	s0,56(sp)
	.cfi_offset 1, -4
	.cfi_offset 8, -8
	addi	s0,sp,64
	.cfi_def_cfa 8, 0
	sw	a0,-52(s0)
	sw	a1,-56(s0)
	sw	a2,-60(s0)
	sw	a3,-64(s0)
	.loc 4 554 18
	li	a5,-132
	sw	a5,-20(s0)
	.loc 4 555 12
	sw	zero,-28(s0)
	.loc 4 564 13
	sw	zero,-44(s0)
	sw	zero,-40(s0)
	sw	zero,-36(s0)
	sw	zero,-32(s0)
	.loc 4 565 8
	lw	a4,-60(s0)
	li	a5,16
	bleu	a4,a5,.L129
	.loc 4 566 21
	li	a5,16
	sw	a5,-60(s0)
.L129:
	.loc 4 569 30
	lw	a5,-52(s0)
	lw	a5,44(a5)
	.loc 4 569 8
	beq	a5,zero,.L130
	.loc 4 570 22
	lw	a5,-52(s0)
	lw	a4,0(a5)
	.loc 4 570 12
	li	a5,71319552
	addi	a5,a5,1024
	beq	a4,a5,.L131
	.loc 4 571 22
	lw	a5,-52(s0)
	lw	a4,0(a5)
	.loc 4 570 62 discriminator 1
	li	a5,71319552
	bne	a4,a5,.L130
.L131:
	.loc 4 572 20
	li	a5,-135
	sw	a5,-20(s0)
	.loc 4 573 13
	j	.L132
.L130:
	.loc 4 577 14
	lw	a5,-52(s0)
	addi	a5,a5,8
	addi	a3,s0,-28
	addi	a4,s0,-44
	lw	a2,-64(s0)
	mv	a1,a4
	mv	a0,a5
	call	mbedtls_cipher_finish_padded
	mv	a5,a0
	.loc 4 577 14 is_stmt 0 discriminator 1
	mv	a0,a5
	call	mbedtls_to_psa_error
	sw	a0,-20(s0)
	.loc 4 582 8 is_stmt 1
	lw	a5,-20(s0)
	bne	a5,zero,.L136
	.loc 4 586 8
	lw	a5,-60(s0)
	beq	a5,zero,.L134
	.loc 4 592 9
	addi	a5,s0,-44
	lw	a2,-60(s0)
	mv	a1,a5
	lw	a0,-56(s0)
	call	memcpy
.L134:
	.loc 4 595 14
	lw	a5,-28(s0)
	li	a1,-150
	mv	a0,a5
	call	mbedtls_ct_error_if_else_0
	sw	a0,-20(s0)
	.loc 4 598 9
	lw	a5,-64(s0)
	lw	a5,0(a5)
	mv	a1,a5
	lw	a0,-60(s0)
	call	mbedtls_ct_uint_lt
	sw	a0,-24(s0)
	.loc 4 599 14
	lw	a2,-20(s0)
	li	a1,-138
	lw	a0,-24(s0)
	call	mbedtls_ct_error_if
	sw	a0,-20(s0)
	j	.L132
.L136:
	.loc 4 583 9
	nop
.L132:
	.loc 4 604 5
	addi	a5,s0,-44
	li	a1,16
	mv	a0,a5
	call	mbedtls_platform_zeroize
	.loc 4 606 12
	lw	a5,-20(s0)
	.loc 4 607 1
	mv	a0,a5
	lw	ra,60(sp)
	.cfi_restore 1
	lw	s0,56(sp)
	.cfi_restore 8
	.cfi_def_cfa 2, 64
	addi	sp,sp,64
	.cfi_def_cfa_offset 0
	jr	ra
	.cfi_endproc
.LFE106:
	.size	mbedtls_psa_cipher_finish, .-mbedtls_psa_cipher_finish
	.section	.text.mbedtls_psa_cipher_abort,"ax",@progbits
	.align	1
	.globl	mbedtls_psa_cipher_abort
	.type	mbedtls_psa_cipher_abort, @function
mbedtls_psa_cipher_abort:
.LFB107:
	.loc 4 611 1
	.cfi_startproc
	addi	sp,sp,-32
	.cfi_def_cfa_offset 32
	sw	ra,28(sp)
	sw	s0,24(sp)
	.cfi_offset 1, -4
	.cfi_offset 8, -8
	addi	s0,sp,32
	.cfi_def_cfa 8, 0
	sw	a0,-20(s0)
	.loc 4 614 22
	lw	a5,-20(s0)
	lw	a4,0(a5)
	.loc 4 614 29
	li	a5,2130706432
	and	a4,a4,a5
	.loc 4 614 8
	li	a5,67108864
	beq	a4,a5,.L138
	.loc 4 615 16
	li	a5,-137
	j	.L139
.L138:
	.loc 4 618 5
	lw	a5,-20(s0)
	addi	a5,a5,8
	mv	a0,a5
	call	mbedtls_cipher_free
	.loc 4 620 12
	li	a5,0
.L139:
	.loc 4 621 1
	mv	a0,a5
	lw	ra,28(sp)
	.cfi_restore 1
	lw	s0,24(sp)
	.cfi_restore 8
	.cfi_def_cfa 2, 32
	addi	sp,sp,32
	.cfi_def_cfa_offset 0
	jr	ra
	.cfi_endproc
.LFE107:
	.size	mbedtls_psa_cipher_abort, .-mbedtls_psa_cipher_abort
	.section	.text.mbedtls_psa_cipher_encrypt,"ax",@progbits
	.align	1
	.globl	mbedtls_psa_cipher_encrypt
	.type	mbedtls_psa_cipher_encrypt, @function
mbedtls_psa_cipher_encrypt:
.LFB108:
	.loc 4 635 1
	.cfi_startproc
	addi	sp,sp,-144
	.cfi_def_cfa_offset 144
	sw	ra,140(sp)
	sw	s0,136(sp)
	.cfi_offset 1, -4
	.cfi_offset 8, -8
	addi	s0,sp,144
	.cfi_def_cfa 8, 0
	sw	a0,-116(s0)
	sw	a1,-120(s0)
	sw	a2,-124(s0)
	sw	a3,-128(s0)
	sw	a4,-132(s0)
	sw	a5,-136(s0)
	sw	a6,-140(s0)
	sw	a7,-144(s0)
	.loc 4 636 18
	li	a5,-151
	sw	a5,-20(s0)
	.loc 4 637 36
	sw	zero,-96(s0)
	sb	zero,-92(s0)
	sb	zero,-91(s0)
	sw	zero,-88(s0)
	.loc 4 640 14
	addi	a5,s0,-96
	lw	a4,-128(s0)
	lw	a3,-124(s0)
	lw	a2,-120(s0)
	lw	a1,-116(s0)
	mv	a0,a5
	call	mbedtls_psa_cipher_encrypt_setup
	sw	a0,-20(s0)
	.loc 4 643 8
	lw	a5,-20(s0)
	bne	a5,zero,.L149
	.loc 4 647 8
	lw	a5,-136(s0)
	beq	a5,zero,.L143
	.loc 4 648 18
	addi	a5,s0,-96
	lw	a2,-136(s0)
	lw	a1,-132(s0)
	mv	a0,a5
	call	mbedtls_psa_cipher_set_iv
	sw	a0,-20(s0)
	.loc 4 649 12
	lw	a5,-20(s0)
	bne	a5,zero,.L150
.L143:
	.loc 4 654 14
	addi	a5,s0,-100
	addi	a0,s0,-96
	lw	a4,4(s0)
	lw	a3,0(s0)
	lw	a2,-144(s0)
	lw	a1,-140(s0)
	call	mbedtls_psa_cipher_update
	sw	a0,-20(s0)
	.loc 4 657 8
	lw	a5,-20(s0)
	bne	a5,zero,.L151
	.loc 4 661 14
	lw	a5,-100(s0)
	.loc 4 663 9
	mv	a1,a5
	lw	a0,0(s0)
	call	mbedtls_buffer_offset
	mv	a1,a0
	.loc 4 661 14
	lw	a5,-100(s0)
	lw	a4,4(s0)
	sub	a4,a4,a5
	addi	a3,s0,-104
	addi	a5,s0,-96
	mv	a2,a4
	mv	a0,a5
	call	mbedtls_psa_cipher_finish
	sw	a0,-20(s0)
	.loc 4 665 8
	lw	a5,-20(s0)
	bne	a5,zero,.L152
	.loc 4 669 43
	lw	a4,-100(s0)
	lw	a5,-104(s0)
	add	a4,a4,a5
	.loc 4 669 20
	lw	a5,8(s0)
	sw	a4,0(a5)
	j	.L142
.L149:
	.loc 4 644 9
	nop
	j	.L142
.L150:
	.loc 4 650 13
	nop
	j	.L142
.L151:
	.loc 4 658 9
	nop
	j	.L142
.L152:
	.loc 4 666 9
	nop
.L142:
	.loc 4 672 8
	lw	a5,-20(s0)
	bne	a5,zero,.L146
	.loc 4 673 18
	addi	a5,s0,-96
	mv	a0,a5
	call	mbedtls_psa_cipher_abort
	sw	a0,-20(s0)
	j	.L147
.L146:
	.loc 4 675 9
	addi	a5,s0,-96
	mv	a0,a5
	call	mbedtls_psa_cipher_abort
.L147:
	.loc 4 678 12
	lw	a5,-20(s0)
	.loc 4 679 1
	mv	a0,a5
	lw	ra,140(sp)
	.cfi_restore 1
	lw	s0,136(sp)
	.cfi_restore 8
	.cfi_def_cfa 2, 144
	addi	sp,sp,144
	.cfi_def_cfa_offset 0
	jr	ra
	.cfi_endproc
.LFE108:
	.size	mbedtls_psa_cipher_encrypt, .-mbedtls_psa_cipher_encrypt
	.section	.text.mbedtls_psa_cipher_decrypt,"ax",@progbits
	.align	1
	.globl	mbedtls_psa_cipher_decrypt
	.type	mbedtls_psa_cipher_decrypt, @function
mbedtls_psa_cipher_decrypt:
.LFB109:
	.loc 4 691 1
	.cfi_startproc
	addi	sp,sp,-144
	.cfi_def_cfa_offset 144
	sw	ra,140(sp)
	sw	s0,136(sp)
	.cfi_offset 1, -4
	.cfi_offset 8, -8
	addi	s0,sp,144
	.cfi_def_cfa 8, 0
	sw	a0,-116(s0)
	sw	a1,-120(s0)
	sw	a2,-124(s0)
	sw	a3,-128(s0)
	sw	a4,-132(s0)
	sw	a5,-136(s0)
	sw	a6,-140(s0)
	sw	a7,-144(s0)
	.loc 4 692 18
	li	a5,-151
	sw	a5,-20(s0)
	.loc 4 693 36
	sw	zero,-104(s0)
	sb	zero,-100(s0)
	sb	zero,-99(s0)
	sw	zero,-96(s0)
	.loc 4 696 14
	addi	a5,s0,-104
	lw	a4,-128(s0)
	lw	a3,-124(s0)
	lw	a2,-120(s0)
	lw	a1,-116(s0)
	mv	a0,a5
	call	mbedtls_psa_cipher_decrypt_setup
	sw	a0,-20(s0)
	.loc 4 699 8
	lw	a5,-20(s0)
	bne	a5,zero,.L160
	.loc 4 703 18
	lbu	a5,-100(s0)
	.loc 4 703 8
	beq	a5,zero,.L156
	.loc 4 705 60
	lbu	a5,-100(s0)
	.loc 4 704 18
	mv	a4,a5
	addi	a5,s0,-104
	mv	a2,a4
	lw	a1,-132(s0)
	mv	a0,a5
	call	mbedtls_psa_cipher_set_iv
	sw	a0,-20(s0)
	.loc 4 706 12
	lw	a5,-20(s0)
	bne	a5,zero,.L161
.L156:
	.loc 4 713 53
	lbu	a5,-100(s0)
	.loc 4 713 9
	mv	a1,a5
	lw	a0,-132(s0)
	call	mbedtls_buffer_offset_const
	mv	a1,a0
	.loc 4 714 33
	lbu	a5,-100(s0)
	mv	a4,a5
	.loc 4 711 14
	lw	a5,-136(s0)
	sub	a2,a5,a4
	addi	a5,s0,-108
	addi	a0,s0,-104
	lw	a4,-144(s0)
	lw	a3,-140(s0)
	call	mbedtls_psa_cipher_update
	sw	a0,-20(s0)
	.loc 4 716 8
	lw	a5,-20(s0)
	bne	a5,zero,.L162
	.loc 4 720 24
	lw	a5,-108(s0)
	sw	a5,-24(s0)
	.loc 4 724 9
	lw	a1,-24(s0)
	lw	a0,-140(s0)
	call	mbedtls_buffer_offset
	mv	a1,a0
	.loc 4 722 14
	lw	a4,-144(s0)
	lw	a5,-24(s0)
	sub	a4,a4,a5
	addi	a3,s0,-108
	addi	a5,s0,-104
	mv	a2,a4
	mv	a0,a5
	call	mbedtls_psa_cipher_finish
	sw	a0,-20(s0)
	.loc 4 727 41
	lw	a4,-108(s0)
	lw	a5,-24(s0)
	add	a4,a4,a5
	.loc 4 727 20
	lw	a5,0(s0)
	sw	a4,0(a5)
	j	.L155
.L160:
	.loc 4 700 9
	nop
	j	.L155
.L161:
	.loc 4 707 13
	nop
	j	.L155
.L162:
	.loc 4 717 9
	nop
.L155:
	.loc 4 731 33
	addi	a5,s0,-104
	mv	a0,a5
	call	mbedtls_psa_cipher_abort
	sw	a0,-28(s0)
	.loc 4 739 8
	lw	a5,-28(s0)
	beq	a5,zero,.L158
	.loc 4 740 16
	lw	a5,-28(s0)
	sw	a5,-20(s0)
.L158:
	.loc 4 743 12
	lw	a5,-20(s0)
	.loc 4 744 1
	mv	a0,a5
	lw	ra,140(sp)
	.cfi_restore 1
	lw	s0,136(sp)
	.cfi_restore 8
	.cfi_def_cfa 2, 144
	addi	sp,sp,144
	.cfi_def_cfa_offset 0
	jr	ra
	.cfi_endproc
.LFE109:
	.size	mbedtls_psa_cipher_decrypt, .-mbedtls_psa_cipher_decrypt
	.text
.Letext0:
	.file 5 "/home/chandu/sdk/bl602_iot_sdk/toolchain/compiler/lib/gcc/riscv32-unknown-elf/15.1.0/include/stddef.h"
	.file 6 "/home/chandu/sdk/bl602_iot_sdk/toolchain/compiler/lib/gcc/riscv32-unknown-elf/15.1.0/include/stdint-gcc.h"
	.file 7 "/home/chandu/sdk/bl602_iot_sdk/components/security/mbedtls-bl602/include/mbedtls/cmac.h"
	.file 8 "/home/chandu/sdk/bl602_iot_sdk/components/security/mbedtls-bl602/include/psa/crypto_types.h"
	.file 9 "/home/chandu/sdk/bl602_iot_sdk/components/security/mbedtls-bl602/include/psa/crypto_struct.h"
	.file 10 "/home/chandu/sdk/bl602_iot_sdk/components/security/mbedtls-bl602/include/psa/crypto_builtin_primitives.h"
	.file 11 "/home/chandu/sdk/bl602_iot_sdk/components/security/mbedtls-bl602/library/constant_time_internal.h"
	.file 12 "/home/chandu/sdk/bl602_iot_sdk/components/security/mbedtls-bl602/include/mbedtls/platform_util.h"
	.file 13 "/home/chandu/sdk/bl602_iot_sdk/components/security/mbedtls-bl602/library/psa_crypto_core.h"
	.file 14 "/home/chandu/sdk/bl602_iot_sdk/toolchain/compiler/riscv32-unknown-elf/include/string.h"
	.section	.note.GNU-stack,"",@progbits
