	.file	"psa_crypto_pake.c"
	.option nopic
	.attribute arch, "rv32i2p1_m2p0_f2p2_c2p0_zicsr2p0_zmmul1p0_zca1p0_zcf1p0"
	.attribute unaligned_access, 0
	.attribute stack_align, 16
	.text
.Ltext0:
	.cfi_sections	.debug_frame
	.file 0 "/home/chandu/sdk/bl602_iot_sdk/customer_app/suas_app_pqkem_gateway/build_out/mbedtls-bl602" "/home/chandu/sdk/bl602_iot_sdk/components/security/mbedtls-bl602/library/psa_crypto_pake.c"
	.section	.text.psa_pake_cipher_suite_init,"ax",@progbits
	.align	1
	.type	psa_pake_cipher_suite_init, @function
psa_pake_cipher_suite_init:
.LFB64:
	.file 1 "/home/chandu/sdk/bl602_iot_sdk/components/security/mbedtls-bl602/include/psa/crypto_extra.h"
	.loc 1 1962 1
	.cfi_startproc
	addi	sp,sp,-48
	.cfi_def_cfa_offset 48
	sw	ra,44(sp)
	sw	s0,40(sp)
	.cfi_offset 1, -4
	.cfi_offset 8, -8
	addi	s0,sp,48
	.cfi_def_cfa 8, 0
	sw	a0,-36(s0)
	.loc 1 1963 42
	sw	zero,-28(s0)
	sb	zero,-24(s0)
	sb	zero,-23(s0)
	sh	zero,-22(s0)
	sw	zero,-20(s0)
	.loc 1 1964 12
	lw	a5,-36(s0)
	lw	a4,-28(s0)
	sw	a4,0(a5)
	lw	a4,-24(s0)
	sw	a4,4(a5)
	lw	a4,-20(s0)
	sw	a4,8(a5)
	.loc 1 1965 1
	lw	a0,-36(s0)
	lw	ra,44(sp)
	.cfi_restore 1
	lw	s0,40(sp)
	.cfi_restore 8
	.cfi_def_cfa 2, 48
	addi	sp,sp,48
	.cfi_def_cfa_offset 0
	jr	ra
	.cfi_endproc
.LFE64:
	.size	psa_pake_cipher_suite_init, .-psa_pake_cipher_suite_init
	.section	.text.mbedtls_ecjpake_to_psa_error,"ax",@progbits
	.align	1
	.type	mbedtls_ecjpake_to_psa_error, @function
mbedtls_ecjpake_to_psa_error:
.LFB77:
	.file 2 "/home/chandu/sdk/bl602_iot_sdk/components/security/mbedtls-bl602/library/psa_crypto_pake.c"
	.loc 2 106 1
	.cfi_startproc
	addi	sp,sp,-32
	.cfi_def_cfa_offset 32
	sw	ra,28(sp)
	sw	s0,24(sp)
	.cfi_offset 1, -4
	.cfi_offset 8, -8
	addi	s0,sp,32
	.cfi_def_cfa 8, 0
	sw	a0,-20(s0)
	.loc 2 107 5
	lw	a4,-20(s0)
	li	a5,-4
	beq	a4,a5,.L4
	lw	a4,-20(s0)
	li	a5,-4
	bgt	a4,a5,.L5
	lw	a4,-20(s0)
	li	a5,-8
	beq	a4,a5,.L6
	lw	a4,-20(s0)
	li	a5,-8
	bgt	a4,a5,.L5
	lw	a4,-20(s0)
	li	a5,-110
	beq	a4,a5,.L7
	lw	a4,-20(s0)
	li	a5,-110
	bgt	a4,a5,.L5
	lw	a4,-20(s0)
	li	a5,-20480
	addi	a5,a5,896
	beq	a4,a5,.L4
	lw	a4,-20(s0)
	li	a5,-20480
	addi	a5,a5,896
	bgt	a4,a5,.L5
	lw	a4,-20(s0)
	li	a5,-20480
	addi	a5,a5,512
	beq	a4,a5,.L4
	lw	a4,-20(s0)
	li	a5,-20480
	addi	a5,a5,512
	bgt	a4,a5,.L5
	lw	a4,-20(s0)
	li	a5,-20480
	addi	a5,a5,256
	beq	a4,a5,.L6
	lw	a4,-20(s0)
	li	a5,-20480
	addi	a5,a5,256
	bgt	a4,a5,.L5
	lw	a4,-20(s0)
	li	a5,-20480
	addi	a5,a5,-128
	beq	a4,a5,.L8
	lw	a4,-20(s0)
	li	a5,-20480
	addi	a5,a5,128
	bne	a4,a5,.L5
.L4:
	.loc 2 112 20
	li	a5,-153
	j	.L9
.L6:
	.loc 2 115 20
	li	a5,-138
	j	.L9
.L8:
	.loc 2 117 20
	li	a5,-134
	j	.L9
.L7:
	.loc 2 119 20
	li	a5,-151
	j	.L9
.L5:
	.loc 2 121 20
	li	a5,-132
.L9:
	.loc 2 123 1
	mv	a0,a5
	lw	ra,28(sp)
	.cfi_restore 1
	lw	s0,24(sp)
	.cfi_restore 8
	.cfi_def_cfa 2, 32
	addi	sp,sp,32
	.cfi_def_cfa_offset 0
	jr	ra
	.cfi_endproc
.LFE77:
	.size	mbedtls_ecjpake_to_psa_error, .-mbedtls_ecjpake_to_psa_error
	.section	.text.psa_pake_ecjpake_setup,"ax",@progbits
	.align	1
	.type	psa_pake_ecjpake_setup, @function
psa_pake_ecjpake_setup:
.LFB78:
	.loc 2 129 1
	.cfi_startproc
	addi	sp,sp,-48
	.cfi_def_cfa_offset 48
	sw	ra,44(sp)
	sw	s0,40(sp)
	.cfi_offset 1, -4
	.cfi_offset 8, -8
	addi	s0,sp,48
	.cfi_def_cfa 8, 0
	sw	a0,-36(s0)
	.loc 2 130 9
	li	a5,-110
	sw	a5,-20(s0)
	.loc 2 132 5
	lw	a5,-36(s0)
	addi	a5,a5,360
	mv	a0,a5
	call	mbedtls_ecjpake_init
	.loc 2 134 11
	lw	a5,-36(s0)
	addi	a0,a5,360
	lw	a5,-36(s0)
	lbu	a1,12(a5)
	.loc 2 138 42
	lw	a5,-36(s0)
	lw	a4,4(a5)
	.loc 2 134 11
	lw	a5,-36(s0)
	lw	a5,8(a5)
	li	a3,3
	li	a2,9
	call	mbedtls_ecjpake_setup
	sw	a0,-20(s0)
	.loc 2 141 39
	lw	a5,-36(s0)
	lw	a4,4(a5)
	.loc 2 141 5
	lw	a5,-36(s0)
	lw	a5,8(a5)
	mv	a1,a5
	mv	a0,a4
	call	mbedtls_platform_zeroize
	.loc 2 143 8
	lw	a5,-20(s0)
	beq	a5,zero,.L11
	.loc 2 144 16
	lw	a0,-20(s0)
	call	mbedtls_ecjpake_to_psa_error
	mv	a5,a0
	j	.L12
.L11:
	.loc 2 147 12
	li	a5,0
.L12:
	.loc 2 148 1
	mv	a0,a5
	lw	ra,44(sp)
	.cfi_restore 1
	lw	s0,40(sp)
	.cfi_restore 8
	.cfi_def_cfa 2, 48
	addi	sp,sp,48
	.cfi_def_cfa_offset 0
	jr	ra
	.cfi_endproc
.LFE78:
	.size	psa_pake_ecjpake_setup, .-psa_pake_ecjpake_setup
	.section	.srodata.jpake_server_id,"a"
	.align	2
	.type	jpake_server_id, @object
	.size	jpake_server_id, 6
jpake_server_id:
	.ascii	"server"
	.section	.srodata.jpake_client_id,"a"
	.align	2
	.type	jpake_client_id, @object
	.size	jpake_client_id, 6
jpake_client_id:
	.ascii	"client"
	.section	.text.mbedtls_psa_pake_setup,"ax",@progbits
	.align	1
	.globl	mbedtls_psa_pake_setup
	.type	mbedtls_psa_pake_setup, @function
mbedtls_psa_pake_setup:
.LFB79:
	.loc 2 157 1
	.cfi_startproc
	addi	sp,sp,-96
	.cfi_def_cfa_offset 96
	sw	ra,92(sp)
	sw	s0,88(sp)
	.cfi_offset 1, -4
	.cfi_offset 8, -8
	addi	s0,sp,96
	.cfi_def_cfa 8, 0
	sw	a0,-84(s0)
	sw	a1,-88(s0)
	.loc 2 158 18
	li	a5,-151
	sw	a5,-20(s0)
	.loc 2 159 12
	sw	zero,-36(s0)
	.loc 2 159 26
	sw	zero,-40(s0)
	.loc 2 159 40
	sw	zero,-44(s0)
	.loc 2 160 14
	sw	zero,-24(s0)
	.loc 2 160 27
	sw	zero,-28(s0)
	.loc 2 161 12
	sw	zero,-48(s0)
	.loc 2 161 33
	sw	zero,-52(s0)
	.loc 2 161 54
	sw	zero,-56(s0)
	.loc 2 162 44
	addi	a5,s0,-68
	mv	a0,a5
	call	psa_pake_cipher_suite_init
	.loc 2 164 14
	addi	a5,s0,-44
	mv	a1,a5
	lw	a0,-88(s0)
	call	psa_crypto_driver_pake_get_password_len
	sw	a0,-20(s0)
	.loc 2 165 8
	lw	a5,-20(s0)
	beq	a5,zero,.L14
	.loc 2 166 16
	lw	a5,-20(s0)
	j	.L35
.L14:
	.loc 2 169 14
	addi	a5,s0,-36
	mv	a1,a5
	lw	a0,-88(s0)
	call	psa_crypto_driver_pake_get_user_len
	sw	a0,-20(s0)
	.loc 2 170 8
	lw	a5,-20(s0)
	beq	a5,zero,.L16
	.loc 2 171 16
	lw	a5,-20(s0)
	j	.L35
.L16:
	.loc 2 174 14
	addi	a5,s0,-40
	mv	a1,a5
	lw	a0,-88(s0)
	call	psa_crypto_driver_pake_get_peer_len
	sw	a0,-20(s0)
	.loc 2 175 8
	lw	a5,-20(s0)
	beq	a5,zero,.L17
	.loc 2 176 16
	lw	a5,-20(s0)
	j	.L35
.L17:
	.loc 2 179 14
	addi	a5,s0,-68
	mv	a1,a5
	lw	a0,-88(s0)
	call	psa_crypto_driver_pake_get_cipher_suite
	sw	a0,-20(s0)
	.loc 2 180 8
	lw	a5,-20(s0)
	beq	a5,zero,.L18
	.loc 2 181 16
	lw	a5,-20(s0)
	j	.L35
.L18:
	.loc 2 184 27
	lw	a5,-44(s0)
	mv	a1,a5
	li	a0,1
	call	calloc
	mv	a5,a0
	mv	a4,a5
	.loc 2 184 25 discriminator 1
	lw	a5,-84(s0)
	sw	a4,4(a5)
	.loc 2 185 18
	lw	a5,-84(s0)
	lw	a5,4(a5)
	.loc 2 185 8
	bne	a5,zero,.L19
	.loc 2 186 16
	li	a5,-141
	sw	a5,-20(s0)
	.loc 2 187 9
	j	.L20
.L19:
	.loc 2 190 12
	lw	a5,-36(s0)
	mv	a1,a5
	li	a0,1
	call	calloc
	mv	a5,a0
	sw	a5,-28(s0)
	.loc 2 191 8
	lw	a5,-28(s0)
	bne	a5,zero,.L21
	.loc 2 192 16
	li	a5,-141
	sw	a5,-20(s0)
	.loc 2 193 9
	j	.L20
.L21:
	.loc 2 196 12
	lw	a5,-40(s0)
	mv	a1,a5
	li	a0,1
	call	calloc
	mv	a5,a0
	sw	a5,-24(s0)
	.loc 2 197 8
	lw	a5,-24(s0)
	bne	a5,zero,.L22
	.loc 2 198 16
	li	a5,-141
	sw	a5,-20(s0)
	.loc 2 199 9
	j	.L20
.L22:
	.loc 2 202 14
	lw	a5,-84(s0)
	lw	a5,4(a5)
	lw	a4,-44(s0)
	addi	a3,s0,-56
	mv	a2,a4
	mv	a1,a5
	lw	a0,-88(s0)
	call	psa_crypto_driver_pake_get_password
	sw	a0,-20(s0)
	.loc 2 204 8
	lw	a5,-20(s0)
	bne	a5,zero,.L36
	.loc 2 208 14
	lw	a5,-36(s0)
	addi	a4,s0,-48
	mv	a3,a4
	mv	a2,a5
	lw	a1,-28(s0)
	lw	a0,-88(s0)
	call	psa_crypto_driver_pake_get_user
	sw	a0,-20(s0)
	.loc 2 210 8
	lw	a5,-20(s0)
	bne	a5,zero,.L37
	.loc 2 214 14
	lw	a5,-40(s0)
	addi	a4,s0,-52
	mv	a3,a4
	mv	a2,a5
	lw	a1,-24(s0)
	lw	a0,-88(s0)
	call	psa_crypto_driver_pake_get_peer
	sw	a0,-20(s0)
	.loc 2 216 8
	lw	a5,-20(s0)
	bne	a5,zero,.L38
	.loc 2 220 29
	lw	a4,-56(s0)
	lw	a5,-84(s0)
	sw	a4,8(a5)
	.loc 2 221 34
	lw	a4,-68(s0)
	.loc 2 221 20
	lw	a5,-84(s0)
	sw	a4,0(a5)
	.loc 2 224 21
	lw	a4,-68(s0)
	.loc 2 224 8
	li	a5,167772160
	addi	a5,a5,256
	bne	a4,a5,.L26
.LBB2:
	.loc 2 225 25
	lbu	a4,-64(s0)
	.loc 2 225 12
	li	a5,1
	bne	a4,a5,.L27
	.loc 2 226 25
	lbu	a4,-63(s0)
	.loc 2 225 69 discriminator 1
	li	a5,18
	bne	a4,a5,.L27
	.loc 2 227 25
	lhu	a4,-62(s0)
	.loc 2 226 62
	li	a5,256
	bne	a4,a5,.L27
	.loc 2 228 25
	lw	a4,-60(s0)
	.loc 2 227 38
	li	a5,33554432
	addi	a5,a5,9
	beq	a4,a5,.L28
.L27:
	.loc 2 229 20
	li	a5,-134
	sw	a5,-20(s0)
	.loc 2 230 13
	j	.L20
.L28:
	.loc 2 233 22
	li	a5,6
	sw	a5,-32(s0)
	.loc 2 234 29
	lw	a5,-48(s0)
	.loc 2 234 12
	lw	a4,-32(s0)
	bne	a4,a5,.L29
	.loc 2 235 29
	lw	a5,-52(s0)
	.loc 2 234 46 discriminator 1
	lw	a4,-32(s0)
	beq	a4,a5,.L30
.L29:
	.loc 2 236 20
	li	a5,-134
	sw	a5,-20(s0)
	.loc 2 237 13
	j	.L20
.L30:
	.loc 2 240 13
	lw	a5,-48(s0)
	mv	a2,a5
	lui	a5,%hi(jpake_client_id)
	addi	a1,a5,%lo(jpake_client_id)
	lw	a0,-28(s0)
	call	memcmp
	mv	a5,a0
	.loc 2 240 12 discriminator 1
	bne	a5,zero,.L31
	.loc 2 241 13
	lw	a5,-52(s0)
	mv	a2,a5
	lui	a5,%hi(jpake_server_id)
	addi	a1,a5,%lo(jpake_server_id)
	lw	a0,-24(s0)
	call	memcmp
	mv	a5,a0
	.loc 2 240 65 discriminator 2
	bne	a5,zero,.L31
	.loc 2 242 29
	lw	a5,-84(s0)
	sb	zero,12(a5)
	j	.L32
.L31:
	.loc 2 244 13
	lw	a5,-48(s0)
	mv	a2,a5
	lui	a5,%hi(jpake_server_id)
	addi	a1,a5,%lo(jpake_server_id)
	lw	a0,-28(s0)
	call	memcmp
	mv	a5,a0
	.loc 2 244 12 discriminator 1
	bne	a5,zero,.L33
	.loc 2 245 13
	lw	a5,-52(s0)
	mv	a2,a5
	lui	a5,%hi(jpake_client_id)
	addi	a1,a5,%lo(jpake_client_id)
	lw	a0,-24(s0)
	call	memcmp
	mv	a5,a0
	.loc 2 244 65 discriminator 2
	bne	a5,zero,.L33
	.loc 2 246 29
	lw	a5,-84(s0)
	li	a4,1
	sb	a4,12(a5)
	j	.L32
.L33:
	.loc 2 248 20
	li	a5,-134
	sw	a5,-20(s0)
	.loc 2 249 13
	j	.L20
.L32:
	.loc 2 252 34
	lw	a5,-84(s0)
	sw	zero,352(a5)
	.loc 2 253 34
	lw	a5,-84(s0)
	sw	zero,356(a5)
	.loc 2 255 18
	lw	a0,-84(s0)
	call	psa_pake_ecjpake_setup
	sw	a0,-20(s0)
	.loc 2 256 12
	lw	a5,-20(s0)
	bne	a5,zero,.L39
	.loc 2 261 9
	lw	a0,-28(s0)
	call	free
	.loc 2 261 21 discriminator 1
	lw	a0,-24(s0)
	call	free
	.loc 2 263 16
	li	a5,0
	j	.L35
.L26:
.LBE2:
	.loc 2 269 14
	li	a5,-134
	sw	a5,-20(s0)
	j	.L20
.L36:
	.loc 2 205 9
	nop
	j	.L20
.L37:
	.loc 2 211 9
	nop
	j	.L20
.L38:
	.loc 2 217 9
	nop
	j	.L20
.L39:
.LBB3:
	.loc 2 257 13
	nop
.L20:
.LBE3:
	.loc 2 272 5
	lw	a0,-28(s0)
	call	free
	.loc 2 272 17 discriminator 1
	lw	a0,-24(s0)
	call	free
	.loc 2 278 5
	lw	a0,-84(s0)
	call	mbedtls_psa_pake_abort
	.loc 2 279 12
	lw	a5,-20(s0)
.L35:
	.loc 2 280 1
	mv	a0,a5
	lw	ra,92(sp)
	.cfi_restore 1
	lw	s0,88(sp)
	.cfi_restore 8
	.cfi_def_cfa 2, 96
	addi	sp,sp,96
	.cfi_def_cfa_offset 0
	jr	ra
	.cfi_endproc
.LFE79:
	.size	mbedtls_psa_pake_setup, .-mbedtls_psa_pake_setup
	.section	.text.mbedtls_psa_pake_output_internal,"ax",@progbits
	.align	1
	.type	mbedtls_psa_pake_output_internal, @function
mbedtls_psa_pake_output_internal:
.LFB80:
	.loc 2 288 1
	.cfi_startproc
	addi	sp,sp,-64
	.cfi_def_cfa_offset 64
	sw	ra,60(sp)
	sw	s0,56(sp)
	.cfi_offset 1, -4
	.cfi_offset 8, -8
	addi	s0,sp,64
	.cfi_def_cfa 8, 0
	sw	a0,-36(s0)
	mv	a5,a1
	sw	a2,-44(s0)
	sw	a3,-48(s0)
	sw	a4,-52(s0)
	sb	a5,-37(s0)
	.loc 2 289 9
	li	a5,-110
	sw	a5,-20(s0)
	.loc 2 308 18
	lw	a5,-36(s0)
	lw	a4,0(a5)
	.loc 2 308 8
	li	a5,167772160
	addi	a5,a5,256
	bne	a4,a5,.L41
	.loc 2 310 12
	lbu	a4,-37(s0)
	li	a5,1
	bne	a4,a5,.L42
	.loc 2 311 19
	lw	a5,-36(s0)
	addi	a0,a5,360
	.loc 2 312 60
	lw	a5,-36(s0)
	addi	a1,a5,13
	.loc 2 311 19
	lw	a5,-36(s0)
	addi	a3,a5,352
	li	a5,0
	lui	a4,%hi(mbedtls_psa_get_random)
	addi	a4,a4,%lo(mbedtls_psa_get_random)
	li	a2,336
	call	mbedtls_ecjpake_write_round_one
	sw	a0,-20(s0)
	.loc 2 317 16
	lw	a5,-20(s0)
	beq	a5,zero,.L43
	.loc 2 318 24
	lw	a0,-20(s0)
	call	mbedtls_ecjpake_to_psa_error
	mv	a5,a0
	j	.L44
.L43:
	.loc 2 321 38
	lw	a5,-36(s0)
	sw	zero,356(a5)
	j	.L45
.L42:
	.loc 2 322 19
	lbu	a4,-37(s0)
	li	a5,7
	bne	a4,a5,.L45
	.loc 2 323 19
	lw	a5,-36(s0)
	addi	a0,a5,360
	.loc 2 324 60
	lw	a5,-36(s0)
	addi	a1,a5,13
	.loc 2 323 19
	lw	a5,-36(s0)
	addi	a3,a5,352
	li	a5,0
	lui	a4,%hi(mbedtls_psa_get_random)
	addi	a4,a4,%lo(mbedtls_psa_get_random)
	li	a2,336
	call	mbedtls_ecjpake_write_round_two
	sw	a0,-20(s0)
	.loc 2 329 16
	lw	a5,-20(s0)
	beq	a5,zero,.L46
	.loc 2 330 24
	lw	a0,-20(s0)
	call	mbedtls_ecjpake_to_psa_error
	mv	a5,a0
	j	.L44
.L46:
	.loc 2 333 38
	lw	a5,-36(s0)
	sw	zero,356(a5)
.L45:
	.loc 2 347 12
	lbu	a4,-37(s0)
	li	a5,7
	bne	a4,a5,.L47
	.loc 2 348 22
	lw	a5,-36(s0)
	lbu	a4,12(a5)
	.loc 2 347 50 discriminator 1
	li	a5,1
	bne	a4,a5,.L47
	.loc 2 350 22
	lw	a5,-36(s0)
	lw	a5,356(a5)
	.loc 2 350 38
	addi	a4,a5,3
	lw	a5,-36(s0)
	sw	a4,356(a5)
.L47:
	.loc 2 354 45
	lw	a5,-36(s0)
	lw	a5,356(a5)
	.loc 2 354 35
	lw	a4,-36(s0)
	add	a5,a4,a5
	lbu	a5,13(a5)
	.loc 2 354 16
	sw	a5,-24(s0)
	.loc 2 355 18
	lw	a5,-36(s0)
	lw	a5,356(a5)
	.loc 2 355 34
	addi	a4,a5,1
	lw	a5,-36(s0)
	sw	a4,356(a5)
	.loc 2 357 22
	lw	a5,-36(s0)
	lw	a4,356(a5)
	.loc 2 357 38
	lw	a5,-24(s0)
	add	a4,a4,a5
	.loc 2 357 58
	lw	a5,-36(s0)
	lw	a5,352(a5)
	.loc 2 357 12
	bleu	a4,a5,.L48
	.loc 2 358 20
	li	a5,-152
	j	.L44
.L48:
	.loc 2 361 12
	lw	a4,-48(s0)
	lw	a5,-24(s0)
	bgeu	a4,a5,.L49
	.loc 2 362 20
	li	a5,-138
	j	.L44
.L49:
	.loc 2 366 16
	lw	a5,-36(s0)
	addi	a4,a5,13
	.loc 2 366 45
	lw	a5,-36(s0)
	lw	a5,356(a5)
	.loc 2 365 9
	add	a5,a4,a5
	lw	a2,-24(s0)
	mv	a1,a5
	lw	a0,-44(s0)
	call	memcpy
	.loc 2 368 24
	lw	a5,-52(s0)
	lw	a4,-24(s0)
	sw	a4,0(a5)
	.loc 2 370 18
	lw	a5,-36(s0)
	lw	a4,356(a5)
	.loc 2 370 34
	lw	a5,-24(s0)
	add	a4,a4,a5
	lw	a5,-36(s0)
	sw	a4,356(a5)
	.loc 2 373 12
	lbu	a4,-37(s0)
	li	a5,6
	beq	a4,a5,.L50
	.loc 2 373 50 discriminator 1
	lbu	a4,-37(s0)
	li	a5,9
	bne	a4,a5,.L51
.L50:
	.loc 2 375 47
	lw	a5,-36(s0)
	addi	a5,a5,13
	.loc 2 375 13
	li	a1,336
	mv	a0,a5
	call	mbedtls_platform_zeroize
	.loc 2 376 38
	lw	a5,-36(s0)
	sw	zero,352(a5)
	.loc 2 377 38
	lw	a5,-36(s0)
	sw	zero,356(a5)
.L51:
	.loc 2 380 16
	li	a5,0
	j	.L44
.L41:
	.loc 2 388 14
	li	a5,-134
.L44:
	.loc 2 389 1
	mv	a0,a5
	lw	ra,60(sp)
	.cfi_restore 1
	lw	s0,56(sp)
	.cfi_restore 8
	.cfi_def_cfa 2, 64
	addi	sp,sp,64
	.cfi_def_cfa_offset 0
	jr	ra
	.cfi_endproc
.LFE80:
	.size	mbedtls_psa_pake_output_internal, .-mbedtls_psa_pake_output_internal
	.section	.text.mbedtls_psa_pake_output,"ax",@progbits
	.align	1
	.globl	mbedtls_psa_pake_output
	.type	mbedtls_psa_pake_output, @function
mbedtls_psa_pake_output:
.LFB81:
	.loc 2 396 1
	.cfi_startproc
	addi	sp,sp,-64
	.cfi_def_cfa_offset 64
	sw	ra,60(sp)
	sw	s0,56(sp)
	.cfi_offset 1, -4
	.cfi_offset 8, -8
	addi	s0,sp,64
	.cfi_def_cfa 8, 0
	sw	a0,-36(s0)
	mv	a5,a1
	sw	a2,-44(s0)
	sw	a3,-48(s0)
	sw	a4,-52(s0)
	sb	a5,-37(s0)
	.loc 2 397 27
	lbu	a5,-37(s0)
	lw	a4,-52(s0)
	lw	a3,-48(s0)
	lw	a2,-44(s0)
	mv	a1,a5
	lw	a0,-36(s0)
	call	mbedtls_psa_pake_output_internal
	sw	a0,-20(s0)
	.loc 2 400 12
	lw	a5,-20(s0)
	.loc 2 401 1
	mv	a0,a5
	lw	ra,60(sp)
	.cfi_restore 1
	lw	s0,56(sp)
	.cfi_restore 8
	.cfi_def_cfa 2, 64
	addi	sp,sp,64
	.cfi_def_cfa_offset 0
	jr	ra
	.cfi_endproc
.LFE81:
	.size	mbedtls_psa_pake_output, .-mbedtls_psa_pake_output
	.section	.text.mbedtls_psa_pake_input_internal,"ax",@progbits
	.align	1
	.type	mbedtls_psa_pake_input_internal, @function
mbedtls_psa_pake_input_internal:
.LFB82:
	.loc 2 408 1
	.cfi_startproc
	addi	sp,sp,-48
	.cfi_def_cfa_offset 48
	sw	ra,44(sp)
	sw	s0,40(sp)
	.cfi_offset 1, -4
	.cfi_offset 8, -8
	addi	s0,sp,48
	.cfi_def_cfa 8, 0
	sw	a0,-36(s0)
	mv	a5,a1
	sw	a2,-44(s0)
	sw	a3,-48(s0)
	sb	a5,-37(s0)
	.loc 2 409 9
	li	a5,-110
	sw	a5,-20(s0)
	.loc 2 428 18
	lw	a5,-36(s0)
	lw	a4,0(a5)
	.loc 2 428 8
	li	a5,167772160
	addi	a5,a5,256
	bne	a4,a5,.L55
	.loc 2 438 12
	lbu	a4,-37(s0)
	li	a5,10
	bne	a4,a5,.L56
	.loc 2 439 22
	lw	a5,-36(s0)
	lbu	a5,12(a5)
	.loc 2 438 50 discriminator 1
	bne	a5,zero,.L56
.LBB4:
	.loc 2 442 27
	li	a5,3
	sh	a5,-24(s0)
	li	a5,23
	sb	a5,-22(s0)
	.loc 2 447 26
	lw	a5,-36(s0)
	lw	a5,352(a5)
	.loc 2 447 42
	addi	a4,a5,3
	.loc 2 447 16
	li	a5,336
	bleu	a4,a5,.L57
	.loc 2 449 24
	li	a5,-138
	j	.L58
.L57:
	.loc 2 452 20
	lw	a5,-36(s0)
	addi	a4,a5,13
	.loc 2 452 49
	lw	a5,-36(s0)
	lw	a5,352(a5)
	.loc 2 452 13
	add	a5,a4,a5
	addi	a4,s0,-24
	li	a2,3
	mv	a1,a4
	mv	a0,a5
	call	memcpy
	.loc 2 454 22
	lw	a5,-36(s0)
	lw	a5,352(a5)
	.loc 2 454 38
	addi	a4,a5,3
	lw	a5,-36(s0)
	sw	a4,352(a5)
.L56:
.LBE4:
	.loc 2 462 22
	lw	a5,-36(s0)
	lw	a4,352(a5)
	.loc 2 462 38
	lw	a5,-48(s0)
	add	a5,a4,a5
	.loc 2 462 53
	addi	a4,a5,1
	.loc 2 462 12
	li	a5,336
	bleu	a4,a5,.L59
	.loc 2 463 20
	li	a5,-138
	j	.L58
.L59:
	.loc 2 467 36
	lw	a5,-36(s0)
	lw	a5,352(a5)
	.loc 2 467 55
	lw	a4,-48(s0)
	andi	a4,a4,0xff
	.loc 2 467 53
	lw	a3,-36(s0)
	add	a5,a3,a5
	sb	a4,13(a5)
	.loc 2 468 18
	lw	a5,-36(s0)
	lw	a5,352(a5)
	.loc 2 468 34
	addi	a4,a5,1
	lw	a5,-36(s0)
	sw	a4,352(a5)
	.loc 2 471 16
	lw	a5,-36(s0)
	addi	a4,a5,13
	.loc 2 471 45
	lw	a5,-36(s0)
	lw	a5,352(a5)
	.loc 2 471 9
	add	a5,a4,a5
	lw	a2,-48(s0)
	lw	a1,-44(s0)
	mv	a0,a5
	call	memcpy
	.loc 2 473 18
	lw	a5,-36(s0)
	lw	a4,352(a5)
	.loc 2 473 34
	lw	a5,-48(s0)
	add	a4,a4,a5
	lw	a5,-36(s0)
	sw	a4,352(a5)
	.loc 2 476 12
	lbu	a4,-37(s0)
	li	a5,6
	bne	a4,a5,.L60
	.loc 2 477 19
	lw	a5,-36(s0)
	addi	a4,a5,360
	.loc 2 478 59
	lw	a5,-36(s0)
	addi	a3,a5,13
	.loc 2 477 19
	lw	a5,-36(s0)
	lw	a5,352(a5)
	mv	a2,a5
	mv	a1,a3
	mv	a0,a4
	call	mbedtls_ecjpake_read_round_one
	sw	a0,-20(s0)
	.loc 2 481 47
	lw	a5,-36(s0)
	addi	a5,a5,13
	.loc 2 481 13
	li	a1,336
	mv	a0,a5
	call	mbedtls_platform_zeroize
	.loc 2 482 38
	lw	a5,-36(s0)
	sw	zero,352(a5)
	.loc 2 484 16
	lw	a5,-20(s0)
	beq	a5,zero,.L61
	.loc 2 485 24
	lw	a0,-20(s0)
	call	mbedtls_ecjpake_to_psa_error
	mv	a5,a0
	j	.L58
.L60:
	.loc 2 487 19
	lbu	a4,-37(s0)
	li	a5,12
	bne	a4,a5,.L61
	.loc 2 488 19
	lw	a5,-36(s0)
	addi	a4,a5,360
	.loc 2 489 59
	lw	a5,-36(s0)
	addi	a3,a5,13
	.loc 2 488 19
	lw	a5,-36(s0)
	lw	a5,352(a5)
	mv	a2,a5
	mv	a1,a3
	mv	a0,a4
	call	mbedtls_ecjpake_read_round_two
	sw	a0,-20(s0)
	.loc 2 492 47
	lw	a5,-36(s0)
	addi	a5,a5,13
	.loc 2 492 13
	li	a1,336
	mv	a0,a5
	call	mbedtls_platform_zeroize
	.loc 2 493 38
	lw	a5,-36(s0)
	sw	zero,352(a5)
	.loc 2 495 16
	lw	a5,-20(s0)
	beq	a5,zero,.L61
	.loc 2 496 24
	lw	a0,-20(s0)
	call	mbedtls_ecjpake_to_psa_error
	mv	a5,a0
	j	.L58
.L61:
	.loc 2 500 16
	li	a5,0
	j	.L58
.L55:
	.loc 2 507 14
	li	a5,-134
.L58:
	.loc 2 508 1
	mv	a0,a5
	lw	ra,44(sp)
	.cfi_restore 1
	lw	s0,40(sp)
	.cfi_restore 8
	.cfi_def_cfa 2, 48
	addi	sp,sp,48
	.cfi_def_cfa_offset 0
	jr	ra
	.cfi_endproc
.LFE82:
	.size	mbedtls_psa_pake_input_internal, .-mbedtls_psa_pake_input_internal
	.section	.text.mbedtls_psa_pake_input,"ax",@progbits
	.align	1
	.globl	mbedtls_psa_pake_input
	.type	mbedtls_psa_pake_input, @function
mbedtls_psa_pake_input:
.LFB83:
	.loc 2 514 1
	.cfi_startproc
	addi	sp,sp,-48
	.cfi_def_cfa_offset 48
	sw	ra,44(sp)
	sw	s0,40(sp)
	.cfi_offset 1, -4
	.cfi_offset 8, -8
	addi	s0,sp,48
	.cfi_def_cfa 8, 0
	sw	a0,-36(s0)
	mv	a5,a1
	sw	a2,-44(s0)
	sw	a3,-48(s0)
	sb	a5,-37(s0)
	.loc 2 515 27
	lbu	a5,-37(s0)
	lw	a3,-48(s0)
	lw	a2,-44(s0)
	mv	a1,a5
	lw	a0,-36(s0)
	call	mbedtls_psa_pake_input_internal
	sw	a0,-20(s0)
	.loc 2 518 12
	lw	a5,-20(s0)
	.loc 2 519 1
	mv	a0,a5
	lw	ra,44(sp)
	.cfi_restore 1
	lw	s0,40(sp)
	.cfi_restore 8
	.cfi_def_cfa 2, 48
	addi	sp,sp,48
	.cfi_def_cfa_offset 0
	jr	ra
	.cfi_endproc
.LFE83:
	.size	mbedtls_psa_pake_input, .-mbedtls_psa_pake_input
	.section	.text.mbedtls_psa_pake_get_implicit_key,"ax",@progbits
	.align	1
	.globl	mbedtls_psa_pake_get_implicit_key
	.type	mbedtls_psa_pake_get_implicit_key, @function
mbedtls_psa_pake_get_implicit_key:
.LFB84:
	.loc 2 525 1
	.cfi_startproc
	addi	sp,sp,-48
	.cfi_def_cfa_offset 48
	sw	ra,44(sp)
	sw	s0,40(sp)
	.cfi_offset 1, -4
	.cfi_offset 8, -8
	addi	s0,sp,48
	.cfi_def_cfa 8, 0
	sw	a0,-36(s0)
	sw	a1,-40(s0)
	sw	a2,-44(s0)
	sw	a3,-48(s0)
	.loc 2 526 9
	li	a5,-110
	sw	a5,-20(s0)
	.loc 2 529 18
	lw	a5,-36(s0)
	lw	a4,0(a5)
	.loc 2 529 8
	li	a5,167772160
	addi	a5,a5,256
	bne	a4,a5,.L65
	.loc 2 530 15
	lw	a5,-36(s0)
	addi	a0,a5,360
	li	a5,0
	lui	a4,%hi(mbedtls_psa_get_random)
	addi	a4,a4,%lo(mbedtls_psa_get_random)
	lw	a3,-48(s0)
	lw	a2,-44(s0)
	lw	a1,-40(s0)
	call	mbedtls_ecjpake_write_shared_key
	sw	a0,-20(s0)
	.loc 2 536 12
	lw	a5,-20(s0)
	beq	a5,zero,.L66
	.loc 2 537 20
	lw	a0,-20(s0)
	call	mbedtls_ecjpake_to_psa_error
	mv	a5,a0
	j	.L67
.L66:
	.loc 2 540 16
	li	a5,0
	j	.L67
.L65:
	.loc 2 545 14
	li	a5,-134
.L67:
	.loc 2 546 1
	mv	a0,a5
	lw	ra,44(sp)
	.cfi_restore 1
	lw	s0,40(sp)
	.cfi_restore 8
	.cfi_def_cfa 2, 48
	addi	sp,sp,48
	.cfi_def_cfa_offset 0
	jr	ra
	.cfi_endproc
.LFE84:
	.size	mbedtls_psa_pake_get_implicit_key, .-mbedtls_psa_pake_get_implicit_key
	.section	.text.mbedtls_psa_pake_abort,"ax",@progbits
	.align	1
	.globl	mbedtls_psa_pake_abort
	.type	mbedtls_psa_pake_abort, @function
mbedtls_psa_pake_abort:
.LFB85:
	.loc 2 549 1
	.cfi_startproc
	addi	sp,sp,-32
	.cfi_def_cfa_offset 32
	sw	ra,28(sp)
	sw	s0,24(sp)
	.cfi_offset 1, -4
	.cfi_offset 8, -8
	addi	s0,sp,32
	.cfi_def_cfa 8, 0
	sw	a0,-20(s0)
	.loc 2 550 39
	lw	a5,-20(s0)
	lw	a4,4(a5)
	.loc 2 550 5
	lw	a5,-20(s0)
	lw	a5,8(a5)
	mv	a1,a5
	mv	a0,a4
	call	mbedtls_zeroize_and_free
	.loc 2 551 25
	lw	a5,-20(s0)
	sw	zero,4(a5)
	.loc 2 552 29
	lw	a5,-20(s0)
	sw	zero,8(a5)
	.loc 2 555 18
	lw	a5,-20(s0)
	lw	a4,0(a5)
	.loc 2 555 8
	li	a5,167772160
	addi	a5,a5,256
	bne	a4,a5,.L69
	.loc 2 556 25
	lw	a5,-20(s0)
	li	a4,2
	sb	a4,12(a5)
	.loc 2 557 43
	lw	a5,-20(s0)
	addi	a5,a5,13
	.loc 2 557 9
	li	a1,336
	mv	a0,a5
	call	mbedtls_platform_zeroize
	.loc 2 558 34
	lw	a5,-20(s0)
	sw	zero,352(a5)
	.loc 2 559 34
	lw	a5,-20(s0)
	sw	zero,356(a5)
	.loc 2 560 9
	lw	a5,-20(s0)
	addi	a5,a5,360
	mv	a0,a5
	call	mbedtls_ecjpake_free
.L69:
	.loc 2 564 20
	lw	a5,-20(s0)
	sw	zero,0(a5)
	.loc 2 566 12
	li	a5,0
	.loc 2 567 1
	mv	a0,a5
	lw	ra,28(sp)
	.cfi_restore 1
	lw	s0,24(sp)
	.cfi_restore 8
	.cfi_def_cfa 2, 32
	addi	sp,sp,32
	.cfi_def_cfa_offset 0
	jr	ra
	.cfi_endproc
.LFE85:
	.size	mbedtls_psa_pake_abort, .-mbedtls_psa_pake_abort
	.text
.Letext0:
	.file 3 "/home/chandu/sdk/bl602_iot_sdk/toolchain/compiler/lib/gcc/riscv32-unknown-elf/15.1.0/include/stddef.h"
	.file 4 "/home/chandu/sdk/bl602_iot_sdk/toolchain/compiler/lib/gcc/riscv32-unknown-elf/15.1.0/include/stdint-gcc.h"
	.file 5 "/home/chandu/sdk/bl602_iot_sdk/components/security/mbedtls-bl602/include/psa/crypto_types.h"
	.file 6 "/home/chandu/sdk/bl602_iot_sdk/components/security/mbedtls-bl602/include/psa/crypto_struct.h"
	.file 7 "/home/chandu/sdk/bl602_iot_sdk/components/security/mbedtls-bl602/include/mbedtls/platform_util.h"
	.file 8 "/home/chandu/sdk/bl602_iot_sdk/components/security/mbedtls-bl602/include/mbedtls/bignum.h"
	.file 9 "/home/chandu/sdk/bl602_iot_sdk/components/security/mbedtls-bl602/include/mbedtls/ecp.h"
	.file 10 "/home/chandu/sdk/bl602_iot_sdk/components/security/mbedtls-bl602/include/mbedtls/md.h"
	.file 11 "/home/chandu/sdk/bl602_iot_sdk/components/security/mbedtls-bl602/include/mbedtls/ecjpake.h"
	.file 12 "/home/chandu/sdk/bl602_iot_sdk/components/security/mbedtls-bl602/include/psa/crypto_builtin_composites.h"
	.file 13 "/home/chandu/sdk/bl602_iot_sdk/components/security/mbedtls-bl602/library/common.h"
	.file 14 "/home/chandu/sdk/bl602_iot_sdk/toolchain/compiler/riscv32-unknown-elf/include/string.h"
	.file 15 "/home/chandu/sdk/bl602_iot_sdk/components/security/mbedtls-bl602/include/mbedtls/psa_util.h"
	.file 16 "/home/chandu/sdk/bl602_iot_sdk/toolchain/compiler/riscv32-unknown-elf/include/stdlib.h"
	.section	.note.GNU-stack,"",@progbits
