	.file	"psa_crypto_driver_wrappers_no_static.c"
	.option nopic
	.attribute arch, "rv32i2p1_m2p0_f2p2_c2p0_zicsr2p0_zmmul1p0_zca1p0_zcf1p0"
	.attribute unaligned_access, 0
	.attribute stack_align, 16
	.text
.Ltext0:
	.cfi_sections	.debug_frame
	.file 0 "/home/chandu/sdk/bl602_iot_sdk/customer_app/suas_app_pqkem_gateway/build_out/mbedtls-bl602" "/home/chandu/sdk/bl602_iot_sdk/components/security/mbedtls-bl602/library/psa_crypto_driver_wrappers_no_static.c"
	.section	.text.psa_get_key_lifetime,"ax",@progbits
	.align	1
	.type	psa_get_key_lifetime, @function
psa_get_key_lifetime:
.LFB41:
	.file 1 "/home/chandu/sdk/bl602_iot_sdk/components/security/mbedtls-bl602/include/psa/crypto_struct.h"
	.loc 1 379 1
	.cfi_startproc
	addi	sp,sp,-32
	.cfi_def_cfa_offset 32
	sw	ra,28(sp)
	sw	s0,24(sp)
	.cfi_offset 1, -4
	.cfi_offset 8, -8
	addi	s0,sp,32
	.cfi_def_cfa 8, 0
	sw	a0,-20(s0)
	.loc 1 380 22
	lw	a5,-20(s0)
	lw	a5,4(a5)
	.loc 1 381 1
	mv	a0,a5
	lw	ra,28(sp)
	.cfi_restore 1
	lw	s0,24(sp)
	.cfi_restore 8
	.cfi_def_cfa 2, 32
	addi	sp,sp,32
	.cfi_def_cfa_offset 0
	jr	ra
	.cfi_endproc
.LFE41:
	.size	psa_get_key_lifetime, .-psa_get_key_lifetime
	.section	.text.psa_get_key_type,"ax",@progbits
	.align	1
	.type	psa_get_key_type, @function
psa_get_key_type:
.LFB48:
	.loc 1 427 1
	.cfi_startproc
	addi	sp,sp,-32
	.cfi_def_cfa_offset 32
	sw	ra,28(sp)
	sw	s0,24(sp)
	.cfi_offset 1, -4
	.cfi_offset 8, -8
	addi	s0,sp,32
	.cfi_def_cfa 8, 0
	sw	a0,-20(s0)
	.loc 1 428 22
	lw	a5,-20(s0)
	lhu	a5,0(a5)
	.loc 1 429 1
	mv	a0,a5
	lw	ra,28(sp)
	.cfi_restore 1
	lw	s0,24(sp)
	.cfi_restore 8
	.cfi_def_cfa 2, 32
	addi	sp,sp,32
	.cfi_def_cfa_offset 0
	jr	ra
	.cfi_endproc
.LFE48:
	.size	psa_get_key_type, .-psa_get_key_type
	.section	.text.psa_get_key_bits,"ax",@progbits
	.align	1
	.type	psa_get_key_bits, @function
psa_get_key_bits:
.LFB50:
	.loc 1 443 1
	.cfi_startproc
	addi	sp,sp,-32
	.cfi_def_cfa_offset 32
	sw	ra,28(sp)
	sw	s0,24(sp)
	.cfi_offset 1, -4
	.cfi_offset 8, -8
	addi	s0,sp,32
	.cfi_def_cfa 8, 0
	sw	a0,-20(s0)
	.loc 1 444 22
	lw	a5,-20(s0)
	lhu	a5,2(a5)
	.loc 1 445 1
	mv	a0,a5
	lw	ra,28(sp)
	.cfi_restore 1
	lw	s0,24(sp)
	.cfi_restore 8
	.cfi_def_cfa 2, 32
	addi	sp,sp,32
	.cfi_def_cfa_offset 0
	jr	ra
	.cfi_endproc
.LFE50:
	.size	psa_get_key_bits, .-psa_get_key_bits
	.section	.text.psa_driver_wrapper_get_key_buffer_size,"ax",@progbits
	.align	1
	.globl	psa_driver_wrapper_get_key_buffer_size
	.type	psa_driver_wrapper_get_key_buffer_size, @function
psa_driver_wrapper_get_key_buffer_size:
.LFB70:
	.file 2 "/home/chandu/sdk/bl602_iot_sdk/components/security/mbedtls-bl602/library/psa_crypto_driver_wrappers_no_static.c"
	.loc 2 89 1
	.cfi_startproc
	addi	sp,sp,-48
	.cfi_def_cfa_offset 48
	sw	ra,44(sp)
	sw	s0,40(sp)
	.cfi_offset 1, -4
	.cfi_offset 8, -8
	addi	s0,sp,48
	.cfi_def_cfa 8, 0
	sw	a0,-36(s0)
	sw	a1,-40(s0)
	.loc 2 90 59
	lw	a0,-36(s0)
	call	psa_get_key_lifetime
	mv	a5,a0
	.loc 2 90 24 discriminator 1
	srli	a5,a5,8
	sw	a5,-20(s0)
	.loc 2 91 31
	lw	a0,-36(s0)
	call	psa_get_key_type
	mv	a5,a0
	sh	a5,-22(s0)
	.loc 2 92 23
	lw	a0,-36(s0)
	call	psa_get_key_bits
	sw	a0,-28(s0)
	.loc 2 94 22
	lw	a5,-40(s0)
	sw	zero,0(a5)
	.loc 2 118 19
	li	a5,-135
	.loc 2 120 1
	mv	a0,a5
	lw	ra,44(sp)
	.cfi_restore 1
	lw	s0,40(sp)
	.cfi_restore 8
	.cfi_def_cfa 2, 48
	addi	sp,sp,48
	.cfi_def_cfa_offset 0
	jr	ra
	.cfi_endproc
.LFE70:
	.size	psa_driver_wrapper_get_key_buffer_size, .-psa_driver_wrapper_get_key_buffer_size
	.section	.text.psa_driver_wrapper_export_public_key,"ax",@progbits
	.align	1
	.globl	psa_driver_wrapper_export_public_key
	.type	psa_driver_wrapper_export_public_key, @function
psa_driver_wrapper_export_public_key:
.LFB71:
	.loc 2 127 1
	.cfi_startproc
	addi	sp,sp,-64
	.cfi_def_cfa_offset 64
	sw	ra,60(sp)
	sw	s0,56(sp)
	.cfi_offset 1, -4
	.cfi_offset 8, -8
	addi	s0,sp,64
	.cfi_def_cfa 8, 0
	sw	a0,-36(s0)
	sw	a1,-40(s0)
	sw	a2,-44(s0)
	sw	a3,-48(s0)
	sw	a4,-52(s0)
	sw	a5,-56(s0)
	.loc 2 129 18
	li	a5,-135
	sw	a5,-20(s0)
	.loc 2 130 59
	lw	a0,-36(s0)
	call	psa_get_key_lifetime
	mv	a5,a0
	.loc 2 130 24 discriminator 1
	srli	a5,a5,8
	sw	a5,-24(s0)
	.loc 2 153 5
	lw	a5,-24(s0)
	bne	a5,zero,.L10
	.loc 2 191 21
	lw	a5,-56(s0)
	lw	a4,-52(s0)
	lw	a3,-48(s0)
	lw	a2,-44(s0)
	lw	a1,-40(s0)
	lw	a0,-36(s0)
	call	psa_export_public_key_internal
	mv	a5,a0
	j	.L11
.L10:
	.loc 2 217 19
	lw	a5,-20(s0)
.L11:
	.loc 2 220 1
	mv	a0,a5
	lw	ra,60(sp)
	.cfi_restore 1
	lw	s0,56(sp)
	.cfi_restore 8
	.cfi_def_cfa 2, 64
	addi	sp,sp,64
	.cfi_def_cfa_offset 0
	jr	ra
	.cfi_endproc
.LFE71:
	.size	psa_driver_wrapper_export_public_key, .-psa_driver_wrapper_export_public_key
	.section	.text.psa_driver_wrapper_get_builtin_key,"ax",@progbits
	.align	1
	.globl	psa_driver_wrapper_get_builtin_key
	.type	psa_driver_wrapper_get_builtin_key, @function
psa_driver_wrapper_get_builtin_key:
.LFB72:
	.loc 2 226 1
	.cfi_startproc
	addi	sp,sp,-64
	.cfi_def_cfa_offset 64
	sw	ra,60(sp)
	sw	s0,56(sp)
	.cfi_offset 1, -4
	.cfi_offset 8, -8
	addi	s0,sp,64
	.cfi_def_cfa 8, 0
	sw	a0,-40(s0)
	sw	a1,-36(s0)
	sw	a2,-44(s0)
	sw	a3,-48(s0)
	sw	a4,-52(s0)
	sw	a5,-56(s0)
	.loc 2 228 59
	lw	a0,-44(s0)
	call	psa_get_key_lifetime
	mv	a5,a0
	.loc 2 228 24 discriminator 1
	srli	a5,a5,8
	sw	a5,-20(s0)
	.loc 2 251 19
	li	a5,-140
	.loc 2 254 1
	mv	a0,a5
	lw	ra,60(sp)
	.cfi_restore 1
	lw	s0,56(sp)
	.cfi_restore 8
	.cfi_def_cfa 2, 64
	addi	sp,sp,64
	.cfi_def_cfa_offset 0
	jr	ra
	.cfi_endproc
.LFE72:
	.size	psa_driver_wrapper_get_builtin_key, .-psa_driver_wrapper_get_builtin_key
	.text
.Letext0:
	.file 3 "/home/chandu/sdk/bl602_iot_sdk/toolchain/compiler/lib/gcc/riscv32-unknown-elf/15.1.0/include/stddef.h"
	.file 4 "/home/chandu/sdk/bl602_iot_sdk/toolchain/compiler/lib/gcc/riscv32-unknown-elf/15.1.0/include/stdint-gcc.h"
	.file 5 "/home/chandu/sdk/bl602_iot_sdk/components/security/mbedtls-bl602/include/psa/crypto_types.h"
	.file 6 "/home/chandu/sdk/bl602_iot_sdk/components/security/mbedtls-bl602/include/psa/crypto_extra.h"
	.file 7 "/home/chandu/sdk/bl602_iot_sdk/components/security/mbedtls-bl602/library/psa_crypto_core.h"
	.section	.note.GNU-stack,"",@progbits
