	.file	"psa_crypto.c"
	.option nopic
	.attribute arch, "rv32i2p1_m2p0_f2p2_c2p0_zicsr2p0_zmmul1p0_zca1p0_zcf1p0"
	.attribute unaligned_access, 0
	.attribute stack_align, 16
	.text
.Ltext0:
	.cfi_sections	.debug_frame
	.file 0 "/home/chandu/sdk/bl602_iot_sdk/customer_app/suas_app_pqkem_gateway/build_out/mbedtls-bl602" "/home/chandu/sdk/bl602_iot_sdk/components/security/mbedtls-bl602/library/psa_crypto.c"
	.section	.text.psa_crypto_buffer_offset,"ax",@progbits
	.align	1
	.type	psa_crypto_buffer_offset, @function
psa_crypto_buffer_offset:
.LFB11:
	.file 1 "/home/chandu/sdk/bl602_iot_sdk/components/security/mbedtls-bl602/library/psa_crypto_core_common.h"
	.loc 1 31 1
	.cfi_startproc
	addi	sp,sp,-32
	.cfi_def_cfa_offset 32
	sw	ra,28(sp)
	sw	s0,24(sp)
	.cfi_offset 1, -4
	.cfi_offset 8, -8
	addi	s0,sp,32
	.cfi_def_cfa 8, 0
	sw	a0,-20(s0)
	sw	a1,-24(s0)
	.loc 1 32 28
	lw	a5,-20(s0)
	beq	a5,zero,.L2
	.loc 1 32 28 is_stmt 0 discriminator 1
	lw	a4,-20(s0)
	lw	a5,-24(s0)
	add	a5,a4,a5
	.loc 1 32 28
	j	.L4
.L2:
	.loc 1 32 28 discriminator 2
	li	a5,0
.L4:
	.loc 1 33 1 is_stmt 1
	mv	a0,a5
	lw	ra,28(sp)
	.cfi_restore 1
	lw	s0,24(sp)
	.cfi_restore 8
	.cfi_def_cfa 2, 32
	addi	sp,sp,32
	.cfi_def_cfa_offset 0
	jr	ra
	.cfi_endproc
.LFE11:
	.size	psa_crypto_buffer_offset, .-psa_crypto_buffer_offset
	.section	.text.mbedtls_svc_key_id_is_null,"ax",@progbits
	.align	1
	.type	mbedtls_svc_key_id_is_null, @function
mbedtls_svc_key_id_is_null:
.LFB15:
	.file 2 "/home/chandu/sdk/bl602_iot_sdk/components/security/mbedtls-bl602/include/psa/crypto_values.h"
	.loc 2 2475 1
	.cfi_startproc
	addi	sp,sp,-32
	.cfi_def_cfa_offset 32
	sw	ra,28(sp)
	sw	s0,24(sp)
	.cfi_offset 1, -4
	.cfi_offset 8, -8
	addi	s0,sp,32
	.cfi_def_cfa 8, 0
	sw	a0,-20(s0)
	.loc 2 2476 16
	lw	a5,-20(s0)
	seqz	a5,a5
	andi	a5,a5,0xff
	.loc 2 2477 1
	mv	a0,a5
	lw	ra,28(sp)
	.cfi_restore 1
	lw	s0,24(sp)
	.cfi_restore 8
	.cfi_def_cfa 2, 32
	addi	sp,sp,32
	.cfi_def_cfa_offset 0
	jr	ra
	.cfi_endproc
.LFE15:
	.size	mbedtls_svc_key_id_is_null, .-mbedtls_svc_key_id_is_null
	.section	.text.psa_get_key_id,"ax",@progbits
	.align	1
	.type	psa_get_key_id, @function
psa_get_key_id:
.LFB41:
	.file 3 "/home/chandu/sdk/bl602_iot_sdk/components/security/mbedtls-bl602/include/psa/crypto_struct.h"
	.loc 3 352 1
	.cfi_startproc
	addi	sp,sp,-32
	.cfi_def_cfa_offset 32
	sw	ra,28(sp)
	sw	s0,24(sp)
	.cfi_offset 1, -4
	.cfi_offset 8, -8
	addi	s0,sp,32
	.cfi_def_cfa 8, 0
	sw	a0,-20(s0)
	.loc 3 353 22
	lw	a5,-20(s0)
	lw	a5,20(a5)
	.loc 3 354 1
	mv	a0,a5
	lw	ra,28(sp)
	.cfi_restore 1
	lw	s0,24(sp)
	.cfi_restore 8
	.cfi_def_cfa 2, 32
	addi	sp,sp,32
	.cfi_def_cfa_offset 0
	jr	ra
	.cfi_endproc
.LFE41:
	.size	psa_get_key_id, .-psa_get_key_id
	.section	.text.psa_get_key_lifetime,"ax",@progbits
	.align	1
	.type	psa_get_key_lifetime, @function
psa_get_key_lifetime:
.LFB43:
	.loc 3 379 1
	.cfi_startproc
	addi	sp,sp,-32
	.cfi_def_cfa_offset 32
	sw	ra,28(sp)
	sw	s0,24(sp)
	.cfi_offset 1, -4
	.cfi_offset 8, -8
	addi	s0,sp,32
	.cfi_def_cfa 8, 0
	sw	a0,-20(s0)
	.loc 3 380 22
	lw	a5,-20(s0)
	lw	a5,4(a5)
	.loc 3 381 1
	mv	a0,a5
	lw	ra,28(sp)
	.cfi_restore 1
	lw	s0,24(sp)
	.cfi_restore 8
	.cfi_def_cfa 2, 32
	addi	sp,sp,32
	.cfi_def_cfa_offset 0
	jr	ra
	.cfi_endproc
.LFE43:
	.size	psa_get_key_lifetime, .-psa_get_key_lifetime
	.section	.text.psa_extend_key_usage_flags,"ax",@progbits
	.align	1
	.type	psa_extend_key_usage_flags, @function
psa_extend_key_usage_flags:
.LFB44:
	.loc 3 384 1
	.cfi_startproc
	addi	sp,sp,-32
	.cfi_def_cfa_offset 32
	sw	ra,28(sp)
	sw	s0,24(sp)
	.cfi_offset 1, -4
	.cfi_offset 8, -8
	addi	s0,sp,32
	.cfi_def_cfa 8, 0
	sw	a0,-20(s0)
	.loc 3 385 9
	lw	a5,-20(s0)
	lw	a4,0(a5)
	.loc 3 385 22
	li	a5,4096
	and	a5,a4,a5
	.loc 3 385 8
	beq	a5,zero,.L12
	.loc 3 386 9
	lw	a5,-20(s0)
	lw	a5,0(a5)
	.loc 3 386 22
	ori	a4,a5,1024
	lw	a5,-20(s0)
	sw	a4,0(a5)
.L12:
	.loc 3 389 9
	lw	a5,-20(s0)
	lw	a4,0(a5)
	.loc 3 389 22
	li	a5,8192
	and	a5,a4,a5
	.loc 3 389 8
	beq	a5,zero,.L14
	.loc 3 390 9
	lw	a5,-20(s0)
	lw	a4,0(a5)
	.loc 3 390 22
	li	a5,4096
	addi	a5,a5,-2048
	or	a4,a4,a5
	lw	a5,-20(s0)
	sw	a4,0(a5)
.L14:
	.loc 3 392 1
	nop
	lw	ra,28(sp)
	.cfi_restore 1
	lw	s0,24(sp)
	.cfi_restore 8
	.cfi_def_cfa 2, 32
	addi	sp,sp,32
	.cfi_def_cfa_offset 0
	jr	ra
	.cfi_endproc
.LFE44:
	.size	psa_extend_key_usage_flags, .-psa_extend_key_usage_flags
	.section	.text.psa_set_key_usage_flags,"ax",@progbits
	.align	1
	.type	psa_set_key_usage_flags, @function
psa_set_key_usage_flags:
.LFB45:
	.loc 3 396 1
	.cfi_startproc
	addi	sp,sp,-32
	.cfi_def_cfa_offset 32
	sw	ra,28(sp)
	sw	s0,24(sp)
	.cfi_offset 1, -4
	.cfi_offset 8, -8
	addi	s0,sp,32
	.cfi_def_cfa 8, 0
	sw	a0,-20(s0)
	sw	a1,-24(s0)
	.loc 3 397 5
	addi	a5,s0,-24
	mv	a0,a5
	call	psa_extend_key_usage_flags
	.loc 3 398 30
	lw	a4,-24(s0)
	lw	a5,-20(s0)
	sw	a4,8(a5)
	.loc 3 399 1
	nop
	lw	ra,28(sp)
	.cfi_restore 1
	lw	s0,24(sp)
	.cfi_restore 8
	.cfi_def_cfa 2, 32
	addi	sp,sp,32
	.cfi_def_cfa_offset 0
	jr	ra
	.cfi_endproc
.LFE45:
	.size	psa_set_key_usage_flags, .-psa_set_key_usage_flags
	.section	.text.psa_set_key_type,"ax",@progbits
	.align	1
	.type	psa_set_key_type, @function
psa_set_key_type:
.LFB49:
	.loc 3 421 1
	.cfi_startproc
	addi	sp,sp,-32
	.cfi_def_cfa_offset 32
	sw	ra,28(sp)
	sw	s0,24(sp)
	.cfi_offset 1, -4
	.cfi_offset 8, -8
	addi	s0,sp,32
	.cfi_def_cfa 8, 0
	sw	a0,-20(s0)
	mv	a5,a1
	sh	a5,-22(s0)
	.loc 3 422 22
	lw	a5,-20(s0)
	lhu	a4,-22(s0)
	sh	a4,0(a5)
	.loc 3 423 1
	nop
	lw	ra,28(sp)
	.cfi_restore 1
	lw	s0,24(sp)
	.cfi_restore 8
	.cfi_def_cfa 2, 32
	addi	sp,sp,32
	.cfi_def_cfa_offset 0
	jr	ra
	.cfi_endproc
.LFE49:
	.size	psa_set_key_type, .-psa_set_key_type
	.section	.text.psa_get_key_type,"ax",@progbits
	.align	1
	.type	psa_get_key_type, @function
psa_get_key_type:
.LFB50:
	.loc 3 427 1
	.cfi_startproc
	addi	sp,sp,-32
	.cfi_def_cfa_offset 32
	sw	ra,28(sp)
	sw	s0,24(sp)
	.cfi_offset 1, -4
	.cfi_offset 8, -8
	addi	s0,sp,32
	.cfi_def_cfa 8, 0
	sw	a0,-20(s0)
	.loc 3 428 22
	lw	a5,-20(s0)
	lhu	a5,0(a5)
	.loc 3 429 1
	mv	a0,a5
	lw	ra,28(sp)
	.cfi_restore 1
	lw	s0,24(sp)
	.cfi_restore 8
	.cfi_def_cfa 2, 32
	addi	sp,sp,32
	.cfi_def_cfa_offset 0
	jr	ra
	.cfi_endproc
.LFE50:
	.size	psa_get_key_type, .-psa_get_key_type
	.section	.text.psa_set_key_bits,"ax",@progbits
	.align	1
	.type	psa_set_key_bits, @function
psa_set_key_bits:
.LFB51:
	.loc 3 433 1
	.cfi_startproc
	addi	sp,sp,-32
	.cfi_def_cfa_offset 32
	sw	ra,28(sp)
	sw	s0,24(sp)
	.cfi_offset 1, -4
	.cfi_offset 8, -8
	addi	s0,sp,32
	.cfi_def_cfa 8, 0
	sw	a0,-20(s0)
	sw	a1,-24(s0)
	.loc 3 434 8
	lw	a4,-24(s0)
	li	a5,65536
	addi	a5,a5,-8
	bleu	a4,a5,.L20
	.loc 3 435 26
	lw	a5,-20(s0)
	li	a4,-1
	sh	a4,2(a5)
	.loc 3 439 1
	j	.L22
.L20:
	.loc 3 437 28
	lw	a5,-24(s0)
	slli	a4,a5,16
	srli	a4,a4,16
	.loc 3 437 26
	lw	a5,-20(s0)
	sh	a4,2(a5)
.L22:
	.loc 3 439 1
	nop
	lw	ra,28(sp)
	.cfi_restore 1
	lw	s0,24(sp)
	.cfi_restore 8
	.cfi_def_cfa 2, 32
	addi	sp,sp,32
	.cfi_def_cfa_offset 0
	jr	ra
	.cfi_endproc
.LFE51:
	.size	psa_set_key_bits, .-psa_set_key_bits
	.section	.text.psa_get_key_bits,"ax",@progbits
	.align	1
	.type	psa_get_key_bits, @function
psa_get_key_bits:
.LFB52:
	.loc 3 443 1
	.cfi_startproc
	addi	sp,sp,-32
	.cfi_def_cfa_offset 32
	sw	ra,28(sp)
	sw	s0,24(sp)
	.cfi_offset 1, -4
	.cfi_offset 8, -8
	addi	s0,sp,32
	.cfi_def_cfa 8, 0
	sw	a0,-20(s0)
	.loc 3 444 22
	lw	a5,-20(s0)
	lhu	a5,2(a5)
	.loc 3 445 1
	mv	a0,a5
	lw	ra,28(sp)
	.cfi_restore 1
	lw	s0,24(sp)
	.cfi_restore 8
	.cfi_def_cfa 2, 32
	addi	sp,sp,32
	.cfi_def_cfa_offset 0
	jr	ra
	.cfi_endproc
.LFE52:
	.size	psa_get_key_bits, .-psa_get_key_bits
	.section	.text.psa_driver_wrapper_init,"ax",@progbits
	.align	1
	.type	psa_driver_wrapper_init, @function
psa_driver_wrapper_init:
.LFB72:
	.file 4 "/home/chandu/sdk/bl602_iot_sdk/components/security/mbedtls-bl602/library/psa_crypto_driver_wrappers.h"
	.loc 4 73 1
	.cfi_startproc
	addi	sp,sp,-32
	.cfi_def_cfa_offset 32
	sw	ra,28(sp)
	sw	s0,24(sp)
	.cfi_offset 1, -4
	.cfi_offset 8, -8
	addi	s0,sp,32
	.cfi_def_cfa 8, 0
	.loc 4 74 18
	li	a5,-151
	sw	a5,-20(s0)
	.loc 4 93 11
	li	a5,0
	.loc 4 94 1
	mv	a0,a5
	lw	ra,28(sp)
	.cfi_restore 1
	lw	s0,24(sp)
	.cfi_restore 8
	.cfi_def_cfa 2, 32
	addi	sp,sp,32
	.cfi_def_cfa_offset 0
	jr	ra
	.cfi_endproc
.LFE72:
	.size	psa_driver_wrapper_init, .-psa_driver_wrapper_init
	.section	.text.psa_driver_wrapper_free,"ax",@progbits
	.align	1
	.type	psa_driver_wrapper_free, @function
psa_driver_wrapper_free:
.LFB73:
	.loc 4 97 1
	.cfi_startproc
	addi	sp,sp,-16
	.cfi_def_cfa_offset 16
	sw	ra,12(sp)
	sw	s0,8(sp)
	.cfi_offset 1, -4
	.cfi_offset 8, -8
	addi	s0,sp,16
	.cfi_def_cfa 8, 0
	.loc 4 108 1
	nop
	lw	ra,12(sp)
	.cfi_restore 1
	lw	s0,8(sp)
	.cfi_restore 8
	.cfi_def_cfa 2, 16
	addi	sp,sp,16
	.cfi_def_cfa_offset 0
	jr	ra
	.cfi_endproc
.LFE73:
	.size	psa_driver_wrapper_free, .-psa_driver_wrapper_free
	.section	.text.psa_driver_wrapper_sign_message,"ax",@progbits
	.align	1
	.type	psa_driver_wrapper_sign_message, @function
psa_driver_wrapper_sign_message:
.LFB74:
	.loc 4 121 1
	.cfi_startproc
	addi	sp,sp,-80
	.cfi_def_cfa_offset 80
	sw	ra,76(sp)
	sw	s0,72(sp)
	.cfi_offset 1, -4
	.cfi_offset 8, -8
	addi	s0,sp,80
	.cfi_def_cfa 8, 0
	sw	a0,-36(s0)
	sw	a1,-40(s0)
	sw	a2,-44(s0)
	sw	a3,-48(s0)
	sw	a4,-52(s0)
	sw	a5,-56(s0)
	sw	a6,-60(s0)
	sw	a7,-64(s0)
	.loc 4 122 18
	li	a5,-151
	sw	a5,-20(s0)
	.loc 4 124 33
	lw	a0,-36(s0)
	call	psa_get_key_lifetime
	mv	a5,a0
	.loc 4 123 24
	srli	a5,a5,8
	sw	a5,-24(s0)
	.loc 4 172 13
	nop
	.loc 4 175 13
	lw	a5,0(s0)
	sw	a5,0(sp)
	lw	a7,-64(s0)
	lw	a6,-60(s0)
	lw	a5,-56(s0)
	lw	a4,-52(s0)
	lw	a3,-48(s0)
	lw	a2,-44(s0)
	lw	a1,-40(s0)
	lw	a0,-36(s0)
	call	psa_sign_message_builtin
	mv	a5,a0
	.loc 4 184 1
	mv	a0,a5
	lw	ra,76(sp)
	.cfi_restore 1
	lw	s0,72(sp)
	.cfi_restore 8
	.cfi_def_cfa 2, 80
	addi	sp,sp,80
	.cfi_def_cfa_offset 0
	jr	ra
	.cfi_endproc
.LFE74:
	.size	psa_driver_wrapper_sign_message, .-psa_driver_wrapper_sign_message
	.section	.text.psa_driver_wrapper_verify_message,"ax",@progbits
	.align	1
	.type	psa_driver_wrapper_verify_message, @function
psa_driver_wrapper_verify_message:
.LFB75:
	.loc 4 195 1
	.cfi_startproc
	addi	sp,sp,-64
	.cfi_def_cfa_offset 64
	sw	ra,60(sp)
	sw	s0,56(sp)
	.cfi_offset 1, -4
	.cfi_offset 8, -8
	addi	s0,sp,64
	.cfi_def_cfa 8, 0
	sw	a0,-36(s0)
	sw	a1,-40(s0)
	sw	a2,-44(s0)
	sw	a3,-48(s0)
	sw	a4,-52(s0)
	sw	a5,-56(s0)
	sw	a6,-60(s0)
	sw	a7,-64(s0)
	.loc 4 196 18
	li	a5,-151
	sw	a5,-20(s0)
	.loc 4 198 33
	lw	a0,-36(s0)
	call	psa_get_key_lifetime
	mv	a5,a0
	.loc 4 197 24
	srli	a5,a5,8
	sw	a5,-24(s0)
	.loc 4 244 13
	nop
	.loc 4 247 13
	lw	a7,-64(s0)
	lw	a6,-60(s0)
	lw	a5,-56(s0)
	lw	a4,-52(s0)
	lw	a3,-48(s0)
	lw	a2,-44(s0)
	lw	a1,-40(s0)
	lw	a0,-36(s0)
	call	psa_verify_message_builtin
	mv	a5,a0
	.loc 4 255 1
	mv	a0,a5
	lw	ra,60(sp)
	.cfi_restore 1
	lw	s0,56(sp)
	.cfi_restore 8
	.cfi_def_cfa 2, 64
	addi	sp,sp,64
	.cfi_def_cfa_offset 0
	jr	ra
	.cfi_endproc
.LFE75:
	.size	psa_driver_wrapper_verify_message, .-psa_driver_wrapper_verify_message
	.section	.text.psa_driver_wrapper_sign_hash,"ax",@progbits
	.align	1
	.type	psa_driver_wrapper_sign_hash, @function
psa_driver_wrapper_sign_hash:
.LFB76:
	.loc 4 262 1
	.cfi_startproc
	addi	sp,sp,-80
	.cfi_def_cfa_offset 80
	sw	ra,76(sp)
	sw	s0,72(sp)
	.cfi_offset 1, -4
	.cfi_offset 8, -8
	addi	s0,sp,80
	.cfi_def_cfa 8, 0
	sw	a0,-36(s0)
	sw	a1,-40(s0)
	sw	a2,-44(s0)
	sw	a3,-48(s0)
	sw	a4,-52(s0)
	sw	a5,-56(s0)
	sw	a6,-60(s0)
	sw	a7,-64(s0)
	.loc 4 283 18
	li	a5,-151
	sw	a5,-20(s0)
	.loc 4 285 33
	lw	a0,-36(s0)
	call	psa_get_key_lifetime
	mv	a5,a0
	.loc 4 284 24
	srli	a5,a5,8
	sw	a5,-24(s0)
	.loc 4 287 5
	lw	a5,-24(s0)
	bne	a5,zero,.L37
	.loc 4 328 21
	lw	a5,0(s0)
	sw	a5,0(sp)
	lw	a7,-64(s0)
	lw	a6,-60(s0)
	lw	a5,-56(s0)
	lw	a4,-52(s0)
	lw	a3,-48(s0)
	lw	a2,-44(s0)
	lw	a1,-40(s0)
	lw	a0,-36(s0)
	call	psa_sign_hash_builtin
	mv	a5,a0
	j	.L38
.L37:
	.loc 4 356 19
	li	a5,-135
.L38:
	.loc 4 358 1
	mv	a0,a5
	lw	ra,76(sp)
	.cfi_restore 1
	lw	s0,72(sp)
	.cfi_restore 8
	.cfi_def_cfa 2, 80
	addi	sp,sp,80
	.cfi_def_cfa_offset 0
	jr	ra
	.cfi_endproc
.LFE76:
	.size	psa_driver_wrapper_sign_hash, .-psa_driver_wrapper_sign_hash
	.section	.text.psa_driver_wrapper_verify_hash,"ax",@progbits
	.align	1
	.type	psa_driver_wrapper_verify_hash, @function
psa_driver_wrapper_verify_hash:
.LFB77:
	.loc 4 365 1
	.cfi_startproc
	addi	sp,sp,-64
	.cfi_def_cfa_offset 64
	sw	ra,60(sp)
	sw	s0,56(sp)
	.cfi_offset 1, -4
	.cfi_offset 8, -8
	addi	s0,sp,64
	.cfi_def_cfa 8, 0
	sw	a0,-36(s0)
	sw	a1,-40(s0)
	sw	a2,-44(s0)
	sw	a3,-48(s0)
	sw	a4,-52(s0)
	sw	a5,-56(s0)
	sw	a6,-60(s0)
	sw	a7,-64(s0)
	.loc 4 386 18
	li	a5,-151
	sw	a5,-20(s0)
	.loc 4 388 33
	lw	a0,-36(s0)
	call	psa_get_key_lifetime
	mv	a5,a0
	.loc 4 387 24
	srli	a5,a5,8
	sw	a5,-24(s0)
	.loc 4 390 5
	lw	a5,-24(s0)
	bne	a5,zero,.L40
	.loc 4 430 21
	lw	a7,-64(s0)
	lw	a6,-60(s0)
	lw	a5,-56(s0)
	lw	a4,-52(s0)
	lw	a3,-48(s0)
	lw	a2,-44(s0)
	lw	a1,-40(s0)
	lw	a0,-36(s0)
	call	psa_verify_hash_builtin
	mv	a5,a0
	j	.L41
.L40:
	.loc 4 456 19
	li	a5,-135
.L41:
	.loc 4 458 1
	mv	a0,a5
	lw	ra,60(sp)
	.cfi_restore 1
	lw	s0,56(sp)
	.cfi_restore 8
	.cfi_def_cfa 2, 64
	addi	sp,sp,64
	.cfi_def_cfa_offset 0
	jr	ra
	.cfi_endproc
.LFE77:
	.size	psa_driver_wrapper_verify_hash, .-psa_driver_wrapper_verify_hash
	.section	.text.psa_driver_wrapper_sign_hash_get_num_ops,"ax",@progbits
	.align	1
	.type	psa_driver_wrapper_sign_hash_get_num_ops, @function
psa_driver_wrapper_sign_hash_get_num_ops:
.LFB78:
	.loc 4 462 1
	.cfi_startproc
	addi	sp,sp,-32
	.cfi_def_cfa_offset 32
	sw	ra,28(sp)
	sw	s0,24(sp)
	.cfi_offset 1, -4
	.cfi_offset 8, -8
	addi	s0,sp,32
	.cfi_def_cfa 8, 0
	sw	a0,-20(s0)
	.loc 4 463 22
	lw	a5,-20(s0)
	lw	a5,0(a5)
	.loc 4 463 5
	beq	a5,zero,.L43
	li	a4,1
	beq	a5,a4,.L44
	j	.L47
.L43:
	.loc 4 467 20
	li	a5,0
	j	.L46
.L44:
	.loc 4 470 54
	lw	a5,-20(s0)
	addi	a5,a5,4
	.loc 4 470 20
	mv	a0,a5
	call	mbedtls_psa_sign_hash_get_num_ops
	mv	a5,a0
	j	.L46
.L47:
	.loc 4 481 12
	li	a5,0
.L46:
	.loc 4 482 1
	mv	a0,a5
	lw	ra,28(sp)
	.cfi_restore 1
	lw	s0,24(sp)
	.cfi_restore 8
	.cfi_def_cfa 2, 32
	addi	sp,sp,32
	.cfi_def_cfa_offset 0
	jr	ra
	.cfi_endproc
.LFE78:
	.size	psa_driver_wrapper_sign_hash_get_num_ops, .-psa_driver_wrapper_sign_hash_get_num_ops
	.section	.text.psa_driver_wrapper_verify_hash_get_num_ops,"ax",@progbits
	.align	1
	.type	psa_driver_wrapper_verify_hash_get_num_ops, @function
psa_driver_wrapper_verify_hash_get_num_ops:
.LFB79:
	.loc 4 486 1
	.cfi_startproc
	addi	sp,sp,-32
	.cfi_def_cfa_offset 32
	sw	ra,28(sp)
	sw	s0,24(sp)
	.cfi_offset 1, -4
	.cfi_offset 8, -8
	addi	s0,sp,32
	.cfi_def_cfa 8, 0
	sw	a0,-20(s0)
	.loc 4 487 22
	lw	a5,-20(s0)
	lw	a5,0(a5)
	.loc 4 487 5
	beq	a5,zero,.L49
	li	a4,1
	beq	a5,a4,.L50
	j	.L53
.L49:
	.loc 4 491 20
	li	a5,0
	j	.L52
.L50:
	.loc 4 494 57
	lw	a5,-20(s0)
	addi	a5,a5,4
	.loc 4 494 21
	mv	a0,a5
	call	mbedtls_psa_verify_hash_get_num_ops
	mv	a5,a0
	j	.L52
.L53:
	.loc 4 506 12
	li	a5,0
.L52:
	.loc 4 507 1
	mv	a0,a5
	lw	ra,28(sp)
	.cfi_restore 1
	lw	s0,24(sp)
	.cfi_restore 8
	.cfi_def_cfa 2, 32
	addi	sp,sp,32
	.cfi_def_cfa_offset 0
	jr	ra
	.cfi_endproc
.LFE79:
	.size	psa_driver_wrapper_verify_hash_get_num_ops, .-psa_driver_wrapper_verify_hash_get_num_ops
	.section	.text.psa_driver_wrapper_sign_hash_start,"ax",@progbits
	.align	1
	.type	psa_driver_wrapper_sign_hash_start, @function
psa_driver_wrapper_sign_hash_start:
.LFB80:
	.loc 4 514 1
	.cfi_startproc
	addi	sp,sp,-64
	.cfi_def_cfa_offset 64
	sw	ra,60(sp)
	sw	s0,56(sp)
	.cfi_offset 1, -4
	.cfi_offset 8, -8
	addi	s0,sp,64
	.cfi_def_cfa 8, 0
	sw	a0,-36(s0)
	sw	a1,-40(s0)
	sw	a2,-44(s0)
	sw	a3,-48(s0)
	sw	a4,-52(s0)
	sw	a5,-56(s0)
	sw	a6,-60(s0)
	.loc 4 515 18
	li	a5,-151
	sw	a5,-20(s0)
	.loc 4 516 59
	lw	a0,-40(s0)
	call	psa_get_key_lifetime
	mv	a5,a0
	.loc 4 516 24 discriminator 1
	srli	a5,a5,8
	sw	a5,-24(s0)
	.loc 4 519 5
	lw	a5,-24(s0)
	bne	a5,zero,.L55
	.loc 4 536 27
	lw	a5,-36(s0)
	li	a4,1
	sw	a4,0(a5)
	.loc 4 537 22
	lw	a5,-36(s0)
	addi	a0,a5,4
	lw	a6,-60(s0)
	lw	a5,-56(s0)
	lw	a4,-52(s0)
	lw	a3,-48(s0)
	lw	a2,-44(s0)
	lw	a1,-40(s0)
	call	mbedtls_psa_sign_hash_start
	sw	a0,-20(s0)
	.loc 4 541 13
	j	.L56
.L55:
	.loc 4 547 20
	li	a5,-135
	sw	a5,-20(s0)
	.loc 4 548 13
	nop
.L56:
	.loc 4 551 11
	lw	a5,-20(s0)
	.loc 4 552 1
	mv	a0,a5
	lw	ra,60(sp)
	.cfi_restore 1
	lw	s0,56(sp)
	.cfi_restore 8
	.cfi_def_cfa 2, 64
	addi	sp,sp,64
	.cfi_def_cfa_offset 0
	jr	ra
	.cfi_endproc
.LFE80:
	.size	psa_driver_wrapper_sign_hash_start, .-psa_driver_wrapper_sign_hash_start
	.section	.text.psa_driver_wrapper_sign_hash_complete,"ax",@progbits
	.align	1
	.type	psa_driver_wrapper_sign_hash_complete, @function
psa_driver_wrapper_sign_hash_complete:
.LFB81:
	.loc 4 558 1
	.cfi_startproc
	addi	sp,sp,-32
	.cfi_def_cfa_offset 32
	sw	ra,28(sp)
	sw	s0,24(sp)
	.cfi_offset 1, -4
	.cfi_offset 8, -8
	addi	s0,sp,32
	.cfi_def_cfa 8, 0
	sw	a0,-20(s0)
	sw	a1,-24(s0)
	sw	a2,-28(s0)
	sw	a3,-32(s0)
	.loc 4 559 22
	lw	a5,-20(s0)
	lw	a4,0(a5)
	.loc 4 559 5
	li	a5,1
	bne	a4,a5,.L59
	.loc 4 562 21
	lw	a5,-20(s0)
	addi	a5,a5,4
	lw	a3,-32(s0)
	lw	a2,-28(s0)
	lw	a1,-24(s0)
	mv	a0,a5
	call	mbedtls_psa_sign_hash_complete
	mv	a5,a0
	j	.L60
.L59:
	.loc 4 578 11
	li	a5,-135
.L60:
	.loc 4 579 1
	mv	a0,a5
	lw	ra,28(sp)
	.cfi_restore 1
	lw	s0,24(sp)
	.cfi_restore 8
	.cfi_def_cfa 2, 32
	addi	sp,sp,32
	.cfi_def_cfa_offset 0
	jr	ra
	.cfi_endproc
.LFE81:
	.size	psa_driver_wrapper_sign_hash_complete, .-psa_driver_wrapper_sign_hash_complete
	.section	.text.psa_driver_wrapper_sign_hash_abort,"ax",@progbits
	.align	1
	.type	psa_driver_wrapper_sign_hash_abort, @function
psa_driver_wrapper_sign_hash_abort:
.LFB82:
	.loc 4 583 1
	.cfi_startproc
	addi	sp,sp,-32
	.cfi_def_cfa_offset 32
	sw	ra,28(sp)
	sw	s0,24(sp)
	.cfi_offset 1, -4
	.cfi_offset 8, -8
	addi	s0,sp,32
	.cfi_def_cfa 8, 0
	sw	a0,-20(s0)
	.loc 4 584 22
	lw	a5,-20(s0)
	lw	a4,0(a5)
	.loc 4 584 5
	li	a5,1
	bne	a4,a5,.L62
	.loc 4 587 21
	lw	a5,-20(s0)
	addi	a5,a5,4
	mv	a0,a5
	call	mbedtls_psa_sign_hash_abort
	mv	a5,a0
	j	.L63
.L62:
	.loc 4 597 11
	li	a5,-135
.L63:
	.loc 4 598 1
	mv	a0,a5
	lw	ra,28(sp)
	.cfi_restore 1
	lw	s0,24(sp)
	.cfi_restore 8
	.cfi_def_cfa 2, 32
	addi	sp,sp,32
	.cfi_def_cfa_offset 0
	jr	ra
	.cfi_endproc
.LFE82:
	.size	psa_driver_wrapper_sign_hash_abort, .-psa_driver_wrapper_sign_hash_abort
	.section	.text.psa_driver_wrapper_verify_hash_start,"ax",@progbits
	.align	1
	.type	psa_driver_wrapper_verify_hash_start, @function
psa_driver_wrapper_verify_hash_start:
.LFB83:
	.loc 4 606 1
	.cfi_startproc
	addi	sp,sp,-80
	.cfi_def_cfa_offset 80
	sw	ra,76(sp)
	sw	s0,72(sp)
	.cfi_offset 1, -4
	.cfi_offset 8, -8
	addi	s0,sp,80
	.cfi_def_cfa 8, 0
	sw	a0,-36(s0)
	sw	a1,-40(s0)
	sw	a2,-44(s0)
	sw	a3,-48(s0)
	sw	a4,-52(s0)
	sw	a5,-56(s0)
	sw	a6,-60(s0)
	sw	a7,-64(s0)
	.loc 4 607 18
	li	a5,-151
	sw	a5,-20(s0)
	.loc 4 608 59
	lw	a0,-40(s0)
	call	psa_get_key_lifetime
	mv	a5,a0
	.loc 4 608 24 discriminator 1
	srli	a5,a5,8
	sw	a5,-24(s0)
	.loc 4 611 5
	lw	a5,-24(s0)
	bne	a5,zero,.L65
	.loc 4 628 27
	lw	a5,-36(s0)
	li	a4,1
	sw	a4,0(a5)
	.loc 4 629 22
	lw	a5,-36(s0)
	addi	a0,a5,4
	lw	a5,0(s0)
	sw	a5,0(sp)
	lw	a7,-64(s0)
	lw	a6,-60(s0)
	lw	a5,-56(s0)
	lw	a4,-52(s0)
	lw	a3,-48(s0)
	lw	a2,-44(s0)
	lw	a1,-40(s0)
	call	mbedtls_psa_verify_hash_start
	sw	a0,-20(s0)
	.loc 4 634 13
	j	.L66
.L65:
	.loc 4 640 20
	li	a5,-135
	sw	a5,-20(s0)
	.loc 4 641 13
	nop
.L66:
	.loc 4 644 11
	lw	a5,-20(s0)
	.loc 4 645 1
	mv	a0,a5
	lw	ra,76(sp)
	.cfi_restore 1
	lw	s0,72(sp)
	.cfi_restore 8
	.cfi_def_cfa 2, 80
	addi	sp,sp,80
	.cfi_def_cfa_offset 0
	jr	ra
	.cfi_endproc
.LFE83:
	.size	psa_driver_wrapper_verify_hash_start, .-psa_driver_wrapper_verify_hash_start
	.section	.text.psa_driver_wrapper_verify_hash_complete,"ax",@progbits
	.align	1
	.type	psa_driver_wrapper_verify_hash_complete, @function
psa_driver_wrapper_verify_hash_complete:
.LFB84:
	.loc 4 649 1
	.cfi_startproc
	addi	sp,sp,-32
	.cfi_def_cfa_offset 32
	sw	ra,28(sp)
	sw	s0,24(sp)
	.cfi_offset 1, -4
	.cfi_offset 8, -8
	addi	s0,sp,32
	.cfi_def_cfa 8, 0
	sw	a0,-20(s0)
	.loc 4 650 22
	lw	a5,-20(s0)
	lw	a4,0(a5)
	.loc 4 650 5
	li	a5,1
	bne	a4,a5,.L69
	.loc 4 653 21
	lw	a5,-20(s0)
	addi	a5,a5,4
	mv	a0,a5
	call	mbedtls_psa_verify_hash_complete
	mv	a5,a0
	j	.L70
.L69:
	.loc 4 665 11
	li	a5,-135
.L70:
	.loc 4 666 1
	mv	a0,a5
	lw	ra,28(sp)
	.cfi_restore 1
	lw	s0,24(sp)
	.cfi_restore 8
	.cfi_def_cfa 2, 32
	addi	sp,sp,32
	.cfi_def_cfa_offset 0
	jr	ra
	.cfi_endproc
.LFE84:
	.size	psa_driver_wrapper_verify_hash_complete, .-psa_driver_wrapper_verify_hash_complete
	.section	.text.psa_driver_wrapper_verify_hash_abort,"ax",@progbits
	.align	1
	.type	psa_driver_wrapper_verify_hash_abort, @function
psa_driver_wrapper_verify_hash_abort:
.LFB85:
	.loc 4 670 1
	.cfi_startproc
	addi	sp,sp,-32
	.cfi_def_cfa_offset 32
	sw	ra,28(sp)
	sw	s0,24(sp)
	.cfi_offset 1, -4
	.cfi_offset 8, -8
	addi	s0,sp,32
	.cfi_def_cfa 8, 0
	sw	a0,-20(s0)
	.loc 4 671 22
	lw	a5,-20(s0)
	lw	a4,0(a5)
	.loc 4 671 5
	li	a5,1
	bne	a4,a5,.L72
	.loc 4 674 21
	lw	a5,-20(s0)
	addi	a5,a5,4
	mv	a0,a5
	call	mbedtls_psa_verify_hash_abort
	mv	a5,a0
	j	.L73
.L72:
	.loc 4 685 11
	li	a5,-135
.L73:
	.loc 4 686 1
	mv	a0,a5
	lw	ra,28(sp)
	.cfi_restore 1
	lw	s0,24(sp)
	.cfi_restore 8
	.cfi_def_cfa 2, 32
	addi	sp,sp,32
	.cfi_def_cfa_offset 0
	jr	ra
	.cfi_endproc
.LFE85:
	.size	psa_driver_wrapper_verify_hash_abort, .-psa_driver_wrapper_verify_hash_abort
	.section	.text.psa_driver_wrapper_get_key_buffer_size_from_key_data,"ax",@progbits
	.align	1
	.type	psa_driver_wrapper_get_key_buffer_size_from_key_data, @function
psa_driver_wrapper_get_key_buffer_size_from_key_data:
.LFB86:
	.loc 4 705 1
	.cfi_startproc
	addi	sp,sp,-48
	.cfi_def_cfa_offset 48
	sw	ra,44(sp)
	sw	s0,40(sp)
	.cfi_offset 1, -4
	.cfi_offset 8, -8
	addi	s0,sp,48
	.cfi_def_cfa 8, 0
	sw	a0,-36(s0)
	sw	a1,-40(s0)
	sw	a2,-44(s0)
	sw	a3,-48(s0)
	.loc 4 707 33
	lw	a0,-36(s0)
	call	psa_get_key_lifetime
	mv	a5,a0
	.loc 4 706 24
	srli	a5,a5,8
	sw	a5,-20(s0)
	.loc 4 708 31
	lw	a0,-36(s0)
	call	psa_get_key_type
	mv	a5,a0
	sh	a5,-22(s0)
	.loc 4 710 22
	lw	a5,-48(s0)
	sw	zero,0(a5)
	.loc 4 725 19
	li	a5,-135
	.loc 4 727 1
	mv	a0,a5
	lw	ra,44(sp)
	.cfi_restore 1
	lw	s0,40(sp)
	.cfi_restore 8
	.cfi_def_cfa 2, 48
	addi	sp,sp,48
	.cfi_def_cfa_offset 0
	jr	ra
	.cfi_endproc
.LFE86:
	.size	psa_driver_wrapper_get_key_buffer_size_from_key_data, .-psa_driver_wrapper_get_key_buffer_size_from_key_data
	.section	.text.psa_driver_wrapper_generate_key,"ax",@progbits
	.align	1
	.type	psa_driver_wrapper_generate_key, @function
psa_driver_wrapper_generate_key:
.LFB87:
	.loc 4 734 1
	.cfi_startproc
	addi	sp,sp,-64
	.cfi_def_cfa_offset 64
	sw	ra,60(sp)
	sw	s0,56(sp)
	.cfi_offset 1, -4
	.cfi_offset 8, -8
	addi	s0,sp,64
	.cfi_def_cfa 8, 0
	sw	a0,-36(s0)
	sw	a1,-40(s0)
	sw	a2,-44(s0)
	sw	a3,-48(s0)
	sw	a4,-52(s0)
	sw	a5,-56(s0)
	sw	a6,-60(s0)
	.loc 4 735 18
	li	a5,-151
	sw	a5,-20(s0)
	.loc 4 737 33
	lw	a0,-36(s0)
	call	psa_get_key_lifetime
	mv	a5,a0
	.loc 4 736 24
	srli	a5,a5,8
	sw	a5,-24(s0)
	.loc 4 741 9
	lw	a1,-48(s0)
	lw	a0,-40(s0)
	call	psa_custom_key_parameters_are_default
	sw	a0,-28(s0)
	.loc 4 742 7
	lw	a5,-24(s0)
	beq	a5,zero,.L77
	.loc 4 742 53 discriminator 1
	lw	a5,-28(s0)
	bne	a5,zero,.L77
	.loc 4 746 16
	li	a5,-134
	j	.L78
.L77:
	.loc 4 774 5
	lw	a5,-24(s0)
	bne	a5,zero,.L79
	.loc 4 811 22
	lw	a6,-60(s0)
	lw	a5,-56(s0)
	lw	a4,-52(s0)
	lw	a3,-48(s0)
	lw	a2,-44(s0)
	lw	a1,-40(s0)
	lw	a0,-36(s0)
	call	psa_generate_key_internal
	sw	a0,-20(s0)
	.loc 4 814 13
	j	.L80
.L79:
	.loc 4 828 20
	li	a5,-135
	sw	a5,-20(s0)
	.loc 4 829 13
	nop
.L80:
	.loc 4 832 11
	lw	a5,-20(s0)
.L78:
	.loc 4 833 1
	mv	a0,a5
	lw	ra,60(sp)
	.cfi_restore 1
	lw	s0,56(sp)
	.cfi_restore 8
	.cfi_def_cfa 2, 64
	addi	sp,sp,64
	.cfi_def_cfa_offset 0
	jr	ra
	.cfi_endproc
.LFE87:
	.size	psa_driver_wrapper_generate_key, .-psa_driver_wrapper_generate_key
	.section	.text.psa_driver_wrapper_import_key,"ax",@progbits
	.align	1
	.type	psa_driver_wrapper_import_key, @function
psa_driver_wrapper_import_key:
.LFB88:
	.loc 4 843 1
	.cfi_startproc
	addi	sp,sp,-64
	.cfi_def_cfa_offset 64
	sw	ra,60(sp)
	sw	s0,56(sp)
	.cfi_offset 1, -4
	.cfi_offset 8, -8
	addi	s0,sp,64
	.cfi_def_cfa 8, 0
	sw	a0,-36(s0)
	sw	a1,-40(s0)
	sw	a2,-44(s0)
	sw	a3,-48(s0)
	sw	a4,-52(s0)
	sw	a5,-56(s0)
	sw	a6,-60(s0)
	.loc 4 845 18
	li	a5,-151
	sw	a5,-20(s0)
	.loc 4 846 59
	lw	a0,-36(s0)
	call	psa_get_key_lifetime
	mv	a5,a0
	.loc 4 846 24 discriminator 1
	srli	a5,a5,8
	sw	a5,-24(s0)
	.loc 4 878 5
	lw	a5,-24(s0)
	bne	a5,zero,.L82
	.loc 4 919 21
	lw	a6,-60(s0)
	lw	a5,-56(s0)
	lw	a4,-52(s0)
	lw	a3,-48(s0)
	lw	a2,-44(s0)
	lw	a1,-40(s0)
	lw	a0,-36(s0)
	call	psa_import_key_into_slot
	mv	a5,a0
	j	.L83
.L82:
	.loc 4 943 19
	li	a5,-135
.L83:
	.loc 4 946 1
	mv	a0,a5
	lw	ra,60(sp)
	.cfi_restore 1
	lw	s0,56(sp)
	.cfi_restore 8
	.cfi_def_cfa 2, 64
	addi	sp,sp,64
	.cfi_def_cfa_offset 0
	jr	ra
	.cfi_endproc
.LFE88:
	.size	psa_driver_wrapper_import_key, .-psa_driver_wrapper_import_key
	.section	.text.psa_driver_wrapper_export_key,"ax",@progbits
	.align	1
	.type	psa_driver_wrapper_export_key, @function
psa_driver_wrapper_export_key:
.LFB89:
	.loc 4 953 1
	.cfi_startproc
	addi	sp,sp,-64
	.cfi_def_cfa_offset 64
	sw	ra,60(sp)
	sw	s0,56(sp)
	.cfi_offset 1, -4
	.cfi_offset 8, -8
	addi	s0,sp,64
	.cfi_def_cfa 8, 0
	sw	a0,-36(s0)
	sw	a1,-40(s0)
	sw	a2,-44(s0)
	sw	a3,-48(s0)
	sw	a4,-52(s0)
	sw	a5,-56(s0)
	.loc 4 955 18
	li	a5,-135
	sw	a5,-20(s0)
	.loc 4 956 59
	lw	a0,-36(s0)
	call	psa_get_key_lifetime
	mv	a5,a0
	.loc 4 956 24 discriminator 1
	srli	a5,a5,8
	sw	a5,-24(s0)
	.loc 4 979 5
	lw	a5,-24(s0)
	bne	a5,zero,.L85
	.loc 4 982 21
	lw	a5,-56(s0)
	lw	a4,-52(s0)
	lw	a3,-48(s0)
	lw	a2,-44(s0)
	lw	a1,-40(s0)
	lw	a0,-36(s0)
	call	psa_export_key_internal
	mv	a5,a0
	j	.L86
.L85:
	.loc 4 1008 19
	lw	a5,-20(s0)
.L86:
	.loc 4 1011 1
	mv	a0,a5
	lw	ra,60(sp)
	.cfi_restore 1
	lw	s0,56(sp)
	.cfi_restore 8
	.cfi_def_cfa 2, 64
	addi	sp,sp,64
	.cfi_def_cfa_offset 0
	jr	ra
	.cfi_endproc
.LFE89:
	.size	psa_driver_wrapper_export_key, .-psa_driver_wrapper_export_key
	.section	.text.psa_driver_wrapper_copy_key,"ax",@progbits
	.align	1
	.type	psa_driver_wrapper_copy_key, @function
psa_driver_wrapper_copy_key:
.LFB90:
	.loc 4 1018 1
	.cfi_startproc
	addi	sp,sp,-64
	.cfi_def_cfa_offset 64
	sw	ra,60(sp)
	sw	s0,56(sp)
	.cfi_offset 1, -4
	.cfi_offset 8, -8
	addi	s0,sp,64
	.cfi_def_cfa 8, 0
	sw	a0,-36(s0)
	sw	a1,-40(s0)
	sw	a2,-44(s0)
	sw	a3,-48(s0)
	sw	a4,-52(s0)
	sw	a5,-56(s0)
	.loc 4 1020 18
	li	a5,-151
	sw	a5,-20(s0)
	.loc 4 1022 33
	lw	a0,-36(s0)
	call	psa_get_key_lifetime
	mv	a5,a0
	.loc 4 1021 24
	srli	a5,a5,8
	sw	a5,-24(s0)
	.loc 4 1059 20
	li	a5,-135
	sw	a5,-20(s0)
	.loc 4 1061 11
	lw	a5,-20(s0)
	.loc 4 1063 1
	mv	a0,a5
	lw	ra,60(sp)
	.cfi_restore 1
	lw	s0,56(sp)
	.cfi_restore 8
	.cfi_def_cfa 2, 64
	addi	sp,sp,64
	.cfi_def_cfa_offset 0
	jr	ra
	.cfi_endproc
.LFE90:
	.size	psa_driver_wrapper_copy_key, .-psa_driver_wrapper_copy_key
	.section	.text.psa_driver_wrapper_cipher_encrypt,"ax",@progbits
	.align	1
	.type	psa_driver_wrapper_cipher_encrypt, @function
psa_driver_wrapper_cipher_encrypt:
.LFB91:
	.loc 4 1080 1
	.cfi_startproc
	addi	sp,sp,-80
	.cfi_def_cfa_offset 80
	sw	ra,76(sp)
	sw	s0,72(sp)
	.cfi_offset 1, -4
	.cfi_offset 8, -8
	addi	s0,sp,80
	.cfi_def_cfa 8, 0
	sw	a0,-36(s0)
	sw	a1,-40(s0)
	sw	a2,-44(s0)
	sw	a3,-48(s0)
	sw	a4,-52(s0)
	sw	a5,-56(s0)
	sw	a6,-60(s0)
	sw	a7,-64(s0)
	.loc 4 1081 18
	li	a5,-151
	sw	a5,-20(s0)
	.loc 4 1083 33
	lw	a0,-36(s0)
	call	psa_get_key_lifetime
	mv	a5,a0
	.loc 4 1082 24
	srli	a5,a5,8
	sw	a5,-24(s0)
	.loc 4 1085 5
	lw	a5,-24(s0)
	bne	a5,zero,.L90
	.loc 4 1110 21
	lw	a5,8(s0)
	sw	a5,8(sp)
	lw	a5,4(s0)
	sw	a5,4(sp)
	lw	a5,0(s0)
	sw	a5,0(sp)
	lw	a7,-64(s0)
	lw	a6,-60(s0)
	lw	a5,-56(s0)
	lw	a4,-52(s0)
	lw	a3,-48(s0)
	lw	a2,-44(s0)
	lw	a1,-40(s0)
	lw	a0,-36(s0)
	call	mbedtls_psa_cipher_encrypt
	mv	a5,a0
	j	.L91
.L90:
	.loc 4 1156 19
	li	a5,-135
.L91:
	.loc 4 1158 1
	mv	a0,a5
	lw	ra,76(sp)
	.cfi_restore 1
	lw	s0,72(sp)
	.cfi_restore 8
	.cfi_def_cfa 2, 80
	addi	sp,sp,80
	.cfi_def_cfa_offset 0
	jr	ra
	.cfi_endproc
.LFE91:
	.size	psa_driver_wrapper_cipher_encrypt, .-psa_driver_wrapper_cipher_encrypt
	.section	.text.psa_driver_wrapper_cipher_decrypt,"ax",@progbits
	.align	1
	.type	psa_driver_wrapper_cipher_decrypt, @function
psa_driver_wrapper_cipher_decrypt:
.LFB92:
	.loc 4 1170 1
	.cfi_startproc
	addi	sp,sp,-80
	.cfi_def_cfa_offset 80
	sw	ra,76(sp)
	sw	s0,72(sp)
	.cfi_offset 1, -4
	.cfi_offset 8, -8
	addi	s0,sp,80
	.cfi_def_cfa 8, 0
	sw	a0,-36(s0)
	sw	a1,-40(s0)
	sw	a2,-44(s0)
	sw	a3,-48(s0)
	sw	a4,-52(s0)
	sw	a5,-56(s0)
	sw	a6,-60(s0)
	sw	a7,-64(s0)
	.loc 4 1171 18
	li	a5,-151
	sw	a5,-20(s0)
	.loc 4 1173 33
	lw	a0,-36(s0)
	call	psa_get_key_lifetime
	mv	a5,a0
	.loc 4 1172 24
	srli	a5,a5,8
	sw	a5,-24(s0)
	.loc 4 1175 5
	lw	a5,-24(s0)
	bne	a5,zero,.L93
	.loc 4 1198 21
	lw	a5,0(s0)
	sw	a5,0(sp)
	lw	a7,-64(s0)
	lw	a6,-60(s0)
	lw	a5,-56(s0)
	lw	a4,-52(s0)
	lw	a3,-48(s0)
	lw	a2,-44(s0)
	lw	a1,-40(s0)
	lw	a0,-36(s0)
	call	mbedtls_psa_cipher_decrypt
	mv	a5,a0
	j	.L94
.L93:
	.loc 4 1238 19
	li	a5,-135
.L94:
	.loc 4 1240 1
	mv	a0,a5
	lw	ra,76(sp)
	.cfi_restore 1
	lw	s0,72(sp)
	.cfi_restore 8
	.cfi_def_cfa 2, 80
	addi	sp,sp,80
	.cfi_def_cfa_offset 0
	jr	ra
	.cfi_endproc
.LFE92:
	.size	psa_driver_wrapper_cipher_decrypt, .-psa_driver_wrapper_cipher_decrypt
	.section	.text.psa_driver_wrapper_cipher_encrypt_setup,"ax",@progbits
	.align	1
	.type	psa_driver_wrapper_cipher_encrypt_setup, @function
psa_driver_wrapper_cipher_encrypt_setup:
.LFB93:
	.loc 4 1247 1
	.cfi_startproc
	addi	sp,sp,-64
	.cfi_def_cfa_offset 64
	sw	ra,60(sp)
	sw	s0,56(sp)
	.cfi_offset 1, -4
	.cfi_offset 8, -8
	addi	s0,sp,64
	.cfi_def_cfa 8, 0
	sw	a0,-36(s0)
	sw	a1,-40(s0)
	sw	a2,-44(s0)
	sw	a3,-48(s0)
	sw	a4,-52(s0)
	.loc 4 1248 18
	li	a5,-151
	sw	a5,-20(s0)
	.loc 4 1250 33
	lw	a0,-40(s0)
	call	psa_get_key_lifetime
	mv	a5,a0
	.loc 4 1249 24
	srli	a5,a5,8
	sw	a5,-24(s0)
	.loc 4 1252 5
	lw	a5,-24(s0)
	bne	a5,zero,.L96
	.loc 4 1275 22
	lw	a5,-36(s0)
	addi	a5,a5,8
	lw	a4,-52(s0)
	lw	a3,-48(s0)
	lw	a2,-44(s0)
	lw	a1,-40(s0)
	mv	a0,a5
	call	mbedtls_psa_cipher_encrypt_setup
	sw	a0,-20(s0)
	.loc 4 1280 15
	lw	a5,-20(s0)
	bne	a5,zero,.L97
	.loc 4 1281 31
	lw	a5,-36(s0)
	li	a4,1
	sw	a4,0(a5)
.L97:
	.loc 4 1283 15
	lw	a4,-20(s0)
	li	a5,-134
	beq	a4,a5,.L98
	.loc 4 1284 23
	lw	a5,-20(s0)
	j	.L99
.L98:
	.loc 4 1286 19
	li	a5,-134
	j	.L99
.L96:
	.loc 4 1311 19
	li	a5,-135
.L99:
	.loc 4 1313 1
	mv	a0,a5
	lw	ra,60(sp)
	.cfi_restore 1
	lw	s0,56(sp)
	.cfi_restore 8
	.cfi_def_cfa 2, 64
	addi	sp,sp,64
	.cfi_def_cfa_offset 0
	jr	ra
	.cfi_endproc
.LFE93:
	.size	psa_driver_wrapper_cipher_encrypt_setup, .-psa_driver_wrapper_cipher_encrypt_setup
	.section	.text.psa_driver_wrapper_cipher_decrypt_setup,"ax",@progbits
	.align	1
	.type	psa_driver_wrapper_cipher_decrypt_setup, @function
psa_driver_wrapper_cipher_decrypt_setup:
.LFB94:
	.loc 4 1320 1
	.cfi_startproc
	addi	sp,sp,-64
	.cfi_def_cfa_offset 64
	sw	ra,60(sp)
	sw	s0,56(sp)
	.cfi_offset 1, -4
	.cfi_offset 8, -8
	addi	s0,sp,64
	.cfi_def_cfa 8, 0
	sw	a0,-36(s0)
	sw	a1,-40(s0)
	sw	a2,-44(s0)
	sw	a3,-48(s0)
	sw	a4,-52(s0)
	.loc 4 1321 18
	li	a5,-135
	sw	a5,-20(s0)
	.loc 4 1323 33
	lw	a0,-40(s0)
	call	psa_get_key_lifetime
	mv	a5,a0
	.loc 4 1322 24
	srli	a5,a5,8
	sw	a5,-24(s0)
	.loc 4 1325 5
	lw	a5,-24(s0)
	bne	a5,zero,.L101
	.loc 4 1348 22
	lw	a5,-36(s0)
	addi	a5,a5,8
	lw	a4,-52(s0)
	lw	a3,-48(s0)
	lw	a2,-44(s0)
	lw	a1,-40(s0)
	mv	a0,a5
	call	mbedtls_psa_cipher_decrypt_setup
	sw	a0,-20(s0)
	.loc 4 1353 15
	lw	a5,-20(s0)
	bne	a5,zero,.L102
	.loc 4 1354 31
	lw	a5,-36(s0)
	li	a4,1
	sw	a4,0(a5)
.L102:
	.loc 4 1356 19
	lw	a5,-20(s0)
	j	.L103
.L101:
	.loc 4 1384 19
	li	a5,-135
.L103:
	.loc 4 1386 1
	mv	a0,a5
	lw	ra,60(sp)
	.cfi_restore 1
	lw	s0,56(sp)
	.cfi_restore 8
	.cfi_def_cfa 2, 64
	addi	sp,sp,64
	.cfi_def_cfa_offset 0
	jr	ra
	.cfi_endproc
.LFE94:
	.size	psa_driver_wrapper_cipher_decrypt_setup, .-psa_driver_wrapper_cipher_decrypt_setup
	.section	.text.psa_driver_wrapper_cipher_set_iv,"ax",@progbits
	.align	1
	.type	psa_driver_wrapper_cipher_set_iv, @function
psa_driver_wrapper_cipher_set_iv:
.LFB95:
	.loc 4 1392 1
	.cfi_startproc
	addi	sp,sp,-32
	.cfi_def_cfa_offset 32
	sw	ra,28(sp)
	sw	s0,24(sp)
	.cfi_offset 1, -4
	.cfi_offset 8, -8
	addi	s0,sp,32
	.cfi_def_cfa 8, 0
	sw	a0,-20(s0)
	sw	a1,-24(s0)
	sw	a2,-28(s0)
	.loc 4 1393 22
	lw	a5,-20(s0)
	lw	a4,0(a5)
	.loc 4 1393 5
	li	a5,1
	bne	a4,a5,.L105
	.loc 4 1397 21
	lw	a5,-20(s0)
	addi	a5,a5,8
	lw	a2,-28(s0)
	lw	a1,-24(s0)
	mv	a0,a5
	call	mbedtls_psa_cipher_set_iv
	mv	a5,a0
	j	.L106
.L105:
	.loc 4 1420 11
	li	a5,-135
.L106:
	.loc 4 1421 1
	mv	a0,a5
	lw	ra,28(sp)
	.cfi_restore 1
	lw	s0,24(sp)
	.cfi_restore 8
	.cfi_def_cfa 2, 32
	addi	sp,sp,32
	.cfi_def_cfa_offset 0
	jr	ra
	.cfi_endproc
.LFE95:
	.size	psa_driver_wrapper_cipher_set_iv, .-psa_driver_wrapper_cipher_set_iv
	.section	.text.psa_driver_wrapper_cipher_update,"ax",@progbits
	.align	1
	.type	psa_driver_wrapper_cipher_update, @function
psa_driver_wrapper_cipher_update:
.LFB96:
	.loc 4 1430 1
	.cfi_startproc
	addi	sp,sp,-48
	.cfi_def_cfa_offset 48
	sw	ra,44(sp)
	sw	s0,40(sp)
	.cfi_offset 1, -4
	.cfi_offset 8, -8
	addi	s0,sp,48
	.cfi_def_cfa 8, 0
	sw	a0,-20(s0)
	sw	a1,-24(s0)
	sw	a2,-28(s0)
	sw	a3,-32(s0)
	sw	a4,-36(s0)
	sw	a5,-40(s0)
	.loc 4 1431 22
	lw	a5,-20(s0)
	lw	a4,0(a5)
	.loc 4 1431 5
	li	a5,1
	bne	a4,a5,.L108
	.loc 4 1435 21
	lw	a5,-20(s0)
	addi	a0,a5,8
	lw	a5,-40(s0)
	lw	a4,-36(s0)
	lw	a3,-32(s0)
	lw	a2,-28(s0)
	lw	a1,-24(s0)
	call	mbedtls_psa_cipher_update
	mv	a5,a0
	j	.L109
.L108:
	.loc 4 1466 11
	li	a5,-135
.L109:
	.loc 4 1467 1
	mv	a0,a5
	lw	ra,44(sp)
	.cfi_restore 1
	lw	s0,40(sp)
	.cfi_restore 8
	.cfi_def_cfa 2, 48
	addi	sp,sp,48
	.cfi_def_cfa_offset 0
	jr	ra
	.cfi_endproc
.LFE96:
	.size	psa_driver_wrapper_cipher_update, .-psa_driver_wrapper_cipher_update
	.section	.text.psa_driver_wrapper_cipher_finish,"ax",@progbits
	.align	1
	.type	psa_driver_wrapper_cipher_finish, @function
psa_driver_wrapper_cipher_finish:
.LFB97:
	.loc 4 1474 1
	.cfi_startproc
	addi	sp,sp,-32
	.cfi_def_cfa_offset 32
	sw	ra,28(sp)
	sw	s0,24(sp)
	.cfi_offset 1, -4
	.cfi_offset 8, -8
	addi	s0,sp,32
	.cfi_def_cfa 8, 0
	sw	a0,-20(s0)
	sw	a1,-24(s0)
	sw	a2,-28(s0)
	sw	a3,-32(s0)
	.loc 4 1475 22
	lw	a5,-20(s0)
	lw	a4,0(a5)
	.loc 4 1475 5
	li	a5,1
	bne	a4,a5,.L111
	.loc 4 1479 21
	lw	a5,-20(s0)
	addi	a5,a5,8
	lw	a3,-32(s0)
	lw	a2,-28(s0)
	lw	a1,-24(s0)
	mv	a0,a5
	call	mbedtls_psa_cipher_finish
	mv	a5,a0
	j	.L112
.L111:
	.loc 4 1504 11
	li	a5,-135
.L112:
	.loc 4 1505 1
	mv	a0,a5
	lw	ra,28(sp)
	.cfi_restore 1
	lw	s0,24(sp)
	.cfi_restore 8
	.cfi_def_cfa 2, 32
	addi	sp,sp,32
	.cfi_def_cfa_offset 0
	jr	ra
	.cfi_endproc
.LFE97:
	.size	psa_driver_wrapper_cipher_finish, .-psa_driver_wrapper_cipher_finish
	.section	.text.psa_driver_wrapper_cipher_abort,"ax",@progbits
	.align	1
	.type	psa_driver_wrapper_cipher_abort, @function
psa_driver_wrapper_cipher_abort:
.LFB98:
	.loc 4 1509 1
	.cfi_startproc
	addi	sp,sp,-48
	.cfi_def_cfa_offset 48
	sw	ra,44(sp)
	sw	s0,40(sp)
	.cfi_offset 1, -4
	.cfi_offset 8, -8
	addi	s0,sp,48
	.cfi_def_cfa 8, 0
	sw	a0,-36(s0)
	.loc 4 1510 18
	li	a5,-151
	sw	a5,-20(s0)
	.loc 4 1512 22
	lw	a5,-36(s0)
	lw	a4,0(a5)
	.loc 4 1512 5
	li	a5,1
	bne	a4,a5,.L114
	.loc 4 1516 21
	lw	a5,-36(s0)
	addi	a5,a5,8
	mv	a0,a5
	call	mbedtls_psa_cipher_abort
	mv	a5,a0
	j	.L115
.L114:
	.loc 4 1541 11
	li	a5,-135
.L115:
	.loc 4 1542 1
	mv	a0,a5
	lw	ra,44(sp)
	.cfi_restore 1
	lw	s0,40(sp)
	.cfi_restore 8
	.cfi_def_cfa 2, 48
	addi	sp,sp,48
	.cfi_def_cfa_offset 0
	jr	ra
	.cfi_endproc
.LFE98:
	.size	psa_driver_wrapper_cipher_abort, .-psa_driver_wrapper_cipher_abort
	.section	.text.psa_driver_wrapper_hash_compute,"ax",@progbits
	.align	1
	.type	psa_driver_wrapper_hash_compute, @function
psa_driver_wrapper_hash_compute:
.LFB99:
	.loc 4 1554 1
	.cfi_startproc
	addi	sp,sp,-64
	.cfi_def_cfa_offset 64
	sw	ra,60(sp)
	sw	s0,56(sp)
	.cfi_offset 1, -4
	.cfi_offset 8, -8
	addi	s0,sp,64
	.cfi_def_cfa 8, 0
	sw	a0,-36(s0)
	sw	a1,-40(s0)
	sw	a2,-44(s0)
	sw	a3,-48(s0)
	sw	a4,-52(s0)
	sw	a5,-56(s0)
	.loc 4 1555 18
	li	a5,-151
	sw	a5,-20(s0)
	.loc 4 1567 14
	lw	a5,-56(s0)
	lw	a4,-52(s0)
	lw	a3,-48(s0)
	lw	a2,-44(s0)
	lw	a1,-40(s0)
	lw	a0,-36(s0)
	call	mbedtls_psa_hash_compute
	sw	a0,-20(s0)
	.loc 4 1569 7
	lw	a4,-20(s0)
	li	a5,-134
	beq	a4,a5,.L117
	.loc 4 1570 15
	lw	a5,-20(s0)
	j	.L118
.L117:
	.loc 4 1580 11
	li	a5,-134
.L118:
	.loc 4 1581 1
	mv	a0,a5
	lw	ra,60(sp)
	.cfi_restore 1
	lw	s0,56(sp)
	.cfi_restore 8
	.cfi_def_cfa 2, 64
	addi	sp,sp,64
	.cfi_def_cfa_offset 0
	jr	ra
	.cfi_endproc
.LFE99:
	.size	psa_driver_wrapper_hash_compute, .-psa_driver_wrapper_hash_compute
	.section	.text.psa_driver_wrapper_hash_setup,"ax",@progbits
	.align	1
	.type	psa_driver_wrapper_hash_setup, @function
psa_driver_wrapper_hash_setup:
.LFB100:
	.loc 4 1586 1
	.cfi_startproc
	addi	sp,sp,-48
	.cfi_def_cfa_offset 48
	sw	ra,44(sp)
	sw	s0,40(sp)
	.cfi_offset 1, -4
	.cfi_offset 8, -8
	addi	s0,sp,48
	.cfi_def_cfa 8, 0
	sw	a0,-36(s0)
	sw	a1,-40(s0)
	.loc 4 1587 18
	li	a5,-151
	sw	a5,-20(s0)
	.loc 4 1602 14
	lw	a5,-36(s0)
	addi	a5,a5,8
	lw	a1,-40(s0)
	mv	a0,a5
	call	mbedtls_psa_hash_setup
	sw	a0,-20(s0)
	.loc 4 1603 7
	lw	a5,-20(s0)
	bne	a5,zero,.L120
	.loc 4 1604 23
	lw	a5,-36(s0)
	li	a4,1
	sw	a4,0(a5)
.L120:
	.loc 4 1606 7
	lw	a4,-20(s0)
	li	a5,-134
	beq	a4,a5,.L121
	.loc 4 1607 15
	lw	a5,-20(s0)
	j	.L122
.L121:
	.loc 4 1613 11
	li	a5,-134
.L122:
	.loc 4 1614 1
	mv	a0,a5
	lw	ra,44(sp)
	.cfi_restore 1
	lw	s0,40(sp)
	.cfi_restore 8
	.cfi_def_cfa 2, 48
	addi	sp,sp,48
	.cfi_def_cfa_offset 0
	jr	ra
	.cfi_endproc
.LFE100:
	.size	psa_driver_wrapper_hash_setup, .-psa_driver_wrapper_hash_setup
	.section	.text.psa_driver_wrapper_hash_clone,"ax",@progbits
	.align	1
	.type	psa_driver_wrapper_hash_clone, @function
psa_driver_wrapper_hash_clone:
.LFB101:
	.loc 4 1619 1
	.cfi_startproc
	addi	sp,sp,-32
	.cfi_def_cfa_offset 32
	sw	ra,28(sp)
	sw	s0,24(sp)
	.cfi_offset 1, -4
	.cfi_offset 8, -8
	addi	s0,sp,32
	.cfi_def_cfa 8, 0
	sw	a0,-20(s0)
	sw	a1,-24(s0)
	.loc 4 1620 29
	lw	a5,-20(s0)
	lw	a4,0(a5)
	.loc 4 1620 5
	li	a5,1
	bne	a4,a5,.L124
	.loc 4 1624 34
	lw	a5,-24(s0)
	li	a4,1
	sw	a4,0(a5)
	.loc 4 1625 21
	lw	a5,-20(s0)
	addi	a4,a5,8
	lw	a5,-24(s0)
	addi	a5,a5,8
	mv	a1,a5
	mv	a0,a4
	call	mbedtls_psa_hash_clone
	mv	a5,a0
	j	.L125
.L124:
	.loc 4 1637 19
	li	a5,-137
.L125:
	.loc 4 1639 1
	mv	a0,a5
	lw	ra,28(sp)
	.cfi_restore 1
	lw	s0,24(sp)
	.cfi_restore 8
	.cfi_def_cfa 2, 32
	addi	sp,sp,32
	.cfi_def_cfa_offset 0
	jr	ra
	.cfi_endproc
.LFE101:
	.size	psa_driver_wrapper_hash_clone, .-psa_driver_wrapper_hash_clone
	.section	.text.psa_driver_wrapper_hash_update,"ax",@progbits
	.align	1
	.type	psa_driver_wrapper_hash_update, @function
psa_driver_wrapper_hash_update:
.LFB102:
	.loc 4 1645 1
	.cfi_startproc
	addi	sp,sp,-32
	.cfi_def_cfa_offset 32
	sw	ra,28(sp)
	sw	s0,24(sp)
	.cfi_offset 1, -4
	.cfi_offset 8, -8
	addi	s0,sp,32
	.cfi_def_cfa 8, 0
	sw	a0,-20(s0)
	sw	a1,-24(s0)
	sw	a2,-28(s0)
	.loc 4 1646 22
	lw	a5,-20(s0)
	lw	a4,0(a5)
	.loc 4 1646 5
	li	a5,1
	bne	a4,a5,.L127
	.loc 4 1650 21
	lw	a5,-20(s0)
	addi	a5,a5,8
	lw	a2,-28(s0)
	lw	a1,-24(s0)
	mv	a0,a5
	call	mbedtls_psa_hash_update
	mv	a5,a0
	j	.L128
.L127:
	.loc 4 1662 19
	li	a5,-137
.L128:
	.loc 4 1664 1
	mv	a0,a5
	lw	ra,28(sp)
	.cfi_restore 1
	lw	s0,24(sp)
	.cfi_restore 8
	.cfi_def_cfa 2, 32
	addi	sp,sp,32
	.cfi_def_cfa_offset 0
	jr	ra
	.cfi_endproc
.LFE102:
	.size	psa_driver_wrapper_hash_update, .-psa_driver_wrapper_hash_update
	.section	.text.psa_driver_wrapper_hash_finish,"ax",@progbits
	.align	1
	.type	psa_driver_wrapper_hash_finish, @function
psa_driver_wrapper_hash_finish:
.LFB103:
	.loc 4 1671 1
	.cfi_startproc
	addi	sp,sp,-32
	.cfi_def_cfa_offset 32
	sw	ra,28(sp)
	sw	s0,24(sp)
	.cfi_offset 1, -4
	.cfi_offset 8, -8
	addi	s0,sp,32
	.cfi_def_cfa 8, 0
	sw	a0,-20(s0)
	sw	a1,-24(s0)
	sw	a2,-28(s0)
	sw	a3,-32(s0)
	.loc 4 1672 22
	lw	a5,-20(s0)
	lw	a4,0(a5)
	.loc 4 1672 5
	li	a5,1
	bne	a4,a5,.L130
	.loc 4 1676 21
	lw	a5,-20(s0)
	addi	a5,a5,8
	lw	a3,-32(s0)
	lw	a2,-28(s0)
	lw	a1,-24(s0)
	mv	a0,a5
	call	mbedtls_psa_hash_finish
	mv	a5,a0
	j	.L131
.L130:
	.loc 4 1689 19
	li	a5,-137
.L131:
	.loc 4 1691 1
	mv	a0,a5
	lw	ra,28(sp)
	.cfi_restore 1
	lw	s0,24(sp)
	.cfi_restore 8
	.cfi_def_cfa 2, 32
	addi	sp,sp,32
	.cfi_def_cfa_offset 0
	jr	ra
	.cfi_endproc
.LFE103:
	.size	psa_driver_wrapper_hash_finish, .-psa_driver_wrapper_hash_finish
	.section	.text.psa_driver_wrapper_hash_abort,"ax",@progbits
	.align	1
	.type	psa_driver_wrapper_hash_abort, @function
psa_driver_wrapper_hash_abort:
.LFB104:
	.loc 4 1695 1
	.cfi_startproc
	addi	sp,sp,-32
	.cfi_def_cfa_offset 32
	sw	ra,28(sp)
	sw	s0,24(sp)
	.cfi_offset 1, -4
	.cfi_offset 8, -8
	addi	s0,sp,32
	.cfi_def_cfa 8, 0
	sw	a0,-20(s0)
	.loc 4 1696 22
	lw	a5,-20(s0)
	lw	a4,0(a5)
	.loc 4 1696 5
	li	a5,1
	bne	a4,a5,.L133
	.loc 4 1700 21
	lw	a5,-20(s0)
	addi	a5,a5,8
	mv	a0,a5
	call	mbedtls_psa_hash_abort
	mv	a5,a0
	j	.L134
.L133:
	.loc 4 1708 19
	li	a5,-137
.L134:
	.loc 4 1710 1
	mv	a0,a5
	lw	ra,28(sp)
	.cfi_restore 1
	lw	s0,24(sp)
	.cfi_restore 8
	.cfi_def_cfa 2, 32
	addi	sp,sp,32
	.cfi_def_cfa_offset 0
	jr	ra
	.cfi_endproc
.LFE104:
	.size	psa_driver_wrapper_hash_abort, .-psa_driver_wrapper_hash_abort
	.section	.text.psa_driver_wrapper_aead_encrypt,"ax",@progbits
	.align	1
	.type	psa_driver_wrapper_aead_encrypt, @function
psa_driver_wrapper_aead_encrypt:
.LFB105:
	.loc 4 1720 1
	.cfi_startproc
	addi	sp,sp,-96
	.cfi_def_cfa_offset 96
	sw	ra,92(sp)
	sw	s0,88(sp)
	.cfi_offset 1, -4
	.cfi_offset 8, -8
	addi	s0,sp,96
	.cfi_def_cfa 8, 0
	sw	a0,-36(s0)
	sw	a1,-40(s0)
	sw	a2,-44(s0)
	sw	a3,-48(s0)
	sw	a4,-52(s0)
	sw	a5,-56(s0)
	sw	a6,-60(s0)
	sw	a7,-64(s0)
	.loc 4 1721 18
	li	a5,-151
	sw	a5,-20(s0)
	.loc 4 1723 33
	lw	a0,-36(s0)
	call	psa_get_key_lifetime
	mv	a5,a0
	.loc 4 1722 24
	srli	a5,a5,8
	sw	a5,-24(s0)
	.loc 4 1725 5
	lw	a5,-24(s0)
	bne	a5,zero,.L136
	.loc 4 1747 21
	lw	a5,16(s0)
	sw	a5,16(sp)
	lw	a5,12(s0)
	sw	a5,12(sp)
	lw	a5,8(s0)
	sw	a5,8(sp)
	lw	a5,4(s0)
	sw	a5,4(sp)
	lw	a5,0(s0)
	sw	a5,0(sp)
	lw	a7,-64(s0)
	lw	a6,-60(s0)
	lw	a5,-56(s0)
	lw	a4,-52(s0)
	lw	a3,-48(s0)
	lw	a2,-44(s0)
	lw	a1,-40(s0)
	lw	a0,-36(s0)
	call	mbedtls_psa_aead_encrypt
	mv	a5,a0
	j	.L137
.L136:
	.loc 4 1760 19
	li	a5,-135
.L137:
	.loc 4 1762 1
	mv	a0,a5
	lw	ra,92(sp)
	.cfi_restore 1
	lw	s0,88(sp)
	.cfi_restore 8
	.cfi_def_cfa 2, 96
	addi	sp,sp,96
	.cfi_def_cfa_offset 0
	jr	ra
	.cfi_endproc
.LFE105:
	.size	psa_driver_wrapper_aead_encrypt, .-psa_driver_wrapper_aead_encrypt
	.section	.text.psa_driver_wrapper_aead_decrypt,"ax",@progbits
	.align	1
	.type	psa_driver_wrapper_aead_decrypt, @function
psa_driver_wrapper_aead_decrypt:
.LFB106:
	.loc 4 1772 1
	.cfi_startproc
	addi	sp,sp,-96
	.cfi_def_cfa_offset 96
	sw	ra,92(sp)
	sw	s0,88(sp)
	.cfi_offset 1, -4
	.cfi_offset 8, -8
	addi	s0,sp,96
	.cfi_def_cfa 8, 0
	sw	a0,-36(s0)
	sw	a1,-40(s0)
	sw	a2,-44(s0)
	sw	a3,-48(s0)
	sw	a4,-52(s0)
	sw	a5,-56(s0)
	sw	a6,-60(s0)
	sw	a7,-64(s0)
	.loc 4 1773 18
	li	a5,-151
	sw	a5,-20(s0)
	.loc 4 1775 33
	lw	a0,-36(s0)
	call	psa_get_key_lifetime
	mv	a5,a0
	.loc 4 1774 24
	srli	a5,a5,8
	sw	a5,-24(s0)
	.loc 4 1777 5
	lw	a5,-24(s0)
	bne	a5,zero,.L139
	.loc 4 1799 21
	lw	a5,16(s0)
	sw	a5,16(sp)
	lw	a5,12(s0)
	sw	a5,12(sp)
	lw	a5,8(s0)
	sw	a5,8(sp)
	lw	a5,4(s0)
	sw	a5,4(sp)
	lw	a5,0(s0)
	sw	a5,0(sp)
	lw	a7,-64(s0)
	lw	a6,-60(s0)
	lw	a5,-56(s0)
	lw	a4,-52(s0)
	lw	a3,-48(s0)
	lw	a2,-44(s0)
	lw	a1,-40(s0)
	lw	a0,-36(s0)
	call	mbedtls_psa_aead_decrypt
	mv	a5,a0
	j	.L140
.L139:
	.loc 4 1812 19
	li	a5,-135
.L140:
	.loc 4 1814 1
	mv	a0,a5
	lw	ra,92(sp)
	.cfi_restore 1
	lw	s0,88(sp)
	.cfi_restore 8
	.cfi_def_cfa 2, 96
	addi	sp,sp,96
	.cfi_def_cfa_offset 0
	jr	ra
	.cfi_endproc
.LFE106:
	.size	psa_driver_wrapper_aead_decrypt, .-psa_driver_wrapper_aead_decrypt
	.section	.text.psa_driver_wrapper_aead_encrypt_setup,"ax",@progbits
	.align	1
	.type	psa_driver_wrapper_aead_encrypt_setup, @function
psa_driver_wrapper_aead_encrypt_setup:
.LFB107:
	.loc 4 1821 1
	.cfi_startproc
	addi	sp,sp,-64
	.cfi_def_cfa_offset 64
	sw	ra,60(sp)
	sw	s0,56(sp)
	.cfi_offset 1, -4
	.cfi_offset 8, -8
	addi	s0,sp,64
	.cfi_def_cfa 8, 0
	sw	a0,-36(s0)
	sw	a1,-40(s0)
	sw	a2,-44(s0)
	sw	a3,-48(s0)
	sw	a4,-52(s0)
	.loc 4 1822 18
	li	a5,-151
	sw	a5,-20(s0)
	.loc 4 1824 33
	lw	a0,-40(s0)
	call	psa_get_key_lifetime
	mv	a5,a0
	.loc 4 1823 24
	srli	a5,a5,8
	sw	a5,-24(s0)
	.loc 4 1826 5
	lw	a5,-24(s0)
	bne	a5,zero,.L142
	.loc 4 1847 27
	lw	a5,-36(s0)
	li	a4,1
	sw	a4,0(a5)
	.loc 4 1848 22
	lw	a5,-36(s0)
	addi	a5,a5,24
	lw	a4,-52(s0)
	lw	a3,-48(s0)
	lw	a2,-44(s0)
	lw	a1,-40(s0)
	mv	a0,a5
	call	mbedtls_psa_aead_encrypt_setup
	sw	a0,-20(s0)
	.loc 4 1853 19
	lw	a5,-20(s0)
	j	.L143
.L142:
	.loc 4 1860 19
	li	a5,-135
.L143:
	.loc 4 1862 1
	mv	a0,a5
	lw	ra,60(sp)
	.cfi_restore 1
	lw	s0,56(sp)
	.cfi_restore 8
	.cfi_def_cfa 2, 64
	addi	sp,sp,64
	.cfi_def_cfa_offset 0
	jr	ra
	.cfi_endproc
.LFE107:
	.size	psa_driver_wrapper_aead_encrypt_setup, .-psa_driver_wrapper_aead_encrypt_setup
	.section	.text.psa_driver_wrapper_aead_decrypt_setup,"ax",@progbits
	.align	1
	.type	psa_driver_wrapper_aead_decrypt_setup, @function
psa_driver_wrapper_aead_decrypt_setup:
.LFB108:
	.loc 4 1869 1
	.cfi_startproc
	addi	sp,sp,-64
	.cfi_def_cfa_offset 64
	sw	ra,60(sp)
	sw	s0,56(sp)
	.cfi_offset 1, -4
	.cfi_offset 8, -8
	addi	s0,sp,64
	.cfi_def_cfa 8, 0
	sw	a0,-36(s0)
	sw	a1,-40(s0)
	sw	a2,-44(s0)
	sw	a3,-48(s0)
	sw	a4,-52(s0)
	.loc 4 1870 18
	li	a5,-151
	sw	a5,-20(s0)
	.loc 4 1872 33
	lw	a0,-40(s0)
	call	psa_get_key_lifetime
	mv	a5,a0
	.loc 4 1871 24
	srli	a5,a5,8
	sw	a5,-24(s0)
	.loc 4 1874 5
	lw	a5,-24(s0)
	bne	a5,zero,.L145
	.loc 4 1896 27
	lw	a5,-36(s0)
	li	a4,1
	sw	a4,0(a5)
	.loc 4 1897 22
	lw	a5,-36(s0)
	addi	a5,a5,24
	lw	a4,-52(s0)
	lw	a3,-48(s0)
	lw	a2,-44(s0)
	lw	a1,-40(s0)
	mv	a0,a5
	call	mbedtls_psa_aead_decrypt_setup
	sw	a0,-20(s0)
	.loc 4 1903 19
	lw	a5,-20(s0)
	j	.L146
.L145:
	.loc 4 1910 19
	li	a5,-135
.L146:
	.loc 4 1912 1
	mv	a0,a5
	lw	ra,60(sp)
	.cfi_restore 1
	lw	s0,56(sp)
	.cfi_restore 8
	.cfi_def_cfa 2, 64
	addi	sp,sp,64
	.cfi_def_cfa_offset 0
	jr	ra
	.cfi_endproc
.LFE108:
	.size	psa_driver_wrapper_aead_decrypt_setup, .-psa_driver_wrapper_aead_decrypt_setup
	.section	.text.psa_driver_wrapper_aead_set_nonce,"ax",@progbits
	.align	1
	.type	psa_driver_wrapper_aead_set_nonce, @function
psa_driver_wrapper_aead_set_nonce:
.LFB109:
	.loc 4 1918 1
	.cfi_startproc
	addi	sp,sp,-32
	.cfi_def_cfa_offset 32
	sw	ra,28(sp)
	sw	s0,24(sp)
	.cfi_offset 1, -4
	.cfi_offset 8, -8
	addi	s0,sp,32
	.cfi_def_cfa 8, 0
	sw	a0,-20(s0)
	sw	a1,-24(s0)
	sw	a2,-28(s0)
	.loc 4 1919 22
	lw	a5,-20(s0)
	lw	a4,0(a5)
	.loc 4 1919 5
	li	a5,1
	bne	a4,a5,.L148
	.loc 4 1923 21
	lw	a5,-20(s0)
	addi	a5,a5,24
	lw	a2,-28(s0)
	lw	a1,-24(s0)
	mv	a0,a5
	call	mbedtls_psa_aead_set_nonce
	mv	a5,a0
	j	.L149
.L148:
	.loc 4 1945 11
	li	a5,-135
.L149:
	.loc 4 1946 1
	mv	a0,a5
	lw	ra,28(sp)
	.cfi_restore 1
	lw	s0,24(sp)
	.cfi_restore 8
	.cfi_def_cfa 2, 32
	addi	sp,sp,32
	.cfi_def_cfa_offset 0
	jr	ra
	.cfi_endproc
.LFE109:
	.size	psa_driver_wrapper_aead_set_nonce, .-psa_driver_wrapper_aead_set_nonce
	.section	.text.psa_driver_wrapper_aead_set_lengths,"ax",@progbits
	.align	1
	.type	psa_driver_wrapper_aead_set_lengths, @function
psa_driver_wrapper_aead_set_lengths:
.LFB110:
	.loc 4 1952 1
	.cfi_startproc
	addi	sp,sp,-32
	.cfi_def_cfa_offset 32
	sw	ra,28(sp)
	sw	s0,24(sp)
	.cfi_offset 1, -4
	.cfi_offset 8, -8
	addi	s0,sp,32
	.cfi_def_cfa 8, 0
	sw	a0,-20(s0)
	sw	a1,-24(s0)
	sw	a2,-28(s0)
	.loc 4 1953 22
	lw	a5,-20(s0)
	lw	a4,0(a5)
	.loc 4 1953 5
	li	a5,1
	bne	a4,a5,.L151
	.loc 4 1957 21
	lw	a5,-20(s0)
	addi	a5,a5,24
	lw	a2,-28(s0)
	lw	a1,-24(s0)
	mv	a0,a5
	call	mbedtls_psa_aead_set_lengths
	mv	a5,a0
	j	.L152
.L151:
	.loc 4 1979 11
	li	a5,-135
.L152:
	.loc 4 1980 1
	mv	a0,a5
	lw	ra,28(sp)
	.cfi_restore 1
	lw	s0,24(sp)
	.cfi_restore 8
	.cfi_def_cfa 2, 32
	addi	sp,sp,32
	.cfi_def_cfa_offset 0
	jr	ra
	.cfi_endproc
.LFE110:
	.size	psa_driver_wrapper_aead_set_lengths, .-psa_driver_wrapper_aead_set_lengths
	.section	.text.psa_driver_wrapper_aead_update_ad,"ax",@progbits
	.align	1
	.type	psa_driver_wrapper_aead_update_ad, @function
psa_driver_wrapper_aead_update_ad:
.LFB111:
	.loc 4 1986 1
	.cfi_startproc
	addi	sp,sp,-32
	.cfi_def_cfa_offset 32
	sw	ra,28(sp)
	sw	s0,24(sp)
	.cfi_offset 1, -4
	.cfi_offset 8, -8
	addi	s0,sp,32
	.cfi_def_cfa 8, 0
	sw	a0,-20(s0)
	sw	a1,-24(s0)
	sw	a2,-28(s0)
	.loc 4 1987 22
	lw	a5,-20(s0)
	lw	a4,0(a5)
	.loc 4 1987 5
	li	a5,1
	bne	a4,a5,.L154
	.loc 4 1991 21
	lw	a5,-20(s0)
	addi	a5,a5,24
	lw	a2,-28(s0)
	lw	a1,-24(s0)
	mv	a0,a5
	call	mbedtls_psa_aead_update_ad
	mv	a5,a0
	j	.L155
.L154:
	.loc 4 2013 11
	li	a5,-135
.L155:
	.loc 4 2014 1
	mv	a0,a5
	lw	ra,28(sp)
	.cfi_restore 1
	lw	s0,24(sp)
	.cfi_restore 8
	.cfi_def_cfa 2, 32
	addi	sp,sp,32
	.cfi_def_cfa_offset 0
	jr	ra
	.cfi_endproc
.LFE111:
	.size	psa_driver_wrapper_aead_update_ad, .-psa_driver_wrapper_aead_update_ad
	.section	.text.psa_driver_wrapper_aead_update,"ax",@progbits
	.align	1
	.type	psa_driver_wrapper_aead_update, @function
psa_driver_wrapper_aead_update:
.LFB112:
	.loc 4 2023 1
	.cfi_startproc
	addi	sp,sp,-48
	.cfi_def_cfa_offset 48
	sw	ra,44(sp)
	sw	s0,40(sp)
	.cfi_offset 1, -4
	.cfi_offset 8, -8
	addi	s0,sp,48
	.cfi_def_cfa 8, 0
	sw	a0,-20(s0)
	sw	a1,-24(s0)
	sw	a2,-28(s0)
	sw	a3,-32(s0)
	sw	a4,-36(s0)
	sw	a5,-40(s0)
	.loc 4 2024 22
	lw	a5,-20(s0)
	lw	a4,0(a5)
	.loc 4 2024 5
	li	a5,1
	bne	a4,a5,.L157
	.loc 4 2028 21
	lw	a5,-20(s0)
	addi	a0,a5,24
	lw	a5,-40(s0)
	lw	a4,-36(s0)
	lw	a3,-32(s0)
	lw	a2,-28(s0)
	lw	a1,-24(s0)
	call	mbedtls_psa_aead_update
	mv	a5,a0
	j	.L158
.L157:
	.loc 4 2055 11
	li	a5,-135
.L158:
	.loc 4 2056 1
	mv	a0,a5
	lw	ra,44(sp)
	.cfi_restore 1
	lw	s0,40(sp)
	.cfi_restore 8
	.cfi_def_cfa 2, 48
	addi	sp,sp,48
	.cfi_def_cfa_offset 0
	jr	ra
	.cfi_endproc
.LFE112:
	.size	psa_driver_wrapper_aead_update, .-psa_driver_wrapper_aead_update
	.section	.text.psa_driver_wrapper_aead_finish,"ax",@progbits
	.align	1
	.type	psa_driver_wrapper_aead_finish, @function
psa_driver_wrapper_aead_finish:
.LFB113:
	.loc 4 2066 1
	.cfi_startproc
	addi	sp,sp,-48
	.cfi_def_cfa_offset 48
	sw	ra,44(sp)
	sw	s0,40(sp)
	.cfi_offset 1, -4
	.cfi_offset 8, -8
	addi	s0,sp,48
	.cfi_def_cfa 8, 0
	sw	a0,-20(s0)
	sw	a1,-24(s0)
	sw	a2,-28(s0)
	sw	a3,-32(s0)
	sw	a4,-36(s0)
	sw	a5,-40(s0)
	sw	a6,-44(s0)
	.loc 4 2067 22
	lw	a5,-20(s0)
	lw	a4,0(a5)
	.loc 4 2067 5
	li	a5,1
	bne	a4,a5,.L160
	.loc 4 2071 21
	lw	a5,-20(s0)
	addi	a0,a5,24
	lw	a6,-44(s0)
	lw	a5,-40(s0)
	lw	a4,-36(s0)
	lw	a3,-32(s0)
	lw	a2,-28(s0)
	lw	a1,-24(s0)
	call	mbedtls_psa_aead_finish
	mv	a5,a0
	j	.L161
.L160:
	.loc 4 2100 11
	li	a5,-135
.L161:
	.loc 4 2101 1
	mv	a0,a5
	lw	ra,44(sp)
	.cfi_restore 1
	lw	s0,40(sp)
	.cfi_restore 8
	.cfi_def_cfa 2, 48
	addi	sp,sp,48
	.cfi_def_cfa_offset 0
	jr	ra
	.cfi_endproc
.LFE113:
	.size	psa_driver_wrapper_aead_finish, .-psa_driver_wrapper_aead_finish
	.section	.text.psa_driver_wrapper_aead_verify,"ax",@progbits
	.align	1
	.type	psa_driver_wrapper_aead_verify, @function
psa_driver_wrapper_aead_verify:
.LFB114:
	.loc 4 2110 1
	.cfi_startproc
	addi	sp,sp,-80
	.cfi_def_cfa_offset 80
	sw	ra,76(sp)
	sw	s0,72(sp)
	.cfi_offset 1, -4
	.cfi_offset 8, -8
	addi	s0,sp,80
	.cfi_def_cfa 8, 0
	sw	a0,-52(s0)
	sw	a1,-56(s0)
	sw	a2,-60(s0)
	sw	a3,-64(s0)
	sw	a4,-68(s0)
	sw	a5,-72(s0)
	.loc 4 2111 22
	lw	a5,-52(s0)
	lw	a4,0(a5)
	.loc 4 2111 5
	li	a5,1
	bne	a4,a5,.L163
.LBB6:
	.loc 4 2116 30
	li	a5,-151
	sw	a5,-20(s0)
	.loc 4 2120 26
	lw	a5,-52(s0)
	addi	a0,a5,24
	addi	a5,s0,-40
	addi	a4,s0,-36
	mv	a6,a5
	li	a5,16
	lw	a3,-64(s0)
	lw	a2,-60(s0)
	lw	a1,-56(s0)
	call	mbedtls_psa_aead_finish
	sw	a0,-20(s0)
	.loc 4 2128 19
	lw	a5,-20(s0)
	bne	a5,zero,.L164
	.loc 4 2130 36
	lw	a5,-40(s0)
	.loc 4 2130 23
	lw	a4,-72(s0)
	bne	a4,a5,.L165
	.loc 4 2131 25
	addi	a5,s0,-36
	lw	a2,-72(s0)
	mv	a1,a5
	lw	a0,-68(s0)
	call	mbedtls_ct_memcmp
	mv	a5,a0
	.loc 4 2130 56 discriminator 1
	beq	a5,zero,.L164
.L165:
	.loc 4 2133 32
	li	a5,-149
	sw	a5,-20(s0)
.L164:
	.loc 4 2136 17
	addi	a5,s0,-36
	li	a1,16
	mv	a0,a5
	call	mbedtls_platform_zeroize
	.loc 4 2138 23
	lw	a5,-20(s0)
	j	.L166
.L163:
.LBE6:
	.loc 4 2163 11
	li	a5,-135
.L166:
	.loc 4 2164 1
	mv	a0,a5
	lw	ra,76(sp)
	.cfi_restore 1
	lw	s0,72(sp)
	.cfi_restore 8
	.cfi_def_cfa 2, 80
	addi	sp,sp,80
	.cfi_def_cfa_offset 0
	jr	ra
	.cfi_endproc
.LFE114:
	.size	psa_driver_wrapper_aead_verify, .-psa_driver_wrapper_aead_verify
	.section	.text.psa_driver_wrapper_aead_abort,"ax",@progbits
	.align	1
	.type	psa_driver_wrapper_aead_abort, @function
psa_driver_wrapper_aead_abort:
.LFB115:
	.loc 4 2168 1
	.cfi_startproc
	addi	sp,sp,-32
	.cfi_def_cfa_offset 32
	sw	ra,28(sp)
	sw	s0,24(sp)
	.cfi_offset 1, -4
	.cfi_offset 8, -8
	addi	s0,sp,32
	.cfi_def_cfa 8, 0
	sw	a0,-20(s0)
	.loc 4 2169 22
	lw	a5,-20(s0)
	lw	a4,0(a5)
	.loc 4 2169 5
	li	a5,1
	bne	a4,a5,.L168
	.loc 4 2173 21
	lw	a5,-20(s0)
	addi	a5,a5,24
	mv	a0,a5
	call	mbedtls_psa_aead_abort
	mv	a5,a0
	j	.L169
.L168:
	.loc 4 2189 11
	li	a5,-135
.L169:
	.loc 4 2190 1
	mv	a0,a5
	lw	ra,28(sp)
	.cfi_restore 1
	lw	s0,24(sp)
	.cfi_restore 8
	.cfi_def_cfa 2, 32
	addi	sp,sp,32
	.cfi_def_cfa_offset 0
	jr	ra
	.cfi_endproc
.LFE115:
	.size	psa_driver_wrapper_aead_abort, .-psa_driver_wrapper_aead_abort
	.section	.text.psa_driver_wrapper_mac_compute,"ax",@progbits
	.align	1
	.type	psa_driver_wrapper_mac_compute, @function
psa_driver_wrapper_mac_compute:
.LFB116:
	.loc 4 2205 1
	.cfi_startproc
	addi	sp,sp,-80
	.cfi_def_cfa_offset 80
	sw	ra,76(sp)
	sw	s0,72(sp)
	.cfi_offset 1, -4
	.cfi_offset 8, -8
	addi	s0,sp,80
	.cfi_def_cfa 8, 0
	sw	a0,-36(s0)
	sw	a1,-40(s0)
	sw	a2,-44(s0)
	sw	a3,-48(s0)
	sw	a4,-52(s0)
	sw	a5,-56(s0)
	sw	a6,-60(s0)
	sw	a7,-64(s0)
	.loc 4 2206 18
	li	a5,-151
	sw	a5,-20(s0)
	.loc 4 2208 33
	lw	a0,-36(s0)
	call	psa_get_key_lifetime
	mv	a5,a0
	.loc 4 2207 24
	srli	a5,a5,8
	sw	a5,-24(s0)
	.loc 4 2210 5
	lw	a5,-24(s0)
	bne	a5,zero,.L171
	.loc 4 2228 22
	lw	a5,0(s0)
	sw	a5,0(sp)
	lw	a7,-64(s0)
	lw	a6,-60(s0)
	lw	a5,-56(s0)
	lw	a4,-52(s0)
	lw	a3,-48(s0)
	lw	a2,-44(s0)
	lw	a1,-40(s0)
	lw	a0,-36(s0)
	call	mbedtls_psa_mac_compute
	sw	a0,-20(s0)
	.loc 4 2232 15
	lw	a4,-20(s0)
	li	a5,-134
	beq	a4,a5,.L172
	.loc 4 2233 23
	lw	a5,-20(s0)
	j	.L173
.L172:
	.loc 4 2235 19
	li	a5,-134
	j	.L173
.L171:
	.loc 4 2259 19
	li	a5,-135
.L173:
	.loc 4 2261 1
	mv	a0,a5
	lw	ra,76(sp)
	.cfi_restore 1
	lw	s0,72(sp)
	.cfi_restore 8
	.cfi_def_cfa 2, 80
	addi	sp,sp,80
	.cfi_def_cfa_offset 0
	jr	ra
	.cfi_endproc
.LFE116:
	.size	psa_driver_wrapper_mac_compute, .-psa_driver_wrapper_mac_compute
	.section	.text.psa_driver_wrapper_mac_sign_setup,"ax",@progbits
	.align	1
	.type	psa_driver_wrapper_mac_sign_setup, @function
psa_driver_wrapper_mac_sign_setup:
.LFB117:
	.loc 4 2269 1
	.cfi_startproc
	addi	sp,sp,-64
	.cfi_def_cfa_offset 64
	sw	ra,60(sp)
	sw	s0,56(sp)
	.cfi_offset 1, -4
	.cfi_offset 8, -8
	addi	s0,sp,64
	.cfi_def_cfa 8, 0
	sw	a0,-36(s0)
	sw	a1,-40(s0)
	sw	a2,-44(s0)
	sw	a3,-48(s0)
	sw	a4,-52(s0)
	.loc 4 2270 18
	li	a5,-151
	sw	a5,-20(s0)
	.loc 4 2272 33
	lw	a0,-40(s0)
	call	psa_get_key_lifetime
	mv	a5,a0
	.loc 4 2271 24
	srli	a5,a5,8
	sw	a5,-24(s0)
	.loc 4 2274 5
	lw	a5,-24(s0)
	bne	a5,zero,.L175
	.loc 4 2296 22
	lw	a5,-36(s0)
	addi	a5,a5,8
	lw	a4,-52(s0)
	lw	a3,-48(s0)
	lw	a2,-44(s0)
	lw	a1,-40(s0)
	mv	a0,a5
	call	mbedtls_psa_mac_sign_setup
	sw	a0,-20(s0)
	.loc 4 2300 15
	lw	a5,-20(s0)
	bne	a5,zero,.L176
	.loc 4 2301 31
	lw	a5,-36(s0)
	li	a4,1
	sw	a4,0(a5)
.L176:
	.loc 4 2303 15
	lw	a4,-20(s0)
	li	a5,-134
	beq	a4,a5,.L177
	.loc 4 2304 23
	lw	a5,-20(s0)
	j	.L178
.L177:
	.loc 4 2306 19
	li	a5,-134
	j	.L178
.L175:
	.loc 4 2331 19
	li	a5,-135
.L178:
	.loc 4 2333 1
	mv	a0,a5
	lw	ra,60(sp)
	.cfi_restore 1
	lw	s0,56(sp)
	.cfi_restore 8
	.cfi_def_cfa 2, 64
	addi	sp,sp,64
	.cfi_def_cfa_offset 0
	jr	ra
	.cfi_endproc
.LFE117:
	.size	psa_driver_wrapper_mac_sign_setup, .-psa_driver_wrapper_mac_sign_setup
	.section	.text.psa_driver_wrapper_mac_verify_setup,"ax",@progbits
	.align	1
	.type	psa_driver_wrapper_mac_verify_setup, @function
psa_driver_wrapper_mac_verify_setup:
.LFB118:
	.loc 4 2341 1
	.cfi_startproc
	addi	sp,sp,-64
	.cfi_def_cfa_offset 64
	sw	ra,60(sp)
	sw	s0,56(sp)
	.cfi_offset 1, -4
	.cfi_offset 8, -8
	addi	s0,sp,64
	.cfi_def_cfa 8, 0
	sw	a0,-36(s0)
	sw	a1,-40(s0)
	sw	a2,-44(s0)
	sw	a3,-48(s0)
	sw	a4,-52(s0)
	.loc 4 2342 18
	li	a5,-151
	sw	a5,-20(s0)
	.loc 4 2344 33
	lw	a0,-40(s0)
	call	psa_get_key_lifetime
	mv	a5,a0
	.loc 4 2343 24
	srli	a5,a5,8
	sw	a5,-24(s0)
	.loc 4 2346 5
	lw	a5,-24(s0)
	bne	a5,zero,.L180
	.loc 4 2368 22
	lw	a5,-36(s0)
	addi	a5,a5,8
	lw	a4,-52(s0)
	lw	a3,-48(s0)
	lw	a2,-44(s0)
	lw	a1,-40(s0)
	mv	a0,a5
	call	mbedtls_psa_mac_verify_setup
	sw	a0,-20(s0)
	.loc 4 2372 15
	lw	a5,-20(s0)
	bne	a5,zero,.L181
	.loc 4 2373 31
	lw	a5,-36(s0)
	li	a4,1
	sw	a4,0(a5)
.L181:
	.loc 4 2375 15
	lw	a4,-20(s0)
	li	a5,-134
	beq	a4,a5,.L182
	.loc 4 2376 23
	lw	a5,-20(s0)
	j	.L183
.L182:
	.loc 4 2378 19
	li	a5,-134
	j	.L183
.L180:
	.loc 4 2403 19
	li	a5,-135
.L183:
	.loc 4 2405 1
	mv	a0,a5
	lw	ra,60(sp)
	.cfi_restore 1
	lw	s0,56(sp)
	.cfi_restore 8
	.cfi_def_cfa 2, 64
	addi	sp,sp,64
	.cfi_def_cfa_offset 0
	jr	ra
	.cfi_endproc
.LFE118:
	.size	psa_driver_wrapper_mac_verify_setup, .-psa_driver_wrapper_mac_verify_setup
	.section	.text.psa_driver_wrapper_mac_update,"ax",@progbits
	.align	1
	.type	psa_driver_wrapper_mac_update, @function
psa_driver_wrapper_mac_update:
.LFB119:
	.loc 4 2411 1
	.cfi_startproc
	addi	sp,sp,-32
	.cfi_def_cfa_offset 32
	sw	ra,28(sp)
	sw	s0,24(sp)
	.cfi_offset 1, -4
	.cfi_offset 8, -8
	addi	s0,sp,32
	.cfi_def_cfa 8, 0
	sw	a0,-20(s0)
	sw	a1,-24(s0)
	sw	a2,-28(s0)
	.loc 4 2412 22
	lw	a5,-20(s0)
	lw	a4,0(a5)
	.loc 4 2412 5
	li	a5,1
	bne	a4,a5,.L185
	.loc 4 2416 21
	lw	a5,-20(s0)
	addi	a5,a5,8
	lw	a2,-28(s0)
	lw	a1,-24(s0)
	mv	a0,a5
	call	mbedtls_psa_mac_update
	mv	a5,a0
	j	.L186
.L185:
	.loc 4 2436 19
	li	a5,-135
.L186:
	.loc 4 2438 1
	mv	a0,a5
	lw	ra,28(sp)
	.cfi_restore 1
	lw	s0,24(sp)
	.cfi_restore 8
	.cfi_def_cfa 2, 32
	addi	sp,sp,32
	.cfi_def_cfa_offset 0
	jr	ra
	.cfi_endproc
.LFE119:
	.size	psa_driver_wrapper_mac_update, .-psa_driver_wrapper_mac_update
	.section	.text.psa_driver_wrapper_mac_sign_finish,"ax",@progbits
	.align	1
	.type	psa_driver_wrapper_mac_sign_finish, @function
psa_driver_wrapper_mac_sign_finish:
.LFB120:
	.loc 4 2445 1
	.cfi_startproc
	addi	sp,sp,-32
	.cfi_def_cfa_offset 32
	sw	ra,28(sp)
	sw	s0,24(sp)
	.cfi_offset 1, -4
	.cfi_offset 8, -8
	addi	s0,sp,32
	.cfi_def_cfa 8, 0
	sw	a0,-20(s0)
	sw	a1,-24(s0)
	sw	a2,-28(s0)
	sw	a3,-32(s0)
	.loc 4 2446 22
	lw	a5,-20(s0)
	lw	a4,0(a5)
	.loc 4 2446 5
	li	a5,1
	bne	a4,a5,.L188
	.loc 4 2450 21
	lw	a5,-20(s0)
	addi	a5,a5,8
	lw	a3,-32(s0)
	lw	a2,-28(s0)
	lw	a1,-24(s0)
	mv	a0,a5
	call	mbedtls_psa_mac_sign_finish
	mv	a5,a0
	j	.L189
.L188:
	.loc 4 2471 19
	li	a5,-135
.L189:
	.loc 4 2473 1
	mv	a0,a5
	lw	ra,28(sp)
	.cfi_restore 1
	lw	s0,24(sp)
	.cfi_restore 8
	.cfi_def_cfa 2, 32
	addi	sp,sp,32
	.cfi_def_cfa_offset 0
	jr	ra
	.cfi_endproc
.LFE120:
	.size	psa_driver_wrapper_mac_sign_finish, .-psa_driver_wrapper_mac_sign_finish
	.section	.text.psa_driver_wrapper_mac_verify_finish,"ax",@progbits
	.align	1
	.type	psa_driver_wrapper_mac_verify_finish, @function
psa_driver_wrapper_mac_verify_finish:
.LFB121:
	.loc 4 2479 1
	.cfi_startproc
	addi	sp,sp,-32
	.cfi_def_cfa_offset 32
	sw	ra,28(sp)
	sw	s0,24(sp)
	.cfi_offset 1, -4
	.cfi_offset 8, -8
	addi	s0,sp,32
	.cfi_def_cfa 8, 0
	sw	a0,-20(s0)
	sw	a1,-24(s0)
	sw	a2,-28(s0)
	.loc 4 2480 22
	lw	a5,-20(s0)
	lw	a4,0(a5)
	.loc 4 2480 5
	li	a5,1
	bne	a4,a5,.L191
	.loc 4 2484 21
	lw	a5,-20(s0)
	addi	a5,a5,8
	lw	a2,-28(s0)
	lw	a1,-24(s0)
	mv	a0,a5
	call	mbedtls_psa_mac_verify_finish
	mv	a5,a0
	j	.L192
.L191:
	.loc 4 2504 19
	li	a5,-135
.L192:
	.loc 4 2506 1
	mv	a0,a5
	lw	ra,28(sp)
	.cfi_restore 1
	lw	s0,24(sp)
	.cfi_restore 8
	.cfi_def_cfa 2, 32
	addi	sp,sp,32
	.cfi_def_cfa_offset 0
	jr	ra
	.cfi_endproc
.LFE121:
	.size	psa_driver_wrapper_mac_verify_finish, .-psa_driver_wrapper_mac_verify_finish
	.section	.text.psa_driver_wrapper_mac_abort,"ax",@progbits
	.align	1
	.type	psa_driver_wrapper_mac_abort, @function
psa_driver_wrapper_mac_abort:
.LFB122:
	.loc 4 2510 1
	.cfi_startproc
	addi	sp,sp,-32
	.cfi_def_cfa_offset 32
	sw	ra,28(sp)
	sw	s0,24(sp)
	.cfi_offset 1, -4
	.cfi_offset 8, -8
	addi	s0,sp,32
	.cfi_def_cfa 8, 0
	sw	a0,-20(s0)
	.loc 4 2511 22
	lw	a5,-20(s0)
	lw	a4,0(a5)
	.loc 4 2511 5
	li	a5,1
	bne	a4,a5,.L194
	.loc 4 2515 21
	lw	a5,-20(s0)
	addi	a5,a5,8
	mv	a0,a5
	call	mbedtls_psa_mac_abort
	mv	a5,a0
	j	.L195
.L194:
	.loc 4 2529 19
	li	a5,-135
.L195:
	.loc 4 2531 1
	mv	a0,a5
	lw	ra,28(sp)
	.cfi_restore 1
	lw	s0,24(sp)
	.cfi_restore 8
	.cfi_def_cfa 2, 32
	addi	sp,sp,32
	.cfi_def_cfa_offset 0
	jr	ra
	.cfi_endproc
.LFE122:
	.size	psa_driver_wrapper_mac_abort, .-psa_driver_wrapper_mac_abort
	.section	.text.psa_driver_wrapper_asymmetric_encrypt,"ax",@progbits
	.align	1
	.type	psa_driver_wrapper_asymmetric_encrypt, @function
psa_driver_wrapper_asymmetric_encrypt:
.LFB123:
	.loc 4 2541 1
	.cfi_startproc
	addi	sp,sp,-80
	.cfi_def_cfa_offset 80
	sw	ra,76(sp)
	sw	s0,72(sp)
	.cfi_offset 1, -4
	.cfi_offset 8, -8
	addi	s0,sp,80
	.cfi_def_cfa 8, 0
	sw	a0,-36(s0)
	sw	a1,-40(s0)
	sw	a2,-44(s0)
	sw	a3,-48(s0)
	sw	a4,-52(s0)
	sw	a5,-56(s0)
	sw	a6,-60(s0)
	sw	a7,-64(s0)
	.loc 4 2542 18
	li	a5,-151
	sw	a5,-20(s0)
	.loc 4 2544 33
	lw	a0,-36(s0)
	call	psa_get_key_lifetime
	mv	a5,a0
	.loc 4 2543 24
	srli	a5,a5,8
	sw	a5,-24(s0)
	.loc 4 2546 5
	lw	a5,-24(s0)
	bne	a5,zero,.L197
	.loc 4 2562 21
	lw	a5,8(s0)
	sw	a5,8(sp)
	lw	a5,4(s0)
	sw	a5,4(sp)
	lw	a5,0(s0)
	sw	a5,0(sp)
	lw	a7,-64(s0)
	lw	a6,-60(s0)
	lw	a5,-56(s0)
	lw	a4,-52(s0)
	lw	a3,-48(s0)
	lw	a2,-44(s0)
	lw	a1,-40(s0)
	lw	a0,-36(s0)
	call	mbedtls_psa_asymmetric_encrypt
	mv	a5,a0
	j	.L198
.L197:
	.loc 4 2590 19
	li	a5,-135
.L198:
	.loc 4 2592 1
	mv	a0,a5
	lw	ra,76(sp)
	.cfi_restore 1
	lw	s0,72(sp)
	.cfi_restore 8
	.cfi_def_cfa 2, 80
	addi	sp,sp,80
	.cfi_def_cfa_offset 0
	jr	ra
	.cfi_endproc
.LFE123:
	.size	psa_driver_wrapper_asymmetric_encrypt, .-psa_driver_wrapper_asymmetric_encrypt
	.section	.text.psa_driver_wrapper_asymmetric_decrypt,"ax",@progbits
	.align	1
	.type	psa_driver_wrapper_asymmetric_decrypt, @function
psa_driver_wrapper_asymmetric_decrypt:
.LFB124:
	.loc 4 2599 1
	.cfi_startproc
	addi	sp,sp,-80
	.cfi_def_cfa_offset 80
	sw	ra,76(sp)
	sw	s0,72(sp)
	.cfi_offset 1, -4
	.cfi_offset 8, -8
	addi	s0,sp,80
	.cfi_def_cfa 8, 0
	sw	a0,-36(s0)
	sw	a1,-40(s0)
	sw	a2,-44(s0)
	sw	a3,-48(s0)
	sw	a4,-52(s0)
	sw	a5,-56(s0)
	sw	a6,-60(s0)
	sw	a7,-64(s0)
	.loc 4 2600 18
	li	a5,-151
	sw	a5,-20(s0)
	.loc 4 2602 33
	lw	a0,-36(s0)
	call	psa_get_key_lifetime
	mv	a5,a0
	.loc 4 2601 24
	srli	a5,a5,8
	sw	a5,-24(s0)
	.loc 4 2604 5
	lw	a5,-24(s0)
	bne	a5,zero,.L200
	.loc 4 2620 21
	lw	a5,8(s0)
	sw	a5,8(sp)
	lw	a5,4(s0)
	sw	a5,4(sp)
	lw	a5,0(s0)
	sw	a5,0(sp)
	lw	a7,-64(s0)
	lw	a6,-60(s0)
	lw	a5,-56(s0)
	lw	a4,-52(s0)
	lw	a3,-48(s0)
	lw	a2,-44(s0)
	lw	a1,-40(s0)
	lw	a0,-36(s0)
	call	mbedtls_psa_asymmetric_decrypt
	mv	a5,a0
	j	.L201
.L200:
	.loc 4 2648 19
	li	a5,-135
.L201:
	.loc 4 2650 1
	mv	a0,a5
	lw	ra,76(sp)
	.cfi_restore 1
	lw	s0,72(sp)
	.cfi_restore 8
	.cfi_def_cfa 2, 80
	addi	sp,sp,80
	.cfi_def_cfa_offset 0
	jr	ra
	.cfi_endproc
.LFE124:
	.size	psa_driver_wrapper_asymmetric_decrypt, .-psa_driver_wrapper_asymmetric_decrypt
	.section	.text.psa_driver_wrapper_key_agreement,"ax",@progbits
	.align	1
	.type	psa_driver_wrapper_key_agreement, @function
psa_driver_wrapper_key_agreement:
.LFB125:
	.loc 4 2663 1
	.cfi_startproc
	addi	sp,sp,-80
	.cfi_def_cfa_offset 80
	sw	ra,76(sp)
	sw	s0,72(sp)
	.cfi_offset 1, -4
	.cfi_offset 8, -8
	addi	s0,sp,80
	.cfi_def_cfa 8, 0
	sw	a0,-36(s0)
	sw	a1,-40(s0)
	sw	a2,-44(s0)
	sw	a3,-48(s0)
	sw	a4,-52(s0)
	sw	a5,-56(s0)
	sw	a6,-60(s0)
	sw	a7,-64(s0)
	.loc 4 2664 18
	li	a5,-151
	sw	a5,-20(s0)
	.loc 4 2666 33
	lw	a0,-36(s0)
	call	psa_get_key_lifetime
	mv	a5,a0
	.loc 4 2665 24
	srli	a5,a5,8
	sw	a5,-24(s0)
	.loc 4 2668 5
	lw	a5,-24(s0)
	bne	a5,zero,.L203
	.loc 4 2705 22
	lw	a5,0(s0)
	sw	a5,0(sp)
	lw	a7,-64(s0)
	lw	a6,-60(s0)
	lw	a5,-56(s0)
	lw	a4,-52(s0)
	lw	a3,-48(s0)
	lw	a2,-44(s0)
	lw	a1,-40(s0)
	lw	a0,-36(s0)
	call	psa_key_agreement_raw_builtin
	sw	a0,-20(s0)
	.loc 4 2714 19
	lw	a5,-20(s0)
	j	.L204
.L203:
	.loc 4 2734 19
	li	a5,-134
.L204:
	.loc 4 2737 1
	mv	a0,a5
	lw	ra,76(sp)
	.cfi_restore 1
	lw	s0,72(sp)
	.cfi_restore 8
	.cfi_def_cfa 2, 80
	addi	sp,sp,80
	.cfi_def_cfa_offset 0
	jr	ra
	.cfi_endproc
.LFE125:
	.size	psa_driver_wrapper_key_agreement, .-psa_driver_wrapper_key_agreement
	.section	.text.psa_driver_wrapper_pake_setup,"ax",@progbits
	.align	1
	.type	psa_driver_wrapper_pake_setup, @function
psa_driver_wrapper_pake_setup:
.LFB126:
	.loc 4 2742 1
	.cfi_startproc
	addi	sp,sp,-48
	.cfi_def_cfa_offset 48
	sw	ra,44(sp)
	sw	s0,40(sp)
	.cfi_offset 1, -4
	.cfi_offset 8, -8
	addi	s0,sp,48
	.cfi_def_cfa 8, 0
	sw	a0,-36(s0)
	sw	a1,-40(s0)
	.loc 4 2743 18
	li	a5,-151
	sw	a5,-20(s0)
	.loc 4 2746 37
	lw	a5,-40(s0)
	addi	a5,a5,24
	mv	a0,a5
	call	psa_get_key_lifetime
	mv	a5,a0
	.loc 4 2745 24
	srli	a5,a5,8
	sw	a5,-24(s0)
	.loc 4 2748 5
	lw	a5,-24(s0)
	bne	a5,zero,.L206
	.loc 4 2753 20
	li	a5,-134
	sw	a5,-20(s0)
	.loc 4 2767 22
	lw	a5,-36(s0)
	addi	a5,a5,20
	lw	a1,-40(s0)
	mv	a0,a5
	call	mbedtls_psa_pake_setup
	sw	a0,-20(s0)
	.loc 4 2769 15
	lw	a5,-20(s0)
	bne	a5,zero,.L207
	.loc 4 2770 31
	lw	a5,-36(s0)
	li	a4,1
	sw	a4,0(a5)
.L207:
	.loc 4 2772 20
	lw	a5,-20(s0)
	j	.L208
.L206:
	.loc 4 2777 19
	li	a5,-135
.L208:
	.loc 4 2779 1
	mv	a0,a5
	lw	ra,44(sp)
	.cfi_restore 1
	lw	s0,40(sp)
	.cfi_restore 8
	.cfi_def_cfa 2, 48
	addi	sp,sp,48
	.cfi_def_cfa_offset 0
	jr	ra
	.cfi_endproc
.LFE126:
	.size	psa_driver_wrapper_pake_setup, .-psa_driver_wrapper_pake_setup
	.section	.text.psa_driver_wrapper_pake_output,"ax",@progbits
	.align	1
	.type	psa_driver_wrapper_pake_output, @function
psa_driver_wrapper_pake_output:
.LFB127:
	.loc 4 2787 1
	.cfi_startproc
	addi	sp,sp,-48
	.cfi_def_cfa_offset 48
	sw	ra,44(sp)
	sw	s0,40(sp)
	.cfi_offset 1, -4
	.cfi_offset 8, -8
	addi	s0,sp,48
	.cfi_def_cfa 8, 0
	sw	a0,-20(s0)
	mv	a5,a1
	sw	a2,-28(s0)
	sw	a3,-32(s0)
	sw	a4,-36(s0)
	sb	a5,-21(s0)
	.loc 4 2788 22
	lw	a5,-20(s0)
	lw	a4,0(a5)
	.loc 4 2788 5
	li	a5,1
	bne	a4,a5,.L210
	.loc 4 2792 21
	lw	a5,-20(s0)
	addi	a5,a5,20
	lbu	a1,-21(s0)
	lw	a4,-36(s0)
	lw	a3,-32(s0)
	lw	a2,-28(s0)
	mv	a0,a5
	call	mbedtls_psa_pake_output
	mv	a5,a0
	j	.L211
.L210:
	.loc 4 2809 19
	li	a5,-135
.L211:
	.loc 4 2811 1
	mv	a0,a5
	lw	ra,44(sp)
	.cfi_restore 1
	lw	s0,40(sp)
	.cfi_restore 8
	.cfi_def_cfa 2, 48
	addi	sp,sp,48
	.cfi_def_cfa_offset 0
	jr	ra
	.cfi_endproc
.LFE127:
	.size	psa_driver_wrapper_pake_output, .-psa_driver_wrapper_pake_output
	.section	.text.psa_driver_wrapper_pake_input,"ax",@progbits
	.align	1
	.type	psa_driver_wrapper_pake_input, @function
psa_driver_wrapper_pake_input:
.LFB128:
	.loc 4 2818 1
	.cfi_startproc
	addi	sp,sp,-32
	.cfi_def_cfa_offset 32
	sw	ra,28(sp)
	sw	s0,24(sp)
	.cfi_offset 1, -4
	.cfi_offset 8, -8
	addi	s0,sp,32
	.cfi_def_cfa 8, 0
	sw	a0,-20(s0)
	mv	a5,a1
	sw	a2,-28(s0)
	sw	a3,-32(s0)
	sb	a5,-21(s0)
	.loc 4 2819 22
	lw	a5,-20(s0)
	lw	a4,0(a5)
	.loc 4 2819 5
	li	a5,1
	bne	a4,a5,.L213
	.loc 4 2823 21
	lw	a5,-20(s0)
	addi	a5,a5,20
	lbu	a4,-21(s0)
	lw	a3,-32(s0)
	lw	a2,-28(s0)
	mv	a1,a4
	mv	a0,a5
	call	mbedtls_psa_pake_input
	mv	a5,a0
	j	.L214
.L213:
	.loc 4 2841 19
	li	a5,-135
.L214:
	.loc 4 2843 1
	mv	a0,a5
	lw	ra,28(sp)
	.cfi_restore 1
	lw	s0,24(sp)
	.cfi_restore 8
	.cfi_def_cfa 2, 32
	addi	sp,sp,32
	.cfi_def_cfa_offset 0
	jr	ra
	.cfi_endproc
.LFE128:
	.size	psa_driver_wrapper_pake_input, .-psa_driver_wrapper_pake_input
	.section	.text.psa_driver_wrapper_pake_get_implicit_key,"ax",@progbits
	.align	1
	.type	psa_driver_wrapper_pake_get_implicit_key, @function
psa_driver_wrapper_pake_get_implicit_key:
.LFB129:
	.loc 4 2849 1
	.cfi_startproc
	addi	sp,sp,-32
	.cfi_def_cfa_offset 32
	sw	ra,28(sp)
	sw	s0,24(sp)
	.cfi_offset 1, -4
	.cfi_offset 8, -8
	addi	s0,sp,32
	.cfi_def_cfa 8, 0
	sw	a0,-20(s0)
	sw	a1,-24(s0)
	sw	a2,-28(s0)
	sw	a3,-32(s0)
	.loc 4 2850 22
	lw	a5,-20(s0)
	lw	a4,0(a5)
	.loc 4 2850 5
	li	a5,1
	bne	a4,a5,.L216
	.loc 4 2854 21
	lw	a5,-20(s0)
	addi	a5,a5,20
	lw	a3,-32(s0)
	lw	a2,-28(s0)
	lw	a1,-24(s0)
	mv	a0,a5
	call	mbedtls_psa_pake_get_implicit_key
	mv	a5,a0
	j	.L217
.L216:
	.loc 4 2870 19
	li	a5,-135
.L217:
	.loc 4 2872 1
	mv	a0,a5
	lw	ra,28(sp)
	.cfi_restore 1
	lw	s0,24(sp)
	.cfi_restore 8
	.cfi_def_cfa 2, 32
	addi	sp,sp,32
	.cfi_def_cfa_offset 0
	jr	ra
	.cfi_endproc
.LFE129:
	.size	psa_driver_wrapper_pake_get_implicit_key, .-psa_driver_wrapper_pake_get_implicit_key
	.section	.text.psa_driver_wrapper_pake_abort,"ax",@progbits
	.align	1
	.type	psa_driver_wrapper_pake_abort, @function
psa_driver_wrapper_pake_abort:
.LFB130:
	.loc 4 2876 1
	.cfi_startproc
	addi	sp,sp,-32
	.cfi_def_cfa_offset 32
	sw	ra,28(sp)
	sw	s0,24(sp)
	.cfi_offset 1, -4
	.cfi_offset 8, -8
	addi	s0,sp,32
	.cfi_def_cfa 8, 0
	sw	a0,-20(s0)
	.loc 4 2877 22
	lw	a5,-20(s0)
	lw	a4,0(a5)
	.loc 4 2877 5
	li	a5,1
	bne	a4,a5,.L219
	.loc 4 2881 21
	lw	a5,-20(s0)
	addi	a5,a5,20
	mv	a0,a5
	call	mbedtls_psa_pake_abort
	mv	a5,a0
	j	.L220
.L219:
	.loc 4 2892 19
	li	a5,-135
.L220:
	.loc 4 2894 1
	mv	a0,a5
	lw	ra,28(sp)
	.cfi_restore 1
	lw	s0,24(sp)
	.cfi_restore 8
	.cfi_def_cfa 2, 32
	addi	sp,sp,32
	.cfi_def_cfa_offset 0
	jr	ra
	.cfi_endproc
.LFE130:
	.size	psa_driver_wrapper_pake_abort, .-psa_driver_wrapper_pake_abort
	.section	.text.psa_key_slot_state_transition,"ax",@progbits
	.align	1
	.type	psa_key_slot_state_transition, @function
psa_key_slot_state_transition:
.LFB132:
	.file 5 "/home/chandu/sdk/bl602_iot_sdk/components/security/mbedtls-bl602/library/psa_crypto_slot_management.h"
	.loc 5 208 1
	.cfi_startproc
	addi	sp,sp,-32
	.cfi_def_cfa_offset 32
	sw	ra,28(sp)
	sw	s0,24(sp)
	.cfi_offset 1, -4
	.cfi_offset 8, -8
	addi	s0,sp,32
	.cfi_def_cfa 8, 0
	sw	a0,-20(s0)
	mv	a5,a1
	mv	a4,a2
	sb	a5,-21(s0)
	mv	a5,a4
	sb	a5,-22(s0)
	.loc 5 209 13
	lw	a5,-20(s0)
	lbu	a5,24(a5)
	.loc 5 209 8
	lbu	a4,-21(s0)
	beq	a4,a5,.L222
	.loc 5 210 16
	li	a5,-151
	j	.L223
.L222:
	.loc 5 212 17
	lw	a5,-20(s0)
	lbu	a4,-22(s0)
	sb	a4,24(a5)
	.loc 5 213 12
	li	a5,0
.L223:
	.loc 5 214 1
	mv	a0,a5
	lw	ra,28(sp)
	.cfi_restore 1
	lw	s0,24(sp)
	.cfi_restore 8
	.cfi_def_cfa 2, 32
	addi	sp,sp,32
	.cfi_def_cfa_offset 0
	jr	ra
	.cfi_endproc
.LFE132:
	.size	psa_key_slot_state_transition, .-psa_key_slot_state_transition
	.section	.text.psa_key_lifetime_is_external,"ax",@progbits
	.align	1
	.type	psa_key_lifetime_is_external, @function
psa_key_lifetime_is_external:
.LFB134:
	.loc 5 301 1
	.cfi_startproc
	addi	sp,sp,-32
	.cfi_def_cfa_offset 32
	sw	ra,28(sp)
	sw	s0,24(sp)
	.cfi_offset 1, -4
	.cfi_offset 8, -8
	addi	s0,sp,32
	.cfi_def_cfa 8, 0
	sw	a0,-20(s0)
	.loc 5 302 46
	lw	a5,-20(s0)
	srli	a5,a5,8
	.loc 5 303 12
	snez	a5,a5
	andi	a5,a5,0xff
	.loc 5 304 1
	mv	a0,a5
	lw	ra,28(sp)
	.cfi_restore 1
	lw	s0,24(sp)
	.cfi_restore 8
	.cfi_def_cfa 2, 32
	addi	sp,sp,32
	.cfi_def_cfa_offset 0
	jr	ra
	.cfi_endproc
.LFE134:
	.size	psa_key_lifetime_is_external, .-psa_key_lifetime_is_external
	.section	.text.mbedtls_md_type_from_psa_alg,"ax",@progbits
	.align	1
	.type	mbedtls_md_type_from_psa_alg, @function
mbedtls_md_type_from_psa_alg:
.LFB136:
	.file 6 "/home/chandu/sdk/bl602_iot_sdk/components/security/mbedtls-bl602/include/mbedtls/psa_util.h"
	.loc 6 139 1
	.cfi_startproc
	addi	sp,sp,-32
	.cfi_def_cfa_offset 32
	sw	ra,28(sp)
	sw	s0,24(sp)
	.cfi_offset 1, -4
	.cfi_offset 8, -8
	addi	s0,sp,32
	.cfi_def_cfa 8, 0
	sw	a0,-20(s0)
	.loc 6 140 12
	lw	a5,-20(s0)
	andi	a5,a5,0xff
	.loc 6 141 1
	mv	a0,a5
	lw	ra,28(sp)
	.cfi_restore 1
	lw	s0,24(sp)
	.cfi_restore 8
	.cfi_def_cfa 2, 32
	addi	sp,sp,32
	.cfi_def_cfa_offset 0
	jr	ra
	.cfi_endproc
.LFE136:
	.size	mbedtls_md_type_from_psa_alg, .-mbedtls_md_type_from_psa_alg
	.section	.text.mbedtls_psa_drbg_init,"ax",@progbits
	.align	1
	.type	mbedtls_psa_drbg_init, @function
mbedtls_psa_drbg_init:
.LFB137:
	.file 7 "/home/chandu/sdk/bl602_iot_sdk/components/security/mbedtls-bl602/library/psa_crypto_random_impl.h"
	.loc 7 80 1
	.cfi_startproc
	addi	sp,sp,-32
	.cfi_def_cfa_offset 32
	sw	ra,28(sp)
	sw	s0,24(sp)
	.cfi_offset 1, -4
	.cfi_offset 8, -8
	addi	s0,sp,32
	.cfi_def_cfa 8, 0
	sw	a0,-20(s0)
	.loc 7 82 5
	lw	a0,-20(s0)
	call	mbedtls_ctr_drbg_init
	.loc 7 86 1
	nop
	lw	ra,28(sp)
	.cfi_restore 1
	lw	s0,24(sp)
	.cfi_restore 8
	.cfi_def_cfa 2, 32
	addi	sp,sp,32
	.cfi_def_cfa_offset 0
	jr	ra
	.cfi_endproc
.LFE137:
	.size	mbedtls_psa_drbg_init, .-mbedtls_psa_drbg_init
	.section	.text.mbedtls_psa_drbg_free,"ax",@progbits
	.align	1
	.type	mbedtls_psa_drbg_free, @function
mbedtls_psa_drbg_free:
.LFB138:
	.loc 7 93 1
	.cfi_startproc
	addi	sp,sp,-32
	.cfi_def_cfa_offset 32
	sw	ra,28(sp)
	sw	s0,24(sp)
	.cfi_offset 1, -4
	.cfi_offset 8, -8
	addi	s0,sp,32
	.cfi_def_cfa 8, 0
	sw	a0,-20(s0)
	.loc 7 95 5
	lw	a0,-20(s0)
	call	mbedtls_ctr_drbg_free
	.loc 7 99 1
	nop
	lw	ra,28(sp)
	.cfi_restore 1
	lw	s0,24(sp)
	.cfi_restore 8
	.cfi_def_cfa 2, 32
	addi	sp,sp,32
	.cfi_def_cfa_offset 0
	jr	ra
	.cfi_endproc
.LFE138:
	.size	mbedtls_psa_drbg_free, .-mbedtls_psa_drbg_free
	.section	.text.mbedtls_psa_drbg_seed,"ax",@progbits
	.align	1
	.type	mbedtls_psa_drbg_seed, @function
mbedtls_psa_drbg_seed:
.LFB139:
	.loc 7 115 1
	.cfi_startproc
	addi	sp,sp,-32
	.cfi_def_cfa_offset 32
	sw	ra,28(sp)
	sw	s0,24(sp)
	.cfi_offset 1, -4
	.cfi_offset 8, -8
	addi	s0,sp,32
	.cfi_def_cfa 8, 0
	sw	a0,-20(s0)
	sw	a1,-24(s0)
	sw	a2,-28(s0)
	sw	a3,-32(s0)
	.loc 7 117 12
	lw	a4,-32(s0)
	lw	a3,-28(s0)
	lw	a2,-24(s0)
	lui	a5,%hi(mbedtls_entropy_func)
	addi	a1,a5,%lo(mbedtls_entropy_func)
	lw	a0,-20(s0)
	call	mbedtls_ctr_drbg_seed
	mv	a5,a0
	.loc 7 122 1
	mv	a0,a5
	lw	ra,28(sp)
	.cfi_restore 1
	lw	s0,24(sp)
	.cfi_restore 8
	.cfi_def_cfa 2, 32
	addi	sp,sp,32
	.cfi_def_cfa_offset 0
	jr	ra
	.cfi_endproc
.LFE139:
	.size	mbedtls_psa_drbg_seed, .-mbedtls_psa_drbg_seed
	.section	.text.mbedtls_ct_compiler_opaque,"ax",@progbits
	.align	1
	.type	mbedtls_ct_compiler_opaque, @function
mbedtls_ct_compiler_opaque:
.LFB144:
	.file 8 "/home/chandu/sdk/bl602_iot_sdk/components/security/mbedtls-bl602/library/constant_time_impl.h"
	.loc 8 86 1
	.cfi_startproc
	addi	sp,sp,-32
	.cfi_def_cfa_offset 32
	sw	ra,28(sp)
	sw	s0,24(sp)
	.cfi_offset 1, -4
	.cfi_offset 8, -8
	addi	s0,sp,32
	.cfi_def_cfa 8, 0
	sw	a0,-20(s0)
	.loc 8 88 5
	lw	a5,-20(s0)
	sw	a5,-20(s0)
	.loc 8 89 12
	lw	a5,-20(s0)
	.loc 8 93 1
	mv	a0,a5
	lw	ra,28(sp)
	.cfi_restore 1
	lw	s0,24(sp)
	.cfi_restore 8
	.cfi_def_cfa 2, 32
	addi	sp,sp,32
	.cfi_def_cfa_offset 0
	jr	ra
	.cfi_endproc
.LFE144:
	.size	mbedtls_ct_compiler_opaque, .-mbedtls_ct_compiler_opaque
	.section	.text.mbedtls_ct_bool,"ax",@progbits
	.align	1
	.type	mbedtls_ct_bool, @function
mbedtls_ct_bool:
.LFB145:
	.loc 8 121 1
	.cfi_startproc
	addi	sp,sp,-48
	.cfi_def_cfa_offset 48
	sw	ra,44(sp)
	sw	s0,40(sp)
	.cfi_offset 1, -4
	.cfi_offset 8, -8
	addi	s0,sp,48
	.cfi_def_cfa 8, 0
	sw	a0,-36(s0)
	.loc 8 184 34
	lw	a0,-36(s0)
	call	mbedtls_ct_compiler_opaque
	sw	a0,-20(s0)
	.loc 8 192 27
	lw	a5,-20(s0)
	neg	a4,a5
	.loc 8 192 39
	lw	a5,-20(s0)
	srli	a5,a5,1
	.loc 8 192 34
	neg	a5,a5
	.loc 8 192 32
	or	a5,a4,a5
	.loc 8 192 22
	sw	a5,-24(s0)
	.loc 8 195 11
	lw	a5,-24(s0)
	.loc 8 195 34
	srli	a5,a5,31
	.loc 8 195 7
	sw	a5,-24(s0)
	.loc 8 198 38
	lw	a5,-24(s0)
	neg	a5,a5
	.loc 8 203 1
	mv	a0,a5
	lw	ra,44(sp)
	.cfi_restore 1
	lw	s0,40(sp)
	.cfi_restore 8
	.cfi_def_cfa 2, 48
	addi	sp,sp,48
	.cfi_def_cfa_offset 0
	jr	ra
	.cfi_endproc
.LFE145:
	.size	mbedtls_ct_bool, .-mbedtls_ct_bool
	.section	.text.mbedtls_ct_size_if_else_0,"ax",@progbits
	.align	1
	.type	mbedtls_ct_size_if_else_0, @function
mbedtls_ct_size_if_else_0:
.LFB154:
	.loc 8 447 1
	.cfi_startproc
	addi	sp,sp,-32
	.cfi_def_cfa_offset 32
	sw	ra,28(sp)
	sw	s0,24(sp)
	.cfi_offset 1, -4
	.cfi_offset 8, -8
	addi	s0,sp,32
	.cfi_def_cfa 8, 0
	sw	a0,-20(s0)
	sw	a1,-24(s0)
	.loc 8 448 12
	lw	a4,-20(s0)
	lw	a5,-24(s0)
	and	a5,a4,a5
	.loc 8 449 1
	mv	a0,a5
	lw	ra,28(sp)
	.cfi_restore 1
	lw	s0,24(sp)
	.cfi_restore 8
	.cfi_def_cfa 2, 32
	addi	sp,sp,32
	.cfi_def_cfa_offset 0
	jr	ra
	.cfi_endproc
.LFE154:
	.size	mbedtls_ct_size_if_else_0, .-mbedtls_ct_size_if_else_0
	.section	.text.mbedtls_ct_bool_not,"ax",@progbits
	.align	1
	.type	mbedtls_ct_bool_not, @function
mbedtls_ct_bool_not:
.LFB167:
	.loc 8 532 1
	.cfi_startproc
	addi	sp,sp,-32
	.cfi_def_cfa_offset 32
	sw	ra,28(sp)
	sw	s0,24(sp)
	.cfi_offset 1, -4
	.cfi_offset 8, -8
	addi	s0,sp,32
	.cfi_def_cfa 8, 0
	sw	a0,-20(s0)
	.loc 8 533 12
	lw	a5,-20(s0)
	not	a5,a5
	.loc 8 534 1
	mv	a0,a5
	lw	ra,28(sp)
	.cfi_restore 1
	lw	s0,24(sp)
	.cfi_restore 8
	.cfi_def_cfa 2, 32
	addi	sp,sp,32
	.cfi_def_cfa_offset 0
	jr	ra
	.cfi_endproc
.LFE167:
	.size	mbedtls_ct_bool_not, .-mbedtls_ct_bool_not
	.section	.text.key_type_is_raw_bytes,"ax",@progbits
	.align	1
	.type	key_type_is_raw_bytes, @function
key_type_is_raw_bytes:
.LFB168:
	.file 9 "/home/chandu/sdk/bl602_iot_sdk/components/security/mbedtls-bl602/library/psa_crypto.c"
	.loc 9 89 1
	.cfi_startproc
	addi	sp,sp,-32
	.cfi_def_cfa_offset 32
	sw	ra,28(sp)
	sw	s0,24(sp)
	.cfi_offset 1, -4
	.cfi_offset 8, -8
	addi	s0,sp,32
	.cfi_def_cfa 8, 0
	mv	a5,a0
	sh	a5,-18(s0)
	.loc 9 90 21
	lhu	a4,-18(s0)
	li	a5,28672
	and	a4,a4,a5
	.loc 9 90 79
	li	a5,4096
	beq	a4,a5,.L241
	.loc 9 90 90 discriminator 2
	lhu	a4,-18(s0)
	li	a5,28672
	and	a4,a4,a5
	.loc 9 90 79 discriminator 2
	li	a5,8192
	bne	a4,a5,.L242
.L241:
	.loc 9 90 79 is_stmt 0 discriminator 3
	li	a5,1
	.loc 9 90 79
	j	.L244
.L242:
	.loc 9 90 79 discriminator 4
	li	a5,0
.L244:
	.loc 9 91 1 is_stmt 1
	mv	a0,a5
	lw	ra,28(sp)
	.cfi_restore 1
	lw	s0,24(sp)
	.cfi_restore 8
	.cfi_def_cfa 2, 32
	addi	sp,sp,32
	.cfi_def_cfa_offset 0
	jr	ra
	.cfi_endproc
.LFE168:
	.size	key_type_is_raw_bytes, .-key_type_is_raw_bytes
	.section	.bss.global_data,"aw",@nobits
	.align	2
	.type	global_data, @object
	.size	global_data, 752
global_data:
	.zero	752
	.section	.text.psa_get_initialized,"ax",@progbits
	.align	1
	.type	psa_get_initialized, @function
psa_get_initialized:
.LFB169:
	.loc 9 126 1
	.cfi_startproc
	addi	sp,sp,-32
	.cfi_def_cfa_offset 32
	sw	ra,28(sp)
	sw	s0,24(sp)
	.cfi_offset 1, -4
	.cfi_offset 8, -8
	addi	s0,sp,32
	.cfi_def_cfa 8, 0
	.loc 9 133 30
	lui	a5,%hi(global_data)
	addi	a5,a5,%lo(global_data)
	lbu	a5,1(a5)
	.loc 9 133 41
	addi	a5,a5,-2
	seqz	a5,a5
	andi	a5,a5,0xff
	.loc 9 133 17
	sb	a5,-17(s0)
	.loc 9 144 22
	lbu	a5,-17(s0)
	beq	a5,zero,.L246
	.loc 9 144 37 discriminator 1
	lui	a5,%hi(global_data)
	addi	a5,a5,%lo(global_data)
	lbu	a4,0(a5)
	.loc 9 144 22 discriminator 1
	li	a5,7
	bne	a4,a5,.L246
	.loc 9 144 22 is_stmt 0 discriminator 3
	li	a5,1
	.loc 9 144 22
	j	.L247
.L246:
	.loc 9 144 22 discriminator 4
	li	a5,0
.L247:
	.loc 9 143 17 is_stmt 1
	sb	a5,-17(s0)
	.loc 9 150 12
	lbu	a5,-17(s0)
	.loc 9 151 1
	mv	a0,a5
	lw	ra,28(sp)
	.cfi_restore 1
	lw	s0,24(sp)
	.cfi_restore 8
	.cfi_def_cfa 2, 32
	addi	sp,sp,32
	.cfi_def_cfa_offset 0
	jr	ra
	.cfi_endproc
.LFE169:
	.size	psa_get_initialized, .-psa_get_initialized
	.section	.text.psa_get_drivers_initialized,"ax",@progbits
	.align	1
	.type	psa_get_drivers_initialized, @function
psa_get_drivers_initialized:
.LFB170:
	.loc 9 154 1
	.cfi_startproc
	addi	sp,sp,-32
	.cfi_def_cfa_offset 32
	sw	ra,28(sp)
	sw	s0,24(sp)
	.cfi_offset 1, -4
	.cfi_offset 8, -8
	addi	s0,sp,32
	.cfi_def_cfa 8, 0
	.loc 9 161 31
	lui	a5,%hi(global_data)
	addi	a5,a5,%lo(global_data)
	lbu	a5,0(a5)
	.loc 9 161 17
	andi	a5,a5,1
	sb	a5,-17(s0)
	.loc 9 167 12
	lbu	a5,-17(s0)
	.loc 9 168 1
	mv	a0,a5
	lw	ra,28(sp)
	.cfi_restore 1
	lw	s0,24(sp)
	.cfi_restore 8
	.cfi_def_cfa 2, 32
	addi	sp,sp,32
	.cfi_def_cfa_offset 0
	jr	ra
	.cfi_endproc
.LFE170:
	.size	psa_get_drivers_initialized, .-psa_get_drivers_initialized
	.section	.text.psa_can_do_hash,"ax",@progbits
	.align	1
	.globl	psa_can_do_hash
	.type	psa_can_do_hash, @function
psa_can_do_hash:
.LFB171:
	.loc 9 287 1
	.cfi_startproc
	addi	sp,sp,-32
	.cfi_def_cfa_offset 32
	sw	ra,28(sp)
	sw	s0,24(sp)
	.cfi_offset 1, -4
	.cfi_offset 8, -8
	addi	s0,sp,32
	.cfi_def_cfa 8, 0
	sw	a0,-20(s0)
	.loc 9 289 12
	call	psa_get_drivers_initialized
	mv	a5,a0
	.loc 9 290 1
	mv	a0,a5
	lw	ra,28(sp)
	.cfi_restore 1
	lw	s0,24(sp)
	.cfi_restore 8
	.cfi_def_cfa 2, 32
	addi	sp,sp,32
	.cfi_def_cfa_offset 0
	jr	ra
	.cfi_endproc
.LFE171:
	.size	psa_can_do_hash, .-psa_can_do_hash
	.section	.text.psa_can_do_cipher,"ax",@progbits
	.align	1
	.globl	psa_can_do_cipher
	.type	psa_can_do_cipher, @function
psa_can_do_cipher:
.LFB172:
	.loc 9 293 1
	.cfi_startproc
	addi	sp,sp,-32
	.cfi_def_cfa_offset 32
	sw	ra,28(sp)
	sw	s0,24(sp)
	.cfi_offset 1, -4
	.cfi_offset 8, -8
	addi	s0,sp,32
	.cfi_def_cfa 8, 0
	mv	a5,a0
	sw	a1,-24(s0)
	sh	a5,-18(s0)
	.loc 9 296 12
	call	psa_get_drivers_initialized
	mv	a5,a0
	.loc 9 297 1
	mv	a0,a5
	lw	ra,28(sp)
	.cfi_restore 1
	lw	s0,24(sp)
	.cfi_restore 8
	.cfi_def_cfa 2, 32
	addi	sp,sp,32
	.cfi_def_cfa_offset 0
	jr	ra
	.cfi_endproc
.LFE172:
	.size	psa_can_do_cipher, .-psa_can_do_cipher
	.section	.text.psa_is_dh_key_size_valid,"ax",@progbits
	.align	1
	.type	psa_is_dh_key_size_valid, @function
psa_is_dh_key_size_valid:
.LFB173:
	.loc 9 304 1
	.cfi_startproc
	addi	sp,sp,-32
	.cfi_def_cfa_offset 32
	sw	ra,28(sp)
	sw	s0,24(sp)
	.cfi_offset 1, -4
	.cfi_offset 8, -8
	addi	s0,sp,32
	.cfi_def_cfa 8, 0
	sw	a0,-20(s0)
	.loc 9 305 5
	lw	a4,-20(s0)
	li	a5,8192
	beq	a4,a5,.L256
	lw	a4,-20(s0)
	li	a5,8192
	bgtu	a4,a5,.L257
	lw	a4,-20(s0)
	li	a5,8192
	addi	a5,a5,-2048
	beq	a4,a5,.L258
	lw	a4,-20(s0)
	li	a5,8192
	addi	a5,a5,-2048
	bgtu	a4,a5,.L257
	lw	a4,-20(s0)
	li	a5,4096
	beq	a4,a5,.L259
	lw	a4,-20(s0)
	li	a5,4096
	bgtu	a4,a5,.L257
	lw	a5,-20(s0)
	addi	a5,a5,-2048
	beq	a5,zero,.L260
	lw	a4,-20(s0)
	li	a5,4096
	addi	a5,a5,-1024
	beq	a4,a5,.L261
	j	.L257
.L260:
	.loc 9 308 20
	li	a5,1
	j	.L262
.L261:
	.loc 9 312 20
	li	a5,1
	j	.L262
.L259:
	.loc 9 316 20
	li	a5,1
	j	.L262
.L258:
	.loc 9 320 20
	li	a5,1
	j	.L262
.L256:
	.loc 9 324 20
	li	a5,1
	j	.L262
.L257:
	.loc 9 327 20
	li	a5,0
.L262:
	.loc 9 329 1
	mv	a0,a5
	lw	ra,28(sp)
	.cfi_restore 1
	lw	s0,24(sp)
	.cfi_restore 8
	.cfi_def_cfa 2, 32
	addi	sp,sp,32
	.cfi_def_cfa_offset 0
	jr	ra
	.cfi_endproc
.LFE173:
	.size	psa_is_dh_key_size_valid, .-psa_is_dh_key_size_valid
	.section	.text.mbedtls_to_psa_error,"ax",@progbits
	.align	1
	.globl	mbedtls_to_psa_error
	.type	mbedtls_to_psa_error, @function
mbedtls_to_psa_error:
.LFB174:
	.loc 9 335 1
	.cfi_startproc
	addi	sp,sp,-48
	.cfi_def_cfa_offset 48
	sw	ra,44(sp)
	sw	s0,40(sp)
	.cfi_offset 1, -4
	.cfi_offset 8, -8
	addi	s0,sp,48
	.cfi_def_cfa 8, 0
	sw	a0,-36(s0)
	.loc 9 339 27
	lw	a5,-36(s0)
	neg	a5,a5
	.loc 9 339 32
	andi	a5,a5,127
	.loc 9 339 9
	neg	a5,a5
	sw	a5,-20(s0)
	.loc 9 340 48
	lw	a5,-20(s0)
	beq	a5,zero,.L264
	.loc 9 340 48 is_stmt 0 discriminator 1
	lw	a5,-20(s0)
	j	.L265
.L264:
	.loc 9 340 48 discriminator 2
	lw	a5,-36(s0)
.L265:
	.loc 9 340 5 is_stmt 1 discriminator 4
	beq	a5,zero,.L266
	bgt	a5,zero,.L267
	li	a4,-4
	beq	a5,a4,.L268
	li	a4,-4
	bgt	a5,a4,.L267
	li	a4,-6
	beq	a5,a4,.L269
	li	a4,-6
	bgt	a5,a4,.L267
	li	a4,-8
	beq	a5,a4,.L270
	li	a4,-8
	bgt	a5,a4,.L267
	li	a4,-10
	beq	a5,a4,.L271
	li	a4,-10
	bgt	a5,a4,.L267
	li	a4,-12
	beq	a5,a4,.L272
	li	a4,-12
	bgt	a5,a4,.L267
	li	a4,-13
	beq	a5,a4,.L273
	li	a4,-13
	bgt	a5,a4,.L267
	li	a4,-14
	beq	a5,a4,.L274
	li	a4,-14
	bgt	a5,a4,.L267
	li	a4,-15
	beq	a5,a4,.L275
	li	a4,-15
	bgt	a5,a4,.L267
	li	a4,-16
	beq	a5,a4,.L276
	li	a4,-16
	bgt	a5,a4,.L267
	li	a4,-18
	beq	a5,a4,.L277
	li	a4,-18
	bgt	a5,a4,.L267
	li	a4,-20
	beq	a5,a4,.L278
	li	a4,-20
	bgt	a5,a4,.L267
	li	a4,-22
	beq	a5,a4,.L279
	li	a4,-22
	bgt	a5,a4,.L267
	li	a4,-32
	beq	a5,a4,.L280
	li	a4,-32
	bgt	a5,a4,.L267
	li	a4,-33
	beq	a5,a4,.L281
	li	a4,-33
	bgt	a5,a4,.L267
	li	a4,-34
	beq	a5,a4,.L280
	li	a4,-34
	bgt	a5,a4,.L267
	li	a4,-50
	beq	a5,a4,.L282
	li	a4,-50
	bgt	a5,a4,.L267
	li	a4,-52
	beq	a5,a4,.L283
	li	a4,-52
	bgt	a5,a4,.L267
	li	a4,-54
	beq	a5,a4,.L284
	li	a4,-54
	bgt	a5,a4,.L267
	li	a4,-56
	beq	a5,a4,.L284
	li	a4,-56
	bgt	a5,a4,.L267
	li	a4,-58
	beq	a5,a4,.L285
	li	a4,-58
	bgt	a5,a4,.L267
	li	a4,-60
	bgt	a5,a4,.L267
	li	a4,-61
	bge	a5,a4,.L286
	li	a4,-64
	beq	a5,a4,.L286
	li	a4,-64
	bgt	a5,a4,.L267
	li	a4,-81
	beq	a5,a4,.L287
	li	a4,-81
	bgt	a5,a4,.L267
	li	a4,-96
	beq	a5,a4,.L288
	li	a4,-96
	bgt	a5,a4,.L267
	li	a4,-98
	beq	a5,a4,.L288
	li	a4,-98
	bgt	a5,a4,.L267
	li	a4,-100
	beq	a5,a4,.L288
	li	a4,-100
	bgt	a5,a4,.L267
	li	a4,-102
	beq	a5,a4,.L288
	li	a4,-102
	bgt	a5,a4,.L267
	li	a4,-104
	beq	a5,a4,.L288
	li	a4,-104
	bgt	a5,a4,.L267
	li	a4,-106
	beq	a5,a4,.L289
	li	a4,-106
	bgt	a5,a4,.L267
	li	a4,-108
	beq	a5,a4,.L290
	li	a4,-108
	bgt	a5,a4,.L267
	li	a4,-110
	beq	a5,a4,.L291
	li	a4,-110
	bgt	a5,a4,.L267
	li	a4,-112
	beq	a5,a4,.L292
	li	a4,-112
	bgt	a5,a4,.L267
	li	a4,-114
	beq	a5,a4,.L293
	li	a4,-114
	bgt	a5,a4,.L267
	li	a4,-16384
	addi	a4,a4,1920
	beq	a5,a4,.L294
	li	a4,-16384
	addi	a4,a4,1920
	bgt	a5,a4,.L267
	li	a4,-16384
	addi	a4,a4,1792
	beq	a5,a4,.L295
	li	a4,-16384
	addi	a4,a4,1792
	bgt	a5,a4,.L267
	li	a4,-16384
	addi	a4,a4,1664
	beq	a5,a4,.L296
	li	a4,-16384
	addi	a4,a4,1664
	bgt	a5,a4,.L267
	li	a4,-16384
	addi	a4,a4,1536
	beq	a5,a4,.L296
	li	a4,-16384
	addi	a4,a4,1536
	bgt	a5,a4,.L267
	li	a4,-16384
	addi	a4,a4,1408
	beq	a5,a4,.L296
	li	a4,-16384
	addi	a4,a4,1408
	bgt	a5,a4,.L267
	li	a4,-16384
	addi	a4,a4,1280
	beq	a5,a4,.L297
	li	a4,-16384
	addi	a4,a4,1280
	bgt	a5,a4,.L267
	li	a4,-16384
	addi	a4,a4,1152
	beq	a5,a4,.L298
	li	a4,-16384
	addi	a4,a4,1152
	bgt	a5,a4,.L267
	li	a4,-16384
	addi	a4,a4,1024
	beq	a5,a4,.L298
	li	a4,-16384
	addi	a4,a4,1024
	bgt	a5,a4,.L267
	li	a4,-16384
	addi	a4,a4,896
	beq	a5,a4,.L299
	li	a4,-16384
	addi	a4,a4,896
	bgt	a5,a4,.L267
	li	a4,-16384
	addi	a4,a4,768
	beq	a5,a4,.L300
	li	a4,-16384
	addi	a4,a4,768
	bgt	a5,a4,.L267
	li	a4,-16384
	addi	a4,a4,640
	beq	a5,a4,.L300
	li	a4,-16384
	addi	a4,a4,640
	bgt	a5,a4,.L267
	li	a4,-16384
	addi	a4,a4,384
	beq	a5,a4,.L301
	li	a4,-16384
	addi	a4,a4,384
	bgt	a5,a4,.L267
	li	a4,-16384
	addi	a4,a4,256
	beq	a5,a4,.L301
	li	a4,-16384
	addi	a4,a4,256
	bgt	a5,a4,.L267
	li	a4,-16384
	addi	a4,a4,128
	beq	a5,a4,.L302
	li	a4,-16384
	addi	a4,a4,128
	bgt	a5,a4,.L267
	li	a4,-16384
	addi	a4,a4,-128
	beq	a5,a4,.L303
	li	a4,-16384
	addi	a4,a4,-128
	bgt	a5,a4,.L267
	li	a4,-16384
	addi	a4,a4,-256
	beq	a5,a4,.L304
	li	a4,-16384
	addi	a4,a4,-256
	bgt	a5,a4,.L267
	li	a4,-16384
	addi	a4,a4,-384
	beq	a5,a4,.L305
	li	a4,-16384
	addi	a4,a4,-384
	bgt	a5,a4,.L267
	li	a4,-16384
	addi	a4,a4,-512
	beq	a5,a4,.L306
	li	a4,-16384
	addi	a4,a4,-512
	bgt	a5,a4,.L267
	li	a4,-16384
	addi	a4,a4,-640
	beq	a5,a4,.L307
	li	a4,-16384
	addi	a4,a4,-640
	bgt	a5,a4,.L267
	li	a4,-16384
	addi	a4,a4,-768
	beq	a5,a4,.L307
	li	a4,-16384
	addi	a4,a4,-768
	bgt	a5,a4,.L267
	li	a4,-16384
	addi	a4,a4,-896
	beq	a5,a4,.L308
	li	a4,-16384
	addi	a4,a4,-896
	bgt	a5,a4,.L267
	li	a4,-16384
	addi	a4,a4,-1024
	beq	a5,a4,.L309
	li	a4,-16384
	addi	a4,a4,-1024
	bgt	a5,a4,.L267
	li	a4,-16384
	addi	a4,a4,-1152
	beq	a5,a4,.L310
	li	a4,-16384
	addi	a4,a4,-1152
	bgt	a5,a4,.L267
	li	a4,-20480
	addi	a4,a4,1280
	beq	a5,a4,.L311
	li	a4,-20480
	addi	a4,a4,1280
	bgt	a5,a4,.L267
	li	a4,-20480
	addi	a4,a4,1024
	beq	a5,a4,.L312
	li	a4,-20480
	addi	a4,a4,1024
	bgt	a5,a4,.L267
	li	a4,-20480
	addi	a4,a4,896
	beq	a5,a4,.L313
	li	a4,-20480
	addi	a4,a4,896
	bgt	a5,a4,.L267
	li	a4,-20480
	addi	a4,a4,768
	beq	a5,a4,.L314
	li	a4,-20480
	addi	a4,a4,768
	bgt	a5,a4,.L267
	li	a4,-20480
	addi	a4,a4,640
	beq	a5,a4,.L315
	li	a4,-20480
	addi	a4,a4,640
	bgt	a5,a4,.L267
	li	a4,-20480
	addi	a4,a4,512
	beq	a5,a4,.L312
	li	a4,-20480
	addi	a4,a4,512
	bgt	a5,a4,.L267
	li	a4,-20480
	addi	a4,a4,384
	beq	a5,a4,.L316
	li	a4,-20480
	addi	a4,a4,384
	bgt	a5,a4,.L267
	li	a4,-20480
	addi	a4,a4,256
	beq	a5,a4,.L317
	li	a4,-20480
	addi	a4,a4,256
	bgt	a5,a4,.L267
	li	a4,-20480
	addi	a4,a4,128
	beq	a5,a4,.L313
	li	a4,-20480
	addi	a4,a4,128
	bgt	a5,a4,.L267
	li	a4,-20480
	addi	a4,a4,-128
	beq	a5,a4,.L318
	li	a4,-20480
	addi	a4,a4,-128
	bgt	a5,a4,.L267
	li	a4,-20480
	addi	a4,a4,-256
	beq	a5,a4,.L319
	li	a4,-20480
	addi	a4,a4,-256
	bgt	a5,a4,.L267
	li	a4,-20480
	addi	a4,a4,-384
	beq	a5,a4,.L320
	li	a4,-20480
	addi	a4,a4,-384
	bgt	a5,a4,.L267
	li	a4,-24576
	addi	a4,a4,-128
	beq	a5,a4,.L321
	li	a4,-24576
	addi	a4,a4,-128
	bgt	a5,a4,.L267
	li	a4,-24576
	addi	a4,a4,-256
	beq	a5,a4,.L322
	li	a4,-24576
	addi	a4,a4,-256
	bgt	a5,a4,.L267
	li	a4,-24576
	addi	a4,a4,-384
	beq	a5,a4,.L323
	li	a4,-24576
	addi	a4,a4,-384
	bgt	a5,a4,.L267
	li	a4,-24576
	addi	a4,a4,-512
	beq	a5,a4,.L324
	li	a4,-24576
	addi	a4,a4,-512
	bgt	a5,a4,.L267
	li	a4,-24576
	addi	a4,a4,-640
	beq	a5,a4,.L325
	li	a4,-24576
	addi	a4,a4,-640
	bgt	a5,a4,.L267
	li	a4,-24576
	addi	a4,a4,-896
	beq	a5,a4,.L326
	li	a4,-24576
	addi	a4,a4,-768
	beq	a5,a4,.L327
	j	.L267
.L266:
	.loc 9 342 20
	li	a5,0
	j	.L328
.L280:
	.loc 9 347 20
	li	a5,-134
	j	.L328
.L281:
	.loc 9 349 20
	li	a5,-135
	j	.L328
.L288:
	.loc 9 358 20
	li	a5,-135
	j	.L328
.L289:
	.loc 9 360 20
	li	a5,-141
	j	.L328
.L290:
	.loc 9 362 20
	li	a5,-138
	j	.L328
.L273:
	.loc 9 373 20
	li	a5,-135
	j	.L328
.L275:
	.loc 9 375 20
	li	a5,-149
	j	.L328
.L287:
	.loc 9 380 20
	li	a5,-135
	j	.L328
.L321:
	.loc 9 392 20
	li	a5,-134
	j	.L328
.L322:
	.loc 9 394 20
	li	a5,-135
	j	.L328
.L323:
	.loc 9 396 20
	li	a5,-141
	j	.L328
.L324:
	.loc 9 398 20
	li	a5,-150
	j	.L328
.L325:
	.loc 9 400 20
	li	a5,-135
	j	.L328
.L327:
	.loc 9 402 20
	li	a5,-149
	j	.L328
.L326:
	.loc 9 404 20
	li	a5,-151
	j	.L328
.L283:
	.loc 9 412 20
	li	a5,-148
	j	.L328
.L284:
	.loc 9 415 20
	li	a5,-134
	j	.L328
.L285:
	.loc 9 417 20
	li	a5,-148
	j	.L328
.L282:
	.loc 9 422 20
	li	a5,-134
	j	.L328
.L286:
	.loc 9 428 20
	li	a5,-148
	j	.L328
.L277:
	.loc 9 432 20
	li	a5,-149
	j	.L328
.L279:
	.loc 9 434 20
	li	a5,-138
	j	.L328
.L278:
	.loc 9 436 20
	li	a5,-135
	j	.L328
.L318:
	.loc 9 454 20
	li	a5,-134
	j	.L328
.L319:
	.loc 9 456 20
	li	a5,-135
	j	.L328
.L320:
	.loc 9 458 20
	li	a5,-141
	j	.L328
.L268:
	.loc 9 471 20
	li	a5,-135
	j	.L328
.L269:
	.loc 9 473 20
	li	a5,-135
	j	.L328
.L270:
	.loc 9 475 20
	li	a5,-138
	j	.L328
.L271:
	.loc 9 477 20
	li	a5,-135
	j	.L328
.L272:
	.loc 9 479 20
	li	a5,-135
	j	.L328
.L274:
	.loc 9 481 20
	li	a5,-135
	j	.L328
.L276:
	.loc 9 483 20
	li	a5,-141
	j	.L328
.L302:
	.loc 9 488 20
	li	a5,-141
	j	.L328
.L301:
	.loc 9 491 20
	li	a5,-135
	j	.L328
.L300:
	.loc 9 499 20
	li	a5,-135
	j	.L328
.L299:
	.loc 9 501 20
	li	a5,-134
	j	.L328
.L298:
	.loc 9 504 20
	li	a5,-133
	j	.L328
.L297:
	.loc 9 506 20
	li	a5,-135
	j	.L328
.L296:
	.loc 9 510 20
	li	a5,-134
	j	.L328
.L295:
	.loc 9 512 20
	li	a5,-149
	j	.L328
.L294:
	.loc 9 514 20
	li	a5,-138
	j	.L328
.L292:
	.loc 9 518 20
	li	a5,-147
	j	.L328
.L293:
	.loc 9 520 20
	li	a5,-134
	j	.L328
.L303:
	.loc 9 524 20
	li	a5,-135
	j	.L328
.L304:
	.loc 9 526 20
	li	a5,-150
	j	.L328
.L305:
	.loc 9 528 20
	li	a5,-147
	j	.L328
.L306:
	.loc 9 530 20
	li	a5,-135
	j	.L328
.L307:
	.loc 9 533 20
	li	a5,-151
	j	.L328
.L308:
	.loc 9 535 20
	li	a5,-149
	j	.L328
.L309:
	.loc 9 537 20
	li	a5,-138
	j	.L328
.L310:
	.loc 9 539 20
	li	a5,-148
	j	.L328
.L313:
	.loc 9 545 20
	li	a5,-135
	j	.L328
.L317:
	.loc 9 547 20
	li	a5,-138
	j	.L328
.L316:
	.loc 9 549 20
	li	a5,-134
	j	.L328
.L312:
	.loc 9 552 20
	li	a5,-149
	j	.L328
.L315:
	.loc 9 554 20
	li	a5,-141
	j	.L328
.L314:
	.loc 9 556 20
	li	a5,-148
	j	.L328
.L311:
	.loc 9 560 20
	li	a5,-248
	j	.L328
.L291:
	.loc 9 565 20
	li	a5,-151
	j	.L328
.L267:
	.loc 9 568 20
	li	a5,-132
.L328:
	.loc 9 570 1
	mv	a0,a5
	lw	ra,44(sp)
	.cfi_restore 1
	lw	s0,40(sp)
	.cfi_restore 8
	.cfi_def_cfa 2, 48
	addi	sp,sp,48
	.cfi_def_cfa_offset 0
	jr	ra
	.cfi_endproc
.LFE174:
	.size	mbedtls_to_psa_error, .-mbedtls_to_psa_error
	.section	.text.psa_wipe_tag_output_buffer,"ax",@progbits
	.align	1
	.type	psa_wipe_tag_output_buffer, @function
psa_wipe_tag_output_buffer:
.LFB175:
	.loc 9 594 1
	.cfi_startproc
	addi	sp,sp,-48
	.cfi_def_cfa_offset 48
	sw	ra,44(sp)
	sw	s0,40(sp)
	.cfi_offset 1, -4
	.cfi_offset 8, -8
	addi	s0,sp,48
	.cfi_def_cfa 8, 0
	sw	a0,-36(s0)
	sw	a1,-40(s0)
	sw	a2,-44(s0)
	sw	a3,-48(s0)
	.loc 9 595 12
	sw	zero,-20(s0)
	.loc 9 597 8
	lw	a5,-44(s0)
	beq	a5,zero,.L333
	.loc 9 603 8
	lw	a5,-40(s0)
	bne	a5,zero,.L332
	.loc 9 604 16
	lw	a5,-48(s0)
	sw	a5,-20(s0)
.L332:
	.loc 9 607 26
	lw	a4,-36(s0)
	lw	a5,-20(s0)
	add	a3,a4,a5
	.loc 9 607 5
	lw	a4,-44(s0)
	lw	a5,-20(s0)
	sub	a5,a4,a5
	mv	a2,a5
	li	a1,33
	mv	a0,a3
	call	memset
	j	.L329
.L333:
	.loc 9 600 9
	nop
.L329:
	.loc 9 608 1
	lw	ra,44(sp)
	.cfi_restore 1
	lw	s0,40(sp)
	.cfi_restore 8
	.cfi_def_cfa 2, 48
	addi	sp,sp,48
	.cfi_def_cfa_offset 0
	jr	ra
	.cfi_endproc
.LFE175:
	.size	psa_wipe_tag_output_buffer, .-psa_wipe_tag_output_buffer
	.section	.text.psa_validate_unstructured_key_bit_size,"ax",@progbits
	.align	1
	.globl	psa_validate_unstructured_key_bit_size
	.type	psa_validate_unstructured_key_bit_size, @function
psa_validate_unstructured_key_bit_size:
.LFB176:
	.loc 9 613 1
	.cfi_startproc
	addi	sp,sp,-32
	.cfi_def_cfa_offset 32
	sw	ra,28(sp)
	sw	s0,24(sp)
	.cfi_offset 1, -4
	.cfi_offset 8, -8
	addi	s0,sp,32
	.cfi_def_cfa 8, 0
	mv	a5,a0
	sw	a1,-24(s0)
	sh	a5,-18(s0)
	.loc 9 615 5
	lhu	a5,-18(s0)
	li	a4,8192
	addi	a4,a4,1024
	beq	a5,a4,.L335
	li	a4,8192
	addi	a4,a4,1024
	bgt	a5,a4,.L336
	li	a4,8192
	addi	a4,a4,769
	beq	a5,a4,.L337
	li	a4,8192
	addi	a4,a4,769
	bgt	a5,a4,.L336
	li	a4,8192
	addi	a4,a4,4
	beq	a5,a4,.L338
	li	a4,8192
	addi	a4,a4,4
	bgt	a5,a4,.L336
	li	a4,4096
	addi	a4,a4,517
	beq	a5,a4,.L346
	li	a4,4096
	addi	a4,a4,517
	bgt	a5,a4,.L336
	li	a4,4096
	addi	a4,a4,515
	beq	a5,a4,.L346
	li	a4,4096
	addi	a4,a4,515
	bgt	a5,a4,.L336
	li	a4,4096
	addi	a4,a4,512
	beq	a5,a4,.L346
	li	a4,4096
	addi	a4,a4,512
	bgt	a5,a4,.L336
	li	a4,4096
	addi	a4,a4,1
	beq	a5,a4,.L346
	li	a4,4096
	addi	a4,a4,256
	bne	a5,a4,.L336
	.loc 9 621 13
	j	.L346
.L335:
	.loc 9 624 16
	lw	a4,-24(s0)
	li	a5,128
	beq	a4,a5,.L347
	.loc 9 624 29 discriminator 1
	lw	a4,-24(s0)
	li	a5,192
	beq	a4,a5,.L347
	.loc 9 624 44 discriminator 2
	lw	a4,-24(s0)
	li	a5,256
	beq	a4,a5,.L347
	.loc 9 625 24
	li	a5,-135
	j	.L342
.L337:
	.loc 9 645 16
	lw	a4,-24(s0)
	li	a5,64
	beq	a4,a5,.L348
	.loc 9 645 28 discriminator 1
	lw	a4,-24(s0)
	li	a5,128
	beq	a4,a5,.L348
	.loc 9 645 43 discriminator 2
	lw	a4,-24(s0)
	li	a5,192
	beq	a4,a5,.L348
	.loc 9 646 24
	li	a5,-135
	j	.L342
.L338:
	.loc 9 652 16
	lw	a4,-24(s0)
	li	a5,256
	beq	a4,a5,.L349
	.loc 9 653 24
	li	a5,-135
	j	.L342
.L336:
	.loc 9 658 20
	li	a5,-134
	j	.L342
.L346:
	.loc 9 621 13
	nop
	j	.L340
.L347:
	.loc 9 627 13
	nop
	j	.L340
.L348:
	.loc 9 648 13
	nop
	j	.L340
.L349:
	.loc 9 655 13
	nop
.L340:
	.loc 9 660 14
	lw	a5,-24(s0)
	andi	a5,a5,7
	.loc 9 660 8
	beq	a5,zero,.L345
	.loc 9 661 16
	li	a5,-135
	j	.L342
.L345:
	.loc 9 664 12
	li	a5,0
.L342:
	.loc 9 665 1
	mv	a0,a5
	lw	ra,28(sp)
	.cfi_restore 1
	lw	s0,24(sp)
	.cfi_restore 8
	.cfi_def_cfa 2, 32
	addi	sp,sp,32
	.cfi_def_cfa_offset 0
	jr	ra
	.cfi_endproc
.LFE176:
	.size	psa_validate_unstructured_key_bit_size, .-psa_validate_unstructured_key_bit_size
	.section	.text.psa_mac_key_can_do,"ax",@progbits
	.align	1
	.type	psa_mac_key_can_do, @function
psa_mac_key_can_do:
.LFB177:
	.loc 9 684 1
	.cfi_startproc
	addi	sp,sp,-32
	.cfi_def_cfa_offset 32
	sw	ra,28(sp)
	sw	s0,24(sp)
	.cfi_offset 1, -4
	.cfi_offset 8, -8
	addi	s0,sp,32
	.cfi_def_cfa 8, 0
	sw	a0,-20(s0)
	mv	a5,a1
	sh	a5,-22(s0)
	.loc 9 685 23
	lw	a4,-20(s0)
	li	a5,2143289344
	and	a4,a4,a5
	.loc 9 685 8
	li	a5,58720256
	bne	a4,a5,.L351
	.loc 9 686 12
	lhu	a4,-22(s0)
	li	a5,4096
	addi	a5,a5,256
	bne	a4,a5,.L351
	.loc 9 687 20
	li	a5,0
	j	.L352
.L351:
	.loc 9 691 23
	lw	a4,-20(s0)
	li	a5,2143289344
	and	a4,a4,a5
	.loc 9 691 8
	li	a5,62914560
	bne	a4,a5,.L353
	.loc 9 694 23
	lhu	a4,-22(s0)
	li	a5,28672
	and	a4,a4,a5
	.loc 9 694 12
	li	a5,8192
	bne	a4,a5,.L353
	.loc 9 698 30
	lhu	a4,-22(s0)
	li	a5,28672
	and	a4,a4,a5
	.loc 9 698 16
	li	a5,8192
	bne	a4,a5,.L353
	.loc 9 698 115 discriminator 1
	lhu	a5,-22(s0)
	srli	a5,a5,8
	slli	a5,a5,16
	srli	a5,a5,16
	andi	a5,a5,7
	.loc 9 698 93 discriminator 1
	li	a4,1
	sll	a4,a4,a5
	.loc 9 698 126 discriminator 1
	li	a5,1
	bleu	a4,a5,.L353
	.loc 9 699 24
	li	a5,0
	j	.L352
.L353:
	.loc 9 704 12
	li	a5,-135
.L352:
	.loc 9 705 1
	mv	a0,a5
	lw	ra,28(sp)
	.cfi_restore 1
	lw	s0,24(sp)
	.cfi_restore 8
	.cfi_def_cfa 2, 32
	addi	sp,sp,32
	.cfi_def_cfa_offset 0
	jr	ra
	.cfi_endproc
.LFE177:
	.size	psa_mac_key_can_do, .-psa_mac_key_can_do
	.section	.text.psa_allocate_buffer_to_slot,"ax",@progbits
	.align	1
	.globl	psa_allocate_buffer_to_slot
	.type	psa_allocate_buffer_to_slot, @function
psa_allocate_buffer_to_slot:
.LFB178:
	.loc 9 709 1
	.cfi_startproc
	addi	sp,sp,-32
	.cfi_def_cfa_offset 32
	sw	ra,28(sp)
	sw	s0,24(sp)
	.cfi_offset 1, -4
	.cfi_offset 8, -8
	addi	s0,sp,32
	.cfi_def_cfa 8, 0
	sw	a0,-20(s0)
	sw	a1,-24(s0)
	.loc 9 715 18
	lw	a5,-20(s0)
	lw	a5,32(a5)
	.loc 9 715 8
	beq	a5,zero,.L355
	.loc 9 716 16
	li	a5,-139
	j	.L356
.L355:
	.loc 9 719 22
	lw	a1,-24(s0)
	li	a0,1
	call	calloc
	mv	a5,a0
	mv	a4,a5
	.loc 9 719 20 discriminator 1
	lw	a5,-20(s0)
	sw	a4,32(a5)
	.loc 9 720 18
	lw	a5,-20(s0)
	lw	a5,32(a5)
	.loc 9 720 8
	bne	a5,zero,.L357
	.loc 9 721 16
	li	a5,-141
	j	.L356
.L357:
	.loc 9 725 21
	lw	a5,-20(s0)
	lw	a4,-24(s0)
	sw	a4,36(a5)
	.loc 9 726 12
	li	a5,0
.L356:
	.loc 9 727 1
	mv	a0,a5
	lw	ra,28(sp)
	.cfi_restore 1
	lw	s0,24(sp)
	.cfi_restore 8
	.cfi_def_cfa 2, 32
	addi	sp,sp,32
	.cfi_def_cfa_offset 0
	jr	ra
	.cfi_endproc
.LFE178:
	.size	psa_allocate_buffer_to_slot, .-psa_allocate_buffer_to_slot
	.section	.text.psa_copy_key_material_into_slot,"ax",@progbits
	.align	1
	.globl	psa_copy_key_material_into_slot
	.type	psa_copy_key_material_into_slot, @function
psa_copy_key_material_into_slot:
.LFB179:
	.loc 9 732 1
	.cfi_startproc
	addi	sp,sp,-48
	.cfi_def_cfa_offset 48
	sw	ra,44(sp)
	sw	s0,40(sp)
	.cfi_offset 1, -4
	.cfi_offset 8, -8
	addi	s0,sp,48
	.cfi_def_cfa 8, 0
	sw	a0,-36(s0)
	sw	a1,-40(s0)
	sw	a2,-44(s0)
	.loc 9 733 27
	lw	a1,-44(s0)
	lw	a0,-36(s0)
	call	psa_allocate_buffer_to_slot
	sw	a0,-20(s0)
	.loc 9 735 8
	lw	a5,-20(s0)
	beq	a5,zero,.L359
	.loc 9 736 16
	lw	a5,-20(s0)
	j	.L360
.L359:
	.loc 9 739 21
	lw	a5,-36(s0)
	lw	a5,32(a5)
	.loc 9 739 5
	lw	a2,-44(s0)
	lw	a1,-40(s0)
	mv	a0,a5
	call	memcpy
	.loc 9 740 12
	li	a5,0
.L360:
	.loc 9 741 1
	mv	a0,a5
	lw	ra,44(sp)
	.cfi_restore 1
	lw	s0,40(sp)
	.cfi_restore 8
	.cfi_def_cfa 2, 48
	addi	sp,sp,48
	.cfi_def_cfa_offset 0
	jr	ra
	.cfi_endproc
.LFE179:
	.size	psa_copy_key_material_into_slot, .-psa_copy_key_material_into_slot
	.section	.text.psa_import_key_into_slot,"ax",@progbits
	.align	1
	.globl	psa_import_key_into_slot
	.type	psa_import_key_into_slot, @function
psa_import_key_into_slot:
.LFB180:
	.loc 9 748 1
	.cfi_startproc
	addi	sp,sp,-64
	.cfi_def_cfa_offset 64
	sw	ra,60(sp)
	sw	s0,56(sp)
	.cfi_offset 1, -4
	.cfi_offset 8, -8
	addi	s0,sp,64
	.cfi_def_cfa 8, 0
	sw	a0,-36(s0)
	sw	a1,-40(s0)
	sw	a2,-44(s0)
	sw	a3,-48(s0)
	sw	a4,-52(s0)
	sw	a5,-56(s0)
	sw	a6,-60(s0)
	.loc 9 749 18
	li	a5,-151
	sw	a5,-20(s0)
	.loc 9 750 20
	lw	a5,-36(s0)
	lhu	a5,0(a5)
	sh	a5,-22(s0)
	.loc 9 753 8
	lw	a5,-44(s0)
	bne	a5,zero,.L362
	.loc 9 754 16
	li	a5,-134
	j	.L363
.L362:
	.loc 9 757 9
	lhu	a5,-22(s0)
	mv	a0,a5
	call	key_type_is_raw_bytes
	mv	a5,a0
	.loc 9 757 8 discriminator 1
	beq	a5,zero,.L364
	.loc 9 758 32
	lw	a5,-44(s0)
	slli	a4,a5,3
	.loc 9 758 15
	lw	a5,-60(s0)
	sw	a4,0(a5)
	.loc 9 760 67
	lw	a5,-36(s0)
	lhu	a4,0(a5)
	.loc 9 760 18
	lw	a5,-60(s0)
	lw	a5,0(a5)
	mv	a1,a5
	mv	a0,a4
	call	psa_validate_unstructured_key_bit_size
	sw	a0,-20(s0)
	.loc 9 762 12
	lw	a5,-20(s0)
	beq	a5,zero,.L365
	.loc 9 763 20
	lw	a5,-20(s0)
	j	.L363
.L365:
	.loc 9 767 9
	lw	a2,-44(s0)
	lw	a1,-40(s0)
	lw	a0,-48(s0)
	call	memcpy
	.loc 9 768 28
	lw	a5,-56(s0)
	lw	a4,-44(s0)
	sw	a4,0(a5)
	.loc 9 771 16
	li	a5,0
	j	.L363
.L364:
	.loc 9 772 53
	lhu	a4,-22(s0)
	li	a5,16384
	and	a5,a4,a5
	.loc 9 772 15
	beq	a5,zero,.L366
	.loc 9 775 53
	lhu	a4,-22(s0)
	li	a5,-12288
	addi	a5,a5,-256
	and	a4,a4,a5
	.loc 9 775 12
	li	a5,16384
	addi	a5,a5,512
	bne	a4,a5,.L367
	.loc 9 776 17
	lw	a5,-44(s0)
	slli	a5,a5,3
	mv	a0,a5
	call	psa_is_dh_key_size_valid
	mv	a5,a0
	.loc 9 776 16 discriminator 1
	bne	a5,zero,.L368
	.loc 9 777 24
	li	a5,-134
	j	.L363
.L368:
	.loc 9 779 20
	lw	a6,-60(s0)
	lw	a5,-56(s0)
	lw	a4,-52(s0)
	lw	a3,-48(s0)
	lw	a2,-44(s0)
	lw	a1,-40(s0)
	lw	a0,-36(s0)
	call	mbedtls_psa_ffdh_import_key
	mv	a5,a0
	j	.L363
.L367:
	.loc 9 789 53
	lhu	a4,-22(s0)
	li	a5,-12288
	addi	a5,a5,-256
	and	a4,a4,a5
	.loc 9 789 12
	li	a5,16384
	addi	a5,a5,256
	bne	a4,a5,.L369
	.loc 9 790 20
	lw	a6,-60(s0)
	lw	a5,-56(s0)
	lw	a4,-52(s0)
	lw	a3,-48(s0)
	lw	a2,-44(s0)
	lw	a1,-40(s0)
	lw	a0,-36(s0)
	call	mbedtls_psa_ecp_import_key
	mv	a5,a0
	j	.L363
.L369:
	.loc 9 801 22
	lhu	a4,-22(s0)
	li	a5,-12288
	addi	a5,a5,-1
	and	a4,a4,a5
	.loc 9 801 12
	li	a5,16384
	addi	a5,a5,1
	bne	a4,a5,.L366
	.loc 9 802 20
	lw	a6,-60(s0)
	lw	a5,-56(s0)
	lw	a4,-52(s0)
	lw	a3,-48(s0)
	lw	a2,-44(s0)
	lw	a1,-40(s0)
	lw	a0,-36(s0)
	call	mbedtls_psa_rsa_import_key
	mv	a5,a0
	j	.L363
.L366:
	.loc 9 813 12
	li	a5,-134
.L363:
	.loc 9 814 1
	mv	a0,a5
	lw	ra,60(sp)
	.cfi_restore 1
	lw	s0,56(sp)
	.cfi_restore 8
	.cfi_def_cfa 2, 64
	addi	sp,sp,64
	.cfi_def_cfa_offset 0
	jr	ra
	.cfi_endproc
.LFE180:
	.size	psa_import_key_into_slot, .-psa_import_key_into_slot
	.section	.text.psa_key_policy_algorithm_intersection,"ax",@progbits
	.align	1
	.type	psa_key_policy_algorithm_intersection, @function
psa_key_policy_algorithm_intersection:
.LFB181:
	.loc 9 824 1
	.cfi_startproc
	addi	sp,sp,-64
	.cfi_def_cfa_offset 64
	sw	ra,60(sp)
	sw	s0,56(sp)
	.cfi_offset 1, -4
	.cfi_offset 8, -8
	addi	s0,sp,64
	.cfi_def_cfa 8, 0
	mv	a5,a0
	sw	a1,-56(s0)
	sw	a2,-60(s0)
	sh	a5,-50(s0)
	.loc 9 826 8
	lw	a4,-56(s0)
	lw	a5,-60(s0)
	bne	a4,a5,.L371
	.loc 9 827 16
	lw	a5,-56(s0)
	j	.L372
.L371:
	.loc 9 831 20
	lw	a5,-56(s0)
	andi	a4,a5,-256
	.loc 9 831 8
	li	a5,100663296
	addi	a5,a5,768
	beq	a4,a5,.L373
	.loc 9 831 102 discriminator 2
	lw	a5,-56(s0)
	andi	a4,a5,-256
	.loc 9 831 90 discriminator 2
	li	a5,100667392
	addi	a5,a5,768
	beq	a4,a5,.L373
	.loc 9 831 185 discriminator 4
	lw	a5,-56(s0)
	andi	a4,a5,-256
	.loc 9 831 173 discriminator 4
	li	a5,100663296
	addi	a5,a5,512
	beq	a4,a5,.L373
	.loc 9 831 301 discriminator 6
	lw	a5,-56(s0)
	andi	a4,a5,-512
	.loc 9 831 255 discriminator 6
	li	a5,100663296
	addi	a5,a5,1536
	beq	a4,a5,.L373
	.loc 9 831 383 discriminator 8
	lw	a5,-56(s0)
	andi	a4,a5,-256
	.loc 9 831 371 discriminator 8
	li	a5,100667392
	addi	a5,a5,-1792
	beq	a4,a5,.L373
	.loc 9 831 499 discriminator 10
	lw	a5,-56(s0)
	andi	a4,a5,-512
	.loc 9 831 453 discriminator 10
	li	a5,100663296
	addi	a5,a5,1024
	bne	a4,a5,.L374
.L373:
	.loc 9 832 20
	lw	a5,-60(s0)
	andi	a4,a5,-256
	.loc 9 831 570 discriminator 11
	li	a5,100663296
	addi	a5,a5,768
	beq	a4,a5,.L375
	.loc 9 832 102
	lw	a5,-60(s0)
	andi	a4,a5,-256
	.loc 9 832 90
	li	a5,100667392
	addi	a5,a5,768
	beq	a4,a5,.L375
	.loc 9 832 185 discriminator 2
	lw	a5,-60(s0)
	andi	a4,a5,-256
	.loc 9 832 173 discriminator 2
	li	a5,100663296
	addi	a5,a5,512
	beq	a4,a5,.L375
	.loc 9 832 301 discriminator 4
	lw	a5,-60(s0)
	andi	a4,a5,-512
	.loc 9 832 255 discriminator 4
	li	a5,100663296
	addi	a5,a5,1536
	beq	a4,a5,.L375
	.loc 9 832 383 discriminator 6
	lw	a5,-60(s0)
	andi	a4,a5,-256
	.loc 9 832 371 discriminator 6
	li	a5,100667392
	addi	a5,a5,-1792
	beq	a4,a5,.L375
	.loc 9 832 499 discriminator 8
	lw	a5,-60(s0)
	andi	a4,a5,-512
	.loc 9 832 453 discriminator 8
	li	a5,100663296
	addi	a5,a5,1024
	bne	a4,a5,.L374
.L375:
	.loc 9 833 50
	lw	a4,-56(s0)
	lw	a5,-60(s0)
	xor	a4,a4,a5
	.loc 9 832 570 discriminator 9
	li	a5,255
	bgtu	a4,a5,.L374
	.loc 9 834 26
	lw	a5,-56(s0)
	andi	a4,a5,-256
	.loc 9 834 12
	li	a5,100663296
	addi	a5,a5,768
	beq	a4,a5,.L376
	.loc 9 834 108 discriminator 2
	lw	a5,-56(s0)
	andi	a4,a5,-256
	.loc 9 834 96 discriminator 2
	li	a5,100667392
	addi	a5,a5,768
	beq	a4,a5,.L376
	.loc 9 834 191 discriminator 4
	lw	a5,-56(s0)
	andi	a4,a5,-256
	.loc 9 834 179 discriminator 4
	li	a5,100663296
	addi	a5,a5,512
	beq	a4,a5,.L376
	.loc 9 834 307 discriminator 6
	lw	a5,-56(s0)
	andi	a4,a5,-512
	.loc 9 834 261 discriminator 6
	li	a5,100663296
	addi	a5,a5,1536
	beq	a4,a5,.L376
	.loc 9 834 389 discriminator 8
	lw	a5,-56(s0)
	andi	a4,a5,-256
	.loc 9 834 377 discriminator 8
	li	a5,100667392
	addi	a5,a5,-1792
	beq	a4,a5,.L376
	.loc 9 834 505 discriminator 10
	lw	a5,-56(s0)
	andi	a4,a5,-512
	.loc 9 834 459 discriminator 10
	li	a5,100663296
	addi	a5,a5,1024
	bne	a4,a5,.L377
.L376:
	.loc 9 834 587 discriminator 11
	lw	a5,-56(s0)
	andi	a5,a5,255
	.loc 9 834 576 discriminator 11
	beq	a5,zero,.L377
	.loc 9 834 637 discriminator 12
	lw	a5,-56(s0)
	andi	a4,a5,255
	.loc 9 834 671 discriminator 12
	li	a5,33554432
	or	a4,a4,a5
	.loc 9 834 709 discriminator 12
	li	a5,33554432
	addi	a5,a5,255
	bne	a4,a5,.L377
	.loc 9 835 20
	lw	a5,-60(s0)
	j	.L372
.L377:
	.loc 9 837 26
	lw	a5,-60(s0)
	andi	a4,a5,-256
	.loc 9 837 12
	li	a5,100663296
	addi	a5,a5,768
	beq	a4,a5,.L378
	.loc 9 837 108 discriminator 2
	lw	a5,-60(s0)
	andi	a4,a5,-256
	.loc 9 837 96 discriminator 2
	li	a5,100667392
	addi	a5,a5,768
	beq	a4,a5,.L378
	.loc 9 837 191 discriminator 4
	lw	a5,-60(s0)
	andi	a4,a5,-256
	.loc 9 837 179 discriminator 4
	li	a5,100663296
	addi	a5,a5,512
	beq	a4,a5,.L378
	.loc 9 837 307 discriminator 6
	lw	a5,-60(s0)
	andi	a4,a5,-512
	.loc 9 837 261 discriminator 6
	li	a5,100663296
	addi	a5,a5,1536
	beq	a4,a5,.L378
	.loc 9 837 389 discriminator 8
	lw	a5,-60(s0)
	andi	a4,a5,-256
	.loc 9 837 377 discriminator 8
	li	a5,100667392
	addi	a5,a5,-1792
	beq	a4,a5,.L378
	.loc 9 837 505 discriminator 10
	lw	a5,-60(s0)
	andi	a4,a5,-512
	.loc 9 837 459 discriminator 10
	li	a5,100663296
	addi	a5,a5,1024
	bne	a4,a5,.L374
.L378:
	.loc 9 837 587 discriminator 11
	lw	a5,-60(s0)
	andi	a5,a5,255
	.loc 9 837 576 discriminator 11
	beq	a5,zero,.L374
	.loc 9 837 637 discriminator 12
	lw	a5,-60(s0)
	andi	a4,a5,255
	.loc 9 837 671 discriminator 12
	li	a5,33554432
	or	a4,a4,a5
	.loc 9 837 709 discriminator 12
	li	a5,33554432
	addi	a5,a5,255
	bne	a4,a5,.L374
	.loc 9 838 20
	lw	a5,-56(s0)
	j	.L372
.L374:
	.loc 9 844 18
	lw	a4,-56(s0)
	li	a5,2130706432
	and	a4,a4,a5
	.loc 9 844 8
	li	a5,83886080
	bne	a4,a5,.L379
	.loc 9 844 99 discriminator 1
	lw	a4,-60(s0)
	li	a5,2130706432
	and	a4,a4,a5
	.loc 9 844 87 discriminator 1
	li	a5,83886080
	bne	a4,a5,.L379
	.loc 9 845 137
	lw	a4,-56(s0)
	lw	a5,-60(s0)
	xor	a4,a4,a5
	li	a5,-4161536
	addi	a5,a5,-1
	and	a5,a4,a5
	.loc 9 844 168 discriminator 2
	bne	a5,zero,.L379
.LBB7:
	.loc 9 847 70
	lw	a5,-56(s0)
	srli	a5,a5,16
	.loc 9 847 16
	andi	a5,a5,63
	sw	a5,-28(s0)
	.loc 9 848 70
	lw	a5,-60(s0)
	srli	a5,a5,16
	.loc 9 848 16
	andi	a5,a5,63
	sw	a5,-32(s0)
	.loc 9 849 16
	lw	a4,-28(s0)
	lw	a5,-32(s0)
	bgeu	a5,a4,.L380
	mv	a5,a4
.L380:
	sw	a5,-36(s0)
	.loc 9 852 20
	lw	a4,-56(s0)
	li	a5,32768
	and	a5,a4,a5
	.loc 9 852 12
	beq	a5,zero,.L381
	.loc 9 853 20
	lw	a4,-60(s0)
	li	a5,32768
	and	a5,a4,a5
	.loc 9 852 60 discriminator 1
	beq	a5,zero,.L381
	.loc 9 854 30
	lw	a4,-56(s0)
	li	a5,-4161536
	addi	a5,a5,-1
	and	a4,a4,a5
	.loc 9 854 120
	lw	a5,-36(s0)
	slli	a3,a5,16
	.loc 9 854 126
	li	a5,4128768
	and	a5,a3,a5
	.loc 9 854 100
	or	a4,a4,a5
	.loc 9 854 161
	li	a5,32768
	or	a5,a4,a5
	j	.L372
.L381:
	.loc 9 858 20
	lw	a4,-56(s0)
	li	a5,32768
	and	a5,a4,a5
	.loc 9 858 12
	beq	a5,zero,.L382
	.loc 9 858 60 discriminator 1
	lw	a4,-28(s0)
	lw	a5,-32(s0)
	bgtu	a4,a5,.L382
	.loc 9 860 20
	lw	a5,-60(s0)
	j	.L372
.L382:
	.loc 9 862 20
	lw	a4,-60(s0)
	li	a5,32768
	and	a5,a4,a5
	.loc 9 862 12
	beq	a5,zero,.L379
	.loc 9 862 60 discriminator 1
	lw	a4,-32(s0)
	lw	a5,-28(s0)
	bgtu	a4,a5,.L379
	.loc 9 864 20
	lw	a5,-56(s0)
	j	.L372
.L379:
.LBE7:
	.loc 9 870 18
	lw	a4,-56(s0)
	li	a5,2130706432
	and	a4,a4,a5
	.loc 9 870 8
	li	a5,50331648
	bne	a4,a5,.L383
	.loc 9 870 99 discriminator 1
	lw	a4,-60(s0)
	li	a5,2130706432
	and	a4,a4,a5
	.loc 9 870 87 discriminator 1
	li	a5,50331648
	bne	a4,a5,.L383
	.loc 9 871 88
	lw	a4,-56(s0)
	lw	a5,-60(s0)
	xor	a4,a4,a5
	li	a5,-4161536
	addi	a5,a5,-1
	and	a5,a4,a5
	.loc 9 870 168 discriminator 2
	bne	a5,zero,.L383
.LBB8:
	.loc 9 875 34
	lhu	a5,-50(s0)
	mv	a1,a5
	lw	a0,-56(s0)
	call	psa_mac_key_can_do
	mv	a5,a0
	.loc 9 875 12 discriminator 1
	beq	a5,zero,.L384
	.loc 9 876 20
	li	a5,0
	j	.L372
.L384:
	.loc 9 887 35
	lw	a4,-56(s0)
	li	a5,4128768
	and	a5,a4,a5
	.loc 9 887 120
	beq	a5,zero,.L385
	.loc 9 887 113 discriminator 1
	lw	a5,-56(s0)
	srli	a5,a5,16
	.loc 9 887 16 discriminator 1
	andi	a5,a5,63
	sw	a5,-20(s0)
	j	.L386
.L385:
	.loc 9 887 131 discriminator 2
	lw	a4,-56(s0)
	li	a5,2143289344
	and	a4,a4,a5
	.loc 9 887 120 discriminator 2
	li	a5,58720256
	bne	a4,a5,.L387
	.loc 9 887 353 discriminator 3
	lw	a5,-56(s0)
	andi	a4,a5,255
	.loc 9 887 271 discriminator 3
	li	a5,33554432
	or	a4,a4,a5
	.loc 9 887 120 discriminator 3
	li	a5,33554432
	addi	a5,a5,3
	beq	a4,a5,.L388
	.loc 9 887 544 discriminator 5
	lw	a5,-56(s0)
	andi	a4,a5,255
	.loc 9 887 462 discriminator 5
	li	a5,33554432
	or	a4,a4,a5
	.loc 9 887 120 discriminator 5
	li	a5,33554432
	addi	a5,a5,4
	beq	a4,a5,.L389
	.loc 9 887 735 discriminator 7
	lw	a5,-56(s0)
	andi	a4,a5,255
	.loc 9 887 653 discriminator 7
	li	a5,33554432
	or	a4,a4,a5
	.loc 9 887 120 discriminator 7
	li	a5,33554432
	addi	a5,a5,5
	beq	a4,a5,.L390
	.loc 9 887 926 discriminator 9
	lw	a5,-56(s0)
	andi	a4,a5,255
	.loc 9 887 844 discriminator 9
	li	a5,33554432
	or	a4,a4,a5
	.loc 9 887 120 discriminator 9
	li	a5,33554432
	addi	a5,a5,8
	beq	a4,a5,.L391
	.loc 9 887 1117 discriminator 11
	lw	a5,-56(s0)
	andi	a4,a5,255
	.loc 9 887 1035 discriminator 11
	li	a5,33554432
	or	a4,a4,a5
	.loc 9 887 120 discriminator 11
	li	a5,33554432
	addi	a5,a5,9
	beq	a4,a5,.L392
	.loc 9 887 1308 discriminator 13
	lw	a5,-56(s0)
	andi	a4,a5,255
	.loc 9 887 1226 discriminator 13
	li	a5,33554432
	or	a4,a4,a5
	.loc 9 887 120 discriminator 13
	li	a5,33554432
	addi	a5,a5,10
	beq	a4,a5,.L393
	.loc 9 887 1499 discriminator 15
	lw	a5,-56(s0)
	andi	a4,a5,255
	.loc 9 887 1417 discriminator 15
	li	a5,33554432
	or	a4,a4,a5
	.loc 9 887 120 discriminator 15
	li	a5,33554432
	addi	a5,a5,11
	beq	a4,a5,.L394
	.loc 9 887 1690 discriminator 17
	lw	a5,-56(s0)
	andi	a4,a5,255
	.loc 9 887 1608 discriminator 17
	li	a5,33554432
	or	a4,a4,a5
	.loc 9 887 120 discriminator 17
	li	a5,33554432
	addi	a5,a5,12
	beq	a4,a5,.L395
	.loc 9 887 1881 discriminator 19
	lw	a5,-56(s0)
	andi	a4,a5,255
	.loc 9 887 1799 discriminator 19
	li	a5,33554432
	or	a4,a4,a5
	.loc 9 887 120 discriminator 19
	li	a5,33554432
	addi	a5,a5,13
	beq	a4,a5,.L396
	.loc 9 887 2072 discriminator 21
	lw	a5,-56(s0)
	andi	a4,a5,255
	.loc 9 887 1990 discriminator 21
	li	a5,33554432
	or	a4,a4,a5
	.loc 9 887 120 discriminator 21
	li	a5,33554432
	addi	a5,a5,16
	beq	a4,a5,.L397
	.loc 9 887 2263 discriminator 23
	lw	a5,-56(s0)
	andi	a4,a5,255
	.loc 9 887 2181 discriminator 23
	li	a5,33554432
	or	a4,a4,a5
	.loc 9 887 120 discriminator 23
	li	a5,33554432
	addi	a5,a5,17
	beq	a4,a5,.L398
	.loc 9 887 2454 discriminator 25
	lw	a5,-56(s0)
	andi	a4,a5,255
	.loc 9 887 2372 discriminator 25
	li	a5,33554432
	or	a4,a4,a5
	.loc 9 887 120 discriminator 25
	li	a5,33554432
	addi	a5,a5,18
	beq	a4,a5,.L399
	.loc 9 887 2645 discriminator 27
	lw	a5,-56(s0)
	andi	a4,a5,255
	.loc 9 887 2563 discriminator 27
	li	a5,33554432
	or	a4,a4,a5
	.loc 9 887 120 discriminator 27
	li	a5,33554432
	addi	a5,a5,19
	bne	a4,a5,.L400
	.loc 9 887 16 discriminator 29
	li	a5,64
	sw	a5,-20(s0)
	j	.L386
.L400:
	.loc 9 887 16 is_stmt 0 discriminator 30
	sw	zero,-20(s0)
	j	.L386
.L399:
	.loc 9 887 16 discriminator 28
	li	a5,48
	sw	a5,-20(s0)
	j	.L386
.L398:
	.loc 9 887 16 discriminator 26
	li	a5,32
	sw	a5,-20(s0)
	j	.L386
.L397:
	.loc 9 887 16 discriminator 24
	li	a5,28
	sw	a5,-20(s0)
	j	.L386
.L396:
	.loc 9 887 16 discriminator 22
	li	a5,32
	sw	a5,-20(s0)
	j	.L386
.L395:
	.loc 9 887 16 discriminator 20
	li	a5,28
	sw	a5,-20(s0)
	j	.L386
.L394:
	.loc 9 887 16 discriminator 18
	li	a5,64
	sw	a5,-20(s0)
	j	.L386
.L393:
	.loc 9 887 16 discriminator 16
	li	a5,48
	sw	a5,-20(s0)
	j	.L386
.L392:
	.loc 9 887 16 discriminator 14
	li	a5,32
	sw	a5,-20(s0)
	j	.L386
.L391:
	.loc 9 887 16 discriminator 12
	li	a5,28
	sw	a5,-20(s0)
	j	.L386
.L390:
	.loc 9 887 16 discriminator 10
	li	a5,20
	sw	a5,-20(s0)
	j	.L386
.L389:
	.loc 9 887 16 discriminator 8
	li	a5,20
	sw	a5,-20(s0)
	j	.L386
.L388:
	.loc 9 887 16 discriminator 6
	li	a5,16
	sw	a5,-20(s0)
	j	.L386
.L387:
	.loc 9 887 2737 is_stmt 1 discriminator 4
	lw	a4,-56(s0)
	li	a5,2143289344
	and	a4,a4,a5
	.loc 9 887 120 discriminator 4
	li	a5,62914560
	bne	a4,a5,.L401
	.loc 9 887 2856 discriminator 31
	lhu	a4,-50(s0)
	li	a5,28672
	and	a4,a4,a5
	.loc 9 887 120 discriminator 31
	li	a5,8192
	bne	a4,a5,.L402
	.loc 9 887 2941 discriminator 33
	lhu	a5,-50(s0)
	srli	a5,a5,8
	slli	a5,a5,16
	srli	a5,a5,16
	andi	a5,a5,7
	.loc 9 887 16 discriminator 33
	li	a4,1
	sll	a5,a4,a5
	sw	a5,-20(s0)
	j	.L386
.L402:
	.loc 9 887 16 is_stmt 0 discriminator 34
	sw	zero,-20(s0)
	j	.L386
.L401:
	.loc 9 887 16 discriminator 32
	sw	zero,-20(s0)
.L386:
	.loc 9 888 35 is_stmt 1
	lw	a4,-60(s0)
	li	a5,4128768
	and	a5,a4,a5
	.loc 9 888 120
	beq	a5,zero,.L403
	.loc 9 888 113 discriminator 1
	lw	a5,-60(s0)
	srli	a5,a5,16
	.loc 9 888 16 discriminator 1
	andi	a5,a5,63
	sw	a5,-24(s0)
	j	.L404
.L403:
	.loc 9 888 131 discriminator 2
	lw	a4,-60(s0)
	li	a5,2143289344
	and	a4,a4,a5
	.loc 9 888 120 discriminator 2
	li	a5,58720256
	bne	a4,a5,.L405
	.loc 9 888 353 discriminator 3
	lw	a5,-60(s0)
	andi	a4,a5,255
	.loc 9 888 271 discriminator 3
	li	a5,33554432
	or	a4,a4,a5
	.loc 9 888 120 discriminator 3
	li	a5,33554432
	addi	a5,a5,3
	beq	a4,a5,.L406
	.loc 9 888 544 discriminator 5
	lw	a5,-60(s0)
	andi	a4,a5,255
	.loc 9 888 462 discriminator 5
	li	a5,33554432
	or	a4,a4,a5
	.loc 9 888 120 discriminator 5
	li	a5,33554432
	addi	a5,a5,4
	beq	a4,a5,.L407
	.loc 9 888 735 discriminator 7
	lw	a5,-60(s0)
	andi	a4,a5,255
	.loc 9 888 653 discriminator 7
	li	a5,33554432
	or	a4,a4,a5
	.loc 9 888 120 discriminator 7
	li	a5,33554432
	addi	a5,a5,5
	beq	a4,a5,.L408
	.loc 9 888 926 discriminator 9
	lw	a5,-60(s0)
	andi	a4,a5,255
	.loc 9 888 844 discriminator 9
	li	a5,33554432
	or	a4,a4,a5
	.loc 9 888 120 discriminator 9
	li	a5,33554432
	addi	a5,a5,8
	beq	a4,a5,.L409
	.loc 9 888 1117 discriminator 11
	lw	a5,-60(s0)
	andi	a4,a5,255
	.loc 9 888 1035 discriminator 11
	li	a5,33554432
	or	a4,a4,a5
	.loc 9 888 120 discriminator 11
	li	a5,33554432
	addi	a5,a5,9
	beq	a4,a5,.L410
	.loc 9 888 1308 discriminator 13
	lw	a5,-60(s0)
	andi	a4,a5,255
	.loc 9 888 1226 discriminator 13
	li	a5,33554432
	or	a4,a4,a5
	.loc 9 888 120 discriminator 13
	li	a5,33554432
	addi	a5,a5,10
	beq	a4,a5,.L411
	.loc 9 888 1499 discriminator 15
	lw	a5,-60(s0)
	andi	a4,a5,255
	.loc 9 888 1417 discriminator 15
	li	a5,33554432
	or	a4,a4,a5
	.loc 9 888 120 discriminator 15
	li	a5,33554432
	addi	a5,a5,11
	beq	a4,a5,.L412
	.loc 9 888 1690 discriminator 17
	lw	a5,-60(s0)
	andi	a4,a5,255
	.loc 9 888 1608 discriminator 17
	li	a5,33554432
	or	a4,a4,a5
	.loc 9 888 120 discriminator 17
	li	a5,33554432
	addi	a5,a5,12
	beq	a4,a5,.L413
	.loc 9 888 1881 discriminator 19
	lw	a5,-60(s0)
	andi	a4,a5,255
	.loc 9 888 1799 discriminator 19
	li	a5,33554432
	or	a4,a4,a5
	.loc 9 888 120 discriminator 19
	li	a5,33554432
	addi	a5,a5,13
	beq	a4,a5,.L414
	.loc 9 888 2072 discriminator 21
	lw	a5,-60(s0)
	andi	a4,a5,255
	.loc 9 888 1990 discriminator 21
	li	a5,33554432
	or	a4,a4,a5
	.loc 9 888 120 discriminator 21
	li	a5,33554432
	addi	a5,a5,16
	beq	a4,a5,.L415
	.loc 9 888 2263 discriminator 23
	lw	a5,-60(s0)
	andi	a4,a5,255
	.loc 9 888 2181 discriminator 23
	li	a5,33554432
	or	a4,a4,a5
	.loc 9 888 120 discriminator 23
	li	a5,33554432
	addi	a5,a5,17
	beq	a4,a5,.L416
	.loc 9 888 2454 discriminator 25
	lw	a5,-60(s0)
	andi	a4,a5,255
	.loc 9 888 2372 discriminator 25
	li	a5,33554432
	or	a4,a4,a5
	.loc 9 888 120 discriminator 25
	li	a5,33554432
	addi	a5,a5,18
	beq	a4,a5,.L417
	.loc 9 888 2645 discriminator 27
	lw	a5,-60(s0)
	andi	a4,a5,255
	.loc 9 888 2563 discriminator 27
	li	a5,33554432
	or	a4,a4,a5
	.loc 9 888 120 discriminator 27
	li	a5,33554432
	addi	a5,a5,19
	bne	a4,a5,.L418
	.loc 9 888 16 discriminator 29
	li	a5,64
	sw	a5,-24(s0)
	j	.L404
.L418:
	.loc 9 888 16 is_stmt 0 discriminator 30
	sw	zero,-24(s0)
	j	.L404
.L417:
	.loc 9 888 16 discriminator 28
	li	a5,48
	sw	a5,-24(s0)
	j	.L404
.L416:
	.loc 9 888 16 discriminator 26
	li	a5,32
	sw	a5,-24(s0)
	j	.L404
.L415:
	.loc 9 888 16 discriminator 24
	li	a5,28
	sw	a5,-24(s0)
	j	.L404
.L414:
	.loc 9 888 16 discriminator 22
	li	a5,32
	sw	a5,-24(s0)
	j	.L404
.L413:
	.loc 9 888 16 discriminator 20
	li	a5,28
	sw	a5,-24(s0)
	j	.L404
.L412:
	.loc 9 888 16 discriminator 18
	li	a5,64
	sw	a5,-24(s0)
	j	.L404
.L411:
	.loc 9 888 16 discriminator 16
	li	a5,48
	sw	a5,-24(s0)
	j	.L404
.L410:
	.loc 9 888 16 discriminator 14
	li	a5,32
	sw	a5,-24(s0)
	j	.L404
.L409:
	.loc 9 888 16 discriminator 12
	li	a5,28
	sw	a5,-24(s0)
	j	.L404
.L408:
	.loc 9 888 16 discriminator 10
	li	a5,20
	sw	a5,-24(s0)
	j	.L404
.L407:
	.loc 9 888 16 discriminator 8
	li	a5,20
	sw	a5,-24(s0)
	j	.L404
.L406:
	.loc 9 888 16 discriminator 6
	li	a5,16
	sw	a5,-24(s0)
	j	.L404
.L405:
	.loc 9 888 2737 is_stmt 1 discriminator 4
	lw	a4,-60(s0)
	li	a5,2143289344
	and	a4,a4,a5
	.loc 9 888 120 discriminator 4
	li	a5,62914560
	bne	a4,a5,.L419
	.loc 9 888 2856 discriminator 31
	lhu	a4,-50(s0)
	li	a5,28672
	and	a4,a4,a5
	.loc 9 888 120 discriminator 31
	li	a5,8192
	bne	a4,a5,.L420
	.loc 9 888 2941 discriminator 33
	lhu	a5,-50(s0)
	srli	a5,a5,8
	slli	a5,a5,16
	srli	a5,a5,16
	andi	a5,a5,7
	.loc 9 888 16 discriminator 33
	li	a4,1
	sll	a5,a4,a5
	sw	a5,-24(s0)
	j	.L404
.L420:
	.loc 9 888 16 is_stmt 0 discriminator 34
	sw	zero,-24(s0)
	j	.L404
.L419:
	.loc 9 888 16 discriminator 32
	sw	zero,-24(s0)
.L404:
	.loc 9 889 16 is_stmt 1
	lw	a4,-20(s0)
	lw	a5,-24(s0)
	bgeu	a5,a4,.L421
	mv	a5,a4
.L421:
	sw	a5,-40(s0)
	.loc 9 892 20
	lw	a4,-56(s0)
	li	a5,32768
	and	a5,a4,a5
	.loc 9 892 12
	beq	a5,zero,.L422
	.loc 9 893 20
	lw	a4,-60(s0)
	li	a5,32768
	and	a5,a4,a5
	.loc 9 892 60 discriminator 1
	beq	a5,zero,.L422
	.loc 9 894 30
	lw	a4,-56(s0)
	li	a5,-4161536
	addi	a5,a5,-1
	and	a4,a4,a5
	.loc 9 894 120
	lw	a5,-40(s0)
	slli	a3,a5,16
	.loc 9 894 126
	li	a5,4128768
	and	a5,a3,a5
	.loc 9 894 100
	or	a4,a4,a5
	.loc 9 894 161
	li	a5,32768
	or	a5,a4,a5
	j	.L372
.L422:
	.loc 9 900 19
	lw	a4,-56(s0)
	li	a5,32768
	and	a5,a4,a5
	.loc 9 900 12
	beq	a5,zero,.L423
	.loc 9 901 50
	lw	a4,-20(s0)
	lw	a5,-24(s0)
	bgtu	a4,a5,.L424
	.loc 9 901 50 is_stmt 0 discriminator 1
	lw	a5,-60(s0)
	.loc 9 901 50
	j	.L372
.L424:
	.loc 9 901 50 discriminator 2
	li	a5,0
	.loc 9 901 50
	j	.L372
.L423:
	.loc 9 903 19 is_stmt 1
	lw	a4,-60(s0)
	li	a5,32768
	and	a5,a4,a5
	.loc 9 903 12
	beq	a5,zero,.L426
	.loc 9 904 50
	lw	a4,-24(s0)
	lw	a5,-20(s0)
	bgtu	a4,a5,.L427
	.loc 9 904 50 is_stmt 0 discriminator 1
	lw	a5,-56(s0)
	.loc 9 904 50
	j	.L372
.L427:
	.loc 9 904 50 discriminator 2
	li	a5,0
	.loc 9 904 50
	j	.L372
.L426:
	.loc 9 911 12 is_stmt 1
	lw	a4,-20(s0)
	lw	a5,-24(s0)
	bne	a4,a5,.L383
	.loc 9 912 29
	lw	a4,-56(s0)
	li	a5,-4161536
	addi	a5,a5,-1
	and	a4,a4,a5
	.loc 9 912 113
	lw	a5,-20(s0)
	slli	a3,a5,16
	.loc 9 912 119
	li	a5,4128768
	and	a5,a3,a5
	.loc 9 912 99
	or	a5,a4,a5
	j	.L372
.L383:
.LBE8:
	.loc 9 916 12
	li	a5,0
.L372:
	.loc 9 917 1
	mv	a0,a5
	lw	ra,60(sp)
	.cfi_restore 1
	lw	s0,56(sp)
	.cfi_restore 8
	.cfi_def_cfa 2, 64
	addi	sp,sp,64
	.cfi_def_cfa_offset 0
	jr	ra
	.cfi_endproc
.LFE181:
	.size	psa_key_policy_algorithm_intersection, .-psa_key_policy_algorithm_intersection
	.section	.text.psa_key_algorithm_permits,"ax",@progbits
	.align	1
	.type	psa_key_algorithm_permits, @function
psa_key_algorithm_permits:
.LFB182:
	.loc 9 922 1
	.cfi_startproc
	addi	sp,sp,-48
	.cfi_def_cfa_offset 48
	sw	ra,44(sp)
	sw	s0,40(sp)
	.cfi_offset 1, -4
	.cfi_offset 8, -8
	addi	s0,sp,48
	.cfi_def_cfa 8, 0
	mv	a5,a0
	sw	a1,-40(s0)
	sw	a2,-44(s0)
	sh	a5,-34(s0)
	.loc 9 924 8
	lw	a4,-44(s0)
	lw	a5,-40(s0)
	bne	a4,a5,.L430
	.loc 9 925 16
	li	a5,1
	j	.L431
.L430:
	.loc 9 930 29
	lw	a5,-44(s0)
	andi	a4,a5,-256
	.loc 9 930 8
	li	a5,100663296
	addi	a5,a5,768
	beq	a4,a5,.L432
	.loc 9 930 120 discriminator 2
	lw	a5,-44(s0)
	andi	a4,a5,-256
	.loc 9 930 99 discriminator 2
	li	a5,100667392
	addi	a5,a5,768
	beq	a4,a5,.L432
	.loc 9 930 212 discriminator 4
	lw	a5,-44(s0)
	andi	a4,a5,-256
	.loc 9 930 191 discriminator 4
	li	a5,100663296
	addi	a5,a5,512
	beq	a4,a5,.L432
	.loc 9 930 337 discriminator 6
	lw	a5,-44(s0)
	andi	a4,a5,-512
	.loc 9 930 282 discriminator 6
	li	a5,100663296
	addi	a5,a5,1536
	beq	a4,a5,.L432
	.loc 9 930 428 discriminator 8
	lw	a5,-44(s0)
	andi	a4,a5,-256
	.loc 9 930 407 discriminator 8
	li	a5,100667392
	addi	a5,a5,-1792
	beq	a4,a5,.L432
	.loc 9 930 553 discriminator 10
	lw	a5,-44(s0)
	andi	a4,a5,-512
	.loc 9 930 498 discriminator 10
	li	a5,100663296
	addi	a5,a5,1024
	bne	a4,a5,.L433
.L432:
	.loc 9 931 28
	lw	a5,-40(s0)
	andi	a4,a5,-256
	.loc 9 930 624 discriminator 11
	li	a5,100663296
	addi	a5,a5,768
	beq	a4,a5,.L434
	.loc 9 931 116
	lw	a5,-40(s0)
	andi	a4,a5,-256
	.loc 9 931 98
	li	a5,100667392
	addi	a5,a5,768
	beq	a4,a5,.L434
	.loc 9 931 205 discriminator 2
	lw	a5,-40(s0)
	andi	a4,a5,-256
	.loc 9 931 187 discriminator 2
	li	a5,100663296
	addi	a5,a5,512
	beq	a4,a5,.L434
	.loc 9 931 327 discriminator 4
	lw	a5,-40(s0)
	andi	a4,a5,-512
	.loc 9 931 275 discriminator 4
	li	a5,100663296
	addi	a5,a5,1536
	beq	a4,a5,.L434
	.loc 9 931 415 discriminator 6
	lw	a5,-40(s0)
	andi	a4,a5,-256
	.loc 9 931 397 discriminator 6
	li	a5,100667392
	addi	a5,a5,-1792
	beq	a4,a5,.L434
	.loc 9 931 537 discriminator 8
	lw	a5,-40(s0)
	andi	a4,a5,-512
	.loc 9 931 485 discriminator 8
	li	a5,100663296
	addi	a5,a5,1024
	bne	a4,a5,.L433
.L434:
	.loc 9 931 625 discriminator 9
	lw	a5,-40(s0)
	andi	a5,a5,255
	.loc 9 931 608 discriminator 9
	beq	a5,zero,.L433
	.loc 9 931 681 discriminator 10
	lw	a5,-40(s0)
	andi	a4,a5,255
	.loc 9 931 715 discriminator 10
	li	a5,33554432
	or	a4,a4,a5
	.loc 9 931 753 discriminator 10
	li	a5,33554432
	addi	a5,a5,255
	bne	a4,a5,.L433
	.loc 9 932 63
	lw	a4,-40(s0)
	lw	a5,-44(s0)
	xor	a5,a4,a5
	sltiu	a5,a5,256
	andi	a5,a5,0xff
	j	.L431
.L433:
	.loc 9 938 24
	lw	a4,-40(s0)
	li	a5,2130706432
	and	a4,a4,a5
	.loc 9 938 8
	li	a5,83886080
	bne	a4,a5,.L435
	.loc 9 939 27
	lw	a4,-44(s0)
	li	a5,2130706432
	and	a4,a4,a5
	.loc 9 938 93 discriminator 1
	li	a5,83886080
	bne	a4,a5,.L435
	.loc 9 940 143
	lw	a4,-40(s0)
	lw	a5,-44(s0)
	xor	a4,a4,a5
	li	a5,-4161536
	addi	a5,a5,-1
	and	a5,a4,a5
	.loc 9 939 96
	bne	a5,zero,.L435
	.loc 9 942 22
	lw	a4,-40(s0)
	li	a5,32768
	and	a5,a4,a5
	.loc 9 941 147
	beq	a5,zero,.L435
	.loc 9 943 65
	lw	a5,-40(s0)
	srli	a5,a5,16
	andi	a4,a5,63
	.loc 9 944 68
	lw	a5,-44(s0)
	srli	a5,a5,16
	andi	a5,a5,63
	.loc 9 943 72
	sgtu	a5,a4,a5
	seqz	a5,a5
	andi	a5,a5,0xff
	j	.L431
.L435:
	.loc 9 948 24
	lw	a4,-40(s0)
	li	a5,2130706432
	and	a4,a4,a5
	.loc 9 948 8
	li	a5,50331648
	bne	a4,a5,.L436
	.loc 9 949 27
	lw	a4,-44(s0)
	li	a5,2130706432
	and	a4,a4,a5
	.loc 9 948 93 discriminator 1
	li	a5,50331648
	bne	a4,a5,.L436
	.loc 9 950 94
	lw	a4,-40(s0)
	lw	a5,-44(s0)
	xor	a4,a4,a5
	li	a5,-4161536
	addi	a5,a5,-1
	and	a5,a4,a5
	.loc 9 949 96
	bne	a5,zero,.L436
.LBB9:
	.loc 9 954 34
	lhu	a5,-34(s0)
	mv	a1,a5
	lw	a0,-40(s0)
	call	psa_mac_key_can_do
	mv	a5,a0
	.loc 9 954 12 discriminator 1
	beq	a5,zero,.L437
	.loc 9 955 20
	li	a5,0
	j	.L431
.L437:
	.loc 9 963 59
	lw	a4,-44(s0)
	li	a5,4128768
	and	a5,a4,a5
	.loc 9 963 153
	beq	a5,zero,.L438
	.loc 9 963 146 discriminator 1
	lw	a5,-44(s0)
	srli	a5,a5,16
	.loc 9 963 16 discriminator 1
	andi	a5,a5,63
	sw	a5,-20(s0)
	j	.L439
.L438:
	.loc 9 963 173 discriminator 2
	lw	a4,-44(s0)
	li	a5,2143289344
	and	a4,a4,a5
	.loc 9 963 153 discriminator 2
	li	a5,58720256
	bne	a4,a5,.L440
	.loc 9 963 404 discriminator 3
	lw	a5,-44(s0)
	andi	a4,a5,255
	.loc 9 963 313 discriminator 3
	li	a5,33554432
	or	a4,a4,a5
	.loc 9 963 153 discriminator 3
	li	a5,33554432
	addi	a5,a5,3
	beq	a4,a5,.L441
	.loc 9 963 604 discriminator 5
	lw	a5,-44(s0)
	andi	a4,a5,255
	.loc 9 963 513 discriminator 5
	li	a5,33554432
	or	a4,a4,a5
	.loc 9 963 153 discriminator 5
	li	a5,33554432
	addi	a5,a5,4
	beq	a4,a5,.L442
	.loc 9 963 804 discriminator 7
	lw	a5,-44(s0)
	andi	a4,a5,255
	.loc 9 963 713 discriminator 7
	li	a5,33554432
	or	a4,a4,a5
	.loc 9 963 153 discriminator 7
	li	a5,33554432
	addi	a5,a5,5
	beq	a4,a5,.L443
	.loc 9 963 1004 discriminator 9
	lw	a5,-44(s0)
	andi	a4,a5,255
	.loc 9 963 913 discriminator 9
	li	a5,33554432
	or	a4,a4,a5
	.loc 9 963 153 discriminator 9
	li	a5,33554432
	addi	a5,a5,8
	beq	a4,a5,.L444
	.loc 9 963 1204 discriminator 11
	lw	a5,-44(s0)
	andi	a4,a5,255
	.loc 9 963 1113 discriminator 11
	li	a5,33554432
	or	a4,a4,a5
	.loc 9 963 153 discriminator 11
	li	a5,33554432
	addi	a5,a5,9
	beq	a4,a5,.L445
	.loc 9 963 1404 discriminator 13
	lw	a5,-44(s0)
	andi	a4,a5,255
	.loc 9 963 1313 discriminator 13
	li	a5,33554432
	or	a4,a4,a5
	.loc 9 963 153 discriminator 13
	li	a5,33554432
	addi	a5,a5,10
	beq	a4,a5,.L446
	.loc 9 963 1604 discriminator 15
	lw	a5,-44(s0)
	andi	a4,a5,255
	.loc 9 963 1513 discriminator 15
	li	a5,33554432
	or	a4,a4,a5
	.loc 9 963 153 discriminator 15
	li	a5,33554432
	addi	a5,a5,11
	beq	a4,a5,.L447
	.loc 9 963 1804 discriminator 17
	lw	a5,-44(s0)
	andi	a4,a5,255
	.loc 9 963 1713 discriminator 17
	li	a5,33554432
	or	a4,a4,a5
	.loc 9 963 153 discriminator 17
	li	a5,33554432
	addi	a5,a5,12
	beq	a4,a5,.L448
	.loc 9 963 2004 discriminator 19
	lw	a5,-44(s0)
	andi	a4,a5,255
	.loc 9 963 1913 discriminator 19
	li	a5,33554432
	or	a4,a4,a5
	.loc 9 963 153 discriminator 19
	li	a5,33554432
	addi	a5,a5,13
	beq	a4,a5,.L449
	.loc 9 963 2204 discriminator 21
	lw	a5,-44(s0)
	andi	a4,a5,255
	.loc 9 963 2113 discriminator 21
	li	a5,33554432
	or	a4,a4,a5
	.loc 9 963 153 discriminator 21
	li	a5,33554432
	addi	a5,a5,16
	beq	a4,a5,.L450
	.loc 9 963 2404 discriminator 23
	lw	a5,-44(s0)
	andi	a4,a5,255
	.loc 9 963 2313 discriminator 23
	li	a5,33554432
	or	a4,a4,a5
	.loc 9 963 153 discriminator 23
	li	a5,33554432
	addi	a5,a5,17
	beq	a4,a5,.L451
	.loc 9 963 2604 discriminator 25
	lw	a5,-44(s0)
	andi	a4,a5,255
	.loc 9 963 2513 discriminator 25
	li	a5,33554432
	or	a4,a4,a5
	.loc 9 963 153 discriminator 25
	li	a5,33554432
	addi	a5,a5,18
	beq	a4,a5,.L452
	.loc 9 963 2804 discriminator 27
	lw	a5,-44(s0)
	andi	a4,a5,255
	.loc 9 963 2713 discriminator 27
	li	a5,33554432
	or	a4,a4,a5
	.loc 9 963 153 discriminator 27
	li	a5,33554432
	addi	a5,a5,19
	bne	a4,a5,.L453
	.loc 9 963 16 discriminator 29
	li	a5,64
	sw	a5,-20(s0)
	j	.L439
.L453:
	.loc 9 963 16 is_stmt 0 discriminator 30
	sw	zero,-20(s0)
	j	.L439
.L452:
	.loc 9 963 16 discriminator 28
	li	a5,48
	sw	a5,-20(s0)
	j	.L439
.L451:
	.loc 9 963 16 discriminator 26
	li	a5,32
	sw	a5,-20(s0)
	j	.L439
.L450:
	.loc 9 963 16 discriminator 24
	li	a5,28
	sw	a5,-20(s0)
	j	.L439
.L449:
	.loc 9 963 16 discriminator 22
	li	a5,32
	sw	a5,-20(s0)
	j	.L439
.L448:
	.loc 9 963 16 discriminator 20
	li	a5,28
	sw	a5,-20(s0)
	j	.L439
.L447:
	.loc 9 963 16 discriminator 18
	li	a5,64
	sw	a5,-20(s0)
	j	.L439
.L446:
	.loc 9 963 16 discriminator 16
	li	a5,48
	sw	a5,-20(s0)
	j	.L439
.L445:
	.loc 9 963 16 discriminator 14
	li	a5,32
	sw	a5,-20(s0)
	j	.L439
.L444:
	.loc 9 963 16 discriminator 12
	li	a5,28
	sw	a5,-20(s0)
	j	.L439
.L443:
	.loc 9 963 16 discriminator 10
	li	a5,20
	sw	a5,-20(s0)
	j	.L439
.L442:
	.loc 9 963 16 discriminator 8
	li	a5,20
	sw	a5,-20(s0)
	j	.L439
.L441:
	.loc 9 963 16 discriminator 6
	li	a5,16
	sw	a5,-20(s0)
	j	.L439
.L440:
	.loc 9 963 2905 is_stmt 1 discriminator 4
	lw	a4,-44(s0)
	li	a5,2143289344
	and	a4,a4,a5
	.loc 9 963 153 discriminator 4
	li	a5,62914560
	bne	a4,a5,.L454
	.loc 9 963 3024 discriminator 31
	lhu	a4,-34(s0)
	li	a5,28672
	and	a4,a4,a5
	.loc 9 963 153 discriminator 31
	li	a5,8192
	bne	a4,a5,.L455
	.loc 9 963 3109 discriminator 33
	lhu	a5,-34(s0)
	srli	a5,a5,8
	slli	a5,a5,16
	srli	a5,a5,16
	andi	a5,a5,7
	.loc 9 963 16 discriminator 33
	li	a4,1
	sll	a5,a4,a5
	sw	a5,-20(s0)
	j	.L439
.L455:
	.loc 9 963 16 is_stmt 0 discriminator 34
	sw	zero,-20(s0)
	j	.L439
.L454:
	.loc 9 963 16 discriminator 32
	sw	zero,-20(s0)
.L439:
	.loc 9 965 390 is_stmt 1
	lw	a4,-44(s0)
	li	a5,2143289344
	and	a4,a4,a5
	.loc 9 965 297
	li	a5,58720256
	bne	a4,a5,.L456
	.loc 9 965 694 discriminator 1
	lw	a5,-44(s0)
	andi	a4,a5,255
	.loc 9 965 530 discriminator 1
	li	a5,33554432
	or	a4,a4,a5
	.loc 9 965 297 discriminator 1
	li	a5,33554432
	addi	a5,a5,3
	beq	a4,a5,.L457
	.loc 9 965 967 discriminator 3
	lw	a5,-44(s0)
	andi	a4,a5,255
	.loc 9 965 803 discriminator 3
	li	a5,33554432
	or	a4,a4,a5
	.loc 9 965 297 discriminator 3
	li	a5,33554432
	addi	a5,a5,4
	beq	a4,a5,.L458
	.loc 9 965 1240 discriminator 5
	lw	a5,-44(s0)
	andi	a4,a5,255
	.loc 9 965 1076 discriminator 5
	li	a5,33554432
	or	a4,a4,a5
	.loc 9 965 297 discriminator 5
	li	a5,33554432
	addi	a5,a5,5
	beq	a4,a5,.L459
	.loc 9 965 1513 discriminator 7
	lw	a5,-44(s0)
	andi	a4,a5,255
	.loc 9 965 1349 discriminator 7
	li	a5,33554432
	or	a4,a4,a5
	.loc 9 965 297 discriminator 7
	li	a5,33554432
	addi	a5,a5,8
	beq	a4,a5,.L460
	.loc 9 965 1786 discriminator 9
	lw	a5,-44(s0)
	andi	a4,a5,255
	.loc 9 965 1622 discriminator 9
	li	a5,33554432
	or	a4,a4,a5
	.loc 9 965 297 discriminator 9
	li	a5,33554432
	addi	a5,a5,9
	beq	a4,a5,.L461
	.loc 9 965 2059 discriminator 11
	lw	a5,-44(s0)
	andi	a4,a5,255
	.loc 9 965 1895 discriminator 11
	li	a5,33554432
	or	a4,a4,a5
	.loc 9 965 297 discriminator 11
	li	a5,33554432
	addi	a5,a5,10
	beq	a4,a5,.L462
	.loc 9 965 2332 discriminator 13
	lw	a5,-44(s0)
	andi	a4,a5,255
	.loc 9 965 2168 discriminator 13
	li	a5,33554432
	or	a4,a4,a5
	.loc 9 965 297 discriminator 13
	li	a5,33554432
	addi	a5,a5,11
	beq	a4,a5,.L463
	.loc 9 965 2605 discriminator 15
	lw	a5,-44(s0)
	andi	a4,a5,255
	.loc 9 965 2441 discriminator 15
	li	a5,33554432
	or	a4,a4,a5
	.loc 9 965 297 discriminator 15
	li	a5,33554432
	addi	a5,a5,12
	beq	a4,a5,.L464
	.loc 9 965 2878 discriminator 17
	lw	a5,-44(s0)
	andi	a4,a5,255
	.loc 9 965 2714 discriminator 17
	li	a5,33554432
	or	a4,a4,a5
	.loc 9 965 297 discriminator 17
	li	a5,33554432
	addi	a5,a5,13
	beq	a4,a5,.L465
	.loc 9 965 3151 discriminator 19
	lw	a5,-44(s0)
	andi	a4,a5,255
	.loc 9 965 2987 discriminator 19
	li	a5,33554432
	or	a4,a4,a5
	.loc 9 965 297 discriminator 19
	li	a5,33554432
	addi	a5,a5,16
	beq	a4,a5,.L466
	.loc 9 965 3424 discriminator 21
	lw	a5,-44(s0)
	andi	a4,a5,255
	.loc 9 965 3260 discriminator 21
	li	a5,33554432
	or	a4,a4,a5
	.loc 9 965 297 discriminator 21
	li	a5,33554432
	addi	a5,a5,17
	beq	a4,a5,.L467
	.loc 9 965 3697 discriminator 23
	lw	a5,-44(s0)
	andi	a4,a5,255
	.loc 9 965 3533 discriminator 23
	li	a5,33554432
	or	a4,a4,a5
	.loc 9 965 297 discriminator 23
	li	a5,33554432
	addi	a5,a5,18
	beq	a4,a5,.L468
	.loc 9 965 3970 discriminator 25
	lw	a5,-44(s0)
	andi	a4,a5,255
	.loc 9 965 3806 discriminator 25
	li	a5,33554432
	or	a4,a4,a5
	.loc 9 965 297 discriminator 25
	li	a5,33554432
	addi	a5,a5,19
	bne	a4,a5,.L469
	.loc 9 965 16 discriminator 27
	li	a5,64
	sw	a5,-24(s0)
	j	.L470
.L469:
	.loc 9 965 16 is_stmt 0 discriminator 28
	sw	zero,-24(s0)
	j	.L470
.L468:
	.loc 9 965 16 discriminator 26
	li	a5,48
	sw	a5,-24(s0)
	j	.L470
.L467:
	.loc 9 965 16 discriminator 24
	li	a5,32
	sw	a5,-24(s0)
	j	.L470
.L466:
	.loc 9 965 16 discriminator 22
	li	a5,28
	sw	a5,-24(s0)
	j	.L470
.L465:
	.loc 9 965 16 discriminator 20
	li	a5,32
	sw	a5,-24(s0)
	j	.L470
.L464:
	.loc 9 965 16 discriminator 18
	li	a5,28
	sw	a5,-24(s0)
	j	.L470
.L463:
	.loc 9 965 16 discriminator 16
	li	a5,64
	sw	a5,-24(s0)
	j	.L470
.L462:
	.loc 9 965 16 discriminator 14
	li	a5,48
	sw	a5,-24(s0)
	j	.L470
.L461:
	.loc 9 965 16 discriminator 12
	li	a5,32
	sw	a5,-24(s0)
	j	.L470
.L460:
	.loc 9 965 16 discriminator 10
	li	a5,28
	sw	a5,-24(s0)
	j	.L470
.L459:
	.loc 9 965 16 discriminator 8
	li	a5,20
	sw	a5,-24(s0)
	j	.L470
.L458:
	.loc 9 965 16 discriminator 6
	li	a5,20
	sw	a5,-24(s0)
	j	.L470
.L457:
	.loc 9 965 16 discriminator 4
	li	a5,16
	sw	a5,-24(s0)
	j	.L470
.L456:
	.loc 9 965 4144 is_stmt 1 discriminator 2
	lw	a4,-44(s0)
	li	a5,2143289344
	and	a4,a4,a5
	.loc 9 965 297 discriminator 2
	li	a5,62914560
	bne	a4,a5,.L471
	.loc 9 965 4263 discriminator 29
	lhu	a4,-34(s0)
	li	a5,28672
	and	a4,a4,a5
	.loc 9 965 297 discriminator 29
	li	a5,8192
	bne	a4,a5,.L472
	.loc 9 965 4348 discriminator 31
	lhu	a5,-34(s0)
	srli	a5,a5,8
	slli	a5,a5,16
	srli	a5,a5,16
	andi	a5,a5,7
	.loc 9 965 16 discriminator 31
	li	a4,1
	sll	a5,a4,a5
	sw	a5,-24(s0)
	j	.L470
.L472:
	.loc 9 965 16 is_stmt 0 discriminator 32
	sw	zero,-24(s0)
	j	.L470
.L471:
	.loc 9 965 16 discriminator 30
	sw	zero,-24(s0)
.L470:
	.loc 9 971 69 is_stmt 1
	lw	a4,-40(s0)
	li	a5,4128768
	and	a5,a4,a5
	.loc 9 971 12
	bne	a5,zero,.L473
	.loc 9 972 44
	lw	a4,-20(s0)
	lw	a5,-24(s0)
	sub	a5,a4,a5
	seqz	a5,a5
	andi	a5,a5,0xff
	j	.L431
.L473:
	.loc 9 977 72
	lw	a4,-44(s0)
	li	a5,4128768
	and	a5,a4,a5
	.loc 9 977 12
	bne	a5,zero,.L474
	.loc 9 978 62
	lw	a5,-40(s0)
	srli	a5,a5,16
	andi	a5,a5,63
	.loc 9 977 77 discriminator 1
	lw	a4,-24(s0)
	bne	a4,a5,.L474
	.loc 9 979 20
	li	a5,1
	j	.L431
.L474:
	.loc 9 985 25
	lw	a4,-40(s0)
	li	a5,32768
	and	a5,a4,a5
	.loc 9 985 12
	beq	a5,zero,.L436
	.loc 9 986 69
	lw	a5,-40(s0)
	srli	a5,a5,16
	andi	a5,a5,63
	.loc 9 986 76
	lw	a4,-20(s0)
	sltu	a5,a4,a5
	seqz	a5,a5
	andi	a5,a5,0xff
	j	.L431
.L436:
.LBE9:
	.loc 9 993 25
	lw	a4,-40(s0)
	li	a5,2130706432
	and	a4,a4,a5
	.loc 9 993 8
	li	a5,150994944
	bne	a4,a5,.L475
	.loc 9 993 180 discriminator 1
	lw	a4,-40(s0)
	li	a5,-167706624
	addi	a5,a5,-1
	and	a5,a4,a5
	.loc 9 993 94 discriminator 1
	bne	a5,zero,.L475
	.loc 9 994 27
	lw	a4,-44(s0)
	li	a5,2130706432
	and	a4,a4,a5
	.loc 9 993 215 discriminator 2
	li	a5,150994944
	bne	a4,a5,.L475
	.loc 9 995 68
	lw	a4,-44(s0)
	li	a5,-151060480
	and	a4,a4,a5
	li	a5,150994944
	or	a5,a4,a5
	.loc 9 995 102
	lw	a4,-40(s0)
	sub	a5,a4,a5
	seqz	a5,a5
	andi	a5,a5,0xff
	j	.L431
.L475:
	.loc 9 999 12
	li	a5,0
.L431:
	.loc 9 1000 1
	mv	a0,a5
	lw	ra,44(sp)
	.cfi_restore 1
	lw	s0,40(sp)
	.cfi_restore 8
	.cfi_def_cfa 2, 48
	addi	sp,sp,48
	.cfi_def_cfa_offset 0
	jr	ra
	.cfi_endproc
.LFE182:
	.size	psa_key_algorithm_permits, .-psa_key_algorithm_permits
	.section	.text.psa_key_policy_permits,"ax",@progbits
	.align	1
	.type	psa_key_policy_permits, @function
psa_key_policy_permits:
.LFB183:
	.loc 9 1020 1
	.cfi_startproc
	addi	sp,sp,-32
	.cfi_def_cfa_offset 32
	sw	ra,28(sp)
	sw	s0,24(sp)
	.cfi_offset 1, -4
	.cfi_offset 8, -8
	addi	s0,sp,32
	.cfi_def_cfa 8, 0
	sw	a0,-20(s0)
	mv	a5,a1
	sw	a2,-28(s0)
	sh	a5,-22(s0)
	.loc 9 1022 8
	lw	a5,-28(s0)
	bne	a5,zero,.L477
	.loc 9 1023 16
	li	a5,-135
	j	.L478
.L477:
	.loc 9 1027 21
	lw	a5,-28(s0)
	andi	a4,a5,-256
	.loc 9 1027 9
	li	a5,100663296
	addi	a5,a5,768
	beq	a4,a5,.L479
	.loc 9 1027 102 discriminator 2
	lw	a5,-28(s0)
	andi	a4,a5,-256
	.loc 9 1027 91 discriminator 2
	li	a5,100667392
	addi	a5,a5,768
	beq	a4,a5,.L479
	.loc 9 1027 184 discriminator 4
	lw	a5,-28(s0)
	andi	a4,a5,-256
	.loc 9 1027 173 discriminator 4
	li	a5,100663296
	addi	a5,a5,512
	beq	a4,a5,.L479
	.loc 9 1027 299 discriminator 6
	lw	a5,-28(s0)
	andi	a4,a5,-512
	.loc 9 1027 254 discriminator 6
	li	a5,100663296
	addi	a5,a5,1536
	beq	a4,a5,.L479
	.loc 9 1027 380 discriminator 8
	lw	a5,-28(s0)
	andi	a4,a5,-256
	.loc 9 1027 369 discriminator 8
	li	a5,100667392
	addi	a5,a5,-1792
	beq	a4,a5,.L479
	.loc 9 1027 495 discriminator 10
	lw	a5,-28(s0)
	andi	a4,a5,-512
	.loc 9 1027 450 discriminator 10
	li	a5,100663296
	addi	a5,a5,1024
	bne	a4,a5,.L480
.L479:
	.loc 9 1027 576 discriminator 11
	lw	a5,-28(s0)
	andi	a5,a5,255
	.loc 9 1027 566 discriminator 11
	beq	a5,zero,.L480
	.loc 9 1027 630 discriminator 13
	lw	a5,-28(s0)
	andi	a4,a5,-256
	.loc 9 1027 1306 discriminator 13
	li	a5,100663296
	addi	a5,a5,768
	beq	a4,a5,.L481
	.loc 9 1027 711 discriminator 16
	lw	a5,-28(s0)
	andi	a4,a5,-256
	.loc 9 1027 700 discriminator 16
	li	a5,100667392
	addi	a5,a5,768
	beq	a4,a5,.L481
	.loc 9 1027 793 discriminator 18
	lw	a5,-28(s0)
	andi	a4,a5,-256
	.loc 9 1027 782 discriminator 18
	li	a5,100663296
	addi	a5,a5,512
	beq	a4,a5,.L481
	.loc 9 1027 908 discriminator 20
	lw	a5,-28(s0)
	andi	a4,a5,-512
	.loc 9 1027 863 discriminator 20
	li	a5,100663296
	addi	a5,a5,1536
	beq	a4,a5,.L481
	.loc 9 1027 989 discriminator 22
	lw	a5,-28(s0)
	andi	a4,a5,-256
	.loc 9 1027 978 discriminator 22
	li	a5,100667392
	addi	a5,a5,-1792
	beq	a4,a5,.L481
	.loc 9 1027 1104 discriminator 24
	lw	a5,-28(s0)
	andi	a4,a5,-512
	.loc 9 1027 1059 discriminator 24
	li	a5,100663296
	addi	a5,a5,1024
	bne	a4,a5,.L482
.L481:
	.loc 9 1027 1185 discriminator 25
	lw	a5,-28(s0)
	andi	a5,a5,255
	.loc 9 1027 1175 discriminator 25
	beq	a5,zero,.L482
	.loc 9 1027 1234 discriminator 27
	lw	a5,-28(s0)
	andi	a4,a5,255
	.loc 9 1027 1268 discriminator 27
	li	a5,33554432
	or	a4,a4,a5
	.loc 9 1027 1306 discriminator 27
	li	a5,33554432
	addi	a5,a5,255
	bne	a4,a5,.L482
	.loc 9 1027 1306 is_stmt 0 discriminator 29
	li	a5,1
	.loc 9 1027 1306
	j	.L483
.L482:
	.loc 9 1027 1306 discriminator 30
	li	a5,0
.L483:
	.loc 9 1027 9 is_stmt 1 discriminator 32
	andi	a5,a5,1
	andi	a5,a5,0xff
	.loc 9 1027 9 is_stmt 0
	j	.L484
.L480:
	.loc 9 1027 1350 is_stmt 1 discriminator 14
	lw	a4,-28(s0)
	li	a5,2130706432
	and	a4,a4,a5
	.loc 9 1027 9 discriminator 14
	li	a5,50331648
	bne	a4,a5,.L485
	.loc 9 1027 1426 discriminator 34
	lw	a4,-28(s0)
	li	a5,32768
	and	a5,a4,a5
	.loc 9 1027 9 discriminator 34
	srli	a5,a5,15
	andi	a5,a5,1
	andi	a5,a5,0xff
	j	.L484
.L485:
	.loc 9 1027 1475 discriminator 35
	lw	a4,-28(s0)
	li	a5,2130706432
	and	a4,a4,a5
	.loc 9 1027 9 discriminator 35
	li	a5,83886080
	bne	a4,a5,.L486
	.loc 9 1027 1551 discriminator 37
	lw	a4,-28(s0)
	li	a5,32768
	and	a5,a4,a5
	.loc 9 1027 9 discriminator 37
	srli	a5,a5,15
	andi	a5,a5,1
	andi	a5,a5,0xff
	j	.L484
.L486:
	.loc 9 1027 9 is_stmt 0 discriminator 38
	lw	a4,-28(s0)
	li	a5,-33554432
	addi	a5,a5,-255
	add	a5,a4,a5
	seqz	a5,a5
	andi	a5,a5,0xff
.L484:
	.loc 9 1027 8 is_stmt 1 discriminator 40
	beq	a5,zero,.L487
	.loc 9 1028 16
	li	a5,-135
	j	.L478
.L487:
	.loc 9 1031 51
	lw	a5,-20(s0)
	lw	a4,4(a5)
	.loc 9 1031 9
	lhu	a5,-22(s0)
	lw	a2,-28(s0)
	mv	a1,a4
	mv	a0,a5
	call	psa_key_algorithm_permits
	mv	a5,a0
	.loc 9 1031 8 discriminator 1
	bne	a5,zero,.L488
	.loc 9 1032 51
	lw	a5,-20(s0)
	lw	a4,8(a5)
	.loc 9 1032 9
	lhu	a5,-22(s0)
	lw	a2,-28(s0)
	mv	a1,a4
	mv	a0,a5
	call	psa_key_algorithm_permits
	mv	a5,a0
	.loc 9 1031 63 discriminator 2
	beq	a5,zero,.L489
.L488:
	.loc 9 1033 16
	li	a5,0
	j	.L478
.L489:
	.loc 9 1035 16
	li	a5,-133
.L478:
	.loc 9 1037 1
	mv	a0,a5
	lw	ra,28(sp)
	.cfi_restore 1
	lw	s0,24(sp)
	.cfi_restore 8
	.cfi_def_cfa 2, 32
	addi	sp,sp,32
	.cfi_def_cfa_offset 0
	jr	ra
	.cfi_endproc
.LFE183:
	.size	psa_key_policy_permits, .-psa_key_policy_permits
	.section	.text.psa_restrict_key_policy,"ax",@progbits
	.align	1
	.type	psa_restrict_key_policy, @function
psa_restrict_key_policy:
.LFB184:
	.loc 9 1061 1
	.cfi_startproc
	addi	sp,sp,-48
	.cfi_def_cfa_offset 48
	sw	ra,44(sp)
	sw	s0,40(sp)
	.cfi_offset 1, -4
	.cfi_offset 8, -8
	addi	s0,sp,48
	.cfi_def_cfa 8, 0
	mv	a5,a0
	sw	a1,-40(s0)
	sw	a2,-44(s0)
	sh	a5,-34(s0)
	.loc 9 1063 9
	lw	a5,-40(s0)
	lw	a4,4(a5)
	.loc 9 1064 57
	lw	a5,-44(s0)
	lw	a3,4(a5)
	.loc 9 1063 9
	lhu	a5,-34(s0)
	mv	a2,a3
	mv	a1,a4
	mv	a0,a5
	call	psa_key_policy_algorithm_intersection
	sw	a0,-20(s0)
	.loc 9 1066 9
	lw	a5,-40(s0)
	lw	a4,8(a5)
	.loc 9 1067 57
	lw	a5,-44(s0)
	lw	a3,8(a5)
	.loc 9 1066 9
	lhu	a5,-34(s0)
	mv	a2,a3
	mv	a1,a4
	mv	a0,a5
	call	psa_key_policy_algorithm_intersection
	sw	a0,-24(s0)
	.loc 9 1068 8
	lw	a5,-20(s0)
	bne	a5,zero,.L491
	.loc 9 1068 40 discriminator 1
	lw	a5,-40(s0)
	lw	a5,4(a5)
	.loc 9 1068 31 discriminator 1
	beq	a5,zero,.L491
	.loc 9 1068 64 discriminator 2
	lw	a5,-44(s0)
	lw	a5,4(a5)
	.loc 9 1068 51 discriminator 2
	beq	a5,zero,.L491
	.loc 9 1069 16
	li	a5,-135
	j	.L492
.L491:
	.loc 9 1071 8
	lw	a5,-24(s0)
	bne	a5,zero,.L493
	.loc 9 1071 41 discriminator 1
	lw	a5,-40(s0)
	lw	a5,8(a5)
	.loc 9 1071 32 discriminator 1
	beq	a5,zero,.L493
	.loc 9 1071 66 discriminator 2
	lw	a5,-44(s0)
	lw	a5,8(a5)
	.loc 9 1071 53 discriminator 2
	beq	a5,zero,.L493
	.loc 9 1072 16
	li	a5,-135
	j	.L492
.L493:
	.loc 9 1074 11
	lw	a5,-40(s0)
	lw	a4,0(a5)
	.loc 9 1074 32
	lw	a5,-44(s0)
	lw	a5,0(a5)
	.loc 9 1074 19
	and	a4,a4,a5
	lw	a5,-40(s0)
	sw	a4,0(a5)
	.loc 9 1075 17
	lw	a5,-40(s0)
	lw	a4,-20(s0)
	sw	a4,4(a5)
	.loc 9 1076 18
	lw	a5,-40(s0)
	lw	a4,-24(s0)
	sw	a4,8(a5)
	.loc 9 1077 12
	li	a5,0
.L492:
	.loc 9 1078 1
	mv	a0,a5
	lw	ra,44(sp)
	.cfi_restore 1
	lw	s0,40(sp)
	.cfi_restore 8
	.cfi_def_cfa 2, 48
	addi	sp,sp,48
	.cfi_def_cfa_offset 0
	jr	ra
	.cfi_endproc
.LFE184:
	.size	psa_restrict_key_policy, .-psa_restrict_key_policy
	.section	.text.psa_get_and_lock_key_slot_with_policy,"ax",@progbits
	.align	1
	.type	psa_get_and_lock_key_slot_with_policy, @function
psa_get_and_lock_key_slot_with_policy:
.LFB185:
	.loc 9 1104 1
	.cfi_startproc
	addi	sp,sp,-48
	.cfi_def_cfa_offset 48
	sw	ra,44(sp)
	sw	s0,40(sp)
	.cfi_offset 1, -4
	.cfi_offset 8, -8
	addi	s0,sp,48
	.cfi_def_cfa 8, 0
	sw	a0,-36(s0)
	sw	a1,-40(s0)
	sw	a2,-44(s0)
	sw	a3,-48(s0)
	.loc 9 1105 18
	li	a5,-151
	sw	a5,-20(s0)
	.loc 9 1106 21
	sw	zero,-24(s0)
	.loc 9 1108 14
	lw	a1,-40(s0)
	lw	a0,-36(s0)
	call	psa_get_and_lock_key_slot
	sw	a0,-20(s0)
	.loc 9 1109 8
	lw	a5,-20(s0)
	beq	a5,zero,.L495
	.loc 9 1110 16
	lw	a5,-20(s0)
	j	.L496
.L495:
	.loc 9 1112 10
	lw	a5,-40(s0)
	lw	a5,0(a5)
	sw	a5,-24(s0)
	.loc 9 1118 22
	lw	a5,-24(s0)
	lhu	a5,0(a5)
	.loc 9 1118 29
	mv	a4,a5
	li	a5,28672
	and	a4,a4,a5
	.loc 9 1118 8
	li	a5,16384
	bne	a4,a5,.L497
	.loc 9 1119 15
	lw	a5,-44(s0)
	andi	a5,a5,-2
	sw	a5,-44(s0)
.L497:
	.loc 9 1122 27
	lw	a5,-24(s0)
	lw	a4,8(a5)
	.loc 9 1122 34
	lw	a5,-44(s0)
	and	a5,a4,a5
	.loc 9 1122 8
	lw	a4,-44(s0)
	beq	a4,a5,.L498
	.loc 9 1123 16
	li	a5,-133
	sw	a5,-20(s0)
	.loc 9 1124 9
	j	.L499
.L498:
	.loc 9 1128 8
	lw	a5,-48(s0)
	beq	a5,zero,.L500
	.loc 9 1129 41
	lw	a5,-24(s0)
	addi	a4,a5,8
	.loc 9 1129 18
	lw	a5,-24(s0)
	lhu	a5,0(a5)
	lw	a2,-48(s0)
	mv	a1,a5
	mv	a0,a4
	call	psa_key_policy_permits
	sw	a0,-20(s0)
	.loc 9 1132 12
	lw	a5,-20(s0)
	bne	a5,zero,.L501
.L500:
	.loc 9 1137 12
	li	a5,0
	j	.L496
.L501:
	.loc 9 1133 13
	nop
.L499:
	.loc 9 1140 13
	lw	a5,-40(s0)
	sw	zero,0(a5)
	.loc 9 1141 5
	lw	a0,-24(s0)
	call	psa_unregister_read_under_mutex
	.loc 9 1143 12
	lw	a5,-20(s0)
.L496:
	.loc 9 1144 1
	mv	a0,a5
	lw	ra,44(sp)
	.cfi_restore 1
	lw	s0,40(sp)
	.cfi_restore 8
	.cfi_def_cfa 2, 48
	addi	sp,sp,48
	.cfi_def_cfa_offset 0
	jr	ra
	.cfi_endproc
.LFE185:
	.size	psa_get_and_lock_key_slot_with_policy, .-psa_get_and_lock_key_slot_with_policy
	.section	.text.psa_get_and_lock_transparent_key_slot_with_policy,"ax",@progbits
	.align	1
	.type	psa_get_and_lock_transparent_key_slot_with_policy, @function
psa_get_and_lock_transparent_key_slot_with_policy:
.LFB186:
	.loc 9 1170 1
	.cfi_startproc
	addi	sp,sp,-48
	.cfi_def_cfa_offset 48
	sw	ra,44(sp)
	sw	s0,40(sp)
	.cfi_offset 1, -4
	.cfi_offset 8, -8
	addi	s0,sp,48
	.cfi_def_cfa 8, 0
	sw	a0,-36(s0)
	sw	a1,-40(s0)
	sw	a2,-44(s0)
	sw	a3,-48(s0)
	.loc 9 1171 27
	lw	a3,-48(s0)
	lw	a2,-44(s0)
	lw	a1,-40(s0)
	lw	a0,-36(s0)
	call	psa_get_and_lock_key_slot_with_policy
	sw	a0,-20(s0)
	.loc 9 1173 8
	lw	a5,-20(s0)
	beq	a5,zero,.L503
	.loc 9 1174 16
	lw	a5,-20(s0)
	j	.L504
.L503:
	.loc 9 1177 39
	lw	a5,-40(s0)
	lw	a5,0(a5)
	.loc 9 1177 9
	lw	a5,4(a5)
	mv	a0,a5
	call	psa_key_lifetime_is_external
	mv	a5,a0
	.loc 9 1177 8 discriminator 1
	beq	a5,zero,.L505
	.loc 9 1178 9
	lw	a5,-40(s0)
	lw	a5,0(a5)
	mv	a0,a5
	call	psa_unregister_read_under_mutex
	.loc 9 1179 17
	lw	a5,-40(s0)
	sw	zero,0(a5)
	.loc 9 1180 16
	li	a5,-134
	j	.L504
.L505:
	.loc 9 1183 12
	li	a5,0
.L504:
	.loc 9 1184 1
	mv	a0,a5
	lw	ra,44(sp)
	.cfi_restore 1
	lw	s0,40(sp)
	.cfi_restore 8
	.cfi_def_cfa 2, 48
	addi	sp,sp,48
	.cfi_def_cfa_offset 0
	jr	ra
	.cfi_endproc
.LFE186:
	.size	psa_get_and_lock_transparent_key_slot_with_policy, .-psa_get_and_lock_transparent_key_slot_with_policy
	.section	.text.psa_remove_key_data_from_memory,"ax",@progbits
	.align	1
	.globl	psa_remove_key_data_from_memory
	.type	psa_remove_key_data_from_memory, @function
psa_remove_key_data_from_memory:
.LFB187:
	.loc 9 1187 1
	.cfi_startproc
	addi	sp,sp,-32
	.cfi_def_cfa_offset 32
	sw	ra,28(sp)
	sw	s0,24(sp)
	.cfi_offset 1, -4
	.cfi_offset 8, -8
	addi	s0,sp,32
	.cfi_def_cfa 8, 0
	sw	a0,-20(s0)
	.loc 9 1193 18
	lw	a5,-20(s0)
	lw	a5,32(a5)
	.loc 9 1193 8
	beq	a5,zero,.L507
	.loc 9 1194 43
	lw	a5,-20(s0)
	lw	a4,32(a5)
	.loc 9 1194 9
	lw	a5,-20(s0)
	lw	a5,36(a5)
	mv	a1,a5
	mv	a0,a4
	call	mbedtls_zeroize_and_free
.L507:
	.loc 9 1197 20
	lw	a5,-20(s0)
	sw	zero,32(a5)
	.loc 9 1200 21
	lw	a5,-20(s0)
	sw	zero,36(a5)
	.loc 9 1202 12
	li	a5,0
	.loc 9 1203 1
	mv	a0,a5
	lw	ra,28(sp)
	.cfi_restore 1
	lw	s0,24(sp)
	.cfi_restore 8
	.cfi_def_cfa 2, 32
	addi	sp,sp,32
	.cfi_def_cfa_offset 0
	jr	ra
	.cfi_endproc
.LFE187:
	.size	psa_remove_key_data_from_memory, .-psa_remove_key_data_from_memory
	.section	.text.psa_wipe_key_slot,"ax",@progbits
	.align	1
	.globl	psa_wipe_key_slot
	.type	psa_wipe_key_slot, @function
psa_wipe_key_slot:
.LFB188:
	.loc 9 1208 1
	.cfi_startproc
	addi	sp,sp,-48
	.cfi_def_cfa_offset 48
	sw	ra,44(sp)
	sw	s0,40(sp)
	.cfi_offset 1, -4
	.cfi_offset 8, -8
	addi	s0,sp,48
	.cfi_def_cfa 8, 0
	sw	a0,-36(s0)
	.loc 9 1209 27
	lw	a0,-36(s0)
	call	psa_remove_key_data_from_memory
	sw	a0,-20(s0)
	.loc 9 1221 17
	lw	a5,-36(s0)
	lbu	a5,24(a5)
	.loc 9 1221 5
	li	a4,3
	bgt	a5,a4,.L510
	li	a4,2
	bge	a5,a4,.L511
	beq	a5,zero,.L512
	li	a4,1
	beq	a5,a4,.L513
	j	.L510
.L511:
	.loc 9 1228 35
	lw	a5,-36(s0)
	lw	a4,28(a5)
	.loc 9 1228 16
	li	a5,1
	beq	a4,a5,.L518
	.loc 9 1230 24
	li	a5,-151
	sw	a5,-20(s0)
	.loc 9 1232 13
	j	.L518
.L513:
	.loc 9 1235 35
	lw	a5,-36(s0)
	lw	a5,28(a5)
	.loc 9 1235 16
	beq	a5,zero,.L519
	.loc 9 1237 24
	li	a5,-151
	sw	a5,-20(s0)
	.loc 9 1239 13
	j	.L519
.L512:
	.loc 9 1243 20
	li	a5,-151
	sw	a5,-20(s0)
	.loc 9 1244 13
	j	.L515
.L510:
	.loc 9 1247 20
	li	a5,-151
	sw	a5,-20(s0)
	j	.L515
.L518:
	.loc 9 1232 13
	nop
	j	.L515
.L519:
	.loc 9 1239 13
	nop
.L515:
	.loc 9 1264 5
	li	a2,40
	li	a1,0
	lw	a0,-36(s0)
	call	memset
	.loc 9 1276 12
	lw	a5,-20(s0)
	.loc 9 1277 1
	mv	a0,a5
	lw	ra,44(sp)
	.cfi_restore 1
	lw	s0,40(sp)
	.cfi_restore 8
	.cfi_def_cfa 2, 48
	addi	sp,sp,48
	.cfi_def_cfa_offset 0
	jr	ra
	.cfi_endproc
.LFE188:
	.size	psa_wipe_key_slot, .-psa_wipe_key_slot
	.section	.text.psa_destroy_key,"ax",@progbits
	.align	1
	.globl	psa_destroy_key
	.type	psa_destroy_key, @function
psa_destroy_key:
.LFB189:
	.loc 9 1280 1
	.cfi_startproc
	addi	sp,sp,-48
	.cfi_def_cfa_offset 48
	sw	ra,44(sp)
	sw	s0,40(sp)
	.cfi_offset 1, -4
	.cfi_offset 8, -8
	addi	s0,sp,48
	.cfi_def_cfa 8, 0
	sw	a0,-36(s0)
	.loc 9 1283 18
	sw	zero,-20(s0)
	.loc 9 1288 9
	lw	a0,-36(s0)
	call	mbedtls_svc_key_id_is_null
	mv	a5,a0
	.loc 9 1288 8 discriminator 1
	beq	a5,zero,.L521
	.loc 9 1289 16
	li	a5,0
	j	.L527
.L521:
	.loc 9 1299 14
	addi	a5,s0,-28
	mv	a1,a5
	lw	a0,-36(s0)
	call	psa_get_and_lock_key_slot
	sw	a0,-24(s0)
	.loc 9 1300 8
	lw	a5,-24(s0)
	beq	a5,zero,.L523
	.loc 9 1301 16
	lw	a5,-24(s0)
	j	.L527
.L523:
	.loc 9 1331 22
	lw	a5,-28(s0)
	li	a2,3
	li	a1,2
	mv	a0,a5
	call	psa_key_slot_state_transition
	sw	a0,-20(s0)
	.loc 9 1334 8
	lw	a5,-20(s0)
	bne	a5,zero,.L528
	.loc 9 1338 41
	lw	a5,-28(s0)
	.loc 9 1338 47
	lw	a5,4(a5)
	.loc 9 1338 11
	andi	a4,a5,0xff
	.loc 9 1338 8
	li	a5,255
	bne	a4,a5,.L529
	.loc 9 1344 24
	li	a5,-133
	sw	a5,-20(s0)
	.loc 9 1345 9
	j	.L525
.L528:
	.loc 9 1335 9
	nop
	j	.L525
.L529:
	.loc 9 1407 1
	nop
.L525:
	.loc 9 1410 14
	lw	a5,-28(s0)
	mv	a0,a5
	call	psa_unregister_read
	sw	a0,-24(s0)
	.loc 9 1413 8
	lw	a5,-24(s0)
	beq	a5,zero,.L526
	.loc 9 1414 24
	lw	a5,-24(s0)
	sw	a5,-20(s0)
.L526:
	.loc 9 1424 12
	lw	a5,-20(s0)
.L527:
	.loc 9 1425 1
	mv	a0,a5
	lw	ra,44(sp)
	.cfi_restore 1
	lw	s0,40(sp)
	.cfi_restore 8
	.cfi_def_cfa 2, 48
	addi	sp,sp,48
	.cfi_def_cfa_offset 0
	jr	ra
	.cfi_endproc
.LFE189:
	.size	psa_destroy_key, .-psa_destroy_key
	.section	.text.psa_get_key_attributes,"ax",@progbits
	.align	1
	.globl	psa_get_key_attributes
	.type	psa_get_key_attributes, @function
psa_get_key_attributes:
.LFB190:
	.loc 9 1431 1
	.cfi_startproc
	addi	sp,sp,-48
	.cfi_def_cfa_offset 48
	sw	ra,44(sp)
	sw	s0,40(sp)
	.cfi_offset 1, -4
	.cfi_offset 8, -8
	addi	s0,sp,48
	.cfi_def_cfa 8, 0
	sw	a0,-36(s0)
	sw	a1,-40(s0)
	.loc 9 1432 18
	li	a5,-151
	sw	a5,-20(s0)
	.loc 9 1435 5
	lw	a0,-40(s0)
	call	psa_reset_key_attributes
	.loc 9 1437 14
	addi	a5,s0,-24
	li	a3,0
	li	a2,0
	mv	a1,a5
	lw	a0,-36(s0)
	call	psa_get_and_lock_key_slot_with_policy
	sw	a0,-20(s0)
	.loc 9 1438 8
	lw	a5,-20(s0)
	beq	a5,zero,.L531
	.loc 9 1439 16
	lw	a5,-20(s0)
	j	.L533
.L531:
	.loc 9 1442 23
	lw	a4,-24(s0)
	.loc 9 1442 17
	lw	a5,-40(s0)
	lw	a6,0(a4)
	lw	a0,4(a4)
	lw	a1,8(a4)
	lw	a2,12(a4)
	lw	a3,16(a4)
	sw	a6,0(a5)
	sw	a0,4(a5)
	sw	a1,8(a5)
	sw	a2,12(a5)
	sw	a3,16(a5)
	lw	a4,20(a4)
	sw	a4,20(a5)
	.loc 9 1451 12
	lw	a5,-24(s0)
	mv	a0,a5
	call	psa_unregister_read_under_mutex
	mv	a5,a0
.L533:
	.loc 9 1452 1
	mv	a0,a5
	lw	ra,44(sp)
	.cfi_restore 1
	lw	s0,40(sp)
	.cfi_restore 8
	.cfi_def_cfa 2, 48
	addi	sp,sp,48
	.cfi_def_cfa_offset 0
	jr	ra
	.cfi_endproc
.LFE190:
	.size	psa_get_key_attributes, .-psa_get_key_attributes
	.section	.text.psa_export_key_buffer_internal,"ax",@progbits
	.align	1
	.type	psa_export_key_buffer_internal, @function
psa_export_key_buffer_internal:
.LFB191:
	.loc 9 1473 1
	.cfi_startproc
	addi	sp,sp,-48
	.cfi_def_cfa_offset 48
	sw	ra,44(sp)
	sw	s0,40(sp)
	.cfi_offset 1, -4
	.cfi_offset 8, -8
	addi	s0,sp,48
	.cfi_def_cfa 8, 0
	sw	a0,-20(s0)
	sw	a1,-24(s0)
	sw	a2,-28(s0)
	sw	a3,-32(s0)
	sw	a4,-36(s0)
	.loc 9 1474 8
	lw	a4,-24(s0)
	lw	a5,-32(s0)
	bleu	a4,a5,.L535
	.loc 9 1475 16
	li	a5,-138
	j	.L536
.L535:
	.loc 9 1477 5
	lw	a2,-24(s0)
	lw	a1,-20(s0)
	lw	a0,-28(s0)
	call	memcpy
	.loc 9 1478 17
	lw	a4,-28(s0)
	lw	a5,-24(s0)
	add	a3,a4,a5
	.loc 9 1478 5
	lw	a4,-32(s0)
	lw	a5,-24(s0)
	sub	a5,a4,a5
	mv	a2,a5
	li	a1,0
	mv	a0,a3
	call	memset
	.loc 9 1480 18
	lw	a5,-36(s0)
	lw	a4,-24(s0)
	sw	a4,0(a5)
	.loc 9 1481 12
	li	a5,0
.L536:
	.loc 9 1482 1
	mv	a0,a5
	lw	ra,44(sp)
	.cfi_restore 1
	lw	s0,40(sp)
	.cfi_restore 8
	.cfi_def_cfa 2, 48
	addi	sp,sp,48
	.cfi_def_cfa_offset 0
	jr	ra
	.cfi_endproc
.LFE191:
	.size	psa_export_key_buffer_internal, .-psa_export_key_buffer_internal
	.section	.text.psa_export_key_internal,"ax",@progbits
	.align	1
	.globl	psa_export_key_internal
	.type	psa_export_key_internal, @function
psa_export_key_internal:
.LFB192:
	.loc 9 1488 1
	.cfi_startproc
	addi	sp,sp,-64
	.cfi_def_cfa_offset 64
	sw	ra,60(sp)
	sw	s0,56(sp)
	.cfi_offset 1, -4
	.cfi_offset 8, -8
	addi	s0,sp,64
	.cfi_def_cfa 8, 0
	sw	a0,-36(s0)
	sw	a1,-40(s0)
	sw	a2,-44(s0)
	sw	a3,-48(s0)
	sw	a4,-52(s0)
	sw	a5,-56(s0)
	.loc 9 1489 20
	lw	a5,-36(s0)
	lhu	a5,0(a5)
	sh	a5,-18(s0)
	.loc 9 1491 9
	lhu	a5,-18(s0)
	mv	a0,a5
	call	key_type_is_raw_bytes
	mv	a5,a0
	.loc 9 1491 8 discriminator 1
	bne	a5,zero,.L538
	.loc 9 1492 18
	lhu	a4,-18(s0)
	li	a5,-12288
	addi	a5,a5,-1
	and	a4,a4,a5
	.loc 9 1491 37 discriminator 2
	li	a5,16384
	addi	a5,a5,1
	beq	a4,a5,.L538
	.loc 9 1493 49
	lhu	a4,-18(s0)
	li	a5,-12288
	addi	a5,a5,-256
	and	a4,a4,a5
	.loc 9 1492 78
	li	a5,16384
	addi	a5,a5,256
	beq	a4,a5,.L538
	.loc 9 1494 49
	lhu	a4,-18(s0)
	li	a5,-12288
	addi	a5,a5,-256
	and	a4,a4,a5
	.loc 9 1493 109
	li	a5,16384
	addi	a5,a5,512
	bne	a4,a5,.L539
.L538:
	.loc 9 1495 16
	lw	a4,-56(s0)
	lw	a3,-52(s0)
	lw	a2,-48(s0)
	lw	a1,-44(s0)
	lw	a0,-40(s0)
	call	psa_export_key_buffer_internal
	mv	a5,a0
	j	.L540
.L539:
	.loc 9 1502 16
	li	a5,-134
.L540:
	.loc 9 1504 1
	mv	a0,a5
	lw	ra,60(sp)
	.cfi_restore 1
	lw	s0,56(sp)
	.cfi_restore 8
	.cfi_def_cfa 2, 64
	addi	sp,sp,64
	.cfi_def_cfa_offset 0
	jr	ra
	.cfi_endproc
.LFE192:
	.size	psa_export_key_internal, .-psa_export_key_internal
	.section	.text.psa_export_key,"ax",@progbits
	.align	1
	.globl	psa_export_key
	.type	psa_export_key, @function
psa_export_key:
.LFB193:
	.loc 9 1510 1
	.cfi_startproc
	addi	sp,sp,-80
	.cfi_def_cfa_offset 80
	sw	ra,76(sp)
	sw	s0,72(sp)
	.cfi_offset 1, -4
	.cfi_offset 8, -8
	addi	s0,sp,80
	.cfi_def_cfa 8, 0
	sw	a0,-68(s0)
	sw	a1,-72(s0)
	sw	a2,-76(s0)
	sw	a3,-80(s0)
	.loc 9 1511 18
	li	a5,-151
	sw	a5,-20(s0)
	.loc 9 1512 18
	li	a5,-151
	sw	a5,-24(s0)
	.loc 9 1514 31
	sw	zero,-48(s0)
	sw	zero,-44(s0)
	sw	zero,-40(s0)
	.loc 9 1514 21
	sw	zero,-28(s0)
	.loc 9 1519 8
	lw	a5,-76(s0)
	bne	a5,zero,.L542
	.loc 9 1520 16
	li	a5,-138
	j	.L550
.L542:
	.loc 9 1527 18
	lw	a5,-80(s0)
	sw	zero,0(a5)
	.loc 9 1533 14
	addi	a5,s0,-36
	li	a3,0
	li	a2,1
	mv	a1,a5
	lw	a0,-68(s0)
	call	psa_get_and_lock_key_slot_with_policy
	sw	a0,-20(s0)
	.loc 9 1535 8
	lw	a5,-20(s0)
	beq	a5,zero,.L544
	.loc 9 1536 16
	lw	a5,-20(s0)
	j	.L550
.L544:
	.loc 9 1539 14
	addi	a5,s0,-48
	mv	a2,a5
	lw	a1,-76(s0)
	lw	a0,-72(s0)
	call	psa_crypto_local_output_alloc
	sw	a0,-20(s0)
	.loc 9 1539 111 discriminator 1
	lw	a5,-20(s0)
	bne	a5,zero,.L551
	.loc 9 1539 161 discriminator 3
	lw	a5,-44(s0)
	sw	a5,-28(s0)
	.loc 9 1541 49
	lw	a5,-36(s0)
	.loc 9 1541 44
	mv	a0,a5
	.loc 9 1542 48
	lw	a5,-36(s0)
	.loc 9 1542 53
	lw	a1,32(a5)
	.loc 9 1542 64
	lw	a5,-36(s0)
	.loc 9 1541 14
	lw	a2,36(a5)
	lw	a5,-80(s0)
	lw	a4,-76(s0)
	lw	a3,-28(s0)
	call	psa_driver_wrapper_export_key
	sw	a0,-20(s0)
	j	.L546
.L551:
	.loc 9 1539 143
	nop
.L546:
	.loc 9 1548 21
	lw	a5,-36(s0)
	mv	a0,a5
	call	psa_unregister_read_under_mutex
	sw	a0,-24(s0)
	.loc 9 1550 10
	sw	zero,-28(s0)
.LBB10:
	.loc 9 1550 67
	addi	a5,s0,-48
	mv	a0,a5
	call	psa_crypto_local_output_free
	sw	a0,-32(s0)
	.loc 9 1550 137 discriminator 1
	lw	a5,-32(s0)
	beq	a5,zero,.L547
	.loc 9 1550 189 discriminator 2
	lw	a5,-32(s0)
	sw	a5,-20(s0)
.L547:
.LBE10:
	.loc 9 1551 58
	lw	a5,-20(s0)
	bne	a5,zero,.L548
	.loc 9 1551 58 is_stmt 0 discriminator 1
	lw	a5,-24(s0)
	.loc 9 1551 58
	j	.L550
.L548:
	.loc 9 1551 58 discriminator 2
	lw	a5,-20(s0)
.L550:
	.loc 9 1552 1 is_stmt 1
	mv	a0,a5
	lw	ra,76(sp)
	.cfi_restore 1
	lw	s0,72(sp)
	.cfi_restore 8
	.cfi_def_cfa 2, 80
	addi	sp,sp,80
	.cfi_def_cfa_offset 0
	jr	ra
	.cfi_endproc
.LFE193:
	.size	psa_export_key, .-psa_export_key
	.section	.text.psa_export_public_key_internal,"ax",@progbits
	.align	1
	.globl	psa_export_public_key_internal
	.type	psa_export_public_key_internal, @function
psa_export_public_key_internal:
.LFB194:
	.loc 9 1561 1
	.cfi_startproc
	addi	sp,sp,-64
	.cfi_def_cfa_offset 64
	sw	ra,60(sp)
	sw	s0,56(sp)
	.cfi_offset 1, -4
	.cfi_offset 8, -8
	addi	s0,sp,64
	.cfi_def_cfa 8, 0
	sw	a0,-36(s0)
	sw	a1,-40(s0)
	sw	a2,-44(s0)
	sw	a3,-48(s0)
	sw	a4,-52(s0)
	sw	a5,-56(s0)
	.loc 9 1562 20
	lw	a5,-36(s0)
	lhu	a5,0(a5)
	sh	a5,-18(s0)
	.loc 9 1564 18
	lhu	a4,-18(s0)
	li	a5,28672
	and	a4,a4,a5
	.loc 9 1564 8
	li	a5,16384
	bne	a4,a5,.L553
	.loc 9 1565 19
	lhu	a4,-18(s0)
	li	a5,-12288
	addi	a5,a5,-1
	and	a4,a4,a5
	.loc 9 1564 77 discriminator 1
	li	a5,16384
	addi	a5,a5,1
	beq	a4,a5,.L554
	.loc 9 1565 122
	lhu	a4,-18(s0)
	li	a5,-12288
	addi	a5,a5,-256
	and	a4,a4,a5
	.loc 9 1565 79
	li	a5,16384
	addi	a5,a5,256
	beq	a4,a5,.L554
	.loc 9 1566 50
	lhu	a4,-18(s0)
	li	a5,-12288
	addi	a5,a5,-256
	and	a4,a4,a5
	.loc 9 1565 182 discriminator 1
	li	a5,16384
	addi	a5,a5,512
	bne	a4,a5,.L553
.L554:
	.loc 9 1568 16
	lw	a4,-56(s0)
	lw	a3,-52(s0)
	lw	a2,-48(s0)
	lw	a1,-44(s0)
	lw	a0,-40(s0)
	call	psa_export_key_buffer_internal
	mv	a5,a0
	j	.L555
.L553:
	.loc 9 1571 25
	lhu	a4,-18(s0)
	li	a5,-12288
	addi	a5,a5,-1
	and	a4,a4,a5
	.loc 9 1571 15
	li	a5,16384
	addi	a5,a5,1
	bne	a4,a5,.L556
	.loc 9 1574 16
	lw	a5,-56(s0)
	lw	a4,-52(s0)
	lw	a3,-48(s0)
	lw	a2,-44(s0)
	lw	a1,-40(s0)
	lw	a0,-36(s0)
	call	mbedtls_psa_rsa_export_public_key
	mv	a5,a0
	j	.L555
.L556:
	.loc 9 1585 56
	lhu	a4,-18(s0)
	li	a5,-12288
	addi	a5,a5,-256
	and	a4,a4,a5
	.loc 9 1585 15
	li	a5,16384
	addi	a5,a5,256
	bne	a4,a5,.L557
	.loc 9 1588 16
	lw	a5,-56(s0)
	lw	a4,-52(s0)
	lw	a3,-48(s0)
	lw	a2,-44(s0)
	lw	a1,-40(s0)
	lw	a0,-36(s0)
	call	mbedtls_psa_ecp_export_public_key
	mv	a5,a0
	j	.L555
.L557:
	.loc 9 1599 56
	lhu	a4,-18(s0)
	li	a5,-12288
	addi	a5,a5,-256
	and	a4,a4,a5
	.loc 9 1599 15
	li	a5,16384
	addi	a5,a5,512
	bne	a4,a5,.L558
	.loc 9 1602 16
	lw	a5,-56(s0)
	lw	a4,-52(s0)
	lw	a3,-48(s0)
	lw	a2,-44(s0)
	lw	a1,-40(s0)
	lw	a0,-36(s0)
	call	mbedtls_psa_ffdh_export_public_key
	mv	a5,a0
	j	.L555
.L558:
	.loc 9 1617 16
	li	a5,-134
.L555:
	.loc 9 1619 1
	mv	a0,a5
	lw	ra,60(sp)
	.cfi_restore 1
	lw	s0,56(sp)
	.cfi_restore 8
	.cfi_def_cfa 2, 64
	addi	sp,sp,64
	.cfi_def_cfa_offset 0
	jr	ra
	.cfi_endproc
.LFE194:
	.size	psa_export_public_key_internal, .-psa_export_public_key_internal
	.section	.text.psa_export_public_key,"ax",@progbits
	.align	1
	.globl	psa_export_public_key
	.type	psa_export_public_key, @function
psa_export_public_key:
.LFB195:
	.loc 9 1625 1
	.cfi_startproc
	addi	sp,sp,-80
	.cfi_def_cfa_offset 80
	sw	ra,76(sp)
	sw	s0,72(sp)
	.cfi_offset 1, -4
	.cfi_offset 8, -8
	addi	s0,sp,80
	.cfi_def_cfa 8, 0
	sw	a0,-68(s0)
	sw	a1,-72(s0)
	sw	a2,-76(s0)
	sw	a3,-80(s0)
	.loc 9 1626 18
	li	a5,-151
	sw	a5,-20(s0)
	.loc 9 1627 18
	li	a5,-151
	sw	a5,-24(s0)
	.loc 9 1630 31
	sw	zero,-48(s0)
	sw	zero,-44(s0)
	sw	zero,-40(s0)
	.loc 9 1630 21
	sw	zero,-28(s0)
	.loc 9 1635 8
	lw	a5,-76(s0)
	bne	a5,zero,.L560
	.loc 9 1636 16
	li	a5,-138
	j	.L569
.L560:
	.loc 9 1643 18
	lw	a5,-80(s0)
	sw	zero,0(a5)
	.loc 9 1646 14
	addi	a5,s0,-36
	li	a3,0
	li	a2,0
	mv	a1,a5
	lw	a0,-68(s0)
	call	psa_get_and_lock_key_slot_with_policy
	sw	a0,-20(s0)
	.loc 9 1647 8
	lw	a5,-20(s0)
	beq	a5,zero,.L562
	.loc 9 1648 16
	lw	a5,-20(s0)
	j	.L569
.L562:
	.loc 9 1651 14
	addi	a5,s0,-48
	mv	a2,a5
	lw	a1,-76(s0)
	lw	a0,-72(s0)
	call	psa_crypto_local_output_alloc
	sw	a0,-20(s0)
	.loc 9 1651 111 discriminator 1
	lw	a5,-20(s0)
	bne	a5,zero,.L570
	.loc 9 1651 161 discriminator 3
	lw	a5,-44(s0)
	sw	a5,-28(s0)
	.loc 9 1653 17
	lw	a5,-36(s0)
	.loc 9 1653 23
	lhu	a5,0(a5)
	.loc 9 1653 58
	mv	a4,a5
	li	a5,16384
	and	a5,a4,a5
	.loc 9 1653 8
	bne	a5,zero,.L565
	.loc 9 1654 16
	li	a5,-135
	sw	a5,-20(s0)
	.loc 9 1655 9
	j	.L564
.L565:
	.loc 9 1659 14
	lw	a5,-36(s0)
	.loc 9 1659 9
	mv	a0,a5
	.loc 9 1659 26
	lw	a5,-36(s0)
	.loc 9 1659 31
	lw	a1,32(a5)
	.loc 9 1659 42
	lw	a5,-36(s0)
	.loc 9 1658 14
	lw	a2,36(a5)
	lw	a5,-80(s0)
	lw	a4,-76(s0)
	lw	a3,-28(s0)
	call	psa_driver_wrapper_export_public_key
	sw	a0,-20(s0)
	j	.L564
.L570:
	.loc 9 1651 143
	nop
.L564:
	.loc 9 1663 21
	lw	a5,-36(s0)
	mv	a0,a5
	call	psa_unregister_read_under_mutex
	sw	a0,-24(s0)
	.loc 9 1665 10
	sw	zero,-28(s0)
.LBB11:
	.loc 9 1665 67
	addi	a5,s0,-48
	mv	a0,a5
	call	psa_crypto_local_output_free
	sw	a0,-32(s0)
	.loc 9 1665 137 discriminator 1
	lw	a5,-32(s0)
	beq	a5,zero,.L566
	.loc 9 1665 189 discriminator 2
	lw	a5,-32(s0)
	sw	a5,-20(s0)
.L566:
.LBE11:
	.loc 9 1666 58
	lw	a5,-20(s0)
	bne	a5,zero,.L567
	.loc 9 1666 58 is_stmt 0 discriminator 1
	lw	a5,-24(s0)
	.loc 9 1666 58
	j	.L569
.L567:
	.loc 9 1666 58 discriminator 2
	lw	a5,-20(s0)
.L569:
	.loc 9 1667 1 is_stmt 1
	mv	a0,a5
	lw	ra,76(sp)
	.cfi_restore 1
	lw	s0,72(sp)
	.cfi_restore 8
	.cfi_def_cfa 2, 80
	addi	sp,sp,80
	.cfi_def_cfa_offset 0
	jr	ra
	.cfi_endproc
.LFE195:
	.size	psa_export_public_key, .-psa_export_public_key
	.section	.text.psa_validate_key_policy,"ax",@progbits
	.align	1
	.type	psa_validate_key_policy, @function
psa_validate_key_policy:
.LFB196:
	.loc 9 1676 1
	.cfi_startproc
	addi	sp,sp,-32
	.cfi_def_cfa_offset 32
	sw	ra,28(sp)
	sw	s0,24(sp)
	.cfi_offset 1, -4
	.cfi_offset 8, -8
	addi	s0,sp,32
	.cfi_def_cfa 8, 0
	sw	a0,-20(s0)
	.loc 9 1677 16
	lw	a5,-20(s0)
	lw	a4,0(a5)
	.loc 9 1677 24
	li	a5,-65536
	addi	a5,a5,252
	and	a5,a4,a5
	.loc 9 1677 8
	beq	a5,zero,.L572
	.loc 9 1687 16
	li	a5,-135
	j	.L573
.L572:
	.loc 9 1690 12
	li	a5,0
.L573:
	.loc 9 1691 1
	mv	a0,a5
	lw	ra,28(sp)
	.cfi_restore 1
	lw	s0,24(sp)
	.cfi_restore 8
	.cfi_def_cfa 2, 32
	addi	sp,sp,32
	.cfi_def_cfa_offset 0
	jr	ra
	.cfi_endproc
.LFE196:
	.size	psa_validate_key_policy, .-psa_validate_key_policy
	.section	.text.psa_validate_key_attributes,"ax",@progbits
	.align	1
	.type	psa_validate_key_attributes, @function
psa_validate_key_attributes:
.LFB197:
	.loc 9 1709 1
	.cfi_startproc
	addi	sp,sp,-48
	.cfi_def_cfa_offset 48
	sw	ra,44(sp)
	sw	s0,40(sp)
	.cfi_offset 1, -4
	.cfi_offset 8, -8
	addi	s0,sp,48
	.cfi_def_cfa 8, 0
	sw	a0,-36(s0)
	sw	a1,-40(s0)
	.loc 9 1710 18
	li	a5,-135
	sw	a5,-20(s0)
	.loc 9 1711 35
	lw	a0,-36(s0)
	call	psa_get_key_lifetime
	sw	a0,-24(s0)
	.loc 9 1712 32
	lw	a0,-36(s0)
	call	psa_get_key_id
	sw	a0,-28(s0)
	.loc 9 1714 14
	lw	a1,-40(s0)
	lw	a0,-24(s0)
	call	psa_validate_key_location
	sw	a0,-20(s0)
	.loc 9 1715 8
	lw	a5,-20(s0)
	beq	a5,zero,.L575
	.loc 9 1716 16
	lw	a5,-20(s0)
	j	.L576
.L575:
	.loc 9 1719 14
	lw	a0,-24(s0)
	call	psa_validate_key_persistence
	sw	a0,-20(s0)
	.loc 9 1720 8
	lw	a5,-20(s0)
	beq	a5,zero,.L577
	.loc 9 1721 16
	lw	a5,-20(s0)
	j	.L576
.L577:
	.loc 9 1724 11
	lw	a5,-24(s0)
	andi	a5,a5,0xff
	.loc 9 1724 8
	bne	a5,zero,.L578
	.loc 9 1725 12
	lw	a5,-28(s0)
	beq	a5,zero,.L579
	.loc 9 1726 20
	li	a5,-135
	j	.L576
.L578:
	.loc 9 1729 14
	lw	a0,-36(s0)
	call	psa_get_key_id
	mv	a5,a0
	.loc 9 1729 14 is_stmt 0 discriminator 1
	li	a1,0
	mv	a0,a5
	call	psa_is_valid_key_id
	mv	a5,a0
	.loc 9 1729 12 is_stmt 1 discriminator 2
	bne	a5,zero,.L579
	.loc 9 1730 20
	li	a5,-135
	j	.L576
.L579:
	.loc 9 1734 14
	lw	a5,-36(s0)
	addi	a5,a5,8
	mv	a0,a5
	call	psa_validate_key_policy
	sw	a0,-20(s0)
	.loc 9 1735 8
	lw	a5,-20(s0)
	beq	a5,zero,.L580
	.loc 9 1736 16
	lw	a5,-20(s0)
	j	.L576
.L580:
	.loc 9 1743 9
	lw	a0,-36(s0)
	call	psa_get_key_bits
	mv	a4,a0
	.loc 9 1743 8 discriminator 1
	li	a5,65536
	addi	a5,a5,-8
	bleu	a4,a5,.L581
	.loc 9 1744 16
	li	a5,-134
	j	.L576
.L581:
	.loc 9 1747 12
	li	a5,0
.L576:
	.loc 9 1748 1
	mv	a0,a5
	lw	ra,44(sp)
	.cfi_restore 1
	lw	s0,40(sp)
	.cfi_restore 8
	.cfi_def_cfa 2, 48
	addi	sp,sp,48
	.cfi_def_cfa_offset 0
	jr	ra
	.cfi_endproc
.LFE197:
	.size	psa_validate_key_attributes, .-psa_validate_key_attributes
	.section	.text.psa_start_key_creation,"ax",@progbits
	.align	1
	.type	psa_start_key_creation, @function
psa_start_key_creation:
.LFB198:
	.loc 9 1785 1
	.cfi_startproc
	addi	sp,sp,-48
	.cfi_def_cfa_offset 48
	sw	ra,44(sp)
	sw	s0,40(sp)
	.cfi_offset 1, -4
	.cfi_offset 8, -8
	addi	s0,sp,48
	.cfi_def_cfa 8, 0
	mv	a5,a0
	sw	a1,-40(s0)
	sw	a2,-44(s0)
	sw	a3,-48(s0)
	sb	a5,-33(s0)
	.loc 9 1789 12
	lw	a5,-48(s0)
	sw	zero,0(a5)
	.loc 9 1791 14
	lw	a1,-48(s0)
	lw	a0,-40(s0)
	call	psa_validate_key_attributes
	sw	a0,-20(s0)
	.loc 9 1792 8
	lw	a5,-20(s0)
	beq	a5,zero,.L583
	.loc 9 1793 16
	lw	a5,-20(s0)
	j	.L589
.L583:
	.loc 9 1796 65
	lw	a5,-40(s0)
	lw	a5,4(a5)
	.loc 9 1796 29
	andi	a5,a5,0xff
	.loc 9 1796 92
	seqz	a5,a5
	andi	a5,a5,0xff
	.loc 9 1796 9
	sw	a5,-24(s0)
	.loc 9 1803 14
	lw	a5,-24(s0)
	beq	a5,zero,.L585
	.loc 9 1803 14 is_stmt 0 discriminator 1
	addi	a5,s0,-32
	j	.L586
.L585:
	.loc 9 1803 14 discriminator 2
	li	a5,0
.L586:
	.loc 9 1803 14 discriminator 4
	lw	a1,-44(s0)
	mv	a0,a5
	call	psa_reserve_free_key_slot
	sw	a0,-20(s0)
	.loc 9 1810 8 is_stmt 1
	lw	a5,-20(s0)
	beq	a5,zero,.L587
	.loc 9 1811 16
	lw	a5,-20(s0)
	j	.L589
.L587:
	.loc 9 1813 21
	lw	a5,-44(s0)
	lw	a5,0(a5)
	sw	a5,-28(s0)
	.loc 9 1823 16
	lw	a5,-28(s0)
	lw	a4,-40(s0)
	lw	a6,0(a4)
	lw	a0,4(a4)
	lw	a1,8(a4)
	lw	a2,12(a4)
	lw	a3,16(a4)
	sw	a6,0(a5)
	sw	a0,4(a5)
	sw	a1,8(a5)
	sw	a2,12(a5)
	sw	a3,16(a5)
	lw	a4,20(a4)
	sw	a4,20(a5)
	.loc 9 1824 8
	lw	a5,-24(s0)
	beq	a5,zero,.L588
	.loc 9 1826 23
	lw	a4,-32(s0)
	lw	a5,-28(s0)
	sw	a4,20(a5)
.L588:
	.loc 9 1883 12
	li	a5,0
.L589:
	.loc 9 1884 1
	mv	a0,a5
	lw	ra,44(sp)
	.cfi_restore 1
	lw	s0,40(sp)
	.cfi_restore 8
	.cfi_def_cfa 2, 48
	addi	sp,sp,48
	.cfi_def_cfa_offset 0
	jr	ra
	.cfi_endproc
.LFE198:
	.size	psa_start_key_creation, .-psa_start_key_creation
	.section	.text.psa_finish_key_creation,"ax",@progbits
	.align	1
	.type	psa_finish_key_creation, @function
psa_finish_key_creation:
.LFB199:
	.loc 9 1920 1
	.cfi_startproc
	addi	sp,sp,-48
	.cfi_def_cfa_offset 48
	sw	ra,44(sp)
	sw	s0,40(sp)
	.cfi_offset 1, -4
	.cfi_offset 8, -8
	addi	s0,sp,48
	.cfi_def_cfa 8, 0
	sw	a0,-36(s0)
	sw	a1,-40(s0)
	sw	a2,-44(s0)
	.loc 9 1921 18
	sw	zero,-20(s0)
	.loc 9 1980 8
	lw	a5,-20(s0)
	bne	a5,zero,.L591
	.loc 9 1981 26
	lw	a5,-36(s0)
	lw	a4,20(a5)
	.loc 9 1981 14
	lw	a5,-44(s0)
	sw	a4,0(a5)
	.loc 9 1982 18
	li	a2,2
	li	a1,1
	lw	a0,-36(s0)
	call	psa_key_slot_state_transition
	sw	a0,-20(s0)
	.loc 9 1984 12
	lw	a5,-20(s0)
	beq	a5,zero,.L591
	.loc 9 1985 18
	lw	a5,-44(s0)
	sw	zero,0(a5)
.L591:
	.loc 9 1993 12
	lw	a5,-20(s0)
	.loc 9 1994 1
	mv	a0,a5
	lw	ra,44(sp)
	.cfi_restore 1
	lw	s0,40(sp)
	.cfi_restore 8
	.cfi_def_cfa 2, 48
	addi	sp,sp,48
	.cfi_def_cfa_offset 0
	jr	ra
	.cfi_endproc
.LFE199:
	.size	psa_finish_key_creation, .-psa_finish_key_creation
	.section	.text.psa_fail_key_creation,"ax",@progbits
	.align	1
	.type	psa_fail_key_creation, @function
psa_fail_key_creation:
.LFB200:
	.loc 9 2010 1
	.cfi_startproc
	addi	sp,sp,-32
	.cfi_def_cfa_offset 32
	sw	ra,28(sp)
	sw	s0,24(sp)
	.cfi_offset 1, -4
	.cfi_offset 8, -8
	addi	s0,sp,32
	.cfi_def_cfa 8, 0
	sw	a0,-20(s0)
	sw	a1,-24(s0)
	.loc 9 2013 8
	lw	a5,-20(s0)
	beq	a5,zero,.L596
	.loc 9 2041 5
	lw	a0,-20(s0)
	call	psa_wipe_key_slot
	j	.L593
.L596:
	.loc 9 2014 9
	nop
.L593:
	.loc 9 2046 1
	lw	ra,28(sp)
	.cfi_restore 1
	lw	s0,24(sp)
	.cfi_restore 8
	.cfi_def_cfa 2, 32
	addi	sp,sp,32
	.cfi_def_cfa_offset 0
	jr	ra
	.cfi_endproc
.LFE200:
	.size	psa_fail_key_creation, .-psa_fail_key_creation
	.section	.text.psa_validate_optional_attributes,"ax",@progbits
	.align	1
	.type	psa_validate_optional_attributes, @function
psa_validate_optional_attributes:
.LFB201:
	.loc 9 2060 1
	.cfi_startproc
	addi	sp,sp,-32
	.cfi_def_cfa_offset 32
	sw	ra,28(sp)
	sw	s0,24(sp)
	.cfi_offset 1, -4
	.cfi_offset 8, -8
	addi	s0,sp,32
	.cfi_def_cfa 8, 0
	sw	a0,-20(s0)
	sw	a1,-24(s0)
	.loc 9 2061 19
	lw	a5,-24(s0)
	lhu	a5,0(a5)
	.loc 9 2061 8
	beq	a5,zero,.L598
	.loc 9 2062 23
	lw	a5,-24(s0)
	lhu	a4,0(a5)
	.loc 9 2062 43
	lw	a5,-20(s0)
	lhu	a5,0(a5)
	.loc 9 2062 12
	beq	a4,a5,.L598
	.loc 9 2063 20
	li	a5,-135
	j	.L599
.L598:
	.loc 9 2067 19
	lw	a5,-24(s0)
	lhu	a5,2(a5)
	.loc 9 2067 8
	beq	a5,zero,.L600
	.loc 9 2068 23
	lw	a5,-24(s0)
	lhu	a4,2(a5)
	.loc 9 2068 43
	lw	a5,-20(s0)
	lhu	a5,2(a5)
	.loc 9 2068 12
	beq	a4,a5,.L600
	.loc 9 2069 20
	li	a5,-135
	j	.L599
.L600:
	.loc 9 2073 12
	li	a5,0
.L599:
	.loc 9 2074 1
	mv	a0,a5
	lw	ra,28(sp)
	.cfi_restore 1
	lw	s0,24(sp)
	.cfi_restore 8
	.cfi_def_cfa 2, 32
	addi	sp,sp,32
	.cfi_def_cfa_offset 0
	jr	ra
	.cfi_endproc
.LFE201:
	.size	psa_validate_optional_attributes, .-psa_validate_optional_attributes
	.section	.text.psa_import_key,"ax",@progbits
	.align	1
	.globl	psa_import_key
	.type	psa_import_key, @function
psa_import_key:
.LFB202:
	.loc 9 2080 1
	.cfi_startproc
	addi	sp,sp,-80
	.cfi_def_cfa_offset 80
	sw	ra,76(sp)
	sw	s0,72(sp)
	.cfi_offset 1, -4
	.cfi_offset 8, -8
	addi	s0,sp,80
	.cfi_def_cfa 8, 0
	sw	a0,-68(s0)
	sw	a1,-72(s0)
	sw	a2,-76(s0)
	sw	a3,-80(s0)
	.loc 9 2082 30
	sw	zero,-32(s0)
	sw	zero,-28(s0)
	.loc 9 2082 27
	sw	zero,-24(s0)
	.loc 9 2083 21
	sw	zero,-44(s0)
	.loc 9 2084 31
	sw	zero,-48(s0)
	.loc 9 2086 12
	lw	a5,-76(s0)
	sw	a5,-56(s0)
	.loc 9 2088 10
	lw	a5,-80(s0)
	sw	zero,0(a5)
	.loc 9 2093 8
	lw	a5,-76(s0)
	bne	a5,zero,.L602
	.loc 9 2094 16
	li	a5,-135
	j	.L616
.L602:
	.loc 9 2098 8
	lw	a4,-76(s0)
	li	a5,536870912
	bltu	a4,a5,.L604
	.loc 9 2099 16
	li	a5,-134
	j	.L616
.L604:
	.loc 9 2102 14
	addi	a5,s0,-32
	mv	a2,a5
	lw	a1,-76(s0)
	lw	a0,-72(s0)
	call	psa_crypto_local_input_alloc
	sw	a0,-20(s0)
	.loc 9 2102 111 discriminator 1
	lw	a5,-20(s0)
	bne	a5,zero,.L617
	.loc 9 2102 161 discriminator 3
	lw	a5,-32(s0)
	sw	a5,-24(s0)
	.loc 9 2104 14
	addi	a4,s0,-48
	addi	a5,s0,-44
	mv	a3,a4
	mv	a2,a5
	lw	a1,-68(s0)
	li	a0,0
	call	psa_start_key_creation
	sw	a0,-20(s0)
	.loc 9 2106 8
	lw	a5,-20(s0)
	bne	a5,zero,.L618
	.loc 9 2114 13
	lw	a5,-44(s0)
	.loc 9 2114 18
	lw	a5,36(a5)
	.loc 9 2114 8
	bne	a5,zero,.L608
	.loc 9 2115 52
	lw	a5,-68(s0)
	lw	a5,4(a5)
	.loc 9 2115 13
	mv	a0,a5
	call	psa_key_lifetime_is_external
	mv	a5,a0
	.loc 9 2115 12 discriminator 1
	beq	a5,zero,.L609
	.loc 9 2116 22
	addi	a5,s0,-56
	mv	a3,a5
	lw	a2,-76(s0)
	lw	a1,-24(s0)
	lw	a0,-68(s0)
	call	psa_driver_wrapper_get_key_buffer_size_from_key_data
	sw	a0,-20(s0)
	.loc 9 2118 16
	lw	a5,-20(s0)
	bne	a5,zero,.L619
.L609:
	.loc 9 2122 18
	lw	a5,-44(s0)
	lw	a4,-56(s0)
	mv	a1,a4
	mv	a0,a5
	call	psa_allocate_buffer_to_slot
	sw	a0,-20(s0)
	.loc 9 2123 12
	lw	a5,-20(s0)
	bne	a5,zero,.L620
.L608:
	.loc 9 2128 16
	lw	a5,-44(s0)
	.loc 9 2128 22
	lhu	a5,2(a5)
	.loc 9 2128 10
	sw	a5,-52(s0)
	.loc 9 2131 48
	lw	a5,-44(s0)
	.loc 9 2129 14
	lw	a3,32(a5)
	.loc 9 2132 48
	lw	a5,-44(s0)
	.loc 9 2129 14
	lw	a4,36(a5)
	.loc 9 2133 49
	lw	a5,-44(s0)
	.loc 9 2129 14
	addi	a5,a5,36
	addi	a2,s0,-52
	mv	a6,a2
	lw	a2,-76(s0)
	lw	a1,-24(s0)
	lw	a0,-68(s0)
	call	psa_driver_wrapper_import_key
	sw	a0,-20(s0)
	.loc 9 2134 8
	lw	a5,-20(s0)
	bne	a5,zero,.L621
	.loc 9 2138 13
	lw	a5,-44(s0)
	.loc 9 2138 19
	lhu	a5,2(a5)
	.loc 9 2138 8
	bne	a5,zero,.L611
	.loc 9 2139 27
	lw	a4,-52(s0)
	.loc 9 2139 13
	lw	a5,-44(s0)
	.loc 9 2139 27
	slli	a4,a4,16
	srli	a4,a4,16
	.loc 9 2139 25
	sh	a4,2(a5)
	j	.L612
.L611:
	.loc 9 2140 28
	lw	a5,-44(s0)
	.loc 9 2140 34
	lhu	a5,2(a5)
	mv	a4,a5
	.loc 9 2140 21
	lw	a5,-52(s0)
	.loc 9 2140 15
	beq	a4,a5,.L612
	.loc 9 2141 16
	li	a5,-135
	sw	a5,-20(s0)
	.loc 9 2142 9
	j	.L606
.L612:
	.loc 9 2147 14
	lw	a4,-52(s0)
	.loc 9 2147 8
	li	a5,65536
	addi	a5,a5,-8
	bleu	a4,a5,.L613
	.loc 9 2148 16
	li	a5,-134
	sw	a5,-20(s0)
	.loc 9 2149 9
	j	.L606
.L613:
	.loc 9 2151 14
	lw	a5,-44(s0)
	lw	a1,-68(s0)
	mv	a0,a5
	call	psa_validate_optional_attributes
	sw	a0,-20(s0)
	.loc 9 2152 8
	lw	a5,-20(s0)
	bne	a5,zero,.L622
	.loc 9 2156 14
	lw	a5,-44(s0)
	lw	a4,-48(s0)
	lw	a2,-80(s0)
	mv	a1,a4
	mv	a0,a5
	call	psa_finish_key_creation
	sw	a0,-20(s0)
	j	.L606
.L617:
	.loc 9 2102 143
	nop
	j	.L606
.L618:
	.loc 9 2107 9
	nop
	j	.L606
.L619:
	.loc 9 2119 17
	nop
	j	.L606
.L620:
	.loc 9 2124 13
	nop
	j	.L606
.L621:
	.loc 9 2135 9
	nop
	j	.L606
.L622:
	.loc 9 2153 9
	nop
.L606:
	.loc 9 2158 10
	sw	zero,-24(s0)
	.loc 9 2158 6
	addi	a5,s0,-32
	mv	a0,a5
	call	psa_crypto_local_input_free
	.loc 9 2159 8
	lw	a5,-20(s0)
	beq	a5,zero,.L615
	.loc 9 2160 9
	lw	a5,-44(s0)
	lw	a4,-48(s0)
	mv	a1,a4
	mv	a0,a5
	call	psa_fail_key_creation
.L615:
	.loc 9 2163 12
	lw	a5,-20(s0)
.L616:
	.loc 9 2164 1
	mv	a0,a5
	lw	ra,76(sp)
	.cfi_restore 1
	lw	s0,72(sp)
	.cfi_restore 8
	.cfi_def_cfa 2, 80
	addi	sp,sp,80
	.cfi_def_cfa_offset 0
	jr	ra
	.cfi_endproc
.LFE202:
	.size	psa_import_key, .-psa_import_key
	.section	.text.psa_copy_key,"ax",@progbits
	.align	1
	.globl	psa_copy_key
	.type	psa_copy_key, @function
psa_copy_key:
.LFB203:
	.loc 9 2216 1
	.cfi_startproc
	addi	sp,sp,-80
	.cfi_def_cfa_offset 80
	sw	ra,76(sp)
	sw	s0,72(sp)
	.cfi_offset 1, -4
	.cfi_offset 8, -8
	addi	s0,sp,80
	.cfi_def_cfa 8, 0
	sw	a0,-68(s0)
	sw	a1,-72(s0)
	sw	a2,-76(s0)
	.loc 9 2217 18
	li	a5,-151
	sw	a5,-20(s0)
	.loc 9 2218 18
	li	a5,-151
	sw	a5,-24(s0)
	.loc 9 2219 21
	sw	zero,-28(s0)
	.loc 9 2220 21
	sw	zero,-32(s0)
	.loc 9 2221 26
	lw	a5,-72(s0)
	lw	a0,0(a5)
	lw	a1,4(a5)
	lw	a2,8(a5)
	lw	a3,12(a5)
	lw	a4,16(a5)
	sw	a0,-56(s0)
	sw	a1,-52(s0)
	sw	a2,-48(s0)
	sw	a3,-44(s0)
	sw	a4,-40(s0)
	lw	a5,20(a5)
	sw	a5,-36(s0)
	.loc 9 2222 31
	sw	zero,-60(s0)
	.loc 9 2223 12
	sw	zero,-64(s0)
	.loc 9 2225 17
	lw	a5,-76(s0)
	sw	zero,0(a5)
	.loc 9 2227 14
	addi	a5,s0,-28
	li	a3,0
	li	a2,2
	mv	a1,a5
	lw	a0,-68(s0)
	call	psa_get_and_lock_key_slot_with_policy
	sw	a0,-20(s0)
	.loc 9 2229 8
	lw	a5,-20(s0)
	bne	a5,zero,.L638
	.loc 9 2233 14
	lw	a5,-28(s0)
	lw	a1,-72(s0)
	mv	a0,a5
	call	psa_validate_optional_attributes
	sw	a0,-20(s0)
	.loc 9 2235 8
	lw	a5,-20(s0)
	bne	a5,zero,.L639
	.loc 9 2244 41
	lw	a5,-28(s0)
	.loc 9 2244 47
	lhu	a5,2(a5)
	.loc 9 2244 28
	sh	a5,-54(s0)
	.loc 9 2245 41
	lw	a5,-28(s0)
	.loc 9 2245 47
	lhu	a5,0(a5)
	.loc 9 2245 28
	sh	a5,-56(s0)
	.loc 9 2248 49
	lw	a5,-28(s0)
	.loc 9 2248 14
	lhu	a4,0(a5)
	.loc 9 2250 50
	lw	a5,-28(s0)
	.loc 9 2250 38
	addi	a3,a5,8
	.loc 9 2248 14
	addi	a5,s0,-56
	addi	a5,a5,8
	mv	a2,a3
	mv	a1,a5
	mv	a0,a4
	call	psa_restrict_key_policy
	sw	a0,-20(s0)
	.loc 9 2251 8
	lw	a5,-20(s0)
	bne	a5,zero,.L640
	.loc 9 2255 14
	addi	a3,s0,-60
	addi	a4,s0,-32
	addi	a5,s0,-56
	mv	a2,a4
	mv	a1,a5
	li	a0,3
	call	psa_start_key_creation
	sw	a0,-20(s0)
	.loc 9 2257 8
	lw	a5,-20(s0)
	bne	a5,zero,.L641
	.loc 9 2260 44
	lw	a5,-32(s0)
	.loc 9 2260 50
	lw	a5,4(a5)
	.loc 9 2260 61
	srli	a4,a5,8
	.loc 9 2261 44
	lw	a5,-28(s0)
	.loc 9 2261 50
	lw	a5,4(a5)
	.loc 9 2261 61
	srli	a5,a5,8
	.loc 9 2260 8
	beq	a4,a5,.L629
	.loc 9 2269 16
	li	a5,-134
	sw	a5,-20(s0)
	.loc 9 2270 9
	j	.L625
.L629:
	.loc 9 2278 9
	lw	a5,-52(s0)
	mv	a0,a5
	call	psa_key_lifetime_is_external
	mv	a5,a0
	.loc 9 2278 8 discriminator 1
	beq	a5,zero,.L630
	.loc 9 2279 18
	addi	a4,s0,-64
	addi	a5,s0,-56
	mv	a1,a4
	mv	a0,a5
	call	psa_driver_wrapper_get_key_buffer_size
	sw	a0,-20(s0)
	.loc 9 2281 12
	lw	a5,-20(s0)
	bne	a5,zero,.L642
	.loc 9 2285 18
	lw	a5,-32(s0)
	lw	a4,-64(s0)
	mv	a1,a4
	mv	a0,a5
	call	psa_allocate_buffer_to_slot
	sw	a0,-20(s0)
	.loc 9 2286 12
	lw	a5,-20(s0)
	bne	a5,zero,.L643
	.loc 9 2291 57
	lw	a5,-28(s0)
	.loc 9 2291 62
	lw	a1,32(a5)
	.loc 9 2292 57
	lw	a5,-28(s0)
	.loc 9 2290 18
	lw	a2,36(a5)
	.loc 9 2293 57
	lw	a5,-32(s0)
	.loc 9 2290 18
	lw	a3,32(a5)
	.loc 9 2294 57
	lw	a5,-32(s0)
	.loc 9 2290 18
	lw	a4,36(a5)
	.loc 9 2295 58
	lw	a5,-32(s0)
	.loc 9 2290 18
	addi	a5,a5,36
	addi	a0,s0,-56
	call	psa_driver_wrapper_copy_key
	sw	a0,-20(s0)
	.loc 9 2296 12
	lw	a5,-20(s0)
	beq	a5,zero,.L633
	.loc 9 2297 13
	j	.L625
.L630:
	.loc 9 2300 18
	lw	a4,-32(s0)
	.loc 9 2301 61
	lw	a5,-28(s0)
	.loc 9 2301 66
	lw	a3,32(a5)
	.loc 9 2302 61
	lw	a5,-28(s0)
	.loc 9 2300 18
	lw	a5,36(a5)
	mv	a2,a5
	mv	a1,a3
	mv	a0,a4
	call	psa_copy_key_material_into_slot
	sw	a0,-20(s0)
	.loc 9 2303 12
	lw	a5,-20(s0)
	bne	a5,zero,.L644
.L633:
	.loc 9 2307 14
	lw	a5,-32(s0)
	lw	a4,-60(s0)
	lw	a2,-76(s0)
	mv	a1,a4
	mv	a0,a5
	call	psa_finish_key_creation
	sw	a0,-20(s0)
	j	.L625
.L638:
	.loc 9 2230 9
	nop
	j	.L625
.L639:
	.loc 9 2236 9
	nop
	j	.L625
.L640:
	.loc 9 2252 9
	nop
	j	.L625
.L641:
	.loc 9 2258 9
	nop
	j	.L625
.L642:
	.loc 9 2282 13
	nop
	j	.L625
.L643:
	.loc 9 2287 13
	nop
	j	.L625
.L644:
	.loc 9 2304 13
	nop
.L625:
	.loc 9 2309 8
	lw	a5,-20(s0)
	beq	a5,zero,.L634
	.loc 9 2310 9
	lw	a5,-32(s0)
	lw	a4,-60(s0)
	mv	a1,a4
	mv	a0,a5
	call	psa_fail_key_creation
.L634:
	.loc 9 2313 21
	lw	a5,-28(s0)
	mv	a0,a5
	call	psa_unregister_read_under_mutex
	sw	a0,-24(s0)
	.loc 9 2315 58
	lw	a5,-20(s0)
	bne	a5,zero,.L635
	.loc 9 2315 58 is_stmt 0 discriminator 1
	lw	a5,-24(s0)
	.loc 9 2315 58
	j	.L637
.L635:
	.loc 9 2315 58 discriminator 2
	lw	a5,-20(s0)
.L637:
	.loc 9 2316 1 is_stmt 1
	mv	a0,a5
	lw	ra,76(sp)
	.cfi_restore 1
	lw	s0,72(sp)
	.cfi_restore 8
	.cfi_def_cfa 2, 80
	addi	sp,sp,80
	.cfi_def_cfa_offset 0
	jr	ra
	.cfi_endproc
.LFE203:
	.size	psa_copy_key, .-psa_copy_key
	.section	.text.is_hash_supported,"ax",@progbits
	.align	1
	.type	is_hash_supported, @function
is_hash_supported:
.LFB204:
	.loc 9 2325 1
	.cfi_startproc
	addi	sp,sp,-32
	.cfi_def_cfa_offset 32
	sw	ra,28(sp)
	sw	s0,24(sp)
	.cfi_offset 1, -4
	.cfi_offset 8, -8
	addi	s0,sp,32
	.cfi_def_cfa 8, 0
	sw	a0,-20(s0)
	.loc 9 2326 5
	lw	a4,-20(s0)
	li	a5,33554432
	addi	a5,a5,19
	beq	a4,a5,.L646
	lw	a4,-20(s0)
	li	a5,33554432
	addi	a5,a5,19
	bgtu	a4,a5,.L647
	lw	a4,-20(s0)
	li	a5,33554432
	addi	a5,a5,18
	beq	a4,a5,.L648
	lw	a4,-20(s0)
	li	a5,33554432
	addi	a5,a5,18
	bgtu	a4,a5,.L647
	lw	a4,-20(s0)
	li	a5,33554432
	addi	a5,a5,17
	beq	a4,a5,.L649
	lw	a4,-20(s0)
	li	a5,33554432
	addi	a5,a5,17
	bgtu	a4,a5,.L647
	lw	a4,-20(s0)
	li	a5,33554432
	addi	a5,a5,16
	beq	a4,a5,.L650
	lw	a4,-20(s0)
	li	a5,33554432
	addi	a5,a5,16
	bgtu	a4,a5,.L647
	lw	a4,-20(s0)
	li	a5,33554432
	addi	a5,a5,11
	beq	a4,a5,.L651
	lw	a4,-20(s0)
	li	a5,33554432
	addi	a5,a5,11
	bgtu	a4,a5,.L647
	lw	a4,-20(s0)
	li	a5,33554432
	addi	a5,a5,10
	beq	a4,a5,.L652
	lw	a4,-20(s0)
	li	a5,33554432
	addi	a5,a5,10
	bgtu	a4,a5,.L647
	lw	a4,-20(s0)
	li	a5,33554432
	addi	a5,a5,9
	beq	a4,a5,.L653
	lw	a4,-20(s0)
	li	a5,33554432
	addi	a5,a5,9
	bgtu	a4,a5,.L647
	lw	a4,-20(s0)
	li	a5,33554432
	addi	a5,a5,8
	beq	a4,a5,.L654
	lw	a4,-20(s0)
	li	a5,33554432
	addi	a5,a5,8
	bgtu	a4,a5,.L647
	lw	a4,-20(s0)
	li	a5,33554432
	addi	a5,a5,5
	beq	a4,a5,.L655
	lw	a4,-20(s0)
	li	a5,33554432
	addi	a5,a5,5
	bgtu	a4,a5,.L647
	lw	a4,-20(s0)
	li	a5,33554432
	addi	a5,a5,3
	beq	a4,a5,.L656
	lw	a4,-20(s0)
	li	a5,33554432
	addi	a5,a5,4
	beq	a4,a5,.L657
	j	.L647
.L656:
	.loc 9 2329 20
	li	a5,1
	j	.L658
.L657:
	.loc 9 2333 20
	li	a5,1
	j	.L658
.L655:
	.loc 9 2337 20
	li	a5,1
	j	.L658
.L654:
	.loc 9 2341 20
	li	a5,1
	j	.L658
.L653:
	.loc 9 2345 20
	li	a5,1
	j	.L658
.L652:
	.loc 9 2349 20
	li	a5,1
	j	.L658
.L651:
	.loc 9 2353 20
	li	a5,1
	j	.L658
.L650:
	.loc 9 2357 20
	li	a5,1
	j	.L658
.L649:
	.loc 9 2361 20
	li	a5,1
	j	.L658
.L648:
	.loc 9 2365 20
	li	a5,1
	j	.L658
.L646:
	.loc 9 2369 20
	li	a5,1
	j	.L658
.L647:
	.loc 9 2372 20
	li	a5,0
.L658:
	.loc 9 2374 1
	mv	a0,a5
	lw	ra,28(sp)
	.cfi_restore 1
	lw	s0,24(sp)
	.cfi_restore 8
	.cfi_def_cfa 2, 32
	addi	sp,sp,32
	.cfi_def_cfa_offset 0
	jr	ra
	.cfi_endproc
.LFE204:
	.size	is_hash_supported, .-is_hash_supported
	.section	.text.psa_hash_abort,"ax",@progbits
	.align	1
	.globl	psa_hash_abort
	.type	psa_hash_abort, @function
psa_hash_abort:
.LFB205:
	.loc 9 2377 1
	.cfi_startproc
	addi	sp,sp,-48
	.cfi_def_cfa_offset 48
	sw	ra,44(sp)
	sw	s0,40(sp)
	.cfi_offset 1, -4
	.cfi_offset 8, -8
	addi	s0,sp,48
	.cfi_def_cfa 8, 0
	sw	a0,-36(s0)
	.loc 9 2379 18
	lw	a5,-36(s0)
	lw	a5,0(a5)
	.loc 9 2379 8
	bne	a5,zero,.L660
	.loc 9 2380 16
	li	a5,0
	j	.L661
.L660:
	.loc 9 2383 27
	lw	a0,-36(s0)
	call	psa_driver_wrapper_hash_abort
	sw	a0,-20(s0)
	.loc 9 2384 19
	lw	a5,-36(s0)
	sw	zero,0(a5)
	.loc 9 2386 12
	lw	a5,-20(s0)
.L661:
	.loc 9 2387 1
	mv	a0,a5
	lw	ra,44(sp)
	.cfi_restore 1
	lw	s0,40(sp)
	.cfi_restore 8
	.cfi_def_cfa 2, 48
	addi	sp,sp,48
	.cfi_def_cfa_offset 0
	jr	ra
	.cfi_endproc
.LFE205:
	.size	psa_hash_abort, .-psa_hash_abort
	.section	.text.psa_hash_setup,"ax",@progbits
	.align	1
	.globl	psa_hash_setup
	.type	psa_hash_setup, @function
psa_hash_setup:
.LFB206:
	.loc 9 2391 1
	.cfi_startproc
	addi	sp,sp,-48
	.cfi_def_cfa_offset 48
	sw	ra,44(sp)
	sw	s0,40(sp)
	.cfi_offset 1, -4
	.cfi_offset 8, -8
	addi	s0,sp,48
	.cfi_def_cfa 8, 0
	sw	a0,-36(s0)
	sw	a1,-40(s0)
	.loc 9 2392 18
	li	a5,-151
	sw	a5,-20(s0)
	.loc 9 2395 18
	lw	a5,-36(s0)
	lw	a5,0(a5)
	.loc 9 2395 8
	beq	a5,zero,.L663
	.loc 9 2396 16
	li	a5,-137
	sw	a5,-20(s0)
	.loc 9 2397 9
	j	.L664
.L663:
	.loc 9 2400 18
	lw	a4,-40(s0)
	li	a5,2130706432
	and	a4,a4,a5
	.loc 9 2400 8
	li	a5,33554432
	beq	a4,a5,.L665
	.loc 9 2401 16
	li	a5,-135
	sw	a5,-20(s0)
	.loc 9 2402 9
	j	.L664
.L665:
	.loc 9 2410 12
	lw	a5,-36(s0)
	addi	a5,a5,8
	.loc 9 2410 5
	li	a2,224
	li	a1,0
	mv	a0,a5
	call	memset
	.loc 9 2412 14
	lw	a1,-40(s0)
	lw	a0,-36(s0)
	call	psa_driver_wrapper_hash_setup
	sw	a0,-20(s0)
.L664:
	.loc 9 2415 8
	lw	a5,-20(s0)
	beq	a5,zero,.L666
	.loc 9 2416 9
	lw	a0,-36(s0)
	call	psa_hash_abort
.L666:
	.loc 9 2419 12
	lw	a5,-20(s0)
	.loc 9 2420 1
	mv	a0,a5
	lw	ra,44(sp)
	.cfi_restore 1
	lw	s0,40(sp)
	.cfi_restore 8
	.cfi_def_cfa 2, 48
	addi	sp,sp,48
	.cfi_def_cfa_offset 0
	jr	ra
	.cfi_endproc
.LFE206:
	.size	psa_hash_setup, .-psa_hash_setup
	.section	.text.psa_hash_update,"ax",@progbits
	.align	1
	.globl	psa_hash_update
	.type	psa_hash_update, @function
psa_hash_update:
.LFB207:
	.loc 9 2425 1
	.cfi_startproc
	addi	sp,sp,-64
	.cfi_def_cfa_offset 64
	sw	ra,60(sp)
	sw	s0,56(sp)
	.cfi_offset 1, -4
	.cfi_offset 8, -8
	addi	s0,sp,64
	.cfi_def_cfa 8, 0
	sw	a0,-52(s0)
	sw	a1,-56(s0)
	sw	a2,-60(s0)
	.loc 9 2426 18
	li	a5,-151
	sw	a5,-20(s0)
	.loc 9 2427 30
	sw	zero,-32(s0)
	sw	zero,-28(s0)
	.loc 9 2427 27
	sw	zero,-24(s0)
	.loc 9 2429 18
	lw	a5,-52(s0)
	lw	a5,0(a5)
	.loc 9 2429 8
	bne	a5,zero,.L669
	.loc 9 2430 16
	li	a5,-137
	sw	a5,-20(s0)
	.loc 9 2431 9
	j	.L670
.L669:
	.loc 9 2436 8
	lw	a5,-60(s0)
	bne	a5,zero,.L671
	.loc 9 2437 16
	li	a5,0
	j	.L675
.L671:
	.loc 9 2440 14
	addi	a5,s0,-32
	mv	a2,a5
	lw	a1,-60(s0)
	lw	a0,-56(s0)
	call	psa_crypto_local_input_alloc
	sw	a0,-20(s0)
	.loc 9 2440 114 discriminator 1
	lw	a5,-20(s0)
	bne	a5,zero,.L676
	.loc 9 2440 165 discriminator 3
	lw	a5,-32(s0)
	sw	a5,-24(s0)
	.loc 9 2441 14
	lw	a2,-60(s0)
	lw	a1,-24(s0)
	lw	a0,-52(s0)
	call	psa_driver_wrapper_hash_update
	sw	a0,-20(s0)
	j	.L670
.L676:
	.loc 9 2440 146
	nop
.L670:
	.loc 9 2444 8
	lw	a5,-20(s0)
	beq	a5,zero,.L674
	.loc 9 2445 9
	lw	a0,-52(s0)
	call	psa_hash_abort
.L674:
	.loc 9 2448 11
	sw	zero,-24(s0)
	.loc 9 2448 6
	addi	a5,s0,-32
	mv	a0,a5
	call	psa_crypto_local_input_free
	.loc 9 2449 12
	lw	a5,-20(s0)
.L675:
	.loc 9 2450 1
	mv	a0,a5
	lw	ra,60(sp)
	.cfi_restore 1
	lw	s0,56(sp)
	.cfi_restore 8
	.cfi_def_cfa 2, 64
	addi	sp,sp,64
	.cfi_def_cfa_offset 0
	jr	ra
	.cfi_endproc
.LFE207:
	.size	psa_hash_update, .-psa_hash_update
	.section	.text.psa_hash_finish_internal,"ax",@progbits
	.align	1
	.type	psa_hash_finish_internal, @function
psa_hash_finish_internal:
.LFB208:
	.loc 9 2456 1
	.cfi_startproc
	addi	sp,sp,-48
	.cfi_def_cfa_offset 48
	sw	ra,44(sp)
	sw	s0,40(sp)
	.cfi_offset 1, -4
	.cfi_offset 8, -8
	addi	s0,sp,48
	.cfi_def_cfa 8, 0
	sw	a0,-36(s0)
	sw	a1,-40(s0)
	sw	a2,-44(s0)
	sw	a3,-48(s0)
	.loc 9 2457 18
	li	a5,-151
	sw	a5,-20(s0)
	.loc 9 2459 18
	lw	a5,-48(s0)
	sw	zero,0(a5)
	.loc 9 2460 18
	lw	a5,-36(s0)
	lw	a5,0(a5)
	.loc 9 2460 8
	bne	a5,zero,.L678
	.loc 9 2461 16
	li	a5,-137
	j	.L679
.L678:
	.loc 9 2464 14
	lw	a3,-48(s0)
	lw	a2,-44(s0)
	lw	a1,-40(s0)
	lw	a0,-36(s0)
	call	psa_driver_wrapper_hash_finish
	sw	a0,-20(s0)
	.loc 9 2466 5
	lw	a0,-36(s0)
	call	psa_hash_abort
	.loc 9 2468 12
	lw	a5,-20(s0)
.L679:
	.loc 9 2469 1
	mv	a0,a5
	lw	ra,44(sp)
	.cfi_restore 1
	lw	s0,40(sp)
	.cfi_restore 8
	.cfi_def_cfa 2, 48
	addi	sp,sp,48
	.cfi_def_cfa_offset 0
	jr	ra
	.cfi_endproc
.LFE208:
	.size	psa_hash_finish_internal, .-psa_hash_finish_internal
	.section	.text.psa_hash_finish,"ax",@progbits
	.align	1
	.globl	psa_hash_finish
	.type	psa_hash_finish, @function
psa_hash_finish:
.LFB209:
	.loc 9 2475 1
	.cfi_startproc
	addi	sp,sp,-80
	.cfi_def_cfa_offset 80
	sw	ra,76(sp)
	sw	s0,72(sp)
	.cfi_offset 1, -4
	.cfi_offset 8, -8
	addi	s0,sp,80
	.cfi_def_cfa 8, 0
	sw	a0,-68(s0)
	sw	a1,-72(s0)
	sw	a2,-76(s0)
	sw	a3,-80(s0)
	.loc 9 2476 18
	li	a5,-151
	sw	a5,-20(s0)
	.loc 9 2477 31
	sw	zero,-40(s0)
	sw	zero,-36(s0)
	sw	zero,-32(s0)
	.loc 9 2477 21
	sw	zero,-24(s0)
	.loc 9 2479 14
	addi	a5,s0,-40
	mv	a2,a5
	lw	a1,-76(s0)
	lw	a0,-72(s0)
	call	psa_crypto_local_output_alloc
	sw	a0,-20(s0)
	.loc 9 2479 111 discriminator 1
	lw	a5,-20(s0)
	bne	a5,zero,.L685
	.loc 9 2479 161 discriminator 3
	lw	a5,-36(s0)
	sw	a5,-24(s0)
	.loc 9 2480 14
	lw	a3,-80(s0)
	lw	a2,-76(s0)
	lw	a1,-24(s0)
	lw	a0,-68(s0)
	call	psa_hash_finish_internal
	sw	a0,-20(s0)
	j	.L682
.L685:
	.loc 9 2479 143
	nop
.L682:
	.loc 9 2485 10
	sw	zero,-24(s0)
.LBB12:
	.loc 9 2485 67
	addi	a5,s0,-40
	mv	a0,a5
	call	psa_crypto_local_output_free
	sw	a0,-28(s0)
	.loc 9 2485 137 discriminator 1
	lw	a5,-28(s0)
	beq	a5,zero,.L683
	.loc 9 2485 189 discriminator 2
	lw	a5,-28(s0)
	sw	a5,-20(s0)
.L683:
.LBE12:
	.loc 9 2486 12
	lw	a5,-20(s0)
	.loc 9 2487 1
	mv	a0,a5
	lw	ra,76(sp)
	.cfi_restore 1
	lw	s0,72(sp)
	.cfi_restore 8
	.cfi_def_cfa 2, 80
	addi	sp,sp,80
	.cfi_def_cfa_offset 0
	jr	ra
	.cfi_endproc
.LFE209:
	.size	psa_hash_finish, .-psa_hash_finish
	.section	.text.psa_hash_verify,"ax",@progbits
	.align	1
	.globl	psa_hash_verify
	.type	psa_hash_verify, @function
psa_hash_verify:
.LFB210:
	.loc 9 2492 1
	.cfi_startproc
	addi	sp,sp,-128
	.cfi_def_cfa_offset 128
	sw	ra,124(sp)
	sw	s0,120(sp)
	.cfi_offset 1, -4
	.cfi_offset 8, -8
	addi	s0,sp,128
	.cfi_def_cfa 8, 0
	sw	a0,-116(s0)
	sw	a1,-120(s0)
	sw	a2,-124(s0)
	.loc 9 2495 18
	li	a5,-151
	sw	a5,-20(s0)
	.loc 9 2496 30
	sw	zero,-100(s0)
	sw	zero,-96(s0)
	.loc 9 2496 27
	sw	zero,-24(s0)
	.loc 9 2498 14
	addi	a4,s0,-92
	addi	a5,s0,-88
	mv	a3,a4
	li	a2,64
	mv	a1,a5
	lw	a0,-116(s0)
	call	psa_hash_finish_internal
	sw	a0,-20(s0)
	.loc 9 2503 8
	lw	a5,-20(s0)
	bne	a5,zero,.L693
	.loc 9 2507 28
	lw	a5,-92(s0)
	.loc 9 2507 8
	lw	a4,-124(s0)
	beq	a4,a5,.L689
	.loc 9 2508 16
	li	a5,-149
	sw	a5,-20(s0)
	.loc 9 2509 9
	j	.L688
.L689:
	.loc 9 2512 14
	addi	a5,s0,-100
	mv	a2,a5
	lw	a1,-124(s0)
	lw	a0,-120(s0)
	call	psa_crypto_local_input_alloc
	sw	a0,-20(s0)
	.loc 9 2512 111 discriminator 1
	lw	a5,-20(s0)
	bne	a5,zero,.L694
	.loc 9 2512 161 discriminator 3
	lw	a5,-100(s0)
	sw	a5,-24(s0)
	.loc 9 2513 9
	lw	a4,-92(s0)
	addi	a5,s0,-88
	mv	a2,a4
	mv	a1,a5
	lw	a0,-24(s0)
	call	mbedtls_ct_memcmp
	mv	a5,a0
	.loc 9 2513 8 discriminator 1
	beq	a5,zero,.L695
	.loc 9 2514 16
	li	a5,-149
	sw	a5,-20(s0)
	j	.L688
.L693:
	.loc 9 2504 9
	nop
	j	.L688
.L694:
	.loc 9 2512 143
	nop
	j	.L688
.L695:
	.loc 9 2517 1
	nop
.L688:
	.loc 9 2518 5
	addi	a5,s0,-88
	li	a1,64
	mv	a0,a5
	call	mbedtls_platform_zeroize
	.loc 9 2519 8
	lw	a5,-20(s0)
	beq	a5,zero,.L691
	.loc 9 2520 9
	lw	a0,-116(s0)
	call	psa_hash_abort
.L691:
	.loc 9 2522 10
	sw	zero,-24(s0)
	.loc 9 2522 6
	addi	a5,s0,-100
	mv	a0,a5
	call	psa_crypto_local_input_free
	.loc 9 2523 12
	lw	a5,-20(s0)
	.loc 9 2524 1
	mv	a0,a5
	lw	ra,124(sp)
	.cfi_restore 1
	lw	s0,120(sp)
	.cfi_restore 8
	.cfi_def_cfa 2, 128
	addi	sp,sp,128
	.cfi_def_cfa_offset 0
	jr	ra
	.cfi_endproc
.LFE210:
	.size	psa_hash_verify, .-psa_hash_verify
	.section	.text.psa_hash_compute,"ax",@progbits
	.align	1
	.globl	psa_hash_compute
	.type	psa_hash_compute, @function
psa_hash_compute:
.LFB211:
	.loc 9 2530 1
	.cfi_startproc
	addi	sp,sp,-112
	.cfi_def_cfa_offset 112
	sw	ra,108(sp)
	sw	s0,104(sp)
	.cfi_offset 1, -4
	.cfi_offset 8, -8
	addi	s0,sp,112
	.cfi_def_cfa 8, 0
	sw	a0,-84(s0)
	sw	a1,-88(s0)
	sw	a2,-92(s0)
	sw	a3,-96(s0)
	sw	a4,-100(s0)
	sw	a5,-104(s0)
	.loc 9 2531 18
	li	a5,-151
	sw	a5,-20(s0)
	.loc 9 2532 30
	sw	zero,-40(s0)
	sw	zero,-36(s0)
	.loc 9 2532 27
	sw	zero,-24(s0)
	.loc 9 2533 31
	sw	zero,-60(s0)
	sw	zero,-56(s0)
	sw	zero,-52(s0)
	.loc 9 2533 21
	sw	zero,-28(s0)
	.loc 9 2535 18
	lw	a5,-104(s0)
	sw	zero,0(a5)
	.loc 9 2536 18
	lw	a4,-84(s0)
	li	a5,2130706432
	and	a4,a4,a5
	.loc 9 2536 8
	li	a5,33554432
	beq	a4,a5,.L697
	.loc 9 2537 16
	li	a5,-135
	j	.L703
.L697:
	.loc 9 2540 14
	addi	a5,s0,-40
	mv	a2,a5
	lw	a1,-92(s0)
	lw	a0,-88(s0)
	call	psa_crypto_local_input_alloc
	sw	a0,-20(s0)
	.loc 9 2540 114 discriminator 1
	lw	a5,-20(s0)
	bne	a5,zero,.L704
	.loc 9 2540 165 discriminator 3
	lw	a5,-40(s0)
	sw	a5,-24(s0)
	.loc 9 2541 14
	addi	a5,s0,-60
	mv	a2,a5
	lw	a1,-100(s0)
	lw	a0,-96(s0)
	call	psa_crypto_local_output_alloc
	sw	a0,-20(s0)
	.loc 9 2541 111 discriminator 1
	lw	a5,-20(s0)
	bne	a5,zero,.L705
	.loc 9 2541 161 discriminator 3
	lw	a5,-56(s0)
	sw	a5,-28(s0)
	.loc 9 2542 14
	lw	a5,-104(s0)
	lw	a4,-100(s0)
	lw	a3,-28(s0)
	lw	a2,-92(s0)
	lw	a1,-24(s0)
	lw	a0,-84(s0)
	call	psa_driver_wrapper_hash_compute
	sw	a0,-20(s0)
	j	.L700
.L704:
	.loc 9 2540 146
	nop
	j	.L700
.L705:
	.loc 9 2541 143
	nop
.L700:
	.loc 9 2548 11
	sw	zero,-24(s0)
	.loc 9 2548 6
	addi	a5,s0,-40
	mv	a0,a5
	call	psa_crypto_local_input_free
	.loc 9 2549 10
	sw	zero,-28(s0)
.LBB13:
	.loc 9 2549 67
	addi	a5,s0,-60
	mv	a0,a5
	call	psa_crypto_local_output_free
	sw	a0,-32(s0)
	.loc 9 2549 137 discriminator 1
	lw	a5,-32(s0)
	beq	a5,zero,.L702
	.loc 9 2549 189 discriminator 2
	lw	a5,-32(s0)
	sw	a5,-20(s0)
.L702:
.LBE13:
	.loc 9 2550 12
	lw	a5,-20(s0)
.L703:
	.loc 9 2551 1
	mv	a0,a5
	lw	ra,108(sp)
	.cfi_restore 1
	lw	s0,104(sp)
	.cfi_restore 8
	.cfi_def_cfa 2, 112
	addi	sp,sp,112
	.cfi_def_cfa_offset 0
	jr	ra
	.cfi_endproc
.LFE211:
	.size	psa_hash_compute, .-psa_hash_compute
	.section	.text.psa_hash_compare,"ax",@progbits
	.align	1
	.globl	psa_hash_compare
	.type	psa_hash_compare, @function
psa_hash_compare:
.LFB212:
	.loc 9 2556 1
	.cfi_startproc
	addi	sp,sp,-160
	.cfi_def_cfa_offset 160
	sw	ra,156(sp)
	sw	s0,152(sp)
	.cfi_offset 1, -4
	.cfi_offset 8, -8
	addi	s0,sp,160
	.cfi_def_cfa 8, 0
	sw	a0,-132(s0)
	sw	a1,-136(s0)
	sw	a2,-140(s0)
	sw	a3,-144(s0)
	sw	a4,-148(s0)
	.loc 9 2559 18
	li	a5,-151
	sw	a5,-20(s0)
	.loc 9 2561 30
	sw	zero,-104(s0)
	sw	zero,-100(s0)
	.loc 9 2561 27
	sw	zero,-24(s0)
	.loc 9 2562 30
	sw	zero,-120(s0)
	sw	zero,-116(s0)
	.loc 9 2562 27
	sw	zero,-28(s0)
	.loc 9 2564 18
	lw	a4,-132(s0)
	li	a5,2130706432
	and	a4,a4,a5
	.loc 9 2564 8
	li	a5,33554432
	beq	a4,a5,.L707
	.loc 9 2565 16
	li	a5,-135
	sw	a5,-20(s0)
	.loc 9 2566 16
	lw	a5,-20(s0)
	j	.L714
.L707:
	.loc 9 2569 14
	addi	a5,s0,-104
	mv	a2,a5
	lw	a1,-140(s0)
	lw	a0,-136(s0)
	call	psa_crypto_local_input_alloc
	sw	a0,-20(s0)
	.loc 9 2569 114 discriminator 1
	lw	a5,-20(s0)
	bne	a5,zero,.L715
	.loc 9 2569 165 discriminator 3
	lw	a5,-104(s0)
	sw	a5,-24(s0)
	.loc 9 2570 14
	addi	a5,s0,-96
	addi	a3,s0,-92
	li	a4,64
	lw	a2,-140(s0)
	lw	a1,-24(s0)
	lw	a0,-132(s0)
	call	psa_driver_wrapper_hash_compute
	sw	a0,-20(s0)
	.loc 9 2574 8
	lw	a5,-20(s0)
	bne	a5,zero,.L716
	.loc 9 2577 28
	lw	a5,-96(s0)
	.loc 9 2577 8
	lw	a4,-148(s0)
	beq	a4,a5,.L712
	.loc 9 2578 16
	li	a5,-149
	sw	a5,-20(s0)
	.loc 9 2579 9
	j	.L710
.L712:
	.loc 9 2582 14
	addi	a5,s0,-120
	mv	a2,a5
	lw	a1,-148(s0)
	lw	a0,-144(s0)
	call	psa_crypto_local_input_alloc
	sw	a0,-20(s0)
	.loc 9 2582 111 discriminator 1
	lw	a5,-20(s0)
	bne	a5,zero,.L717
	.loc 9 2582 161 discriminator 3
	lw	a5,-120(s0)
	sw	a5,-28(s0)
	.loc 9 2583 9
	lw	a4,-96(s0)
	addi	a5,s0,-92
	mv	a2,a4
	mv	a1,a5
	lw	a0,-28(s0)
	call	mbedtls_ct_memcmp
	mv	a5,a0
	.loc 9 2583 8 discriminator 1
	beq	a5,zero,.L718
	.loc 9 2584 16
	li	a5,-149
	sw	a5,-20(s0)
	j	.L710
.L715:
	.loc 9 2569 146
	nop
	j	.L710
.L716:
	.loc 9 2575 9
	nop
	j	.L710
.L717:
	.loc 9 2582 143
	nop
	j	.L710
.L718:
	.loc 9 2587 1
	nop
.L710:
	.loc 9 2588 5
	addi	a5,s0,-92
	li	a1,64
	mv	a0,a5
	call	mbedtls_platform_zeroize
	.loc 9 2590 11
	sw	zero,-24(s0)
	.loc 9 2590 6
	addi	a5,s0,-104
	mv	a0,a5
	call	psa_crypto_local_input_free
	.loc 9 2591 10
	sw	zero,-28(s0)
	.loc 9 2591 6
	addi	a5,s0,-120
	mv	a0,a5
	call	psa_crypto_local_input_free
	.loc 9 2593 12
	lw	a5,-20(s0)
.L714:
	.loc 9 2594 1
	mv	a0,a5
	lw	ra,156(sp)
	.cfi_restore 1
	lw	s0,152(sp)
	.cfi_restore 8
	.cfi_def_cfa 2, 160
	addi	sp,sp,160
	.cfi_def_cfa_offset 0
	jr	ra
	.cfi_endproc
.LFE212:
	.size	psa_hash_compare, .-psa_hash_compare
	.section	.text.psa_hash_clone,"ax",@progbits
	.align	1
	.globl	psa_hash_clone
	.type	psa_hash_clone, @function
psa_hash_clone:
.LFB213:
	.loc 9 2598 1
	.cfi_startproc
	addi	sp,sp,-48
	.cfi_def_cfa_offset 48
	sw	ra,44(sp)
	sw	s0,40(sp)
	.cfi_offset 1, -4
	.cfi_offset 8, -8
	addi	s0,sp,48
	.cfi_def_cfa 8, 0
	sw	a0,-36(s0)
	sw	a1,-40(s0)
	.loc 9 2599 25
	lw	a5,-36(s0)
	lw	a5,0(a5)
	.loc 9 2599 8
	beq	a5,zero,.L720
	.loc 9 2600 25
	lw	a5,-40(s0)
	lw	a5,0(a5)
	.loc 9 2599 35 discriminator 1
	beq	a5,zero,.L721
.L720:
	.loc 9 2601 16
	li	a5,-137
	j	.L722
.L721:
	.loc 9 2609 12
	lw	a5,-40(s0)
	addi	a5,a5,8
	.loc 9 2609 5
	li	a2,224
	li	a1,0
	mv	a0,a5
	call	memset
	.loc 9 2611 27
	lw	a1,-40(s0)
	lw	a0,-36(s0)
	call	psa_driver_wrapper_hash_clone
	sw	a0,-20(s0)
	.loc 9 2613 8
	lw	a5,-20(s0)
	beq	a5,zero,.L723
	.loc 9 2614 9
	lw	a0,-40(s0)
	call	psa_hash_abort
.L723:
	.loc 9 2617 12
	lw	a5,-20(s0)
.L722:
	.loc 9 2618 1
	mv	a0,a5
	lw	ra,44(sp)
	.cfi_restore 1
	lw	s0,40(sp)
	.cfi_restore 8
	.cfi_def_cfa 2, 48
	addi	sp,sp,48
	.cfi_def_cfa_offset 0
	jr	ra
	.cfi_endproc
.LFE213:
	.size	psa_hash_clone, .-psa_hash_clone
	.section	.text.psa_mac_abort,"ax",@progbits
	.align	1
	.globl	psa_mac_abort
	.type	psa_mac_abort, @function
psa_mac_abort:
.LFB214:
	.loc 9 2626 1
	.cfi_startproc
	addi	sp,sp,-48
	.cfi_def_cfa_offset 48
	sw	ra,44(sp)
	sw	s0,40(sp)
	.cfi_offset 1, -4
	.cfi_offset 8, -8
	addi	s0,sp,48
	.cfi_def_cfa 8, 0
	sw	a0,-36(s0)
	.loc 9 2628 18
	lw	a5,-36(s0)
	lw	a5,0(a5)
	.loc 9 2628 8
	bne	a5,zero,.L725
	.loc 9 2629 16
	li	a5,0
	j	.L726
.L725:
	.loc 9 2632 27
	lw	a0,-36(s0)
	call	psa_driver_wrapper_mac_abort
	sw	a0,-20(s0)
	.loc 9 2633 25
	lw	a5,-36(s0)
	sb	zero,4(a5)
	.loc 9 2634 24
	lw	a5,-36(s0)
	lbu	a4,5(a5)
	andi	a4,a4,-2
	sb	a4,5(a5)
	.loc 9 2635 19
	lw	a5,-36(s0)
	sw	zero,0(a5)
	.loc 9 2637 12
	lw	a5,-20(s0)
.L726:
	.loc 9 2638 1
	mv	a0,a5
	lw	ra,44(sp)
	.cfi_restore 1
	lw	s0,40(sp)
	.cfi_restore 8
	.cfi_def_cfa 2, 48
	addi	sp,sp,48
	.cfi_def_cfa_offset 0
	jr	ra
	.cfi_endproc
.LFE214:
	.size	psa_mac_abort, .-psa_mac_abort
	.section	.text.psa_mac_finalize_alg_and_key_validation,"ax",@progbits
	.align	1
	.type	psa_mac_finalize_alg_and_key_validation, @function
psa_mac_finalize_alg_and_key_validation:
.LFB215:
	.loc 9 2644 1
	.cfi_startproc
	addi	sp,sp,-48
	.cfi_def_cfa_offset 48
	sw	ra,44(sp)
	sw	s0,40(sp)
	.cfi_offset 1, -4
	.cfi_offset 8, -8
	addi	s0,sp,48
	.cfi_def_cfa 8, 0
	sw	a0,-36(s0)
	sw	a1,-40(s0)
	sw	a2,-44(s0)
	.loc 9 2645 18
	li	a5,-151
	sw	a5,-20(s0)
	.loc 9 2646 31
	lw	a0,-40(s0)
	call	psa_get_key_type
	mv	a5,a0
	sh	a5,-22(s0)
	.loc 9 2647 23
	lw	a0,-40(s0)
	call	psa_get_key_bits
	sw	a0,-28(s0)
	.loc 9 2649 18
	lw	a4,-36(s0)
	li	a5,2130706432
	and	a4,a4,a5
	.loc 9 2649 8
	li	a5,50331648
	beq	a4,a5,.L728
	.loc 9 2650 16
	li	a5,-135
	j	.L729
.L728:
	.loc 9 2654 14
	lhu	a5,-22(s0)
	mv	a1,a5
	lw	a0,-36(s0)
	call	psa_mac_key_can_do
	sw	a0,-20(s0)
	.loc 9 2655 8
	lw	a5,-20(s0)
	beq	a5,zero,.L730
	.loc 9 2656 16
	lw	a5,-20(s0)
	j	.L729
.L730:
	.loc 9 2660 24
	lw	a4,-36(s0)
	li	a5,4128768
	and	a5,a4,a5
	.loc 9 2660 15
	beq	a5,zero,.L731
	.loc 9 2660 101 discriminator 1
	lw	a5,-36(s0)
	srli	a5,a5,16
	andi	a5,a5,0xff
	.loc 9 2660 15 discriminator 1
	andi	a5,a5,63
	andi	a5,a5,0xff
	j	.L732
.L731:
	.loc 9 2660 118 discriminator 2
	lw	a4,-36(s0)
	li	a5,2143289344
	and	a4,a4,a5
	.loc 9 2660 15 discriminator 2
	li	a5,58720256
	bne	a4,a5,.L733
	.loc 9 2660 339 discriminator 4
	lw	a5,-36(s0)
	andi	a4,a5,255
	.loc 9 2660 258 discriminator 4
	li	a5,33554432
	or	a4,a4,a5
	.loc 9 2660 15 discriminator 4
	li	a5,33554432
	addi	a5,a5,3
	beq	a4,a5,.L734
	.loc 9 2660 529 discriminator 6
	lw	a5,-36(s0)
	andi	a4,a5,255
	.loc 9 2660 448 discriminator 6
	li	a5,33554432
	or	a4,a4,a5
	.loc 9 2660 15 discriminator 6
	li	a5,33554432
	addi	a5,a5,4
	beq	a4,a5,.L735
	.loc 9 2660 719 discriminator 8
	lw	a5,-36(s0)
	andi	a4,a5,255
	.loc 9 2660 638 discriminator 8
	li	a5,33554432
	or	a4,a4,a5
	.loc 9 2660 15 discriminator 8
	li	a5,33554432
	addi	a5,a5,5
	beq	a4,a5,.L736
	.loc 9 2660 909 discriminator 10
	lw	a5,-36(s0)
	andi	a4,a5,255
	.loc 9 2660 828 discriminator 10
	li	a5,33554432
	or	a4,a4,a5
	.loc 9 2660 15 discriminator 10
	li	a5,33554432
	addi	a5,a5,8
	beq	a4,a5,.L737
	.loc 9 2660 1099 discriminator 12
	lw	a5,-36(s0)
	andi	a4,a5,255
	.loc 9 2660 1018 discriminator 12
	li	a5,33554432
	or	a4,a4,a5
	.loc 9 2660 15 discriminator 12
	li	a5,33554432
	addi	a5,a5,9
	beq	a4,a5,.L738
	.loc 9 2660 1289 discriminator 14
	lw	a5,-36(s0)
	andi	a4,a5,255
	.loc 9 2660 1208 discriminator 14
	li	a5,33554432
	or	a4,a4,a5
	.loc 9 2660 15 discriminator 14
	li	a5,33554432
	addi	a5,a5,10
	beq	a4,a5,.L739
	.loc 9 2660 1479 discriminator 16
	lw	a5,-36(s0)
	andi	a4,a5,255
	.loc 9 2660 1398 discriminator 16
	li	a5,33554432
	or	a4,a4,a5
	.loc 9 2660 15 discriminator 16
	li	a5,33554432
	addi	a5,a5,11
	beq	a4,a5,.L740
	.loc 9 2660 1669 discriminator 18
	lw	a5,-36(s0)
	andi	a4,a5,255
	.loc 9 2660 1588 discriminator 18
	li	a5,33554432
	or	a4,a4,a5
	.loc 9 2660 15 discriminator 18
	li	a5,33554432
	addi	a5,a5,12
	beq	a4,a5,.L741
	.loc 9 2660 1859 discriminator 20
	lw	a5,-36(s0)
	andi	a4,a5,255
	.loc 9 2660 1778 discriminator 20
	li	a5,33554432
	or	a4,a4,a5
	.loc 9 2660 15 discriminator 20
	li	a5,33554432
	addi	a5,a5,13
	beq	a4,a5,.L742
	.loc 9 2660 2049 discriminator 22
	lw	a5,-36(s0)
	andi	a4,a5,255
	.loc 9 2660 1968 discriminator 22
	li	a5,33554432
	or	a4,a4,a5
	.loc 9 2660 15 discriminator 22
	li	a5,33554432
	addi	a5,a5,16
	beq	a4,a5,.L743
	.loc 9 2660 2239 discriminator 24
	lw	a5,-36(s0)
	andi	a4,a5,255
	.loc 9 2660 2158 discriminator 24
	li	a5,33554432
	or	a4,a4,a5
	.loc 9 2660 15 discriminator 24
	li	a5,33554432
	addi	a5,a5,17
	beq	a4,a5,.L744
	.loc 9 2660 2429 discriminator 26
	lw	a5,-36(s0)
	andi	a4,a5,255
	.loc 9 2660 2348 discriminator 26
	li	a5,33554432
	or	a4,a4,a5
	.loc 9 2660 15 discriminator 26
	li	a5,33554432
	addi	a5,a5,18
	beq	a4,a5,.L745
	.loc 9 2660 2619 discriminator 28
	lw	a5,-36(s0)
	andi	a4,a5,255
	.loc 9 2660 2538 discriminator 28
	li	a5,33554432
	or	a4,a4,a5
	.loc 9 2660 15 discriminator 28
	li	a5,33554432
	addi	a5,a5,19
	bne	a4,a5,.L746
	.loc 9 2660 15 is_stmt 0 discriminator 30
	li	a5,64
	j	.L732
.L746:
	.loc 9 2660 15 discriminator 31
	li	a5,0
	j	.L732
.L745:
	.loc 9 2660 15 discriminator 29
	li	a5,48
	j	.L732
.L744:
	.loc 9 2660 15 discriminator 27
	li	a5,32
	j	.L732
.L743:
	.loc 9 2660 15 discriminator 25
	li	a5,28
	j	.L732
.L742:
	.loc 9 2660 15 discriminator 23
	li	a5,32
	j	.L732
.L741:
	.loc 9 2660 15 discriminator 21
	li	a5,28
	j	.L732
.L740:
	.loc 9 2660 15 discriminator 19
	li	a5,64
	j	.L732
.L739:
	.loc 9 2660 15 discriminator 17
	li	a5,48
	j	.L732
.L738:
	.loc 9 2660 15 discriminator 15
	li	a5,32
	j	.L732
.L737:
	.loc 9 2660 15 discriminator 13
	li	a5,28
	j	.L732
.L736:
	.loc 9 2660 15 discriminator 11
	li	a5,20
	j	.L732
.L735:
	.loc 9 2660 15 discriminator 9
	li	a5,20
	j	.L732
.L734:
	.loc 9 2660 15 discriminator 7
	li	a5,16
	j	.L732
.L733:
	.loc 9 2660 2710 is_stmt 1 discriminator 5
	lw	a4,-36(s0)
	li	a5,2143289344
	and	a4,a4,a5
	.loc 9 2660 15 discriminator 5
	li	a5,62914560
	bne	a4,a5,.L747
	.loc 9 2660 2829 discriminator 32
	lhu	a4,-22(s0)
	li	a5,28672
	and	a4,a4,a5
	.loc 9 2660 15 discriminator 32
	li	a5,8192
	bne	a4,a5,.L748
	.loc 9 2660 2914 discriminator 34
	lhu	a5,-22(s0)
	srli	a5,a5,8
	slli	a5,a5,16
	srli	a5,a5,16
	andi	a5,a5,7
	.loc 9 2660 2892 discriminator 34
	li	a4,1
	sll	a5,a4,a5
	.loc 9 2660 15 discriminator 34
	andi	a5,a5,0xff
	j	.L732
.L748:
	.loc 9 2660 15 is_stmt 0 discriminator 35
	li	a5,0
	j	.L732
.L747:
	.loc 9 2660 15 discriminator 33
	li	a5,0
.L732:
	.loc 9 2660 15 discriminator 36
	lw	a4,-44(s0)
	sb	a5,0(a4)
	.loc 9 2662 9 is_stmt 1
	lw	a5,-44(s0)
	lbu	a4,0(a5)
	.loc 9 2662 8
	li	a5,3
	bgtu	a4,a5,.L749
	.loc 9 2667 16
	li	a5,-134
	j	.L729
.L749:
	.loc 9 2670 9
	lw	a5,-44(s0)
	lbu	a5,0(a5)
	mv	a3,a5
	.loc 9 2670 341
	lw	a4,-36(s0)
	li	a5,2143289344
	and	a4,a4,a5
	.loc 9 2670 258
	li	a5,58720256
	bne	a4,a5,.L750
	.loc 9 2670 635 discriminator 1
	lw	a5,-36(s0)
	andi	a4,a5,255
	.loc 9 2670 481 discriminator 1
	li	a5,33554432
	or	a4,a4,a5
	.loc 9 2670 3872 discriminator 1
	li	a5,33554432
	addi	a5,a5,3
	beq	a4,a5,.L751
	.loc 9 2670 898 discriminator 3
	lw	a5,-36(s0)
	andi	a4,a5,255
	.loc 9 2670 744 discriminator 3
	li	a5,33554432
	or	a4,a4,a5
	.loc 9 2670 3872 discriminator 3
	li	a5,33554432
	addi	a5,a5,4
	beq	a4,a5,.L752
	.loc 9 2670 1161 discriminator 5
	lw	a5,-36(s0)
	andi	a4,a5,255
	.loc 9 2670 1007 discriminator 5
	li	a5,33554432
	or	a4,a4,a5
	.loc 9 2670 3872 discriminator 5
	li	a5,33554432
	addi	a5,a5,5
	beq	a4,a5,.L753
	.loc 9 2670 1424 discriminator 7
	lw	a5,-36(s0)
	andi	a4,a5,255
	.loc 9 2670 1270 discriminator 7
	li	a5,33554432
	or	a4,a4,a5
	.loc 9 2670 3872 discriminator 7
	li	a5,33554432
	addi	a5,a5,8
	beq	a4,a5,.L754
	.loc 9 2670 1687 discriminator 9
	lw	a5,-36(s0)
	andi	a4,a5,255
	.loc 9 2670 1533 discriminator 9
	li	a5,33554432
	or	a4,a4,a5
	.loc 9 2670 3872 discriminator 9
	li	a5,33554432
	addi	a5,a5,9
	beq	a4,a5,.L755
	.loc 9 2670 1950 discriminator 11
	lw	a5,-36(s0)
	andi	a4,a5,255
	.loc 9 2670 1796 discriminator 11
	li	a5,33554432
	or	a4,a4,a5
	.loc 9 2670 3872 discriminator 11
	li	a5,33554432
	addi	a5,a5,10
	beq	a4,a5,.L756
	.loc 9 2670 2213 discriminator 13
	lw	a5,-36(s0)
	andi	a4,a5,255
	.loc 9 2670 2059 discriminator 13
	li	a5,33554432
	or	a4,a4,a5
	.loc 9 2670 3872 discriminator 13
	li	a5,33554432
	addi	a5,a5,11
	beq	a4,a5,.L757
	.loc 9 2670 2476 discriminator 15
	lw	a5,-36(s0)
	andi	a4,a5,255
	.loc 9 2670 2322 discriminator 15
	li	a5,33554432
	or	a4,a4,a5
	.loc 9 2670 3872 discriminator 15
	li	a5,33554432
	addi	a5,a5,12
	beq	a4,a5,.L758
	.loc 9 2670 2739 discriminator 17
	lw	a5,-36(s0)
	andi	a4,a5,255
	.loc 9 2670 2585 discriminator 17
	li	a5,33554432
	or	a4,a4,a5
	.loc 9 2670 3872 discriminator 17
	li	a5,33554432
	addi	a5,a5,13
	beq	a4,a5,.L759
	.loc 9 2670 3002 discriminator 19
	lw	a5,-36(s0)
	andi	a4,a5,255
	.loc 9 2670 2848 discriminator 19
	li	a5,33554432
	or	a4,a4,a5
	.loc 9 2670 3872 discriminator 19
	li	a5,33554432
	addi	a5,a5,16
	beq	a4,a5,.L760
	.loc 9 2670 3265 discriminator 21
	lw	a5,-36(s0)
	andi	a4,a5,255
	.loc 9 2670 3111 discriminator 21
	li	a5,33554432
	or	a4,a4,a5
	.loc 9 2670 3872 discriminator 21
	li	a5,33554432
	addi	a5,a5,17
	beq	a4,a5,.L761
	.loc 9 2670 3528 discriminator 23
	lw	a5,-36(s0)
	andi	a4,a5,255
	.loc 9 2670 3374 discriminator 23
	li	a5,33554432
	or	a4,a4,a5
	.loc 9 2670 3872 discriminator 23
	li	a5,33554432
	addi	a5,a5,18
	beq	a4,a5,.L762
	.loc 9 2670 3791 discriminator 25
	lw	a5,-36(s0)
	andi	a4,a5,255
	.loc 9 2670 3637 discriminator 25
	li	a5,33554432
	or	a4,a4,a5
	.loc 9 2670 3872 discriminator 25
	li	a5,33554432
	addi	a5,a5,19
	bne	a4,a5,.L763
	.loc 9 2670 258 discriminator 27
	li	a5,64
	j	.L764
.L763:
	.loc 9 2670 258 is_stmt 0 discriminator 28
	li	a5,0
	j	.L764
.L762:
	.loc 9 2670 258 discriminator 26
	li	a5,48
	j	.L764
.L761:
	.loc 9 2670 258 discriminator 24
	li	a5,32
	j	.L764
.L760:
	.loc 9 2670 258 discriminator 22
	li	a5,28
	j	.L764
.L759:
	.loc 9 2670 258 discriminator 20
	li	a5,32
	j	.L764
.L758:
	.loc 9 2670 258 discriminator 18
	li	a5,28
	j	.L764
.L757:
	.loc 9 2670 258 discriminator 16
	li	a5,64
	j	.L764
.L756:
	.loc 9 2670 258 discriminator 14
	li	a5,48
	j	.L764
.L755:
	.loc 9 2670 258 discriminator 12
	li	a5,32
	j	.L764
.L754:
	.loc 9 2670 258 discriminator 10
	li	a5,28
	j	.L764
.L753:
	.loc 9 2670 258 discriminator 8
	li	a5,20
	j	.L764
.L752:
	.loc 9 2670 258 discriminator 6
	li	a5,20
	j	.L764
.L751:
	.loc 9 2670 258 discriminator 4
	li	a5,16
	j	.L764
.L750:
	.loc 9 2670 3955 is_stmt 1 discriminator 2
	lw	a4,-36(s0)
	li	a5,2143289344
	and	a4,a4,a5
	.loc 9 2670 3872 discriminator 2
	li	a5,62914560
	bne	a4,a5,.L765
	.loc 9 2670 4074 discriminator 29
	lhu	a4,-22(s0)
	li	a5,28672
	and	a4,a4,a5
	.loc 9 2670 3872 discriminator 29
	li	a5,8192
	bne	a4,a5,.L766
	.loc 9 2670 4159 discriminator 31
	lhu	a5,-22(s0)
	srli	a5,a5,8
	slli	a5,a5,16
	srli	a5,a5,16
	andi	a5,a5,7
	.loc 9 2670 258 discriminator 31
	li	a4,1
	sll	a5,a4,a5
	j	.L764
.L766:
	.loc 9 2670 258 is_stmt 0 discriminator 32
	li	a5,0
	j	.L764
.L765:
	.loc 9 2670 258 discriminator 30
	li	a5,0
.L764:
	.loc 9 2670 8 is_stmt 1 discriminator 33
	bgeu	a5,a3,.L767
	.loc 9 2674 16
	li	a5,-135
	j	.L729
.L767:
	.loc 9 2677 9
	lw	a5,-44(s0)
	lbu	a4,0(a5)
	.loc 9 2677 8
	li	a5,64
	bleu	a4,a5,.L768
	.loc 9 2687 16
	li	a5,-134
	j	.L729
.L768:
	.loc 9 2690 12
	li	a5,0
.L729:
	.loc 9 2691 1
	mv	a0,a5
	lw	ra,44(sp)
	.cfi_restore 1
	lw	s0,40(sp)
	.cfi_restore 8
	.cfi_def_cfa 2, 48
	addi	sp,sp,48
	.cfi_def_cfa_offset 0
	jr	ra
	.cfi_endproc
.LFE215:
	.size	psa_mac_finalize_alg_and_key_validation, .-psa_mac_finalize_alg_and_key_validation
	.section	.text.psa_mac_setup,"ax",@progbits
	.align	1
	.type	psa_mac_setup, @function
psa_mac_setup:
.LFB216:
	.loc 9 2697 1
	.cfi_startproc
	addi	sp,sp,-48
	.cfi_def_cfa_offset 48
	sw	ra,44(sp)
	sw	s0,40(sp)
	.cfi_offset 1, -4
	.cfi_offset 8, -8
	addi	s0,sp,48
	.cfi_def_cfa 8, 0
	sw	a0,-36(s0)
	sw	a1,-40(s0)
	sw	a2,-44(s0)
	sw	a3,-48(s0)
	.loc 9 2698 18
	li	a5,-151
	sw	a5,-20(s0)
	.loc 9 2699 18
	li	a5,-151
	sw	a5,-24(s0)
	.loc 9 2700 21
	sw	zero,-28(s0)
	.loc 9 2703 18
	lw	a5,-36(s0)
	lw	a5,0(a5)
	.loc 9 2703 8
	beq	a5,zero,.L770
	.loc 9 2704 16
	li	a5,-137
	sw	a5,-20(s0)
	.loc 9 2705 9
	j	.L771
.L770:
	.loc 9 2713 12
	lw	a5,-36(s0)
	addi	a5,a5,8
	.loc 9 2713 5
	li	a2,392
	li	a1,0
	mv	a0,a5
	call	memset
	.loc 9 2715 14
	lw	a5,-48(s0)
	beq	a5,zero,.L772
	.loc 9 2715 14 is_stmt 0 discriminator 1
	li	a5,1024
	j	.L773
.L772:
	.loc 9 2715 14 discriminator 2
	li	a5,4096
	addi	a5,a5,-2048
.L773:
	.loc 9 2715 14 discriminator 4
	addi	a4,s0,-28
	lw	a3,-44(s0)
	mv	a2,a5
	mv	a1,a4
	lw	a0,-40(s0)
	call	psa_get_and_lock_key_slot_with_policy
	sw	a0,-20(s0)
	.loc 9 2720 8 is_stmt 1
	lw	a5,-20(s0)
	bne	a5,zero,.L781
	.loc 9 2724 64
	lw	a5,-28(s0)
	.loc 9 2724 59
	mv	a4,a5
	.loc 9 2724 14
	lw	a5,-36(s0)
	addi	a5,a5,4
	mv	a2,a5
	mv	a1,a4
	lw	a0,-44(s0)
	call	psa_mac_finalize_alg_and_key_validation
	sw	a0,-20(s0)
	.loc 9 2726 8
	lw	a5,-20(s0)
	bne	a5,zero,.L782
	.loc 9 2730 24
	lw	a5,-48(s0)
	andi	a5,a5,1
	andi	a4,a5,0xff
	lw	a5,-36(s0)
	andi	a4,a4,1
	lbu	a3,5(a5)
	andi	a3,a3,-2
	or	a4,a3,a4
	sb	a4,5(a5)
	.loc 9 2732 8
	lw	a5,-48(s0)
	beq	a5,zero,.L776
	.loc 9 2734 57
	lw	a5,-28(s0)
	.loc 9 2734 52
	mv	a1,a5
	.loc 9 2735 56
	lw	a5,-28(s0)
	.loc 9 2735 61
	lw	a2,32(a5)
	.loc 9 2736 56
	lw	a5,-28(s0)
	.loc 9 2733 18
	lw	a5,36(a5)
	lw	a4,-44(s0)
	mv	a3,a5
	lw	a0,-36(s0)
	call	psa_driver_wrapper_mac_sign_setup
	sw	a0,-20(s0)
	j	.L771
.L776:
	.loc 9 2740 59
	lw	a5,-28(s0)
	.loc 9 2740 54
	mv	a1,a5
	.loc 9 2741 58
	lw	a5,-28(s0)
	.loc 9 2741 63
	lw	a2,32(a5)
	.loc 9 2742 58
	lw	a5,-28(s0)
	.loc 9 2739 18
	lw	a5,36(a5)
	lw	a4,-44(s0)
	mv	a3,a5
	lw	a0,-36(s0)
	call	psa_driver_wrapper_mac_verify_setup
	sw	a0,-20(s0)
	j	.L771
.L781:
	.loc 9 2721 9
	nop
	j	.L771
.L782:
	.loc 9 2727 9
	nop
.L771:
	.loc 9 2747 8
	lw	a5,-20(s0)
	beq	a5,zero,.L777
	.loc 9 2748 9
	lw	a0,-36(s0)
	call	psa_mac_abort
.L777:
	.loc 9 2751 21
	lw	a5,-28(s0)
	mv	a0,a5
	call	psa_unregister_read_under_mutex
	sw	a0,-24(s0)
	.loc 9 2753 58
	lw	a5,-20(s0)
	bne	a5,zero,.L778
	.loc 9 2753 58 is_stmt 0 discriminator 1
	lw	a5,-24(s0)
	.loc 9 2753 58
	j	.L780
.L778:
	.loc 9 2753 58 discriminator 2
	lw	a5,-20(s0)
.L780:
	.loc 9 2754 1 is_stmt 1
	mv	a0,a5
	lw	ra,44(sp)
	.cfi_restore 1
	lw	s0,40(sp)
	.cfi_restore 8
	.cfi_def_cfa 2, 48
	addi	sp,sp,48
	.cfi_def_cfa_offset 0
	jr	ra
	.cfi_endproc
.LFE216:
	.size	psa_mac_setup, .-psa_mac_setup
	.section	.text.psa_mac_sign_setup,"ax",@progbits
	.align	1
	.globl	psa_mac_sign_setup
	.type	psa_mac_sign_setup, @function
psa_mac_sign_setup:
.LFB217:
	.loc 9 2759 1
	.cfi_startproc
	addi	sp,sp,-32
	.cfi_def_cfa_offset 32
	sw	ra,28(sp)
	sw	s0,24(sp)
	.cfi_offset 1, -4
	.cfi_offset 8, -8
	addi	s0,sp,32
	.cfi_def_cfa 8, 0
	sw	a0,-20(s0)
	sw	a1,-24(s0)
	sw	a2,-28(s0)
	.loc 9 2760 12
	li	a3,1
	lw	a2,-28(s0)
	lw	a1,-24(s0)
	lw	a0,-20(s0)
	call	psa_mac_setup
	mv	a5,a0
	.loc 9 2761 1
	mv	a0,a5
	lw	ra,28(sp)
	.cfi_restore 1
	lw	s0,24(sp)
	.cfi_restore 8
	.cfi_def_cfa 2, 32
	addi	sp,sp,32
	.cfi_def_cfa_offset 0
	jr	ra
	.cfi_endproc
.LFE217:
	.size	psa_mac_sign_setup, .-psa_mac_sign_setup
	.section	.text.psa_mac_verify_setup,"ax",@progbits
	.align	1
	.globl	psa_mac_verify_setup
	.type	psa_mac_verify_setup, @function
psa_mac_verify_setup:
.LFB218:
	.loc 9 2766 1
	.cfi_startproc
	addi	sp,sp,-32
	.cfi_def_cfa_offset 32
	sw	ra,28(sp)
	sw	s0,24(sp)
	.cfi_offset 1, -4
	.cfi_offset 8, -8
	addi	s0,sp,32
	.cfi_def_cfa 8, 0
	sw	a0,-20(s0)
	sw	a1,-24(s0)
	sw	a2,-28(s0)
	.loc 9 2767 12
	li	a3,0
	lw	a2,-28(s0)
	lw	a1,-24(s0)
	lw	a0,-20(s0)
	call	psa_mac_setup
	mv	a5,a0
	.loc 9 2768 1
	mv	a0,a5
	lw	ra,28(sp)
	.cfi_restore 1
	lw	s0,24(sp)
	.cfi_restore 8
	.cfi_def_cfa 2, 32
	addi	sp,sp,32
	.cfi_def_cfa_offset 0
	jr	ra
	.cfi_endproc
.LFE218:
	.size	psa_mac_verify_setup, .-psa_mac_verify_setup
	.section	.text.psa_mac_update,"ax",@progbits
	.align	1
	.globl	psa_mac_update
	.type	psa_mac_update, @function
psa_mac_update:
.LFB219:
	.loc 9 2773 1
	.cfi_startproc
	addi	sp,sp,-64
	.cfi_def_cfa_offset 64
	sw	ra,60(sp)
	sw	s0,56(sp)
	.cfi_offset 1, -4
	.cfi_offset 8, -8
	addi	s0,sp,64
	.cfi_def_cfa 8, 0
	sw	a0,-52(s0)
	sw	a1,-56(s0)
	sw	a2,-60(s0)
	.loc 9 2774 18
	li	a5,-151
	sw	a5,-20(s0)
	.loc 9 2775 30
	sw	zero,-32(s0)
	sw	zero,-28(s0)
	.loc 9 2775 27
	sw	zero,-24(s0)
	.loc 9 2777 18
	lw	a5,-52(s0)
	lw	a5,0(a5)
	.loc 9 2777 8
	bne	a5,zero,.L788
	.loc 9 2778 16
	li	a5,-137
	sw	a5,-20(s0)
	.loc 9 2779 16
	lw	a5,-20(s0)
	j	.L793
.L788:
	.loc 9 2784 8
	lw	a5,-60(s0)
	bne	a5,zero,.L790
	.loc 9 2785 16
	sw	zero,-20(s0)
	.loc 9 2786 16
	lw	a5,-20(s0)
	j	.L793
.L790:
	.loc 9 2789 14
	addi	a5,s0,-32
	mv	a2,a5
	lw	a1,-60(s0)
	lw	a0,-56(s0)
	call	psa_crypto_local_input_alloc
	sw	a0,-20(s0)
	.loc 9 2789 114 discriminator 1
	lw	a5,-20(s0)
	bne	a5,zero,.L794
	.loc 9 2789 165 discriminator 3
	lw	a5,-32(s0)
	sw	a5,-24(s0)
	.loc 9 2790 14
	lw	a2,-60(s0)
	lw	a1,-24(s0)
	lw	a0,-52(s0)
	call	psa_driver_wrapper_mac_update
	sw	a0,-20(s0)
	.loc 9 2792 8
	lw	a5,-20(s0)
	beq	a5,zero,.L795
	.loc 9 2793 9
	lw	a0,-52(s0)
	call	psa_mac_abort
	j	.L792
.L794:
	.loc 9 2789 146
	nop
	j	.L792
.L795:
	.loc 9 2797 1
	nop
.L792:
	.loc 9 2799 11
	sw	zero,-24(s0)
	.loc 9 2799 6
	addi	a5,s0,-32
	mv	a0,a5
	call	psa_crypto_local_input_free
	.loc 9 2801 12
	lw	a5,-20(s0)
.L793:
	.loc 9 2802 1
	mv	a0,a5
	lw	ra,60(sp)
	.cfi_restore 1
	lw	s0,56(sp)
	.cfi_restore 8
	.cfi_def_cfa 2, 64
	addi	sp,sp,64
	.cfi_def_cfa_offset 0
	jr	ra
	.cfi_endproc
.LFE219:
	.size	psa_mac_update, .-psa_mac_update
	.section	.text.psa_mac_sign_finish,"ax",@progbits
	.align	1
	.globl	psa_mac_sign_finish
	.type	psa_mac_sign_finish, @function
psa_mac_sign_finish:
.LFB220:
	.loc 9 2808 1
	.cfi_startproc
	addi	sp,sp,-80
	.cfi_def_cfa_offset 80
	sw	ra,76(sp)
	sw	s0,72(sp)
	.cfi_offset 1, -4
	.cfi_offset 8, -8
	addi	s0,sp,80
	.cfi_def_cfa 8, 0
	sw	a0,-68(s0)
	sw	a1,-72(s0)
	sw	a2,-76(s0)
	sw	a3,-80(s0)
	.loc 9 2809 18
	li	a5,-151
	sw	a5,-20(s0)
	.loc 9 2810 18
	li	a5,-151
	sw	a5,-28(s0)
	.loc 9 2811 31
	sw	zero,-44(s0)
	sw	zero,-40(s0)
	sw	zero,-36(s0)
	.loc 9 2811 21
	sw	zero,-24(s0)
	.loc 9 2812 14
	addi	a5,s0,-44
	mv	a2,a5
	lw	a1,-76(s0)
	lw	a0,-72(s0)
	call	psa_crypto_local_output_alloc
	sw	a0,-20(s0)
	.loc 9 2812 108 discriminator 1
	lw	a5,-20(s0)
	bne	a5,zero,.L809
	.loc 9 2812 157 discriminator 3
	lw	a5,-40(s0)
	sw	a5,-24(s0)
	.loc 9 2814 18
	lw	a5,-68(s0)
	lw	a5,0(a5)
	.loc 9 2814 8
	bne	a5,zero,.L799
	.loc 9 2815 16
	li	a5,-137
	sw	a5,-20(s0)
	.loc 9 2816 9
	j	.L798
.L799:
	.loc 9 2819 9
	lw	a5,-68(s0)
	lbu	a5,5(a5)
	andi	a5,a5,1
	andi	a5,a5,0xff
	.loc 9 2819 8
	bne	a5,zero,.L800
	.loc 9 2820 16
	li	a5,-137
	sw	a5,-20(s0)
	.loc 9 2821 9
	j	.L798
.L800:
	.loc 9 2826 18
	lw	a5,-68(s0)
	lbu	a5,4(a5)
	.loc 9 2826 8
	bne	a5,zero,.L801
	.loc 9 2827 16
	li	a5,-137
	sw	a5,-20(s0)
	.loc 9 2828 9
	j	.L798
.L801:
	.loc 9 2831 29
	lw	a5,-68(s0)
	lbu	a5,4(a5)
	mv	a4,a5
	.loc 9 2831 8
	lw	a5,-76(s0)
	bgeu	a5,a4,.L802
	.loc 9 2832 16
	li	a5,-138
	sw	a5,-20(s0)
	.loc 9 2833 9
	j	.L798
.L802:
	.loc 9 2838 63
	lw	a5,-68(s0)
	lbu	a5,4(a5)
	.loc 9 2837 14
	lw	a3,-80(s0)
	mv	a2,a5
	lw	a1,-24(s0)
	lw	a0,-68(s0)
	call	psa_driver_wrapper_mac_sign_finish
	sw	a0,-20(s0)
	j	.L798
.L809:
	.loc 9 2812 140
	nop
.L798:
	.loc 9 2848 8
	lw	a5,-20(s0)
	beq	a5,zero,.L803
	.loc 9 2849 21
	lw	a5,-80(s0)
	lw	a4,-76(s0)
	sw	a4,0(a5)
	.loc 9 2850 29
	lw	a5,-68(s0)
	sb	zero,4(a5)
.L803:
	.loc 9 2853 8
	lw	a5,-24(s0)
	beq	a5,zero,.L804
	.loc 9 2854 9
	lw	a5,-80(s0)
	lw	a5,0(a5)
	mv	a3,a5
	lw	a2,-76(s0)
	lw	a1,-20(s0)
	lw	a0,-24(s0)
	call	psa_wipe_tag_output_buffer
.L804:
	.loc 9 2857 20
	lw	a0,-68(s0)
	call	psa_mac_abort
	sw	a0,-28(s0)
	.loc 9 2858 9
	sw	zero,-24(s0)
.LBB14:
	.loc 9 2858 67
	addi	a5,s0,-44
	mv	a0,a5
	call	psa_crypto_local_output_free
	sw	a0,-32(s0)
	.loc 9 2858 136 discriminator 1
	lw	a5,-32(s0)
	beq	a5,zero,.L805
	.loc 9 2858 188 discriminator 2
	lw	a5,-32(s0)
	sw	a5,-20(s0)
.L805:
.LBE14:
	.loc 9 2860 55
	lw	a5,-20(s0)
	bne	a5,zero,.L806
	.loc 9 2860 55 is_stmt 0 discriminator 1
	lw	a5,-28(s0)
	.loc 9 2860 55
	j	.L808
.L806:
	.loc 9 2860 55 discriminator 2
	lw	a5,-20(s0)
.L808:
	.loc 9 2861 1 is_stmt 1
	mv	a0,a5
	lw	ra,76(sp)
	.cfi_restore 1
	lw	s0,72(sp)
	.cfi_restore 8
	.cfi_def_cfa 2, 80
	addi	sp,sp,80
	.cfi_def_cfa_offset 0
	jr	ra
	.cfi_endproc
.LFE220:
	.size	psa_mac_sign_finish, .-psa_mac_sign_finish
	.section	.text.psa_mac_verify_finish,"ax",@progbits
	.align	1
	.globl	psa_mac_verify_finish
	.type	psa_mac_verify_finish, @function
psa_mac_verify_finish:
.LFB221:
	.loc 9 2866 1
	.cfi_startproc
	addi	sp,sp,-64
	.cfi_def_cfa_offset 64
	sw	ra,60(sp)
	sw	s0,56(sp)
	.cfi_offset 1, -4
	.cfi_offset 8, -8
	addi	s0,sp,64
	.cfi_def_cfa 8, 0
	sw	a0,-52(s0)
	sw	a1,-56(s0)
	sw	a2,-60(s0)
	.loc 9 2867 18
	li	a5,-151
	sw	a5,-20(s0)
	.loc 9 2868 18
	li	a5,-151
	sw	a5,-24(s0)
	.loc 9 2869 30
	sw	zero,-36(s0)
	sw	zero,-32(s0)
	.loc 9 2869 27
	sw	zero,-28(s0)
	.loc 9 2871 18
	lw	a5,-52(s0)
	lw	a5,0(a5)
	.loc 9 2871 8
	bne	a5,zero,.L811
	.loc 9 2872 16
	li	a5,-137
	sw	a5,-20(s0)
	.loc 9 2873 9
	j	.L812
.L811:
	.loc 9 2876 9
	lw	a5,-52(s0)
	lbu	a5,5(a5)
	andi	a5,a5,1
	andi	a5,a5,0xff
	.loc 9 2876 8
	beq	a5,zero,.L813
	.loc 9 2877 16
	li	a5,-137
	sw	a5,-20(s0)
	.loc 9 2878 9
	j	.L812
.L813:
	.loc 9 2881 18
	lw	a5,-52(s0)
	lbu	a5,4(a5)
	mv	a4,a5
	.loc 9 2881 8
	lw	a5,-60(s0)
	beq	a5,a4,.L814
	.loc 9 2882 16
	li	a5,-149
	sw	a5,-20(s0)
	.loc 9 2883 9
	j	.L812
.L814:
	.loc 9 2886 14
	addi	a5,s0,-36
	mv	a2,a5
	lw	a1,-60(s0)
	lw	a0,-56(s0)
	call	psa_crypto_local_input_alloc
	sw	a0,-20(s0)
	.loc 9 2886 108 discriminator 1
	lw	a5,-20(s0)
	bne	a5,zero,.L819
	.loc 9 2886 157 discriminator 3
	lw	a5,-36(s0)
	sw	a5,-28(s0)
	.loc 9 2887 14
	lw	a2,-60(s0)
	lw	a1,-28(s0)
	lw	a0,-52(s0)
	call	psa_driver_wrapper_mac_verify_finish
	sw	a0,-20(s0)
	j	.L812
.L819:
	.loc 9 2886 140
	nop
.L812:
	.loc 9 2891 20
	lw	a0,-52(s0)
	call	psa_mac_abort
	sw	a0,-24(s0)
	.loc 9 2892 9
	sw	zero,-28(s0)
	.loc 9 2892 6
	addi	a5,s0,-36
	mv	a0,a5
	call	psa_crypto_local_input_free
	.loc 9 2894 55
	lw	a5,-20(s0)
	bne	a5,zero,.L816
	.loc 9 2894 55 is_stmt 0 discriminator 1
	lw	a5,-24(s0)
	.loc 9 2894 55
	j	.L818
.L816:
	.loc 9 2894 55 discriminator 2
	lw	a5,-20(s0)
.L818:
	.loc 9 2895 1 is_stmt 1
	mv	a0,a5
	lw	ra,60(sp)
	.cfi_restore 1
	lw	s0,56(sp)
	.cfi_restore 8
	.cfi_def_cfa 2, 64
	addi	sp,sp,64
	.cfi_def_cfa_offset 0
	jr	ra
	.cfi_endproc
.LFE221:
	.size	psa_mac_verify_finish, .-psa_mac_verify_finish
	.section	.text.psa_mac_compute_internal,"ax",@progbits
	.align	1
	.type	psa_mac_compute_internal, @function
psa_mac_compute_internal:
.LFB222:
	.loc 9 2905 1
	.cfi_startproc
	addi	sp,sp,-80
	.cfi_def_cfa_offset 80
	sw	ra,76(sp)
	sw	s0,72(sp)
	.cfi_offset 1, -4
	.cfi_offset 8, -8
	addi	s0,sp,80
	.cfi_def_cfa 8, 0
	sw	a0,-36(s0)
	sw	a1,-40(s0)
	sw	a2,-44(s0)
	sw	a3,-48(s0)
	sw	a4,-52(s0)
	sw	a5,-56(s0)
	sw	a6,-60(s0)
	sw	a7,-64(s0)
	.loc 9 2906 18
	li	a5,-151
	sw	a5,-20(s0)
	.loc 9 2907 18
	li	a5,-151
	sw	a5,-24(s0)
	.loc 9 2909 13
	sb	zero,-29(s0)
	.loc 9 2911 14
	lw	a5,-64(s0)
	beq	a5,zero,.L821
	.loc 9 2911 14 is_stmt 0 discriminator 1
	li	a5,1024
	j	.L822
.L821:
	.loc 9 2911 14 discriminator 2
	li	a5,4096
	addi	a5,a5,-2048
.L822:
	.loc 9 2911 14 discriminator 4
	addi	a4,s0,-28
	lw	a3,-40(s0)
	mv	a2,a5
	mv	a1,a4
	lw	a0,-36(s0)
	call	psa_get_and_lock_key_slot_with_policy
	sw	a0,-20(s0)
	.loc 9 2916 8 is_stmt 1
	lw	a5,-20(s0)
	bne	a5,zero,.L831
	.loc 9 2920 64
	lw	a5,-28(s0)
	.loc 9 2920 59
	mv	a4,a5
	.loc 9 2920 14
	addi	a5,s0,-29
	mv	a2,a5
	mv	a1,a4
	lw	a0,-40(s0)
	call	psa_mac_finalize_alg_and_key_validation
	sw	a0,-20(s0)
	.loc 9 2922 8
	lw	a5,-20(s0)
	bne	a5,zero,.L832
	.loc 9 2926 18
	lbu	a5,-29(s0)
	mv	a4,a5
	.loc 9 2926 8
	lw	a5,-56(s0)
	bgeu	a5,a4,.L826
	.loc 9 2927 16
	li	a5,-138
	sw	a5,-20(s0)
	.loc 9 2928 9
	j	.L824
.L826:
	.loc 9 2932 14
	lw	a5,-28(s0)
	.loc 9 2932 9
	mv	a0,a5
	.loc 9 2933 13
	lw	a5,-28(s0)
	.loc 9 2933 18
	lw	a1,32(a5)
	.loc 9 2933 29
	lw	a5,-28(s0)
	.loc 9 2931 14
	lw	a2,36(a5)
	lbu	a5,-29(s0)
	mv	a4,a5
	lw	a5,-60(s0)
	sw	a5,0(sp)
	mv	a7,a4
	lw	a6,-52(s0)
	lw	a5,-48(s0)
	lw	a4,-44(s0)
	lw	a3,-40(s0)
	call	psa_driver_wrapper_mac_compute
	sw	a0,-20(s0)
	j	.L824
.L831:
	.loc 9 2917 9
	nop
	j	.L824
.L832:
	.loc 9 2923 9
	nop
.L824:
	.loc 9 2945 8
	lw	a5,-20(s0)
	beq	a5,zero,.L827
	.loc 9 2946 21
	lw	a5,-60(s0)
	lw	a4,-56(s0)
	sw	a4,0(a5)
	.loc 9 2947 28
	sb	zero,-29(s0)
.L827:
	.loc 9 2950 5
	lw	a5,-60(s0)
	lw	a5,0(a5)
	mv	a3,a5
	lw	a2,-56(s0)
	lw	a1,-20(s0)
	lw	a0,-52(s0)
	call	psa_wipe_tag_output_buffer
	.loc 9 2952 21
	lw	a5,-28(s0)
	mv	a0,a5
	call	psa_unregister_read_under_mutex
	sw	a0,-24(s0)
	.loc 9 2954 58
	lw	a5,-20(s0)
	bne	a5,zero,.L828
	.loc 9 2954 58 is_stmt 0 discriminator 1
	lw	a5,-24(s0)
	.loc 9 2954 58
	j	.L830
.L828:
	.loc 9 2954 58 discriminator 2
	lw	a5,-20(s0)
.L830:
	.loc 9 2955 1 is_stmt 1
	mv	a0,a5
	lw	ra,76(sp)
	.cfi_restore 1
	lw	s0,72(sp)
	.cfi_restore 8
	.cfi_def_cfa 2, 80
	addi	sp,sp,80
	.cfi_def_cfa_offset 0
	jr	ra
	.cfi_endproc
.LFE222:
	.size	psa_mac_compute_internal, .-psa_mac_compute_internal
	.section	.text.psa_mac_compute,"ax",@progbits
	.align	1
	.globl	psa_mac_compute
	.type	psa_mac_compute, @function
psa_mac_compute:
.LFB223:
	.loc 9 2964 1
	.cfi_startproc
	addi	sp,sp,-112
	.cfi_def_cfa_offset 112
	sw	ra,108(sp)
	sw	s0,104(sp)
	.cfi_offset 1, -4
	.cfi_offset 8, -8
	addi	s0,sp,112
	.cfi_def_cfa 8, 0
	sw	a0,-84(s0)
	sw	a1,-88(s0)
	sw	a2,-92(s0)
	sw	a3,-96(s0)
	sw	a4,-100(s0)
	sw	a5,-104(s0)
	sw	a6,-108(s0)
	.loc 9 2965 18
	li	a5,-151
	sw	a5,-20(s0)
	.loc 9 2966 30
	sw	zero,-40(s0)
	sw	zero,-36(s0)
	.loc 9 2966 27
	sw	zero,-24(s0)
	.loc 9 2967 31
	sw	zero,-60(s0)
	sw	zero,-56(s0)
	sw	zero,-52(s0)
	.loc 9 2967 21
	sw	zero,-28(s0)
	.loc 9 2969 14
	addi	a5,s0,-40
	mv	a2,a5
	lw	a1,-96(s0)
	lw	a0,-92(s0)
	call	psa_crypto_local_input_alloc
	sw	a0,-20(s0)
	.loc 9 2969 114 discriminator 1
	lw	a5,-20(s0)
	bne	a5,zero,.L839
	.loc 9 2969 165 discriminator 3
	lw	a5,-40(s0)
	sw	a5,-24(s0)
	.loc 9 2970 14
	addi	a5,s0,-60
	mv	a2,a5
	lw	a1,-104(s0)
	lw	a0,-100(s0)
	call	psa_crypto_local_output_alloc
	sw	a0,-20(s0)
	.loc 9 2970 108 discriminator 1
	lw	a5,-20(s0)
	bne	a5,zero,.L840
	.loc 9 2970 157 discriminator 3
	lw	a5,-56(s0)
	sw	a5,-28(s0)
	.loc 9 2971 14
	li	a7,1
	lw	a6,-108(s0)
	lw	a5,-104(s0)
	lw	a4,-28(s0)
	lw	a3,-96(s0)
	lw	a2,-24(s0)
	lw	a1,-88(s0)
	lw	a0,-84(s0)
	call	psa_mac_compute_internal
	sw	a0,-20(s0)
	j	.L835
.L839:
	.loc 9 2969 146
	nop
	j	.L835
.L840:
	.loc 9 2970 140
	nop
.L835:
	.loc 9 2978 11
	sw	zero,-24(s0)
	.loc 9 2978 6
	addi	a5,s0,-40
	mv	a0,a5
	call	psa_crypto_local_input_free
	.loc 9 2979 9
	sw	zero,-28(s0)
.LBB15:
	.loc 9 2979 67
	addi	a5,s0,-60
	mv	a0,a5
	call	psa_crypto_local_output_free
	sw	a0,-32(s0)
	.loc 9 2979 136 discriminator 1
	lw	a5,-32(s0)
	beq	a5,zero,.L837
	.loc 9 2979 188 discriminator 2
	lw	a5,-32(s0)
	sw	a5,-20(s0)
.L837:
.LBE15:
	.loc 9 2981 12
	lw	a5,-20(s0)
	.loc 9 2982 1
	mv	a0,a5
	lw	ra,108(sp)
	.cfi_restore 1
	lw	s0,104(sp)
	.cfi_restore 8
	.cfi_def_cfa 2, 112
	addi	sp,sp,112
	.cfi_def_cfa_offset 0
	jr	ra
	.cfi_endproc
.LFE223:
	.size	psa_mac_compute, .-psa_mac_compute
	.section	.text.psa_mac_verify,"ax",@progbits
	.align	1
	.globl	psa_mac_verify
	.type	psa_mac_verify, @function
psa_mac_verify:
.LFB224:
	.loc 9 2990 1
	.cfi_startproc
	addi	sp,sp,-160
	.cfi_def_cfa_offset 160
	sw	ra,156(sp)
	sw	s0,152(sp)
	.cfi_offset 1, -4
	.cfi_offset 8, -8
	addi	s0,sp,160
	.cfi_def_cfa 8, 0
	sw	a0,-132(s0)
	sw	a1,-136(s0)
	sw	a2,-140(s0)
	sw	a3,-144(s0)
	sw	a4,-148(s0)
	sw	a5,-152(s0)
	.loc 9 2991 18
	li	a5,-151
	sw	a5,-20(s0)
	.loc 9 2994 30
	sw	zero,-104(s0)
	sw	zero,-100(s0)
	.loc 9 2994 27
	sw	zero,-24(s0)
	.loc 9 2995 30
	sw	zero,-120(s0)
	sw	zero,-116(s0)
	.loc 9 2995 27
	sw	zero,-28(s0)
	.loc 9 2997 14
	addi	a5,s0,-104
	mv	a2,a5
	lw	a1,-144(s0)
	lw	a0,-140(s0)
	call	psa_crypto_local_input_alloc
	sw	a0,-20(s0)
	.loc 9 2997 114 discriminator 1
	lw	a5,-20(s0)
	bne	a5,zero,.L848
	.loc 9 2997 165 discriminator 3
	lw	a5,-104(s0)
	sw	a5,-24(s0)
	.loc 9 2998 14
	addi	a5,s0,-96
	addi	a4,s0,-92
	li	a7,0
	mv	a6,a5
	li	a5,64
	lw	a3,-144(s0)
	lw	a2,-24(s0)
	lw	a1,-136(s0)
	lw	a0,-132(s0)
	call	psa_mac_compute_internal
	sw	a0,-20(s0)
	.loc 9 3002 8
	lw	a5,-20(s0)
	bne	a5,zero,.L849
	.loc 9 3006 20
	lw	a5,-96(s0)
	.loc 9 3006 8
	lw	a4,-152(s0)
	beq	a4,a5,.L845
	.loc 9 3007 16
	li	a5,-149
	sw	a5,-20(s0)
	.loc 9 3008 9
	j	.L843
.L845:
	.loc 9 3011 14
	addi	a5,s0,-120
	mv	a2,a5
	lw	a1,-152(s0)
	lw	a0,-148(s0)
	call	psa_crypto_local_input_alloc
	sw	a0,-20(s0)
	.loc 9 3011 108 discriminator 1
	lw	a5,-20(s0)
	bne	a5,zero,.L850
	.loc 9 3011 157 discriminator 3
	lw	a5,-120(s0)
	sw	a5,-28(s0)
	.loc 9 3012 9
	lw	a4,-96(s0)
	addi	a5,s0,-92
	mv	a2,a4
	mv	a1,a5
	lw	a0,-28(s0)
	call	mbedtls_ct_memcmp
	mv	a5,a0
	.loc 9 3012 8 discriminator 1
	beq	a5,zero,.L851
	.loc 9 3013 16
	li	a5,-149
	sw	a5,-20(s0)
	.loc 9 3014 9
	j	.L843
.L848:
	.loc 9 2997 146
	nop
	j	.L843
.L849:
	.loc 9 3003 9
	nop
	j	.L843
.L850:
	.loc 9 3011 140
	nop
	j	.L843
.L851:
	.loc 9 3017 1
	nop
.L843:
	.loc 9 3018 5
	addi	a5,s0,-92
	li	a1,64
	mv	a0,a5
	call	mbedtls_platform_zeroize
	.loc 9 3019 11
	sw	zero,-24(s0)
	.loc 9 3019 6
	addi	a5,s0,-104
	mv	a0,a5
	call	psa_crypto_local_input_free
	.loc 9 3020 9
	sw	zero,-28(s0)
	.loc 9 3020 6
	addi	a5,s0,-120
	mv	a0,a5
	call	psa_crypto_local_input_free
	.loc 9 3022 12
	lw	a5,-20(s0)
	.loc 9 3023 1
	mv	a0,a5
	lw	ra,156(sp)
	.cfi_restore 1
	lw	s0,152(sp)
	.cfi_restore 8
	.cfi_def_cfa 2, 160
	addi	sp,sp,160
	.cfi_def_cfa_offset 0
	jr	ra
	.cfi_endproc
.LFE224:
	.size	psa_mac_verify, .-psa_mac_verify
	.section	.text.psa_sign_verify_check_alg,"ax",@progbits
	.align	1
	.type	psa_sign_verify_check_alg, @function
psa_sign_verify_check_alg:
.LFB225:
	.loc 9 3031 1
	.cfi_startproc
	addi	sp,sp,-48
	.cfi_def_cfa_offset 48
	sw	ra,44(sp)
	sw	s0,40(sp)
	.cfi_offset 1, -4
	.cfi_offset 8, -8
	addi	s0,sp,48
	.cfi_def_cfa 8, 0
	sw	a0,-36(s0)
	sw	a1,-40(s0)
	.loc 9 3032 8
	lw	a5,-36(s0)
	beq	a5,zero,.L853
	.loc 9 3033 25
	lw	a5,-40(s0)
	andi	a4,a5,-256
	.loc 9 3033 12
	li	a5,100663296
	addi	a5,a5,768
	beq	a4,a5,.L853
	.loc 9 3033 106 discriminator 1
	lw	a5,-40(s0)
	andi	a4,a5,-256
	.loc 9 3033 95 discriminator 1
	li	a5,100667392
	addi	a5,a5,768
	beq	a4,a5,.L853
	.loc 9 3033 188 discriminator 2
	lw	a5,-40(s0)
	andi	a4,a5,-256
	.loc 9 3033 177 discriminator 2
	li	a5,100663296
	addi	a5,a5,512
	beq	a4,a5,.L853
	.loc 9 3033 303 discriminator 3
	lw	a5,-40(s0)
	andi	a4,a5,-512
	.loc 9 3033 258 discriminator 3
	li	a5,100663296
	addi	a5,a5,1536
	beq	a4,a5,.L853
	.loc 9 3033 384 discriminator 4
	lw	a5,-40(s0)
	andi	a4,a5,-256
	.loc 9 3033 373 discriminator 4
	li	a5,100667392
	addi	a5,a5,-1792
	beq	a4,a5,.L853
	.loc 9 3033 499 discriminator 5
	lw	a5,-40(s0)
	andi	a4,a5,-512
	.loc 9 3033 454 discriminator 5
	li	a5,100663296
	addi	a5,a5,1024
	beq	a4,a5,.L853
	.loc 9 3033 13 discriminator 6
	lw	a4,-40(s0)
	li	a5,100667392
	addi	a5,a5,-2048
	beq	a4,a5,.L853
	.loc 9 3034 20
	li	a5,-135
	j	.L854
.L853:
	.loc 9 3038 21
	sw	zero,-20(s0)
	.loc 9 3039 19
	lw	a5,-40(s0)
	andi	a4,a5,-256
	.loc 9 3039 8
	li	a5,100663296
	addi	a5,a5,768
	beq	a4,a5,.L855
	.loc 9 3039 100 discriminator 1
	lw	a5,-40(s0)
	andi	a4,a5,-256
	.loc 9 3039 89 discriminator 1
	li	a5,100667392
	addi	a5,a5,768
	beq	a4,a5,.L855
	.loc 9 3039 182 discriminator 2
	lw	a5,-40(s0)
	andi	a4,a5,-256
	.loc 9 3039 171 discriminator 2
	li	a5,100663296
	addi	a5,a5,512
	beq	a4,a5,.L855
	.loc 9 3039 297 discriminator 3
	lw	a5,-40(s0)
	andi	a4,a5,-512
	.loc 9 3039 252 discriminator 3
	li	a5,100663296
	addi	a5,a5,1536
	beq	a4,a5,.L855
	.loc 9 3039 378 discriminator 4
	lw	a5,-40(s0)
	andi	a4,a5,-256
	.loc 9 3039 367 discriminator 4
	li	a5,100667392
	addi	a5,a5,-1792
	beq	a4,a5,.L855
	.loc 9 3039 493 discriminator 5
	lw	a5,-40(s0)
	andi	a4,a5,-512
	.loc 9 3039 448 discriminator 5
	li	a5,100663296
	addi	a5,a5,1024
	bne	a4,a5,.L856
.L855:
	.loc 9 3040 32
	lw	a5,-40(s0)
	andi	a4,a5,-256
	.loc 9 3040 703
	li	a5,100663296
	addi	a5,a5,768
	beq	a4,a5,.L857
	.loc 9 3040 113 discriminator 2
	lw	a5,-40(s0)
	andi	a4,a5,-256
	.loc 9 3040 102 discriminator 2
	li	a5,100667392
	addi	a5,a5,768
	beq	a4,a5,.L857
	.loc 9 3040 195 discriminator 4
	lw	a5,-40(s0)
	andi	a4,a5,-256
	.loc 9 3040 184 discriminator 4
	li	a5,100663296
	addi	a5,a5,512
	beq	a4,a5,.L857
	.loc 9 3040 310 discriminator 6
	lw	a5,-40(s0)
	andi	a4,a5,-512
	.loc 9 3040 265 discriminator 6
	li	a5,100663296
	addi	a5,a5,1536
	beq	a4,a5,.L857
	.loc 9 3040 391 discriminator 8
	lw	a5,-40(s0)
	andi	a4,a5,-256
	.loc 9 3040 380 discriminator 8
	li	a5,100667392
	addi	a5,a5,-1792
	beq	a4,a5,.L857
	.loc 9 3040 506 discriminator 10
	lw	a5,-40(s0)
	andi	a4,a5,-512
	.loc 9 3040 461 discriminator 10
	li	a5,100663296
	addi	a5,a5,1024
	bne	a4,a5,.L858
.L857:
	.loc 9 3040 587 discriminator 11
	lw	a5,-40(s0)
	andi	a5,a5,255
	.loc 9 3040 577 discriminator 11
	beq	a5,zero,.L858
	.loc 9 3040 636 discriminator 13
	lw	a5,-40(s0)
	andi	a4,a5,255
	.loc 9 3040 18 discriminator 13
	li	a5,33554432
	or	a5,a4,a5
	sw	a5,-20(s0)
	.loc 9 3040 18 is_stmt 0
	j	.L856
.L858:
	.loc 9 3040 18 discriminator 14
	sw	zero,-20(s0)
.L856:
	.loc 9 3048 8 is_stmt 1
	lw	a5,-20(s0)
	bne	a5,zero,.L859
	.loc 9 3048 23 discriminator 1
	lw	a5,-36(s0)
	beq	a5,zero,.L859
	.loc 9 3049 16
	li	a5,-135
	j	.L854
.L859:
	.loc 9 3051 8
	lw	a4,-20(s0)
	li	a5,33554432
	addi	a5,a5,255
	bne	a4,a5,.L860
	.loc 9 3052 16
	li	a5,-135
	j	.L854
.L860:
	.loc 9 3072 8
	lw	a5,-20(s0)
	beq	a5,zero,.L861
	.loc 9 3072 27 discriminator 1
	lw	a0,-20(s0)
	call	is_hash_supported
	mv	a5,a0
	.loc 9 3072 23 discriminator 2
	bne	a5,zero,.L861
	.loc 9 3073 16
	li	a5,-134
	j	.L854
.L861:
	.loc 9 3076 12
	li	a5,0
.L854:
	.loc 9 3077 1
	mv	a0,a5
	lw	ra,44(sp)
	.cfi_restore 1
	lw	s0,40(sp)
	.cfi_restore 8
	.cfi_def_cfa 2, 48
	addi	sp,sp,48
	.cfi_def_cfa_offset 0
	jr	ra
	.cfi_endproc
.LFE225:
	.size	psa_sign_verify_check_alg, .-psa_sign_verify_check_alg
	.section	.text.psa_sign_internal,"ax",@progbits
	.align	1
	.type	psa_sign_internal, @function
psa_sign_internal:
.LFB226:
	.loc 9 3087 1
	.cfi_startproc
	addi	sp,sp,-80
	.cfi_def_cfa_offset 80
	sw	ra,76(sp)
	sw	s0,72(sp)
	.cfi_offset 1, -4
	.cfi_offset 8, -8
	addi	s0,sp,80
	.cfi_def_cfa 8, 0
	sw	a0,-36(s0)
	sw	a1,-40(s0)
	sw	a2,-44(s0)
	sw	a3,-48(s0)
	sw	a4,-52(s0)
	sw	a5,-56(s0)
	sw	a6,-60(s0)
	sw	a7,-64(s0)
	.loc 9 3088 18
	li	a5,-151
	sw	a5,-20(s0)
	.loc 9 3089 18
	li	a5,-151
	sw	a5,-24(s0)
	.loc 9 3092 23
	lw	a5,-64(s0)
	sw	zero,0(a5)
	.loc 9 3094 14
	lw	a1,-44(s0)
	lw	a0,-40(s0)
	call	psa_sign_verify_check_alg
	sw	a0,-20(s0)
	.loc 9 3095 8
	lw	a5,-20(s0)
	beq	a5,zero,.L863
	.loc 9 3096 16
	lw	a5,-20(s0)
	j	.L874
.L863:
	.loc 9 3103 8
	lw	a5,-60(s0)
	bne	a5,zero,.L865
	.loc 9 3104 16
	li	a5,-138
	j	.L874
.L865:
	.loc 9 3107 14
	lw	a5,-40(s0)
	beq	a5,zero,.L866
	.loc 9 3107 14 is_stmt 0 discriminator 1
	li	a5,1024
	j	.L867
.L866:
	.loc 9 3107 14 discriminator 2
	li	a5,4096
.L867:
	.loc 9 3107 14 discriminator 4
	addi	a4,s0,-28
	lw	a3,-44(s0)
	mv	a2,a5
	mv	a1,a4
	lw	a0,-36(s0)
	call	psa_get_and_lock_key_slot_with_policy
	sw	a0,-20(s0)
	.loc 9 3113 8 is_stmt 1
	lw	a5,-20(s0)
	bne	a5,zero,.L875
	.loc 9 3117 17
	lw	a5,-28(s0)
	.loc 9 3117 23
	lhu	a5,0(a5)
	.loc 9 3117 30
	mv	a4,a5
	li	a5,28672
	and	a4,a4,a5
	.loc 9 3117 8
	li	a5,28672
	beq	a4,a5,.L870
	.loc 9 3118 16
	li	a5,-135
	sw	a5,-20(s0)
	.loc 9 3119 9
	j	.L869
.L870:
	.loc 9 3122 8
	lw	a5,-40(s0)
	beq	a5,zero,.L871
	.loc 9 3124 18
	lw	a5,-28(s0)
	.loc 9 3124 13
	mv	a0,a5
	.loc 9 3124 30
	lw	a5,-28(s0)
	.loc 9 3124 35
	lw	a1,32(a5)
	.loc 9 3124 46
	lw	a5,-28(s0)
	.loc 9 3123 18
	lw	a2,36(a5)
	lw	a5,-64(s0)
	sw	a5,0(sp)
	lw	a7,-60(s0)
	lw	a6,-56(s0)
	lw	a5,-52(s0)
	lw	a4,-48(s0)
	lw	a3,-44(s0)
	call	psa_driver_wrapper_sign_message
	sw	a0,-20(s0)
	j	.L869
.L871:
	.loc 9 3130 18
	lw	a5,-28(s0)
	.loc 9 3130 13
	mv	a0,a5
	.loc 9 3130 30
	lw	a5,-28(s0)
	.loc 9 3130 35
	lw	a1,32(a5)
	.loc 9 3130 46
	lw	a5,-28(s0)
	.loc 9 3129 18
	lw	a2,36(a5)
	lw	a5,-64(s0)
	sw	a5,0(sp)
	lw	a7,-60(s0)
	lw	a6,-56(s0)
	lw	a5,-52(s0)
	lw	a4,-48(s0)
	lw	a3,-44(s0)
	call	psa_driver_wrapper_sign_hash
	sw	a0,-20(s0)
	j	.L869
.L875:
	.loc 9 3114 9
	nop
.L869:
	.loc 9 3137 5
	lw	a5,-64(s0)
	lw	a5,0(a5)
	mv	a3,a5
	lw	a2,-60(s0)
	lw	a1,-20(s0)
	lw	a0,-56(s0)
	call	psa_wipe_tag_output_buffer
	.loc 9 3140 21
	lw	a5,-28(s0)
	mv	a0,a5
	call	psa_unregister_read_under_mutex
	sw	a0,-24(s0)
	.loc 9 3142 58
	lw	a5,-20(s0)
	bne	a5,zero,.L872
	.loc 9 3142 58 is_stmt 0 discriminator 1
	lw	a5,-24(s0)
	.loc 9 3142 58
	j	.L874
.L872:
	.loc 9 3142 58 discriminator 2
	lw	a5,-20(s0)
.L874:
	.loc 9 3143 1 is_stmt 1
	mv	a0,a5
	lw	ra,76(sp)
	.cfi_restore 1
	lw	s0,72(sp)
	.cfi_restore 8
	.cfi_def_cfa 2, 80
	addi	sp,sp,80
	.cfi_def_cfa_offset 0
	jr	ra
	.cfi_endproc
.LFE226:
	.size	psa_sign_internal, .-psa_sign_internal
	.section	.text.psa_verify_internal,"ax",@progbits
	.align	1
	.type	psa_verify_internal, @function
psa_verify_internal:
.LFB227:
	.loc 9 3152 1
	.cfi_startproc
	addi	sp,sp,-64
	.cfi_def_cfa_offset 64
	sw	ra,60(sp)
	sw	s0,56(sp)
	.cfi_offset 1, -4
	.cfi_offset 8, -8
	addi	s0,sp,64
	.cfi_def_cfa 8, 0
	sw	a0,-36(s0)
	sw	a1,-40(s0)
	sw	a2,-44(s0)
	sw	a3,-48(s0)
	sw	a4,-52(s0)
	sw	a5,-56(s0)
	sw	a6,-60(s0)
	.loc 9 3153 18
	li	a5,-151
	sw	a5,-20(s0)
	.loc 9 3154 18
	li	a5,-151
	sw	a5,-24(s0)
	.loc 9 3157 14
	lw	a1,-44(s0)
	lw	a0,-40(s0)
	call	psa_sign_verify_check_alg
	sw	a0,-20(s0)
	.loc 9 3158 8
	lw	a5,-20(s0)
	beq	a5,zero,.L877
	.loc 9 3159 16
	lw	a5,-20(s0)
	j	.L886
.L877:
	.loc 9 3162 14
	lw	a5,-40(s0)
	beq	a5,zero,.L879
	.loc 9 3162 14 is_stmt 0 discriminator 1
	li	a5,4096
	addi	a5,a5,-2048
	j	.L880
.L879:
	.loc 9 3162 14 discriminator 2
	li	a5,8192
.L880:
	.loc 9 3162 14 discriminator 4
	addi	a4,s0,-28
	lw	a3,-44(s0)
	mv	a2,a5
	mv	a1,a4
	lw	a0,-36(s0)
	call	psa_get_and_lock_key_slot_with_policy
	sw	a0,-20(s0)
	.loc 9 3168 8 is_stmt 1
	lw	a5,-20(s0)
	beq	a5,zero,.L881
	.loc 9 3169 16
	lw	a5,-20(s0)
	j	.L886
.L881:
	.loc 9 3172 8
	lw	a5,-40(s0)
	beq	a5,zero,.L882
	.loc 9 3174 18
	lw	a5,-28(s0)
	.loc 9 3174 13
	mv	a0,a5
	.loc 9 3174 30
	lw	a5,-28(s0)
	.loc 9 3174 35
	lw	a1,32(a5)
	.loc 9 3174 46
	lw	a5,-28(s0)
	.loc 9 3173 18
	lw	a2,36(a5)
	lw	a7,-60(s0)
	lw	a6,-56(s0)
	lw	a5,-52(s0)
	lw	a4,-48(s0)
	lw	a3,-44(s0)
	call	psa_driver_wrapper_verify_message
	sw	a0,-20(s0)
	j	.L883
.L882:
	.loc 9 3179 18
	lw	a5,-28(s0)
	.loc 9 3179 13
	mv	a0,a5
	.loc 9 3179 30
	lw	a5,-28(s0)
	.loc 9 3179 35
	lw	a1,32(a5)
	.loc 9 3179 46
	lw	a5,-28(s0)
	.loc 9 3178 18
	lw	a2,36(a5)
	lw	a7,-60(s0)
	lw	a6,-56(s0)
	lw	a5,-52(s0)
	lw	a4,-48(s0)
	lw	a3,-44(s0)
	call	psa_driver_wrapper_verify_hash
	sw	a0,-20(s0)
.L883:
	.loc 9 3184 21
	lw	a5,-28(s0)
	mv	a0,a5
	call	psa_unregister_read_under_mutex
	sw	a0,-24(s0)
	.loc 9 3186 58
	lw	a5,-20(s0)
	bne	a5,zero,.L884
	.loc 9 3186 58 is_stmt 0 discriminator 1
	lw	a5,-24(s0)
	.loc 9 3186 58
	j	.L886
.L884:
	.loc 9 3186 58 discriminator 2
	lw	a5,-20(s0)
.L886:
	.loc 9 3188 1 is_stmt 1
	mv	a0,a5
	lw	ra,60(sp)
	.cfi_restore 1
	lw	s0,56(sp)
	.cfi_restore 8
	.cfi_def_cfa 2, 64
	addi	sp,sp,64
	.cfi_def_cfa_offset 0
	jr	ra
	.cfi_endproc
.LFE227:
	.size	psa_verify_internal, .-psa_verify_internal
	.section	.text.psa_sign_message_builtin,"ax",@progbits
	.align	1
	.globl	psa_sign_message_builtin
	.type	psa_sign_message_builtin, @function
psa_sign_message_builtin:
.LFB228:
	.loc 9 3200 1
	.cfi_startproc
	addi	sp,sp,-144
	.cfi_def_cfa_offset 144
	sw	ra,140(sp)
	sw	s0,136(sp)
	.cfi_offset 1, -4
	.cfi_offset 8, -8
	addi	s0,sp,144
	.cfi_def_cfa 8, 0
	sw	a0,-100(s0)
	sw	a1,-104(s0)
	sw	a2,-108(s0)
	sw	a3,-112(s0)
	sw	a4,-116(s0)
	sw	a5,-120(s0)
	sw	a6,-124(s0)
	sw	a7,-128(s0)
	.loc 9 3201 18
	li	a5,-151
	sw	a5,-20(s0)
	.loc 9 3203 19
	lw	a5,-112(s0)
	andi	a4,a5,-256
	.loc 9 3203 8
	li	a5,100663296
	addi	a5,a5,768
	beq	a4,a5,.L888
	.loc 9 3203 100 discriminator 1
	lw	a5,-112(s0)
	andi	a4,a5,-256
	.loc 9 3203 89 discriminator 1
	li	a5,100667392
	addi	a5,a5,768
	beq	a4,a5,.L888
	.loc 9 3203 182 discriminator 2
	lw	a5,-112(s0)
	andi	a4,a5,-256
	.loc 9 3203 171 discriminator 2
	li	a5,100663296
	addi	a5,a5,512
	beq	a4,a5,.L888
	.loc 9 3203 297 discriminator 3
	lw	a5,-112(s0)
	andi	a4,a5,-512
	.loc 9 3203 252 discriminator 3
	li	a5,100663296
	addi	a5,a5,1536
	beq	a4,a5,.L888
	.loc 9 3203 378 discriminator 4
	lw	a5,-112(s0)
	andi	a4,a5,-256
	.loc 9 3203 367 discriminator 4
	li	a5,100667392
	addi	a5,a5,-1792
	beq	a4,a5,.L888
	.loc 9 3203 493 discriminator 5
	lw	a5,-112(s0)
	andi	a4,a5,-512
	.loc 9 3203 448 discriminator 5
	li	a5,100663296
	addi	a5,a5,1024
	bne	a4,a5,.L889
.L888:
.LBB16:
	.loc 9 3208 25
	lw	a5,-112(s0)
	andi	a4,a5,-256
	.loc 9 3207 18
	li	a5,100663296
	addi	a5,a5,768
	beq	a4,a5,.L890
	.loc 9 3208 106
	lw	a5,-112(s0)
	andi	a4,a5,-256
	.loc 9 3208 95
	li	a5,100667392
	addi	a5,a5,768
	beq	a4,a5,.L890
	.loc 9 3208 188 discriminator 2
	lw	a5,-112(s0)
	andi	a4,a5,-256
	.loc 9 3208 177 discriminator 2
	li	a5,100663296
	addi	a5,a5,512
	beq	a4,a5,.L890
	.loc 9 3208 303 discriminator 4
	lw	a5,-112(s0)
	andi	a4,a5,-512
	.loc 9 3208 258 discriminator 4
	li	a5,100663296
	addi	a5,a5,1536
	beq	a4,a5,.L890
	.loc 9 3208 384 discriminator 6
	lw	a5,-112(s0)
	andi	a4,a5,-256
	.loc 9 3208 373 discriminator 6
	li	a5,100667392
	addi	a5,a5,-1792
	beq	a4,a5,.L890
	.loc 9 3208 499 discriminator 8
	lw	a5,-112(s0)
	andi	a4,a5,-512
	.loc 9 3208 454 discriminator 8
	li	a5,100663296
	addi	a5,a5,1024
	bne	a4,a5,.L891
.L890:
	.loc 9 3208 580 discriminator 9
	lw	a5,-112(s0)
	andi	a5,a5,255
	.loc 9 3208 570 discriminator 9
	beq	a5,zero,.L891
	.loc 9 3208 629 discriminator 10
	lw	a5,-112(s0)
	andi	a4,a5,255
	.loc 9 3207 18
	li	a5,33554432
	or	a0,a4,a5
	j	.L892
.L891:
	.loc 9 3207 18 is_stmt 0 discriminator 2
	li	a0,0
.L892:
	.loc 9 3207 18 discriminator 1
	addi	a5,s0,-24
	addi	a3,s0,-88
	li	a4,64
	lw	a2,-120(s0)
	lw	a1,-116(s0)
	call	psa_driver_wrapper_hash_compute
	sw	a0,-20(s0)
	.loc 9 3212 12 is_stmt 1
	lw	a5,-20(s0)
	beq	a5,zero,.L893
	.loc 9 3213 20
	lw	a5,-20(s0)
	j	.L895
.L893:
	.loc 9 3216 16
	lw	a3,-24(s0)
	addi	a4,s0,-88
	lw	a5,0(s0)
	sw	a5,0(sp)
	lw	a7,-128(s0)
	lw	a6,-124(s0)
	mv	a5,a3
	lw	a3,-112(s0)
	lw	a2,-108(s0)
	lw	a1,-104(s0)
	lw	a0,-100(s0)
	call	psa_driver_wrapper_sign_hash
	mv	a5,a0
	j	.L895
.L889:
.LBE16:
	.loc 9 3222 12
	li	a5,-134
.L895:
	.loc 9 3223 1
	mv	a0,a5
	lw	ra,140(sp)
	.cfi_restore 1
	lw	s0,136(sp)
	.cfi_restore 8
	.cfi_def_cfa 2, 144
	addi	sp,sp,144
	.cfi_def_cfa_offset 0
	jr	ra
	.cfi_endproc
.LFE228:
	.size	psa_sign_message_builtin, .-psa_sign_message_builtin
	.section	.text.psa_sign_message,"ax",@progbits
	.align	1
	.globl	psa_sign_message
	.type	psa_sign_message, @function
psa_sign_message:
.LFB229:
	.loc 9 3232 1
	.cfi_startproc
	addi	sp,sp,-112
	.cfi_def_cfa_offset 112
	sw	ra,108(sp)
	sw	s0,104(sp)
	.cfi_offset 1, -4
	.cfi_offset 8, -8
	addi	s0,sp,112
	.cfi_def_cfa 8, 0
	sw	a0,-84(s0)
	sw	a1,-88(s0)
	sw	a2,-92(s0)
	sw	a3,-96(s0)
	sw	a4,-100(s0)
	sw	a5,-104(s0)
	sw	a6,-108(s0)
	.loc 9 3233 18
	li	a5,-151
	sw	a5,-20(s0)
	.loc 9 3234 30
	sw	zero,-40(s0)
	sw	zero,-36(s0)
	.loc 9 3234 27
	sw	zero,-24(s0)
	.loc 9 3235 31
	sw	zero,-60(s0)
	sw	zero,-56(s0)
	sw	zero,-52(s0)
	.loc 9 3235 21
	sw	zero,-28(s0)
	.loc 9 3237 14
	addi	a5,s0,-40
	mv	a2,a5
	lw	a1,-96(s0)
	lw	a0,-92(s0)
	call	psa_crypto_local_input_alloc
	sw	a0,-20(s0)
	.loc 9 3237 114 discriminator 1
	lw	a5,-20(s0)
	bne	a5,zero,.L902
	.loc 9 3237 165 discriminator 3
	lw	a5,-40(s0)
	sw	a5,-24(s0)
	.loc 9 3238 14
	addi	a5,s0,-60
	mv	a2,a5
	lw	a1,-104(s0)
	lw	a0,-100(s0)
	call	psa_crypto_local_output_alloc
	sw	a0,-20(s0)
	.loc 9 3238 126 discriminator 1
	lw	a5,-20(s0)
	bne	a5,zero,.L903
	.loc 9 3238 181 discriminator 3
	lw	a5,-56(s0)
	sw	a5,-28(s0)
	.loc 9 3239 14
	lw	a7,-108(s0)
	lw	a6,-104(s0)
	lw	a5,-28(s0)
	lw	a4,-96(s0)
	lw	a3,-24(s0)
	lw	a2,-88(s0)
	li	a1,1
	lw	a0,-84(s0)
	call	psa_sign_internal
	sw	a0,-20(s0)
	j	.L898
.L902:
	.loc 9 3237 146
	nop
	j	.L898
.L903:
	.loc 9 3238 158
	nop
.L898:
	.loc 9 3245 11
	sw	zero,-24(s0)
	.loc 9 3245 6
	addi	a5,s0,-40
	mv	a0,a5
	call	psa_crypto_local_input_free
	.loc 9 3246 15
	sw	zero,-28(s0)
.LBB17:
	.loc 9 3246 67
	addi	a5,s0,-60
	mv	a0,a5
	call	psa_crypto_local_output_free
	sw	a0,-32(s0)
	.loc 9 3246 142 discriminator 1
	lw	a5,-32(s0)
	beq	a5,zero,.L900
	.loc 9 3246 194 discriminator 2
	lw	a5,-32(s0)
	sw	a5,-20(s0)
.L900:
.LBE17:
	.loc 9 3247 12
	lw	a5,-20(s0)
	.loc 9 3248 1
	mv	a0,a5
	lw	ra,108(sp)
	.cfi_restore 1
	lw	s0,104(sp)
	.cfi_restore 8
	.cfi_def_cfa 2, 112
	addi	sp,sp,112
	.cfi_def_cfa_offset 0
	jr	ra
	.cfi_endproc
.LFE229:
	.size	psa_sign_message, .-psa_sign_message
	.section	.text.psa_verify_message_builtin,"ax",@progbits
	.align	1
	.globl	psa_verify_message_builtin
	.type	psa_verify_message_builtin, @function
psa_verify_message_builtin:
.LFB230:
	.loc 9 3259 1
	.cfi_startproc
	addi	sp,sp,-128
	.cfi_def_cfa_offset 128
	sw	ra,124(sp)
	sw	s0,120(sp)
	.cfi_offset 1, -4
	.cfi_offset 8, -8
	addi	s0,sp,128
	.cfi_def_cfa 8, 0
	sw	a0,-100(s0)
	sw	a1,-104(s0)
	sw	a2,-108(s0)
	sw	a3,-112(s0)
	sw	a4,-116(s0)
	sw	a5,-120(s0)
	sw	a6,-124(s0)
	sw	a7,-128(s0)
	.loc 9 3260 18
	li	a5,-151
	sw	a5,-20(s0)
	.loc 9 3262 19
	lw	a5,-112(s0)
	andi	a4,a5,-256
	.loc 9 3262 8
	li	a5,100663296
	addi	a5,a5,768
	beq	a4,a5,.L905
	.loc 9 3262 100 discriminator 1
	lw	a5,-112(s0)
	andi	a4,a5,-256
	.loc 9 3262 89 discriminator 1
	li	a5,100667392
	addi	a5,a5,768
	beq	a4,a5,.L905
	.loc 9 3262 182 discriminator 2
	lw	a5,-112(s0)
	andi	a4,a5,-256
	.loc 9 3262 171 discriminator 2
	li	a5,100663296
	addi	a5,a5,512
	beq	a4,a5,.L905
	.loc 9 3262 297 discriminator 3
	lw	a5,-112(s0)
	andi	a4,a5,-512
	.loc 9 3262 252 discriminator 3
	li	a5,100663296
	addi	a5,a5,1536
	beq	a4,a5,.L905
	.loc 9 3262 378 discriminator 4
	lw	a5,-112(s0)
	andi	a4,a5,-256
	.loc 9 3262 367 discriminator 4
	li	a5,100667392
	addi	a5,a5,-1792
	beq	a4,a5,.L905
	.loc 9 3262 493 discriminator 5
	lw	a5,-112(s0)
	andi	a4,a5,-512
	.loc 9 3262 448 discriminator 5
	li	a5,100663296
	addi	a5,a5,1024
	bne	a4,a5,.L906
.L905:
.LBB18:
	.loc 9 3267 25
	lw	a5,-112(s0)
	andi	a4,a5,-256
	.loc 9 3266 18
	li	a5,100663296
	addi	a5,a5,768
	beq	a4,a5,.L907
	.loc 9 3267 106
	lw	a5,-112(s0)
	andi	a4,a5,-256
	.loc 9 3267 95
	li	a5,100667392
	addi	a5,a5,768
	beq	a4,a5,.L907
	.loc 9 3267 188 discriminator 2
	lw	a5,-112(s0)
	andi	a4,a5,-256
	.loc 9 3267 177 discriminator 2
	li	a5,100663296
	addi	a5,a5,512
	beq	a4,a5,.L907
	.loc 9 3267 303 discriminator 4
	lw	a5,-112(s0)
	andi	a4,a5,-512
	.loc 9 3267 258 discriminator 4
	li	a5,100663296
	addi	a5,a5,1536
	beq	a4,a5,.L907
	.loc 9 3267 384 discriminator 6
	lw	a5,-112(s0)
	andi	a4,a5,-256
	.loc 9 3267 373 discriminator 6
	li	a5,100667392
	addi	a5,a5,-1792
	beq	a4,a5,.L907
	.loc 9 3267 499 discriminator 8
	lw	a5,-112(s0)
	andi	a4,a5,-512
	.loc 9 3267 454 discriminator 8
	li	a5,100663296
	addi	a5,a5,1024
	bne	a4,a5,.L908
.L907:
	.loc 9 3267 580 discriminator 9
	lw	a5,-112(s0)
	andi	a5,a5,255
	.loc 9 3267 570 discriminator 9
	beq	a5,zero,.L908
	.loc 9 3267 629 discriminator 10
	lw	a5,-112(s0)
	andi	a4,a5,255
	.loc 9 3266 18
	li	a5,33554432
	or	a0,a4,a5
	j	.L909
.L908:
	.loc 9 3266 18 is_stmt 0 discriminator 2
	li	a0,0
.L909:
	.loc 9 3266 18 discriminator 1
	addi	a5,s0,-24
	addi	a3,s0,-88
	li	a4,64
	lw	a2,-120(s0)
	lw	a1,-116(s0)
	call	psa_driver_wrapper_hash_compute
	sw	a0,-20(s0)
	.loc 9 3271 12 is_stmt 1
	lw	a5,-20(s0)
	beq	a5,zero,.L910
	.loc 9 3272 20
	lw	a5,-20(s0)
	j	.L912
.L910:
	.loc 9 3275 16
	lw	a5,-24(s0)
	addi	a4,s0,-88
	lw	a7,-128(s0)
	lw	a6,-124(s0)
	lw	a3,-112(s0)
	lw	a2,-108(s0)
	lw	a1,-104(s0)
	lw	a0,-100(s0)
	call	psa_driver_wrapper_verify_hash
	mv	a5,a0
	j	.L912
.L906:
.LBE18:
	.loc 9 3281 12
	li	a5,-134
.L912:
	.loc 9 3282 1
	mv	a0,a5
	lw	ra,124(sp)
	.cfi_restore 1
	lw	s0,120(sp)
	.cfi_restore 8
	.cfi_def_cfa 2, 128
	addi	sp,sp,128
	.cfi_def_cfa_offset 0
	jr	ra
	.cfi_endproc
.LFE230:
	.size	psa_verify_message_builtin, .-psa_verify_message_builtin
	.section	.text.psa_verify_message,"ax",@progbits
	.align	1
	.globl	psa_verify_message
	.type	psa_verify_message, @function
psa_verify_message:
.LFB231:
	.loc 9 3290 1
	.cfi_startproc
	addi	sp,sp,-96
	.cfi_def_cfa_offset 96
	sw	ra,92(sp)
	sw	s0,88(sp)
	.cfi_offset 1, -4
	.cfi_offset 8, -8
	addi	s0,sp,96
	.cfi_def_cfa 8, 0
	sw	a0,-68(s0)
	sw	a1,-72(s0)
	sw	a2,-76(s0)
	sw	a3,-80(s0)
	sw	a4,-84(s0)
	sw	a5,-88(s0)
	.loc 9 3291 18
	li	a5,-151
	sw	a5,-20(s0)
	.loc 9 3292 30
	sw	zero,-36(s0)
	sw	zero,-32(s0)
	.loc 9 3292 27
	sw	zero,-24(s0)
	.loc 9 3293 30
	sw	zero,-52(s0)
	sw	zero,-48(s0)
	.loc 9 3293 27
	sw	zero,-28(s0)
	.loc 9 3295 14
	addi	a5,s0,-36
	mv	a2,a5
	lw	a1,-80(s0)
	lw	a0,-76(s0)
	call	psa_crypto_local_input_alloc
	sw	a0,-20(s0)
	.loc 9 3295 114 discriminator 1
	lw	a5,-20(s0)
	bne	a5,zero,.L918
	.loc 9 3295 165 discriminator 3
	lw	a5,-36(s0)
	sw	a5,-24(s0)
	.loc 9 3296 14
	addi	a5,s0,-52
	mv	a2,a5
	lw	a1,-88(s0)
	lw	a0,-84(s0)
	call	psa_crypto_local_input_alloc
	sw	a0,-20(s0)
	.loc 9 3296 126 discriminator 1
	lw	a5,-20(s0)
	bne	a5,zero,.L919
	.loc 9 3296 181 discriminator 3
	lw	a5,-52(s0)
	sw	a5,-28(s0)
	.loc 9 3297 14
	lw	a6,-88(s0)
	lw	a5,-28(s0)
	lw	a4,-80(s0)
	lw	a3,-24(s0)
	lw	a2,-72(s0)
	li	a1,1
	lw	a0,-68(s0)
	call	psa_verify_internal
	sw	a0,-20(s0)
	j	.L915
.L918:
	.loc 9 3295 146
	nop
	j	.L915
.L919:
	.loc 9 3296 158
	nop
.L915:
	.loc 9 3303 11
	sw	zero,-24(s0)
	.loc 9 3303 6
	addi	a5,s0,-36
	mv	a0,a5
	call	psa_crypto_local_input_free
	.loc 9 3304 15
	sw	zero,-28(s0)
	.loc 9 3304 6
	addi	a5,s0,-52
	mv	a0,a5
	call	psa_crypto_local_input_free
	.loc 9 3306 12
	lw	a5,-20(s0)
	.loc 9 3307 1
	mv	a0,a5
	lw	ra,92(sp)
	.cfi_restore 1
	lw	s0,88(sp)
	.cfi_restore 8
	.cfi_def_cfa 2, 96
	addi	sp,sp,96
	.cfi_def_cfa_offset 0
	jr	ra
	.cfi_endproc
.LFE231:
	.size	psa_verify_message, .-psa_verify_message
	.section	.text.psa_sign_hash_builtin,"ax",@progbits
	.align	1
	.globl	psa_sign_hash_builtin
	.type	psa_sign_hash_builtin, @function
psa_sign_hash_builtin:
.LFB232:
	.loc 9 3314 1
	.cfi_startproc
	addi	sp,sp,-64
	.cfi_def_cfa_offset 64
	sw	ra,60(sp)
	sw	s0,56(sp)
	.cfi_offset 1, -4
	.cfi_offset 8, -8
	addi	s0,sp,64
	.cfi_def_cfa 8, 0
	sw	a0,-20(s0)
	sw	a1,-24(s0)
	sw	a2,-28(s0)
	sw	a3,-32(s0)
	sw	a4,-36(s0)
	sw	a5,-40(s0)
	sw	a6,-44(s0)
	sw	a7,-48(s0)
	.loc 9 3315 19
	lw	a5,-20(s0)
	lhu	a4,0(a5)
	.loc 9 3315 8
	li	a5,28672
	addi	a5,a5,1
	bne	a4,a5,.L921
	.loc 9 3316 21
	lw	a5,-32(s0)
	andi	a4,a5,-256
	.loc 9 3316 12
	li	a5,100663296
	addi	a5,a5,512
	beq	a4,a5,.L922
	.loc 9 3317 22
	lw	a5,-32(s0)
	andi	a4,a5,-256
	.loc 9 3316 91 discriminator 1
	li	a5,100663296
	addi	a5,a5,768
	beq	a4,a5,.L922
	.loc 9 3317 103
	lw	a5,-32(s0)
	andi	a4,a5,-256
	.loc 9 3317 92
	li	a5,100667392
	addi	a5,a5,768
	bne	a4,a5,.L923
.L922:
	.loc 9 3320 20
	lw	a5,0(s0)
	sw	a5,0(sp)
	lw	a7,-48(s0)
	lw	a6,-44(s0)
	lw	a5,-40(s0)
	lw	a4,-36(s0)
	lw	a3,-32(s0)
	lw	a2,-28(s0)
	lw	a1,-24(s0)
	lw	a0,-20(s0)
	call	mbedtls_psa_rsa_sign_hash
	mv	a5,a0
	j	.L924
.L923:
	.loc 9 3328 20
	li	a5,-135
	j	.L924
.L921:
	.loc 9 3330 30
	lw	a5,-20(s0)
	lhu	a5,0(a5)
	mv	a4,a5
	.loc 9 3330 68
	li	a5,-12288
	addi	a5,a5,-256
	and	a4,a4,a5
	.loc 9 3330 15
	li	a5,16384
	addi	a5,a5,256
	bne	a4,a5,.L925
	.loc 9 3331 55
	lw	a5,-32(s0)
	andi	a4,a5,-512
	.loc 9 3331 12
	li	a5,100663296
	addi	a5,a5,1536
	bne	a4,a5,.L926
	.loc 9 3334 20
	lw	a5,0(s0)
	sw	a5,0(sp)
	lw	a7,-48(s0)
	lw	a6,-44(s0)
	lw	a5,-40(s0)
	lw	a4,-36(s0)
	lw	a3,-32(s0)
	lw	a2,-28(s0)
	lw	a1,-24(s0)
	lw	a0,-20(s0)
	call	mbedtls_psa_ecdsa_sign_hash
	mv	a5,a0
	j	.L924
.L926:
	.loc 9 3342 20
	li	a5,-135
	j	.L924
.L925:
	.loc 9 3354 12
	li	a5,-134
.L924:
	.loc 9 3355 1
	mv	a0,a5
	lw	ra,60(sp)
	.cfi_restore 1
	lw	s0,56(sp)
	.cfi_restore 8
	.cfi_def_cfa 2, 64
	addi	sp,sp,64
	.cfi_def_cfa_offset 0
	jr	ra
	.cfi_endproc
.LFE232:
	.size	psa_sign_hash_builtin, .-psa_sign_hash_builtin
	.section	.text.psa_sign_hash,"ax",@progbits
	.align	1
	.globl	psa_sign_hash
	.type	psa_sign_hash, @function
psa_sign_hash:
.LFB233:
	.loc 9 3364 1
	.cfi_startproc
	addi	sp,sp,-112
	.cfi_def_cfa_offset 112
	sw	ra,108(sp)
	sw	s0,104(sp)
	.cfi_offset 1, -4
	.cfi_offset 8, -8
	addi	s0,sp,112
	.cfi_def_cfa 8, 0
	sw	a0,-84(s0)
	sw	a1,-88(s0)
	sw	a2,-92(s0)
	sw	a3,-96(s0)
	sw	a4,-100(s0)
	sw	a5,-104(s0)
	sw	a6,-108(s0)
	.loc 9 3365 18
	li	a5,-151
	sw	a5,-20(s0)
	.loc 9 3366 30
	sw	zero,-40(s0)
	sw	zero,-36(s0)
	.loc 9 3366 27
	sw	zero,-24(s0)
	.loc 9 3367 31
	sw	zero,-60(s0)
	sw	zero,-56(s0)
	sw	zero,-52(s0)
	.loc 9 3367 21
	sw	zero,-28(s0)
	.loc 9 3369 14
	addi	a5,s0,-40
	mv	a2,a5
	lw	a1,-96(s0)
	lw	a0,-92(s0)
	call	psa_crypto_local_input_alloc
	sw	a0,-20(s0)
	.loc 9 3369 111 discriminator 1
	lw	a5,-20(s0)
	bne	a5,zero,.L933
	.loc 9 3369 161 discriminator 3
	lw	a5,-40(s0)
	sw	a5,-24(s0)
	.loc 9 3370 14
	addi	a5,s0,-60
	mv	a2,a5
	lw	a1,-104(s0)
	lw	a0,-100(s0)
	call	psa_crypto_local_output_alloc
	sw	a0,-20(s0)
	.loc 9 3370 126 discriminator 1
	lw	a5,-20(s0)
	bne	a5,zero,.L934
	.loc 9 3370 181 discriminator 3
	lw	a5,-56(s0)
	sw	a5,-28(s0)
	.loc 9 3371 14
	lw	a7,-108(s0)
	lw	a6,-104(s0)
	lw	a5,-28(s0)
	lw	a4,-96(s0)
	lw	a3,-24(s0)
	lw	a2,-88(s0)
	li	a1,0
	lw	a0,-84(s0)
	call	psa_sign_internal
	sw	a0,-20(s0)
	j	.L929
.L933:
	.loc 9 3369 143
	nop
	j	.L929
.L934:
	.loc 9 3370 158
	nop
.L929:
	.loc 9 3377 10
	sw	zero,-24(s0)
	.loc 9 3377 6
	addi	a5,s0,-40
	mv	a0,a5
	call	psa_crypto_local_input_free
	.loc 9 3378 15
	sw	zero,-28(s0)
.LBB19:
	.loc 9 3378 67
	addi	a5,s0,-60
	mv	a0,a5
	call	psa_crypto_local_output_free
	sw	a0,-32(s0)
	.loc 9 3378 142 discriminator 1
	lw	a5,-32(s0)
	beq	a5,zero,.L931
	.loc 9 3378 194 discriminator 2
	lw	a5,-32(s0)
	sw	a5,-20(s0)
.L931:
.LBE19:
	.loc 9 3380 12
	lw	a5,-20(s0)
	.loc 9 3381 1
	mv	a0,a5
	lw	ra,108(sp)
	.cfi_restore 1
	lw	s0,104(sp)
	.cfi_restore 8
	.cfi_def_cfa 2, 112
	addi	sp,sp,112
	.cfi_def_cfa_offset 0
	jr	ra
	.cfi_endproc
.LFE233:
	.size	psa_sign_hash, .-psa_sign_hash
	.section	.text.psa_verify_hash_builtin,"ax",@progbits
	.align	1
	.globl	psa_verify_hash_builtin
	.type	psa_verify_hash_builtin, @function
psa_verify_hash_builtin:
.LFB234:
	.loc 9 3388 1
	.cfi_startproc
	addi	sp,sp,-48
	.cfi_def_cfa_offset 48
	sw	ra,44(sp)
	sw	s0,40(sp)
	.cfi_offset 1, -4
	.cfi_offset 8, -8
	addi	s0,sp,48
	.cfi_def_cfa 8, 0
	sw	a0,-20(s0)
	sw	a1,-24(s0)
	sw	a2,-28(s0)
	sw	a3,-32(s0)
	sw	a4,-36(s0)
	sw	a5,-40(s0)
	sw	a6,-44(s0)
	sw	a7,-48(s0)
	.loc 9 3389 22
	lw	a5,-20(s0)
	lhu	a5,0(a5)
	mv	a4,a5
	.loc 9 3389 30
	li	a5,-12288
	addi	a5,a5,-1
	and	a4,a4,a5
	.loc 9 3389 8
	li	a5,16384
	addi	a5,a5,1
	bne	a4,a5,.L936
	.loc 9 3390 21
	lw	a5,-32(s0)
	andi	a4,a5,-256
	.loc 9 3390 12
	li	a5,100663296
	addi	a5,a5,512
	beq	a4,a5,.L937
	.loc 9 3391 22
	lw	a5,-32(s0)
	andi	a4,a5,-256
	.loc 9 3390 91 discriminator 1
	li	a5,100663296
	addi	a5,a5,768
	beq	a4,a5,.L937
	.loc 9 3391 103
	lw	a5,-32(s0)
	andi	a4,a5,-256
	.loc 9 3391 92
	li	a5,100667392
	addi	a5,a5,768
	bne	a4,a5,.L938
.L937:
	.loc 9 3394 20
	lw	a7,-48(s0)
	lw	a6,-44(s0)
	lw	a5,-40(s0)
	lw	a4,-36(s0)
	lw	a3,-32(s0)
	lw	a2,-28(s0)
	lw	a1,-24(s0)
	lw	a0,-20(s0)
	call	mbedtls_psa_rsa_verify_hash
	mv	a5,a0
	j	.L939
.L938:
	.loc 9 3402 20
	li	a5,-135
	j	.L939
.L936:
	.loc 9 3404 30
	lw	a5,-20(s0)
	lhu	a5,0(a5)
	mv	a4,a5
	.loc 9 3404 68
	li	a5,-12288
	addi	a5,a5,-256
	and	a4,a4,a5
	.loc 9 3404 15
	li	a5,16384
	addi	a5,a5,256
	bne	a4,a5,.L940
	.loc 9 3405 55
	lw	a5,-32(s0)
	andi	a4,a5,-512
	.loc 9 3405 12
	li	a5,100663296
	addi	a5,a5,1536
	bne	a4,a5,.L941
	.loc 9 3408 20
	lw	a7,-48(s0)
	lw	a6,-44(s0)
	lw	a5,-40(s0)
	lw	a4,-36(s0)
	lw	a3,-32(s0)
	lw	a2,-28(s0)
	lw	a1,-24(s0)
	lw	a0,-20(s0)
	call	mbedtls_psa_ecdsa_verify_hash
	mv	a5,a0
	j	.L939
.L941:
	.loc 9 3416 20
	li	a5,-135
	j	.L939
.L940:
	.loc 9 3427 12
	li	a5,-134
.L939:
	.loc 9 3428 1
	mv	a0,a5
	lw	ra,44(sp)
	.cfi_restore 1
	lw	s0,40(sp)
	.cfi_restore 8
	.cfi_def_cfa 2, 48
	addi	sp,sp,48
	.cfi_def_cfa_offset 0
	jr	ra
	.cfi_endproc
.LFE234:
	.size	psa_verify_hash_builtin, .-psa_verify_hash_builtin
	.section	.text.psa_verify_hash,"ax",@progbits
	.align	1
	.globl	psa_verify_hash
	.type	psa_verify_hash, @function
psa_verify_hash:
.LFB235:
	.loc 9 3436 1
	.cfi_startproc
	addi	sp,sp,-96
	.cfi_def_cfa_offset 96
	sw	ra,92(sp)
	sw	s0,88(sp)
	.cfi_offset 1, -4
	.cfi_offset 8, -8
	addi	s0,sp,96
	.cfi_def_cfa 8, 0
	sw	a0,-68(s0)
	sw	a1,-72(s0)
	sw	a2,-76(s0)
	sw	a3,-80(s0)
	sw	a4,-84(s0)
	sw	a5,-88(s0)
	.loc 9 3437 18
	li	a5,-151
	sw	a5,-20(s0)
	.loc 9 3438 30
	sw	zero,-36(s0)
	sw	zero,-32(s0)
	.loc 9 3438 27
	sw	zero,-24(s0)
	.loc 9 3439 30
	sw	zero,-52(s0)
	sw	zero,-48(s0)
	.loc 9 3439 27
	sw	zero,-28(s0)
	.loc 9 3441 14
	addi	a5,s0,-36
	mv	a2,a5
	lw	a1,-80(s0)
	lw	a0,-76(s0)
	call	psa_crypto_local_input_alloc
	sw	a0,-20(s0)
	.loc 9 3441 111 discriminator 1
	lw	a5,-20(s0)
	bne	a5,zero,.L947
	.loc 9 3441 161 discriminator 3
	lw	a5,-36(s0)
	sw	a5,-24(s0)
	.loc 9 3442 14
	addi	a5,s0,-52
	mv	a2,a5
	lw	a1,-88(s0)
	lw	a0,-84(s0)
	call	psa_crypto_local_input_alloc
	sw	a0,-20(s0)
	.loc 9 3442 126 discriminator 1
	lw	a5,-20(s0)
	bne	a5,zero,.L948
	.loc 9 3442 181 discriminator 3
	lw	a5,-52(s0)
	sw	a5,-28(s0)
	.loc 9 3443 14
	lw	a6,-88(s0)
	lw	a5,-28(s0)
	lw	a4,-80(s0)
	lw	a3,-24(s0)
	lw	a2,-72(s0)
	li	a1,0
	lw	a0,-68(s0)
	call	psa_verify_internal
	sw	a0,-20(s0)
	j	.L944
.L947:
	.loc 9 3441 143
	nop
	j	.L944
.L948:
	.loc 9 3442 158
	nop
.L944:
	.loc 9 3449 10
	sw	zero,-24(s0)
	.loc 9 3449 6
	addi	a5,s0,-36
	mv	a0,a5
	call	psa_crypto_local_input_free
	.loc 9 3450 15
	sw	zero,-28(s0)
	.loc 9 3450 6
	addi	a5,s0,-52
	mv	a0,a5
	call	psa_crypto_local_input_free
	.loc 9 3452 12
	lw	a5,-20(s0)
	.loc 9 3453 1
	mv	a0,a5
	lw	ra,92(sp)
	.cfi_restore 1
	lw	s0,88(sp)
	.cfi_restore 8
	.cfi_def_cfa 2, 96
	addi	sp,sp,96
	.cfi_def_cfa_offset 0
	jr	ra
	.cfi_endproc
.LFE235:
	.size	psa_verify_hash, .-psa_verify_hash
	.section	.text.psa_asymmetric_encrypt,"ax",@progbits
	.align	1
	.globl	psa_asymmetric_encrypt
	.type	psa_asymmetric_encrypt, @function
psa_asymmetric_encrypt:
.LFB236:
	.loc 9 3464 1
	.cfi_startproc
	addi	sp,sp,-160
	.cfi_def_cfa_offset 160
	sw	ra,156(sp)
	sw	s0,152(sp)
	.cfi_offset 1, -4
	.cfi_offset 8, -8
	addi	s0,sp,160
	.cfi_def_cfa 8, 0
	sw	a0,-116(s0)
	sw	a1,-120(s0)
	sw	a2,-124(s0)
	sw	a3,-128(s0)
	sw	a4,-132(s0)
	sw	a5,-136(s0)
	sw	a6,-140(s0)
	sw	a7,-144(s0)
	.loc 9 3465 18
	li	a5,-151
	sw	a5,-20(s0)
	.loc 9 3466 18
	li	a5,-151
	sw	a5,-24(s0)
	.loc 9 3469 30
	sw	zero,-52(s0)
	sw	zero,-48(s0)
	.loc 9 3469 27
	sw	zero,-28(s0)
	.loc 9 3470 30
	sw	zero,-68(s0)
	sw	zero,-64(s0)
	.loc 9 3470 27
	sw	zero,-32(s0)
	.loc 9 3471 31
	sw	zero,-88(s0)
	sw	zero,-84(s0)
	sw	zero,-80(s0)
	.loc 9 3471 21
	sw	zero,-36(s0)
	.loc 9 3479 20
	lw	a5,0(s0)
	sw	zero,0(a5)
	.loc 9 3481 18
	lw	a5,-120(s0)
	andi	a4,a5,-256
	.loc 9 3481 8
	li	a5,117440512
	addi	a5,a5,768
	beq	a4,a5,.L950
	.loc 9 3481 88 discriminator 1
	lw	a5,-136(s0)
	beq	a5,zero,.L950
	.loc 9 3482 16
	li	a5,-135
	j	.L961
.L950:
	.loc 9 3485 14
	addi	a5,s0,-44
	lw	a3,-120(s0)
	li	a2,256
	mv	a1,a5
	lw	a0,-116(s0)
	call	psa_get_and_lock_key_slot_with_policy
	sw	a0,-20(s0)
	.loc 9 3487 8
	lw	a5,-20(s0)
	beq	a5,zero,.L952
	.loc 9 3488 16
	lw	a5,-20(s0)
	j	.L961
.L952:
	.loc 9 3490 18
	lw	a5,-44(s0)
	.loc 9 3490 24
	lhu	a5,0(a5)
	.loc 9 3490 31
	mv	a4,a5
	li	a5,28672
	and	a4,a4,a5
	.loc 9 3490 8
	li	a5,16384
	beq	a4,a5,.L953
	.loc 9 3491 18
	lw	a5,-44(s0)
	.loc 9 3491 24
	lhu	a5,0(a5)
	.loc 9 3491 31
	mv	a4,a5
	li	a5,28672
	and	a4,a4,a5
	.loc 9 3490 9 discriminator 1
	li	a5,28672
	beq	a4,a5,.L953
	.loc 9 3492 16
	li	a5,-135
	sw	a5,-20(s0)
	.loc 9 3493 9
	j	.L954
.L953:
	.loc 9 3496 14
	addi	a5,s0,-52
	mv	a2,a5
	lw	a1,-128(s0)
	lw	a0,-124(s0)
	call	psa_crypto_local_input_alloc
	sw	a0,-20(s0)
	.loc 9 3496 114 discriminator 1
	lw	a5,-20(s0)
	bne	a5,zero,.L962
	.loc 9 3496 165 discriminator 3
	lw	a5,-52(s0)
	sw	a5,-28(s0)
	.loc 9 3497 14
	addi	a5,s0,-68
	mv	a2,a5
	lw	a1,-136(s0)
	lw	a0,-132(s0)
	call	psa_crypto_local_input_alloc
	sw	a0,-20(s0)
	.loc 9 3497 111 discriminator 1
	lw	a5,-20(s0)
	bne	a5,zero,.L963
	.loc 9 3497 161 discriminator 3
	lw	a5,-68(s0)
	sw	a5,-32(s0)
	.loc 9 3498 14
