	.file	"ripemd160.c"
	.option nopic
	.attribute arch, "rv32i2p1_m2p0_f2p2_c2p0_zicsr2p0_zmmul1p0_zca1p0_zcf1p0"
	.attribute unaligned_access, 0
	.attribute stack_align, 16
	.text
.Ltext0:
	.cfi_sections	.debug_frame
	.file 0 "/home/chandu/sdk/bl602_iot_sdk/customer_app/suas_app_pqkem_gateway/build_out/mbedtls-bl602" "/home/chandu/sdk/bl602_iot_sdk/components/security/mbedtls-bl602/library/ripemd160.c"
	.section	.text.mbedtls_ripemd160_init,"ax",@progbits
	.align	1
	.globl	mbedtls_ripemd160_init
	.type	mbedtls_ripemd160_init, @function
mbedtls_ripemd160_init:
.LFB15:
	.file 1 "/home/chandu/sdk/bl602_iot_sdk/components/security/mbedtls-bl602/library/ripemd160.c"
	.loc 1 29 1
	.cfi_startproc
	addi	sp,sp,-32
	.cfi_def_cfa_offset 32
	sw	ra,28(sp)
	sw	s0,24(sp)
	.cfi_offset 1, -4
	.cfi_offset 8, -8
	addi	s0,sp,32
	.cfi_def_cfa 8, 0
	sw	a0,-20(s0)
	.loc 1 30 5
	li	a2,92
	li	a1,0
	lw	a0,-20(s0)
	call	memset
	.loc 1 31 1
	nop
	lw	ra,28(sp)
	.cfi_restore 1
	lw	s0,24(sp)
	.cfi_restore 8
	.cfi_def_cfa 2, 32
	addi	sp,sp,32
	.cfi_def_cfa_offset 0
	jr	ra
	.cfi_endproc
.LFE15:
	.size	mbedtls_ripemd160_init, .-mbedtls_ripemd160_init
	.section	.text.mbedtls_ripemd160_free,"ax",@progbits
	.align	1
	.globl	mbedtls_ripemd160_free
	.type	mbedtls_ripemd160_free, @function
mbedtls_ripemd160_free:
.LFB16:
	.loc 1 34 1
	.cfi_startproc
	addi	sp,sp,-32
	.cfi_def_cfa_offset 32
	sw	ra,28(sp)
	sw	s0,24(sp)
	.cfi_offset 1, -4
	.cfi_offset 8, -8
	addi	s0,sp,32
	.cfi_def_cfa 8, 0
	sw	a0,-20(s0)
	.loc 1 35 8
	lw	a5,-20(s0)
	beq	a5,zero,.L5
	.loc 1 39 5
	li	a1,92
	lw	a0,-20(s0)
	call	mbedtls_platform_zeroize
	j	.L2
.L5:
	.loc 1 36 9
	nop
.L2:
	.loc 1 40 1
	lw	ra,28(sp)
	.cfi_restore 1
	lw	s0,24(sp)
	.cfi_restore 8
	.cfi_def_cfa 2, 32
	addi	sp,sp,32
	.cfi_def_cfa_offset 0
	jr	ra
	.cfi_endproc
.LFE16:
	.size	mbedtls_ripemd160_free, .-mbedtls_ripemd160_free
	.section	.text.mbedtls_ripemd160_clone,"ax",@progbits
	.align	1
	.globl	mbedtls_ripemd160_clone
	.type	mbedtls_ripemd160_clone, @function
mbedtls_ripemd160_clone:
.LFB17:
	.loc 1 44 1
	.cfi_startproc
	addi	sp,sp,-32
	.cfi_def_cfa_offset 32
	sw	ra,28(sp)
	sw	s0,24(sp)
	.cfi_offset 1, -4
	.cfi_offset 8, -8
	addi	s0,sp,32
	.cfi_def_cfa 8, 0
	sw	a0,-20(s0)
	sw	a1,-24(s0)
	.loc 1 45 10
	lw	a4,-20(s0)
	lw	a5,-24(s0)
	mv	a3,a5
	li	a5,92
	mv	a2,a5
	mv	a1,a3
	mv	a0,a4
	call	memcpy
	.loc 1 46 1
	nop
	lw	ra,28(sp)
	.cfi_restore 1
	lw	s0,24(sp)
	.cfi_restore 8
	.cfi_def_cfa 2, 32
	addi	sp,sp,32
	.cfi_def_cfa_offset 0
	jr	ra
	.cfi_endproc
.LFE17:
	.size	mbedtls_ripemd160_clone, .-mbedtls_ripemd160_clone
	.section	.text.mbedtls_ripemd160_starts,"ax",@progbits
	.align	1
	.globl	mbedtls_ripemd160_starts
	.type	mbedtls_ripemd160_starts, @function
mbedtls_ripemd160_starts:
.LFB18:
	.loc 1 52 1
	.cfi_startproc
	addi	sp,sp,-32
	.cfi_def_cfa_offset 32
	sw	ra,28(sp)
	sw	s0,24(sp)
	.cfi_offset 1, -4
	.cfi_offset 8, -8
	addi	s0,sp,32
	.cfi_def_cfa 8, 0
	sw	a0,-20(s0)
	.loc 1 53 19
	lw	a5,-20(s0)
	sw	zero,0(a5)
	.loc 1 54 19
	lw	a5,-20(s0)
	sw	zero,4(a5)
	.loc 1 56 19
	lw	a5,-20(s0)
	li	a4,1732583424
	addi	a4,a4,769
	sw	a4,8(a5)
	.loc 1 57 19
	lw	a5,-20(s0)
	li	a4,-271732736
	addi	a4,a4,-1143
	sw	a4,12(a5)
	.loc 1 58 19
	lw	a5,-20(s0)
	li	a4,-1732583424
	addi	a4,a4,-770
	sw	a4,16(a5)
	.loc 1 59 19
	lw	a5,-20(s0)
	li	a4,271732736
	addi	a4,a4,1142
	sw	a4,20(a5)
	.loc 1 60 19
	lw	a5,-20(s0)
	li	a4,-1009590272
	addi	a4,a4,496
	sw	a4,24(a5)
	.loc 1 62 12
	li	a5,0
	.loc 1 63 1
	mv	a0,a5
	lw	ra,28(sp)
	.cfi_restore 1
	lw	s0,24(sp)
	.cfi_restore 8
	.cfi_def_cfa 2, 32
	addi	sp,sp,32
	.cfi_def_cfa_offset 0
	jr	ra
	.cfi_endproc
.LFE18:
	.size	mbedtls_ripemd160_starts, .-mbedtls_ripemd160_starts
	.section	.text.mbedtls_internal_ripemd160_process,"ax",@progbits
	.align	1
	.globl	mbedtls_internal_ripemd160_process
	.type	mbedtls_internal_ripemd160_process, @function
mbedtls_internal_ripemd160_process:
.LFB19:
	.loc 1 71 1
	.cfi_startproc
	addi	sp,sp,-336
	.cfi_def_cfa_offset 336
	sw	ra,332(sp)
	sw	s0,328(sp)
	.cfi_offset 1, -4
	.cfi_offset 8, -8
	addi	s0,sp,336
	.cfi_def_cfa 8, 0
	sw	a0,-324(s0)
	sw	a1,-328(s0)
	lw	a5,-328(s0)
	sw	a5,-200(s0)
.LBB48:
.LBB49:
	.file 2 "/home/chandu/sdk/bl602_iot_sdk/components/security/mbedtls-bl602/library/alignment.h"
	.loc 2 174 33
	lw	a5,-200(s0)
	sw	a5,-204(s0)
	.loc 2 175 7
	lw	a5,-204(s0)
	lbu	a4,0(a5)
	lbu	a3,1(a5)
	slli	a3,a3,8
	or	a4,a3,a4
	lbu	a3,2(a5)
	slli	a3,a3,16
	or	a4,a3,a4
	lbu	a5,3(a5)
	slli	a5,a5,24
	or	a5,a5,a4
	sw	a5,-208(s0)
	.loc 2 179 12
	lw	a5,-208(s0)
.LBE49:
.LBE48:
	.loc 1 76 16 discriminator 1
	sw	a5,-272(s0)
	.loc 1 77 125
	lw	a5,-328(s0)
	addi	a5,a5,4
	sw	a5,-188(s0)
.LBB50:
.LBB51:
	.loc 2 174 33
	lw	a5,-188(s0)
	sw	a5,-192(s0)
	.loc 2 175 7
	lw	a5,-192(s0)
	lbu	a4,0(a5)
	lbu	a3,1(a5)
	slli	a3,a3,8
	or	a4,a3,a4
	lbu	a3,2(a5)
	slli	a3,a3,16
	or	a4,a3,a4
	lbu	a5,3(a5)
	slli	a5,a5,24
	or	a5,a5,a4
	sw	a5,-196(s0)
	.loc 2 179 12
	lw	a5,-196(s0)
.LBE51:
.LBE50:
	.loc 1 77 16 discriminator 1
	sw	a5,-268(s0)
	.loc 1 78 125
	lw	a5,-328(s0)
	addi	a5,a5,8
	sw	a5,-176(s0)
.LBB52:
.LBB53:
	.loc 2 174 33
	lw	a5,-176(s0)
	sw	a5,-180(s0)
	.loc 2 175 7
	lw	a5,-180(s0)
	lbu	a4,0(a5)
	lbu	a3,1(a5)
	slli	a3,a3,8
	or	a4,a3,a4
	lbu	a3,2(a5)
	slli	a3,a3,16
	or	a4,a3,a4
	lbu	a5,3(a5)
	slli	a5,a5,24
	or	a5,a5,a4
	sw	a5,-184(s0)
	.loc 2 179 12
	lw	a5,-184(s0)
.LBE53:
.LBE52:
	.loc 1 78 16 discriminator 1
	sw	a5,-264(s0)
	.loc 1 79 126
	lw	a5,-328(s0)
	addi	a5,a5,12
	sw	a5,-164(s0)
.LBB54:
.LBB55:
	.loc 2 174 33
	lw	a5,-164(s0)
	sw	a5,-168(s0)
	.loc 2 175 7
	lw	a5,-168(s0)
	lbu	a4,0(a5)
	lbu	a3,1(a5)
	slli	a3,a3,8
	or	a4,a3,a4
	lbu	a3,2(a5)
	slli	a3,a3,16
	or	a4,a3,a4
	lbu	a5,3(a5)
	slli	a5,a5,24
	or	a5,a5,a4
	sw	a5,-172(s0)
	.loc 2 179 12
	lw	a5,-172(s0)
.LBE55:
.LBE54:
	.loc 1 79 16 discriminator 1
	sw	a5,-260(s0)
	.loc 1 80 126
	lw	a5,-328(s0)
	addi	a5,a5,16
	sw	a5,-152(s0)
.LBB56:
.LBB57:
	.loc 2 174 33
	lw	a5,-152(s0)
	sw	a5,-156(s0)
	.loc 2 175 7
	lw	a5,-156(s0)
	lbu	a4,0(a5)
	lbu	a3,1(a5)
	slli	a3,a3,8
	or	a4,a3,a4
	lbu	a3,2(a5)
	slli	a3,a3,16
	or	a4,a3,a4
	lbu	a5,3(a5)
	slli	a5,a5,24
	or	a5,a5,a4
	sw	a5,-160(s0)
	.loc 2 179 12
	lw	a5,-160(s0)
.LBE57:
.LBE56:
	.loc 1 80 16 discriminator 1
	sw	a5,-256(s0)
	.loc 1 81 126
	lw	a5,-328(s0)
	addi	a5,a5,20
	sw	a5,-140(s0)
.LBB58:
.LBB59:
	.loc 2 174 33
	lw	a5,-140(s0)
	sw	a5,-144(s0)
	.loc 2 175 7
	lw	a5,-144(s0)
	lbu	a4,0(a5)
	lbu	a3,1(a5)
	slli	a3,a3,8
	or	a4,a3,a4
	lbu	a3,2(a5)
	slli	a3,a3,16
	or	a4,a3,a4
	lbu	a5,3(a5)
	slli	a5,a5,24
	or	a5,a5,a4
	sw	a5,-148(s0)
	.loc 2 179 12
	lw	a5,-148(s0)
.LBE59:
.LBE58:
	.loc 1 81 16 discriminator 1
	sw	a5,-252(s0)
	.loc 1 82 126
	lw	a5,-328(s0)
	addi	a5,a5,24
	sw	a5,-128(s0)
.LBB60:
.LBB61:
	.loc 2 174 33
	lw	a5,-128(s0)
	sw	a5,-132(s0)
	.loc 2 175 7
	lw	a5,-132(s0)
	lbu	a4,0(a5)
	lbu	a3,1(a5)
	slli	a3,a3,8
	or	a4,a3,a4
	lbu	a3,2(a5)
	slli	a3,a3,16
	or	a4,a3,a4
	lbu	a5,3(a5)
	slli	a5,a5,24
	or	a5,a5,a4
	sw	a5,-136(s0)
	.loc 2 179 12
	lw	a5,-136(s0)
.LBE61:
.LBE60:
	.loc 1 82 16 discriminator 1
	sw	a5,-248(s0)
	.loc 1 83 126
	lw	a5,-328(s0)
	addi	a5,a5,28
	sw	a5,-116(s0)
.LBB62:
.LBB63:
	.loc 2 174 33
	lw	a5,-116(s0)
	sw	a5,-120(s0)
	.loc 2 175 7
	lw	a5,-120(s0)
	lbu	a4,0(a5)
	lbu	a3,1(a5)
	slli	a3,a3,8
	or	a4,a3,a4
	lbu	a3,2(a5)
	slli	a3,a3,16
	or	a4,a3,a4
	lbu	a5,3(a5)
	slli	a5,a5,24
	or	a5,a5,a4
	sw	a5,-124(s0)
	.loc 2 179 12
	lw	a5,-124(s0)
.LBE63:
.LBE62:
	.loc 1 83 16 discriminator 1
	sw	a5,-244(s0)
	.loc 1 84 126
	lw	a5,-328(s0)
	addi	a5,a5,32
	sw	a5,-104(s0)
.LBB64:
.LBB65:
	.loc 2 174 33
	lw	a5,-104(s0)
	sw	a5,-108(s0)
	.loc 2 175 7
	lw	a5,-108(s0)
	lbu	a4,0(a5)
	lbu	a3,1(a5)
	slli	a3,a3,8
	or	a4,a3,a4
	lbu	a3,2(a5)
	slli	a3,a3,16
	or	a4,a3,a4
	lbu	a5,3(a5)
	slli	a5,a5,24
	or	a5,a5,a4
	sw	a5,-112(s0)
	.loc 2 179 12
	lw	a5,-112(s0)
.LBE65:
.LBE64:
	.loc 1 84 16 discriminator 1
	sw	a5,-240(s0)
	.loc 1 85 126
	lw	a5,-328(s0)
	addi	a5,a5,36
	sw	a5,-92(s0)
.LBB66:
.LBB67:
	.loc 2 174 33
	lw	a5,-92(s0)
	sw	a5,-96(s0)
	.loc 2 175 7
	lw	a5,-96(s0)
	lbu	a4,0(a5)
	lbu	a3,1(a5)
	slli	a3,a3,8
	or	a4,a3,a4
	lbu	a3,2(a5)
	slli	a3,a3,16
	or	a4,a3,a4
	lbu	a5,3(a5)
	slli	a5,a5,24
	or	a5,a5,a4
	sw	a5,-100(s0)
	.loc 2 179 12
	lw	a5,-100(s0)
.LBE67:
.LBE66:
	.loc 1 85 16 discriminator 1
	sw	a5,-236(s0)
	.loc 1 86 127
	lw	a5,-328(s0)
	addi	a5,a5,40
	sw	a5,-80(s0)
.LBB68:
.LBB69:
	.loc 2 174 33
	lw	a5,-80(s0)
	sw	a5,-84(s0)
	.loc 2 175 7
	lw	a5,-84(s0)
	lbu	a4,0(a5)
	lbu	a3,1(a5)
	slli	a3,a3,8
	or	a4,a3,a4
	lbu	a3,2(a5)
	slli	a3,a3,16
	or	a4,a3,a4
	lbu	a5,3(a5)
	slli	a5,a5,24
	or	a5,a5,a4
	sw	a5,-88(s0)
	.loc 2 179 12
	lw	a5,-88(s0)
.LBE69:
.LBE68:
	.loc 1 86 17 discriminator 1
	sw	a5,-232(s0)
	.loc 1 87 127
	lw	a5,-328(s0)
	addi	a5,a5,44
	sw	a5,-68(s0)
.LBB70:
.LBB71:
	.loc 2 174 33
	lw	a5,-68(s0)
	sw	a5,-72(s0)
	.loc 2 175 7
	lw	a5,-72(s0)
	lbu	a4,0(a5)
	lbu	a3,1(a5)
	slli	a3,a3,8
	or	a4,a3,a4
	lbu	a3,2(a5)
	slli	a3,a3,16
	or	a4,a3,a4
	lbu	a5,3(a5)
	slli	a5,a5,24
	or	a5,a5,a4
	sw	a5,-76(s0)
	.loc 2 179 12
	lw	a5,-76(s0)
.LBE71:
.LBE70:
	.loc 1 87 17 discriminator 1
	sw	a5,-228(s0)
	.loc 1 88 127
	lw	a5,-328(s0)
	addi	a5,a5,48
	sw	a5,-56(s0)
.LBB72:
.LBB73:
	.loc 2 174 33
	lw	a5,-56(s0)
	sw	a5,-60(s0)
	.loc 2 175 7
	lw	a5,-60(s0)
	lbu	a4,0(a5)
	lbu	a3,1(a5)
	slli	a3,a3,8
	or	a4,a3,a4
	lbu	a3,2(a5)
	slli	a3,a3,16
	or	a4,a3,a4
	lbu	a5,3(a5)
	slli	a5,a5,24
	or	a5,a5,a4
	sw	a5,-64(s0)
	.loc 2 179 12
	lw	a5,-64(s0)
.LBE73:
.LBE72:
	.loc 1 88 17 discriminator 1
	sw	a5,-224(s0)
	.loc 1 89 127
	lw	a5,-328(s0)
	addi	a5,a5,52
	sw	a5,-44(s0)
.LBB74:
.LBB75:
	.loc 2 174 33
	lw	a5,-44(s0)
	sw	a5,-48(s0)
	.loc 2 175 7
	lw	a5,-48(s0)
	lbu	a4,0(a5)
	lbu	a3,1(a5)
	slli	a3,a3,8
	or	a4,a3,a4
	lbu	a3,2(a5)
	slli	a3,a3,16
	or	a4,a3,a4
	lbu	a5,3(a5)
	slli	a5,a5,24
	or	a5,a5,a4
	sw	a5,-52(s0)
	.loc 2 179 12
	lw	a5,-52(s0)
.LBE75:
.LBE74:
	.loc 1 89 17 discriminator 1
	sw	a5,-220(s0)
	.loc 1 90 127
	lw	a5,-328(s0)
	addi	a5,a5,56
	sw	a5,-32(s0)
.LBB76:
.LBB77:
	.loc 2 174 33
	lw	a5,-32(s0)
	sw	a5,-36(s0)
	.loc 2 175 7
	lw	a5,-36(s0)
	lbu	a4,0(a5)
	lbu	a3,1(a5)
	slli	a3,a3,8
	or	a4,a3,a4
	lbu	a3,2(a5)
	slli	a3,a3,16
	or	a4,a3,a4
	lbu	a5,3(a5)
	slli	a5,a5,24
	or	a5,a5,a4
	sw	a5,-40(s0)
	.loc 2 179 12
	lw	a5,-40(s0)
.LBE77:
.LBE76:
	.loc 1 90 17 discriminator 1
	sw	a5,-216(s0)
	.loc 1 91 127
	lw	a5,-328(s0)
	addi	a5,a5,60
	sw	a5,-20(s0)
.LBB78:
.LBB79:
	.loc 2 174 33
	lw	a5,-20(s0)
	sw	a5,-24(s0)
	.loc 2 175 7
	lw	a5,-24(s0)
	lbu	a4,0(a5)
	lbu	a3,1(a5)
	slli	a3,a3,8
	or	a4,a3,a4
	lbu	a3,2(a5)
	slli	a3,a3,16
	or	a4,a3,a4
	lbu	a5,3(a5)
	slli	a5,a5,24
	or	a5,a5,a4
	sw	a5,-28(s0)
	.loc 2 179 12
	lw	a5,-28(s0)
.LBE79:
.LBE78:
	.loc 1 91 17 discriminator 1
	sw	a5,-212(s0)
	.loc 1 93 36
	lw	a5,-324(s0)
	lw	a5,8(a5)
	.loc 1 93 24
	sw	a5,-292(s0)
	.loc 1 93 20
	lw	a5,-292(s0)
	.loc 1 93 13
	sw	a5,-312(s0)
	.loc 1 94 36
	lw	a5,-324(s0)
	lw	a5,12(a5)
	.loc 1 94 24
	sw	a5,-288(s0)
	.loc 1 94 20
	lw	a5,-288(s0)
	.loc 1 94 13
	sw	a5,-308(s0)
	.loc 1 95 36
	lw	a5,-324(s0)
	lw	a5,16(a5)
	.loc 1 95 24
	sw	a5,-284(s0)
	.loc 1 95 20
	lw	a5,-284(s0)
	.loc 1 95 13
	sw	a5,-304(s0)
	.loc 1 96 36
	lw	a5,-324(s0)
	lw	a5,20(a5)
	.loc 1 96 24
	sw	a5,-280(s0)
	.loc 1 96 20
	lw	a5,-280(s0)
	.loc 1 96 13
	sw	a5,-300(s0)
	.loc 1 97 36
	lw	a5,-324(s0)
	lw	a5,24(a5)
	.loc 1 97 24
	sw	a5,-276(s0)
	.loc 1 97 20
	lw	a5,-276(s0)
	.loc 1 97 13
	sw	a5,-296(s0)
	.loc 1 127 22
	lw	a4,-312(s0)
	.loc 1 127 39
	lw	a3,-308(s0)
	.loc 1 127 55
	lw	a5,-304(s0)
	.loc 1 127 45
	xor	a3,a3,a5
	.loc 1 127 71
	lw	a5,-300(s0)
	.loc 1 127 61
	xor	a3,a3,a5
	.loc 1 127 87
	lw	a5,-272(s0)
	.loc 1 127 78
	add	a5,a3,a5
	.loc 1 127 27
	add	a5,a4,a5
	sw	a5,-312(s0)
	.loc 1 127 133
	lw	a5,-312(s0)
	.loc 1 127 152
	srli	a4,a5,21
	slli	a5,a5,11
	add	a5,a5,a4
	.loc 1 127 199
	lw	a4,-296(s0)
	.loc 1 127 190
	add	a5,a5,a4
	.loc 1 127 121
	sw	a5,-312(s0)
	.loc 1 127 229
	lw	a5,-304(s0)
	.loc 1 127 244
	srli	a4,a5,22
	slli	a5,a5,10
	add	a5,a5,a4
	.loc 1 127 217
	sw	a5,-304(s0)
	.loc 1 127 303
	lw	a4,-292(s0)
	.loc 1 127 319
	lw	a3,-288(s0)
	.loc 1 127 335
	lw	a2,-284(s0)
	.loc 1 127 351
	lw	a5,-280(s0)
	.loc 1 127 343
	not	a5,a5
	.loc 1 127 341
	or	a5,a2,a5
	.loc 1 127 325
	xor	a3,a3,a5
	.loc 1 127 368
	lw	a5,-252(s0)
	.loc 1 127 359
	add	a5,a3,a5
	.loc 1 127 308
	add	a4,a4,a5
	li	a5,1352830976
	addi	a5,a5,-1050
	add	a5,a4,a5
	sw	a5,-292(s0)
	.loc 1 127 412
	lw	a5,-292(s0)
	.loc 1 127 430
	srli	a4,a5,24
	slli	a5,a5,8
	add	a5,a5,a4
	.loc 1 127 474
	lw	a4,-276(s0)
	.loc 1 127 466
	add	a5,a5,a4
	.loc 1 127 401
	sw	a5,-292(s0)
	.loc 1 127 502
	lw	a5,-284(s0)
	.loc 1 127 517
	srli	a4,a5,22
	slli	a5,a5,10
	add	a5,a5,a4
	.loc 1 127 491
	sw	a5,-284(s0)
	.loc 1 128 22
	lw	a4,-296(s0)
	.loc 1 128 39
	lw	a3,-312(s0)
	.loc 1 128 55
	lw	a5,-308(s0)
	.loc 1 128 45
	xor	a3,a3,a5
	.loc 1 128 71
	lw	a5,-304(s0)
	.loc 1 128 61
	xor	a3,a3,a5
	.loc 1 128 87
	lw	a5,-268(s0)
	.loc 1 128 78
	add	a5,a3,a5
	.loc 1 128 27
	add	a5,a4,a5
	sw	a5,-296(s0)
	.loc 1 128 133
	lw	a5,-296(s0)
	.loc 1 128 152
	srli	a4,a5,18
	slli	a5,a5,14
	add	a5,a5,a4
	.loc 1 128 199
	lw	a4,-300(s0)
	.loc 1 128 190
	add	a5,a5,a4
	.loc 1 128 121
	sw	a5,-296(s0)
	.loc 1 128 229
	lw	a5,-308(s0)
	.loc 1 128 244
	srli	a4,a5,22
	slli	a5,a5,10
	add	a5,a5,a4
	.loc 1 128 217
	sw	a5,-308(s0)
	.loc 1 128 303
	lw	a4,-276(s0)
	.loc 1 128 319
	lw	a3,-292(s0)
	.loc 1 128 335
	lw	a2,-288(s0)
	.loc 1 128 351
	lw	a5,-284(s0)
	.loc 1 128 343
	not	a5,a5
	.loc 1 128 341
	or	a5,a2,a5
	.loc 1 128 325
	xor	a3,a3,a5
	.loc 1 128 368
	lw	a5,-216(s0)
	.loc 1 128 359
	add	a5,a3,a5
	.loc 1 128 308
	add	a4,a4,a5
	li	a5,1352830976
	addi	a5,a5,-1050
	add	a5,a4,a5
	sw	a5,-276(s0)
	.loc 1 128 413
	lw	a5,-276(s0)
	.loc 1 128 431
	srli	a4,a5,23
	slli	a5,a5,9
	add	a5,a5,a4
	.loc 1 128 475
	lw	a4,-280(s0)
	.loc 1 128 467
	add	a5,a5,a4
	.loc 1 128 402
	sw	a5,-276(s0)
	.loc 1 128 503
	lw	a5,-288(s0)
	.loc 1 128 518
	srli	a4,a5,22
	slli	a5,a5,10
	add	a5,a5,a4
	.loc 1 128 492
	sw	a5,-288(s0)
	.loc 1 129 22
	lw	a4,-300(s0)
	.loc 1 129 39
	lw	a3,-296(s0)
	.loc 1 129 55
	lw	a5,-312(s0)
	.loc 1 129 45
	xor	a3,a3,a5
	.loc 1 129 71
	lw	a5,-308(s0)
	.loc 1 129 61
	xor	a3,a3,a5
	.loc 1 129 87
	lw	a5,-264(s0)
	.loc 1 129 78
	add	a5,a3,a5
	.loc 1 129 27
	add	a5,a4,a5
	sw	a5,-300(s0)
	.loc 1 129 133
	lw	a5,-300(s0)
	.loc 1 129 152
	srli	a4,a5,17
	slli	a5,a5,15
	add	a5,a5,a4
	.loc 1 129 199
	lw	a4,-304(s0)
	.loc 1 129 190
	add	a5,a5,a4
	.loc 1 129 121
	sw	a5,-300(s0)
	.loc 1 129 229
	lw	a5,-312(s0)
	.loc 1 129 244
	srli	a4,a5,22
	slli	a5,a5,10
	add	a5,a5,a4
	.loc 1 129 217
	sw	a5,-312(s0)
	.loc 1 129 303
	lw	a4,-280(s0)
	.loc 1 129 319
	lw	a3,-276(s0)
	.loc 1 129 335
	lw	a2,-292(s0)
	.loc 1 129 351
	lw	a5,-288(s0)
	.loc 1 129 343
	not	a5,a5
	.loc 1 129 341
	or	a5,a2,a5
	.loc 1 129 325
	xor	a3,a3,a5
	.loc 1 129 368
	lw	a5,-244(s0)
	.loc 1 129 359
	add	a5,a3,a5
	.loc 1 129 308
	add	a4,a4,a5
	li	a5,1352830976
	addi	a5,a5,-1050
	add	a5,a4,a5
	sw	a5,-280(s0)
	.loc 1 129 412
	lw	a5,-280(s0)
	.loc 1 129 430
	srli	a4,a5,23
	slli	a5,a5,9
	add	a5,a5,a4
	.loc 1 129 474
	lw	a4,-284(s0)
	.loc 1 129 466
	add	a5,a5,a4
	.loc 1 129 401
	sw	a5,-280(s0)
	.loc 1 129 502
	lw	a5,-292(s0)
	.loc 1 129 517
	srli	a4,a5,22
	slli	a5,a5,10
	add	a5,a5,a4
	.loc 1 129 491
	sw	a5,-292(s0)
	.loc 1 130 22
	lw	a4,-304(s0)
	.loc 1 130 39
	lw	a3,-300(s0)
	.loc 1 130 55
	lw	a5,-296(s0)
	.loc 1 130 45
	xor	a3,a3,a5
	.loc 1 130 71
	lw	a5,-312(s0)
	.loc 1 130 61
	xor	a3,a3,a5
	.loc 1 130 87
	lw	a5,-260(s0)
	.loc 1 130 78
	add	a5,a3,a5
	.loc 1 130 27
	add	a5,a4,a5
	sw	a5,-304(s0)
	.loc 1 130 133
	lw	a5,-304(s0)
	.loc 1 130 152
	srli	a4,a5,20
	slli	a5,a5,12
	add	a5,a5,a4
	.loc 1 130 199
	lw	a4,-308(s0)
	.loc 1 130 190
	add	a5,a5,a4
	.loc 1 130 121
	sw	a5,-304(s0)
	.loc 1 130 229
	lw	a5,-296(s0)
	.loc 1 130 244
	srli	a4,a5,22
	slli	a5,a5,10
	add	a5,a5,a4
	.loc 1 130 217
	sw	a5,-296(s0)
	.loc 1 130 303
	lw	a4,-284(s0)
	.loc 1 130 319
	lw	a3,-280(s0)
	.loc 1 130 335
	lw	a2,-276(s0)
	.loc 1 130 351
	lw	a5,-292(s0)
	.loc 1 130 343
	not	a5,a5
	.loc 1 130 341
	or	a5,a2,a5
	.loc 1 130 325
	xor	a3,a3,a5
	.loc 1 130 368
	lw	a5,-272(s0)
	.loc 1 130 359
	add	a5,a3,a5
	.loc 1 130 308
	add	a4,a4,a5
	li	a5,1352830976
	addi	a5,a5,-1050
	add	a5,a4,a5
	sw	a5,-284(s0)
	.loc 1 130 412
	lw	a5,-284(s0)
	.loc 1 130 431
	srli	a4,a5,21
	slli	a5,a5,11
	add	a5,a5,a4
	.loc 1 130 476
	lw	a4,-288(s0)
	.loc 1 130 468
	add	a5,a5,a4
	.loc 1 130 401
	sw	a5,-284(s0)
	.loc 1 130 504
	lw	a5,-276(s0)
	.loc 1 130 519
	srli	a4,a5,22
	slli	a5,a5,10
	add	a5,a5,a4
	.loc 1 130 493
	sw	a5,-276(s0)
	.loc 1 131 22
	lw	a4,-308(s0)
	.loc 1 131 39
	lw	a3,-304(s0)
	.loc 1 131 55
	lw	a5,-300(s0)
	.loc 1 131 45
	xor	a3,a3,a5
	.loc 1 131 71
	lw	a5,-296(s0)
	.loc 1 131 61
	xor	a3,a3,a5
	.loc 1 131 87
	lw	a5,-256(s0)
	.loc 1 131 78
	add	a5,a3,a5
	.loc 1 131 27
	add	a5,a4,a5
	sw	a5,-308(s0)
	.loc 1 131 133
	lw	a5,-308(s0)
	.loc 1 131 151
	srli	a4,a5,27
	slli	a5,a5,5
	add	a5,a5,a4
	.loc 1 131 197
	lw	a4,-312(s0)
	.loc 1 131 188
	add	a5,a5,a4
	.loc 1 131 121
	sw	a5,-308(s0)
	.loc 1 131 227
	lw	a5,-300(s0)
	.loc 1 131 242
	srli	a4,a5,22
	slli	a5,a5,10
	add	a5,a5,a4
	.loc 1 131 215
	sw	a5,-300(s0)
	.loc 1 131 301
	lw	a4,-288(s0)
	.loc 1 131 317
	lw	a3,-284(s0)
	.loc 1 131 333
	lw	a2,-280(s0)
	.loc 1 131 349
	lw	a5,-276(s0)
	.loc 1 131 341
	not	a5,a5
	.loc 1 131 339
	or	a5,a2,a5
	.loc 1 131 323
	xor	a3,a3,a5
	.loc 1 131 366
	lw	a5,-236(s0)
	.loc 1 131 357
	add	a5,a3,a5
	.loc 1 131 306
	add	a4,a4,a5
	li	a5,1352830976
	addi	a5,a5,-1050
	add	a5,a4,a5
	sw	a5,-288(s0)
	.loc 1 131 410
	lw	a5,-288(s0)
	.loc 1 131 429
	srli	a4,a5,19
	slli	a5,a5,13
	add	a5,a5,a4
	.loc 1 131 474
	lw	a4,-292(s0)
	.loc 1 131 466
	add	a5,a5,a4
	.loc 1 131 399
	sw	a5,-288(s0)
	.loc 1 131 502
	lw	a5,-280(s0)
	.loc 1 131 517
	srli	a4,a5,22
	slli	a5,a5,10
	add	a5,a5,a4
	.loc 1 131 491
	sw	a5,-280(s0)
	.loc 1 132 22
	lw	a4,-312(s0)
	.loc 1 132 39
	lw	a3,-308(s0)
	.loc 1 132 55
	lw	a5,-304(s0)
	.loc 1 132 45
	xor	a3,a3,a5
	.loc 1 132 71
	lw	a5,-300(s0)
	.loc 1 132 61
	xor	a3,a3,a5
	.loc 1 132 87
	lw	a5,-252(s0)
	.loc 1 132 78
	add	a5,a3,a5
	.loc 1 132 27
	add	a5,a4,a5
	sw	a5,-312(s0)
	.loc 1 132 133
	lw	a5,-312(s0)
	.loc 1 132 151
	srli	a4,a5,24
	slli	a5,a5,8
	add	a5,a5,a4
	.loc 1 132 197
	lw	a4,-296(s0)
	.loc 1 132 188
	add	a5,a5,a4
	.loc 1 132 121
	sw	a5,-312(s0)
	.loc 1 132 227
	lw	a5,-304(s0)
	.loc 1 132 242
	srli	a4,a5,22
	slli	a5,a5,10
	add	a5,a5,a4
	.loc 1 132 215
	sw	a5,-304(s0)
	.loc 1 132 301
	lw	a4,-292(s0)
	.loc 1 132 317
	lw	a3,-288(s0)
	.loc 1 132 333
	lw	a2,-284(s0)
	.loc 1 132 349
	lw	a5,-280(s0)
	.loc 1 132 341
	not	a5,a5
	.loc 1 132 339
	or	a5,a2,a5
	.loc 1 132 323
	xor	a3,a3,a5
	.loc 1 132 366
	lw	a5,-264(s0)
	.loc 1 132 357
	add	a5,a3,a5
	.loc 1 132 306
	add	a4,a4,a5
	li	a5,1352830976
	addi	a5,a5,-1050
	add	a5,a4,a5
	sw	a5,-292(s0)
	.loc 1 132 410
	lw	a5,-292(s0)
	.loc 1 132 429
	srli	a4,a5,17
	slli	a5,a5,15
	add	a5,a5,a4
	.loc 1 132 474
	lw	a4,-276(s0)
	.loc 1 132 466
	add	a5,a5,a4
	.loc 1 132 399
	sw	a5,-292(s0)
	.loc 1 132 502
	lw	a5,-284(s0)
	.loc 1 132 517
	srli	a4,a5,22
	slli	a5,a5,10
	add	a5,a5,a4
	.loc 1 132 491
	sw	a5,-284(s0)
	.loc 1 133 22
	lw	a4,-296(s0)
	.loc 1 133 39
	lw	a3,-312(s0)
	.loc 1 133 55
	lw	a5,-308(s0)
	.loc 1 133 45
	xor	a3,a3,a5
	.loc 1 133 71
	lw	a5,-304(s0)
	.loc 1 133 61
	xor	a3,a3,a5
	.loc 1 133 87
	lw	a5,-248(s0)
	.loc 1 133 78
	add	a5,a3,a5
	.loc 1 133 27
	add	a5,a4,a5
	sw	a5,-296(s0)
	.loc 1 133 133
	lw	a5,-296(s0)
	.loc 1 133 151
	srli	a4,a5,25
	slli	a5,a5,7
	add	a5,a5,a4
	.loc 1 133 197
	lw	a4,-300(s0)
	.loc 1 133 188
	add	a5,a5,a4
	.loc 1 133 121
	sw	a5,-296(s0)
	.loc 1 133 227
	lw	a5,-308(s0)
	.loc 1 133 242
	srli	a4,a5,22
	slli	a5,a5,10
	add	a5,a5,a4
	.loc 1 133 215
	sw	a5,-308(s0)
	.loc 1 133 301
	lw	a4,-276(s0)
	.loc 1 133 317
	lw	a3,-292(s0)
	.loc 1 133 333
	lw	a2,-288(s0)
	.loc 1 133 349
	lw	a5,-284(s0)
	.loc 1 133 341
	not	a5,a5
	.loc 1 133 339
	or	a5,a2,a5
	.loc 1 133 323
	xor	a3,a3,a5
	.loc 1 133 366
	lw	a5,-228(s0)
	.loc 1 133 357
	add	a5,a3,a5
	.loc 1 133 306
	add	a4,a4,a5
	li	a5,1352830976
	addi	a5,a5,-1050
	add	a5,a4,a5
	sw	a5,-276(s0)
	.loc 1 133 411
	lw	a5,-276(s0)
	.loc 1 133 430
	srli	a4,a5,17
	slli	a5,a5,15
	add	a5,a5,a4
	.loc 1 133 475
	lw	a4,-280(s0)
	.loc 1 133 467
	add	a5,a5,a4
	.loc 1 133 400
	sw	a5,-276(s0)
	.loc 1 133 503
	lw	a5,-288(s0)
	.loc 1 133 518
	srli	a4,a5,22
	slli	a5,a5,10
	add	a5,a5,a4
	.loc 1 133 492
	sw	a5,-288(s0)
	.loc 1 134 22
	lw	a4,-300(s0)
	.loc 1 134 39
	lw	a3,-296(s0)
	.loc 1 134 55
	lw	a5,-312(s0)
	.loc 1 134 45
	xor	a3,a3,a5
	.loc 1 134 71
	lw	a5,-308(s0)
	.loc 1 134 61
	xor	a3,a3,a5
	.loc 1 134 87
	lw	a5,-244(s0)
	.loc 1 134 78
	add	a5,a3,a5
	.loc 1 134 27
	add	a5,a4,a5
	sw	a5,-300(s0)
	.loc 1 134 133
	lw	a5,-300(s0)
	.loc 1 134 151
	srli	a4,a5,23
	slli	a5,a5,9
	add	a5,a5,a4
	.loc 1 134 197
	lw	a4,-304(s0)
	.loc 1 134 188
	add	a5,a5,a4
	.loc 1 134 121
	sw	a5,-300(s0)
	.loc 1 134 227
	lw	a5,-312(s0)
	.loc 1 134 242
	srli	a4,a5,22
	slli	a5,a5,10
	add	a5,a5,a4
	.loc 1 134 215
	sw	a5,-312(s0)
	.loc 1 134 301
	lw	a4,-280(s0)
	.loc 1 134 317
	lw	a3,-276(s0)
	.loc 1 134 333
	lw	a2,-292(s0)
	.loc 1 134 349
	lw	a5,-288(s0)
	.loc 1 134 341
	not	a5,a5
	.loc 1 134 339
	or	a5,a2,a5
	.loc 1 134 323
	xor	a3,a3,a5
	.loc 1 134 366
	lw	a5,-256(s0)
	.loc 1 134 357
	add	a5,a3,a5
	.loc 1 134 306
	add	a4,a4,a5
	li	a5,1352830976
	addi	a5,a5,-1050
	add	a5,a4,a5
	sw	a5,-280(s0)
	.loc 1 134 410
	lw	a5,-280(s0)
	.loc 1 134 428
	srli	a4,a5,27
	slli	a5,a5,5
	add	a5,a5,a4
	.loc 1 134 472
	lw	a4,-284(s0)
	.loc 1 134 464
	add	a5,a5,a4
	.loc 1 134 399
	sw	a5,-280(s0)
	.loc 1 134 500
	lw	a5,-292(s0)
	.loc 1 134 515
	srli	a4,a5,22
	slli	a5,a5,10
	add	a5,a5,a4
	.loc 1 134 489
	sw	a5,-292(s0)
	.loc 1 135 22
	lw	a4,-304(s0)
	.loc 1 135 39
	lw	a3,-300(s0)
	.loc 1 135 55
	lw	a5,-296(s0)
	.loc 1 135 45
	xor	a3,a3,a5
	.loc 1 135 71
	lw	a5,-312(s0)
	.loc 1 135 61
	xor	a3,a3,a5
	.loc 1 135 87
	lw	a5,-240(s0)
	.loc 1 135 78
	add	a5,a3,a5
	.loc 1 135 27
	add	a5,a4,a5
	sw	a5,-304(s0)
	.loc 1 135 133
	lw	a5,-304(s0)
	.loc 1 135 152
	srli	a4,a5,21
	slli	a5,a5,11
	add	a5,a5,a4
	.loc 1 135 199
	lw	a4,-308(s0)
	.loc 1 135 190
	add	a5,a5,a4
	.loc 1 135 121
	sw	a5,-304(s0)
	.loc 1 135 229
	lw	a5,-296(s0)
	.loc 1 135 244
	srli	a4,a5,22
	slli	a5,a5,10
	add	a5,a5,a4
	.loc 1 135 217
	sw	a5,-296(s0)
	.loc 1 135 303
	lw	a4,-284(s0)
	.loc 1 135 319
	lw	a3,-280(s0)
	.loc 1 135 335
	lw	a2,-276(s0)
	.loc 1 135 351
	lw	a5,-292(s0)
	.loc 1 135 343
	not	a5,a5
	.loc 1 135 341
	or	a5,a2,a5
	.loc 1 135 325
	xor	a3,a3,a5
	.loc 1 135 368
	lw	a5,-220(s0)
	.loc 1 135 359
	add	a5,a3,a5
	.loc 1 135 308
	add	a4,a4,a5
	li	a5,1352830976
	addi	a5,a5,-1050
	add	a5,a4,a5
	sw	a5,-284(s0)
	.loc 1 135 413
	lw	a5,-284(s0)
	.loc 1 135 431
	srli	a4,a5,25
	slli	a5,a5,7
	add	a5,a5,a4
	.loc 1 135 475
	lw	a4,-288(s0)
	.loc 1 135 467
	add	a5,a5,a4
	.loc 1 135 402
	sw	a5,-284(s0)
	.loc 1 135 503
	lw	a5,-276(s0)
	.loc 1 135 518
	srli	a4,a5,22
	slli	a5,a5,10
	add	a5,a5,a4
	.loc 1 135 492
	sw	a5,-276(s0)
	.loc 1 136 22
	lw	a4,-308(s0)
	.loc 1 136 39
	lw	a3,-304(s0)
	.loc 1 136 55
	lw	a5,-300(s0)
	.loc 1 136 45
	xor	a3,a3,a5
	.loc 1 136 71
	lw	a5,-296(s0)
	.loc 1 136 61
	xor	a3,a3,a5
	.loc 1 136 87
	lw	a5,-236(s0)
	.loc 1 136 78
	add	a5,a3,a5
	.loc 1 136 27
	add	a5,a4,a5
	sw	a5,-308(s0)
	.loc 1 136 133
	lw	a5,-308(s0)
	.loc 1 136 152
	srli	a4,a5,19
	slli	a5,a5,13
	add	a5,a5,a4
	.loc 1 136 199
	lw	a4,-312(s0)
	.loc 1 136 190
	add	a5,a5,a4
	.loc 1 136 121
	sw	a5,-308(s0)
	.loc 1 136 229
	lw	a5,-300(s0)
	.loc 1 136 244
	srli	a4,a5,22
	slli	a5,a5,10
	add	a5,a5,a4
	.loc 1 136 217
	sw	a5,-300(s0)
	.loc 1 136 303
	lw	a4,-288(s0)
	.loc 1 136 319
	lw	a3,-284(s0)
	.loc 1 136 335
	lw	a2,-280(s0)
	.loc 1 136 351
	lw	a5,-276(s0)
	.loc 1 136 343
	not	a5,a5
	.loc 1 136 341
	or	a5,a2,a5
	.loc 1 136 325
	xor	a3,a3,a5
	.loc 1 136 368
	lw	a5,-248(s0)
	.loc 1 136 359
	add	a5,a3,a5
	.loc 1 136 308
	add	a4,a4,a5
	li	a5,1352830976
	addi	a5,a5,-1050
	add	a5,a4,a5
	sw	a5,-288(s0)
	.loc 1 136 412
	lw	a5,-288(s0)
	.loc 1 136 430
	srli	a4,a5,25
	slli	a5,a5,7
	add	a5,a5,a4
	.loc 1 136 474
	lw	a4,-292(s0)
	.loc 1 136 466
	add	a5,a5,a4
	.loc 1 136 401
	sw	a5,-288(s0)
	.loc 1 136 502
	lw	a5,-280(s0)
	.loc 1 136 517
	srli	a4,a5,22
	slli	a5,a5,10
	add	a5,a5,a4
	.loc 1 136 491
	sw	a5,-280(s0)
	.loc 1 137 22
	lw	a4,-312(s0)
	.loc 1 137 39
	lw	a3,-308(s0)
	.loc 1 137 55
	lw	a5,-304(s0)
	.loc 1 137 45
	xor	a3,a3,a5
	.loc 1 137 71
	lw	a5,-300(s0)
	.loc 1 137 61
	xor	a3,a3,a5
	.loc 1 137 87
	lw	a5,-232(s0)
	.loc 1 137 78
	add	a5,a3,a5
	.loc 1 137 27
	add	a5,a4,a5
	sw	a5,-312(s0)
	.loc 1 137 134
	lw	a5,-312(s0)
	.loc 1 137 153
	srli	a4,a5,18
	slli	a5,a5,14
	add	a5,a5,a4
	.loc 1 137 200
	lw	a4,-296(s0)
	.loc 1 137 191
	add	a5,a5,a4
	.loc 1 137 122
	sw	a5,-312(s0)
	.loc 1 137 230
	lw	a5,-304(s0)
	.loc 1 137 245
	srli	a4,a5,22
	slli	a5,a5,10
	add	a5,a5,a4
	.loc 1 137 218
	sw	a5,-304(s0)
	.loc 1 137 304
	lw	a4,-292(s0)
	.loc 1 137 320
	lw	a3,-288(s0)
	.loc 1 137 336
	lw	a2,-284(s0)
	.loc 1 137 352
	lw	a5,-280(s0)
	.loc 1 137 344
	not	a5,a5
	.loc 1 137 342
	or	a5,a2,a5
	.loc 1 137 326
	xor	a3,a3,a5
	.loc 1 137 369
	lw	a5,-212(s0)
	.loc 1 137 360
	add	a5,a3,a5
	.loc 1 137 309
	add	a4,a4,a5
	li	a5,1352830976
	addi	a5,a5,-1050
	add	a5,a4,a5
	sw	a5,-292(s0)
	.loc 1 137 414
	lw	a5,-292(s0)
	.loc 1 137 432
	srli	a4,a5,24
	slli	a5,a5,8
	add	a5,a5,a4
	.loc 1 137 476
	lw	a4,-276(s0)
	.loc 1 137 468
	add	a5,a5,a4
	.loc 1 137 403
	sw	a5,-292(s0)
	.loc 1 137 504
	lw	a5,-284(s0)
	.loc 1 137 519
	srli	a4,a5,22
	slli	a5,a5,10
	add	a5,a5,a4
	.loc 1 137 493
	sw	a5,-284(s0)
	.loc 1 138 22
	lw	a4,-296(s0)
	.loc 1 138 39
	lw	a3,-312(s0)
	.loc 1 138 55
	lw	a5,-308(s0)
	.loc 1 138 45
	xor	a3,a3,a5
	.loc 1 138 71
	lw	a5,-304(s0)
	.loc 1 138 61
	xor	a3,a3,a5
	.loc 1 138 87
	lw	a5,-228(s0)
	.loc 1 138 78
	add	a5,a3,a5
	.loc 1 138 27
	add	a5,a4,a5
	sw	a5,-296(s0)
	.loc 1 138 134
	lw	a5,-296(s0)
	.loc 1 138 153
	srli	a4,a5,17
	slli	a5,a5,15
	add	a5,a5,a4
	.loc 1 138 200
	lw	a4,-300(s0)
	.loc 1 138 191
	add	a5,a5,a4
	.loc 1 138 122
	sw	a5,-296(s0)
	.loc 1 138 230
	lw	a5,-308(s0)
	.loc 1 138 245
	srli	a4,a5,22
	slli	a5,a5,10
	add	a5,a5,a4
	.loc 1 138 218
	sw	a5,-308(s0)
	.loc 1 138 304
	lw	a4,-276(s0)
	.loc 1 138 320
	lw	a3,-292(s0)
	.loc 1 138 336
	lw	a2,-288(s0)
	.loc 1 138 352
	lw	a5,-284(s0)
	.loc 1 138 344
	not	a5,a5
	.loc 1 138 342
	or	a5,a2,a5
	.loc 1 138 326
	xor	a3,a3,a5
	.loc 1 138 369
	lw	a5,-240(s0)
	.loc 1 138 360
	add	a5,a3,a5
	.loc 1 138 309
	add	a4,a4,a5
	li	a5,1352830976
	addi	a5,a5,-1050
	add	a5,a4,a5
	sw	a5,-276(s0)
	.loc 1 138 413
	lw	a5,-276(s0)
	.loc 1 138 432
	srli	a4,a5,21
	slli	a5,a5,11
	add	a5,a5,a4
	.loc 1 138 477
	lw	a4,-280(s0)
	.loc 1 138 469
	add	a5,a5,a4
	.loc 1 138 402
	sw	a5,-276(s0)
	.loc 1 138 505
	lw	a5,-288(s0)
	.loc 1 138 520
	srli	a4,a5,22
	slli	a5,a5,10
	add	a5,a5,a4
	.loc 1 138 494
	sw	a5,-288(s0)
	.loc 1 139 22
	lw	a4,-300(s0)
	.loc 1 139 39
	lw	a3,-296(s0)
	.loc 1 139 55
	lw	a5,-312(s0)
	.loc 1 139 45
	xor	a3,a3,a5
	.loc 1 139 71
	lw	a5,-308(s0)
	.loc 1 139 61
	xor	a3,a3,a5
	.loc 1 139 87
	lw	a5,-224(s0)
	.loc 1 139 78
	add	a5,a3,a5
	.loc 1 139 27
	add	a5,a4,a5
	sw	a5,-300(s0)
	.loc 1 139 134
	lw	a5,-300(s0)
	.loc 1 139 152
	srli	a4,a5,26
	slli	a5,a5,6
	add	a5,a5,a4
	.loc 1 139 198
	lw	a4,-304(s0)
	.loc 1 139 189
	add	a5,a5,a4
	.loc 1 139 122
	sw	a5,-300(s0)
	.loc 1 139 228
	lw	a5,-312(s0)
	.loc 1 139 243
	srli	a4,a5,22
	slli	a5,a5,10
	add	a5,a5,a4
	.loc 1 139 216
	sw	a5,-312(s0)
	.loc 1 139 302
	lw	a4,-280(s0)
	.loc 1 139 318
	lw	a3,-276(s0)
	.loc 1 139 334
	lw	a2,-292(s0)
	.loc 1 139 350
	lw	a5,-288(s0)
	.loc 1 139 342
	not	a5,a5
	.loc 1 139 340
	or	a5,a2,a5
	.loc 1 139 324
	xor	a3,a3,a5
	.loc 1 139 367
	lw	a5,-268(s0)
	.loc 1 139 358
	add	a5,a3,a5
	.loc 1 139 307
	add	a4,a4,a5
	li	a5,1352830976
	addi	a5,a5,-1050
	add	a5,a4,a5
	sw	a5,-280(s0)
	.loc 1 139 411
	lw	a5,-280(s0)
	.loc 1 139 430
	srli	a4,a5,18
	slli	a5,a5,14
	add	a5,a5,a4
	.loc 1 139 475
	lw	a4,-284(s0)
	.loc 1 139 467
	add	a5,a5,a4
	.loc 1 139 400
	sw	a5,-280(s0)
	.loc 1 139 503
	lw	a5,-292(s0)
	.loc 1 139 518
	srli	a4,a5,22
	slli	a5,a5,10
	add	a5,a5,a4
	.loc 1 139 492
	sw	a5,-292(s0)
	.loc 1 140 22
	lw	a4,-304(s0)
	.loc 1 140 39
	lw	a3,-300(s0)
	.loc 1 140 55
	lw	a5,-296(s0)
	.loc 1 140 45
	xor	a3,a3,a5
	.loc 1 140 71
	lw	a5,-312(s0)
	.loc 1 140 61
	xor	a3,a3,a5
	.loc 1 140 87
	lw	a5,-220(s0)
	.loc 1 140 78
	add	a5,a3,a5
	.loc 1 140 27
	add	a5,a4,a5
	sw	a5,-304(s0)
	.loc 1 140 134
	lw	a5,-304(s0)
	.loc 1 140 152
	srli	a4,a5,25
	slli	a5,a5,7
	add	a5,a5,a4
	.loc 1 140 198
	lw	a4,-308(s0)
	.loc 1 140 189
	add	a5,a5,a4
	.loc 1 140 122
	sw	a5,-304(s0)
	.loc 1 140 228
	lw	a5,-296(s0)
	.loc 1 140 243
	srli	a4,a5,22
	slli	a5,a5,10
	add	a5,a5,a4
	.loc 1 140 216
	sw	a5,-296(s0)
	.loc 1 140 302
	lw	a4,-284(s0)
	.loc 1 140 318
	lw	a3,-280(s0)
	.loc 1 140 334
	lw	a2,-276(s0)
	.loc 1 140 350
	lw	a5,-292(s0)
	.loc 1 140 342
	not	a5,a5
	.loc 1 140 340
	or	a5,a2,a5
	.loc 1 140 324
	xor	a3,a3,a5
	.loc 1 140 367
	lw	a5,-232(s0)
	.loc 1 140 358
	add	a5,a3,a5
	.loc 1 140 307
	add	a4,a4,a5
	li	a5,1352830976
	addi	a5,a5,-1050
	add	a5,a4,a5
	sw	a5,-284(s0)
	.loc 1 140 412
	lw	a5,-284(s0)
	.loc 1 140 431
	srli	a4,a5,18
	slli	a5,a5,14
	add	a5,a5,a4
	.loc 1 140 476
	lw	a4,-288(s0)
	.loc 1 140 468
	add	a5,a5,a4
	.loc 1 140 401
	sw	a5,-284(s0)
	.loc 1 140 504
	lw	a5,-276(s0)
	.loc 1 140 519
	srli	a4,a5,22
	slli	a5,a5,10
	add	a5,a5,a4
	.loc 1 140 493
	sw	a5,-276(s0)
	.loc 1 141 22
	lw	a4,-308(s0)
	.loc 1 141 39
	lw	a3,-304(s0)
	.loc 1 141 55
	lw	a5,-300(s0)
	.loc 1 141 45
	xor	a3,a3,a5
	.loc 1 141 71
	lw	a5,-296(s0)
	.loc 1 141 61
	xor	a3,a3,a5
	.loc 1 141 87
	lw	a5,-216(s0)
	.loc 1 141 78
	add	a5,a3,a5
	.loc 1 141 27
	add	a5,a4,a5
	sw	a5,-308(s0)
	.loc 1 141 134
	lw	a5,-308(s0)
	.loc 1 141 152
	srli	a4,a5,23
	slli	a5,a5,9
	add	a5,a5,a4
	.loc 1 141 198
	lw	a4,-312(s0)
	.loc 1 141 189
	add	a5,a5,a4
	.loc 1 141 122
	sw	a5,-308(s0)
	.loc 1 141 228
	lw	a5,-300(s0)
	.loc 1 141 243
	srli	a4,a5,22
	slli	a5,a5,10
	add	a5,a5,a4
	.loc 1 141 216
	sw	a5,-300(s0)
	.loc 1 141 302
	lw	a4,-288(s0)
	.loc 1 141 318
	lw	a3,-284(s0)
	.loc 1 141 334
	lw	a2,-280(s0)
	.loc 1 141 350
	lw	a5,-276(s0)
	.loc 1 141 342
	not	a5,a5
	.loc 1 141 340
	or	a5,a2,a5
	.loc 1 141 324
	xor	a3,a3,a5
	.loc 1 141 367
	lw	a5,-260(s0)
	.loc 1 141 358
	add	a5,a3,a5
	.loc 1 141 307
	add	a4,a4,a5
	li	a5,1352830976
	addi	a5,a5,-1050
	add	a5,a4,a5
	sw	a5,-288(s0)
	.loc 1 141 411
	lw	a5,-288(s0)
	.loc 1 141 430
	srli	a4,a5,20
	slli	a5,a5,12
	add	a5,a5,a4
	.loc 1 141 475
	lw	a4,-292(s0)
	.loc 1 141 467
	add	a5,a5,a4
	.loc 1 141 400
	sw	a5,-288(s0)
	.loc 1 141 503
	lw	a5,-280(s0)
	.loc 1 141 518
	srli	a4,a5,22
	slli	a5,a5,10
	add	a5,a5,a4
	.loc 1 141 492
	sw	a5,-280(s0)
	.loc 1 142 22
	lw	a4,-312(s0)
	.loc 1 142 39
	lw	a3,-308(s0)
	.loc 1 142 55
	lw	a5,-304(s0)
	.loc 1 142 45
	xor	a3,a3,a5
	.loc 1 142 71
	lw	a5,-300(s0)
	.loc 1 142 61
	xor	a3,a3,a5
	.loc 1 142 87
	lw	a5,-212(s0)
	.loc 1 142 78
	add	a5,a3,a5
	.loc 1 142 27
	add	a5,a4,a5
	sw	a5,-312(s0)
	.loc 1 142 134
	lw	a5,-312(s0)
	.loc 1 142 152
	srli	a4,a5,24
	slli	a5,a5,8
	add	a5,a5,a4
	.loc 1 142 198
	lw	a4,-296(s0)
	.loc 1 142 189
	add	a5,a5,a4
	.loc 1 142 122
	sw	a5,-312(s0)
	.loc 1 142 228
	lw	a5,-304(s0)
	.loc 1 142 243
	srli	a4,a5,22
	slli	a5,a5,10
	add	a5,a5,a4
	.loc 1 142 216
	sw	a5,-304(s0)
	.loc 1 142 302
	lw	a4,-292(s0)
	.loc 1 142 318
	lw	a3,-288(s0)
	.loc 1 142 334
	lw	a2,-284(s0)
	.loc 1 142 350
	lw	a5,-280(s0)
	.loc 1 142 342
	not	a5,a5
	.loc 1 142 340
	or	a5,a2,a5
	.loc 1 142 324
	xor	a3,a3,a5
	.loc 1 142 367
	lw	a5,-224(s0)
	.loc 1 142 358
	add	a5,a3,a5
	.loc 1 142 307
	add	a4,a4,a5
	li	a5,1352830976
	addi	a5,a5,-1050
	add	a5,a4,a5
	sw	a5,-292(s0)
	.loc 1 142 412
	lw	a5,-292(s0)
	.loc 1 142 430
	srli	a4,a5,26
	slli	a5,a5,6
	add	a5,a5,a4
	.loc 1 142 474
	lw	a4,-276(s0)
	.loc 1 142 466
	add	a5,a5,a4
	.loc 1 142 401
	sw	a5,-292(s0)
	.loc 1 142 502
	lw	a5,-284(s0)
	.loc 1 142 517
	srli	a4,a5,22
	slli	a5,a5,10
	add	a5,a5,a4
	.loc 1 142 491
	sw	a5,-284(s0)
	.loc 1 152 22
	lw	a4,-296(s0)
	.loc 1 152 40
	lw	a3,-312(s0)
	.loc 1 152 56
	lw	a5,-308(s0)
	.loc 1 152 46
	and	a3,a3,a5
	.loc 1 152 75
	lw	a5,-312(s0)
	.loc 1 152 66
	not	a2,a5
	.loc 1 152 91
	lw	a5,-304(s0)
	.loc 1 152 81
	and	a5,a2,a5
	.loc 1 152 63
	or	a3,a3,a5
	.loc 1 152 108
	lw	a5,-244(s0)
	.loc 1 152 99
	add	a5,a3,a5
	.loc 1 152 27
	add	a4,a4,a5
	li	a5,1518501888
	addi	a5,a5,-1639
	add	a5,a4,a5
	sw	a5,-296(s0)
	.loc 1 152 154
	lw	a5,-296(s0)
	.loc 1 152 172
	srli	a4,a5,25
	slli	a5,a5,7
	add	a5,a5,a4
	.loc 1 152 218
	lw	a4,-300(s0)
	.loc 1 152 209
	add	a5,a5,a4
	.loc 1 152 142
	sw	a5,-296(s0)
	.loc 1 152 248
	lw	a5,-308(s0)
	.loc 1 152 263
	srli	a4,a5,22
	slli	a5,a5,10
	add	a5,a5,a4
	.loc 1 152 236
	sw	a5,-308(s0)
	.loc 1 152 322
	lw	a4,-276(s0)
	.loc 1 152 339
	lw	a3,-292(s0)
	.loc 1 152 354
	lw	a5,-284(s0)
	.loc 1 152 345
	and	a3,a3,a5
	.loc 1 152 371
	lw	a2,-288(s0)
	.loc 1 152 387
	lw	a5,-284(s0)
	.loc 1 152 379
	not	a5,a5
	.loc 1 152 377
	and	a5,a2,a5
	.loc 1 152 361
	or	a3,a3,a5
	.loc 1 152 404
	lw	a5,-248(s0)
	.loc 1 152 395
	add	a5,a3,a5
	.loc 1 152 327
	add	a4,a4,a5
	li	a5,1548603392
	addi	a5,a5,292
	add	a5,a4,a5
	sw	a5,-276(s0)
	.loc 1 152 448
	lw	a5,-276(s0)
	.loc 1 152 466
	srli	a4,a5,23
	slli	a5,a5,9
	add	a5,a5,a4
	.loc 1 152 510
	lw	a4,-280(s0)
	.loc 1 152 502
	add	a5,a5,a4
	.loc 1 152 437
	sw	a5,-276(s0)
	.loc 1 152 538
	lw	a5,-288(s0)
	.loc 1 152 553
	srli	a4,a5,22
	slli	a5,a5,10
	add	a5,a5,a4
	.loc 1 152 527
	sw	a5,-288(s0)
	.loc 1 153 22
	lw	a4,-300(s0)
	.loc 1 153 40
	lw	a3,-296(s0)
	.loc 1 153 56
	lw	a5,-312(s0)
	.loc 1 153 46
	and	a3,a3,a5
	.loc 1 153 75
	lw	a5,-296(s0)
	.loc 1 153 66
	not	a2,a5
	.loc 1 153 91
	lw	a5,-308(s0)
	.loc 1 153 81
	and	a5,a2,a5
	.loc 1 153 63
	or	a3,a3,a5
	.loc 1 153 108
	lw	a5,-256(s0)
	.loc 1 153 99
	add	a5,a3,a5
	.loc 1 153 27
	add	a4,a4,a5
	li	a5,1518501888
	addi	a5,a5,-1639
	add	a5,a4,a5
	sw	a5,-300(s0)
	.loc 1 153 154
	lw	a5,-300(s0)
	.loc 1 153 172
	srli	a4,a5,26
	slli	a5,a5,6
	add	a5,a5,a4
	.loc 1 153 218
	lw	a4,-304(s0)
	.loc 1 153 209
	add	a5,a5,a4
	.loc 1 153 142
	sw	a5,-300(s0)
	.loc 1 153 248
	lw	a5,-312(s0)
	.loc 1 153 263
	srli	a4,a5,22
	slli	a5,a5,10
	add	a5,a5,a4
	.loc 1 153 236
	sw	a5,-312(s0)
	.loc 1 153 322
	lw	a4,-280(s0)
	.loc 1 153 339
	lw	a3,-276(s0)
	.loc 1 153 354
	lw	a5,-288(s0)
	.loc 1 153 345
	and	a3,a3,a5
	.loc 1 153 371
	lw	a2,-292(s0)
	.loc 1 153 387
	lw	a5,-288(s0)
	.loc 1 153 379
	not	a5,a5
	.loc 1 153 377
	and	a5,a2,a5
	.loc 1 153 361
	or	a3,a3,a5
	.loc 1 153 404
	lw	a5,-228(s0)
	.loc 1 153 395
	add	a5,a3,a5
	.loc 1 153 327
	add	a4,a4,a5
	li	a5,1548603392
	addi	a5,a5,292
	add	a5,a4,a5
	sw	a5,-280(s0)
	.loc 1 153 449
	lw	a5,-280(s0)
	.loc 1 153 468
	srli	a4,a5,19
	slli	a5,a5,13
	add	a5,a5,a4
	.loc 1 153 513
	lw	a4,-284(s0)
	.loc 1 153 505
	add	a5,a5,a4
	.loc 1 153 438
	sw	a5,-280(s0)
	.loc 1 153 541
	lw	a5,-292(s0)
	.loc 1 153 556
	srli	a4,a5,22
	slli	a5,a5,10
	add	a5,a5,a4
	.loc 1 153 530
	sw	a5,-292(s0)
	.loc 1 154 22
	lw	a4,-304(s0)
	.loc 1 154 40
	lw	a3,-300(s0)
	.loc 1 154 56
	lw	a5,-296(s0)
	.loc 1 154 46
	and	a3,a3,a5
	.loc 1 154 75
	lw	a5,-300(s0)
	.loc 1 154 66
	not	a2,a5
	.loc 1 154 91
	lw	a5,-312(s0)
	.loc 1 154 81
	and	a5,a2,a5
	.loc 1 154 63
	or	a3,a3,a5
	.loc 1 154 108
	lw	a5,-220(s0)
	.loc 1 154 99
	add	a5,a3,a5
	.loc 1 154 27
	add	a4,a4,a5
	li	a5,1518501888
	addi	a5,a5,-1639
	add	a5,a4,a5
	sw	a5,-304(s0)
	.loc 1 154 155
	lw	a5,-304(s0)
	.loc 1 154 173
	srli	a4,a5,24
	slli	a5,a5,8
	add	a5,a5,a4
	.loc 1 154 219
	lw	a4,-308(s0)
	.loc 1 154 210
	add	a5,a5,a4
	.loc 1 154 143
	sw	a5,-304(s0)
	.loc 1 154 249
	lw	a5,-296(s0)
	.loc 1 154 264
	srli	a4,a5,22
	slli	a5,a5,10
	add	a5,a5,a4
	.loc 1 154 237
	sw	a5,-296(s0)
	.loc 1 154 323
	lw	a4,-284(s0)
	.loc 1 154 340
	lw	a3,-280(s0)
	.loc 1 154 355
	lw	a5,-292(s0)
	.loc 1 154 346
	and	a3,a3,a5
	.loc 1 154 372
	lw	a2,-276(s0)
	.loc 1 154 388
	lw	a5,-292(s0)
	.loc 1 154 380
	not	a5,a5
	.loc 1 154 378
	and	a5,a2,a5
	.loc 1 154 362
	or	a3,a3,a5
	.loc 1 154 405
	lw	a5,-260(s0)
	.loc 1 154 396
	add	a5,a3,a5
	.loc 1 154 328
	add	a4,a4,a5
	li	a5,1548603392
	addi	a5,a5,292
	add	a5,a4,a5
	sw	a5,-284(s0)
	.loc 1 154 449
	lw	a5,-284(s0)
	.loc 1 154 468
	srli	a4,a5,17
	slli	a5,a5,15
	add	a5,a5,a4
	.loc 1 154 513
	lw	a4,-288(s0)
	.loc 1 154 505
	add	a5,a5,a4
	.loc 1 154 438
	sw	a5,-284(s0)
	.loc 1 154 541
	lw	a5,-276(s0)
	.loc 1 154 556
	srli	a4,a5,22
	slli	a5,a5,10
	add	a5,a5,a4
	.loc 1 154 530
	sw	a5,-276(s0)
	.loc 1 155 22
	lw	a4,-308(s0)
	.loc 1 155 40
	lw	a3,-304(s0)
	.loc 1 155 56
	lw	a5,-300(s0)
	.loc 1 155 46
	and	a3,a3,a5
	.loc 1 155 75
	lw	a5,-304(s0)
	.loc 1 155 66
	not	a2,a5
	.loc 1 155 91
	lw	a5,-296(s0)
	.loc 1 155 81
	and	a5,a2,a5
	.loc 1 155 63
	or	a3,a3,a5
	.loc 1 155 108
	lw	a5,-268(s0)
	.loc 1 155 99
	add	a5,a3,a5
	.loc 1 155 27
	add	a4,a4,a5
	li	a5,1518501888
	addi	a5,a5,-1639
	add	a5,a4,a5
	sw	a5,-308(s0)
	.loc 1 155 154
	lw	a5,-308(s0)
	.loc 1 155 173
	srli	a4,a5,19
	slli	a5,a5,13
	add	a5,a5,a4
	.loc 1 155 220
	lw	a4,-312(s0)
	.loc 1 155 211
	add	a5,a5,a4
	.loc 1 155 142
	sw	a5,-308(s0)
	.loc 1 155 250
	lw	a5,-300(s0)
	.loc 1 155 265
	srli	a4,a5,22
	slli	a5,a5,10
	add	a5,a5,a4
	.loc 1 155 238
	sw	a5,-300(s0)
	.loc 1 155 324
	lw	a4,-288(s0)
	.loc 1 155 341
	lw	a3,-284(s0)
	.loc 1 155 356
	lw	a5,-276(s0)
	.loc 1 155 347
	and	a3,a3,a5
	.loc 1 155 373
	lw	a2,-280(s0)
	.loc 1 155 389
	lw	a5,-276(s0)
	.loc 1 155 381
	not	a5,a5
	.loc 1 155 379
	and	a5,a2,a5
	.loc 1 155 363
	or	a3,a3,a5
	.loc 1 155 406
	lw	a5,-244(s0)
	.loc 1 155 397
	add	a5,a3,a5
	.loc 1 155 329
	add	a4,a4,a5
	li	a5,1548603392
	addi	a5,a5,292
	add	a5,a4,a5
	sw	a5,-288(s0)
	.loc 1 155 450
	lw	a5,-288(s0)
	.loc 1 155 468
	srli	a4,a5,25
	slli	a5,a5,7
	add	a5,a5,a4
	.loc 1 155 512
	lw	a4,-292(s0)
	.loc 1 155 504
	add	a5,a5,a4
	.loc 1 155 439
	sw	a5,-288(s0)
	.loc 1 155 540
	lw	a5,-280(s0)
	.loc 1 155 555
	srli	a4,a5,22
	slli	a5,a5,10
	add	a5,a5,a4
	.loc 1 155 529
	sw	a5,-280(s0)
	.loc 1 156 22
	lw	a4,-312(s0)
	.loc 1 156 40
	lw	a3,-308(s0)
	.loc 1 156 56
	lw	a5,-304(s0)
	.loc 1 156 46
	and	a3,a3,a5
	.loc 1 156 75
	lw	a5,-308(s0)
	.loc 1 156 66
	not	a2,a5
	.loc 1 156 91
	lw	a5,-300(s0)
	.loc 1 156 81
	and	a5,a2,a5
	.loc 1 156 63
	or	a3,a3,a5
	.loc 1 156 108
	lw	a5,-232(s0)
	.loc 1 156 99
	add	a5,a3,a5
	.loc 1 156 27
	add	a4,a4,a5
	li	a5,1518501888
	addi	a5,a5,-1639
	add	a5,a4,a5
	sw	a5,-312(s0)
	.loc 1 156 155
	lw	a5,-312(s0)
	.loc 1 156 174
	srli	a4,a5,21
	slli	a5,a5,11
	add	a5,a5,a4
	.loc 1 156 221
	lw	a4,-296(s0)
	.loc 1 156 212
	add	a5,a5,a4
	.loc 1 156 143
	sw	a5,-312(s0)
	.loc 1 156 251
	lw	a5,-304(s0)
	.loc 1 156 266
	srli	a4,a5,22
	slli	a5,a5,10
	add	a5,a5,a4
	.loc 1 156 239
	sw	a5,-304(s0)
	.loc 1 156 325
	lw	a4,-292(s0)
	.loc 1 156 342
	lw	a3,-288(s0)
	.loc 1 156 357
	lw	a5,-280(s0)
	.loc 1 156 348
	and	a3,a3,a5
	.loc 1 156 374
	lw	a2,-284(s0)
	.loc 1 156 390
	lw	a5,-280(s0)
	.loc 1 156 382
	not	a5,a5
	.loc 1 156 380
	and	a5,a2,a5
	.loc 1 156 364
	or	a3,a3,a5
	.loc 1 156 407
	lw	a5,-272(s0)
	.loc 1 156 398
	add	a5,a3,a5
	.loc 1 156 330
	add	a4,a4,a5
	li	a5,1548603392
	addi	a5,a5,292
	add	a5,a4,a5
	sw	a5,-292(s0)
	.loc 1 156 451
	lw	a5,-292(s0)
	.loc 1 156 470
	srli	a4,a5,20
	slli	a5,a5,12
	add	a5,a5,a4
	.loc 1 156 515
	lw	a4,-276(s0)
	.loc 1 156 507
	add	a5,a5,a4
	.loc 1 156 440
	sw	a5,-292(s0)
	.loc 1 156 543
	lw	a5,-284(s0)
	.loc 1 156 558
	srli	a4,a5,22
	slli	a5,a5,10
	add	a5,a5,a4
	.loc 1 156 532
	sw	a5,-284(s0)
	.loc 1 157 22
	lw	a4,-296(s0)
	.loc 1 157 40
	lw	a3,-312(s0)
	.loc 1 157 56
	lw	a5,-308(s0)
	.loc 1 157 46
	and	a3,a3,a5
	.loc 1 157 75
	lw	a5,-312(s0)
	.loc 1 157 66
	not	a2,a5
	.loc 1 157 91
	lw	a5,-304(s0)
	.loc 1 157 81
	and	a5,a2,a5
	.loc 1 157 63
	or	a3,a3,a5
	.loc 1 157 108
	lw	a5,-248(s0)
	.loc 1 157 99
	add	a5,a3,a5
	.loc 1 157 27
	add	a4,a4,a5
	li	a5,1518501888
	addi	a5,a5,-1639
	add	a5,a4,a5
	sw	a5,-296(s0)
	.loc 1 157 154
	lw	a5,-296(s0)
	.loc 1 157 172
	srli	a4,a5,23
	slli	a5,a5,9
	add	a5,a5,a4
	.loc 1 157 218
	lw	a4,-300(s0)
	.loc 1 157 209
	add	a5,a5,a4
	.loc 1 157 142
	sw	a5,-296(s0)
	.loc 1 157 248
	lw	a5,-308(s0)
	.loc 1 157 263
	srli	a4,a5,22
	slli	a5,a5,10
	add	a5,a5,a4
	.loc 1 157 236
	sw	a5,-308(s0)
	.loc 1 157 322
	lw	a4,-276(s0)
	.loc 1 157 339
	lw	a3,-292(s0)
	.loc 1 157 354
	lw	a5,-284(s0)
	.loc 1 157 345
	and	a3,a3,a5
	.loc 1 157 371
	lw	a2,-288(s0)
	.loc 1 157 387
	lw	a5,-284(s0)
	.loc 1 157 379
	not	a5,a5
	.loc 1 157 377
	and	a5,a2,a5
	.loc 1 157 361
	or	a3,a3,a5
	.loc 1 157 404
	lw	a5,-220(s0)
	.loc 1 157 395
	add	a5,a3,a5
	.loc 1 157 327
	add	a4,a4,a5
	li	a5,1548603392
	addi	a5,a5,292
	add	a5,a4,a5
	sw	a5,-276(s0)
	.loc 1 157 449
	lw	a5,-276(s0)
	.loc 1 157 467
	srli	a4,a5,24
	slli	a5,a5,8
	add	a5,a5,a4
	.loc 1 157 511
	lw	a4,-280(s0)
	.loc 1 157 503
	add	a5,a5,a4
	.loc 1 157 438
	sw	a5,-276(s0)
	.loc 1 157 539
	lw	a5,-288(s0)
	.loc 1 157 554
	srli	a4,a5,22
	slli	a5,a5,10
	add	a5,a5,a4
	.loc 1 157 528
	sw	a5,-288(s0)
	.loc 1 158 22
	lw	a4,-300(s0)
	.loc 1 158 40
	lw	a3,-296(s0)
	.loc 1 158 56
	lw	a5,-312(s0)
	.loc 1 158 46
	and	a3,a3,a5
	.loc 1 158 75
	lw	a5,-296(s0)
	.loc 1 158 66
	not	a2,a5
	.loc 1 158 91
	lw	a5,-308(s0)
	.loc 1 158 81
	and	a5,a2,a5
	.loc 1 158 63
	or	a3,a3,a5
	.loc 1 158 108
	lw	a5,-212(s0)
	.loc 1 158 99
	add	a5,a3,a5
	.loc 1 158 27
	add	a4,a4,a5
	li	a5,1518501888
	addi	a5,a5,-1639
	add	a5,a4,a5
	sw	a5,-300(s0)
	.loc 1 158 155
	lw	a5,-300(s0)
	.loc 1 158 173
	srli	a4,a5,25
	slli	a5,a5,7
	add	a5,a5,a4
	.loc 1 158 219
	lw	a4,-304(s0)
	.loc 1 158 210
	add	a5,a5,a4
	.loc 1 158 143
	sw	a5,-300(s0)
	.loc 1 158 249
	lw	a5,-312(s0)
	.loc 1 158 264
	srli	a4,a5,22
	slli	a5,a5,10
	add	a5,a5,a4
	.loc 1 158 237
	sw	a5,-312(s0)
	.loc 1 158 323
	lw	a4,-280(s0)
	.loc 1 158 340
	lw	a3,-276(s0)
	.loc 1 158 355
	lw	a5,-288(s0)
	.loc 1 158 346
	and	a3,a3,a5
	.loc 1 158 372
	lw	a2,-292(s0)
	.loc 1 158 388
	lw	a5,-288(s0)
	.loc 1 158 380
	not	a5,a5
	.loc 1 158 378
	and	a5,a2,a5
	.loc 1 158 362
	or	a3,a3,a5
	.loc 1 158 405
	lw	a5,-252(s0)
	.loc 1 158 396
	add	a5,a3,a5
	.loc 1 158 328
	add	a4,a4,a5
	li	a5,1548603392
	addi	a5,a5,292
	add	a5,a4,a5
	sw	a5,-280(s0)
	.loc 1 158 449
	lw	a5,-280(s0)
	.loc 1 158 467
	srli	a4,a5,23
	slli	a5,a5,9
	add	a5,a5,a4
	.loc 1 158 511
	lw	a4,-284(s0)
	.loc 1 158 503
	add	a5,a5,a4
	.loc 1 158 438
	sw	a5,-280(s0)
	.loc 1 158 539
	lw	a5,-292(s0)
	.loc 1 158 554
	srli	a4,a5,22
	slli	a5,a5,10
	add	a5,a5,a4
	.loc 1 158 528
	sw	a5,-292(s0)
	.loc 1 159 22
	lw	a4,-304(s0)
	.loc 1 159 40
	lw	a3,-300(s0)
	.loc 1 159 56
	lw	a5,-296(s0)
	.loc 1 159 46
	and	a3,a3,a5
	.loc 1 159 75
	lw	a5,-300(s0)
	.loc 1 159 66
	not	a2,a5
	.loc 1 159 91
	lw	a5,-312(s0)
	.loc 1 159 81
	and	a5,a2,a5
	.loc 1 159 63
	or	a3,a3,a5
	.loc 1 159 108
	lw	a5,-260(s0)
	.loc 1 159 99
	add	a5,a3,a5
	.loc 1 159 27
	add	a4,a4,a5
	li	a5,1518501888
	addi	a5,a5,-1639
	add	a5,a4,a5
	sw	a5,-304(s0)
	.loc 1 159 154
	lw	a5,-304(s0)
	.loc 1 159 173
	srli	a4,a5,17
	slli	a5,a5,15
	add	a5,a5,a4
	.loc 1 159 220
	lw	a4,-308(s0)
	.loc 1 159 211
	add	a5,a5,a4
	.loc 1 159 142
	sw	a5,-304(s0)
	.loc 1 159 250
	lw	a5,-296(s0)
	.loc 1 159 265
	srli	a4,a5,22
	slli	a5,a5,10
	add	a5,a5,a4
	.loc 1 159 238
	sw	a5,-296(s0)
	.loc 1 159 324
	lw	a4,-284(s0)
	.loc 1 159 341
	lw	a3,-280(s0)
	.loc 1 159 356
	lw	a5,-292(s0)
	.loc 1 159 347
	and	a3,a3,a5
	.loc 1 159 373
	lw	a2,-276(s0)
	.loc 1 159 389
	lw	a5,-292(s0)
	.loc 1 159 381
	not	a5,a5
	.loc 1 159 379
	and	a5,a2,a5
	.loc 1 159 363
	or	a3,a3,a5
	.loc 1 159 406
	lw	a5,-232(s0)
	.loc 1 159 397
	add	a5,a3,a5
	.loc 1 159 329
	add	a4,a4,a5
	li	a5,1548603392
	addi	a5,a5,292
	add	a5,a4,a5
	sw	a5,-284(s0)
	.loc 1 159 451
	lw	a5,-284(s0)
	.loc 1 159 470
	srli	a4,a5,21
	slli	a5,a5,11
	add	a5,a5,a4
	.loc 1 159 515
	lw	a4,-288(s0)
	.loc 1 159 507
	add	a5,a5,a4
	.loc 1 159 440
	sw	a5,-284(s0)
	.loc 1 159 543
	lw	a5,-276(s0)
	.loc 1 159 558
	srli	a4,a5,22
	slli	a5,a5,10
	add	a5,a5,a4
	.loc 1 159 532
	sw	a5,-276(s0)
	.loc 1 160 22
	lw	a4,-308(s0)
	.loc 1 160 40
	lw	a3,-304(s0)
	.loc 1 160 56
	lw	a5,-300(s0)
	.loc 1 160 46
	and	a3,a3,a5
	.loc 1 160 75
	lw	a5,-304(s0)
	.loc 1 160 66
	not	a2,a5
	.loc 1 160 91
	lw	a5,-296(s0)
	.loc 1 160 81
	and	a5,a2,a5
	.loc 1 160 63
	or	a3,a3,a5
	.loc 1 160 108
	lw	a5,-224(s0)
	.loc 1 160 99
	add	a5,a3,a5
	.loc 1 160 27
	add	a4,a4,a5
	li	a5,1518501888
	addi	a5,a5,-1639
	add	a5,a4,a5
	sw	a5,-308(s0)
	.loc 1 160 155
	lw	a5,-308(s0)
	.loc 1 160 173
	srli	a4,a5,25
	slli	a5,a5,7
	add	a5,a5,a4
	.loc 1 160 219
	lw	a4,-312(s0)
	.loc 1 160 210
	add	a5,a5,a4
	.loc 1 160 143
	sw	a5,-308(s0)
	.loc 1 160 249
	lw	a5,-300(s0)
	.loc 1 160 264
	srli	a4,a5,22
	slli	a5,a5,10
	add	a5,a5,a4
	.loc 1 160 237
	sw	a5,-300(s0)
	.loc 1 160 323
	lw	a4,-288(s0)
	.loc 1 160 340
	lw	a3,-284(s0)
	.loc 1 160 355
	lw	a5,-276(s0)
	.loc 1 160 346
	and	a3,a3,a5
	.loc 1 160 372
	lw	a2,-280(s0)
	.loc 1 160 388
	lw	a5,-276(s0)
	.loc 1 160 380
	not	a5,a5
	.loc 1 160 378
	and	a5,a2,a5
	.loc 1 160 362
	or	a3,a3,a5
	.loc 1 160 405
	lw	a5,-216(s0)
	.loc 1 160 396
	add	a5,a3,a5
	.loc 1 160 328
	add	a4,a4,a5
	li	a5,1548603392
	addi	a5,a5,292
	add	a5,a4,a5
	sw	a5,-288(s0)
	.loc 1 160 450
	lw	a5,-288(s0)
	.loc 1 160 468
	srli	a4,a5,25
	slli	a5,a5,7
	add	a5,a5,a4
	.loc 1 160 512
	lw	a4,-292(s0)
	.loc 1 160 504
	add	a5,a5,a4
	.loc 1 160 439
	sw	a5,-288(s0)
	.loc 1 160 540
	lw	a5,-280(s0)
	.loc 1 160 555
	srli	a4,a5,22
	slli	a5,a5,10
	add	a5,a5,a4
	.loc 1 160 529
	sw	a5,-280(s0)
	.loc 1 161 22
	lw	a4,-312(s0)
	.loc 1 161 40
	lw	a3,-308(s0)
	.loc 1 161 56
	lw	a5,-304(s0)
	.loc 1 161 46
	and	a3,a3,a5
	.loc 1 161 75
	lw	a5,-308(s0)
	.loc 1 161 66
	not	a2,a5
	.loc 1 161 91
	lw	a5,-300(s0)
	.loc 1 161 81
	and	a5,a2,a5
	.loc 1 161 63
	or	a3,a3,a5
	.loc 1 161 108
	lw	a5,-272(s0)
	.loc 1 161 99
	add	a5,a3,a5
	.loc 1 161 27
	add	a4,a4,a5
	li	a5,1518501888
	addi	a5,a5,-1639
	add	a5,a4,a5
	sw	a5,-312(s0)
	.loc 1 161 154
	lw	a5,-312(s0)
	.loc 1 161 173
	srli	a4,a5,20
	slli	a5,a5,12
	add	a5,a5,a4
	.loc 1 161 220
	lw	a4,-296(s0)
	.loc 1 161 211
	add	a5,a5,a4
	.loc 1 161 142
	sw	a5,-312(s0)
	.loc 1 161 250
	lw	a5,-304(s0)
	.loc 1 161 265
	srli	a4,a5,22
	slli	a5,a5,10
	add	a5,a5,a4
	.loc 1 161 238
	sw	a5,-304(s0)
	.loc 1 161 324
	lw	a4,-292(s0)
	.loc 1 161 341
	lw	a3,-288(s0)
	.loc 1 161 356
	lw	a5,-280(s0)
	.loc 1 161 347
	and	a3,a3,a5
	.loc 1 161 373
	lw	a2,-284(s0)
	.loc 1 161 389
	lw	a5,-280(s0)
	.loc 1 161 381
	not	a5,a5
	.loc 1 161 379
	and	a5,a2,a5
	.loc 1 161 363
	or	a3,a3,a5
	.loc 1 161 406
	lw	a5,-212(s0)
	.loc 1 161 397
	add	a5,a3,a5
	.loc 1 161 329
	add	a4,a4,a5
	li	a5,1548603392
	addi	a5,a5,292
	add	a5,a4,a5
	sw	a5,-292(s0)
	.loc 1 161 451
	lw	a5,-292(s0)
	.loc 1 161 469
	srli	a4,a5,25
	slli	a5,a5,7
	add	a5,a5,a4
	.loc 1 161 513
	lw	a4,-276(s0)
	.loc 1 161 505
	add	a5,a5,a4
	.loc 1 161 440
	sw	a5,-292(s0)
	.loc 1 161 541
	lw	a5,-284(s0)
	.loc 1 161 556
	srli	a4,a5,22
	slli	a5,a5,10
	add	a5,a5,a4
	.loc 1 161 530
	sw	a5,-284(s0)
	.loc 1 162 22
	lw	a4,-296(s0)
	.loc 1 162 40
	lw	a3,-312(s0)
	.loc 1 162 56
	lw	a5,-308(s0)
	.loc 1 162 46
	and	a3,a3,a5
	.loc 1 162 75
	lw	a5,-312(s0)
	.loc 1 162 66
	not	a2,a5
	.loc 1 162 91
	lw	a5,-304(s0)
	.loc 1 162 81
	and	a5,a2,a5
	.loc 1 162 63
	or	a3,a3,a5
	.loc 1 162 108
	lw	a5,-236(s0)
	.loc 1 162 99
	add	a5,a3,a5
	.loc 1 162 27
	add	a4,a4,a5
	li	a5,1518501888
	addi	a5,a5,-1639
	add	a5,a4,a5
	sw	a5,-296(s0)
	.loc 1 162 154
	lw	a5,-296(s0)
	.loc 1 162 173
	srli	a4,a5,17
	slli	a5,a5,15
	add	a5,a5,a4
	.loc 1 162 220
	lw	a4,-300(s0)
	.loc 1 162 211
	add	a5,a5,a4
	.loc 1 162 142
	sw	a5,-296(s0)
	.loc 1 162 250
	lw	a5,-308(s0)
	.loc 1 162 265
	srli	a4,a5,22
	slli	a5,a5,10
	add	a5,a5,a4
	.loc 1 162 238
	sw	a5,-308(s0)
	.loc 1 162 324
	lw	a4,-276(s0)
	.loc 1 162 341
	lw	a3,-292(s0)
	.loc 1 162 356
	lw	a5,-284(s0)
	.loc 1 162 347
	and	a3,a3,a5
	.loc 1 162 373
	lw	a2,-288(s0)
	.loc 1 162 389
	lw	a5,-284(s0)
	.loc 1 162 381
	not	a5,a5
	.loc 1 162 379
	and	a5,a2,a5
	.loc 1 162 363
	or	a3,a3,a5
	.loc 1 162 406
	lw	a5,-240(s0)
	.loc 1 162 397
	add	a5,a3,a5
	.loc 1 162 329
	add	a4,a4,a5
	li	a5,1548603392
	addi	a5,a5,292
	add	a5,a4,a5
	sw	a5,-276(s0)
	.loc 1 162 450
	lw	a5,-276(s0)
	.loc 1 162 469
	srli	a4,a5,20
	slli	a5,a5,12
	add	a5,a5,a4
	.loc 1 162 514
	lw	a4,-280(s0)
	.loc 1 162 506
	add	a5,a5,a4
	.loc 1 162 439
	sw	a5,-276(s0)
	.loc 1 162 542
	lw	a5,-288(s0)
	.loc 1 162 557
	srli	a4,a5,22
	slli	a5,a5,10
	add	a5,a5,a4
	.loc 1 162 531
	sw	a5,-288(s0)
	.loc 1 163 22
	lw	a4,-300(s0)
	.loc 1 163 40
	lw	a3,-296(s0)
	.loc 1 163 56
	lw	a5,-312(s0)
	.loc 1 163 46
	and	a3,a3,a5
	.loc 1 163 75
	lw	a5,-296(s0)
	.loc 1 163 66
	not	a2,a5
	.loc 1 163 91
	lw	a5,-308(s0)
	.loc 1 163 81
	and	a5,a2,a5
	.loc 1 163 63
	or	a3,a3,a5
	.loc 1 163 108
	lw	a5,-252(s0)
	.loc 1 163 99
	add	a5,a3,a5
	.loc 1 163 27
	add	a4,a4,a5
	li	a5,1518501888
	addi	a5,a5,-1639
	add	a5,a4,a5
	sw	a5,-300(s0)
	.loc 1 163 154
	lw	a5,-300(s0)
	.loc 1 163 172
	srli	a4,a5,23
	slli	a5,a5,9
	add	a5,a5,a4
	.loc 1 163 218
	lw	a4,-304(s0)
	.loc 1 163 209
	add	a5,a5,a4
	.loc 1 163 142
	sw	a5,-300(s0)
	.loc 1 163 248
	lw	a5,-312(s0)
	.loc 1 163 263
	srli	a4,a5,22
	slli	a5,a5,10
	add	a5,a5,a4
	.loc 1 163 236
	sw	a5,-312(s0)
	.loc 1 163 322
	lw	a4,-280(s0)
	.loc 1 163 339
	lw	a3,-276(s0)
	.loc 1 163 354
	lw	a5,-288(s0)
	.loc 1 163 345
	and	a3,a3,a5
	.loc 1 163 371
	lw	a2,-292(s0)
	.loc 1 163 387
	lw	a5,-288(s0)
	.loc 1 163 379
	not	a5,a5
	.loc 1 163 377
	and	a5,a2,a5
	.loc 1 163 361
	or	a3,a3,a5
	.loc 1 163 404
	lw	a5,-224(s0)
	.loc 1 163 395
	add	a5,a3,a5
	.loc 1 163 327
	add	a4,a4,a5
	li	a5,1548603392
	addi	a5,a5,292
	add	a5,a4,a5
	sw	a5,-280(s0)
	.loc 1 163 449
	lw	a5,-280(s0)
	.loc 1 163 467
	srli	a4,a5,25
	slli	a5,a5,7
	add	a5,a5,a4
	.loc 1 163 511
	lw	a4,-284(s0)
	.loc 1 163 503
	add	a5,a5,a4
	.loc 1 163 438
	sw	a5,-280(s0)
	.loc 1 163 539
	lw	a5,-292(s0)
	.loc 1 163 554
	srli	a4,a5,22
	slli	a5,a5,10
	add	a5,a5,a4
	.loc 1 163 528
	sw	a5,-292(s0)
	.loc 1 164 22
	lw	a4,-304(s0)
	.loc 1 164 40
	lw	a3,-300(s0)
	.loc 1 164 56
	lw	a5,-296(s0)
	.loc 1 164 46
	and	a3,a3,a5
	.loc 1 164 75
	lw	a5,-300(s0)
	.loc 1 164 66
	not	a2,a5
	.loc 1 164 91
	lw	a5,-312(s0)
	.loc 1 164 81
	and	a5,a2,a5
	.loc 1 164 63
	or	a3,a3,a5
	.loc 1 164 108
	lw	a5,-264(s0)
	.loc 1 164 99
	add	a5,a3,a5
	.loc 1 164 27
	add	a4,a4,a5
	li	a5,1518501888
	addi	a5,a5,-1639
	add	a5,a4,a5
	sw	a5,-304(s0)
	.loc 1 164 154
	lw	a5,-304(s0)
	.loc 1 164 173
	srli	a4,a5,21
	slli	a5,a5,11
	add	a5,a5,a4
	.loc 1 164 220
	lw	a4,-308(s0)
	.loc 1 164 211
	add	a5,a5,a4
	.loc 1 164 142
	sw	a5,-304(s0)
	.loc 1 164 250
	lw	a5,-296(s0)
	.loc 1 164 265
	srli	a4,a5,22
	slli	a5,a5,10
	add	a5,a5,a4
	.loc 1 164 238
	sw	a5,-296(s0)
	.loc 1 164 324
	lw	a4,-284(s0)
	.loc 1 164 341
	lw	a3,-280(s0)
	.loc 1 164 356
	lw	a5,-292(s0)
	.loc 1 164 347
	and	a3,a3,a5
	.loc 1 164 373
	lw	a2,-276(s0)
	.loc 1 164 389
	lw	a5,-292(s0)
	.loc 1 164 381
	not	a5,a5
	.loc 1 164 379
	and	a5,a2,a5
	.loc 1 164 363
	or	a3,a3,a5
	.loc 1 164 406
	lw	a5,-256(s0)
	.loc 1 164 397
	add	a5,a3,a5
	.loc 1 164 329
	add	a4,a4,a5
	li	a5,1548603392
	addi	a5,a5,292
	add	a5,a4,a5
	sw	a5,-284(s0)
	.loc 1 164 450
	lw	a5,-284(s0)
	.loc 1 164 468
	srli	a4,a5,26
	slli	a5,a5,6
	add	a5,a5,a4
	.loc 1 164 512
	lw	a4,-288(s0)
	.loc 1 164 504
	add	a5,a5,a4
	.loc 1 164 439
	sw	a5,-284(s0)
	.loc 1 164 540
	lw	a5,-276(s0)
	.loc 1 164 555
	srli	a4,a5,22
	slli	a5,a5,10
	add	a5,a5,a4
	.loc 1 164 529
	sw	a5,-276(s0)
	.loc 1 165 22
	lw	a4,-308(s0)
	.loc 1 165 40
	lw	a3,-304(s0)
	.loc 1 165 56
	lw	a5,-300(s0)
	.loc 1 165 46
	and	a3,a3,a5
	.loc 1 165 75
	lw	a5,-304(s0)
	.loc 1 165 66
	not	a2,a5
	.loc 1 165 91
	lw	a5,-296(s0)
	.loc 1 165 81
	and	a5,a2,a5
	.loc 1 165 63
	or	a3,a3,a5
	.loc 1 165 108
	lw	a5,-216(s0)
	.loc 1 165 99
	add	a5,a3,a5
	.loc 1 165 27
	add	a4,a4,a5
	li	a5,1518501888
	addi	a5,a5,-1639
	add	a5,a4,a5
	sw	a5,-308(s0)
	.loc 1 165 155
	lw	a5,-308(s0)
	.loc 1 165 173
	srli	a4,a5,25
	slli	a5,a5,7
	add	a5,a5,a4
	.loc 1 165 219
	lw	a4,-312(s0)
	.loc 1 165 210
	add	a5,a5,a4
	.loc 1 165 143
	sw	a5,-308(s0)
	.loc 1 165 249
	lw	a5,-300(s0)
	.loc 1 165 264
	srli	a4,a5,22
	slli	a5,a5,10
	add	a5,a5,a4
	.loc 1 165 237
	sw	a5,-300(s0)
	.loc 1 165 323
	lw	a4,-288(s0)
	.loc 1 165 340
	lw	a3,-284(s0)
	.loc 1 165 355
	lw	a5,-276(s0)
	.loc 1 165 346
	and	a3,a3,a5
	.loc 1 165 372
	lw	a2,-280(s0)
	.loc 1 165 388
	lw	a5,-276(s0)
	.loc 1 165 380
	not	a5,a5
	.loc 1 165 378
	and	a5,a2,a5
	.loc 1 165 362
	or	a3,a3,a5
	.loc 1 165 405
	lw	a5,-236(s0)
	.loc 1 165 396
	add	a5,a3,a5
	.loc 1 165 328
	add	a4,a4,a5
	li	a5,1548603392
	addi	a5,a5,292
	add	a5,a4,a5
	sw	a5,-288(s0)
	.loc 1 165 449
	lw	a5,-288(s0)
	.loc 1 165 468
	srli	a4,a5,17
	slli	a5,a5,15
	add	a5,a5,a4
	.loc 1 165 513
	lw	a4,-292(s0)
	.loc 1 165 505
	add	a5,a5,a4
	.loc 1 165 438
	sw	a5,-288(s0)
	.loc 1 165 541
	lw	a5,-280(s0)
	.loc 1 165 556
	srli	a4,a5,22
	slli	a5,a5,10
	add	a5,a5,a4
	.loc 1 165 530
	sw	a5,-280(s0)
	.loc 1 166 22
	lw	a4,-312(s0)
	.loc 1 166 40
	lw	a3,-308(s0)
	.loc 1 166 56
	lw	a5,-304(s0)
	.loc 1 166 46
	and	a3,a3,a5
	.loc 1 166 75
	lw	a5,-308(s0)
	.loc 1 166 66
	not	a2,a5
	.loc 1 166 91
	lw	a5,-300(s0)
	.loc 1 166 81
	and	a5,a2,a5
	.loc 1 166 63
	or	a3,a3,a5
	.loc 1 166 108
	lw	a5,-228(s0)
	.loc 1 166 99
	add	a5,a3,a5
	.loc 1 166 27
	add	a4,a4,a5
	li	a5,1518501888
	addi	a5,a5,-1639
	add	a5,a4,a5
	sw	a5,-312(s0)
	.loc 1 166 155
	lw	a5,-312(s0)
	.loc 1 166 174
	srli	a4,a5,19
	slli	a5,a5,13
	add	a5,a5,a4
	.loc 1 166 221
	lw	a4,-296(s0)
	.loc 1 166 212
	add	a5,a5,a4
	.loc 1 166 143
	sw	a5,-312(s0)
	.loc 1 166 251
	lw	a5,-304(s0)
	.loc 1 166 266
	srli	a4,a5,22
	slli	a5,a5,10
	add	a5,a5,a4
	.loc 1 166 239
	sw	a5,-304(s0)
	.loc 1 166 325
	lw	a4,-292(s0)
	.loc 1 166 342
	lw	a3,-288(s0)
	.loc 1 166 357
	lw	a5,-280(s0)
	.loc 1 166 348
	and	a3,a3,a5
	.loc 1 166 374
	lw	a2,-284(s0)
	.loc 1 166 390
	lw	a5,-280(s0)
	.loc 1 166 382
	not	a5,a5
	.loc 1 166 380
	and	a5,a2,a5
	.loc 1 166 364
	or	a3,a3,a5
	.loc 1 166 407
	lw	a5,-268(s0)
	.loc 1 166 398
	add	a5,a3,a5
	.loc 1 166 330
	add	a4,a4,a5
	li	a5,1548603392
	addi	a5,a5,292
	add	a5,a4,a5
	sw	a5,-292(s0)
	.loc 1 166 451
	lw	a5,-292(s0)
	.loc 1 166 470
	srli	a4,a5,19
	slli	a5,a5,13
	add	a5,a5,a4
	.loc 1 166 515
	lw	a4,-276(s0)
	.loc 1 166 507
	add	a5,a5,a4
	.loc 1 166 440
	sw	a5,-292(s0)
	.loc 1 166 543
	lw	a5,-284(s0)
	.loc 1 166 558
	srli	a4,a5,22
	slli	a5,a5,10
	add	a5,a5,a4
	.loc 1 166 532
	sw	a5,-284(s0)
	.loc 1 167 22
	lw	a4,-296(s0)
	.loc 1 167 40
	lw	a3,-312(s0)
	.loc 1 167 56
	lw	a5,-308(s0)
	.loc 1 167 46
	and	a3,a3,a5
	.loc 1 167 75
	lw	a5,-312(s0)
	.loc 1 167 66
	not	a2,a5
	.loc 1 167 91
	lw	a5,-304(s0)
	.loc 1 167 81
	and	a5,a2,a5
	.loc 1 167 63
	or	a3,a3,a5
	.loc 1 167 108
	lw	a5,-240(s0)
	.loc 1 167 99
	add	a5,a3,a5
	.loc 1 167 27
	add	a4,a4,a5
	li	a5,1518501888
	addi	a5,a5,-1639
	add	a5,a4,a5
	sw	a5,-296(s0)
	.loc 1 167 154
	lw	a5,-296(s0)
	.loc 1 167 173
	srli	a4,a5,20
	slli	a5,a5,12
	add	a5,a5,a4
	.loc 1 167 220
	lw	a4,-300(s0)
	.loc 1 167 211
	add	a5,a5,a4
	.loc 1 167 142
	sw	a5,-296(s0)
	.loc 1 167 250
	lw	a5,-308(s0)
	.loc 1 167 265
	srli	a4,a5,22
	slli	a5,a5,10
	add	a5,a5,a4
	.loc 1 167 238
	sw	a5,-308(s0)
	.loc 1 167 324
	lw	a4,-276(s0)
	.loc 1 167 341
	lw	a3,-292(s0)
	.loc 1 167 356
	lw	a5,-284(s0)
	.loc 1 167 347
	and	a3,a3,a5
	.loc 1 167 373
	lw	a2,-288(s0)
	.loc 1 167 389
	lw	a5,-284(s0)
	.loc 1 167 381
	not	a5,a5
	.loc 1 167 379
	and	a5,a2,a5
	.loc 1 167 363
	or	a3,a3,a5
	.loc 1 167 406
	lw	a5,-264(s0)
	.loc 1 167 397
	add	a5,a3,a5
	.loc 1 167 329
	add	a4,a4,a5
	li	a5,1548603392
	addi	a5,a5,292
	add	a5,a4,a5
	sw	a5,-276(s0)
	.loc 1 167 450
	lw	a5,-276(s0)
	.loc 1 167 469
	srli	a4,a5,21
	slli	a5,a5,11
	add	a5,a5,a4
	.loc 1 167 514
	lw	a4,-280(s0)
	.loc 1 167 506
	add	a5,a5,a4
	.loc 1 167 439
	sw	a5,-276(s0)
	.loc 1 167 542
	lw	a5,-288(s0)
	.loc 1 167 557
	srli	a4,a5,22
	slli	a5,a5,10
	add	a5,a5,a4
	.loc 1 167 531
	sw	a5,-288(s0)
	.loc 1 177 22
	lw	a4,-300(s0)
	.loc 1 177 40
	lw	a3,-296(s0)
	.loc 1 177 57
	lw	a5,-312(s0)
	.loc 1 177 48
	not	a5,a5
	.loc 1 177 46
	or	a3,a3,a5
	.loc 1 177 74
	lw	a5,-308(s0)
	.loc 1 177 64
	xor	a3,a3,a5
	.loc 1 177 90
	lw	a5,-260(s0)
	.loc 1 177 81
	add	a5,a3,a5
	.loc 1 177 27
	add	a4,a4,a5
	li	a5,1859776512
	addi	a5,a5,-1119
	add	a5,a4,a5
	sw	a5,-300(s0)
	.loc 1 177 136
	lw	a5,-300(s0)
	.loc 1 177 155
	srli	a4,a5,21
	slli	a5,a5,11
	add	a5,a5,a4
	.loc 1 177 202
	lw	a4,-304(s0)
	.loc 1 177 193
	add	a5,a5,a4
	.loc 1 177 124
	sw	a5,-300(s0)
	.loc 1 177 232
	lw	a5,-312(s0)
	.loc 1 177 247
	srli	a4,a5,22
	slli	a5,a5,10
	add	a5,a5,a4
	.loc 1 177 220
	sw	a5,-312(s0)
	.loc 1 177 306
	lw	a4,-280(s0)
	.loc 1 177 323
	lw	a3,-276(s0)
	.loc 1 177 339
	lw	a5,-292(s0)
	.loc 1 177 331
	not	a5,a5
	.loc 1 177 329
	or	a3,a3,a5
	.loc 1 177 355
	lw	a5,-288(s0)
	.loc 1 177 346
	xor	a3,a3,a5
	.loc 1 177 371
	lw	a5,-212(s0)
	.loc 1 177 362
	add	a5,a3,a5
	.loc 1 177 311
	add	a4,a4,a5
	li	a5,1836072960
	addi	a5,a5,-269
	add	a5,a4,a5
	sw	a5,-280(s0)
	.loc 1 177 416
	lw	a5,-280(s0)
	.loc 1 177 434
	srli	a4,a5,23
	slli	a5,a5,9
	add	a5,a5,a4
	.loc 1 177 478
	lw	a4,-284(s0)
	.loc 1 177 470
	add	a5,a5,a4
	.loc 1 177 405
	sw	a5,-280(s0)
	.loc 1 177 506
	lw	a5,-292(s0)
	.loc 1 177 521
	srli	a4,a5,22
	slli	a5,a5,10
	add	a5,a5,a4
	.loc 1 177 495
	sw	a5,-292(s0)
	.loc 1 178 22
	lw	a4,-304(s0)
	.loc 1 178 40
	lw	a3,-300(s0)
	.loc 1 178 57
	lw	a5,-296(s0)
	.loc 1 178 48
	not	a5,a5
	.loc 1 178 46
	or	a3,a3,a5
	.loc 1 178 74
	lw	a5,-312(s0)
	.loc 1 178 64
	xor	a3,a3,a5
	.loc 1 178 90
	lw	a5,-232(s0)
	.loc 1 178 81
	add	a5,a3,a5
	.loc 1 178 27
	add	a4,a4,a5
	li	a5,1859776512
	addi	a5,a5,-1119
	add	a5,a4,a5
	sw	a5,-304(s0)
	.loc 1 178 137
	lw	a5,-304(s0)
	.loc 1 178 156
	srli	a4,a5,19
	slli	a5,a5,13
	add	a5,a5,a4
	.loc 1 178 203
	lw	a4,-308(s0)
	.loc 1 178 194
	add	a5,a5,a4
	.loc 1 178 125
	sw	a5,-304(s0)
	.loc 1 178 233
	lw	a5,-296(s0)
	.loc 1 178 248
	srli	a4,a5,22
	slli	a5,a5,10
	add	a5,a5,a4
	.loc 1 178 221
	sw	a5,-296(s0)
	.loc 1 178 307
	lw	a4,-284(s0)
	.loc 1 178 324
	lw	a3,-280(s0)
	.loc 1 178 340
	lw	a5,-276(s0)
	.loc 1 178 332
	not	a5,a5
	.loc 1 178 330
	or	a3,a3,a5
	.loc 1 178 356
	lw	a5,-292(s0)
	.loc 1 178 347
	xor	a3,a3,a5
	.loc 1 178 372
	lw	a5,-252(s0)
	.loc 1 178 363
	add	a5,a3,a5
	.loc 1 178 312
	add	a4,a4,a5
	li	a5,1836072960
	addi	a5,a5,-269
	add	a5,a4,a5
	sw	a5,-284(s0)
	.loc 1 178 416
	lw	a5,-284(s0)
	.loc 1 178 434
	srli	a4,a5,25
	slli	a5,a5,7
	add	a5,a5,a4
	.loc 1 178 478
	lw	a4,-288(s0)
	.loc 1 178 470
	add	a5,a5,a4
	.loc 1 178 405
	sw	a5,-284(s0)
	.loc 1 178 506
	lw	a5,-276(s0)
	.loc 1 178 521
	srli	a4,a5,22
	slli	a5,a5,10
	add	a5,a5,a4
	.loc 1 178 495
	sw	a5,-276(s0)
	.loc 1 179 22
	lw	a4,-308(s0)
	.loc 1 179 40
	lw	a3,-304(s0)
	.loc 1 179 57
	lw	a5,-300(s0)
	.loc 1 179 48
	not	a5,a5
	.loc 1 179 46
	or	a3,a3,a5
	.loc 1 179 74
	lw	a5,-296(s0)
	.loc 1 179 64
	xor	a3,a3,a5
	.loc 1 179 90
	lw	a5,-216(s0)
	.loc 1 179 81
	add	a5,a3,a5
	.loc 1 179 27
	add	a4,a4,a5
	li	a5,1859776512
	addi	a5,a5,-1119
	add	a5,a4,a5
	sw	a5,-308(s0)
	.loc 1 179 137
	lw	a5,-308(s0)
	.loc 1 179 155
	srli	a4,a5,26
	slli	a5,a5,6
	add	a5,a5,a4
	.loc 1 179 201
	lw	a4,-312(s0)
	.loc 1 179 192
	add	a5,a5,a4
	.loc 1 179 125
	sw	a5,-308(s0)
	.loc 1 179 231
	lw	a5,-300(s0)
	.loc 1 179 246
	srli	a4,a5,22
	slli	a5,a5,10
	add	a5,a5,a4
	.loc 1 179 219
	sw	a5,-300(s0)
	.loc 1 179 305
	lw	a4,-288(s0)
	.loc 1 179 322
	lw	a3,-284(s0)
	.loc 1 179 338
	lw	a5,-280(s0)
	.loc 1 179 330
	not	a5,a5
	.loc 1 179 328
	or	a3,a3,a5
	.loc 1 179 354
	lw	a5,-276(s0)
	.loc 1 179 345
	xor	a3,a3,a5
	.loc 1 179 370
	lw	a5,-268(s0)
	.loc 1 179 361
	add	a5,a3,a5
	.loc 1 179 310
	add	a4,a4,a5
	li	a5,1836072960
	addi	a5,a5,-269
	add	a5,a4,a5
	sw	a5,-288(s0)
	.loc 1 179 414
	lw	a5,-288(s0)
	.loc 1 179 433
	srli	a4,a5,17
	slli	a5,a5,15
	add	a5,a5,a4
	.loc 1 179 478
	lw	a4,-292(s0)
	.loc 1 179 470
	add	a5,a5,a4
	.loc 1 179 403
	sw	a5,-288(s0)
	.loc 1 179 506
	lw	a5,-280(s0)
	.loc 1 179 521
	srli	a4,a5,22
	slli	a5,a5,10
	add	a5,a5,a4
	.loc 1 179 495
	sw	a5,-280(s0)
	.loc 1 180 22
	lw	a4,-312(s0)
	.loc 1 180 40
	lw	a3,-308(s0)
	.loc 1 180 57
	lw	a5,-304(s0)
	.loc 1 180 48
	not	a5,a5
	.loc 1 180 46
	or	a3,a3,a5
	.loc 1 180 74
	lw	a5,-300(s0)
	.loc 1 180 64
	xor	a3,a3,a5
	.loc 1 180 90
	lw	a5,-256(s0)
	.loc 1 180 81
	add	a5,a3,a5
	.loc 1 180 27
	add	a4,a4,a5
	li	a5,1859776512
	addi	a5,a5,-1119
	add	a5,a4,a5
	sw	a5,-312(s0)
	.loc 1 180 136
	lw	a5,-312(s0)
	.loc 1 180 154
	srli	a4,a5,25
	slli	a5,a5,7
	add	a5,a5,a4
	.loc 1 180 200
	lw	a4,-296(s0)
	.loc 1 180 191
	add	a5,a5,a4
	.loc 1 180 124
	sw	a5,-312(s0)
	.loc 1 180 230
	lw	a5,-304(s0)
	.loc 1 180 245
	srli	a4,a5,22
	slli	a5,a5,10
	add	a5,a5,a4
	.loc 1 180 218
	sw	a5,-304(s0)
	.loc 1 180 304
	lw	a4,-292(s0)
	.loc 1 180 321
	lw	a3,-288(s0)
	.loc 1 180 337
	lw	a5,-284(s0)
	.loc 1 180 329
	not	a5,a5
	.loc 1 180 327
	or	a3,a3,a5
	.loc 1 180 353
	lw	a5,-280(s0)
	.loc 1 180 344
	xor	a3,a3,a5
	.loc 1 180 369
	lw	a5,-260(s0)
	.loc 1 180 360
	add	a5,a3,a5
	.loc 1 180 309
	add	a4,a4,a5
	li	a5,1836072960
	addi	a5,a5,-269
	add	a5,a4,a5
	sw	a5,-292(s0)
	.loc 1 180 413
	lw	a5,-292(s0)
	.loc 1 180 432
	srli	a4,a5,21
	slli	a5,a5,11
	add	a5,a5,a4
	.loc 1 180 477
	lw	a4,-276(s0)
	.loc 1 180 469
	add	a5,a5,a4
	.loc 1 180 402
	sw	a5,-292(s0)
	.loc 1 180 505
	lw	a5,-284(s0)
	.loc 1 180 520
	srli	a4,a5,22
	slli	a5,a5,10
	add	a5,a5,a4
	.loc 1 180 494
	sw	a5,-284(s0)
	.loc 1 181 22
	lw	a4,-296(s0)
	.loc 1 181 40
	lw	a3,-312(s0)
	.loc 1 181 57
	lw	a5,-308(s0)
	.loc 1 181 48
	not	a5,a5
	.loc 1 181 46
	or	a3,a3,a5
	.loc 1 181 74
	lw	a5,-304(s0)
	.loc 1 181 64
	xor	a3,a3,a5
	.loc 1 181 90
	lw	a5,-236(s0)
	.loc 1 181 81
	add	a5,a3,a5
	.loc 1 181 27
	add	a4,a4,a5
	li	a5,1859776512
	addi	a5,a5,-1119
	add	a5,a4,a5
	sw	a5,-296(s0)
	.loc 1 181 136
	lw	a5,-296(s0)
	.loc 1 181 155
	srli	a4,a5,18
	slli	a5,a5,14
	add	a5,a5,a4
	.loc 1 181 202
	lw	a4,-300(s0)
	.loc 1 181 193
	add	a5,a5,a4
	.loc 1 181 124
	sw	a5,-296(s0)
	.loc 1 181 232
	lw	a5,-308(s0)
	.loc 1 181 247
	srli	a4,a5,22
	slli	a5,a5,10
	add	a5,a5,a4
	.loc 1 181 220
	sw	a5,-308(s0)
	.loc 1 181 306
	lw	a4,-276(s0)
	.loc 1 181 323
	lw	a3,-292(s0)
	.loc 1 181 339
	lw	a5,-288(s0)
	.loc 1 181 331
	not	a5,a5
	.loc 1 181 329
	or	a3,a3,a5
	.loc 1 181 355
	lw	a5,-284(s0)
	.loc 1 181 346
	xor	a3,a3,a5
	.loc 1 181 371
	lw	a5,-244(s0)
	.loc 1 181 362
	add	a5,a3,a5
	.loc 1 181 311
	add	a4,a4,a5
	li	a5,1836072960
	addi	a5,a5,-269
	add	a5,a4,a5
	sw	a5,-276(s0)
	.loc 1 181 415
	lw	a5,-276(s0)
	.loc 1 181 433
	srli	a4,a5,24
	slli	a5,a5,8
	add	a5,a5,a4
	.loc 1 181 477
	lw	a4,-280(s0)
	.loc 1 181 469
	add	a5,a5,a4
	.loc 1 181 404
	sw	a5,-276(s0)
	.loc 1 181 505
	lw	a5,-288(s0)
	.loc 1 181 520
	srli	a4,a5,22
	slli	a5,a5,10
	add	a5,a5,a4
	.loc 1 181 494
	sw	a5,-288(s0)
	.loc 1 182 22
	lw	a4,-300(s0)
	.loc 1 182 40
	lw	a3,-296(s0)
	.loc 1 182 57
	lw	a5,-312(s0)
	.loc 1 182 48
	not	a5,a5
	.loc 1 182 46
	or	a3,a3,a5
	.loc 1 182 74
	lw	a5,-308(s0)
	.loc 1 182 64
	xor	a3,a3,a5
	.loc 1 182 90
	lw	a5,-212(s0)
	.loc 1 182 81
	add	a5,a3,a5
	.loc 1 182 27
	add	a4,a4,a5
	li	a5,1859776512
	addi	a5,a5,-1119
	add	a5,a4,a5
	sw	a5,-300(s0)
	.loc 1 182 137
	lw	a5,-300(s0)
	.loc 1 182 155
	srli	a4,a5,23
	slli	a5,a5,9
	add	a5,a5,a4
	.loc 1 182 201
	lw	a4,-304(s0)
	.loc 1 182 192
	add	a5,a5,a4
	.loc 1 182 125
	sw	a5,-300(s0)
	.loc 1 182 231
	lw	a5,-312(s0)
	.loc 1 182 246
	srli	a4,a5,22
	slli	a5,a5,10
	add	a5,a5,a4
	.loc 1 182 219
	sw	a5,-312(s0)
	.loc 1 182 305
	lw	a4,-280(s0)
	.loc 1 182 322
	lw	a3,-276(s0)
	.loc 1 182 338
	lw	a5,-292(s0)
	.loc 1 182 330
	not	a5,a5
	.loc 1 182 328
	or	a3,a3,a5
	.loc 1 182 354
	lw	a5,-288(s0)
	.loc 1 182 345
	xor	a3,a3,a5
	.loc 1 182 370
	lw	a5,-216(s0)
	.loc 1 182 361
	add	a5,a3,a5
	.loc 1 182 310
	add	a4,a4,a5
	li	a5,1836072960
	addi	a5,a5,-269
	add	a5,a4,a5
	sw	a5,-280(s0)
	.loc 1 182 415
	lw	a5,-280(s0)
	.loc 1 182 433
	srli	a4,a5,26
	slli	a5,a5,6
	add	a5,a5,a4
	.loc 1 182 477
	lw	a4,-284(s0)
	.loc 1 182 469
	add	a5,a5,a4
	.loc 1 182 404
	sw	a5,-280(s0)
	.loc 1 182 505
	lw	a5,-292(s0)
	.loc 1 182 520
	srli	a4,a5,22
	slli	a5,a5,10
	add	a5,a5,a4
	.loc 1 182 494
	sw	a5,-292(s0)
	.loc 1 183 22
	lw	a4,-304(s0)
	.loc 1 183 40
	lw	a3,-300(s0)
	.loc 1 183 57
	lw	a5,-296(s0)
	.loc 1 183 48
	not	a5,a5
	.loc 1 183 46
	or	a3,a3,a5
	.loc 1 183 74
	lw	a5,-312(s0)
	.loc 1 183 64
	xor	a3,a3,a5
	.loc 1 183 90
	lw	a5,-240(s0)
	.loc 1 183 81
	add	a5,a3,a5
	.loc 1 183 27
	add	a4,a4,a5
	li	a5,1859776512
	addi	a5,a5,-1119
	add	a5,a4,a5
	sw	a5,-304(s0)
	.loc 1 183 136
	lw	a5,-304(s0)
	.loc 1 183 155
	srli	a4,a5,19
	slli	a5,a5,13
	add	a5,a5,a4
	.loc 1 183 202
	lw	a4,-308(s0)
	.loc 1 183 193
	add	a5,a5,a4
	.loc 1 183 124
	sw	a5,-304(s0)
	.loc 1 183 232
	lw	a5,-296(s0)
	.loc 1 183 247
	srli	a4,a5,22
	slli	a5,a5,10
	add	a5,a5,a4
	.loc 1 183 220
	sw	a5,-296(s0)
	.loc 1 183 306
	lw	a4,-284(s0)
	.loc 1 183 323
	lw	a3,-280(s0)
	.loc 1 183 339
	lw	a5,-276(s0)
	.loc 1 183 331
	not	a5,a5
	.loc 1 183 329
	or	a3,a3,a5
	.loc 1 183 355
	lw	a5,-292(s0)
	.loc 1 183 346
	xor	a3,a3,a5
	.loc 1 183 371
	lw	a5,-248(s0)
	.loc 1 183 362
	add	a5,a3,a5
	.loc 1 183 311
	add	a4,a4,a5
	li	a5,1836072960
	addi	a5,a5,-269
	add	a5,a4,a5
	sw	a5,-284(s0)
	.loc 1 183 415
	lw	a5,-284(s0)
	.loc 1 183 433
	srli	a4,a5,26
	slli	a5,a5,6
	add	a5,a5,a4
	.loc 1 183 477
	lw	a4,-288(s0)
	.loc 1 183 469
	add	a5,a5,a4
	.loc 1 183 404
	sw	a5,-284(s0)
	.loc 1 183 505
	lw	a5,-276(s0)
	.loc 1 183 520
	srli	a4,a5,22
	slli	a5,a5,10
	add	a5,a5,a4
	.loc 1 183 494
	sw	a5,-276(s0)
	.loc 1 184 22
	lw	a4,-308(s0)
	.loc 1 184 40
	lw	a3,-304(s0)
	.loc 1 184 57
	lw	a5,-300(s0)
	.loc 1 184 48
	not	a5,a5
	.loc 1 184 46
	or	a3,a3,a5
	.loc 1 184 74
	lw	a5,-296(s0)
	.loc 1 184 64
	xor	a3,a3,a5
	.loc 1 184 90
	lw	a5,-268(s0)
	.loc 1 184 81
	add	a5,a3,a5
	.loc 1 184 27
	add	a4,a4,a5
	li	a5,1859776512
	addi	a5,a5,-1119
	add	a5,a4,a5
	sw	a5,-308(s0)
	.loc 1 184 136
	lw	a5,-308(s0)
	.loc 1 184 155
	srli	a4,a5,17
	slli	a5,a5,15
	add	a5,a5,a4
	.loc 1 184 202
	lw	a4,-312(s0)
	.loc 1 184 193
	add	a5,a5,a4
	.loc 1 184 124
	sw	a5,-308(s0)
	.loc 1 184 232
	lw	a5,-300(s0)
	.loc 1 184 247
	srli	a4,a5,22
	slli	a5,a5,10
	add	a5,a5,a4
	.loc 1 184 220
	sw	a5,-300(s0)
	.loc 1 184 306
	lw	a4,-288(s0)
	.loc 1 184 323
	lw	a3,-284(s0)
	.loc 1 184 339
	lw	a5,-280(s0)
	.loc 1 184 331
	not	a5,a5
	.loc 1 184 329
	or	a3,a3,a5
	.loc 1 184 355
	lw	a5,-276(s0)
	.loc 1 184 346
	xor	a3,a3,a5
	.loc 1 184 371
	lw	a5,-236(s0)
	.loc 1 184 362
	add	a5,a3,a5
	.loc 1 184 311
	add	a4,a4,a5
	li	a5,1836072960
	addi	a5,a5,-269
	add	a5,a4,a5
	sw	a5,-288(s0)
	.loc 1 184 415
	lw	a5,-288(s0)
	.loc 1 184 434
	srli	a4,a5,18
	slli	a5,a5,14
	add	a5,a5,a4
	.loc 1 184 479
	lw	a4,-292(s0)
	.loc 1 184 471
	add	a5,a5,a4
	.loc 1 184 404
	sw	a5,-288(s0)
	.loc 1 184 507
	lw	a5,-280(s0)
	.loc 1 184 522
	srli	a4,a5,22
	slli	a5,a5,10
	add	a5,a5,a4
	.loc 1 184 496
	sw	a5,-280(s0)
	.loc 1 185 22
	lw	a4,-312(s0)
	.loc 1 185 40
	lw	a3,-308(s0)
	.loc 1 185 57
	lw	a5,-304(s0)
	.loc 1 185 48
	not	a5,a5
	.loc 1 185 46
	or	a3,a3,a5
	.loc 1 185 74
	lw	a5,-300(s0)
	.loc 1 185 64
	xor	a3,a3,a5
	.loc 1 185 90
	lw	a5,-264(s0)
	.loc 1 185 81
	add	a5,a3,a5
	.loc 1 185 27
	add	a4,a4,a5
	li	a5,1859776512
	addi	a5,a5,-1119
	add	a5,a4,a5
	sw	a5,-312(s0)
	.loc 1 185 136
	lw	a5,-312(s0)
	.loc 1 185 155
	srli	a4,a5,18
	slli	a5,a5,14
	add	a5,a5,a4
	.loc 1 185 202
	lw	a4,-296(s0)
	.loc 1 185 193
	add	a5,a5,a4
	.loc 1 185 124
	sw	a5,-312(s0)
	.loc 1 185 232
	lw	a5,-304(s0)
	.loc 1 185 247
	srli	a4,a5,22
	slli	a5,a5,10
	add	a5,a5,a4
	.loc 1 185 220
	sw	a5,-304(s0)
	.loc 1 185 306
	lw	a4,-292(s0)
	.loc 1 185 323
	lw	a3,-288(s0)
	.loc 1 185 339
	lw	a5,-284(s0)
	.loc 1 185 331
	not	a5,a5
	.loc 1 185 329
	or	a3,a3,a5
	.loc 1 185 355
	lw	a5,-280(s0)
	.loc 1 185 346
	xor	a3,a3,a5
	.loc 1 185 371
	lw	a5,-228(s0)
	.loc 1 185 362
	add	a5,a3,a5
	.loc 1 185 311
	add	a4,a4,a5
	li	a5,1836072960
	addi	a5,a5,-269
	add	a5,a4,a5
	sw	a5,-292(s0)
	.loc 1 185 416
	lw	a5,-292(s0)
	.loc 1 185 435
	srli	a4,a5,20
	slli	a5,a5,12
	add	a5,a5,a4
	.loc 1 185 480
	lw	a4,-276(s0)
	.loc 1 185 472
	add	a5,a5,a4
	.loc 1 185 405
	sw	a5,-292(s0)
	.loc 1 185 508
	lw	a5,-284(s0)
	.loc 1 185 523
	srli	a4,a5,22
	slli	a5,a5,10
	add	a5,a5,a4
	.loc 1 185 497
	sw	a5,-284(s0)
	.loc 1 186 22
	lw	a4,-296(s0)
	.loc 1 186 40
	lw	a3,-312(s0)
	.loc 1 186 57
	lw	a5,-308(s0)
	.loc 1 186 48
	not	a5,a5
	.loc 1 186 46
	or	a3,a3,a5
	.loc 1 186 74
	lw	a5,-304(s0)
	.loc 1 186 64
	xor	a3,a3,a5
	.loc 1 186 90
	lw	a5,-244(s0)
	.loc 1 186 81
	add	a5,a3,a5
	.loc 1 186 27
	add	a4,a4,a5
	li	a5,1859776512
	addi	a5,a5,-1119
	add	a5,a4,a5
	sw	a5,-296(s0)
	.loc 1 186 136
	lw	a5,-296(s0)
	.loc 1 186 154
	srli	a4,a5,24
	slli	a5,a5,8
	add	a5,a5,a4
	.loc 1 186 200
	lw	a4,-300(s0)
	.loc 1 186 191
	add	a5,a5,a4
	.loc 1 186 124
	sw	a5,-296(s0)
	.loc 1 186 230
	lw	a5,-308(s0)
	.loc 1 186 245
	srli	a4,a5,22
	slli	a5,a5,10
	add	a5,a5,a4
	.loc 1 186 218
	sw	a5,-308(s0)
	.loc 1 186 304
	lw	a4,-276(s0)
	.loc 1 186 321
	lw	a3,-292(s0)
	.loc 1 186 337
	lw	a5,-288(s0)
	.loc 1 186 329
	not	a5,a5
	.loc 1 186 327
	or	a3,a3,a5
	.loc 1 186 353
	lw	a5,-284(s0)
	.loc 1 186 344
	xor	a3,a3,a5
	.loc 1 186 369
	lw	a5,-240(s0)
	.loc 1 186 360
	add	a5,a3,a5
	.loc 1 186 309
	add	a4,a4,a5
	li	a5,1836072960
	addi	a5,a5,-269
	add	a5,a4,a5
	sw	a5,-276(s0)
	.loc 1 186 413
	lw	a5,-276(s0)
	.loc 1 186 432
	srli	a4,a5,19
	slli	a5,a5,13
	add	a5,a5,a4
	.loc 1 186 477
	lw	a4,-280(s0)
	.loc 1 186 469
	add	a5,a5,a4
	.loc 1 186 402
	sw	a5,-276(s0)
	.loc 1 186 505
	lw	a5,-288(s0)
	.loc 1 186 520
	srli	a4,a5,22
	slli	a5,a5,10
	add	a5,a5,a4
	.loc 1 186 494
	sw	a5,-288(s0)
	.loc 1 187 22
	lw	a4,-300(s0)
	.loc 1 187 40
	lw	a3,-296(s0)
	.loc 1 187 57
	lw	a5,-312(s0)
	.loc 1 187 48
	not	a5,a5
	.loc 1 187 46
	or	a3,a3,a5
	.loc 1 187 74
	lw	a5,-308(s0)
	.loc 1 187 64
	xor	a3,a3,a5
	.loc 1 187 90
	lw	a5,-272(s0)
	.loc 1 187 81
	add	a5,a3,a5
	.loc 1 187 27
	add	a4,a4,a5
	li	a5,1859776512
	addi	a5,a5,-1119
	add	a5,a4,a5
	sw	a5,-300(s0)
	.loc 1 187 136
	lw	a5,-300(s0)
	.loc 1 187 155
	srli	a4,a5,19
	slli	a5,a5,13
	add	a5,a5,a4
	.loc 1 187 202
	lw	a4,-304(s0)
	.loc 1 187 193
	add	a5,a5,a4
	.loc 1 187 124
	sw	a5,-300(s0)
	.loc 1 187 232
	lw	a5,-312(s0)
	.loc 1 187 247
	srli	a4,a5,22
	slli	a5,a5,10
	add	a5,a5,a4
	.loc 1 187 220
	sw	a5,-312(s0)
	.loc 1 187 306
	lw	a4,-280(s0)
	.loc 1 187 323
	lw	a3,-276(s0)
	.loc 1 187 339
	lw	a5,-292(s0)
	.loc 1 187 331
	not	a5,a5
	.loc 1 187 329
	or	a3,a3,a5
	.loc 1 187 355
	lw	a5,-288(s0)
	.loc 1 187 346
	xor	a3,a3,a5
	.loc 1 187 371
	lw	a5,-224(s0)
	.loc 1 187 362
	add	a5,a3,a5
	.loc 1 187 311
	add	a4,a4,a5
	li	a5,1836072960
	addi	a5,a5,-269
	add	a5,a4,a5
	sw	a5,-280(s0)
	.loc 1 187 416
	lw	a5,-280(s0)
	.loc 1 187 434
	srli	a4,a5,27
	slli	a5,a5,5
	add	a5,a5,a4
	.loc 1 187 478
	lw	a4,-284(s0)
	.loc 1 187 470
	add	a5,a5,a4
	.loc 1 187 405
	sw	a5,-280(s0)
	.loc 1 187 506
	lw	a5,-292(s0)
	.loc 1 187 521
	srli	a4,a5,22
	slli	a5,a5,10
	add	a5,a5,a4
	.loc 1 187 495
	sw	a5,-292(s0)
	.loc 1 188 22
	lw	a4,-304(s0)
	.loc 1 188 40
	lw	a3,-300(s0)
	.loc 1 188 57
	lw	a5,-296(s0)
	.loc 1 188 48
	not	a5,a5
	.loc 1 188 46
	or	a3,a3,a5
	.loc 1 188 74
	lw	a5,-312(s0)
	.loc 1 188 64
	xor	a3,a3,a5
	.loc 1 188 90
	lw	a5,-248(s0)
	.loc 1 188 81
	add	a5,a3,a5
	.loc 1 188 27
	add	a4,a4,a5
	li	a5,1859776512
	addi	a5,a5,-1119
	add	a5,a4,a5
	sw	a5,-304(s0)
	.loc 1 188 136
	lw	a5,-304(s0)
	.loc 1 188 154
	srli	a4,a5,26
	slli	a5,a5,6
	add	a5,a5,a4
	.loc 1 188 200
	lw	a4,-308(s0)
	.loc 1 188 191
	add	a5,a5,a4
	.loc 1 188 124
	sw	a5,-304(s0)
	.loc 1 188 230
	lw	a5,-296(s0)
	.loc 1 188 245
	srli	a4,a5,22
	slli	a5,a5,10
	add	a5,a5,a4
	.loc 1 188 218
	sw	a5,-296(s0)
	.loc 1 188 304
	lw	a4,-284(s0)
	.loc 1 188 321
	lw	a3,-280(s0)
	.loc 1 188 337
	lw	a5,-276(s0)
	.loc 1 188 329
	not	a5,a5
	.loc 1 188 327
	or	a3,a3,a5
	.loc 1 188 353
	lw	a5,-292(s0)
	.loc 1 188 344
	xor	a3,a3,a5
	.loc 1 188 369
	lw	a5,-264(s0)
	.loc 1 188 360
	add	a5,a3,a5
	.loc 1 188 309
	add	a4,a4,a5
	li	a5,1836072960
	addi	a5,a5,-269
	add	a5,a4,a5
	sw	a5,-284(s0)
	.loc 1 188 413
	lw	a5,-284(s0)
	.loc 1 188 432
	srli	a4,a5,18
	slli	a5,a5,14
	add	a5,a5,a4
	.loc 1 188 477
	lw	a4,-288(s0)
	.loc 1 188 469
	add	a5,a5,a4
	.loc 1 188 402
	sw	a5,-284(s0)
	.loc 1 188 505
	lw	a5,-276(s0)
	.loc 1 188 520
	srli	a4,a5,22
	slli	a5,a5,10
	add	a5,a5,a4
	.loc 1 188 494
	sw	a5,-276(s0)
	.loc 1 189 22
	lw	a4,-308(s0)
	.loc 1 189 40
	lw	a3,-304(s0)
	.loc 1 189 57
	lw	a5,-300(s0)
	.loc 1 189 48
	not	a5,a5
	.loc 1 189 46
	or	a3,a3,a5
	.loc 1 189 74
	lw	a5,-296(s0)
	.loc 1 189 64
	xor	a3,a3,a5
	.loc 1 189 90
	lw	a5,-220(s0)
	.loc 1 189 81
	add	a5,a3,a5
	.loc 1 189 27
	add	a4,a4,a5
	li	a5,1859776512
	addi	a5,a5,-1119
	add	a5,a4,a5
	sw	a5,-308(s0)
	.loc 1 189 137
	lw	a5,-308(s0)
	.loc 1 189 155
	srli	a4,a5,27
	slli	a5,a5,5
	add	a5,a5,a4
	.loc 1 189 201
	lw	a4,-312(s0)
	.loc 1 189 192
	add	a5,a5,a4
	.loc 1 189 125
	sw	a5,-308(s0)
	.loc 1 189 231
	lw	a5,-300(s0)
	.loc 1 189 246
	srli	a4,a5,22
	slli	a5,a5,10
	add	a5,a5,a4
	.loc 1 189 219
	sw	a5,-300(s0)
	.loc 1 189 305
	lw	a4,-288(s0)
	.loc 1 189 322
	lw	a3,-284(s0)
	.loc 1 189 338
	lw	a5,-280(s0)
	.loc 1 189 330
	not	a5,a5
	.loc 1 189 328
	or	a3,a3,a5
	.loc 1 189 354
	lw	a5,-276(s0)
	.loc 1 189 345
	xor	a3,a3,a5
	.loc 1 189 370
	lw	a5,-232(s0)
	.loc 1 189 361
	add	a5,a3,a5
	.loc 1 189 310
	add	a4,a4,a5
	li	a5,1836072960
	addi	a5,a5,-269
	add	a5,a4,a5
	sw	a5,-288(s0)
	.loc 1 189 415
	lw	a5,-288(s0)
	.loc 1 189 434
	srli	a4,a5,19
	slli	a5,a5,13
	add	a5,a5,a4
	.loc 1 189 479
	lw	a4,-292(s0)
	.loc 1 189 471
	add	a5,a5,a4
	.loc 1 189 404
	sw	a5,-288(s0)
	.loc 1 189 507
	lw	a5,-280(s0)
	.loc 1 189 522
	srli	a4,a5,22
	slli	a5,a5,10
	add	a5,a5,a4
	.loc 1 189 496
	sw	a5,-280(s0)
	.loc 1 190 22
	lw	a4,-312(s0)
	.loc 1 190 40
	lw	a3,-308(s0)
	.loc 1 190 57
	lw	a5,-304(s0)
	.loc 1 190 48
	not	a5,a5
	.loc 1 190 46
	or	a3,a3,a5
	.loc 1 190 74
	lw	a5,-300(s0)
	.loc 1 190 64
	xor	a3,a3,a5
	.loc 1 190 90
	lw	a5,-228(s0)
	.loc 1 190 81
	add	a5,a3,a5
	.loc 1 190 27
	add	a4,a4,a5
	li	a5,1859776512
	addi	a5,a5,-1119
	add	a5,a4,a5
	sw	a5,-312(s0)
	.loc 1 190 137
	lw	a5,-312(s0)
	.loc 1 190 156
	srli	a4,a5,20
	slli	a5,a5,12
	add	a5,a5,a4
	.loc 1 190 203
	lw	a4,-296(s0)
	.loc 1 190 194
	add	a5,a5,a4
	.loc 1 190 125
	sw	a5,-312(s0)
	.loc 1 190 233
	lw	a5,-304(s0)
	.loc 1 190 248
	srli	a4,a5,22
	slli	a5,a5,10
	add	a5,a5,a4
	.loc 1 190 221
	sw	a5,-304(s0)
	.loc 1 190 307
	lw	a4,-292(s0)
	.loc 1 190 324
	lw	a3,-288(s0)
	.loc 1 190 340
	lw	a5,-284(s0)
	.loc 1 190 332
	not	a5,a5
	.loc 1 190 330
	or	a3,a3,a5
	.loc 1 190 356
	lw	a5,-280(s0)
	.loc 1 190 347
	xor	a3,a3,a5
	.loc 1 190 372
	lw	a5,-272(s0)
	.loc 1 190 363
	add	a5,a3,a5
	.loc 1 190 312
	add	a4,a4,a5
	li	a5,1836072960
	addi	a5,a5,-269
	add	a5,a4,a5
	sw	a5,-292(s0)
	.loc 1 190 416
	lw	a5,-292(s0)
	.loc 1 190 435
	srli	a4,a5,19
	slli	a5,a5,13
	add	a5,a5,a4
	.loc 1 190 480
	lw	a4,-276(s0)
	.loc 1 190 472
	add	a5,a5,a4
	.loc 1 190 405
	sw	a5,-292(s0)
	.loc 1 190 508
	lw	a5,-284(s0)
	.loc 1 190 523
	srli	a4,a5,22
	slli	a5,a5,10
	add	a5,a5,a4
	.loc 1 190 497
	sw	a5,-284(s0)
	.loc 1 191 22
	lw	a4,-296(s0)
	.loc 1 191 40
	lw	a3,-312(s0)
	.loc 1 191 57
	lw	a5,-308(s0)
	.loc 1 191 48
	not	a5,a5
	.loc 1 191 46
	or	a3,a3,a5
	.loc 1 191 74
	lw	a5,-304(s0)
	.loc 1 191 64
	xor	a3,a3,a5
	.loc 1 191 90
	lw	a5,-252(s0)
	.loc 1 191 81
	add	a5,a3,a5
	.loc 1 191 27
	add	a4,a4,a5
	li	a5,1859776512
	addi	a5,a5,-1119
	add	a5,a4,a5
	sw	a5,-296(s0)
	.loc 1 191 136
	lw	a5,-296(s0)
	.loc 1 191 154
	srli	a4,a5,25
	slli	a5,a5,7
	add	a5,a5,a4
	.loc 1 191 200
	lw	a4,-300(s0)
	.loc 1 191 191
	add	a5,a5,a4
	.loc 1 191 124
	sw	a5,-296(s0)
	.loc 1 191 230
	lw	a5,-308(s0)
	.loc 1 191 245
	srli	a4,a5,22
	slli	a5,a5,10
	add	a5,a5,a4
	.loc 1 191 218
	sw	a5,-308(s0)
	.loc 1 191 304
	lw	a4,-276(s0)
	.loc 1 191 321
	lw	a3,-292(s0)
	.loc 1 191 337
	lw	a5,-288(s0)
	.loc 1 191 329
	not	a5,a5
	.loc 1 191 327
	or	a3,a3,a5
	.loc 1 191 353
	lw	a5,-284(s0)
	.loc 1 191 344
	xor	a3,a3,a5
	.loc 1 191 369
	lw	a5,-256(s0)
	.loc 1 191 360
	add	a5,a3,a5
	.loc 1 191 309
	add	a4,a4,a5
	li	a5,1836072960
	addi	a5,a5,-269
	add	a5,a4,a5
	sw	a5,-276(s0)
	.loc 1 191 413
	lw	a5,-276(s0)
	.loc 1 191 431
	srli	a4,a5,25
	slli	a5,a5,7
	add	a5,a5,a4
	.loc 1 191 475
	lw	a4,-280(s0)
	.loc 1 191 467
	add	a5,a5,a4
	.loc 1 191 402
	sw	a5,-276(s0)
	.loc 1 191 503
	lw	a5,-288(s0)
	.loc 1 191 518
	srli	a4,a5,22
	slli	a5,a5,10
	add	a5,a5,a4
	.loc 1 191 492
	sw	a5,-288(s0)
	.loc 1 192 22
	lw	a4,-300(s0)
	.loc 1 192 40
	lw	a3,-296(s0)
	.loc 1 192 57
	lw	a5,-312(s0)
	.loc 1 192 48
	not	a5,a5
	.loc 1 192 46
	or	a3,a3,a5
	.loc 1 192 74
	lw	a5,-308(s0)
	.loc 1 192 64
	xor	a3,a3,a5
	.loc 1 192 90
	lw	a5,-224(s0)
	.loc 1 192 81
	add	a5,a3,a5
	.loc 1 192 27
	add	a4,a4,a5
	li	a5,1859776512
	addi	a5,a5,-1119
	add	a5,a4,a5
	sw	a5,-300(s0)
	.loc 1 192 137
	lw	a5,-300(s0)
	.loc 1 192 155
	srli	a4,a5,27
	slli	a5,a5,5
	add	a5,a5,a4
	.loc 1 192 201
	lw	a4,-304(s0)
	.loc 1 192 192
	add	a5,a5,a4
	.loc 1 192 125
	sw	a5,-300(s0)
	.loc 1 192 231
	lw	a5,-312(s0)
	.loc 1 192 246
	srli	a4,a5,22
	slli	a5,a5,10
	add	a5,a5,a4
	.loc 1 192 219
	sw	a5,-312(s0)
	.loc 1 192 305
	lw	a4,-280(s0)
	.loc 1 192 322
	lw	a3,-276(s0)
	.loc 1 192 338
	lw	a5,-292(s0)
	.loc 1 192 330
	not	a5,a5
	.loc 1 192 328
	or	a3,a3,a5
	.loc 1 192 354
	lw	a5,-288(s0)
	.loc 1 192 345
	xor	a3,a3,a5
	.loc 1 192 370
	lw	a5,-220(s0)
	.loc 1 192 361
	add	a5,a3,a5
	.loc 1 192 310
	add	a4,a4,a5
	li	a5,1836072960
	addi	a5,a5,-269
	add	a5,a4,a5
	sw	a5,-280(s0)
	.loc 1 192 415
	lw	a5,-280(s0)
	.loc 1 192 433
	srli	a4,a5,27
	slli	a5,a5,5
	add	a5,a5,a4
	.loc 1 192 477
	lw	a4,-284(s0)
	.loc 1 192 469
	add	a5,a5,a4
	.loc 1 192 404
	sw	a5,-280(s0)
	.loc 1 192 505
	lw	a5,-292(s0)
	.loc 1 192 520
	srli	a4,a5,22
	slli	a5,a5,10
	add	a5,a5,a4
	.loc 1 192 494
	sw	a5,-292(s0)
	.loc 1 202 22
	lw	a4,-304(s0)
	.loc 1 202 40
	lw	a3,-300(s0)
	.loc 1 202 56
	lw	a5,-312(s0)
	.loc 1 202 46
	and	a3,a3,a5
	.loc 1 202 74
	lw	a2,-296(s0)
	.loc 1 202 91
	lw	a5,-312(s0)
	.loc 1 202 82
	not	a5,a5
	.loc 1 202 80
	and	a5,a2,a5
	.loc 1 202 63
	or	a3,a3,a5
	.loc 1 202 108
	lw	a5,-268(s0)
	.loc 1 202 99
	add	a5,a3,a5
	.loc 1 202 27
	add	a4,a4,a5
	li	a5,-1894006784
	addi	a5,a5,-804
	add	a5,a4,a5
	sw	a5,-304(s0)
	.loc 1 202 154
	lw	a5,-304(s0)
	.loc 1 202 173
	srli	a4,a5,21
	slli	a5,a5,11
	add	a5,a5,a4
	.loc 1 202 220
	lw	a4,-308(s0)
	.loc 1 202 211
	add	a5,a5,a4
	.loc 1 202 142
	sw	a5,-304(s0)
	.loc 1 202 250
	lw	a5,-296(s0)
	.loc 1 202 265
	srli	a4,a5,22
	slli	a5,a5,10
	add	a5,a5,a4
	.loc 1 202 238
	sw	a5,-296(s0)
	.loc 1 202 324
	lw	a4,-284(s0)
	.loc 1 202 341
	lw	a3,-280(s0)
	.loc 1 202 356
	lw	a5,-276(s0)
	.loc 1 202 347
	and	a3,a3,a5
	.loc 1 202 374
	lw	a5,-280(s0)
	.loc 1 202 366
	not	a2,a5
	.loc 1 202 389
	lw	a5,-292(s0)
	.loc 1 202 380
	and	a5,a2,a5
	.loc 1 202 363
	or	a3,a3,a5
	.loc 1 202 406
	lw	a5,-240(s0)
	.loc 1 202 397
	add	a5,a3,a5
	.loc 1 202 329
	add	a4,a4,a5
	li	a5,2053992448
	addi	a5,a5,1769
	add	a5,a4,a5
	sw	a5,-284(s0)
	.loc 1 202 450
	lw	a5,-284(s0)
	.loc 1 202 469
	srli	a4,a5,17
	slli	a5,a5,15
	add	a5,a5,a4
	.loc 1 202 514
	lw	a4,-288(s0)
	.loc 1 202 506
	add	a5,a5,a4
	.loc 1 202 439
	sw	a5,-284(s0)
	.loc 1 202 542
	lw	a5,-276(s0)
	.loc 1 202 557
	srli	a4,a5,22
	slli	a5,a5,10
	add	a5,a5,a4
	.loc 1 202 531
	sw	a5,-276(s0)
	.loc 1 203 22
	lw	a4,-308(s0)
	.loc 1 203 40
	lw	a3,-304(s0)
	.loc 1 203 56
	lw	a5,-296(s0)
	.loc 1 203 46
	and	a3,a3,a5
	.loc 1 203 74
	lw	a2,-300(s0)
	.loc 1 203 91
	lw	a5,-296(s0)
	.loc 1 203 82
	not	a5,a5
	.loc 1 203 80
	and	a5,a2,a5
	.loc 1 203 63
	or	a3,a3,a5
	.loc 1 203 108
	lw	a5,-236(s0)
	.loc 1 203 99
	add	a5,a3,a5
	.loc 1 203 27
	add	a4,a4,a5
	li	a5,-1894006784
	addi	a5,a5,-804
	add	a5,a4,a5
	sw	a5,-308(s0)
	.loc 1 203 154
	lw	a5,-308(s0)
	.loc 1 203 173
	srli	a4,a5,20
	slli	a5,a5,12
	add	a5,a5,a4
	.loc 1 203 220
	lw	a4,-312(s0)
	.loc 1 203 211
	add	a5,a5,a4
	.loc 1 203 142
	sw	a5,-308(s0)
	.loc 1 203 250
	lw	a5,-300(s0)
	.loc 1 203 265
	srli	a4,a5,22
	slli	a5,a5,10
	add	a5,a5,a4
	.loc 1 203 238
	sw	a5,-300(s0)
	.loc 1 203 324
	lw	a4,-288(s0)
	.loc 1 203 341
	lw	a3,-284(s0)
	.loc 1 203 356
	lw	a5,-280(s0)
	.loc 1 203 347
	and	a3,a3,a5
	.loc 1 203 374
	lw	a5,-284(s0)
	.loc 1 203 366
	not	a2,a5
	.loc 1 203 389
	lw	a5,-276(s0)
	.loc 1 203 380
	and	a5,a2,a5
	.loc 1 203 363
	or	a3,a3,a5
	.loc 1 203 406
	lw	a5,-248(s0)
	.loc 1 203 397
	add	a5,a3,a5
	.loc 1 203 329
	add	a4,a4,a5
	li	a5,2053992448
	addi	a5,a5,1769
	add	a5,a4,a5
	sw	a5,-288(s0)
	.loc 1 203 450
	lw	a5,-288(s0)
	.loc 1 203 468
	srli	a4,a5,27
	slli	a5,a5,5
	add	a5,a5,a4
	.loc 1 203 512
	lw	a4,-292(s0)
	.loc 1 203 504
	add	a5,a5,a4
	.loc 1 203 439
	sw	a5,-288(s0)
	.loc 1 203 540
	lw	a5,-280(s0)
	.loc 1 203 555
	srli	a4,a5,22
	slli	a5,a5,10
	add	a5,a5,a4
	.loc 1 203 529
	sw	a5,-280(s0)
	.loc 1 204 22
	lw	a4,-312(s0)
	.loc 1 204 40
	lw	a3,-308(s0)
	.loc 1 204 56
	lw	a5,-300(s0)
	.loc 1 204 46
	and	a3,a3,a5
	.loc 1 204 74
	lw	a2,-304(s0)
	.loc 1 204 91
	lw	a5,-300(s0)
	.loc 1 204 82
	not	a5,a5
	.loc 1 204 80
	and	a5,a2,a5
	.loc 1 204 63
	or	a3,a3,a5
	.loc 1 204 108
	lw	a5,-228(s0)
	.loc 1 204 99
	add	a5,a3,a5
	.loc 1 204 27
	add	a4,a4,a5
	li	a5,-1894006784
	addi	a5,a5,-804
	add	a5,a4,a5
	sw	a5,-312(s0)
	.loc 1 204 155
	lw	a5,-312(s0)
	.loc 1 204 174
	srli	a4,a5,18
	slli	a5,a5,14
	add	a5,a5,a4
	.loc 1 204 221
	lw	a4,-296(s0)
	.loc 1 204 212
	add	a5,a5,a4
	.loc 1 204 143
	sw	a5,-312(s0)
	.loc 1 204 251
	lw	a5,-304(s0)
	.loc 1 204 266
	srli	a4,a5,22
	slli	a5,a5,10
	add	a5,a5,a4
	.loc 1 204 239
	sw	a5,-304(s0)
	.loc 1 204 325
	lw	a4,-292(s0)
	.loc 1 204 342
	lw	a3,-288(s0)
	.loc 1 204 357
	lw	a5,-284(s0)
	.loc 1 204 348
	and	a3,a3,a5
	.loc 1 204 375
	lw	a5,-288(s0)
	.loc 1 204 367
	not	a2,a5
	.loc 1 204 390
	lw	a5,-280(s0)
	.loc 1 204 381
	and	a5,a2,a5
	.loc 1 204 364
	or	a3,a3,a5
	.loc 1 204 407
	lw	a5,-256(s0)
	.loc 1 204 398
	add	a5,a3,a5
	.loc 1 204 330
	add	a4,a4,a5
	li	a5,2053992448
	addi	a5,a5,1769
	add	a5,a4,a5
	sw	a5,-292(s0)
	.loc 1 204 451
	lw	a5,-292(s0)
	.loc 1 204 469
	srli	a4,a5,24
	slli	a5,a5,8
	add	a5,a5,a4
	.loc 1 204 513
	lw	a4,-276(s0)
	.loc 1 204 505
	add	a5,a5,a4
	.loc 1 204 440
	sw	a5,-292(s0)
	.loc 1 204 541
	lw	a5,-284(s0)
	.loc 1 204 556
	srli	a4,a5,22
	slli	a5,a5,10
	add	a5,a5,a4
	.loc 1 204 530
	sw	a5,-284(s0)
	.loc 1 205 22
	lw	a4,-296(s0)
	.loc 1 205 40
	lw	a3,-312(s0)
	.loc 1 205 56
	lw	a5,-304(s0)
	.loc 1 205 46
	and	a3,a3,a5
	.loc 1 205 74
	lw	a2,-308(s0)
	.loc 1 205 91
	lw	a5,-304(s0)
	.loc 1 205 82
	not	a5,a5
	.loc 1 205 80
	and	a5,a2,a5
	.loc 1 205 63
	or	a3,a3,a5
	.loc 1 205 108
	lw	a5,-232(s0)
	.loc 1 205 99
	add	a5,a3,a5
	.loc 1 205 27
	add	a4,a4,a5
	li	a5,-1894006784
	addi	a5,a5,-804
	add	a5,a4,a5
	sw	a5,-296(s0)
	.loc 1 205 155
	lw	a5,-296(s0)
	.loc 1 205 174
	srli	a4,a5,17
	slli	a5,a5,15
	add	a5,a5,a4
	.loc 1 205 221
	lw	a4,-300(s0)
	.loc 1 205 212
	add	a5,a5,a4
	.loc 1 205 143
	sw	a5,-296(s0)
	.loc 1 205 251
	lw	a5,-308(s0)
	.loc 1 205 266
	srli	a4,a5,22
	slli	a5,a5,10
	add	a5,a5,a4
	.loc 1 205 239
	sw	a5,-308(s0)
	.loc 1 205 325
	lw	a4,-276(s0)
	.loc 1 205 342
	lw	a3,-292(s0)
	.loc 1 205 357
	lw	a5,-288(s0)
	.loc 1 205 348
	and	a3,a3,a5
	.loc 1 205 375
	lw	a5,-292(s0)
	.loc 1 205 367
	not	a2,a5
	.loc 1 205 390
	lw	a5,-284(s0)
	.loc 1 205 381
	and	a5,a2,a5
	.loc 1 205 364
	or	a3,a3,a5
	.loc 1 205 407
	lw	a5,-268(s0)
	.loc 1 205 398
	add	a5,a3,a5
	.loc 1 205 330
	add	a4,a4,a5
	li	a5,2053992448
	addi	a5,a5,1769
	add	a5,a4,a5
	sw	a5,-276(s0)
	.loc 1 205 451
	lw	a5,-276(s0)
	.loc 1 205 470
	srli	a4,a5,21
	slli	a5,a5,11
	add	a5,a5,a4
	.loc 1 205 515
	lw	a4,-280(s0)
	.loc 1 205 507
	add	a5,a5,a4
	.loc 1 205 440
	sw	a5,-276(s0)
	.loc 1 205 543
	lw	a5,-288(s0)
	.loc 1 205 558
	srli	a4,a5,22
	slli	a5,a5,10
	add	a5,a5,a4
	.loc 1 205 532
	sw	a5,-288(s0)
	.loc 1 206 22
	lw	a4,-300(s0)
	.loc 1 206 40
	lw	a3,-296(s0)
	.loc 1 206 56
	lw	a5,-308(s0)
	.loc 1 206 46
	and	a3,a3,a5
	.loc 1 206 74
	lw	a2,-312(s0)
	.loc 1 206 91
	lw	a5,-308(s0)
	.loc 1 206 82
	not	a5,a5
	.loc 1 206 80
	and	a5,a2,a5
	.loc 1 206 63
	or	a3,a3,a5
	.loc 1 206 108
	lw	a5,-272(s0)
	.loc 1 206 99
	add	a5,a3,a5
	.loc 1 206 27
	add	a4,a4,a5
	li	a5,-1894006784
	addi	a5,a5,-804
	add	a5,a4,a5
	sw	a5,-300(s0)
	.loc 1 206 154
	lw	a5,-300(s0)
	.loc 1 206 173
	srli	a4,a5,18
	slli	a5,a5,14
	add	a5,a5,a4
	.loc 1 206 220
	lw	a4,-304(s0)
	.loc 1 206 211
	add	a5,a5,a4
	.loc 1 206 142
	sw	a5,-300(s0)
	.loc 1 206 250
	lw	a5,-312(s0)
	.loc 1 206 265
	srli	a4,a5,22
	slli	a5,a5,10
	add	a5,a5,a4
	.loc 1 206 238
	sw	a5,-312(s0)
	.loc 1 206 324
	lw	a4,-280(s0)
	.loc 1 206 341
	lw	a3,-276(s0)
	.loc 1 206 356
	lw	a5,-292(s0)
	.loc 1 206 347
	and	a3,a3,a5
	.loc 1 206 374
	lw	a5,-276(s0)
	.loc 1 206 366
	not	a2,a5
	.loc 1 206 389
	lw	a5,-288(s0)
	.loc 1 206 380
	and	a5,a2,a5
	.loc 1 206 363
	or	a3,a3,a5
	.loc 1 206 406
	lw	a5,-260(s0)
	.loc 1 206 397
	add	a5,a3,a5
	.loc 1 206 329
	add	a4,a4,a5
	li	a5,2053992448
	addi	a5,a5,1769
	add	a5,a4,a5
	sw	a5,-280(s0)
	.loc 1 206 450
	lw	a5,-280(s0)
	.loc 1 206 469
	srli	a4,a5,18
	slli	a5,a5,14
	add	a5,a5,a4
	.loc 1 206 514
	lw	a4,-284(s0)
	.loc 1 206 506
	add	a5,a5,a4
	.loc 1 206 439
	sw	a5,-280(s0)
	.loc 1 206 542
	lw	a5,-292(s0)
	.loc 1 206 557
	srli	a4,a5,22
	slli	a5,a5,10
	add	a5,a5,a4
	.loc 1 206 531
	sw	a5,-292(s0)
	.loc 1 207 22
	lw	a4,-304(s0)
	.loc 1 207 40
	lw	a3,-300(s0)
	.loc 1 207 56
	lw	a5,-312(s0)
	.loc 1 207 46
	and	a3,a3,a5
	.loc 1 207 74
	lw	a2,-296(s0)
	.loc 1 207 91
	lw	a5,-312(s0)
	.loc 1 207 82
	not	a5,a5
	.loc 1 207 80
	and	a5,a2,a5
	.loc 1 207 63
	or	a3,a3,a5
	.loc 1 207 108
	lw	a5,-240(s0)
	.loc 1 207 99
	add	a5,a3,a5
	.loc 1 207 27
	add	a4,a4,a5
	li	a5,-1894006784
	addi	a5,a5,-804
	add	a5,a4,a5
	sw	a5,-304(s0)
	.loc 1 207 154
	lw	a5,-304(s0)
	.loc 1 207 173
	srli	a4,a5,17
	slli	a5,a5,15
	add	a5,a5,a4
	.loc 1 207 220
	lw	a4,-308(s0)
	.loc 1 207 211
	add	a5,a5,a4
	.loc 1 207 142
	sw	a5,-304(s0)
	.loc 1 207 250
	lw	a5,-296(s0)
	.loc 1 207 265
	srli	a4,a5,22
	slli	a5,a5,10
	add	a5,a5,a4
	.loc 1 207 238
	sw	a5,-296(s0)
	.loc 1 207 324
	lw	a4,-284(s0)
	.loc 1 207 341
	lw	a3,-280(s0)
	.loc 1 207 356
	lw	a5,-276(s0)
	.loc 1 207 347
	and	a3,a3,a5
	.loc 1 207 374
	lw	a5,-280(s0)
	.loc 1 207 366
	not	a2,a5
	.loc 1 207 389
	lw	a5,-292(s0)
	.loc 1 207 380
	and	a5,a2,a5
	.loc 1 207 363
	or	a3,a3,a5
	.loc 1 207 406
	lw	a5,-228(s0)
	.loc 1 207 397
	add	a5,a3,a5
	.loc 1 207 329
	add	a4,a4,a5
	li	a5,2053992448
	addi	a5,a5,1769
	add	a5,a4,a5
	sw	a5,-284(s0)
	.loc 1 207 451
	lw	a5,-284(s0)
	.loc 1 207 470
	srli	a4,a5,18
	slli	a5,a5,14
	add	a5,a5,a4
	.loc 1 207 515
	lw	a4,-288(s0)
	.loc 1 207 507
	add	a5,a5,a4
	.loc 1 207 440
	sw	a5,-284(s0)
	.loc 1 207 543
	lw	a5,-276(s0)
	.loc 1 207 558
	srli	a4,a5,22
	slli	a5,a5,10
	add	a5,a5,a4
	.loc 1 207 532
	sw	a5,-276(s0)
	.loc 1 208 22
	lw	a4,-308(s0)
	.loc 1 208 40
	lw	a3,-304(s0)
	.loc 1 208 56
	lw	a5,-296(s0)
	.loc 1 208 46
	and	a3,a3,a5
	.loc 1 208 74
	lw	a2,-300(s0)
	.loc 1 208 91
	lw	a5,-296(s0)
	.loc 1 208 82
	not	a5,a5
	.loc 1 208 80
	and	a5,a2,a5
	.loc 1 208 63
	or	a3,a3,a5
	.loc 1 208 108
	lw	a5,-224(s0)
	.loc 1 208 99
	add	a5,a3,a5
	.loc 1 208 27
	add	a4,a4,a5
	li	a5,-1894006784
	addi	a5,a5,-804
	add	a5,a4,a5
	sw	a5,-308(s0)
	.loc 1 208 155
	lw	a5,-308(s0)
	.loc 1 208 173
	srli	a4,a5,23
	slli	a5,a5,9
	add	a5,a5,a4
	.loc 1 208 219
	lw	a4,-312(s0)
	.loc 1 208 210
	add	a5,a5,a4
	.loc 1 208 143
	sw	a5,-308(s0)
	.loc 1 208 249
	lw	a5,-300(s0)
	.loc 1 208 264
	srli	a4,a5,22
	slli	a5,a5,10
	add	a5,a5,a4
	.loc 1 208 237
	sw	a5,-300(s0)
	.loc 1 208 323
	lw	a4,-288(s0)
	.loc 1 208 340
	lw	a3,-284(s0)
	.loc 1 208 355
	lw	a5,-280(s0)
	.loc 1 208 346
	and	a3,a3,a5
	.loc 1 208 373
	lw	a5,-284(s0)
	.loc 1 208 365
	not	a2,a5
	.loc 1 208 388
	lw	a5,-276(s0)
	.loc 1 208 379
	and	a5,a2,a5
	.loc 1 208 362
	or	a3,a3,a5
	.loc 1 208 405
	lw	a5,-212(s0)
	.loc 1 208 396
	add	a5,a3,a5
	.loc 1 208 328
	add	a4,a4,a5
	li	a5,2053992448
	addi	a5,a5,1769
	add	a5,a4,a5
	sw	a5,-288(s0)
	.loc 1 208 450
	lw	a5,-288(s0)
	.loc 1 208 468
	srli	a4,a5,26
	slli	a5,a5,6
	add	a5,a5,a4
	.loc 1 208 512
	lw	a4,-292(s0)
	.loc 1 208 504
	add	a5,a5,a4
	.loc 1 208 439
	sw	a5,-288(s0)
	.loc 1 208 540
	lw	a5,-280(s0)
	.loc 1 208 555
	srli	a4,a5,22
	slli	a5,a5,10
	add	a5,a5,a4
	.loc 1 208 529
	sw	a5,-280(s0)
	.loc 1 209 22
	lw	a4,-312(s0)
	.loc 1 209 40
	lw	a3,-308(s0)
	.loc 1 209 56
	lw	a5,-300(s0)
	.loc 1 209 46
	and	a3,a3,a5
	.loc 1 209 74
	lw	a2,-304(s0)
	.loc 1 209 91
	lw	a5,-300(s0)
	.loc 1 209 82
	not	a5,a5
	.loc 1 209 80
	and	a5,a2,a5
	.loc 1 209 63
	or	a3,a3,a5
	.loc 1 209 108
	lw	a5,-256(s0)
	.loc 1 209 99
	add	a5,a3,a5
	.loc 1 209 27
	add	a4,a4,a5
	li	a5,-1894006784
	addi	a5,a5,-804
	add	a5,a4,a5
	sw	a5,-312(s0)
	.loc 1 209 154
	lw	a5,-312(s0)
	.loc 1 209 172
	srli	a4,a5,24
	slli	a5,a5,8
	add	a5,a5,a4
	.loc 1 209 218
	lw	a4,-296(s0)
	.loc 1 209 209
	add	a5,a5,a4
	.loc 1 209 142
	sw	a5,-312(s0)
	.loc 1 209 248
	lw	a5,-304(s0)
	.loc 1 209 263
	srli	a4,a5,22
	slli	a5,a5,10
	add	a5,a5,a4
	.loc 1 209 236
	sw	a5,-304(s0)
	.loc 1 209 322
	lw	a4,-292(s0)
	.loc 1 209 339
	lw	a3,-288(s0)
	.loc 1 209 354
	lw	a5,-284(s0)
	.loc 1 209 345
	and	a3,a3,a5
	.loc 1 209 372
	lw	a5,-288(s0)
	.loc 1 209 364
	not	a2,a5
	.loc 1 209 387
	lw	a5,-280(s0)
	.loc 1 209 378
	and	a5,a2,a5
	.loc 1 209 361
	or	a3,a3,a5
	.loc 1 209 404
	lw	a5,-272(s0)
	.loc 1 209 395
	add	a5,a3,a5
	.loc 1 209 327
	add	a4,a4,a5
	li	a5,2053992448
	addi	a5,a5,1769
	add	a5,a4,a5
	sw	a5,-292(s0)
	.loc 1 209 448
	lw	a5,-292(s0)
	.loc 1 209 467
	srli	a4,a5,18
	slli	a5,a5,14
	add	a5,a5,a4
	.loc 1 209 512
	lw	a4,-276(s0)
	.loc 1 209 504
	add	a5,a5,a4
	.loc 1 209 437
	sw	a5,-292(s0)
	.loc 1 209 540
	lw	a5,-284(s0)
	.loc 1 209 555
	srli	a4,a5,22
	slli	a5,a5,10
	add	a5,a5,a4
	.loc 1 209 529
	sw	a5,-284(s0)
	.loc 1 210 22
	lw	a4,-296(s0)
	.loc 1 210 40
	lw	a3,-312(s0)
	.loc 1 210 56
	lw	a5,-304(s0)
	.loc 1 210 46
	and	a3,a3,a5
	.loc 1 210 74
	lw	a2,-308(s0)
	.loc 1 210 91
	lw	a5,-304(s0)
	.loc 1 210 82
	not	a5,a5
	.loc 1 210 80
	and	a5,a2,a5
	.loc 1 210 63
	or	a3,a3,a5
	.loc 1 210 108
	lw	a5,-220(s0)
	.loc 1 210 99
	add	a5,a3,a5
	.loc 1 210 27
	add	a4,a4,a5
	li	a5,-1894006784
	addi	a5,a5,-804
	add	a5,a4,a5
	sw	a5,-296(s0)
	.loc 1 210 155
	lw	a5,-296(s0)
	.loc 1 210 173
	srli	a4,a5,23
	slli	a5,a5,9
	add	a5,a5,a4
	.loc 1 210 219
	lw	a4,-300(s0)
	.loc 1 210 210
	add	a5,a5,a4
	.loc 1 210 143
	sw	a5,-296(s0)
	.loc 1 210 249
	lw	a5,-308(s0)
	.loc 1 210 264
	srli	a4,a5,22
	slli	a5,a5,10
	add	a5,a5,a4
	.loc 1 210 237
	sw	a5,-308(s0)
	.loc 1 210 323
	lw	a4,-276(s0)
	.loc 1 210 340
	lw	a3,-292(s0)
	.loc 1 210 355
	lw	a5,-288(s0)
	.loc 1 210 346
	and	a3,a3,a5
	.loc 1 210 373
	lw	a5,-292(s0)
	.loc 1 210 365
	not	a2,a5
	.loc 1 210 388
	lw	a5,-284(s0)
	.loc 1 210 379
	and	a5,a2,a5
	.loc 1 210 362
	or	a3,a3,a5
	.loc 1 210 405
	lw	a5,-252(s0)
	.loc 1 210 396
	add	a5,a3,a5
	.loc 1 210 328
	add	a4,a4,a5
	li	a5,2053992448
	addi	a5,a5,1769
	add	a5,a4,a5
	sw	a5,-276(s0)
	.loc 1 210 449
	lw	a5,-276(s0)
	.loc 1 210 467
	srli	a4,a5,26
	slli	a5,a5,6
	add	a5,a5,a4
	.loc 1 210 511
	lw	a4,-280(s0)
	.loc 1 210 503
	add	a5,a5,a4
	.loc 1 210 438
	sw	a5,-276(s0)
	.loc 1 210 539
	lw	a5,-288(s0)
	.loc 1 210 554
	srli	a4,a5,22
	slli	a5,a5,10
	add	a5,a5,a4
	.loc 1 210 528
	sw	a5,-288(s0)
	.loc 1 211 22
	lw	a4,-300(s0)
	.loc 1 211 40
	lw	a3,-296(s0)
	.loc 1 211 56
	lw	a5,-308(s0)
	.loc 1 211 46
	and	a3,a3,a5
	.loc 1 211 74
	lw	a2,-312(s0)
	.loc 1 211 91
	lw	a5,-308(s0)
	.loc 1 211 82
	not	a5,a5
	.loc 1 211 80
	and	a5,a2,a5
	.loc 1 211 63
	or	a3,a3,a5
	.loc 1 211 108
	lw	a5,-260(s0)
	.loc 1 211 99
	add	a5,a3,a5
	.loc 1 211 27
	add	a4,a4,a5
	li	a5,-1894006784
	addi	a5,a5,-804
	add	a5,a4,a5
	sw	a5,-300(s0)
	.loc 1 211 154
	lw	a5,-300(s0)
	.loc 1 211 173
	srli	a4,a5,18
	slli	a5,a5,14
	add	a5,a5,a4
	.loc 1 211 220
	lw	a4,-304(s0)
	.loc 1 211 211
	add	a5,a5,a4
	.loc 1 211 142
	sw	a5,-300(s0)
	.loc 1 211 250
	lw	a5,-312(s0)
	.loc 1 211 265
	srli	a4,a5,22
	slli	a5,a5,10
	add	a5,a5,a4
	.loc 1 211 238
	sw	a5,-312(s0)
	.loc 1 211 324
	lw	a4,-280(s0)
	.loc 1 211 341
	lw	a3,-276(s0)
	.loc 1 211 356
	lw	a5,-292(s0)
	.loc 1 211 347
	and	a3,a3,a5
	.loc 1 211 374
	lw	a5,-276(s0)
	.loc 1 211 366
	not	a2,a5
	.loc 1 211 389
	lw	a5,-288(s0)
	.loc 1 211 380
	and	a5,a2,a5
	.loc 1 211 363
	or	a3,a3,a5
	.loc 1 211 406
	lw	a5,-224(s0)
	.loc 1 211 397
	add	a5,a3,a5
	.loc 1 211 329
	add	a4,a4,a5
	li	a5,2053992448
	addi	a5,a5,1769
	add	a5,a4,a5
	sw	a5,-280(s0)
	.loc 1 211 451
	lw	a5,-280(s0)
	.loc 1 211 469
	srli	a4,a5,23
	slli	a5,a5,9
	add	a5,a5,a4
	.loc 1 211 513
	lw	a4,-284(s0)
	.loc 1 211 505
	add	a5,a5,a4
	.loc 1 211 440
	sw	a5,-280(s0)
	.loc 1 211 541
	lw	a5,-292(s0)
	.loc 1 211 556
	srli	a4,a5,22
	slli	a5,a5,10
	add	a5,a5,a4
	.loc 1 211 530
	sw	a5,-292(s0)
	.loc 1 212 22
	lw	a4,-304(s0)
	.loc 1 212 40
	lw	a3,-300(s0)
	.loc 1 212 56
	lw	a5,-312(s0)
	.loc 1 212 46
	and	a3,a3,a5
	.loc 1 212 74
	lw	a2,-296(s0)
	.loc 1 212 91
	lw	a5,-312(s0)
	.loc 1 212 82
	not	a5,a5
	.loc 1 212 80
	and	a5,a2,a5
	.loc 1 212 63
	or	a3,a3,a5
	.loc 1 212 108
	lw	a5,-244(s0)
	.loc 1 212 99
	add	a5,a3,a5
	.loc 1 212 27
	add	a4,a4,a5
	li	a5,-1894006784
	addi	a5,a5,-804
	add	a5,a4,a5
	sw	a5,-304(s0)
	.loc 1 212 154
	lw	a5,-304(s0)
	.loc 1 212 172
	srli	a4,a5,27
	slli	a5,a5,5
	add	a5,a5,a4
	.loc 1 212 218
	lw	a4,-308(s0)
	.loc 1 212 209
	add	a5,a5,a4
	.loc 1 212 142
	sw	a5,-304(s0)
	.loc 1 212 248
	lw	a5,-296(s0)
	.loc 1 212 263
	srli	a4,a5,22
	slli	a5,a5,10
	add	a5,a5,a4
	.loc 1 212 236
	sw	a5,-296(s0)
	.loc 1 212 322
	lw	a4,-284(s0)
	.loc 1 212 339
	lw	a3,-280(s0)
	.loc 1 212 354
	lw	a5,-276(s0)
	.loc 1 212 345
	and	a3,a3,a5
	.loc 1 212 372
	lw	a5,-280(s0)
	.loc 1 212 364
	not	a2,a5
	.loc 1 212 387
	lw	a5,-292(s0)
	.loc 1 212 378
	and	a5,a2,a5
	.loc 1 212 361
	or	a3,a3,a5
	.loc 1 212 404
	lw	a5,-264(s0)
	.loc 1 212 395
	add	a5,a3,a5
	.loc 1 212 327
	add	a4,a4,a5
	li	a5,2053992448
	addi	a5,a5,1769
	add	a5,a4,a5
	sw	a5,-284(s0)
	.loc 1 212 448
	lw	a5,-284(s0)
	.loc 1 212 467
	srli	a4,a5,20
	slli	a5,a5,12
	add	a5,a5,a4
	.loc 1 212 512
	lw	a4,-288(s0)
	.loc 1 212 504
	add	a5,a5,a4
	.loc 1 212 437
	sw	a5,-284(s0)
	.loc 1 212 540
	lw	a5,-276(s0)
	.loc 1 212 555
	srli	a4,a5,22
	slli	a5,a5,10
	add	a5,a5,a4
	.loc 1 212 529
	sw	a5,-276(s0)
	.loc 1 213 22
	lw	a4,-308(s0)
	.loc 1 213 40
	lw	a3,-304(s0)
	.loc 1 213 56
	lw	a5,-296(s0)
	.loc 1 213 46
	and	a3,a3,a5
	.loc 1 213 74
	lw	a2,-300(s0)
	.loc 1 213 91
	lw	a5,-296(s0)
	.loc 1 213 82
	not	a5,a5
	.loc 1 213 80
	and	a5,a2,a5
	.loc 1 213 63
	or	a3,a3,a5
	.loc 1 213 108
	lw	a5,-212(s0)
	.loc 1 213 99
	add	a5,a3,a5
	.loc 1 213 27
	add	a4,a4,a5
	li	a5,-1894006784
	addi	a5,a5,-804
	add	a5,a4,a5
	sw	a5,-308(s0)
	.loc 1 213 155
	lw	a5,-308(s0)
	.loc 1 213 173
	srli	a4,a5,26
	slli	a5,a5,6
	add	a5,a5,a4
	.loc 1 213 219
	lw	a4,-312(s0)
	.loc 1 213 210
	add	a5,a5,a4
	.loc 1 213 143
	sw	a5,-308(s0)
	.loc 1 213 249
	lw	a5,-300(s0)
	.loc 1 213 264
	srli	a4,a5,22
	slli	a5,a5,10
	add	a5,a5,a4
	.loc 1 213 237
	sw	a5,-300(s0)
	.loc 1 213 323
	lw	a4,-288(s0)
	.loc 1 213 340
	lw	a3,-284(s0)
	.loc 1 213 355
	lw	a5,-280(s0)
	.loc 1 213 346
	and	a3,a3,a5
	.loc 1 213 373
	lw	a5,-284(s0)
	.loc 1 213 365
	not	a2,a5
	.loc 1 213 388
	lw	a5,-276(s0)
	.loc 1 213 379
	and	a5,a2,a5
	.loc 1 213 362
	or	a3,a3,a5
	.loc 1 213 405
	lw	a5,-220(s0)
	.loc 1 213 396
	add	a5,a3,a5
	.loc 1 213 328
	add	a4,a4,a5
	li	a5,2053992448
	addi	a5,a5,1769
	add	a5,a4,a5
	sw	a5,-288(s0)
	.loc 1 213 450
	lw	a5,-288(s0)
	.loc 1 213 468
	srli	a4,a5,23
	slli	a5,a5,9
	add	a5,a5,a4
	.loc 1 213 512
	lw	a4,-292(s0)
	.loc 1 213 504
	add	a5,a5,a4
	.loc 1 213 439
	sw	a5,-288(s0)
	.loc 1 213 540
	lw	a5,-280(s0)
	.loc 1 213 555
	srli	a4,a5,22
	slli	a5,a5,10
	add	a5,a5,a4
	.loc 1 213 529
	sw	a5,-280(s0)
	.loc 1 214 22
	lw	a4,-312(s0)
	.loc 1 214 40
	lw	a3,-308(s0)
	.loc 1 214 56
	lw	a5,-300(s0)
	.loc 1 214 46
	and	a3,a3,a5
	.loc 1 214 74
	lw	a2,-304(s0)
	.loc 1 214 91
	lw	a5,-300(s0)
	.loc 1 214 82
	not	a5,a5
	.loc 1 214 80
	and	a5,a2,a5
	.loc 1 214 63
	or	a3,a3,a5
	.loc 1 214 108
	lw	a5,-216(s0)
	.loc 1 214 99
	add	a5,a3,a5
	.loc 1 214 27
	add	a4,a4,a5
	li	a5,-1894006784
	addi	a5,a5,-804
	add	a5,a4,a5
	sw	a5,-312(s0)
	.loc 1 214 155
	lw	a5,-312(s0)
	.loc 1 214 173
	srli	a4,a5,24
	slli	a5,a5,8
	add	a5,a5,a4
	.loc 1 214 219
	lw	a4,-296(s0)
	.loc 1 214 210
	add	a5,a5,a4
	.loc 1 214 143
	sw	a5,-312(s0)
	.loc 1 214 249
	lw	a5,-304(s0)
	.loc 1 214 264
	srli	a4,a5,22
	slli	a5,a5,10
	add	a5,a5,a4
	.loc 1 214 237
	sw	a5,-304(s0)
	.loc 1 214 323
	lw	a4,-292(s0)
	.loc 1 214 340
	lw	a3,-288(s0)
	.loc 1 214 355
	lw	a5,-284(s0)
	.loc 1 214 346
	and	a3,a3,a5
	.loc 1 214 373
	lw	a5,-288(s0)
	.loc 1 214 365
	not	a2,a5
	.loc 1 214 388
	lw	a5,-280(s0)
	.loc 1 214 379
	and	a5,a2,a5
	.loc 1 214 362
	or	a3,a3,a5
	.loc 1 214 405
	lw	a5,-236(s0)
	.loc 1 214 396
	add	a5,a3,a5
	.loc 1 214 328
	add	a4,a4,a5
	li	a5,2053992448
	addi	a5,a5,1769
	add	a5,a4,a5
	sw	a5,-292(s0)
	.loc 1 214 449
	lw	a5,-292(s0)
	.loc 1 214 468
	srli	a4,a5,20
	slli	a5,a5,12
	add	a5,a5,a4
	.loc 1 214 513
	lw	a4,-276(s0)
	.loc 1 214 505
	add	a5,a5,a4
	.loc 1 214 438
	sw	a5,-292(s0)
	.loc 1 214 541
	lw	a5,-284(s0)
	.loc 1 214 556
	srli	a4,a5,22
	slli	a5,a5,10
	add	a5,a5,a4
	.loc 1 214 530
	sw	a5,-284(s0)
	.loc 1 215 22
	lw	a4,-296(s0)
	.loc 1 215 40
	lw	a3,-312(s0)
	.loc 1 215 56
	lw	a5,-304(s0)
	.loc 1 215 46
	and	a3,a3,a5
	.loc 1 215 74
	lw	a2,-308(s0)
	.loc 1 215 91
	lw	a5,-304(s0)
	.loc 1 215 82
	not	a5,a5
	.loc 1 215 80
	and	a5,a2,a5
	.loc 1 215 63
	or	a3,a3,a5
	.loc 1 215 108
	lw	a5,-252(s0)
	.loc 1 215 99
	add	a5,a3,a5
	.loc 1 215 27
	add	a4,a4,a5
	li	a5,-1894006784
	addi	a5,a5,-804
	add	a5,a4,a5
	sw	a5,-296(s0)
	.loc 1 215 154
	lw	a5,-296(s0)
	.loc 1 215 172
	srli	a4,a5,26
	slli	a5,a5,6
	add	a5,a5,a4
	.loc 1 215 218
	lw	a4,-300(s0)
	.loc 1 215 209
	add	a5,a5,a4
	.loc 1 215 142
	sw	a5,-296(s0)
	.loc 1 215 248
	lw	a5,-308(s0)
	.loc 1 215 263
	srli	a4,a5,22
	slli	a5,a5,10
	add	a5,a5,a4
	.loc 1 215 236
	sw	a5,-308(s0)
	.loc 1 215 322
	lw	a4,-276(s0)
	.loc 1 215 339
	lw	a3,-292(s0)
	.loc 1 215 354
	lw	a5,-288(s0)
	.loc 1 215 345
	and	a3,a3,a5
	.loc 1 215 372
	lw	a5,-292(s0)
	.loc 1 215 364
	not	a2,a5
	.loc 1 215 387
	lw	a5,-284(s0)
	.loc 1 215 378
	and	a5,a2,a5
	.loc 1 215 361
	or	a3,a3,a5
	.loc 1 215 404
	lw	a5,-244(s0)
	.loc 1 215 395
	add	a5,a3,a5
	.loc 1 215 327
	add	a4,a4,a5
	li	a5,2053992448
	addi	a5,a5,1769
	add	a5,a4,a5
	sw	a5,-276(s0)
	.loc 1 215 448
	lw	a5,-276(s0)
	.loc 1 215 466
	srli	a4,a5,27
	slli	a5,a5,5
	add	a5,a5,a4
	.loc 1 215 510
	lw	a4,-280(s0)
	.loc 1 215 502
	add	a5,a5,a4
	.loc 1 215 437
	sw	a5,-276(s0)
	.loc 1 215 538
	lw	a5,-288(s0)
	.loc 1 215 553
	srli	a4,a5,22
	slli	a5,a5,10
	add	a5,a5,a4
	.loc 1 215 527
	sw	a5,-288(s0)
	.loc 1 216 22
	lw	a4,-300(s0)
	.loc 1 216 40
	lw	a3,-296(s0)
	.loc 1 216 56
	lw	a5,-308(s0)
	.loc 1 216 46
	and	a3,a3,a5
	.loc 1 216 74
	lw	a2,-312(s0)
	.loc 1 216 91
	lw	a5,-308(s0)
	.loc 1 216 82
	not	a5,a5
	.loc 1 216 80
	and	a5,a2,a5
	.loc 1 216 63
	or	a3,a3,a5
	.loc 1 216 108
	lw	a5,-248(s0)
	.loc 1 216 99
	add	a5,a3,a5
	.loc 1 216 27
	add	a4,a4,a5
	li	a5,-1894006784
	addi	a5,a5,-804
	add	a5,a4,a5
	sw	a5,-300(s0)
	.loc 1 216 154
	lw	a5,-300(s0)
	.loc 1 216 172
	srli	a4,a5,27
	slli	a5,a5,5
	add	a5,a5,a4
	.loc 1 216 218
	lw	a4,-304(s0)
	.loc 1 216 209
	add	a5,a5,a4
	.loc 1 216 142
	sw	a5,-300(s0)
	.loc 1 216 248
	lw	a5,-312(s0)
	.loc 1 216 263
	srli	a4,a5,22
	slli	a5,a5,10
	add	a5,a5,a4
	.loc 1 216 236
	sw	a5,-312(s0)
	.loc 1 216 322
	lw	a4,-280(s0)
	.loc 1 216 339
	lw	a3,-276(s0)
	.loc 1 216 354
	lw	a5,-292(s0)
	.loc 1 216 345
	and	a3,a3,a5
	.loc 1 216 372
	lw	a5,-276(s0)
	.loc 1 216 364
	not	a2,a5
	.loc 1 216 387
	lw	a5,-288(s0)
	.loc 1 216 378
	and	a5,a2,a5
	.loc 1 216 361
	or	a3,a3,a5
	.loc 1 216 404
	lw	a5,-232(s0)
	.loc 1 216 395
	add	a5,a3,a5
	.loc 1 216 327
	add	a4,a4,a5
	li	a5,2053992448
	addi	a5,a5,1769
	add	a5,a4,a5
	sw	a5,-280(s0)
	.loc 1 216 449
	lw	a5,-280(s0)
	.loc 1 216 468
	srli	a4,a5,17
	slli	a5,a5,15
	add	a5,a5,a4
	.loc 1 216 513
	lw	a4,-284(s0)
	.loc 1 216 505
	add	a5,a5,a4
	.loc 1 216 438
	sw	a5,-280(s0)
	.loc 1 216 541
	lw	a5,-292(s0)
	.loc 1 216 556
	srli	a4,a5,22
	slli	a5,a5,10
	add	a5,a5,a4
	.loc 1 216 530
	sw	a5,-292(s0)
	.loc 1 217 22
	lw	a4,-304(s0)
	.loc 1 217 40
	lw	a3,-300(s0)
	.loc 1 217 56
	lw	a5,-312(s0)
	.loc 1 217 46
	and	a3,a3,a5
	.loc 1 217 74
	lw	a2,-296(s0)
	.loc 1 217 91
	lw	a5,-312(s0)
	.loc 1 217 82
	not	a5,a5
	.loc 1 217 80
	and	a5,a2,a5
	.loc 1 217 63
	or	a3,a3,a5
	.loc 1 217 108
	lw	a5,-264(s0)
	.loc 1 217 99
	add	a5,a3,a5
	.loc 1 217 27
	add	a4,a4,a5
	li	a5,-1894006784
	addi	a5,a5,-804
	add	a5,a4,a5
	sw	a5,-304(s0)
	.loc 1 217 154
	lw	a5,-304(s0)
	.loc 1 217 173
	srli	a4,a5,20
	slli	a5,a5,12
	add	a5,a5,a4
	.loc 1 217 220
	lw	a4,-308(s0)
	.loc 1 217 211
	add	a5,a5,a4
	.loc 1 217 142
	sw	a5,-304(s0)
	.loc 1 217 250
	lw	a5,-296(s0)
	.loc 1 217 265
	srli	a4,a5,22
	slli	a5,a5,10
	add	a5,a5,a4
	.loc 1 217 238
	sw	a5,-296(s0)
	.loc 1 217 324
	lw	a4,-284(s0)
	.loc 1 217 341
	lw	a3,-280(s0)
	.loc 1 217 356
	lw	a5,-276(s0)
	.loc 1 217 347
	and	a3,a3,a5
	.loc 1 217 374
	lw	a5,-280(s0)
	.loc 1 217 366
	not	a2,a5
	.loc 1 217 389
	lw	a5,-292(s0)
	.loc 1 217 380
	and	a5,a2,a5
	.loc 1 217 363
	or	a3,a3,a5
	.loc 1 217 406
	lw	a5,-216(s0)
	.loc 1 217 397
	add	a5,a3,a5
	.loc 1 217 329
	add	a4,a4,a5
	li	a5,2053992448
	addi	a5,a5,1769
	add	a5,a4,a5
	sw	a5,-284(s0)
	.loc 1 217 451
	lw	a5,-284(s0)
	.loc 1 217 469
	srli	a4,a5,24
	slli	a5,a5,8
	add	a5,a5,a4
	.loc 1 217 513
	lw	a4,-288(s0)
	.loc 1 217 505
	add	a5,a5,a4
	.loc 1 217 440
	sw	a5,-284(s0)
	.loc 1 217 541
	lw	a5,-276(s0)
	.loc 1 217 556
	srli	a4,a5,22
	slli	a5,a5,10
	add	a5,a5,a4
	.loc 1 217 530
	sw	a5,-276(s0)
	.loc 1 227 22
	lw	a4,-308(s0)
	.loc 1 227 39
	lw	a3,-304(s0)
	.loc 1 227 56
	lw	a2,-300(s0)
	.loc 1 227 73
	lw	a5,-296(s0)
	.loc 1 227 64
	not	a5,a5
	.loc 1 227 62
	or	a5,a2,a5
	.loc 1 227 45
	xor	a3,a3,a5
	.loc 1 227 90
	lw	a5,-256(s0)
	.loc 1 227 81
	add	a5,a3,a5
	.loc 1 227 27
	add	a4,a4,a5
	li	a5,-1454112768
	addi	a5,a5,-690
	add	a5,a4,a5
	sw	a5,-308(s0)
	.loc 1 227 136
	lw	a5,-308(s0)
	.loc 1 227 154
	srli	a4,a5,23
	slli	a5,a5,9
	add	a5,a5,a4
	.loc 1 227 200
	lw	a4,-312(s0)
	.loc 1 227 191
	add	a5,a5,a4
	.loc 1 227 124
	sw	a5,-308(s0)
	.loc 1 227 230
	lw	a5,-300(s0)
	.loc 1 227 245
	srli	a4,a5,22
	slli	a5,a5,10
	add	a5,a5,a4
	.loc 1 227 218
	sw	a5,-300(s0)
	.loc 1 227 304
	lw	a4,-288(s0)
	.loc 1 227 320
	lw	a3,-284(s0)
	.loc 1 227 335
	lw	a5,-280(s0)
	.loc 1 227 326
	xor	a3,a3,a5
	.loc 1 227 350
	lw	a5,-276(s0)
	.loc 1 227 341
	xor	a3,a3,a5
	.loc 1 227 366
	lw	a5,-224(s0)
	.loc 1 227 357
	add	a5,a3,a5
	.loc 1 227 309
	add	a5,a4,a5
	sw	a5,-288(s0)
	.loc 1 227 411
	lw	a5,-288(s0)
	.loc 1 227 429
	srli	a4,a5,24
	slli	a5,a5,8
	add	a5,a5,a4
	.loc 1 227 473
	lw	a4,-292(s0)
	.loc 1 227 465
	add	a5,a5,a4
	.loc 1 227 400
	sw	a5,-288(s0)
	.loc 1 227 501
	lw	a5,-280(s0)
	.loc 1 227 516
	srli	a4,a5,22
	slli	a5,a5,10
	add	a5,a5,a4
	.loc 1 227 490
	sw	a5,-280(s0)
	.loc 1 228 22
	lw	a4,-312(s0)
	.loc 1 228 39
	lw	a3,-308(s0)
	.loc 1 228 56
	lw	a2,-304(s0)
	.loc 1 228 73
	lw	a5,-300(s0)
	.loc 1 228 64
	not	a5,a5
	.loc 1 228 62
	or	a5,a2,a5
	.loc 1 228 45
	xor	a3,a3,a5
	.loc 1 228 90
	lw	a5,-272(s0)
	.loc 1 228 81
	add	a5,a3,a5
	.loc 1 228 27
	add	a4,a4,a5
	li	a5,-1454112768
	addi	a5,a5,-690
	add	a5,a4,a5
	sw	a5,-312(s0)
	.loc 1 228 136
	lw	a5,-312(s0)
	.loc 1 228 155
	srli	a4,a5,17
	slli	a5,a5,15
	add	a5,a5,a4
	.loc 1 228 202
	lw	a4,-296(s0)
	.loc 1 228 193
	add	a5,a5,a4
	.loc 1 228 124
	sw	a5,-312(s0)
	.loc 1 228 232
	lw	a5,-304(s0)
	.loc 1 228 247
	srli	a4,a5,22
	slli	a5,a5,10
	add	a5,a5,a4
	.loc 1 228 220
	sw	a5,-304(s0)
	.loc 1 228 306
	lw	a4,-292(s0)
	.loc 1 228 322
	lw	a3,-288(s0)
	.loc 1 228 337
	lw	a5,-284(s0)
	.loc 1 228 328
	xor	a3,a3,a5
	.loc 1 228 352
	lw	a5,-280(s0)
	.loc 1 228 343
	xor	a3,a3,a5
	.loc 1 228 368
	lw	a5,-212(s0)
	.loc 1 228 359
	add	a5,a3,a5
	.loc 1 228 311
	add	a5,a4,a5
	sw	a5,-292(s0)
	.loc 1 228 413
	lw	a5,-292(s0)
	.loc 1 228 431
	srli	a4,a5,27
	slli	a5,a5,5
	add	a5,a5,a4
	.loc 1 228 475
	lw	a4,-276(s0)
	.loc 1 228 467
	add	a5,a5,a4
	.loc 1 228 402
	sw	a5,-292(s0)
	.loc 1 228 503
	lw	a5,-284(s0)
	.loc 1 228 518
	srli	a4,a5,22
	slli	a5,a5,10
	add	a5,a5,a4
	.loc 1 228 492
	sw	a5,-284(s0)
	.loc 1 229 22
	lw	a4,-296(s0)
	.loc 1 229 39
	lw	a3,-312(s0)
	.loc 1 229 56
	lw	a2,-308(s0)
	.loc 1 229 73
	lw	a5,-304(s0)
	.loc 1 229 64
	not	a5,a5
	.loc 1 229 62
	or	a5,a2,a5
	.loc 1 229 45
	xor	a3,a3,a5
	.loc 1 229 90
	lw	a5,-252(s0)
	.loc 1 229 81
	add	a5,a3,a5
	.loc 1 229 27
	add	a4,a4,a5
	li	a5,-1454112768
	addi	a5,a5,-690
	add	a5,a4,a5
	sw	a5,-296(s0)
	.loc 1 229 136
	lw	a5,-296(s0)
	.loc 1 229 154
	srli	a4,a5,27
	slli	a5,a5,5
	add	a5,a5,a4
	.loc 1 229 200
	lw	a4,-300(s0)
	.loc 1 229 191
	add	a5,a5,a4
	.loc 1 229 124
	sw	a5,-296(s0)
	.loc 1 229 230
	lw	a5,-308(s0)
	.loc 1 229 245
	srli	a4,a5,22
	slli	a5,a5,10
	add	a5,a5,a4
	.loc 1 229 218
	sw	a5,-308(s0)
	.loc 1 229 304
	lw	a4,-276(s0)
	.loc 1 229 320
	lw	a3,-292(s0)
	.loc 1 229 335
	lw	a5,-288(s0)
	.loc 1 229 326
	xor	a3,a3,a5
	.loc 1 229 350
	lw	a5,-284(s0)
	.loc 1 229 341
	xor	a3,a3,a5
	.loc 1 229 366
	lw	a5,-232(s0)
	.loc 1 229 357
	add	a5,a3,a5
	.loc 1 229 309
	add	a5,a4,a5
	sw	a5,-276(s0)
	.loc 1 229 411
	lw	a5,-276(s0)
	.loc 1 229 430
	srli	a4,a5,20
	slli	a5,a5,12
	add	a5,a5,a4
	.loc 1 229 475
	lw	a4,-280(s0)
	.loc 1 229 467
	add	a5,a5,a4
	.loc 1 229 400
	sw	a5,-276(s0)
	.loc 1 229 503
	lw	a5,-288(s0)
	.loc 1 229 518
	srli	a4,a5,22
	slli	a5,a5,10
	add	a5,a5,a4
	.loc 1 229 492
	sw	a5,-288(s0)
	.loc 1 230 22
	lw	a4,-300(s0)
	.loc 1 230 39
	lw	a3,-296(s0)
	.loc 1 230 56
	lw	a2,-312(s0)
	.loc 1 230 73
	lw	a5,-308(s0)
	.loc 1 230 64
	not	a5,a5
	.loc 1 230 62
	or	a5,a2,a5
	.loc 1 230 45
	xor	a3,a3,a5
	.loc 1 230 90
	lw	a5,-236(s0)
	.loc 1 230 81
	add	a5,a3,a5
	.loc 1 230 27
	add	a4,a4,a5
	li	a5,-1454112768
	addi	a5,a5,-690
	add	a5,a4,a5
	sw	a5,-300(s0)
	.loc 1 230 136
	lw	a5,-300(s0)
	.loc 1 230 155
	srli	a4,a5,21
	slli	a5,a5,11
	add	a5,a5,a4
	.loc 1 230 202
	lw	a4,-304(s0)
	.loc 1 230 193
	add	a5,a5,a4
	.loc 1 230 124
	sw	a5,-300(s0)
	.loc 1 230 232
	lw	a5,-312(s0)
	.loc 1 230 247
	srli	a4,a5,22
	slli	a5,a5,10
	add	a5,a5,a4
	.loc 1 230 220
	sw	a5,-312(s0)
	.loc 1 230 306
	lw	a4,-280(s0)
	.loc 1 230 322
	lw	a3,-276(s0)
	.loc 1 230 337
	lw	a5,-292(s0)
	.loc 1 230 328
	xor	a3,a3,a5
	.loc 1 230 352
	lw	a5,-288(s0)
	.loc 1 230 343
	xor	a3,a3,a5
	.loc 1 230 368
	lw	a5,-256(s0)
	.loc 1 230 359
	add	a5,a3,a5
	.loc 1 230 311
	add	a5,a4,a5
	sw	a5,-280(s0)
	.loc 1 230 412
	lw	a5,-280(s0)
	.loc 1 230 430
	srli	a4,a5,23
	slli	a5,a5,9
	add	a5,a5,a4
	.loc 1 230 474
	lw	a4,-284(s0)
	.loc 1 230 466
	add	a5,a5,a4
	.loc 1 230 401
	sw	a5,-280(s0)
	.loc 1 230 502
	lw	a5,-292(s0)
	.loc 1 230 517
	srli	a4,a5,22
	slli	a5,a5,10
	add	a5,a5,a4
	.loc 1 230 491
	sw	a5,-292(s0)
	.loc 1 231 22
	lw	a4,-304(s0)
	.loc 1 231 39
	lw	a3,-300(s0)
	.loc 1 231 56
	lw	a2,-296(s0)
	.loc 1 231 73
	lw	a5,-312(s0)
	.loc 1 231 64
	not	a5,a5
	.loc 1 231 62
	or	a5,a2,a5
	.loc 1 231 45
	xor	a3,a3,a5
	.loc 1 231 90
	lw	a5,-244(s0)
	.loc 1 231 81
	add	a5,a3,a5
	.loc 1 231 27
	add	a4,a4,a5
	li	a5,-1454112768
	addi	a5,a5,-690
	add	a5,a4,a5
	sw	a5,-304(s0)
	.loc 1 231 136
	lw	a5,-304(s0)
	.loc 1 231 154
	srli	a4,a5,26
	slli	a5,a5,6
	add	a5,a5,a4
	.loc 1 231 200
	lw	a4,-308(s0)
	.loc 1 231 191
	add	a5,a5,a4
	.loc 1 231 124
	sw	a5,-304(s0)
	.loc 1 231 230
	lw	a5,-296(s0)
	.loc 1 231 245
	srli	a4,a5,22
	slli	a5,a5,10
	add	a5,a5,a4
	.loc 1 231 218
	sw	a5,-296(s0)
	.loc 1 231 304
	lw	a4,-284(s0)
	.loc 1 231 320
	lw	a3,-280(s0)
	.loc 1 231 335
	lw	a5,-276(s0)
	.loc 1 231 326
	xor	a3,a3,a5
	.loc 1 231 350
	lw	a5,-292(s0)
	.loc 1 231 341
	xor	a3,a3,a5
	.loc 1 231 366
	lw	a5,-268(s0)
	.loc 1 231 357
	add	a5,a3,a5
	.loc 1 231 309
	add	a5,a4,a5
	sw	a5,-284(s0)
	.loc 1 231 410
	lw	a5,-284(s0)
	.loc 1 231 429
	srli	a4,a5,20
	slli	a5,a5,12
	add	a5,a5,a4
	.loc 1 231 474
	lw	a4,-288(s0)
	.loc 1 231 466
	add	a5,a5,a4
	.loc 1 231 399
	sw	a5,-284(s0)
	.loc 1 231 502
	lw	a5,-276(s0)
	.loc 1 231 517
	srli	a4,a5,22
	slli	a5,a5,10
	add	a5,a5,a4
	.loc 1 231 491
	sw	a5,-276(s0)
	.loc 1 232 22
	lw	a4,-308(s0)
	.loc 1 232 39
	lw	a3,-304(s0)
	.loc 1 232 56
	lw	a2,-300(s0)
	.loc 1 232 73
	lw	a5,-296(s0)
	.loc 1 232 64
	not	a5,a5
	.loc 1 232 62
	or	a5,a2,a5
	.loc 1 232 45
	xor	a3,a3,a5
	.loc 1 232 90
	lw	a5,-224(s0)
	.loc 1 232 81
	add	a5,a3,a5
	.loc 1 232 27
	add	a4,a4,a5
	li	a5,-1454112768
	addi	a5,a5,-690
	add	a5,a4,a5
	sw	a5,-308(s0)
	.loc 1 232 137
	lw	a5,-308(s0)
	.loc 1 232 155
	srli	a4,a5,24
	slli	a5,a5,8
	add	a5,a5,a4
	.loc 1 232 201
	lw	a4,-312(s0)
	.loc 1 232 192
	add	a5,a5,a4
	.loc 1 232 125
	sw	a5,-308(s0)
	.loc 1 232 231
	lw	a5,-300(s0)
	.loc 1 232 246
	srli	a4,a5,22
	slli	a5,a5,10
	add	a5,a5,a4
	.loc 1 232 219
	sw	a5,-300(s0)
	.loc 1 232 305
	lw	a4,-288(s0)
	.loc 1 232 321
	lw	a3,-284(s0)
	.loc 1 232 336
	lw	a5,-280(s0)
	.loc 1 232 327
	xor	a3,a3,a5
	.loc 1 232 351
	lw	a5,-276(s0)
	.loc 1 232 342
	xor	a3,a3,a5
	.loc 1 232 367
	lw	a5,-252(s0)
	.loc 1 232 358
	add	a5,a3,a5
	.loc 1 232 310
	add	a5,a4,a5
	sw	a5,-288(s0)
	.loc 1 232 411
	lw	a5,-288(s0)
	.loc 1 232 429
	srli	a4,a5,27
	slli	a5,a5,5
	add	a5,a5,a4
	.loc 1 232 473
	lw	a4,-292(s0)
	.loc 1 232 465
	add	a5,a5,a4
	.loc 1 232 400
	sw	a5,-288(s0)
	.loc 1 232 501
	lw	a5,-280(s0)
	.loc 1 232 516
	srli	a4,a5,22
	slli	a5,a5,10
	add	a5,a5,a4
	.loc 1 232 490
	sw	a5,-280(s0)
	.loc 1 233 22
	lw	a4,-312(s0)
	.loc 1 233 39
	lw	a3,-308(s0)
	.loc 1 233 56
	lw	a2,-304(s0)
	.loc 1 233 73
	lw	a5,-300(s0)
	.loc 1 233 64
	not	a5,a5
	.loc 1 233 62
	or	a5,a2,a5
	.loc 1 233 45
	xor	a3,a3,a5
	.loc 1 233 90
	lw	a5,-264(s0)
	.loc 1 233 81
	add	a5,a3,a5
	.loc 1 233 27
	add	a4,a4,a5
	li	a5,-1454112768
	addi	a5,a5,-690
	add	a5,a4,a5
	sw	a5,-312(s0)
	.loc 1 233 136
	lw	a5,-312(s0)
	.loc 1 233 155
	srli	a4,a5,19
	slli	a5,a5,13
	add	a5,a5,a4
	.loc 1 233 202
	lw	a4,-296(s0)
	.loc 1 233 193
	add	a5,a5,a4
	.loc 1 233 124
	sw	a5,-312(s0)
	.loc 1 233 232
	lw	a5,-304(s0)
	.loc 1 233 247
	srli	a4,a5,22
	slli	a5,a5,10
	add	a5,a5,a4
	.loc 1 233 220
	sw	a5,-304(s0)
	.loc 1 233 306
	lw	a4,-292(s0)
	.loc 1 233 322
	lw	a3,-288(s0)
	.loc 1 233 337
	lw	a5,-284(s0)
	.loc 1 233 328
	xor	a3,a3,a5
	.loc 1 233 352
	lw	a5,-280(s0)
	.loc 1 233 343
	xor	a3,a3,a5
	.loc 1 233 368
	lw	a5,-240(s0)
	.loc 1 233 359
	add	a5,a3,a5
	.loc 1 233 311
	add	a5,a4,a5
	sw	a5,-292(s0)
	.loc 1 233 412
	lw	a5,-292(s0)
	.loc 1 233 431
	srli	a4,a5,18
	slli	a5,a5,14
	add	a5,a5,a4
	.loc 1 233 476
	lw	a4,-276(s0)
	.loc 1 233 468
	add	a5,a5,a4
	.loc 1 233 401
	sw	a5,-292(s0)
	.loc 1 233 504
	lw	a5,-284(s0)
	.loc 1 233 519
	srli	a4,a5,22
	slli	a5,a5,10
	add	a5,a5,a4
	.loc 1 233 493
	sw	a5,-284(s0)
	.loc 1 234 22
	lw	a4,-296(s0)
	.loc 1 234 39
	lw	a3,-312(s0)
	.loc 1 234 56
	lw	a2,-308(s0)
	.loc 1 234 73
	lw	a5,-304(s0)
	.loc 1 234 64
	not	a5,a5
	.loc 1 234 62
	or	a5,a2,a5
	.loc 1 234 45
	xor	a3,a3,a5
	.loc 1 234 90
	lw	a5,-232(s0)
	.loc 1 234 81
	add	a5,a3,a5
	.loc 1 234 27
	add	a4,a4,a5
	li	a5,-1454112768
	addi	a5,a5,-690
	add	a5,a4,a5
	sw	a5,-296(s0)
	.loc 1 234 137
	lw	a5,-296(s0)
	.loc 1 234 156
	srli	a4,a5,20
	slli	a5,a5,12
	add	a5,a5,a4
	.loc 1 234 203
	lw	a4,-300(s0)
	.loc 1 234 194
	add	a5,a5,a4
	.loc 1 234 125
	sw	a5,-296(s0)
	.loc 1 234 233
	lw	a5,-308(s0)
	.loc 1 234 248
	srli	a4,a5,22
	slli	a5,a5,10
	add	a5,a5,a4
	.loc 1 234 221
	sw	a5,-308(s0)
	.loc 1 234 307
	lw	a4,-276(s0)
	.loc 1 234 323
	lw	a3,-292(s0)
	.loc 1 234 338
	lw	a5,-288(s0)
	.loc 1 234 329
	xor	a3,a3,a5
	.loc 1 234 353
	lw	a5,-284(s0)
	.loc 1 234 344
	xor	a3,a3,a5
	.loc 1 234 369
	lw	a5,-244(s0)
	.loc 1 234 360
	add	a5,a3,a5
	.loc 1 234 312
	add	a5,a4,a5
	sw	a5,-276(s0)
	.loc 1 234 413
	lw	a5,-276(s0)
	.loc 1 234 431
	srli	a4,a5,26
	slli	a5,a5,6
	add	a5,a5,a4
	.loc 1 234 475
	lw	a4,-280(s0)
	.loc 1 234 467
	add	a5,a5,a4
	.loc 1 234 402
	sw	a5,-276(s0)
	.loc 1 234 503
	lw	a5,-288(s0)
	.loc 1 234 518
	srli	a4,a5,22
	slli	a5,a5,10
	add	a5,a5,a4
	.loc 1 234 492
	sw	a5,-288(s0)
	.loc 1 235 22
	lw	a4,-300(s0)
	.loc 1 235 39
	lw	a3,-296(s0)
	.loc 1 235 56
	lw	a2,-312(s0)
	.loc 1 235 73
	lw	a5,-308(s0)
	.loc 1 235 64
	not	a5,a5
	.loc 1 235 62
	or	a5,a2,a5
	.loc 1 235 45
	xor	a3,a3,a5
	.loc 1 235 90
	lw	a5,-216(s0)
	.loc 1 235 81
	add	a5,a3,a5
	.loc 1 235 27
	add	a4,a4,a5
	li	a5,-1454112768
	addi	a5,a5,-690
	add	a5,a4,a5
	sw	a5,-300(s0)
	.loc 1 235 137
	lw	a5,-300(s0)
	.loc 1 235 155
	srli	a4,a5,27
	slli	a5,a5,5
	add	a5,a5,a4
	.loc 1 235 201
	lw	a4,-304(s0)
	.loc 1 235 192
	add	a5,a5,a4
	.loc 1 235 125
	sw	a5,-300(s0)
	.loc 1 235 231
	lw	a5,-312(s0)
	.loc 1 235 246
	srli	a4,a5,22
	slli	a5,a5,10
	add	a5,a5,a4
	.loc 1 235 219
	sw	a5,-312(s0)
	.loc 1 235 305
	lw	a4,-280(s0)
	.loc 1 235 321
	lw	a3,-276(s0)
	.loc 1 235 336
	lw	a5,-292(s0)
	.loc 1 235 327
	xor	a3,a3,a5
	.loc 1 235 351
	lw	a5,-288(s0)
	.loc 1 235 342
	xor	a3,a3,a5
	.loc 1 235 367
	lw	a5,-248(s0)
	.loc 1 235 358
	add	a5,a3,a5
	.loc 1 235 310
	add	a5,a4,a5
	sw	a5,-280(s0)
	.loc 1 235 411
	lw	a5,-280(s0)
	.loc 1 235 429
	srli	a4,a5,24
	slli	a5,a5,8
	add	a5,a5,a4
	.loc 1 235 473
	lw	a4,-284(s0)
	.loc 1 235 465
	add	a5,a5,a4
	.loc 1 235 400
	sw	a5,-280(s0)
	.loc 1 235 501
	lw	a5,-292(s0)
	.loc 1 235 516
	srli	a4,a5,22
	slli	a5,a5,10
	add	a5,a5,a4
	.loc 1 235 490
	sw	a5,-292(s0)
	.loc 1 236 22
	lw	a4,-304(s0)
	.loc 1 236 39
	lw	a3,-300(s0)
	.loc 1 236 56
	lw	a2,-296(s0)
	.loc 1 236 73
	lw	a5,-312(s0)
	.loc 1 236 64
	not	a5,a5
	.loc 1 236 62
	or	a5,a2,a5
	.loc 1 236 45
	xor	a3,a3,a5
	.loc 1 236 90
	lw	a5,-268(s0)
	.loc 1 236 81
	add	a5,a3,a5
	.loc 1 236 27
	add	a4,a4,a5
	li	a5,-1454112768
	addi	a5,a5,-690
	add	a5,a4,a5
	sw	a5,-304(s0)
	.loc 1 236 136
	lw	a5,-304(s0)
	.loc 1 236 155
	srli	a4,a5,20
	slli	a5,a5,12
	add	a5,a5,a4
	.loc 1 236 202
	lw	a4,-308(s0)
	.loc 1 236 193
	add	a5,a5,a4
	.loc 1 236 124
	sw	a5,-304(s0)
	.loc 1 236 232
	lw	a5,-296(s0)
	.loc 1 236 247
	srli	a4,a5,22
	slli	a5,a5,10
	add	a5,a5,a4
	.loc 1 236 220
	sw	a5,-296(s0)
	.loc 1 236 306
	lw	a4,-284(s0)
	.loc 1 236 322
	lw	a3,-280(s0)
	.loc 1 236 337
	lw	a5,-276(s0)
	.loc 1 236 328
	xor	a3,a3,a5
	.loc 1 236 352
	lw	a5,-292(s0)
	.loc 1 236 343
	xor	a3,a3,a5
	.loc 1 236 368
	lw	a5,-264(s0)
	.loc 1 236 359
	add	a5,a3,a5
	.loc 1 236 311
	add	a5,a4,a5
	sw	a5,-284(s0)
	.loc 1 236 412
	lw	a5,-284(s0)
	.loc 1 236 431
	srli	a4,a5,19
	slli	a5,a5,13
	add	a5,a5,a4
	.loc 1 236 476
	lw	a4,-288(s0)
	.loc 1 236 468
	add	a5,a5,a4
	.loc 1 236 401
	sw	a5,-284(s0)
	.loc 1 236 504
	lw	a5,-276(s0)
	.loc 1 236 519
	srli	a4,a5,22
	slli	a5,a5,10
	add	a5,a5,a4
	.loc 1 236 493
	sw	a5,-276(s0)
	.loc 1 237 22
	lw	a4,-308(s0)
	.loc 1 237 39
	lw	a3,-304(s0)
	.loc 1 237 56
	lw	a2,-300(s0)
	.loc 1 237 73
	lw	a5,-296(s0)
	.loc 1 237 64
	not	a5,a5
	.loc 1 237 62
	or	a5,a2,a5
	.loc 1 237 45
	xor	a3,a3,a5
	.loc 1 237 90
	lw	a5,-260(s0)
	.loc 1 237 81
	add	a5,a3,a5
	.loc 1 237 27
	add	a4,a4,a5
	li	a5,-1454112768
	addi	a5,a5,-690
	add	a5,a4,a5
	sw	a5,-308(s0)
	.loc 1 237 136
	lw	a5,-308(s0)
	.loc 1 237 155
	srli	a4,a5,19
	slli	a5,a5,13
	add	a5,a5,a4
	.loc 1 237 202
	lw	a4,-312(s0)
	.loc 1 237 193
	add	a5,a5,a4
	.loc 1 237 124
	sw	a5,-308(s0)
	.loc 1 237 232
	lw	a5,-300(s0)
	.loc 1 237 247
	srli	a4,a5,22
	slli	a5,a5,10
	add	a5,a5,a4
	.loc 1 237 220
	sw	a5,-300(s0)
	.loc 1 237 306
	lw	a4,-288(s0)
	.loc 1 237 322
	lw	a3,-284(s0)
	.loc 1 237 337
	lw	a5,-280(s0)
	.loc 1 237 328
	xor	a3,a3,a5
	.loc 1 237 352
	lw	a5,-276(s0)
	.loc 1 237 343
	xor	a3,a3,a5
	.loc 1 237 368
	lw	a5,-220(s0)
	.loc 1 237 359
	add	a5,a3,a5
	.loc 1 237 311
	add	a5,a4,a5
	sw	a5,-288(s0)
	.loc 1 237 413
	lw	a5,-288(s0)
	.loc 1 237 431
	srli	a4,a5,26
	slli	a5,a5,6
	add	a5,a5,a4
	.loc 1 237 475
	lw	a4,-292(s0)
	.loc 1 237 467
	add	a5,a5,a4
	.loc 1 237 402
	sw	a5,-288(s0)
	.loc 1 237 503
	lw	a5,-280(s0)
	.loc 1 237 518
	srli	a4,a5,22
	slli	a5,a5,10
	add	a5,a5,a4
	.loc 1 237 492
	sw	a5,-280(s0)
	.loc 1 238 22
	lw	a4,-312(s0)
	.loc 1 238 39
	lw	a3,-308(s0)
	.loc 1 238 56
	lw	a2,-304(s0)
	.loc 1 238 73
	lw	a5,-300(s0)
	.loc 1 238 64
	not	a5,a5
	.loc 1 238 62
	or	a5,a2,a5
	.loc 1 238 45
	xor	a3,a3,a5
	.loc 1 238 90
	lw	a5,-240(s0)
	.loc 1 238 81
	add	a5,a3,a5
	.loc 1 238 27
	add	a4,a4,a5
	li	a5,-1454112768
	addi	a5,a5,-690
	add	a5,a4,a5
	sw	a5,-312(s0)
	.loc 1 238 136
	lw	a5,-312(s0)
	.loc 1 238 155
	srli	a4,a5,18
	slli	a5,a5,14
	add	a5,a5,a4
	.loc 1 238 202
	lw	a4,-296(s0)
	.loc 1 238 193
	add	a5,a5,a4
	.loc 1 238 124
	sw	a5,-312(s0)
	.loc 1 238 232
	lw	a5,-304(s0)
	.loc 1 238 247
	srli	a4,a5,22
	slli	a5,a5,10
	add	a5,a5,a4
	.loc 1 238 220
	sw	a5,-304(s0)
	.loc 1 238 306
	lw	a4,-292(s0)
	.loc 1 238 322
	lw	a3,-288(s0)
	.loc 1 238 337
	lw	a5,-284(s0)
	.loc 1 238 328
	xor	a3,a3,a5
	.loc 1 238 352
	lw	a5,-280(s0)
	.loc 1 238 343
	xor	a3,a3,a5
	.loc 1 238 368
	lw	a5,-216(s0)
	.loc 1 238 359
	add	a5,a3,a5
	.loc 1 238 311
	add	a5,a4,a5
	sw	a5,-292(s0)
	.loc 1 238 413
	lw	a5,-292(s0)
	.loc 1 238 431
	srli	a4,a5,27
	slli	a5,a5,5
	add	a5,a5,a4
	.loc 1 238 475
	lw	a4,-276(s0)
	.loc 1 238 467
	add	a5,a5,a4
	.loc 1 238 402
	sw	a5,-292(s0)
	.loc 1 238 503
	lw	a5,-284(s0)
	.loc 1 238 518
	srli	a4,a5,22
	slli	a5,a5,10
	add	a5,a5,a4
	.loc 1 238 492
	sw	a5,-284(s0)
	.loc 1 239 22
	lw	a4,-296(s0)
	.loc 1 239 39
	lw	a3,-312(s0)
	.loc 1 239 56
	lw	a2,-308(s0)
	.loc 1 239 73
	lw	a5,-304(s0)
	.loc 1 239 64
	not	a5,a5
	.loc 1 239 62
	or	a5,a2,a5
	.loc 1 239 45
	xor	a3,a3,a5
	.loc 1 239 90
	lw	a5,-228(s0)
	.loc 1 239 81
	add	a5,a3,a5
	.loc 1 239 27
	add	a4,a4,a5
	li	a5,-1454112768
	addi	a5,a5,-690
	add	a5,a4,a5
	sw	a5,-296(s0)
	.loc 1 239 137
	lw	a5,-296(s0)
	.loc 1 239 156
	srli	a4,a5,21
	slli	a5,a5,11
	add	a5,a5,a4
	.loc 1 239 203
	lw	a4,-300(s0)
	.loc 1 239 194
	add	a5,a5,a4
	.loc 1 239 125
	sw	a5,-296(s0)
	.loc 1 239 233
	lw	a5,-308(s0)
	.loc 1 239 248
	srli	a4,a5,22
	slli	a5,a5,10
	add	a5,a5,a4
	.loc 1 239 221
	sw	a5,-308(s0)
	.loc 1 239 307
	lw	a4,-276(s0)
	.loc 1 239 323
	lw	a3,-292(s0)
	.loc 1 239 338
	lw	a5,-288(s0)
	.loc 1 239 329
	xor	a3,a3,a5
	.loc 1 239 353
	lw	a5,-284(s0)
	.loc 1 239 344
	xor	a3,a3,a5
	.loc 1 239 369
	lw	a5,-272(s0)
	.loc 1 239 360
	add	a5,a3,a5
	.loc 1 239 312
	add	a5,a4,a5
	sw	a5,-276(s0)
	.loc 1 239 413
	lw	a5,-276(s0)
	.loc 1 239 432
	srli	a4,a5,17
	slli	a5,a5,15
	add	a5,a5,a4
	.loc 1 239 477
	lw	a4,-280(s0)
	.loc 1 239 469
	add	a5,a5,a4
	.loc 1 239 402
	sw	a5,-276(s0)
	.loc 1 239 505
	lw	a5,-288(s0)
	.loc 1 239 520
	srli	a4,a5,22
	slli	a5,a5,10
	add	a5,a5,a4
	.loc 1 239 494
	sw	a5,-288(s0)
	.loc 1 240 22
	lw	a4,-300(s0)
	.loc 1 240 39
	lw	a3,-296(s0)
	.loc 1 240 56
	lw	a2,-312(s0)
	.loc 1 240 73
	lw	a5,-308(s0)
	.loc 1 240 64
	not	a5,a5
	.loc 1 240 62
	or	a5,a2,a5
	.loc 1 240 45
	xor	a3,a3,a5
	.loc 1 240 90
	lw	a5,-248(s0)
	.loc 1 240 81
	add	a5,a3,a5
	.loc 1 240 27
	add	a4,a4,a5
	li	a5,-1454112768
	addi	a5,a5,-690
	add	a5,a4,a5
	sw	a5,-300(s0)
	.loc 1 240 136
	lw	a5,-300(s0)
	.loc 1 240 154
	srli	a4,a5,24
	slli	a5,a5,8
	add	a5,a5,a4
	.loc 1 240 200
	lw	a4,-304(s0)
	.loc 1 240 191
	add	a5,a5,a4
	.loc 1 240 124
	sw	a5,-300(s0)
	.loc 1 240 230
	lw	a5,-312(s0)
	.loc 1 240 245
	srli	a4,a5,22
	slli	a5,a5,10
	add	a5,a5,a4
	.loc 1 240 218
	sw	a5,-312(s0)
	.loc 1 240 304
	lw	a4,-280(s0)
	.loc 1 240 320
	lw	a3,-276(s0)
	.loc 1 240 335
	lw	a5,-292(s0)
	.loc 1 240 326
	xor	a3,a3,a5
	.loc 1 240 350
	lw	a5,-288(s0)
	.loc 1 240 341
	xor	a3,a3,a5
	.loc 1 240 366
	lw	a5,-260(s0)
	.loc 1 240 357
	add	a5,a3,a5
	.loc 1 240 309
	add	a5,a4,a5
	sw	a5,-280(s0)
	.loc 1 240 410
	lw	a5,-280(s0)
	.loc 1 240 429
	srli	a4,a5,19
	slli	a5,a5,13
	add	a5,a5,a4
	.loc 1 240 474
	lw	a4,-284(s0)
	.loc 1 240 466
	add	a5,a5,a4
	.loc 1 240 399
	sw	a5,-280(s0)
	.loc 1 240 502
	lw	a5,-292(s0)
	.loc 1 240 517
	srli	a4,a5,22
	slli	a5,a5,10
	add	a5,a5,a4
	.loc 1 240 491
	sw	a5,-292(s0)
	.loc 1 241 22
	lw	a4,-304(s0)
	.loc 1 241 39
	lw	a3,-300(s0)
	.loc 1 241 56
	lw	a2,-296(s0)
	.loc 1 241 73
	lw	a5,-312(s0)
	.loc 1 241 64
	not	a5,a5
	.loc 1 241 62
	or	a5,a2,a5
	.loc 1 241 45
	xor	a3,a3,a5
	.loc 1 241 90
	lw	a5,-212(s0)
	.loc 1 241 81
	add	a5,a3,a5
	.loc 1 241 27
	add	a4,a4,a5
	li	a5,-1454112768
	addi	a5,a5,-690
	add	a5,a4,a5
	sw	a5,-304(s0)
	.loc 1 241 137
	lw	a5,-304(s0)
	.loc 1 241 155
	srli	a4,a5,27
	slli	a5,a5,5
	add	a5,a5,a4
	.loc 1 241 201
	lw	a4,-308(s0)
	.loc 1 241 192
	add	a5,a5,a4
	.loc 1 241 125
	sw	a5,-304(s0)
	.loc 1 241 231
	lw	a5,-296(s0)
	.loc 1 241 246
	srli	a4,a5,22
	slli	a5,a5,10
	add	a5,a5,a4
	.loc 1 241 219
	sw	a5,-296(s0)
	.loc 1 241 305
	lw	a4,-284(s0)
	.loc 1 241 321
	lw	a3,-280(s0)
	.loc 1 241 336
	lw	a5,-276(s0)
	.loc 1 241 327
	xor	a3,a3,a5
	.loc 1 241 351
	lw	a5,-292(s0)
	.loc 1 241 342
	xor	a3,a3,a5
	.loc 1 241 367
	lw	a5,-236(s0)
	.loc 1 241 358
	add	a5,a3,a5
	.loc 1 241 310
	add	a5,a4,a5
	sw	a5,-284(s0)
	.loc 1 241 411
	lw	a5,-284(s0)
	.loc 1 241 430
	srli	a4,a5,21
	slli	a5,a5,11
	add	a5,a5,a4
	.loc 1 241 475
	lw	a4,-288(s0)
	.loc 1 241 467
	add	a5,a5,a4
	.loc 1 241 400
	sw	a5,-284(s0)
	.loc 1 241 503
	lw	a5,-276(s0)
	.loc 1 241 518
	srli	a4,a5,22
	slli	a5,a5,10
	add	a5,a5,a4
	.loc 1 241 492
	sw	a5,-276(s0)
	.loc 1 242 22
	lw	a4,-308(s0)
	.loc 1 242 39
	lw	a3,-304(s0)
	.loc 1 242 56
	lw	a2,-300(s0)
	.loc 1 242 73
	lw	a5,-296(s0)
	.loc 1 242 64
	not	a5,a5
	.loc 1 242 62
	or	a5,a2,a5
	.loc 1 242 45
	xor	a3,a3,a5
	.loc 1 242 90
	lw	a5,-220(s0)
	.loc 1 242 81
	add	a5,a3,a5
	.loc 1 242 27
	add	a4,a4,a5
	li	a5,-1454112768
	addi	a5,a5,-690
	add	a5,a4,a5
	sw	a5,-308(s0)
	.loc 1 242 137
	lw	a5,-308(s0)
	.loc 1 242 155
	srli	a4,a5,26
	slli	a5,a5,6
	add	a5,a5,a4
	.loc 1 242 201
	lw	a4,-312(s0)
	.loc 1 242 192
	add	a5,a5,a4
	.loc 1 242 125
	sw	a5,-308(s0)
	.loc 1 242 231
	lw	a5,-300(s0)
	.loc 1 242 246
	srli	a4,a5,22
	slli	a5,a5,10
	add	a5,a5,a4
	.loc 1 242 219
	sw	a5,-300(s0)
	.loc 1 242 305
	lw	a4,-288(s0)
	.loc 1 242 321
	lw	a3,-284(s0)
	.loc 1 242 336
	lw	a5,-280(s0)
	.loc 1 242 327
	xor	a3,a3,a5
	.loc 1 242 351
	lw	a5,-276(s0)
	.loc 1 242 342
	xor	a3,a3,a5
	.loc 1 242 367
	lw	a5,-228(s0)
	.loc 1 242 358
	add	a5,a3,a5
	.loc 1 242 310
	add	a5,a4,a5
	sw	a5,-288(s0)
	.loc 1 242 412
	lw	a5,-288(s0)
	.loc 1 242 431
	srli	a4,a5,21
	slli	a5,a5,11
	add	a5,a5,a4
	.loc 1 242 476
	lw	a4,-292(s0)
	.loc 1 242 468
	add	a5,a5,a4
	.loc 1 242 401
	sw	a5,-288(s0)
	.loc 1 242 504
	lw	a5,-280(s0)
	.loc 1 242 519
	srli	a4,a5,22
	slli	a5,a5,10
	add	a5,a5,a4
	.loc 1 242 493
	sw	a5,-280(s0)
	.loc 1 248 25
	lw	a5,-324(s0)
	lw	a4,12(a5)
	.loc 1 248 36
	lw	a5,-304(s0)
	.loc 1 248 29
	add	a4,a4,a5
	.loc 1 248 46
	lw	a5,-280(s0)
	.loc 1 248 39
	add	a5,a4,a5
	.loc 1 248 13
	sw	a5,-304(s0)
	.loc 1 249 31
	lw	a5,-324(s0)
	lw	a4,16(a5)
	.loc 1 249 42
	lw	a5,-300(s0)
	.loc 1 249 35
	add	a4,a4,a5
	.loc 1 249 52
	lw	a5,-276(s0)
	.loc 1 249 45
	add	a4,a4,a5
	.loc 1 249 19
	lw	a5,-324(s0)
	sw	a4,12(a5)
	.loc 1 250 31
	lw	a5,-324(s0)
	lw	a4,20(a5)
	.loc 1 250 42
	lw	a5,-296(s0)
	.loc 1 250 35
	add	a4,a4,a5
	.loc 1 250 52
	lw	a5,-292(s0)
	.loc 1 250 45
	add	a4,a4,a5
	.loc 1 250 19
	lw	a5,-324(s0)
	sw	a4,16(a5)
	.loc 1 251 31
	lw	a5,-324(s0)
	lw	a4,24(a5)
	.loc 1 251 42
	lw	a5,-312(s0)
	.loc 1 251 35
	add	a4,a4,a5
	.loc 1 251 52
	lw	a5,-288(s0)
	.loc 1 251 45
	add	a4,a4,a5
	.loc 1 251 19
	lw	a5,-324(s0)
	sw	a4,20(a5)
	.loc 1 252 31
	lw	a5,-324(s0)
	lw	a4,8(a5)
	.loc 1 252 42
	lw	a5,-308(s0)
	.loc 1 252 35
	add	a4,a4,a5
	.loc 1 252 52
	lw	a5,-284(s0)
	.loc 1 252 45
	add	a4,a4,a5
	.loc 1 252 19
	lw	a5,-324(s0)
	sw	a4,24(a5)
	.loc 1 253 26
	lw	a4,-304(s0)
	.loc 1 253 19
	lw	a5,-324(s0)
	sw	a4,8(a5)
	.loc 1 256 5
	addi	a5,s0,-312
	li	a1,104
	mv	a0,a5
	call	mbedtls_platform_zeroize
	.loc 1 258 12
	li	a5,0
	.loc 1 259 1
	mv	a0,a5
	lw	ra,332(sp)
	.cfi_restore 1
	lw	s0,328(sp)
	.cfi_restore 8
	.cfi_def_cfa 2, 336
	addi	sp,sp,336
	.cfi_def_cfa_offset 0
	jr	ra
	.cfi_endproc
.LFE19:
	.size	mbedtls_internal_ripemd160_process, .-mbedtls_internal_ripemd160_process
	.section	.text.mbedtls_ripemd160_update,"ax",@progbits
	.align	1
	.globl	mbedtls_ripemd160_update
	.type	mbedtls_ripemd160_update, @function
mbedtls_ripemd160_update:
.LFB20:
	.loc 1 269 1
	.cfi_startproc
	addi	sp,sp,-48
	.cfi_def_cfa_offset 48
	sw	ra,44(sp)
	sw	s0,40(sp)
	.cfi_offset 1, -4
	.cfi_offset 8, -8
	addi	s0,sp,48
	.cfi_def_cfa 8, 0
	sw	a0,-36(s0)
	sw	a1,-40(s0)
	sw	a2,-44(s0)
	.loc 1 270 9
	li	a5,-110
	sw	a5,-24(s0)
	.loc 1 274 8
	lw	a5,-44(s0)
	bne	a5,zero,.L28
	.loc 1 275 16
	li	a5,0
	j	.L29
.L28:
	.loc 1 278 22
	lw	a5,-36(s0)
	lw	a5,0(a5)
	.loc 1 278 10
	andi	a5,a5,63
	sw	a5,-20(s0)
	.loc 1 279 10
	li	a4,64
	lw	a5,-20(s0)
	sub	a5,a4,a5
	sw	a5,-28(s0)
	.loc 1 281 15
	lw	a5,-36(s0)
	lw	a4,0(a5)
	.loc 1 281 19
	lw	a5,-44(s0)
	add	a4,a4,a5
	lw	a5,-36(s0)
	sw	a4,0(a5)
	.loc 1 282 15
	lw	a5,-36(s0)
	lw	a4,0(a5)
	.loc 1 282 19
	lw	a5,-36(s0)
	sw	a4,0(a5)
	.loc 1 284 19
	lw	a5,-36(s0)
	lw	a5,0(a5)
	.loc 1 284 8
	lw	a4,-44(s0)
	bleu	a4,a5,.L30
	.loc 1 285 19
	lw	a5,-36(s0)
	lw	a5,4(a5)
	.loc 1 285 22
	addi	a4,a5,1
	lw	a5,-36(s0)
	sw	a4,4(a5)
.L30:
	.loc 1 288 8
	lw	a5,-20(s0)
	beq	a5,zero,.L33
	.loc 1 288 14 discriminator 1
	lw	a4,-44(s0)
	lw	a5,-28(s0)
	bltu	a4,a5,.L33
	.loc 1 289 26
	lw	a5,-36(s0)
	addi	a4,a5,28
	.loc 1 289 9
	lw	a5,-20(s0)
	add	a5,a4,a5
	lw	a2,-28(s0)
	lw	a1,-40(s0)
	mv	a0,a5
	call	memcpy
	.loc 1 291 63
	lw	a5,-36(s0)
	addi	a5,a5,28
	.loc 1 291 20
	mv	a1,a5
	lw	a0,-36(s0)
	call	mbedtls_internal_ripemd160_process
	sw	a0,-24(s0)
	.loc 1 291 12 discriminator 1
	lw	a5,-24(s0)
	beq	a5,zero,.L32
	.loc 1 292 20
	lw	a5,-24(s0)
	j	.L29
.L32:
	.loc 1 295 15
	lw	a4,-40(s0)
	lw	a5,-28(s0)
	add	a5,a4,a5
	sw	a5,-40(s0)
	.loc 1 296 14
	lw	a4,-44(s0)
	lw	a5,-28(s0)
	sub	a5,a4,a5
	sw	a5,-44(s0)
	.loc 1 297 14
	sw	zero,-20(s0)
	.loc 1 300 11
	j	.L33
.L35:
	.loc 1 301 20
	lw	a1,-40(s0)
	lw	a0,-36(s0)
	call	mbedtls_internal_ripemd160_process
	sw	a0,-24(s0)
	.loc 1 301 12 discriminator 1
	lw	a5,-24(s0)
	beq	a5,zero,.L34
	.loc 1 302 20
	lw	a5,-24(s0)
	j	.L29
.L34:
	.loc 1 305 15
	lw	a5,-40(s0)
	addi	a5,a5,64
	sw	a5,-40(s0)
	.loc 1 306 14
	lw	a5,-44(s0)
	addi	a5,a5,-64
	sw	a5,-44(s0)
.L33:
	.loc 1 300 17
	lw	a4,-44(s0)
	li	a5,63
	bgtu	a4,a5,.L35
	.loc 1 309 8
	lw	a5,-44(s0)
	beq	a5,zero,.L36
	.loc 1 310 26
	lw	a5,-36(s0)
	addi	a4,a5,28
	.loc 1 310 9
	lw	a5,-20(s0)
	add	a5,a4,a5
	lw	a2,-44(s0)
	lw	a1,-40(s0)
	mv	a0,a5
	call	memcpy
.L36:
	.loc 1 313 12
	li	a5,0
.L29:
	.loc 1 314 1
	mv	a0,a5
	lw	ra,44(sp)
	.cfi_restore 1
	lw	s0,40(sp)
	.cfi_restore 8
	.cfi_def_cfa 2, 48
	addi	sp,sp,48
	.cfi_def_cfa_offset 0
	jr	ra
	.cfi_endproc
.LFE20:
	.size	mbedtls_ripemd160_update, .-mbedtls_ripemd160_update
	.section	.rodata.ripemd160_padding,"a"
	.align	2
	.type	ripemd160_padding, @object
	.size	ripemd160_padding, 64
ripemd160_padding:
	.string	"\200"
	.zero	62
	.section	.text.mbedtls_ripemd160_finish,"ax",@progbits
	.align	1
	.globl	mbedtls_ripemd160_finish
	.type	mbedtls_ripemd160_finish, @function
mbedtls_ripemd160_finish:
.LFB21:
	.loc 1 329 1
	.cfi_startproc
	addi	sp,sp,-144
	.cfi_def_cfa_offset 144
	sw	ra,140(sp)
	sw	s0,136(sp)
	.cfi_offset 1, -4
	.cfi_offset 8, -8
	addi	s0,sp,144
	.cfi_def_cfa 8, 0
	sw	a0,-132(s0)
	sw	a1,-136(s0)
	.loc 1 330 9
	li	a5,-110
	sw	a5,-20(s0)
	.loc 1 335 23
	lw	a5,-132(s0)
	lw	a5,0(a5)
	.loc 1 335 27
	srli	a4,a5,29
	.loc 1 336 25
	lw	a5,-132(s0)
	lw	a5,4(a5)
	.loc 1 336 29
	slli	a5,a5,3
	.loc 1 335 10
	or	a5,a4,a5
	sw	a5,-32(s0)
	.loc 1 337 22
	lw	a5,-132(s0)
	lw	a5,0(a5)
	.loc 1 337 9
	slli	a5,a5,3
	sw	a5,-36(s0)
	addi	a5,s0,-128
	sw	a5,-44(s0)
	lw	a5,-36(s0)
	sw	a5,-40(s0)
.LBB80:
.LBB81:
	.loc 2 200 33
	lw	a5,-44(s0)
	sw	a5,-48(s0)
	.loc 2 201 12
	lw	a5,-48(s0)
	lw	a4,-40(s0)
	andi	a4,a4,255
	lbu	a3,0(a5)
	andi	a3,a3,0
	or	a4,a3,a4
	sb	a4,0(a5)
	lw	a4,-40(s0)
	srli	a4,a4,8
	andi	a4,a4,255
	lbu	a3,1(a5)
	andi	a3,a3,0
	or	a4,a3,a4
	sb	a4,1(a5)
	lw	a4,-40(s0)
	srli	a4,a4,16
	andi	a4,a4,255
	lbu	a3,2(a5)
	andi	a3,a3,0
	or	a4,a3,a4
	sb	a4,2(a5)
	lw	a4,-40(s0)
	srli	a4,a4,24
	lbu	a3,3(a5)
	andi	a3,a3,0
	or	a4,a3,a4
	sb	a4,3(a5)
	.loc 2 205 1
	nop
.LBE81:
.LBE80:
	.loc 1 340 109 discriminator 2
	addi	a5,s0,-128
	addi	a5,a5,4
	sw	a5,-52(s0)
	lw	a5,-32(s0)
	sw	a5,-56(s0)
.LBB82:
.LBB83:
	.loc 2 200 33
	lw	a5,-52(s0)
	sw	a5,-60(s0)
	.loc 2 201 12
	lw	a5,-60(s0)
	lw	a4,-56(s0)
	andi	a4,a4,255
	lbu	a3,0(a5)
	andi	a3,a3,0
	or	a4,a3,a4
	sb	a4,0(a5)
	lw	a4,-56(s0)
	srli	a4,a4,8
	andi	a4,a4,255
	lbu	a3,1(a5)
	andi	a3,a3,0
	or	a4,a3,a4
	sb	a4,1(a5)
	lw	a4,-56(s0)
	srli	a4,a4,16
	andi	a4,a4,255
	lbu	a3,2(a5)
	andi	a3,a3,0
	or	a4,a3,a4
	sb	a4,2(a5)
	lw	a4,-56(s0)
	srli	a4,a4,24
	lbu	a3,3(a5)
	andi	a3,a3,0
	or	a4,a3,a4
	sb	a4,3(a5)
	.loc 2 205 1
	nop
.LBE83:
.LBE82:
	.loc 1 342 22
	lw	a5,-132(s0)
	lw	a5,0(a5)
	.loc 1 342 10
	andi	a5,a5,63
	sw	a5,-28(s0)
	.loc 1 343 38
	lw	a4,-28(s0)
	li	a5,55
	bgtu	a4,a5,.L38
	.loc 1 343 10 discriminator 1
	li	a4,56
	lw	a5,-28(s0)
	sub	a5,a4,a5
	sw	a5,-24(s0)
	j	.L39
.L38:
	.loc 1 343 10 is_stmt 0 discriminator 2
	li	a4,120
	lw	a5,-28(s0)
	sub	a5,a4,a5
	sw	a5,-24(s0)
.L39:
	.loc 1 345 11 is_stmt 1
	lw	a2,-24(s0)
	lui	a5,%hi(ripemd160_padding)
	addi	a1,a5,%lo(ripemd160_padding)
	lw	a0,-132(s0)
	call	mbedtls_ripemd160_update
	sw	a0,-20(s0)
	.loc 1 346 8
	lw	a5,-20(s0)
	bne	a5,zero,.L44
	.loc 1 350 11
	addi	a5,s0,-128
	li	a2,8
	mv	a1,a5
	lw	a0,-132(s0)
	call	mbedtls_ripemd160_update
	sw	a0,-20(s0)
	.loc 1 351 8
	lw	a5,-20(s0)
	bne	a5,zero,.L45
	.loc 1 355 118 discriminator 2
	lw	a5,-132(s0)
	lw	a5,8(a5)
	lw	a4,-136(s0)
	sw	a4,-64(s0)
	sw	a5,-68(s0)
.LBB84:
.LBB85:
	.loc 2 200 33
	lw	a5,-64(s0)
	sw	a5,-72(s0)
	.loc 2 201 12
	lw	a5,-72(s0)
	lw	a4,-68(s0)
	andi	a4,a4,255
	lbu	a3,0(a5)
	andi	a3,a3,0
	or	a4,a3,a4
	sb	a4,0(a5)
	lw	a4,-68(s0)
	srli	a4,a4,8
	andi	a4,a4,255
	lbu	a3,1(a5)
	andi	a3,a3,0
	or	a4,a3,a4
	sb	a4,1(a5)
	lw	a4,-68(s0)
	srli	a4,a4,16
	andi	a4,a4,255
	lbu	a3,2(a5)
	andi	a3,a3,0
	or	a4,a3,a4
	sb	a4,2(a5)
	lw	a4,-68(s0)
	srli	a4,a4,24
	lbu	a3,3(a5)
	andi	a3,a3,0
	or	a4,a3,a4
	sb	a4,3(a5)
	.loc 2 205 1
	nop
.LBE85:
.LBE84:
	.loc 1 356 156 discriminator 2
	lw	a5,-136(s0)
	addi	a4,a5,4
	.loc 1 356 118 discriminator 2
	lw	a5,-132(s0)
	lw	a5,12(a5)
	sw	a4,-76(s0)
	sw	a5,-80(s0)
.LBB86:
.LBB87:
	.loc 2 200 33
	lw	a5,-76(s0)
	sw	a5,-84(s0)
	.loc 2 201 12
	lw	a5,-84(s0)
	lw	a4,-80(s0)
	andi	a4,a4,255
	lbu	a3,0(a5)
	andi	a3,a3,0
	or	a4,a3,a4
	sb	a4,0(a5)
	lw	a4,-80(s0)
	srli	a4,a4,8
	andi	a4,a4,255
	lbu	a3,1(a5)
	andi	a3,a3,0
	or	a4,a3,a4
	sb	a4,1(a5)
	lw	a4,-80(s0)
	srli	a4,a4,16
	andi	a4,a4,255
	lbu	a3,2(a5)
	andi	a3,a3,0
	or	a4,a3,a4
	sb	a4,2(a5)
	lw	a4,-80(s0)
	srli	a4,a4,24
	lbu	a3,3(a5)
	andi	a3,a3,0
	or	a4,a3,a4
	sb	a4,3(a5)
	.loc 2 205 1
	nop
.LBE87:
.LBE86:
	.loc 1 357 156 discriminator 2
	lw	a5,-136(s0)
	addi	a4,a5,8
	.loc 1 357 118 discriminator 2
	lw	a5,-132(s0)
	lw	a5,16(a5)
	sw	a4,-88(s0)
	sw	a5,-92(s0)
.LBB88:
.LBB89:
	.loc 2 200 33
	lw	a5,-88(s0)
	sw	a5,-96(s0)
	.loc 2 201 12
	lw	a5,-96(s0)
	lw	a4,-92(s0)
	andi	a4,a4,255
	lbu	a3,0(a5)
	andi	a3,a3,0
	or	a4,a3,a4
	sb	a4,0(a5)
	lw	a4,-92(s0)
	srli	a4,a4,8
	andi	a4,a4,255
	lbu	a3,1(a5)
	andi	a3,a3,0
	or	a4,a3,a4
	sb	a4,1(a5)
	lw	a4,-92(s0)
	srli	a4,a4,16
	andi	a4,a4,255
	lbu	a3,2(a5)
	andi	a3,a3,0
	or	a4,a3,a4
	sb	a4,2(a5)
	lw	a4,-92(s0)
	srli	a4,a4,24
	lbu	a3,3(a5)
	andi	a3,a3,0
	or	a4,a3,a4
	sb	a4,3(a5)
	.loc 2 205 1
	nop
.LBE89:
.LBE88:
	.loc 1 358 157 discriminator 2
	lw	a5,-136(s0)
	addi	a4,a5,12
	.loc 1 358 119 discriminator 2
	lw	a5,-132(s0)
	lw	a5,20(a5)
	sw	a4,-100(s0)
	sw	a5,-104(s0)
.LBB90:
.LBB91:
	.loc 2 200 33
	lw	a5,-100(s0)
	sw	a5,-108(s0)
	.loc 2 201 12
	lw	a5,-108(s0)
	lw	a4,-104(s0)
	andi	a4,a4,255
	lbu	a3,0(a5)
	andi	a3,a3,0
	or	a4,a3,a4
	sb	a4,0(a5)
	lw	a4,-104(s0)
	srli	a4,a4,8
	andi	a4,a4,255
	lbu	a3,1(a5)
	andi	a3,a3,0
	or	a4,a3,a4
	sb	a4,1(a5)
	lw	a4,-104(s0)
	srli	a4,a4,16
	andi	a4,a4,255
	lbu	a3,2(a5)
	andi	a3,a3,0
	or	a4,a3,a4
	sb	a4,2(a5)
	lw	a4,-104(s0)
	srli	a4,a4,24
	lbu	a3,3(a5)
	andi	a3,a3,0
	or	a4,a3,a4
	sb	a4,3(a5)
	.loc 2 205 1
	nop
.LBE91:
.LBE90:
	.loc 1 359 157 discriminator 2
	lw	a5,-136(s0)
	addi	a4,a5,16
	.loc 1 359 119 discriminator 2
	lw	a5,-132(s0)
	lw	a5,24(a5)
	sw	a4,-112(s0)
	sw	a5,-116(s0)
.LBB92:
.LBB93:
	.loc 2 200 33
	lw	a5,-112(s0)
	sw	a5,-120(s0)
	.loc 2 201 12
	lw	a5,-120(s0)
	lw	a4,-116(s0)
	andi	a4,a4,255
	lbu	a3,0(a5)
	andi	a3,a3,0
	or	a4,a3,a4
	sb	a4,0(a5)
	lw	a4,-116(s0)
	srli	a4,a4,8
	andi	a4,a4,255
	lbu	a3,1(a5)
	andi	a3,a3,0
	or	a4,a3,a4
	sb	a4,1(a5)
	lw	a4,-116(s0)
	srli	a4,a4,16
	andi	a4,a4,255
	lbu	a3,2(a5)
	andi	a3,a3,0
	or	a4,a3,a4
	sb	a4,2(a5)
	lw	a4,-116(s0)
	srli	a4,a4,24
	lbu	a3,3(a5)
	andi	a3,a3,0
	or	a4,a3,a4
	sb	a4,3(a5)
	.loc 2 205 1
	nop
.LBE93:
.LBE92:
	.loc 1 361 9
	sw	zero,-20(s0)
	j	.L41
.L44:
	.loc 1 347 9
	nop
	j	.L41
.L45:
	.loc 1 352 9
	nop
.L41:
	.loc 1 364 5
	lw	a0,-132(s0)
	call	mbedtls_ripemd160_free
	.loc 1 365 12
	lw	a5,-20(s0)
	.loc 1 366 1
	mv	a0,a5
	lw	ra,140(sp)
	.cfi_restore 1
	lw	s0,136(sp)
	.cfi_restore 8
	.cfi_def_cfa 2, 144
	addi	sp,sp,144
	.cfi_def_cfa_offset 0
	jr	ra
	.cfi_endproc
.LFE21:
	.size	mbedtls_ripemd160_finish, .-mbedtls_ripemd160_finish
	.section	.text.mbedtls_ripemd160,"ax",@progbits
	.align	1
	.globl	mbedtls_ripemd160
	.type	mbedtls_ripemd160, @function
mbedtls_ripemd160:
.LFB22:
	.loc 1 376 1
	.cfi_startproc
	addi	sp,sp,-128
	.cfi_def_cfa_offset 128
	sw	ra,124(sp)
	sw	s0,120(sp)
	.cfi_offset 1, -4
	.cfi_offset 8, -8
	addi	s0,sp,128
	.cfi_def_cfa 8, 0
	sw	a0,-116(s0)
	sw	a1,-120(s0)
	sw	a2,-124(s0)
	.loc 1 377 9
	li	a5,-110
	sw	a5,-20(s0)
	.loc 1 380 5
	addi	a5,s0,-112
	mv	a0,a5
	call	mbedtls_ripemd160_init
	.loc 1 382 16
	addi	a5,s0,-112
	mv	a0,a5
	call	mbedtls_ripemd160_starts
	sw	a0,-20(s0)
	.loc 1 382 8 discriminator 1
	lw	a5,-20(s0)
	bne	a5,zero,.L51
	.loc 1 386 16
	addi	a5,s0,-112
	lw	a2,-120(s0)
	lw	a1,-116(s0)
	mv	a0,a5
	call	mbedtls_ripemd160_update
	sw	a0,-20(s0)
	.loc 1 386 8 discriminator 1
	lw	a5,-20(s0)
	bne	a5,zero,.L52
	.loc 1 390 16
	addi	a5,s0,-112
	lw	a1,-124(s0)
	mv	a0,a5
	call	mbedtls_ripemd160_finish
	sw	a0,-20(s0)
	.loc 1 394 1
	j	.L48
.L51:
	.loc 1 383 9
	nop
	j	.L48
.L52:
	.loc 1 387 9
	nop
.L48:
	.loc 1 395 5
	addi	a5,s0,-112
	mv	a0,a5
	call	mbedtls_ripemd160_free
	.loc 1 397 12
	lw	a5,-20(s0)
	.loc 1 398 1
	mv	a0,a5
	lw	ra,124(sp)
	.cfi_restore 1
	lw	s0,120(sp)
	.cfi_restore 8
	.cfi_def_cfa 2, 128
	addi	sp,sp,128
	.cfi_def_cfa_offset 0
	jr	ra
	.cfi_endproc
.LFE22:
	.size	mbedtls_ripemd160, .-mbedtls_ripemd160
	.section	.rodata.ripemd160_test_str,"a"
	.align	2
	.type	ripemd160_test_str, @object
	.size	ripemd160_test_str, 648
ripemd160_test_str:
	.string	""
	.zero	80
	.string	"a"
	.zero	79
	.string	"abc"
	.zero	77
	.string	"message digest"
	.zero	66
	.string	"abcdefghijklmnopqrstuvwxyz"
	.zero	54
	.string	"abcdbcdecdefdefgefghfghighijhijkijkljklmklmnlmnomnopnopq"
	.zero	24
	.string	"ABCDEFGHIJKLMNOPQRSTUVWXYZabcdefghijklmnopqrstuvwxyz0123456789"
	.zero	18
	.string	"12345678901234567890123456789012345678901234567890123456789012345678901234567890"
	.section	.rodata.ripemd160_test_strlen,"a"
	.align	2
	.type	ripemd160_test_strlen, @object
	.size	ripemd160_test_strlen, 32
ripemd160_test_strlen:
	.word	0
	.word	1
	.word	3
	.word	14
	.word	26
	.word	56
	.word	62
	.word	80
	.section	.rodata.ripemd160_test_md,"a"
	.align	2
	.type	ripemd160_test_md, @object
	.size	ripemd160_test_md, 160
ripemd160_test_md:
	.base64	"nBGFpcXp/FRhKAiXfuj1SLIljTE="
	.base64	"C9ydLSVrPunarjR75vTcg1pGf/4="
	.base64	"jrII9+BdmHqbBEqOmMawh/FaC/w="
	.base64	"XQaJ70nS+uVyuIGxI6hf+iFZXzY="
	.base64	"9xwnEJxpLBtWu9zrW50oZbNwjbw="
	.base64	"EqBTOEqcDIjkBaBsJ9z0mtpi6ys="
	.base64	"sOILbjEWZAKG7TqHpXEwebIfUYk="
	.base64	"m3UuRVc9Szn029MyPKuCv2Mya/s="
	.section	.rodata
	.align	2
.LC0:
	.string	"  RIPEMD-160 test #%d: "
	.align	2
.LC1:
	.string	"passed\n"
	.align	2
.LC2:
	.string	"\n"
	.align	2
.LC3:
	.string	"failed\n"
	.section	.text.mbedtls_ripemd160_self_test,"ax",@progbits
	.align	1
	.globl	mbedtls_ripemd160_self_test
	.type	mbedtls_ripemd160_self_test, @function
mbedtls_ripemd160_self_test:
.LFB23:
	.loc 1 447 1
	.cfi_startproc
	addi	sp,sp,-64
	.cfi_def_cfa_offset 64
	sw	ra,60(sp)
	sw	s0,56(sp)
	.cfi_offset 1, -4
	.cfi_offset 8, -8
	addi	s0,sp,64
	.cfi_def_cfa 8, 0
	sw	a0,-52(s0)
	.loc 1 448 12
	sw	zero,-24(s0)
	.loc 1 451 5
	addi	a5,s0,-44
	li	a2,20
	li	a1,0
	mv	a0,a5
	call	memset
	.loc 1 453 12
	sw	zero,-20(s0)
	.loc 1 453 5
	j	.L54
.L60:
	.loc 1 454 12
	lw	a5,-52(s0)
	beq	a5,zero,.L55
	.loc 1 455 13
	lw	a5,-20(s0)
	addi	a5,a5,1
	mv	a1,a5
	lui	a5,%hi(.LC0)
	addi	a0,a5,%lo(.LC0)
	call	printf
.L55:
	.loc 1 458 51
	lw	a4,-20(s0)
	mv	a5,a4
	slli	a5,a5,2
	add	a5,a5,a4
	slli	a5,a5,4
	add	a5,a5,a4
	lui	a4,%hi(ripemd160_test_str)
	addi	a4,a4,%lo(ripemd160_test_str)
	add	a3,a5,a4
	.loc 1 459 54
	lui	a5,%hi(ripemd160_test_strlen)
	addi	a4,a5,%lo(ripemd160_test_strlen)
	lw	a5,-20(s0)
	slli	a5,a5,2
	add	a5,a4,a5
	lw	a5,0(a5)
	.loc 1 458 15
	addi	a4,s0,-44
	mv	a2,a4
	mv	a1,a5
	mv	a0,a3
	call	mbedtls_ripemd160
	sw	a0,-24(s0)
	.loc 1 460 12
	lw	a5,-24(s0)
	bne	a5,zero,.L65
	.loc 1 464 45
	lw	a4,-20(s0)
	mv	a5,a4
	slli	a5,a5,2
	add	a5,a5,a4
	slli	a5,a5,2
	lui	a4,%hi(ripemd160_test_md)
	addi	a4,a4,%lo(ripemd160_test_md)
	add	a4,a5,a4
	.loc 1 464 13
	addi	a5,s0,-44
	li	a2,20
	mv	a1,a4
	mv	a0,a5
	call	memcmp
	mv	a5,a0
	.loc 1 464 12 discriminator 1
	beq	a5,zero,.L58
	.loc 1 465 17
	li	a5,1
	sw	a5,-24(s0)
	.loc 1 466 13
	j	.L57
.L58:
	.loc 1 469 12
	lw	a5,-52(s0)
	beq	a5,zero,.L59
	.loc 1 470 13
	lui	a5,%hi(.LC1)
	addi	a0,a5,%lo(.LC1)
	call	printf
.L59:
	.loc 1 453 25 discriminator 2
	lw	a5,-20(s0)
	addi	a5,a5,1
	sw	a5,-20(s0)
.L54:
	.loc 1 453 19 discriminator 1
	lw	a4,-20(s0)
	li	a5,7
	ble	a4,a5,.L60
	.loc 1 474 8
	lw	a5,-52(s0)
	beq	a5,zero,.L61
	.loc 1 475 9
	lui	a5,%hi(.LC2)
	addi	a0,a5,%lo(.LC2)
	call	printf
.L61:
	.loc 1 478 12
	li	a5,0
	j	.L64
.L65:
	.loc 1 461 13
	nop
.L57:
	.loc 1 481 8
	lw	a5,-52(s0)
	beq	a5,zero,.L63
	.loc 1 482 9
	lui	a5,%hi(.LC3)
	addi	a0,a5,%lo(.LC3)
	call	printf
.L63:
	.loc 1 485 12
	lw	a5,-24(s0)
.L64:
	.loc 1 486 1
	mv	a0,a5
	lw	ra,60(sp)
	.cfi_restore 1
	lw	s0,56(sp)
	.cfi_restore 8
	.cfi_def_cfa 2, 64
	addi	sp,sp,64
	.cfi_def_cfa_offset 0
	jr	ra
	.cfi_endproc
.LFE23:
	.size	mbedtls_ripemd160_self_test, .-mbedtls_ripemd160_self_test
	.text
.Letext0:
	.file 3 "/home/chandu/sdk/bl602_iot_sdk/toolchain/compiler/lib/gcc/riscv32-unknown-elf/15.1.0/include/stddef.h"
	.file 4 "/home/chandu/sdk/bl602_iot_sdk/toolchain/compiler/lib/gcc/riscv32-unknown-elf/15.1.0/include/stdint-gcc.h"
	.file 5 "/home/chandu/sdk/bl602_iot_sdk/components/security/mbedtls-bl602/include/mbedtls/ripemd160.h"
	.file 6 "/home/chandu/sdk/bl602_iot_sdk/toolchain/compiler/riscv32-unknown-elf/include/string.h"
	.file 7 "/home/chandu/sdk/bl602_iot_sdk/toolchain/compiler/riscv32-unknown-elf/include/stdio.h"
	.file 8 "/home/chandu/sdk/bl602_iot_sdk/components/security/mbedtls-bl602/include/mbedtls/platform_util.h"
	.section	.note.GNU-stack,"",@progbits
