	.file	"sha1.c"
	.option nopic
	.attribute arch, "rv32i2p1_m2p0_f2p2_c2p0_zicsr2p0_zmmul1p0_zca1p0_zcf1p0"
	.attribute unaligned_access, 0
	.attribute stack_align, 16
	.text
.Ltext0:
	.cfi_sections	.debug_frame
	.file 0 "/home/chandu/sdk/bl602_iot_sdk/customer_app/suas_app_pqkem_gateway/build_out/mbedtls-bl602" "/home/chandu/sdk/bl602_iot_sdk/components/security/mbedtls-bl602/library/sha1.c"
	.section	.text.mbedtls_sha1_init,"ax",@progbits
	.align	1
	.globl	mbedtls_sha1_init
	.type	mbedtls_sha1_init, @function
mbedtls_sha1_init:
.LFB15:
	.file 1 "/home/chandu/sdk/bl602_iot_sdk/components/security/mbedtls-bl602/library/sha1.c"
	.loc 1 28 1
	.cfi_startproc
	addi	sp,sp,-32
	.cfi_def_cfa_offset 32
	sw	ra,28(sp)
	sw	s0,24(sp)
	.cfi_offset 1, -4
	.cfi_offset 8, -8
	addi	s0,sp,32
	.cfi_def_cfa 8, 0
	sw	a0,-20(s0)
	.loc 1 29 5
	li	a2,92
	li	a1,0
	lw	a0,-20(s0)
	call	memset
	.loc 1 30 1
	nop
	lw	ra,28(sp)
	.cfi_restore 1
	lw	s0,24(sp)
	.cfi_restore 8
	.cfi_def_cfa 2, 32
	addi	sp,sp,32
	.cfi_def_cfa_offset 0
	jr	ra
	.cfi_endproc
.LFE15:
	.size	mbedtls_sha1_init, .-mbedtls_sha1_init
	.section	.text.mbedtls_sha1_free,"ax",@progbits
	.align	1
	.globl	mbedtls_sha1_free
	.type	mbedtls_sha1_free, @function
mbedtls_sha1_free:
.LFB16:
	.loc 1 33 1
	.cfi_startproc
	addi	sp,sp,-32
	.cfi_def_cfa_offset 32
	sw	ra,28(sp)
	sw	s0,24(sp)
	.cfi_offset 1, -4
	.cfi_offset 8, -8
	addi	s0,sp,32
	.cfi_def_cfa 8, 0
	sw	a0,-20(s0)
	.loc 1 34 8
	lw	a5,-20(s0)
	beq	a5,zero,.L5
	.loc 1 38 5
	li	a1,92
	lw	a0,-20(s0)
	call	mbedtls_platform_zeroize
	j	.L2
.L5:
	.loc 1 35 9
	nop
.L2:
	.loc 1 39 1
	lw	ra,28(sp)
	.cfi_restore 1
	lw	s0,24(sp)
	.cfi_restore 8
	.cfi_def_cfa 2, 32
	addi	sp,sp,32
	.cfi_def_cfa_offset 0
	jr	ra
	.cfi_endproc
.LFE16:
	.size	mbedtls_sha1_free, .-mbedtls_sha1_free
	.section	.text.mbedtls_sha1_clone,"ax",@progbits
	.align	1
	.globl	mbedtls_sha1_clone
	.type	mbedtls_sha1_clone, @function
mbedtls_sha1_clone:
.LFB17:
	.loc 1 43 1
	.cfi_startproc
	addi	sp,sp,-32
	.cfi_def_cfa_offset 32
	sw	ra,28(sp)
	sw	s0,24(sp)
	.cfi_offset 1, -4
	.cfi_offset 8, -8
	addi	s0,sp,32
	.cfi_def_cfa 8, 0
	sw	a0,-20(s0)
	sw	a1,-24(s0)
	.loc 1 44 10
	lw	a4,-20(s0)
	lw	a5,-24(s0)
	mv	a3,a5
	li	a5,92
	mv	a2,a5
	mv	a1,a3
	mv	a0,a4
	call	memcpy
	.loc 1 45 1
	nop
	lw	ra,28(sp)
	.cfi_restore 1
	lw	s0,24(sp)
	.cfi_restore 8
	.cfi_def_cfa 2, 32
	addi	sp,sp,32
	.cfi_def_cfa_offset 0
	jr	ra
	.cfi_endproc
.LFE17:
	.size	mbedtls_sha1_clone, .-mbedtls_sha1_clone
	.section	.text.mbedtls_sha1_starts,"ax",@progbits
	.align	1
	.globl	mbedtls_sha1_starts
	.type	mbedtls_sha1_starts, @function
mbedtls_sha1_starts:
.LFB18:
	.loc 1 51 1
	.cfi_startproc
	addi	sp,sp,-32
	.cfi_def_cfa_offset 32
	sw	ra,28(sp)
	sw	s0,24(sp)
	.cfi_offset 1, -4
	.cfi_offset 8, -8
	addi	s0,sp,32
	.cfi_def_cfa 8, 0
	sw	a0,-20(s0)
	.loc 1 52 19
	lw	a5,-20(s0)
	sw	zero,0(a5)
	.loc 1 53 19
	lw	a5,-20(s0)
	sw	zero,4(a5)
	.loc 1 55 19
	lw	a5,-20(s0)
	li	a4,1732583424
	addi	a4,a4,769
	sw	a4,8(a5)
	.loc 1 56 19
	lw	a5,-20(s0)
	li	a4,-271732736
	addi	a4,a4,-1143
	sw	a4,12(a5)
	.loc 1 57 19
	lw	a5,-20(s0)
	li	a4,-1732583424
	addi	a4,a4,-770
	sw	a4,16(a5)
	.loc 1 58 19
	lw	a5,-20(s0)
	li	a4,271732736
	addi	a4,a4,1142
	sw	a4,20(a5)
	.loc 1 59 19
	lw	a5,-20(s0)
	li	a4,-1009590272
	addi	a4,a4,496
	sw	a4,24(a5)
	.loc 1 61 12
	li	a5,0
	.loc 1 62 1
	mv	a0,a5
	lw	ra,28(sp)
	.cfi_restore 1
	lw	s0,24(sp)
	.cfi_restore 8
	.cfi_def_cfa 2, 32
	addi	sp,sp,32
	.cfi_def_cfa_offset 0
	jr	ra
	.cfi_endproc
.LFE18:
	.size	mbedtls_sha1_starts, .-mbedtls_sha1_starts
	.section	.text.mbedtls_internal_sha1_process,"ax",@progbits
	.align	1
	.globl	mbedtls_internal_sha1_process
	.type	mbedtls_internal_sha1_process, @function
mbedtls_internal_sha1_process:
.LFB19:
	.loc 1 67 1
	.cfi_startproc
	addi	sp,sp,-320
	.cfi_def_cfa_offset 320
	sw	ra,316(sp)
	sw	s0,312(sp)
	.cfi_offset 1, -4
	.cfi_offset 8, -8
	addi	s0,sp,320
	.cfi_def_cfa 8, 0
	sw	a0,-308(s0)
	sw	a1,-312(s0)
	lw	a5,-312(s0)
	sw	a5,-200(s0)
.LBB48:
.LBB49:
	.file 2 "/home/chandu/sdk/bl602_iot_sdk/components/security/mbedtls-bl602/library/alignment.h"
	.loc 2 174 33
	lw	a5,-200(s0)
	sw	a5,-204(s0)
	.loc 2 175 7
	lw	a5,-204(s0)
	lbu	a4,0(a5)
	lbu	a3,1(a5)
	slli	a3,a3,8
	or	a4,a3,a4
	lbu	a3,2(a5)
	slli	a3,a3,16
	or	a4,a3,a4
	lbu	a5,3(a5)
	slli	a5,a5,24
	or	a5,a5,a4
	sw	a5,-208(s0)
	.loc 2 179 12
	lw	a5,-208(s0)
.LBE49:
.LBE48:
	.loc 1 72 68 discriminator 1
	mv	a0,a5
	call	__bswapsi2
	mv	a5,a0
	.loc 1 72 16 discriminator 2
	sw	a5,-292(s0)
	.loc 1 73 124
	lw	a5,-312(s0)
	addi	a5,a5,4
	sw	a5,-188(s0)
.LBB50:
.LBB51:
	.loc 2 174 33
	lw	a5,-188(s0)
	sw	a5,-192(s0)
	.loc 2 175 7
	lw	a5,-192(s0)
	lbu	a4,0(a5)
	lbu	a3,1(a5)
	slli	a3,a3,8
	or	a4,a3,a4
	lbu	a3,2(a5)
	slli	a3,a3,16
	or	a4,a3,a4
	lbu	a5,3(a5)
	slli	a5,a5,24
	or	a5,a5,a4
	sw	a5,-196(s0)
	.loc 2 179 12
	lw	a5,-196(s0)
.LBE51:
.LBE50:
	.loc 1 73 68 discriminator 1
	mv	a0,a5
	call	__bswapsi2
	mv	a5,a0
	.loc 1 73 16 discriminator 2
	sw	a5,-288(s0)
	.loc 1 74 124
	lw	a5,-312(s0)
	addi	a5,a5,8
	sw	a5,-176(s0)
.LBB52:
.LBB53:
	.loc 2 174 33
	lw	a5,-176(s0)
	sw	a5,-180(s0)
	.loc 2 175 7
	lw	a5,-180(s0)
	lbu	a4,0(a5)
	lbu	a3,1(a5)
	slli	a3,a3,8
	or	a4,a3,a4
	lbu	a3,2(a5)
	slli	a3,a3,16
	or	a4,a3,a4
	lbu	a5,3(a5)
	slli	a5,a5,24
	or	a5,a5,a4
	sw	a5,-184(s0)
	.loc 2 179 12
	lw	a5,-184(s0)
.LBE53:
.LBE52:
	.loc 1 74 68 discriminator 1
	mv	a0,a5
	call	__bswapsi2
	mv	a5,a0
	.loc 1 74 16 discriminator 2
	sw	a5,-284(s0)
	.loc 1 75 125
	lw	a5,-312(s0)
	addi	a5,a5,12
	sw	a5,-164(s0)
.LBB54:
.LBB55:
	.loc 2 174 33
	lw	a5,-164(s0)
	sw	a5,-168(s0)
	.loc 2 175 7
	lw	a5,-168(s0)
	lbu	a4,0(a5)
	lbu	a3,1(a5)
	slli	a3,a3,8
	or	a4,a3,a4
	lbu	a3,2(a5)
	slli	a3,a3,16
	or	a4,a3,a4
	lbu	a5,3(a5)
	slli	a5,a5,24
	or	a5,a5,a4
	sw	a5,-172(s0)
	.loc 2 179 12
	lw	a5,-172(s0)
.LBE55:
.LBE54:
	.loc 1 75 69 discriminator 1
	mv	a0,a5
	call	__bswapsi2
	mv	a5,a0
	.loc 1 75 16 discriminator 2
	sw	a5,-280(s0)
	.loc 1 76 125
	lw	a5,-312(s0)
	addi	a5,a5,16
	sw	a5,-152(s0)
.LBB56:
.LBB57:
	.loc 2 174 33
	lw	a5,-152(s0)
	sw	a5,-156(s0)
	.loc 2 175 7
	lw	a5,-156(s0)
	lbu	a4,0(a5)
	lbu	a3,1(a5)
	slli	a3,a3,8
	or	a4,a3,a4
	lbu	a3,2(a5)
	slli	a3,a3,16
	or	a4,a3,a4
	lbu	a5,3(a5)
	slli	a5,a5,24
	or	a5,a5,a4
	sw	a5,-160(s0)
	.loc 2 179 12
	lw	a5,-160(s0)
.LBE57:
.LBE56:
	.loc 1 76 69 discriminator 1
	mv	a0,a5
	call	__bswapsi2
	mv	a5,a0
	.loc 1 76 16 discriminator 2
	sw	a5,-276(s0)
	.loc 1 77 125
	lw	a5,-312(s0)
	addi	a5,a5,20
	sw	a5,-140(s0)
.LBB58:
.LBB59:
	.loc 2 174 33
	lw	a5,-140(s0)
	sw	a5,-144(s0)
	.loc 2 175 7
	lw	a5,-144(s0)
	lbu	a4,0(a5)
	lbu	a3,1(a5)
	slli	a3,a3,8
	or	a4,a3,a4
	lbu	a3,2(a5)
	slli	a3,a3,16
	or	a4,a3,a4
	lbu	a5,3(a5)
	slli	a5,a5,24
	or	a5,a5,a4
	sw	a5,-148(s0)
	.loc 2 179 12
	lw	a5,-148(s0)
.LBE59:
.LBE58:
	.loc 1 77 69 discriminator 1
	mv	a0,a5
	call	__bswapsi2
	mv	a5,a0
	.loc 1 77 16 discriminator 2
	sw	a5,-272(s0)
	.loc 1 78 125
	lw	a5,-312(s0)
	addi	a5,a5,24
	sw	a5,-128(s0)
.LBB60:
.LBB61:
	.loc 2 174 33
	lw	a5,-128(s0)
	sw	a5,-132(s0)
	.loc 2 175 7
	lw	a5,-132(s0)
	lbu	a4,0(a5)
	lbu	a3,1(a5)
	slli	a3,a3,8
	or	a4,a3,a4
	lbu	a3,2(a5)
	slli	a3,a3,16
	or	a4,a3,a4
	lbu	a5,3(a5)
	slli	a5,a5,24
	or	a5,a5,a4
	sw	a5,-136(s0)
	.loc 2 179 12
	lw	a5,-136(s0)
.LBE61:
.LBE60:
	.loc 1 78 69 discriminator 1
	mv	a0,a5
	call	__bswapsi2
	mv	a5,a0
	.loc 1 78 16 discriminator 2
	sw	a5,-268(s0)
	.loc 1 79 125
	lw	a5,-312(s0)
	addi	a5,a5,28
	sw	a5,-116(s0)
.LBB62:
.LBB63:
	.loc 2 174 33
	lw	a5,-116(s0)
	sw	a5,-120(s0)
	.loc 2 175 7
	lw	a5,-120(s0)
	lbu	a4,0(a5)
	lbu	a3,1(a5)
	slli	a3,a3,8
	or	a4,a3,a4
	lbu	a3,2(a5)
	slli	a3,a3,16
	or	a4,a3,a4
	lbu	a5,3(a5)
	slli	a5,a5,24
	or	a5,a5,a4
	sw	a5,-124(s0)
	.loc 2 179 12
	lw	a5,-124(s0)
.LBE63:
.LBE62:
	.loc 1 79 69 discriminator 1
	mv	a0,a5
	call	__bswapsi2
	mv	a5,a0
	.loc 1 79 16 discriminator 2
	sw	a5,-264(s0)
	.loc 1 80 125
	lw	a5,-312(s0)
	addi	a5,a5,32
	sw	a5,-104(s0)
.LBB64:
.LBB65:
	.loc 2 174 33
	lw	a5,-104(s0)
	sw	a5,-108(s0)
	.loc 2 175 7
	lw	a5,-108(s0)
	lbu	a4,0(a5)
	lbu	a3,1(a5)
	slli	a3,a3,8
	or	a4,a3,a4
	lbu	a3,2(a5)
	slli	a3,a3,16
	or	a4,a3,a4
	lbu	a5,3(a5)
	slli	a5,a5,24
	or	a5,a5,a4
	sw	a5,-112(s0)
	.loc 2 179 12
	lw	a5,-112(s0)
.LBE65:
.LBE64:
	.loc 1 80 69 discriminator 1
	mv	a0,a5
	call	__bswapsi2
	mv	a5,a0
	.loc 1 80 16 discriminator 2
	sw	a5,-260(s0)
	.loc 1 81 125
	lw	a5,-312(s0)
	addi	a5,a5,36
	sw	a5,-92(s0)
.LBB66:
.LBB67:
	.loc 2 174 33
	lw	a5,-92(s0)
	sw	a5,-96(s0)
	.loc 2 175 7
	lw	a5,-96(s0)
	lbu	a4,0(a5)
	lbu	a3,1(a5)
	slli	a3,a3,8
	or	a4,a3,a4
	lbu	a3,2(a5)
	slli	a3,a3,16
	or	a4,a3,a4
	lbu	a5,3(a5)
	slli	a5,a5,24
	or	a5,a5,a4
	sw	a5,-100(s0)
	.loc 2 179 12
	lw	a5,-100(s0)
.LBE67:
.LBE66:
	.loc 1 81 69 discriminator 1
	mv	a0,a5
	call	__bswapsi2
	mv	a5,a0
	.loc 1 81 16 discriminator 2
	sw	a5,-256(s0)
	.loc 1 82 126
	lw	a5,-312(s0)
	addi	a5,a5,40
	sw	a5,-80(s0)
.LBB68:
.LBB69:
	.loc 2 174 33
	lw	a5,-80(s0)
	sw	a5,-84(s0)
	.loc 2 175 7
	lw	a5,-84(s0)
	lbu	a4,0(a5)
	lbu	a3,1(a5)
	slli	a3,a3,8
	or	a4,a3,a4
	lbu	a3,2(a5)
	slli	a3,a3,16
	or	a4,a3,a4
	lbu	a5,3(a5)
	slli	a5,a5,24
	or	a5,a5,a4
	sw	a5,-88(s0)
	.loc 2 179 12
	lw	a5,-88(s0)
.LBE69:
.LBE68:
	.loc 1 82 70 discriminator 1
	mv	a0,a5
	call	__bswapsi2
	mv	a5,a0
	.loc 1 82 17 discriminator 2
	sw	a5,-252(s0)
	.loc 1 83 126
	lw	a5,-312(s0)
	addi	a5,a5,44
	sw	a5,-68(s0)
.LBB70:
.LBB71:
	.loc 2 174 33
	lw	a5,-68(s0)
	sw	a5,-72(s0)
	.loc 2 175 7
	lw	a5,-72(s0)
	lbu	a4,0(a5)
	lbu	a3,1(a5)
	slli	a3,a3,8
	or	a4,a3,a4
	lbu	a3,2(a5)
	slli	a3,a3,16
	or	a4,a3,a4
	lbu	a5,3(a5)
	slli	a5,a5,24
	or	a5,a5,a4
	sw	a5,-76(s0)
	.loc 2 179 12
	lw	a5,-76(s0)
.LBE71:
.LBE70:
	.loc 1 83 70 discriminator 1
	mv	a0,a5
	call	__bswapsi2
	mv	a5,a0
	.loc 1 83 17 discriminator 2
	sw	a5,-248(s0)
	.loc 1 84 126
	lw	a5,-312(s0)
	addi	a5,a5,48
	sw	a5,-56(s0)
.LBB72:
.LBB73:
	.loc 2 174 33
	lw	a5,-56(s0)
	sw	a5,-60(s0)
	.loc 2 175 7
	lw	a5,-60(s0)
	lbu	a4,0(a5)
	lbu	a3,1(a5)
	slli	a3,a3,8
	or	a4,a3,a4
	lbu	a3,2(a5)
	slli	a3,a3,16
	or	a4,a3,a4
	lbu	a5,3(a5)
	slli	a5,a5,24
	or	a5,a5,a4
	sw	a5,-64(s0)
	.loc 2 179 12
	lw	a5,-64(s0)
.LBE73:
.LBE72:
	.loc 1 84 70 discriminator 1
	mv	a0,a5
	call	__bswapsi2
	mv	a5,a0
	.loc 1 84 17 discriminator 2
	sw	a5,-244(s0)
	.loc 1 85 126
	lw	a5,-312(s0)
	addi	a5,a5,52
	sw	a5,-44(s0)
.LBB74:
.LBB75:
	.loc 2 174 33
	lw	a5,-44(s0)
	sw	a5,-48(s0)
	.loc 2 175 7
	lw	a5,-48(s0)
	lbu	a4,0(a5)
	lbu	a3,1(a5)
	slli	a3,a3,8
	or	a4,a3,a4
	lbu	a3,2(a5)
	slli	a3,a3,16
	or	a4,a3,a4
	lbu	a5,3(a5)
	slli	a5,a5,24
	or	a5,a5,a4
	sw	a5,-52(s0)
	.loc 2 179 12
	lw	a5,-52(s0)
.LBE75:
.LBE74:
	.loc 1 85 70 discriminator 1
	mv	a0,a5
	call	__bswapsi2
	mv	a5,a0
	.loc 1 85 17 discriminator 2
	sw	a5,-240(s0)
	.loc 1 86 126
	lw	a5,-312(s0)
	addi	a5,a5,56
	sw	a5,-32(s0)
.LBB76:
.LBB77:
	.loc 2 174 33
	lw	a5,-32(s0)
	sw	a5,-36(s0)
	.loc 2 175 7
	lw	a5,-36(s0)
	lbu	a4,0(a5)
	lbu	a3,1(a5)
	slli	a3,a3,8
	or	a4,a3,a4
	lbu	a3,2(a5)
	slli	a3,a3,16
	or	a4,a3,a4
	lbu	a5,3(a5)
	slli	a5,a5,24
	or	a5,a5,a4
	sw	a5,-40(s0)
	.loc 2 179 12
	lw	a5,-40(s0)
.LBE77:
.LBE76:
	.loc 1 86 70 discriminator 1
	mv	a0,a5
	call	__bswapsi2
	mv	a5,a0
	.loc 1 86 17 discriminator 2
	sw	a5,-236(s0)
	.loc 1 87 126
	lw	a5,-312(s0)
	addi	a5,a5,60
	sw	a5,-20(s0)
.LBB78:
.LBB79:
	.loc 2 174 33
	lw	a5,-20(s0)
	sw	a5,-24(s0)
	.loc 2 175 7
	lw	a5,-24(s0)
	lbu	a4,0(a5)
	lbu	a3,1(a5)
	slli	a3,a3,8
	or	a4,a3,a4
	lbu	a3,2(a5)
	slli	a3,a3,16
	or	a4,a3,a4
	lbu	a5,3(a5)
	slli	a5,a5,24
	or	a5,a5,a4
	sw	a5,-28(s0)
	.loc 2 179 12
	lw	a5,-28(s0)
.LBE79:
.LBE78:
	.loc 1 87 70 discriminator 1
	mv	a0,a5
	call	__bswapsi2
	mv	a5,a0
	.loc 1 87 17 discriminator 2
	sw	a5,-232(s0)
	.loc 1 107 25
	lw	a5,-308(s0)
	lw	a5,8(a5)
	.loc 1 107 13
	sw	a5,-228(s0)
	.loc 1 108 25
	lw	a5,-308(s0)
	lw	a5,12(a5)
	.loc 1 108 13
	sw	a5,-224(s0)
	.loc 1 109 25
	lw	a5,-308(s0)
	lw	a5,16(a5)
	.loc 1 109 13
	sw	a5,-220(s0)
	.loc 1 110 25
	lw	a5,-308(s0)
	lw	a5,20(a5)
	.loc 1 110 13
	sw	a5,-216(s0)
	.loc 1 111 25
	lw	a5,-308(s0)
	lw	a5,24(a5)
	.loc 1 111 13
	sw	a5,-212(s0)
	.loc 1 116 16
	lw	a4,-212(s0)
	.loc 1 116 32
	lw	a5,-228(s0)
	.loc 1 116 45
	srli	a3,a5,27
	slli	a5,a5,5
	add	a5,a5,a3
	.loc 1 116 101
	lw	a2,-216(s0)
	.loc 1 116 116
	lw	a1,-224(s0)
	.loc 1 116 131
	lw	a0,-220(s0)
	.loc 1 116 145
	lw	a3,-216(s0)
	.loc 1 116 136
	xor	a3,a0,a3
	.loc 1 116 121
	and	a3,a1,a3
	.loc 1 116 106
	xor	a3,a2,a3
	.loc 1 116 91
	add	a3,a5,a3
	.loc 1 116 176
	lw	a5,-292(s0)
	.loc 1 116 166
	add	a5,a3,a5
	.loc 1 116 20
	add	a4,a4,a5
	li	a5,1518501888
	addi	a5,a5,-1639
	add	a5,a4,a5
	sw	a5,-212(s0)
	.loc 1 116 203
	lw	a5,-224(s0)
	.loc 1 116 217
	srli	a4,a5,2
	slli	a5,a5,30
	add	a5,a5,a4
	.loc 1 116 192
	sw	a5,-224(s0)
	.loc 1 117 16
	lw	a4,-216(s0)
	.loc 1 117 32
	lw	a5,-212(s0)
	.loc 1 117 45
	srli	a3,a5,27
	slli	a5,a5,5
	add	a5,a5,a3
	.loc 1 117 101
	lw	a2,-220(s0)
	.loc 1 117 116
	lw	a1,-228(s0)
	.loc 1 117 131
	lw	a0,-224(s0)
	.loc 1 117 145
	lw	a3,-220(s0)
	.loc 1 117 136
	xor	a3,a0,a3
	.loc 1 117 121
	and	a3,a1,a3
	.loc 1 117 106
	xor	a3,a2,a3
	.loc 1 117 91
	add	a3,a5,a3
	.loc 1 117 176
	lw	a5,-288(s0)
	.loc 1 117 166
	add	a5,a3,a5
	.loc 1 117 20
	add	a4,a4,a5
	li	a5,1518501888
	addi	a5,a5,-1639
	add	a5,a4,a5
	sw	a5,-216(s0)
	.loc 1 117 203
	lw	a5,-228(s0)
	.loc 1 117 217
	srli	a4,a5,2
	slli	a5,a5,30
	add	a5,a5,a4
	.loc 1 117 192
	sw	a5,-228(s0)
	.loc 1 118 16
	lw	a4,-220(s0)
	.loc 1 118 32
	lw	a5,-216(s0)
	.loc 1 118 45
	srli	a3,a5,27
	slli	a5,a5,5
	add	a5,a5,a3
	.loc 1 118 101
	lw	a2,-224(s0)
	.loc 1 118 116
	lw	a1,-212(s0)
	.loc 1 118 131
	lw	a0,-228(s0)
	.loc 1 118 145
	lw	a3,-224(s0)
	.loc 1 118 136
	xor	a3,a0,a3
	.loc 1 118 121
	and	a3,a1,a3
	.loc 1 118 106
	xor	a3,a2,a3
	.loc 1 118 91
	add	a3,a5,a3
	.loc 1 118 176
	lw	a5,-284(s0)
	.loc 1 118 166
	add	a5,a3,a5
	.loc 1 118 20
	add	a4,a4,a5
	li	a5,1518501888
	addi	a5,a5,-1639
	add	a5,a4,a5
	sw	a5,-220(s0)
	.loc 1 118 203
	lw	a5,-212(s0)
	.loc 1 118 217
	srli	a4,a5,2
	slli	a5,a5,30
	add	a5,a5,a4
	.loc 1 118 192
	sw	a5,-212(s0)
	.loc 1 119 16
	lw	a4,-224(s0)
	.loc 1 119 32
	lw	a5,-220(s0)
	.loc 1 119 45
	srli	a3,a5,27
	slli	a5,a5,5
	add	a5,a5,a3
	.loc 1 119 101
	lw	a2,-228(s0)
	.loc 1 119 116
	lw	a1,-216(s0)
	.loc 1 119 131
	lw	a0,-212(s0)
	.loc 1 119 145
	lw	a3,-228(s0)
	.loc 1 119 136
	xor	a3,a0,a3
	.loc 1 119 121
	and	a3,a1,a3
	.loc 1 119 106
	xor	a3,a2,a3
	.loc 1 119 91
	add	a3,a5,a3
	.loc 1 119 176
	lw	a5,-280(s0)
	.loc 1 119 166
	add	a5,a3,a5
	.loc 1 119 20
	add	a4,a4,a5
	li	a5,1518501888
	addi	a5,a5,-1639
	add	a5,a4,a5
	sw	a5,-224(s0)
	.loc 1 119 203
	lw	a5,-216(s0)
	.loc 1 119 217
	srli	a4,a5,2
	slli	a5,a5,30
	add	a5,a5,a4
	.loc 1 119 192
	sw	a5,-216(s0)
	.loc 1 120 16
	lw	a4,-228(s0)
	.loc 1 120 32
	lw	a5,-224(s0)
	.loc 1 120 45
	srli	a3,a5,27
	slli	a5,a5,5
	add	a5,a5,a3
	.loc 1 120 101
	lw	a2,-212(s0)
	.loc 1 120 116
	lw	a1,-220(s0)
	.loc 1 120 131
	lw	a0,-216(s0)
	.loc 1 120 145
	lw	a3,-212(s0)
	.loc 1 120 136
	xor	a3,a0,a3
	.loc 1 120 121
	and	a3,a1,a3
	.loc 1 120 106
	xor	a3,a2,a3
	.loc 1 120 91
	add	a3,a5,a3
	.loc 1 120 176
	lw	a5,-276(s0)
	.loc 1 120 166
	add	a5,a3,a5
	.loc 1 120 20
	add	a4,a4,a5
	li	a5,1518501888
	addi	a5,a5,-1639
	add	a5,a4,a5
	sw	a5,-228(s0)
	.loc 1 120 203
	lw	a5,-220(s0)
	.loc 1 120 217
	srli	a4,a5,2
	slli	a5,a5,30
	add	a5,a5,a4
	.loc 1 120 192
	sw	a5,-220(s0)
	.loc 1 121 16
	lw	a4,-212(s0)
	.loc 1 121 32
	lw	a5,-228(s0)
	.loc 1 121 45
	srli	a3,a5,27
	slli	a5,a5,5
	add	a5,a5,a3
	.loc 1 121 101
	lw	a2,-216(s0)
	.loc 1 121 116
	lw	a1,-224(s0)
	.loc 1 121 131
	lw	a0,-220(s0)
	.loc 1 121 145
	lw	a3,-216(s0)
	.loc 1 121 136
	xor	a3,a0,a3
	.loc 1 121 121
	and	a3,a1,a3
	.loc 1 121 106
	xor	a3,a2,a3
	.loc 1 121 91
	add	a3,a5,a3
	.loc 1 121 176
	lw	a5,-272(s0)
	.loc 1 121 166
	add	a5,a3,a5
	.loc 1 121 20
	add	a4,a4,a5
	li	a5,1518501888
	addi	a5,a5,-1639
	add	a5,a4,a5
	sw	a5,-212(s0)
	.loc 1 121 203
	lw	a5,-224(s0)
	.loc 1 121 217
	srli	a4,a5,2
	slli	a5,a5,30
	add	a5,a5,a4
	.loc 1 121 192
	sw	a5,-224(s0)
	.loc 1 122 16
	lw	a4,-216(s0)
	.loc 1 122 32
	lw	a5,-212(s0)
	.loc 1 122 45
	srli	a3,a5,27
	slli	a5,a5,5
	add	a5,a5,a3
	.loc 1 122 101
	lw	a2,-220(s0)
	.loc 1 122 116
	lw	a1,-228(s0)
	.loc 1 122 131
	lw	a0,-224(s0)
	.loc 1 122 145
	lw	a3,-220(s0)
	.loc 1 122 136
	xor	a3,a0,a3
	.loc 1 122 121
	and	a3,a1,a3
	.loc 1 122 106
	xor	a3,a2,a3
	.loc 1 122 91
	add	a3,a5,a3
	.loc 1 122 176
	lw	a5,-268(s0)
	.loc 1 122 166
	add	a5,a3,a5
	.loc 1 122 20
	add	a4,a4,a5
	li	a5,1518501888
	addi	a5,a5,-1639
	add	a5,a4,a5
	sw	a5,-216(s0)
	.loc 1 122 203
	lw	a5,-228(s0)
	.loc 1 122 217
	srli	a4,a5,2
	slli	a5,a5,30
	add	a5,a5,a4
	.loc 1 122 192
	sw	a5,-228(s0)
	.loc 1 123 16
	lw	a4,-220(s0)
	.loc 1 123 32
	lw	a5,-216(s0)
	.loc 1 123 45
	srli	a3,a5,27
	slli	a5,a5,5
	add	a5,a5,a3
	.loc 1 123 101
	lw	a2,-224(s0)
	.loc 1 123 116
	lw	a1,-212(s0)
	.loc 1 123 131
	lw	a0,-228(s0)
	.loc 1 123 145
	lw	a3,-224(s0)
	.loc 1 123 136
	xor	a3,a0,a3
	.loc 1 123 121
	and	a3,a1,a3
	.loc 1 123 106
	xor	a3,a2,a3
	.loc 1 123 91
	add	a3,a5,a3
	.loc 1 123 176
	lw	a5,-264(s0)
	.loc 1 123 166
	add	a5,a3,a5
	.loc 1 123 20
	add	a4,a4,a5
	li	a5,1518501888
	addi	a5,a5,-1639
	add	a5,a4,a5
	sw	a5,-220(s0)
	.loc 1 123 203
	lw	a5,-212(s0)
	.loc 1 123 217
	srli	a4,a5,2
	slli	a5,a5,30
	add	a5,a5,a4
	.loc 1 123 192
	sw	a5,-212(s0)
	.loc 1 124 16
	lw	a4,-224(s0)
	.loc 1 124 32
	lw	a5,-220(s0)
	.loc 1 124 45
	srli	a3,a5,27
	slli	a5,a5,5
	add	a5,a5,a3
	.loc 1 124 101
	lw	a2,-228(s0)
	.loc 1 124 116
	lw	a1,-216(s0)
	.loc 1 124 131
	lw	a0,-212(s0)
	.loc 1 124 145
	lw	a3,-228(s0)
	.loc 1 124 136
	xor	a3,a0,a3
	.loc 1 124 121
	and	a3,a1,a3
	.loc 1 124 106
	xor	a3,a2,a3
	.loc 1 124 91
	add	a3,a5,a3
	.loc 1 124 176
	lw	a5,-260(s0)
	.loc 1 124 166
	add	a5,a3,a5
	.loc 1 124 20
	add	a4,a4,a5
	li	a5,1518501888
	addi	a5,a5,-1639
	add	a5,a4,a5
	sw	a5,-224(s0)
	.loc 1 124 203
	lw	a5,-216(s0)
	.loc 1 124 217
	srli	a4,a5,2
	slli	a5,a5,30
	add	a5,a5,a4
	.loc 1 124 192
	sw	a5,-216(s0)
	.loc 1 125 16
	lw	a4,-228(s0)
	.loc 1 125 32
	lw	a5,-224(s0)
	.loc 1 125 45
	srli	a3,a5,27
	slli	a5,a5,5
	add	a5,a5,a3
	.loc 1 125 101
	lw	a2,-212(s0)
	.loc 1 125 116
	lw	a1,-220(s0)
	.loc 1 125 131
	lw	a0,-216(s0)
	.loc 1 125 145
	lw	a3,-212(s0)
	.loc 1 125 136
	xor	a3,a0,a3
	.loc 1 125 121
	and	a3,a1,a3
	.loc 1 125 106
	xor	a3,a2,a3
	.loc 1 125 91
	add	a3,a5,a3
	.loc 1 125 176
	lw	a5,-256(s0)
	.loc 1 125 166
	add	a5,a3,a5
	.loc 1 125 20
	add	a4,a4,a5
	li	a5,1518501888
	addi	a5,a5,-1639
	add	a5,a4,a5
	sw	a5,-228(s0)
	.loc 1 125 203
	lw	a5,-220(s0)
	.loc 1 125 217
	srli	a4,a5,2
	slli	a5,a5,30
	add	a5,a5,a4
	.loc 1 125 192
	sw	a5,-220(s0)
	.loc 1 126 16
	lw	a4,-212(s0)
	.loc 1 126 32
	lw	a5,-228(s0)
	.loc 1 126 45
	srli	a3,a5,27
	slli	a5,a5,5
	add	a5,a5,a3
	.loc 1 126 101
	lw	a2,-216(s0)
	.loc 1 126 116
	lw	a1,-224(s0)
	.loc 1 126 131
	lw	a0,-220(s0)
	.loc 1 126 145
	lw	a3,-216(s0)
	.loc 1 126 136
	xor	a3,a0,a3
	.loc 1 126 121
	and	a3,a1,a3
	.loc 1 126 106
	xor	a3,a2,a3
	.loc 1 126 91
	add	a3,a5,a3
	.loc 1 126 176
	lw	a5,-252(s0)
	.loc 1 126 166
	add	a5,a3,a5
	.loc 1 126 20
	add	a4,a4,a5
	li	a5,1518501888
	addi	a5,a5,-1639
	add	a5,a4,a5
	sw	a5,-212(s0)
	.loc 1 126 204
	lw	a5,-224(s0)
	.loc 1 126 218
	srli	a4,a5,2
	slli	a5,a5,30
	add	a5,a5,a4
	.loc 1 126 193
	sw	a5,-224(s0)
	.loc 1 127 16
	lw	a4,-216(s0)
	.loc 1 127 32
	lw	a5,-212(s0)
	.loc 1 127 45
	srli	a3,a5,27
	slli	a5,a5,5
	add	a5,a5,a3
	.loc 1 127 101
	lw	a2,-220(s0)
	.loc 1 127 116
	lw	a1,-228(s0)
	.loc 1 127 131
	lw	a0,-224(s0)
	.loc 1 127 145
	lw	a3,-220(s0)
	.loc 1 127 136
	xor	a3,a0,a3
	.loc 1 127 121
	and	a3,a1,a3
	.loc 1 127 106
	xor	a3,a2,a3
	.loc 1 127 91
	add	a3,a5,a3
	.loc 1 127 176
	lw	a5,-248(s0)
	.loc 1 127 166
	add	a5,a3,a5
	.loc 1 127 20
	add	a4,a4,a5
	li	a5,1518501888
	addi	a5,a5,-1639
	add	a5,a4,a5
	sw	a5,-216(s0)
	.loc 1 127 204
	lw	a5,-228(s0)
	.loc 1 127 218
	srli	a4,a5,2
	slli	a5,a5,30
	add	a5,a5,a4
	.loc 1 127 193
	sw	a5,-228(s0)
	.loc 1 128 16
	lw	a4,-220(s0)
	.loc 1 128 32
	lw	a5,-216(s0)
	.loc 1 128 45
	srli	a3,a5,27
	slli	a5,a5,5
	add	a5,a5,a3
	.loc 1 128 101
	lw	a2,-224(s0)
	.loc 1 128 116
	lw	a1,-212(s0)
	.loc 1 128 131
	lw	a0,-228(s0)
	.loc 1 128 145
	lw	a3,-224(s0)
	.loc 1 128 136
	xor	a3,a0,a3
	.loc 1 128 121
	and	a3,a1,a3
	.loc 1 128 106
	xor	a3,a2,a3
	.loc 1 128 91
	add	a3,a5,a3
	.loc 1 128 176
	lw	a5,-244(s0)
	.loc 1 128 166
	add	a5,a3,a5
	.loc 1 128 20
	add	a4,a4,a5
	li	a5,1518501888
	addi	a5,a5,-1639
	add	a5,a4,a5
	sw	a5,-220(s0)
	.loc 1 128 204
	lw	a5,-212(s0)
	.loc 1 128 218
	srli	a4,a5,2
	slli	a5,a5,30
	add	a5,a5,a4
	.loc 1 128 193
	sw	a5,-212(s0)
	.loc 1 129 16
	lw	a4,-224(s0)
	.loc 1 129 32
	lw	a5,-220(s0)
	.loc 1 129 45
	srli	a3,a5,27
	slli	a5,a5,5
	add	a5,a5,a3
	.loc 1 129 101
	lw	a2,-228(s0)
	.loc 1 129 116
	lw	a1,-216(s0)
	.loc 1 129 131
	lw	a0,-212(s0)
	.loc 1 129 145
	lw	a3,-228(s0)
	.loc 1 129 136
	xor	a3,a0,a3
	.loc 1 129 121
	and	a3,a1,a3
	.loc 1 129 106
	xor	a3,a2,a3
	.loc 1 129 91
	add	a3,a5,a3
	.loc 1 129 176
	lw	a5,-240(s0)
	.loc 1 129 166
	add	a5,a3,a5
	.loc 1 129 20
	add	a4,a4,a5
	li	a5,1518501888
	addi	a5,a5,-1639
	add	a5,a4,a5
	sw	a5,-224(s0)
	.loc 1 129 204
	lw	a5,-216(s0)
	.loc 1 129 218
	srli	a4,a5,2
	slli	a5,a5,30
	add	a5,a5,a4
	.loc 1 129 193
	sw	a5,-216(s0)
	.loc 1 130 16
	lw	a4,-228(s0)
	.loc 1 130 32
	lw	a5,-224(s0)
	.loc 1 130 45
	srli	a3,a5,27
	slli	a5,a5,5
	add	a5,a5,a3
	.loc 1 130 101
	lw	a2,-212(s0)
	.loc 1 130 116
	lw	a1,-220(s0)
	.loc 1 130 131
	lw	a0,-216(s0)
	.loc 1 130 145
	lw	a3,-212(s0)
	.loc 1 130 136
	xor	a3,a0,a3
	.loc 1 130 121
	and	a3,a1,a3
	.loc 1 130 106
	xor	a3,a2,a3
	.loc 1 130 91
	add	a3,a5,a3
	.loc 1 130 176
	lw	a5,-236(s0)
	.loc 1 130 166
	add	a5,a3,a5
	.loc 1 130 20
	add	a4,a4,a5
	li	a5,1518501888
	addi	a5,a5,-1639
	add	a5,a4,a5
	sw	a5,-228(s0)
	.loc 1 130 204
	lw	a5,-220(s0)
	.loc 1 130 218
	srli	a4,a5,2
	slli	a5,a5,30
	add	a5,a5,a4
	.loc 1 130 193
	sw	a5,-220(s0)
	.loc 1 131 16
	lw	a4,-212(s0)
	.loc 1 131 32
	lw	a5,-228(s0)
	.loc 1 131 45
	srli	a3,a5,27
	slli	a5,a5,5
	add	a5,a5,a3
	.loc 1 131 101
	lw	a2,-216(s0)
	.loc 1 131 116
	lw	a1,-224(s0)
	.loc 1 131 131
	lw	a0,-220(s0)
	.loc 1 131 145
	lw	a3,-216(s0)
	.loc 1 131 136
	xor	a3,a0,a3
	.loc 1 131 121
	and	a3,a1,a3
	.loc 1 131 106
	xor	a3,a2,a3
	.loc 1 131 91
	add	a3,a5,a3
	.loc 1 131 176
	lw	a5,-232(s0)
	.loc 1 131 166
	add	a5,a3,a5
	.loc 1 131 20
	add	a4,a4,a5
	li	a5,1518501888
	addi	a5,a5,-1639
	add	a5,a4,a5
	sw	a5,-212(s0)
	.loc 1 131 204
	lw	a5,-224(s0)
	.loc 1 131 218
	srli	a4,a5,2
	slli	a5,a5,30
	add	a5,a5,a4
	.loc 1 131 193
	sw	a5,-224(s0)
	.loc 1 132 191
	lw	a4,-240(s0)
	.loc 1 132 220
	lw	a5,-260(s0)
	.loc 1 132 211
	xor	a4,a4,a5
	.loc 1 132 249
	lw	a5,-284(s0)
	.loc 1 132 240
	xor	a4,a4,a5
	.loc 1 132 279
	lw	a5,-292(s0)
	.loc 1 132 270
	xor	a5,a4,a5
	.loc 1 132 182
	sw	a5,-296(s0)
	.loc 1 132 32
	lw	a5,-212(s0)
	.loc 1 132 45
	srli	a4,a5,27
	slli	a5,a5,5
	add	a5,a5,a4
	.loc 1 132 101
	lw	a3,-220(s0)
	.loc 1 132 116
	lw	a2,-228(s0)
	.loc 1 132 131
	lw	a1,-224(s0)
	.loc 1 132 145
	lw	a4,-220(s0)
	.loc 1 132 136
	xor	a4,a1,a4
	.loc 1 132 121
	and	a4,a2,a4
	.loc 1 132 106
	xor	a4,a3,a4
	.loc 1 132 91
	add	a4,a5,a4
	.loc 1 132 326
	lw	a5,-296(s0)
	.loc 1 132 341
	srli	a3,a5,31
	slli	a5,a5,1
	add	a5,a5,a3
	.loc 1 132 316
	sw	a5,-292(s0)
	.loc 1 132 302
	lw	a5,-292(s0)
	.loc 1 132 166
	add	a4,a4,a5
	li	a5,1518501888
	addi	a5,a5,-1639
	add	a4,a4,a5
	.loc 1 132 16
	lw	a5,-216(s0)
	.loc 1 132 20
	add	a5,a4,a5
	sw	a5,-216(s0)
	.loc 1 132 414
	lw	a5,-228(s0)
	.loc 1 132 428
	srli	a4,a5,2
	slli	a5,a5,30
	add	a5,a5,a4
	.loc 1 132 403
	sw	a5,-228(s0)
	.loc 1 133 191
	lw	a4,-236(s0)
	.loc 1 133 220
	lw	a5,-256(s0)
	.loc 1 133 211
	xor	a4,a4,a5
	.loc 1 133 249
	lw	a5,-280(s0)
	.loc 1 133 240
	xor	a4,a4,a5
	.loc 1 133 279
	lw	a5,-288(s0)
	.loc 1 133 270
	xor	a5,a4,a5
	.loc 1 133 182
	sw	a5,-296(s0)
	.loc 1 133 32
	lw	a5,-216(s0)
	.loc 1 133 45
	srli	a4,a5,27
	slli	a5,a5,5
	add	a5,a5,a4
	.loc 1 133 101
	lw	a3,-224(s0)
	.loc 1 133 116
	lw	a2,-212(s0)
	.loc 1 133 131
	lw	a1,-228(s0)
	.loc 1 133 145
	lw	a4,-224(s0)
	.loc 1 133 136
	xor	a4,a1,a4
	.loc 1 133 121
	and	a4,a2,a4
	.loc 1 133 106
	xor	a4,a3,a4
	.loc 1 133 91
	add	a4,a5,a4
	.loc 1 133 326
	lw	a5,-296(s0)
	.loc 1 133 341
	srli	a3,a5,31
	slli	a5,a5,1
	add	a5,a5,a3
	.loc 1 133 316
	sw	a5,-288(s0)
	.loc 1 133 302
	lw	a5,-288(s0)
	.loc 1 133 166
	add	a4,a4,a5
	li	a5,1518501888
	addi	a5,a5,-1639
	add	a4,a4,a5
	.loc 1 133 16
	lw	a5,-220(s0)
	.loc 1 133 20
	add	a5,a4,a5
	sw	a5,-220(s0)
	.loc 1 133 414
	lw	a5,-212(s0)
	.loc 1 133 428
	srli	a4,a5,2
	slli	a5,a5,30
	add	a5,a5,a4
	.loc 1 133 403
	sw	a5,-212(s0)
	.loc 1 134 191
	lw	a4,-232(s0)
	.loc 1 134 220
	lw	a5,-252(s0)
	.loc 1 134 211
	xor	a4,a4,a5
	.loc 1 134 249
	lw	a5,-276(s0)
	.loc 1 134 240
	xor	a4,a4,a5
	.loc 1 134 279
	lw	a5,-284(s0)
	.loc 1 134 270
	xor	a5,a4,a5
	.loc 1 134 182
	sw	a5,-296(s0)
	.loc 1 134 32
	lw	a5,-220(s0)
	.loc 1 134 45
	srli	a4,a5,27
	slli	a5,a5,5
	add	a5,a5,a4
	.loc 1 134 101
	lw	a3,-228(s0)
	.loc 1 134 116
	lw	a2,-216(s0)
	.loc 1 134 131
	lw	a1,-212(s0)
	.loc 1 134 145
	lw	a4,-228(s0)
	.loc 1 134 136
	xor	a4,a1,a4
	.loc 1 134 121
	and	a4,a2,a4
	.loc 1 134 106
	xor	a4,a3,a4
	.loc 1 134 91
	add	a4,a5,a4
	.loc 1 134 326
	lw	a5,-296(s0)
	.loc 1 134 341
	srli	a3,a5,31
	slli	a5,a5,1
	add	a5,a5,a3
	.loc 1 134 316
	sw	a5,-284(s0)
	.loc 1 134 302
	lw	a5,-284(s0)
	.loc 1 134 166
	add	a4,a4,a5
	li	a5,1518501888
	addi	a5,a5,-1639
	add	a4,a4,a5
	.loc 1 134 16
	lw	a5,-224(s0)
	.loc 1 134 20
	add	a5,a4,a5
	sw	a5,-224(s0)
	.loc 1 134 414
	lw	a5,-216(s0)
	.loc 1 134 428
	srli	a4,a5,2
	slli	a5,a5,30
	add	a5,a5,a4
	.loc 1 134 403
	sw	a5,-216(s0)
	.loc 1 135 191
	lw	a4,-292(s0)
	.loc 1 135 220
	lw	a5,-248(s0)
	.loc 1 135 211
	xor	a4,a4,a5
	.loc 1 135 249
	lw	a5,-272(s0)
	.loc 1 135 240
	xor	a4,a4,a5
	.loc 1 135 279
	lw	a5,-280(s0)
	.loc 1 135 270
	xor	a5,a4,a5
	.loc 1 135 182
	sw	a5,-296(s0)
	.loc 1 135 32
	lw	a5,-224(s0)
	.loc 1 135 45
	srli	a4,a5,27
	slli	a5,a5,5
	add	a5,a5,a4
	.loc 1 135 101
	lw	a3,-212(s0)
	.loc 1 135 116
	lw	a2,-220(s0)
	.loc 1 135 131
	lw	a1,-216(s0)
	.loc 1 135 145
	lw	a4,-212(s0)
	.loc 1 135 136
	xor	a4,a1,a4
	.loc 1 135 121
	and	a4,a2,a4
	.loc 1 135 106
	xor	a4,a3,a4
	.loc 1 135 91
	add	a4,a5,a4
	.loc 1 135 326
	lw	a5,-296(s0)
	.loc 1 135 341
	srli	a3,a5,31
	slli	a5,a5,1
	add	a5,a5,a3
	.loc 1 135 316
	sw	a5,-280(s0)
	.loc 1 135 302
	lw	a5,-280(s0)
	.loc 1 135 166
	add	a4,a4,a5
	li	a5,1518501888
	addi	a5,a5,-1639
	add	a4,a4,a5
	.loc 1 135 16
	lw	a5,-228(s0)
	.loc 1 135 20
	add	a5,a4,a5
	sw	a5,-228(s0)
	.loc 1 135 414
	lw	a5,-220(s0)
	.loc 1 135 428
	srli	a4,a5,2
	slli	a5,a5,30
	add	a5,a5,a4
	.loc 1 135 403
	sw	a5,-220(s0)
	.loc 1 143 173
	lw	a4,-288(s0)
	.loc 1 143 202
	lw	a5,-244(s0)
	.loc 1 143 193
	xor	a4,a4,a5
	.loc 1 143 231
	lw	a5,-268(s0)
	.loc 1 143 222
	xor	a4,a4,a5
	.loc 1 143 261
	lw	a5,-276(s0)
	.loc 1 143 252
	xor	a5,a4,a5
	.loc 1 143 164
	sw	a5,-296(s0)
	.loc 1 143 32
	lw	a5,-228(s0)
	.loc 1 143 45
	srli	a4,a5,27
	slli	a5,a5,5
	add	a5,a5,a4
	.loc 1 143 101
	lw	a3,-224(s0)
	.loc 1 143 115
	lw	a4,-220(s0)
	.loc 1 143 106
	xor	a3,a3,a4
	.loc 1 143 129
	lw	a4,-216(s0)
	.loc 1 143 120
	xor	a4,a3,a4
	.loc 1 143 91
	add	a4,a5,a4
	.loc 1 143 308
	lw	a5,-296(s0)
	.loc 1 143 323
	srli	a3,a5,31
	slli	a5,a5,1
	add	a5,a5,a3
	.loc 1 143 298
	sw	a5,-276(s0)
	.loc 1 143 284
	lw	a5,-276(s0)
	.loc 1 143 148
	add	a4,a4,a5
	li	a5,1859776512
	addi	a5,a5,-1119
	add	a4,a4,a5
	.loc 1 143 16
	lw	a5,-212(s0)
	.loc 1 143 20
	add	a5,a4,a5
	sw	a5,-212(s0)
	.loc 1 143 396
	lw	a5,-224(s0)
	.loc 1 143 410
	srli	a4,a5,2
	slli	a5,a5,30
	add	a5,a5,a4
	.loc 1 143 385
	sw	a5,-224(s0)
	.loc 1 144 173
	lw	a4,-284(s0)
	.loc 1 144 202
	lw	a5,-240(s0)
	.loc 1 144 193
	xor	a4,a4,a5
	.loc 1 144 231
	lw	a5,-264(s0)
	.loc 1 144 222
	xor	a4,a4,a5
	.loc 1 144 261
	lw	a5,-272(s0)
	.loc 1 144 252
	xor	a5,a4,a5
	.loc 1 144 164
	sw	a5,-296(s0)
	.loc 1 144 32
	lw	a5,-212(s0)
	.loc 1 144 45
	srli	a4,a5,27
	slli	a5,a5,5
	add	a5,a5,a4
	.loc 1 144 101
	lw	a3,-228(s0)
	.loc 1 144 115
	lw	a4,-224(s0)
	.loc 1 144 106
	xor	a3,a3,a4
	.loc 1 144 129
	lw	a4,-220(s0)
	.loc 1 144 120
	xor	a4,a3,a4
	.loc 1 144 91
	add	a4,a5,a4
	.loc 1 144 308
	lw	a5,-296(s0)
	.loc 1 144 323
	srli	a3,a5,31
	slli	a5,a5,1
	add	a5,a5,a3
	.loc 1 144 298
	sw	a5,-272(s0)
	.loc 1 144 284
	lw	a5,-272(s0)
	.loc 1 144 148
	add	a4,a4,a5
	li	a5,1859776512
	addi	a5,a5,-1119
	add	a4,a4,a5
	.loc 1 144 16
	lw	a5,-216(s0)
	.loc 1 144 20
	add	a5,a4,a5
	sw	a5,-216(s0)
	.loc 1 144 396
	lw	a5,-228(s0)
	.loc 1 144 410
	srli	a4,a5,2
	slli	a5,a5,30
	add	a5,a5,a4
	.loc 1 144 385
	sw	a5,-228(s0)
	.loc 1 145 173
	lw	a4,-280(s0)
	.loc 1 145 202
	lw	a5,-236(s0)
	.loc 1 145 193
	xor	a4,a4,a5
	.loc 1 145 231
	lw	a5,-260(s0)
	.loc 1 145 222
	xor	a4,a4,a5
	.loc 1 145 261
	lw	a5,-268(s0)
	.loc 1 145 252
	xor	a5,a4,a5
	.loc 1 145 164
	sw	a5,-296(s0)
	.loc 1 145 32
	lw	a5,-216(s0)
	.loc 1 145 45
	srli	a4,a5,27
	slli	a5,a5,5
	add	a5,a5,a4
	.loc 1 145 101
	lw	a3,-212(s0)
	.loc 1 145 115
	lw	a4,-228(s0)
	.loc 1 145 106
	xor	a3,a3,a4
	.loc 1 145 129
	lw	a4,-224(s0)
	.loc 1 145 120
	xor	a4,a3,a4
	.loc 1 145 91
	add	a4,a5,a4
	.loc 1 145 308
	lw	a5,-296(s0)
	.loc 1 145 323
	srli	a3,a5,31
	slli	a5,a5,1
	add	a5,a5,a3
	.loc 1 145 298
	sw	a5,-268(s0)
	.loc 1 145 284
	lw	a5,-268(s0)
	.loc 1 145 148
	add	a4,a4,a5
	li	a5,1859776512
	addi	a5,a5,-1119
	add	a4,a4,a5
	.loc 1 145 16
	lw	a5,-220(s0)
	.loc 1 145 20
	add	a5,a4,a5
	sw	a5,-220(s0)
	.loc 1 145 396
	lw	a5,-212(s0)
	.loc 1 145 410
	srli	a4,a5,2
	slli	a5,a5,30
	add	a5,a5,a4
	.loc 1 145 385
	sw	a5,-212(s0)
	.loc 1 146 173
	lw	a4,-276(s0)
	.loc 1 146 202
	lw	a5,-232(s0)
	.loc 1 146 193
	xor	a4,a4,a5
	.loc 1 146 231
	lw	a5,-256(s0)
	.loc 1 146 222
	xor	a4,a4,a5
	.loc 1 146 261
	lw	a5,-264(s0)
	.loc 1 146 252
	xor	a5,a4,a5
	.loc 1 146 164
	sw	a5,-296(s0)
	.loc 1 146 32
	lw	a5,-220(s0)
	.loc 1 146 45
	srli	a4,a5,27
	slli	a5,a5,5
	add	a5,a5,a4
	.loc 1 146 101
	lw	a3,-216(s0)
	.loc 1 146 115
	lw	a4,-212(s0)
	.loc 1 146 106
	xor	a3,a3,a4
	.loc 1 146 129
	lw	a4,-228(s0)
	.loc 1 146 120
	xor	a4,a3,a4
	.loc 1 146 91
	add	a4,a5,a4
	.loc 1 146 308
	lw	a5,-296(s0)
	.loc 1 146 323
	srli	a3,a5,31
	slli	a5,a5,1
	add	a5,a5,a3
	.loc 1 146 298
	sw	a5,-264(s0)
	.loc 1 146 284
	lw	a5,-264(s0)
	.loc 1 146 148
	add	a4,a4,a5
	li	a5,1859776512
	addi	a5,a5,-1119
	add	a4,a4,a5
	.loc 1 146 16
	lw	a5,-224(s0)
	.loc 1 146 20
	add	a5,a4,a5
	sw	a5,-224(s0)
	.loc 1 146 396
	lw	a5,-216(s0)
	.loc 1 146 410
	srli	a4,a5,2
	slli	a5,a5,30
	add	a5,a5,a4
	.loc 1 146 385
	sw	a5,-216(s0)
	.loc 1 147 173
	lw	a4,-272(s0)
	.loc 1 147 202
	lw	a5,-292(s0)
	.loc 1 147 193
	xor	a4,a4,a5
	.loc 1 147 231
	lw	a5,-252(s0)
	.loc 1 147 222
	xor	a4,a4,a5
	.loc 1 147 261
	lw	a5,-260(s0)
	.loc 1 147 252
	xor	a5,a4,a5
	.loc 1 147 164
	sw	a5,-296(s0)
	.loc 1 147 32
	lw	a5,-224(s0)
	.loc 1 147 45
	srli	a4,a5,27
	slli	a5,a5,5
	add	a5,a5,a4
	.loc 1 147 101
	lw	a3,-220(s0)
	.loc 1 147 115
	lw	a4,-216(s0)
	.loc 1 147 106
	xor	a3,a3,a4
	.loc 1 147 129
	lw	a4,-212(s0)
	.loc 1 147 120
	xor	a4,a3,a4
	.loc 1 147 91
	add	a4,a5,a4
	.loc 1 147 308
	lw	a5,-296(s0)
	.loc 1 147 323
	srli	a3,a5,31
	slli	a5,a5,1
	add	a5,a5,a3
	.loc 1 147 298
	sw	a5,-260(s0)
	.loc 1 147 284
	lw	a5,-260(s0)
	.loc 1 147 148
	add	a4,a4,a5
	li	a5,1859776512
	addi	a5,a5,-1119
	add	a4,a4,a5
	.loc 1 147 16
	lw	a5,-228(s0)
	.loc 1 147 20
	add	a5,a4,a5
	sw	a5,-228(s0)
	.loc 1 147 396
	lw	a5,-220(s0)
	.loc 1 147 410
	srli	a4,a5,2
	slli	a5,a5,30
	add	a5,a5,a4
	.loc 1 147 385
	sw	a5,-220(s0)
	.loc 1 148 173
	lw	a4,-268(s0)
	.loc 1 148 202
	lw	a5,-288(s0)
	.loc 1 148 193
	xor	a4,a4,a5
	.loc 1 148 231
	lw	a5,-248(s0)
	.loc 1 148 222
	xor	a4,a4,a5
	.loc 1 148 261
	lw	a5,-256(s0)
	.loc 1 148 252
	xor	a5,a4,a5
	.loc 1 148 164
	sw	a5,-296(s0)
	.loc 1 148 32
	lw	a5,-228(s0)
	.loc 1 148 45
	srli	a4,a5,27
	slli	a5,a5,5
	add	a5,a5,a4
	.loc 1 148 101
	lw	a3,-224(s0)
	.loc 1 148 115
	lw	a4,-220(s0)
	.loc 1 148 106
	xor	a3,a3,a4
	.loc 1 148 129
	lw	a4,-216(s0)
	.loc 1 148 120
	xor	a4,a3,a4
	.loc 1 148 91
	add	a4,a5,a4
	.loc 1 148 308
	lw	a5,-296(s0)
	.loc 1 148 323
	srli	a3,a5,31
	slli	a5,a5,1
	add	a5,a5,a3
	.loc 1 148 298
	sw	a5,-256(s0)
	.loc 1 148 284
	lw	a5,-256(s0)
	.loc 1 148 148
	add	a4,a4,a5
	li	a5,1859776512
	addi	a5,a5,-1119
	add	a4,a4,a5
	.loc 1 148 16
	lw	a5,-212(s0)
	.loc 1 148 20
	add	a5,a4,a5
	sw	a5,-212(s0)
	.loc 1 148 396
	lw	a5,-224(s0)
	.loc 1 148 410
	srli	a4,a5,2
	slli	a5,a5,30
	add	a5,a5,a4
	.loc 1 148 385
	sw	a5,-224(s0)
	.loc 1 149 173
	lw	a4,-264(s0)
	.loc 1 149 202
	lw	a5,-284(s0)
	.loc 1 149 193
	xor	a4,a4,a5
	.loc 1 149 231
	lw	a5,-244(s0)
	.loc 1 149 222
	xor	a4,a4,a5
	.loc 1 149 261
	lw	a5,-252(s0)
	.loc 1 149 252
	xor	a5,a4,a5
	.loc 1 149 164
	sw	a5,-296(s0)
	.loc 1 149 32
	lw	a5,-212(s0)
	.loc 1 149 45
	srli	a4,a5,27
	slli	a5,a5,5
	add	a5,a5,a4
	.loc 1 149 101
	lw	a3,-228(s0)
	.loc 1 149 115
	lw	a4,-224(s0)
	.loc 1 149 106
	xor	a3,a3,a4
	.loc 1 149 129
	lw	a4,-220(s0)
	.loc 1 149 120
	xor	a4,a3,a4
	.loc 1 149 91
	add	a4,a5,a4
	.loc 1 149 308
	lw	a5,-296(s0)
	.loc 1 149 323
	srli	a3,a5,31
	slli	a5,a5,1
	add	a5,a5,a3
	.loc 1 149 298
	sw	a5,-252(s0)
	.loc 1 149 284
	lw	a5,-252(s0)
	.loc 1 149 148
	add	a4,a4,a5
	li	a5,1859776512
	addi	a5,a5,-1119
	add	a4,a4,a5
	.loc 1 149 16
	lw	a5,-216(s0)
	.loc 1 149 20
	add	a5,a4,a5
	sw	a5,-216(s0)
	.loc 1 149 396
	lw	a5,-228(s0)
	.loc 1 149 410
	srli	a4,a5,2
	slli	a5,a5,30
	add	a5,a5,a4
	.loc 1 149 385
	sw	a5,-228(s0)
	.loc 1 150 173
	lw	a4,-260(s0)
	.loc 1 150 202
	lw	a5,-280(s0)
	.loc 1 150 193
	xor	a4,a4,a5
	.loc 1 150 231
	lw	a5,-240(s0)
	.loc 1 150 222
	xor	a4,a4,a5
	.loc 1 150 261
	lw	a5,-248(s0)
	.loc 1 150 252
	xor	a5,a4,a5
	.loc 1 150 164
	sw	a5,-296(s0)
	.loc 1 150 32
	lw	a5,-216(s0)
	.loc 1 150 45
	srli	a4,a5,27
	slli	a5,a5,5
	add	a5,a5,a4
	.loc 1 150 101
	lw	a3,-212(s0)
	.loc 1 150 115
	lw	a4,-228(s0)
	.loc 1 150 106
	xor	a3,a3,a4
	.loc 1 150 129
	lw	a4,-224(s0)
	.loc 1 150 120
	xor	a4,a3,a4
	.loc 1 150 91
	add	a4,a5,a4
	.loc 1 150 308
	lw	a5,-296(s0)
	.loc 1 150 323
	srli	a3,a5,31
	slli	a5,a5,1
	add	a5,a5,a3
	.loc 1 150 298
	sw	a5,-248(s0)
	.loc 1 150 284
	lw	a5,-248(s0)
	.loc 1 150 148
	add	a4,a4,a5
	li	a5,1859776512
	addi	a5,a5,-1119
	add	a4,a4,a5
	.loc 1 150 16
	lw	a5,-220(s0)
	.loc 1 150 20
	add	a5,a4,a5
	sw	a5,-220(s0)
	.loc 1 150 396
	lw	a5,-212(s0)
	.loc 1 150 410
	srli	a4,a5,2
	slli	a5,a5,30
	add	a5,a5,a4
	.loc 1 150 385
	sw	a5,-212(s0)
	.loc 1 151 173
	lw	a4,-256(s0)
	.loc 1 151 202
	lw	a5,-276(s0)
	.loc 1 151 193
	xor	a4,a4,a5
	.loc 1 151 231
	lw	a5,-236(s0)
	.loc 1 151 222
	xor	a4,a4,a5
	.loc 1 151 261
	lw	a5,-244(s0)
	.loc 1 151 252
	xor	a5,a4,a5
	.loc 1 151 164
	sw	a5,-296(s0)
	.loc 1 151 32
	lw	a5,-220(s0)
	.loc 1 151 45
	srli	a4,a5,27
	slli	a5,a5,5
	add	a5,a5,a4
	.loc 1 151 101
	lw	a3,-216(s0)
	.loc 1 151 115
	lw	a4,-212(s0)
	.loc 1 151 106
	xor	a3,a3,a4
	.loc 1 151 129
	lw	a4,-228(s0)
	.loc 1 151 120
	xor	a4,a3,a4
	.loc 1 151 91
	add	a4,a5,a4
	.loc 1 151 308
	lw	a5,-296(s0)
	.loc 1 151 323
	srli	a3,a5,31
	slli	a5,a5,1
	add	a5,a5,a3
	.loc 1 151 298
	sw	a5,-244(s0)
	.loc 1 151 284
	lw	a5,-244(s0)
	.loc 1 151 148
	add	a4,a4,a5
	li	a5,1859776512
	addi	a5,a5,-1119
	add	a4,a4,a5
	.loc 1 151 16
	lw	a5,-224(s0)
	.loc 1 151 20
	add	a5,a4,a5
	sw	a5,-224(s0)
	.loc 1 151 396
	lw	a5,-216(s0)
	.loc 1 151 410
	srli	a4,a5,2
	slli	a5,a5,30
	add	a5,a5,a4
	.loc 1 151 385
	sw	a5,-216(s0)
	.loc 1 152 173
	lw	a4,-252(s0)
	.loc 1 152 202
	lw	a5,-272(s0)
	.loc 1 152 193
	xor	a4,a4,a5
	.loc 1 152 231
	lw	a5,-232(s0)
	.loc 1 152 222
	xor	a4,a4,a5
	.loc 1 152 261
	lw	a5,-240(s0)
	.loc 1 152 252
	xor	a5,a4,a5
	.loc 1 152 164
	sw	a5,-296(s0)
	.loc 1 152 32
	lw	a5,-224(s0)
	.loc 1 152 45
	srli	a4,a5,27
	slli	a5,a5,5
	add	a5,a5,a4
	.loc 1 152 101
	lw	a3,-220(s0)
	.loc 1 152 115
	lw	a4,-216(s0)
	.loc 1 152 106
	xor	a3,a3,a4
	.loc 1 152 129
	lw	a4,-212(s0)
	.loc 1 152 120
	xor	a4,a3,a4
	.loc 1 152 91
	add	a4,a5,a4
	.loc 1 152 308
	lw	a5,-296(s0)
	.loc 1 152 323
	srli	a3,a5,31
	slli	a5,a5,1
	add	a5,a5,a3
	.loc 1 152 298
	sw	a5,-240(s0)
	.loc 1 152 284
	lw	a5,-240(s0)
	.loc 1 152 148
	add	a4,a4,a5
	li	a5,1859776512
	addi	a5,a5,-1119
	add	a4,a4,a5
	.loc 1 152 16
	lw	a5,-228(s0)
	.loc 1 152 20
	add	a5,a4,a5
	sw	a5,-228(s0)
	.loc 1 152 396
	lw	a5,-220(s0)
	.loc 1 152 410
	srli	a4,a5,2
	slli	a5,a5,30
	add	a5,a5,a4
	.loc 1 152 385
	sw	a5,-220(s0)
	.loc 1 153 173
	lw	a4,-248(s0)
	.loc 1 153 202
	lw	a5,-268(s0)
	.loc 1 153 193
	xor	a4,a4,a5
	.loc 1 153 231
	lw	a5,-292(s0)
	.loc 1 153 222
	xor	a4,a4,a5
	.loc 1 153 261
	lw	a5,-236(s0)
	.loc 1 153 252
	xor	a5,a4,a5
	.loc 1 153 164
	sw	a5,-296(s0)
	.loc 1 153 32
	lw	a5,-228(s0)
	.loc 1 153 45
	srli	a4,a5,27
	slli	a5,a5,5
	add	a5,a5,a4
	.loc 1 153 101
	lw	a3,-224(s0)
	.loc 1 153 115
	lw	a4,-220(s0)
	.loc 1 153 106
	xor	a3,a3,a4
	.loc 1 153 129
	lw	a4,-216(s0)
	.loc 1 153 120
	xor	a4,a3,a4
	.loc 1 153 91
	add	a4,a5,a4
	.loc 1 153 308
	lw	a5,-296(s0)
	.loc 1 153 323
	srli	a3,a5,31
	slli	a5,a5,1
	add	a5,a5,a3
	.loc 1 153 298
	sw	a5,-236(s0)
	.loc 1 153 284
	lw	a5,-236(s0)
	.loc 1 153 148
	add	a4,a4,a5
	li	a5,1859776512
	addi	a5,a5,-1119
	add	a4,a4,a5
	.loc 1 153 16
	lw	a5,-212(s0)
	.loc 1 153 20
	add	a5,a4,a5
	sw	a5,-212(s0)
	.loc 1 153 396
	lw	a5,-224(s0)
	.loc 1 153 410
	srli	a4,a5,2
	slli	a5,a5,30
	add	a5,a5,a4
	.loc 1 153 385
	sw	a5,-224(s0)
	.loc 1 154 173
	lw	a4,-244(s0)
	.loc 1 154 202
	lw	a5,-264(s0)
	.loc 1 154 193
	xor	a4,a4,a5
	.loc 1 154 231
	lw	a5,-288(s0)
	.loc 1 154 222
	xor	a4,a4,a5
	.loc 1 154 261
	lw	a5,-232(s0)
	.loc 1 154 252
	xor	a5,a4,a5
	.loc 1 154 164
	sw	a5,-296(s0)
	.loc 1 154 32
	lw	a5,-212(s0)
	.loc 1 154 45
	srli	a4,a5,27
	slli	a5,a5,5
	add	a5,a5,a4
	.loc 1 154 101
	lw	a3,-228(s0)
	.loc 1 154 115
	lw	a4,-224(s0)
	.loc 1 154 106
	xor	a3,a3,a4
	.loc 1 154 129
	lw	a4,-220(s0)
	.loc 1 154 120
	xor	a4,a3,a4
	.loc 1 154 91
	add	a4,a5,a4
	.loc 1 154 308
	lw	a5,-296(s0)
	.loc 1 154 323
	srli	a3,a5,31
	slli	a5,a5,1
	add	a5,a5,a3
	.loc 1 154 298
	sw	a5,-232(s0)
	.loc 1 154 284
	lw	a5,-232(s0)
	.loc 1 154 148
	add	a4,a4,a5
	li	a5,1859776512
	addi	a5,a5,-1119
	add	a4,a4,a5
	.loc 1 154 16
	lw	a5,-216(s0)
	.loc 1 154 20
	add	a5,a4,a5
	sw	a5,-216(s0)
	.loc 1 154 396
	lw	a5,-228(s0)
	.loc 1 154 410
	srli	a4,a5,2
	slli	a5,a5,30
	add	a5,a5,a4
	.loc 1 154 385
	sw	a5,-228(s0)
	.loc 1 155 173
	lw	a4,-240(s0)
	.loc 1 155 202
	lw	a5,-260(s0)
	.loc 1 155 193
	xor	a4,a4,a5
	.loc 1 155 231
	lw	a5,-284(s0)
	.loc 1 155 222
	xor	a4,a4,a5
	.loc 1 155 261
	lw	a5,-292(s0)
	.loc 1 155 252
	xor	a5,a4,a5
	.loc 1 155 164
	sw	a5,-296(s0)
	.loc 1 155 32
	lw	a5,-216(s0)
	.loc 1 155 45
	srli	a4,a5,27
	slli	a5,a5,5
	add	a5,a5,a4
	.loc 1 155 101
	lw	a3,-212(s0)
	.loc 1 155 115
	lw	a4,-228(s0)
	.loc 1 155 106
	xor	a3,a3,a4
	.loc 1 155 129
	lw	a4,-224(s0)
	.loc 1 155 120
	xor	a4,a3,a4
	.loc 1 155 91
	add	a4,a5,a4
	.loc 1 155 308
	lw	a5,-296(s0)
	.loc 1 155 323
	srli	a3,a5,31
	slli	a5,a5,1
	add	a5,a5,a3
	.loc 1 155 298
	sw	a5,-292(s0)
	.loc 1 155 284
	lw	a5,-292(s0)
	.loc 1 155 148
	add	a4,a4,a5
	li	a5,1859776512
	addi	a5,a5,-1119
	add	a4,a4,a5
	.loc 1 155 16
	lw	a5,-220(s0)
	.loc 1 155 20
	add	a5,a4,a5
	sw	a5,-220(s0)
	.loc 1 155 396
	lw	a5,-212(s0)
	.loc 1 155 410
	srli	a4,a5,2
	slli	a5,a5,30
	add	a5,a5,a4
	.loc 1 155 385
	sw	a5,-212(s0)
	.loc 1 156 173
	lw	a4,-236(s0)
	.loc 1 156 202
	lw	a5,-256(s0)
	.loc 1 156 193
	xor	a4,a4,a5
	.loc 1 156 231
	lw	a5,-280(s0)
	.loc 1 156 222
	xor	a4,a4,a5
	.loc 1 156 261
	lw	a5,-288(s0)
	.loc 1 156 252
	xor	a5,a4,a5
	.loc 1 156 164
	sw	a5,-296(s0)
	.loc 1 156 32
	lw	a5,-220(s0)
	.loc 1 156 45
	srli	a4,a5,27
	slli	a5,a5,5
	add	a5,a5,a4
	.loc 1 156 101
	lw	a3,-216(s0)
	.loc 1 156 115
	lw	a4,-212(s0)
	.loc 1 156 106
	xor	a3,a3,a4
	.loc 1 156 129
	lw	a4,-228(s0)
	.loc 1 156 120
	xor	a4,a3,a4
	.loc 1 156 91
	add	a4,a5,a4
	.loc 1 156 308
	lw	a5,-296(s0)
	.loc 1 156 323
	srli	a3,a5,31
	slli	a5,a5,1
	add	a5,a5,a3
	.loc 1 156 298
	sw	a5,-288(s0)
	.loc 1 156 284
	lw	a5,-288(s0)
	.loc 1 156 148
	add	a4,a4,a5
	li	a5,1859776512
	addi	a5,a5,-1119
	add	a4,a4,a5
	.loc 1 156 16
	lw	a5,-224(s0)
	.loc 1 156 20
	add	a5,a4,a5
	sw	a5,-224(s0)
	.loc 1 156 396
	lw	a5,-216(s0)
	.loc 1 156 410
	srli	a4,a5,2
	slli	a5,a5,30
	add	a5,a5,a4
	.loc 1 156 385
	sw	a5,-216(s0)
	.loc 1 157 173
	lw	a4,-232(s0)
	.loc 1 157 202
	lw	a5,-252(s0)
	.loc 1 157 193
	xor	a4,a4,a5
	.loc 1 157 231
	lw	a5,-276(s0)
	.loc 1 157 222
	xor	a4,a4,a5
	.loc 1 157 261
	lw	a5,-284(s0)
	.loc 1 157 252
	xor	a5,a4,a5
	.loc 1 157 164
	sw	a5,-296(s0)
	.loc 1 157 32
	lw	a5,-224(s0)
	.loc 1 157 45
	srli	a4,a5,27
	slli	a5,a5,5
	add	a5,a5,a4
	.loc 1 157 101
	lw	a3,-220(s0)
	.loc 1 157 115
	lw	a4,-216(s0)
	.loc 1 157 106
	xor	a3,a3,a4
	.loc 1 157 129
	lw	a4,-212(s0)
	.loc 1 157 120
	xor	a4,a3,a4
	.loc 1 157 91
	add	a4,a5,a4
	.loc 1 157 308
	lw	a5,-296(s0)
	.loc 1 157 323
	srli	a3,a5,31
	slli	a5,a5,1
	add	a5,a5,a3
	.loc 1 157 298
	sw	a5,-284(s0)
	.loc 1 157 284
	lw	a5,-284(s0)
	.loc 1 157 148
	add	a4,a4,a5
	li	a5,1859776512
	addi	a5,a5,-1119
	add	a4,a4,a5
	.loc 1 157 16
	lw	a5,-228(s0)
	.loc 1 157 20
	add	a5,a4,a5
	sw	a5,-228(s0)
	.loc 1 157 396
	lw	a5,-220(s0)
	.loc 1 157 410
	srli	a4,a5,2
	slli	a5,a5,30
	add	a5,a5,a4
	.loc 1 157 385
	sw	a5,-220(s0)
	.loc 1 158 173
	lw	a4,-292(s0)
	.loc 1 158 202
	lw	a5,-248(s0)
	.loc 1 158 193
	xor	a4,a4,a5
	.loc 1 158 231
	lw	a5,-272(s0)
	.loc 1 158 222
	xor	a4,a4,a5
	.loc 1 158 261
	lw	a5,-280(s0)
	.loc 1 158 252
	xor	a5,a4,a5
	.loc 1 158 164
	sw	a5,-296(s0)
	.loc 1 158 32
	lw	a5,-228(s0)
	.loc 1 158 45
	srli	a4,a5,27
	slli	a5,a5,5
	add	a5,a5,a4
	.loc 1 158 101
	lw	a3,-224(s0)
	.loc 1 158 115
	lw	a4,-220(s0)
	.loc 1 158 106
	xor	a3,a3,a4
	.loc 1 158 129
	lw	a4,-216(s0)
	.loc 1 158 120
	xor	a4,a3,a4
	.loc 1 158 91
	add	a4,a5,a4
	.loc 1 158 308
	lw	a5,-296(s0)
	.loc 1 158 323
	srli	a3,a5,31
	slli	a5,a5,1
	add	a5,a5,a3
	.loc 1 158 298
	sw	a5,-280(s0)
	.loc 1 158 284
	lw	a5,-280(s0)
	.loc 1 158 148
	add	a4,a4,a5
	li	a5,1859776512
	addi	a5,a5,-1119
	add	a4,a4,a5
	.loc 1 158 16
	lw	a5,-212(s0)
	.loc 1 158 20
	add	a5,a4,a5
	sw	a5,-212(s0)
	.loc 1 158 396
	lw	a5,-224(s0)
	.loc 1 158 410
	srli	a4,a5,2
	slli	a5,a5,30
	add	a5,a5,a4
	.loc 1 158 385
	sw	a5,-224(s0)
	.loc 1 159 173
	lw	a4,-288(s0)
	.loc 1 159 202
	lw	a5,-244(s0)
	.loc 1 159 193
	xor	a4,a4,a5
	.loc 1 159 231
	lw	a5,-268(s0)
	.loc 1 159 222
	xor	a4,a4,a5
	.loc 1 159 261
	lw	a5,-276(s0)
	.loc 1 159 252
	xor	a5,a4,a5
	.loc 1 159 164
	sw	a5,-296(s0)
	.loc 1 159 32
	lw	a5,-212(s0)
	.loc 1 159 45
	srli	a4,a5,27
	slli	a5,a5,5
	add	a5,a5,a4
	.loc 1 159 101
	lw	a3,-228(s0)
	.loc 1 159 115
	lw	a4,-224(s0)
	.loc 1 159 106
	xor	a3,a3,a4
	.loc 1 159 129
	lw	a4,-220(s0)
	.loc 1 159 120
	xor	a4,a3,a4
	.loc 1 159 91
	add	a4,a5,a4
	.loc 1 159 308
	lw	a5,-296(s0)
	.loc 1 159 323
	srli	a3,a5,31
	slli	a5,a5,1
	add	a5,a5,a3
	.loc 1 159 298
	sw	a5,-276(s0)
	.loc 1 159 284
	lw	a5,-276(s0)
	.loc 1 159 148
	add	a4,a4,a5
	li	a5,1859776512
	addi	a5,a5,-1119
	add	a4,a4,a5
	.loc 1 159 16
	lw	a5,-216(s0)
	.loc 1 159 20
	add	a5,a4,a5
	sw	a5,-216(s0)
	.loc 1 159 396
	lw	a5,-228(s0)
	.loc 1 159 410
	srli	a4,a5,2
	slli	a5,a5,30
	add	a5,a5,a4
	.loc 1 159 385
	sw	a5,-228(s0)
	.loc 1 160 173
	lw	a4,-284(s0)
	.loc 1 160 202
	lw	a5,-240(s0)
	.loc 1 160 193
	xor	a4,a4,a5
	.loc 1 160 231
	lw	a5,-264(s0)
	.loc 1 160 222
	xor	a4,a4,a5
	.loc 1 160 261
	lw	a5,-272(s0)
	.loc 1 160 252
	xor	a5,a4,a5
	.loc 1 160 164
	sw	a5,-296(s0)
	.loc 1 160 32
	lw	a5,-216(s0)
	.loc 1 160 45
	srli	a4,a5,27
	slli	a5,a5,5
	add	a5,a5,a4
	.loc 1 160 101
	lw	a3,-212(s0)
	.loc 1 160 115
	lw	a4,-228(s0)
	.loc 1 160 106
	xor	a3,a3,a4
	.loc 1 160 129
	lw	a4,-224(s0)
	.loc 1 160 120
	xor	a4,a3,a4
	.loc 1 160 91
	add	a4,a5,a4
	.loc 1 160 308
	lw	a5,-296(s0)
	.loc 1 160 323
	srli	a3,a5,31
	slli	a5,a5,1
	add	a5,a5,a3
	.loc 1 160 298
	sw	a5,-272(s0)
	.loc 1 160 284
	lw	a5,-272(s0)
	.loc 1 160 148
	add	a4,a4,a5
	li	a5,1859776512
	addi	a5,a5,-1119
	add	a4,a4,a5
	.loc 1 160 16
	lw	a5,-220(s0)
	.loc 1 160 20
	add	a5,a4,a5
	sw	a5,-220(s0)
	.loc 1 160 396
	lw	a5,-212(s0)
	.loc 1 160 410
	srli	a4,a5,2
	slli	a5,a5,30
	add	a5,a5,a4
	.loc 1 160 385
	sw	a5,-212(s0)
	.loc 1 161 173
	lw	a4,-280(s0)
	.loc 1 161 202
	lw	a5,-236(s0)
	.loc 1 161 193
	xor	a4,a4,a5
	.loc 1 161 231
	lw	a5,-260(s0)
	.loc 1 161 222
	xor	a4,a4,a5
	.loc 1 161 261
	lw	a5,-268(s0)
	.loc 1 161 252
	xor	a5,a4,a5
	.loc 1 161 164
	sw	a5,-296(s0)
	.loc 1 161 32
	lw	a5,-220(s0)
	.loc 1 161 45
	srli	a4,a5,27
	slli	a5,a5,5
	add	a5,a5,a4
	.loc 1 161 101
	lw	a3,-216(s0)
	.loc 1 161 115
	lw	a4,-212(s0)
	.loc 1 161 106
	xor	a3,a3,a4
	.loc 1 161 129
	lw	a4,-228(s0)
	.loc 1 161 120
	xor	a4,a3,a4
	.loc 1 161 91
	add	a4,a5,a4
	.loc 1 161 308
	lw	a5,-296(s0)
	.loc 1 161 323
	srli	a3,a5,31
	slli	a5,a5,1
	add	a5,a5,a3
	.loc 1 161 298
	sw	a5,-268(s0)
	.loc 1 161 284
	lw	a5,-268(s0)
	.loc 1 161 148
	add	a4,a4,a5
	li	a5,1859776512
	addi	a5,a5,-1119
	add	a4,a4,a5
	.loc 1 161 16
	lw	a5,-224(s0)
	.loc 1 161 20
	add	a5,a4,a5
	sw	a5,-224(s0)
	.loc 1 161 396
	lw	a5,-216(s0)
	.loc 1 161 410
	srli	a4,a5,2
	slli	a5,a5,30
	add	a5,a5,a4
	.loc 1 161 385
	sw	a5,-216(s0)
	.loc 1 162 173
	lw	a4,-276(s0)
	.loc 1 162 202
	lw	a5,-232(s0)
	.loc 1 162 193
	xor	a4,a4,a5
	.loc 1 162 231
	lw	a5,-256(s0)
	.loc 1 162 222
	xor	a4,a4,a5
	.loc 1 162 261
	lw	a5,-264(s0)
	.loc 1 162 252
	xor	a5,a4,a5
	.loc 1 162 164
	sw	a5,-296(s0)
	.loc 1 162 32
	lw	a5,-224(s0)
	.loc 1 162 45
	srli	a4,a5,27
	slli	a5,a5,5
	add	a5,a5,a4
	.loc 1 162 101
	lw	a3,-220(s0)
	.loc 1 162 115
	lw	a4,-216(s0)
	.loc 1 162 106
	xor	a3,a3,a4
	.loc 1 162 129
	lw	a4,-212(s0)
	.loc 1 162 120
	xor	a4,a3,a4
	.loc 1 162 91
	add	a4,a5,a4
	.loc 1 162 308
	lw	a5,-296(s0)
	.loc 1 162 323
	srli	a3,a5,31
	slli	a5,a5,1
	add	a5,a5,a3
	.loc 1 162 298
	sw	a5,-264(s0)
	.loc 1 162 284
	lw	a5,-264(s0)
	.loc 1 162 148
	add	a4,a4,a5
	li	a5,1859776512
	addi	a5,a5,-1119
	add	a4,a4,a5
	.loc 1 162 16
	lw	a5,-228(s0)
	.loc 1 162 20
	add	a5,a4,a5
	sw	a5,-228(s0)
	.loc 1 162 396
	lw	a5,-220(s0)
	.loc 1 162 410
	srli	a4,a5,2
	slli	a5,a5,30
	add	a5,a5,a4
	.loc 1 162 385
	sw	a5,-220(s0)
	.loc 1 170 207
	lw	a4,-272(s0)
	.loc 1 170 236
	lw	a5,-292(s0)
	.loc 1 170 227
	xor	a4,a4,a5
	.loc 1 170 265
	lw	a5,-252(s0)
	.loc 1 170 256
	xor	a4,a4,a5
	.loc 1 170 295
	lw	a5,-260(s0)
	.loc 1 170 286
	xor	a5,a4,a5
	.loc 1 170 198
	sw	a5,-296(s0)
	.loc 1 170 32
	lw	a5,-228(s0)
	.loc 1 170 45
	srli	a4,a5,27
	slli	a5,a5,5
	add	a5,a5,a4
	.loc 1 170 102
	lw	a3,-224(s0)
	.loc 1 170 116
	lw	a4,-220(s0)
	.loc 1 170 107
	and	a3,a3,a4
	.loc 1 170 132
	lw	a2,-216(s0)
	.loc 1 170 147
	lw	a1,-224(s0)
	.loc 1 170 161
	lw	a4,-220(s0)
	.loc 1 170 152
	or	a4,a1,a4
	.loc 1 170 137
	and	a4,a2,a4
	.loc 1 170 122
	or	a4,a3,a4
	.loc 1 170 91
	add	a4,a5,a4
	.loc 1 170 342
	lw	a5,-296(s0)
	.loc 1 170 357
	srli	a3,a5,31
	slli	a5,a5,1
	add	a5,a5,a3
	.loc 1 170 332
	sw	a5,-260(s0)
	.loc 1 170 318
	lw	a5,-260(s0)
	.loc 1 170 182
	add	a4,a4,a5
	li	a5,-1894006784
	addi	a5,a5,-804
	add	a4,a4,a5
	.loc 1 170 16
	lw	a5,-212(s0)
	.loc 1 170 20
	add	a5,a4,a5
	sw	a5,-212(s0)
	.loc 1 170 430
	lw	a5,-224(s0)
	.loc 1 170 444
	srli	a4,a5,2
	slli	a5,a5,30
	add	a5,a5,a4
	.loc 1 170 419
	sw	a5,-224(s0)
	.loc 1 171 207
	lw	a4,-268(s0)
	.loc 1 171 236
	lw	a5,-288(s0)
	.loc 1 171 227
	xor	a4,a4,a5
	.loc 1 171 265
	lw	a5,-248(s0)
	.loc 1 171 256
	xor	a4,a4,a5
	.loc 1 171 295
	lw	a5,-256(s0)
	.loc 1 171 286
	xor	a5,a4,a5
	.loc 1 171 198
	sw	a5,-296(s0)
	.loc 1 171 32
	lw	a5,-212(s0)
	.loc 1 171 45
	srli	a4,a5,27
	slli	a5,a5,5
	add	a5,a5,a4
	.loc 1 171 102
	lw	a3,-228(s0)
	.loc 1 171 116
	lw	a4,-224(s0)
	.loc 1 171 107
	and	a3,a3,a4
	.loc 1 171 132
	lw	a2,-220(s0)
	.loc 1 171 147
	lw	a1,-228(s0)
	.loc 1 171 161
	lw	a4,-224(s0)
	.loc 1 171 152
	or	a4,a1,a4
	.loc 1 171 137
	and	a4,a2,a4
	.loc 1 171 122
	or	a4,a3,a4
	.loc 1 171 91
	add	a4,a5,a4
	.loc 1 171 342
	lw	a5,-296(s0)
	.loc 1 171 357
	srli	a3,a5,31
	slli	a5,a5,1
	add	a5,a5,a3
	.loc 1 171 332
	sw	a5,-256(s0)
	.loc 1 171 318
	lw	a5,-256(s0)
	.loc 1 171 182
	add	a4,a4,a5
	li	a5,-1894006784
	addi	a5,a5,-804
	add	a4,a4,a5
	.loc 1 171 16
	lw	a5,-216(s0)
	.loc 1 171 20
	add	a5,a4,a5
	sw	a5,-216(s0)
	.loc 1 171 430
	lw	a5,-228(s0)
	.loc 1 171 444
	srli	a4,a5,2
	slli	a5,a5,30
	add	a5,a5,a4
	.loc 1 171 419
	sw	a5,-228(s0)
	.loc 1 172 207
	lw	a4,-264(s0)
	.loc 1 172 236
	lw	a5,-284(s0)
	.loc 1 172 227
	xor	a4,a4,a5
	.loc 1 172 265
	lw	a5,-244(s0)
	.loc 1 172 256
	xor	a4,a4,a5
	.loc 1 172 295
	lw	a5,-252(s0)
	.loc 1 172 286
	xor	a5,a4,a5
	.loc 1 172 198
	sw	a5,-296(s0)
	.loc 1 172 32
	lw	a5,-216(s0)
	.loc 1 172 45
	srli	a4,a5,27
	slli	a5,a5,5
	add	a5,a5,a4
	.loc 1 172 102
	lw	a3,-212(s0)
	.loc 1 172 116
	lw	a4,-228(s0)
	.loc 1 172 107
	and	a3,a3,a4
	.loc 1 172 132
	lw	a2,-224(s0)
	.loc 1 172 147
	lw	a1,-212(s0)
	.loc 1 172 161
	lw	a4,-228(s0)
	.loc 1 172 152
	or	a4,a1,a4
	.loc 1 172 137
	and	a4,a2,a4
	.loc 1 172 122
	or	a4,a3,a4
	.loc 1 172 91
	add	a4,a5,a4
	.loc 1 172 342
	lw	a5,-296(s0)
	.loc 1 172 357
	srli	a3,a5,31
	slli	a5,a5,1
	add	a5,a5,a3
	.loc 1 172 332
	sw	a5,-252(s0)
	.loc 1 172 318
	lw	a5,-252(s0)
	.loc 1 172 182
	add	a4,a4,a5
	li	a5,-1894006784
	addi	a5,a5,-804
	add	a4,a4,a5
	.loc 1 172 16
	lw	a5,-220(s0)
	.loc 1 172 20
	add	a5,a4,a5
	sw	a5,-220(s0)
	.loc 1 172 430
	lw	a5,-212(s0)
	.loc 1 172 444
	srli	a4,a5,2
	slli	a5,a5,30
	add	a5,a5,a4
	.loc 1 172 419
	sw	a5,-212(s0)
	.loc 1 173 207
	lw	a4,-260(s0)
	.loc 1 173 236
	lw	a5,-280(s0)
	.loc 1 173 227
	xor	a4,a4,a5
	.loc 1 173 265
	lw	a5,-240(s0)
	.loc 1 173 256
	xor	a4,a4,a5
	.loc 1 173 295
	lw	a5,-248(s0)
	.loc 1 173 286
	xor	a5,a4,a5
	.loc 1 173 198
	sw	a5,-296(s0)
	.loc 1 173 32
	lw	a5,-220(s0)
	.loc 1 173 45
	srli	a4,a5,27
	slli	a5,a5,5
	add	a5,a5,a4
	.loc 1 173 102
	lw	a3,-216(s0)
	.loc 1 173 116
	lw	a4,-212(s0)
	.loc 1 173 107
	and	a3,a3,a4
	.loc 1 173 132
	lw	a2,-228(s0)
	.loc 1 173 147
	lw	a1,-216(s0)
	.loc 1 173 161
	lw	a4,-212(s0)
	.loc 1 173 152
	or	a4,a1,a4
	.loc 1 173 137
	and	a4,a2,a4
	.loc 1 173 122
	or	a4,a3,a4
	.loc 1 173 91
	add	a4,a5,a4
	.loc 1 173 342
	lw	a5,-296(s0)
	.loc 1 173 357
	srli	a3,a5,31
	slli	a5,a5,1
	add	a5,a5,a3
	.loc 1 173 332
	sw	a5,-248(s0)
	.loc 1 173 318
	lw	a5,-248(s0)
	.loc 1 173 182
	add	a4,a4,a5
	li	a5,-1894006784
	addi	a5,a5,-804
	add	a4,a4,a5
	.loc 1 173 16
	lw	a5,-224(s0)
	.loc 1 173 20
	add	a5,a4,a5
	sw	a5,-224(s0)
	.loc 1 173 430
	lw	a5,-216(s0)
	.loc 1 173 444
	srli	a4,a5,2
	slli	a5,a5,30
	add	a5,a5,a4
	.loc 1 173 419
	sw	a5,-216(s0)
	.loc 1 174 207
	lw	a4,-256(s0)
	.loc 1 174 236
	lw	a5,-276(s0)
	.loc 1 174 227
	xor	a4,a4,a5
	.loc 1 174 265
	lw	a5,-236(s0)
	.loc 1 174 256
	xor	a4,a4,a5
	.loc 1 174 295
	lw	a5,-244(s0)
	.loc 1 174 286
	xor	a5,a4,a5
	.loc 1 174 198
	sw	a5,-296(s0)
	.loc 1 174 32
	lw	a5,-224(s0)
	.loc 1 174 45
	srli	a4,a5,27
	slli	a5,a5,5
	add	a5,a5,a4
	.loc 1 174 102
	lw	a3,-220(s0)
	.loc 1 174 116
	lw	a4,-216(s0)
	.loc 1 174 107
	and	a3,a3,a4
	.loc 1 174 132
	lw	a2,-212(s0)
	.loc 1 174 147
	lw	a1,-220(s0)
	.loc 1 174 161
	lw	a4,-216(s0)
	.loc 1 174 152
	or	a4,a1,a4
	.loc 1 174 137
	and	a4,a2,a4
	.loc 1 174 122
	or	a4,a3,a4
	.loc 1 174 91
	add	a4,a5,a4
	.loc 1 174 342
	lw	a5,-296(s0)
	.loc 1 174 357
	srli	a3,a5,31
	slli	a5,a5,1
	add	a5,a5,a3
	.loc 1 174 332
	sw	a5,-244(s0)
	.loc 1 174 318
	lw	a5,-244(s0)
	.loc 1 174 182
	add	a4,a4,a5
	li	a5,-1894006784
	addi	a5,a5,-804
	add	a4,a4,a5
	.loc 1 174 16
	lw	a5,-228(s0)
	.loc 1 174 20
	add	a5,a4,a5
	sw	a5,-228(s0)
	.loc 1 174 430
	lw	a5,-220(s0)
	.loc 1 174 444
	srli	a4,a5,2
	slli	a5,a5,30
	add	a5,a5,a4
	.loc 1 174 419
	sw	a5,-220(s0)
	.loc 1 175 207
	lw	a4,-252(s0)
	.loc 1 175 236
	lw	a5,-272(s0)
	.loc 1 175 227
	xor	a4,a4,a5
	.loc 1 175 265
	lw	a5,-232(s0)
	.loc 1 175 256
	xor	a4,a4,a5
	.loc 1 175 295
	lw	a5,-240(s0)
	.loc 1 175 286
	xor	a5,a4,a5
	.loc 1 175 198
	sw	a5,-296(s0)
	.loc 1 175 32
	lw	a5,-228(s0)
	.loc 1 175 45
	srli	a4,a5,27
	slli	a5,a5,5
	add	a5,a5,a4
	.loc 1 175 102
	lw	a3,-224(s0)
	.loc 1 175 116
	lw	a4,-220(s0)
	.loc 1 175 107
	and	a3,a3,a4
	.loc 1 175 132
	lw	a2,-216(s0)
	.loc 1 175 147
	lw	a1,-224(s0)
	.loc 1 175 161
	lw	a4,-220(s0)
	.loc 1 175 152
	or	a4,a1,a4
	.loc 1 175 137
	and	a4,a2,a4
	.loc 1 175 122
	or	a4,a3,a4
	.loc 1 175 91
	add	a4,a5,a4
	.loc 1 175 342
	lw	a5,-296(s0)
	.loc 1 175 357
	srli	a3,a5,31
	slli	a5,a5,1
	add	a5,a5,a3
	.loc 1 175 332
	sw	a5,-240(s0)
	.loc 1 175 318
	lw	a5,-240(s0)
	.loc 1 175 182
	add	a4,a4,a5
	li	a5,-1894006784
	addi	a5,a5,-804
	add	a4,a4,a5
	.loc 1 175 16
	lw	a5,-212(s0)
	.loc 1 175 20
	add	a5,a4,a5
	sw	a5,-212(s0)
	.loc 1 175 430
	lw	a5,-224(s0)
	.loc 1 175 444
	srli	a4,a5,2
	slli	a5,a5,30
	add	a5,a5,a4
	.loc 1 175 419
	sw	a5,-224(s0)
	.loc 1 176 207
	lw	a4,-248(s0)
	.loc 1 176 236
	lw	a5,-268(s0)
	.loc 1 176 227
	xor	a4,a4,a5
	.loc 1 176 265
	lw	a5,-292(s0)
	.loc 1 176 256
	xor	a4,a4,a5
	.loc 1 176 295
	lw	a5,-236(s0)
	.loc 1 176 286
	xor	a5,a4,a5
	.loc 1 176 198
	sw	a5,-296(s0)
	.loc 1 176 32
	lw	a5,-212(s0)
	.loc 1 176 45
	srli	a4,a5,27
	slli	a5,a5,5
	add	a5,a5,a4
	.loc 1 176 102
	lw	a3,-228(s0)
	.loc 1 176 116
	lw	a4,-224(s0)
	.loc 1 176 107
	and	a3,a3,a4
	.loc 1 176 132
	lw	a2,-220(s0)
	.loc 1 176 147
	lw	a1,-228(s0)
	.loc 1 176 161
	lw	a4,-224(s0)
	.loc 1 176 152
	or	a4,a1,a4
	.loc 1 176 137
	and	a4,a2,a4
	.loc 1 176 122
	or	a4,a3,a4
	.loc 1 176 91
	add	a4,a5,a4
	.loc 1 176 342
	lw	a5,-296(s0)
	.loc 1 176 357
	srli	a3,a5,31
	slli	a5,a5,1
	add	a5,a5,a3
	.loc 1 176 332
	sw	a5,-236(s0)
	.loc 1 176 318
	lw	a5,-236(s0)
	.loc 1 176 182
	add	a4,a4,a5
	li	a5,-1894006784
	addi	a5,a5,-804
	add	a4,a4,a5
	.loc 1 176 16
	lw	a5,-216(s0)
	.loc 1 176 20
	add	a5,a4,a5
	sw	a5,-216(s0)
	.loc 1 176 430
	lw	a5,-228(s0)
	.loc 1 176 444
	srli	a4,a5,2
	slli	a5,a5,30
	add	a5,a5,a4
	.loc 1 176 419
	sw	a5,-228(s0)
	.loc 1 177 207
	lw	a4,-244(s0)
	.loc 1 177 236
	lw	a5,-264(s0)
	.loc 1 177 227
	xor	a4,a4,a5
	.loc 1 177 265
	lw	a5,-288(s0)
	.loc 1 177 256
	xor	a4,a4,a5
	.loc 1 177 295
	lw	a5,-232(s0)
	.loc 1 177 286
	xor	a5,a4,a5
	.loc 1 177 198
	sw	a5,-296(s0)
	.loc 1 177 32
	lw	a5,-216(s0)
	.loc 1 177 45
	srli	a4,a5,27
	slli	a5,a5,5
	add	a5,a5,a4
	.loc 1 177 102
	lw	a3,-212(s0)
	.loc 1 177 116
	lw	a4,-228(s0)
	.loc 1 177 107
	and	a3,a3,a4
	.loc 1 177 132
	lw	a2,-224(s0)
	.loc 1 177 147
	lw	a1,-212(s0)
	.loc 1 177 161
	lw	a4,-228(s0)
	.loc 1 177 152
	or	a4,a1,a4
	.loc 1 177 137
	and	a4,a2,a4
	.loc 1 177 122
	or	a4,a3,a4
	.loc 1 177 91
	add	a4,a5,a4
	.loc 1 177 342
	lw	a5,-296(s0)
	.loc 1 177 357
	srli	a3,a5,31
	slli	a5,a5,1
	add	a5,a5,a3
	.loc 1 177 332
	sw	a5,-232(s0)
	.loc 1 177 318
	lw	a5,-232(s0)
	.loc 1 177 182
	add	a4,a4,a5
	li	a5,-1894006784
	addi	a5,a5,-804
	add	a4,a4,a5
	.loc 1 177 16
	lw	a5,-220(s0)
	.loc 1 177 20
	add	a5,a4,a5
	sw	a5,-220(s0)
	.loc 1 177 430
	lw	a5,-212(s0)
	.loc 1 177 444
	srli	a4,a5,2
	slli	a5,a5,30
	add	a5,a5,a4
	.loc 1 177 419
	sw	a5,-212(s0)
	.loc 1 178 207
	lw	a4,-240(s0)
	.loc 1 178 236
	lw	a5,-260(s0)
	.loc 1 178 227
	xor	a4,a4,a5
	.loc 1 178 265
	lw	a5,-284(s0)
	.loc 1 178 256
	xor	a4,a4,a5
	.loc 1 178 295
	lw	a5,-292(s0)
	.loc 1 178 286
	xor	a5,a4,a5
	.loc 1 178 198
	sw	a5,-296(s0)
	.loc 1 178 32
	lw	a5,-220(s0)
	.loc 1 178 45
	srli	a4,a5,27
	slli	a5,a5,5
	add	a5,a5,a4
	.loc 1 178 102
	lw	a3,-216(s0)
	.loc 1 178 116
	lw	a4,-212(s0)
	.loc 1 178 107
	and	a3,a3,a4
	.loc 1 178 132
	lw	a2,-228(s0)
	.loc 1 178 147
	lw	a1,-216(s0)
	.loc 1 178 161
	lw	a4,-212(s0)
	.loc 1 178 152
	or	a4,a1,a4
	.loc 1 178 137
	and	a4,a2,a4
	.loc 1 178 122
	or	a4,a3,a4
	.loc 1 178 91
	add	a4,a5,a4
	.loc 1 178 342
	lw	a5,-296(s0)
	.loc 1 178 357
	srli	a3,a5,31
	slli	a5,a5,1
	add	a5,a5,a3
	.loc 1 178 332
	sw	a5,-292(s0)
	.loc 1 178 318
	lw	a5,-292(s0)
	.loc 1 178 182
	add	a4,a4,a5
	li	a5,-1894006784
	addi	a5,a5,-804
	add	a4,a4,a5
	.loc 1 178 16
	lw	a5,-224(s0)
	.loc 1 178 20
	add	a5,a4,a5
	sw	a5,-224(s0)
	.loc 1 178 430
	lw	a5,-216(s0)
	.loc 1 178 444
	srli	a4,a5,2
	slli	a5,a5,30
	add	a5,a5,a4
	.loc 1 178 419
	sw	a5,-216(s0)
	.loc 1 179 207
	lw	a4,-236(s0)
	.loc 1 179 236
	lw	a5,-256(s0)
	.loc 1 179 227
	xor	a4,a4,a5
	.loc 1 179 265
	lw	a5,-280(s0)
	.loc 1 179 256
	xor	a4,a4,a5
	.loc 1 179 295
	lw	a5,-288(s0)
	.loc 1 179 286
	xor	a5,a4,a5
	.loc 1 179 198
	sw	a5,-296(s0)
	.loc 1 179 32
	lw	a5,-224(s0)
	.loc 1 179 45
	srli	a4,a5,27
	slli	a5,a5,5
	add	a5,a5,a4
	.loc 1 179 102
	lw	a3,-220(s0)
	.loc 1 179 116
	lw	a4,-216(s0)
	.loc 1 179 107
	and	a3,a3,a4
	.loc 1 179 132
	lw	a2,-212(s0)
	.loc 1 179 147
	lw	a1,-220(s0)
	.loc 1 179 161
	lw	a4,-216(s0)
	.loc 1 179 152
	or	a4,a1,a4
	.loc 1 179 137
	and	a4,a2,a4
	.loc 1 179 122
	or	a4,a3,a4
	.loc 1 179 91
	add	a4,a5,a4
	.loc 1 179 342
	lw	a5,-296(s0)
	.loc 1 179 357
	srli	a3,a5,31
	slli	a5,a5,1
	add	a5,a5,a3
	.loc 1 179 332
	sw	a5,-288(s0)
	.loc 1 179 318
	lw	a5,-288(s0)
	.loc 1 179 182
	add	a4,a4,a5
	li	a5,-1894006784
	addi	a5,a5,-804
	add	a4,a4,a5
	.loc 1 179 16
	lw	a5,-228(s0)
	.loc 1 179 20
	add	a5,a4,a5
	sw	a5,-228(s0)
	.loc 1 179 430
	lw	a5,-220(s0)
	.loc 1 179 444
	srli	a4,a5,2
	slli	a5,a5,30
	add	a5,a5,a4
	.loc 1 179 419
	sw	a5,-220(s0)
	.loc 1 180 207
	lw	a4,-232(s0)
	.loc 1 180 236
	lw	a5,-252(s0)
	.loc 1 180 227
	xor	a4,a4,a5
	.loc 1 180 265
	lw	a5,-276(s0)
	.loc 1 180 256
	xor	a4,a4,a5
	.loc 1 180 295
	lw	a5,-284(s0)
	.loc 1 180 286
	xor	a5,a4,a5
	.loc 1 180 198
	sw	a5,-296(s0)
	.loc 1 180 32
	lw	a5,-228(s0)
	.loc 1 180 45
	srli	a4,a5,27
	slli	a5,a5,5
	add	a5,a5,a4
	.loc 1 180 102
	lw	a3,-224(s0)
	.loc 1 180 116
	lw	a4,-220(s0)
	.loc 1 180 107
	and	a3,a3,a4
	.loc 1 180 132
	lw	a2,-216(s0)
	.loc 1 180 147
	lw	a1,-224(s0)
	.loc 1 180 161
	lw	a4,-220(s0)
	.loc 1 180 152
	or	a4,a1,a4
	.loc 1 180 137
	and	a4,a2,a4
	.loc 1 180 122
	or	a4,a3,a4
	.loc 1 180 91
	add	a4,a5,a4
	.loc 1 180 342
	lw	a5,-296(s0)
	.loc 1 180 357
	srli	a3,a5,31
	slli	a5,a5,1
	add	a5,a5,a3
	.loc 1 180 332
	sw	a5,-284(s0)
	.loc 1 180 318
	lw	a5,-284(s0)
	.loc 1 180 182
	add	a4,a4,a5
	li	a5,-1894006784
	addi	a5,a5,-804
	add	a4,a4,a5
	.loc 1 180 16
	lw	a5,-212(s0)
	.loc 1 180 20
	add	a5,a4,a5
	sw	a5,-212(s0)
	.loc 1 180 430
	lw	a5,-224(s0)
	.loc 1 180 444
	srli	a4,a5,2
	slli	a5,a5,30
	add	a5,a5,a4
	.loc 1 180 419
	sw	a5,-224(s0)
	.loc 1 181 207
	lw	a4,-292(s0)
	.loc 1 181 236
	lw	a5,-248(s0)
	.loc 1 181 227
	xor	a4,a4,a5
	.loc 1 181 265
	lw	a5,-272(s0)
	.loc 1 181 256
	xor	a4,a4,a5
	.loc 1 181 295
	lw	a5,-280(s0)
	.loc 1 181 286
	xor	a5,a4,a5
	.loc 1 181 198
	sw	a5,-296(s0)
	.loc 1 181 32
	lw	a5,-212(s0)
	.loc 1 181 45
	srli	a4,a5,27
	slli	a5,a5,5
	add	a5,a5,a4
	.loc 1 181 102
	lw	a3,-228(s0)
	.loc 1 181 116
	lw	a4,-224(s0)
	.loc 1 181 107
	and	a3,a3,a4
	.loc 1 181 132
	lw	a2,-220(s0)
	.loc 1 181 147
	lw	a1,-228(s0)
	.loc 1 181 161
	lw	a4,-224(s0)
	.loc 1 181 152
	or	a4,a1,a4
	.loc 1 181 137
	and	a4,a2,a4
	.loc 1 181 122
	or	a4,a3,a4
	.loc 1 181 91
	add	a4,a5,a4
	.loc 1 181 342
	lw	a5,-296(s0)
	.loc 1 181 357
	srli	a3,a5,31
	slli	a5,a5,1
	add	a5,a5,a3
	.loc 1 181 332
	sw	a5,-280(s0)
	.loc 1 181 318
	lw	a5,-280(s0)
	.loc 1 181 182
	add	a4,a4,a5
	li	a5,-1894006784
	addi	a5,a5,-804
	add	a4,a4,a5
	.loc 1 181 16
	lw	a5,-216(s0)
	.loc 1 181 20
	add	a5,a4,a5
	sw	a5,-216(s0)
	.loc 1 181 430
	lw	a5,-228(s0)
	.loc 1 181 444
	srli	a4,a5,2
	slli	a5,a5,30
	add	a5,a5,a4
	.loc 1 181 419
	sw	a5,-228(s0)
	.loc 1 182 207
	lw	a4,-288(s0)
	.loc 1 182 236
	lw	a5,-244(s0)
	.loc 1 182 227
	xor	a4,a4,a5
	.loc 1 182 265
	lw	a5,-268(s0)
	.loc 1 182 256
	xor	a4,a4,a5
	.loc 1 182 295
	lw	a5,-276(s0)
	.loc 1 182 286
	xor	a5,a4,a5
	.loc 1 182 198
	sw	a5,-296(s0)
	.loc 1 182 32
	lw	a5,-216(s0)
	.loc 1 182 45
	srli	a4,a5,27
	slli	a5,a5,5
	add	a5,a5,a4
	.loc 1 182 102
	lw	a3,-212(s0)
	.loc 1 182 116
	lw	a4,-228(s0)
	.loc 1 182 107
	and	a3,a3,a4
	.loc 1 182 132
	lw	a2,-224(s0)
	.loc 1 182 147
	lw	a1,-212(s0)
	.loc 1 182 161
	lw	a4,-228(s0)
	.loc 1 182 152
	or	a4,a1,a4
	.loc 1 182 137
	and	a4,a2,a4
	.loc 1 182 122
	or	a4,a3,a4
	.loc 1 182 91
	add	a4,a5,a4
	.loc 1 182 342
	lw	a5,-296(s0)
	.loc 1 182 357
	srli	a3,a5,31
	slli	a5,a5,1
	add	a5,a5,a3
	.loc 1 182 332
	sw	a5,-276(s0)
	.loc 1 182 318
	lw	a5,-276(s0)
	.loc 1 182 182
	add	a4,a4,a5
	li	a5,-1894006784
	addi	a5,a5,-804
	add	a4,a4,a5
	.loc 1 182 16
	lw	a5,-220(s0)
	.loc 1 182 20
	add	a5,a4,a5
	sw	a5,-220(s0)
	.loc 1 182 430
	lw	a5,-212(s0)
	.loc 1 182 444
	srli	a4,a5,2
	slli	a5,a5,30
	add	a5,a5,a4
	.loc 1 182 419
	sw	a5,-212(s0)
	.loc 1 183 207
	lw	a4,-284(s0)
	.loc 1 183 236
	lw	a5,-240(s0)
	.loc 1 183 227
	xor	a4,a4,a5
	.loc 1 183 265
	lw	a5,-264(s0)
	.loc 1 183 256
	xor	a4,a4,a5
	.loc 1 183 295
	lw	a5,-272(s0)
	.loc 1 183 286
	xor	a5,a4,a5
	.loc 1 183 198
	sw	a5,-296(s0)
	.loc 1 183 32
	lw	a5,-220(s0)
	.loc 1 183 45
	srli	a4,a5,27
	slli	a5,a5,5
	add	a5,a5,a4
	.loc 1 183 102
	lw	a3,-216(s0)
	.loc 1 183 116
	lw	a4,-212(s0)
	.loc 1 183 107
	and	a3,a3,a4
	.loc 1 183 132
	lw	a2,-228(s0)
	.loc 1 183 147
	lw	a1,-216(s0)
	.loc 1 183 161
	lw	a4,-212(s0)
	.loc 1 183 152
	or	a4,a1,a4
	.loc 1 183 137
	and	a4,a2,a4
	.loc 1 183 122
	or	a4,a3,a4
	.loc 1 183 91
	add	a4,a5,a4
	.loc 1 183 342
	lw	a5,-296(s0)
	.loc 1 183 357
	srli	a3,a5,31
	slli	a5,a5,1
	add	a5,a5,a3
	.loc 1 183 332
	sw	a5,-272(s0)
	.loc 1 183 318
	lw	a5,-272(s0)
	.loc 1 183 182
	add	a4,a4,a5
	li	a5,-1894006784
	addi	a5,a5,-804
	add	a4,a4,a5
	.loc 1 183 16
	lw	a5,-224(s0)
	.loc 1 183 20
	add	a5,a4,a5
	sw	a5,-224(s0)
	.loc 1 183 430
	lw	a5,-216(s0)
	.loc 1 183 444
	srli	a4,a5,2
	slli	a5,a5,30
	add	a5,a5,a4
	.loc 1 183 419
	sw	a5,-216(s0)
	.loc 1 184 207
	lw	a4,-280(s0)
	.loc 1 184 236
	lw	a5,-236(s0)
	.loc 1 184 227
	xor	a4,a4,a5
	.loc 1 184 265
	lw	a5,-260(s0)
	.loc 1 184 256
	xor	a4,a4,a5
	.loc 1 184 295
	lw	a5,-268(s0)
	.loc 1 184 286
	xor	a5,a4,a5
	.loc 1 184 198
	sw	a5,-296(s0)
	.loc 1 184 32
	lw	a5,-224(s0)
	.loc 1 184 45
	srli	a4,a5,27
	slli	a5,a5,5
	add	a5,a5,a4
	.loc 1 184 102
	lw	a3,-220(s0)
	.loc 1 184 116
	lw	a4,-216(s0)
	.loc 1 184 107
	and	a3,a3,a4
	.loc 1 184 132
	lw	a2,-212(s0)
	.loc 1 184 147
	lw	a1,-220(s0)
	.loc 1 184 161
	lw	a4,-216(s0)
	.loc 1 184 152
	or	a4,a1,a4
	.loc 1 184 137
	and	a4,a2,a4
	.loc 1 184 122
	or	a4,a3,a4
	.loc 1 184 91
	add	a4,a5,a4
	.loc 1 184 342
	lw	a5,-296(s0)
	.loc 1 184 357
	srli	a3,a5,31
	slli	a5,a5,1
	add	a5,a5,a3
	.loc 1 184 332
	sw	a5,-268(s0)
	.loc 1 184 318
	lw	a5,-268(s0)
	.loc 1 184 182
	add	a4,a4,a5
	li	a5,-1894006784
	addi	a5,a5,-804
	add	a4,a4,a5
	.loc 1 184 16
	lw	a5,-228(s0)
	.loc 1 184 20
	add	a5,a4,a5
	sw	a5,-228(s0)
	.loc 1 184 430
	lw	a5,-220(s0)
	.loc 1 184 444
	srli	a4,a5,2
	slli	a5,a5,30
	add	a5,a5,a4
	.loc 1 184 419
	sw	a5,-220(s0)
	.loc 1 185 207
	lw	a4,-276(s0)
	.loc 1 185 236
	lw	a5,-232(s0)
	.loc 1 185 227
	xor	a4,a4,a5
	.loc 1 185 265
	lw	a5,-256(s0)
	.loc 1 185 256
	xor	a4,a4,a5
	.loc 1 185 295
	lw	a5,-264(s0)
	.loc 1 185 286
	xor	a5,a4,a5
	.loc 1 185 198
	sw	a5,-296(s0)
	.loc 1 185 32
	lw	a5,-228(s0)
	.loc 1 185 45
	srli	a4,a5,27
	slli	a5,a5,5
	add	a5,a5,a4
	.loc 1 185 102
	lw	a3,-224(s0)
	.loc 1 185 116
	lw	a4,-220(s0)
	.loc 1 185 107
	and	a3,a3,a4
	.loc 1 185 132
	lw	a2,-216(s0)
	.loc 1 185 147
	lw	a1,-224(s0)
	.loc 1 185 161
	lw	a4,-220(s0)
	.loc 1 185 152
	or	a4,a1,a4
	.loc 1 185 137
	and	a4,a2,a4
	.loc 1 185 122
	or	a4,a3,a4
	.loc 1 185 91
	add	a4,a5,a4
	.loc 1 185 342
	lw	a5,-296(s0)
	.loc 1 185 357
	srli	a3,a5,31
	slli	a5,a5,1
	add	a5,a5,a3
	.loc 1 185 332
	sw	a5,-264(s0)
	.loc 1 185 318
	lw	a5,-264(s0)
	.loc 1 185 182
	add	a4,a4,a5
	li	a5,-1894006784
	addi	a5,a5,-804
	add	a4,a4,a5
	.loc 1 185 16
	lw	a5,-212(s0)
	.loc 1 185 20
	add	a5,a4,a5
	sw	a5,-212(s0)
	.loc 1 185 430
	lw	a5,-224(s0)
	.loc 1 185 444
	srli	a4,a5,2
	slli	a5,a5,30
	add	a5,a5,a4
	.loc 1 185 419
	sw	a5,-224(s0)
	.loc 1 186 207
	lw	a4,-272(s0)
	.loc 1 186 236
	lw	a5,-292(s0)
	.loc 1 186 227
	xor	a4,a4,a5
	.loc 1 186 265
	lw	a5,-252(s0)
	.loc 1 186 256
	xor	a4,a4,a5
	.loc 1 186 295
	lw	a5,-260(s0)
	.loc 1 186 286
	xor	a5,a4,a5
	.loc 1 186 198
	sw	a5,-296(s0)
	.loc 1 186 32
	lw	a5,-212(s0)
	.loc 1 186 45
	srli	a4,a5,27
	slli	a5,a5,5
	add	a5,a5,a4
	.loc 1 186 102
	lw	a3,-228(s0)
	.loc 1 186 116
	lw	a4,-224(s0)
	.loc 1 186 107
	and	a3,a3,a4
	.loc 1 186 132
	lw	a2,-220(s0)
	.loc 1 186 147
	lw	a1,-228(s0)
	.loc 1 186 161
	lw	a4,-224(s0)
	.loc 1 186 152
	or	a4,a1,a4
	.loc 1 186 137
	and	a4,a2,a4
	.loc 1 186 122
	or	a4,a3,a4
	.loc 1 186 91
	add	a4,a5,a4
	.loc 1 186 342
	lw	a5,-296(s0)
	.loc 1 186 357
	srli	a3,a5,31
	slli	a5,a5,1
	add	a5,a5,a3
	.loc 1 186 332
	sw	a5,-260(s0)
	.loc 1 186 318
	lw	a5,-260(s0)
	.loc 1 186 182
	add	a4,a4,a5
	li	a5,-1894006784
	addi	a5,a5,-804
	add	a4,a4,a5
	.loc 1 186 16
	lw	a5,-216(s0)
	.loc 1 186 20
	add	a5,a4,a5
	sw	a5,-216(s0)
	.loc 1 186 430
	lw	a5,-228(s0)
	.loc 1 186 444
	srli	a4,a5,2
	slli	a5,a5,30
	add	a5,a5,a4
	.loc 1 186 419
	sw	a5,-228(s0)
	.loc 1 187 207
	lw	a4,-268(s0)
	.loc 1 187 236
	lw	a5,-288(s0)
	.loc 1 187 227
	xor	a4,a4,a5
	.loc 1 187 265
	lw	a5,-248(s0)
	.loc 1 187 256
	xor	a4,a4,a5
	.loc 1 187 295
	lw	a5,-256(s0)
	.loc 1 187 286
	xor	a5,a4,a5
	.loc 1 187 198
	sw	a5,-296(s0)
	.loc 1 187 32
	lw	a5,-216(s0)
	.loc 1 187 45
	srli	a4,a5,27
	slli	a5,a5,5
	add	a5,a5,a4
	.loc 1 187 102
	lw	a3,-212(s0)
	.loc 1 187 116
	lw	a4,-228(s0)
	.loc 1 187 107
	and	a3,a3,a4
	.loc 1 187 132
	lw	a2,-224(s0)
	.loc 1 187 147
	lw	a1,-212(s0)
	.loc 1 187 161
	lw	a4,-228(s0)
	.loc 1 187 152
	or	a4,a1,a4
	.loc 1 187 137
	and	a4,a2,a4
	.loc 1 187 122
	or	a4,a3,a4
	.loc 1 187 91
	add	a4,a5,a4
	.loc 1 187 342
	lw	a5,-296(s0)
	.loc 1 187 357
	srli	a3,a5,31
	slli	a5,a5,1
	add	a5,a5,a3
	.loc 1 187 332
	sw	a5,-256(s0)
	.loc 1 187 318
	lw	a5,-256(s0)
	.loc 1 187 182
	add	a4,a4,a5
	li	a5,-1894006784
	addi	a5,a5,-804
	add	a4,a4,a5
	.loc 1 187 16
	lw	a5,-220(s0)
	.loc 1 187 20
	add	a5,a4,a5
	sw	a5,-220(s0)
	.loc 1 187 430
	lw	a5,-212(s0)
	.loc 1 187 444
	srli	a4,a5,2
	slli	a5,a5,30
	add	a5,a5,a4
	.loc 1 187 419
	sw	a5,-212(s0)
	.loc 1 188 207
	lw	a4,-264(s0)
	.loc 1 188 236
	lw	a5,-284(s0)
	.loc 1 188 227
	xor	a4,a4,a5
	.loc 1 188 265
	lw	a5,-244(s0)
	.loc 1 188 256
	xor	a4,a4,a5
	.loc 1 188 295
	lw	a5,-252(s0)
	.loc 1 188 286
	xor	a5,a4,a5
	.loc 1 188 198
	sw	a5,-296(s0)
	.loc 1 188 32
	lw	a5,-220(s0)
	.loc 1 188 45
	srli	a4,a5,27
	slli	a5,a5,5
	add	a5,a5,a4
	.loc 1 188 102
	lw	a3,-216(s0)
	.loc 1 188 116
	lw	a4,-212(s0)
	.loc 1 188 107
	and	a3,a3,a4
	.loc 1 188 132
	lw	a2,-228(s0)
	.loc 1 188 147
	lw	a1,-216(s0)
	.loc 1 188 161
	lw	a4,-212(s0)
	.loc 1 188 152
	or	a4,a1,a4
	.loc 1 188 137
	and	a4,a2,a4
	.loc 1 188 122
	or	a4,a3,a4
	.loc 1 188 91
	add	a4,a5,a4
	.loc 1 188 342
	lw	a5,-296(s0)
	.loc 1 188 357
	srli	a3,a5,31
	slli	a5,a5,1
	add	a5,a5,a3
	.loc 1 188 332
	sw	a5,-252(s0)
	.loc 1 188 318
	lw	a5,-252(s0)
	.loc 1 188 182
	add	a4,a4,a5
	li	a5,-1894006784
	addi	a5,a5,-804
	add	a4,a4,a5
	.loc 1 188 16
	lw	a5,-224(s0)
	.loc 1 188 20
	add	a5,a4,a5
	sw	a5,-224(s0)
	.loc 1 188 430
	lw	a5,-216(s0)
	.loc 1 188 444
	srli	a4,a5,2
	slli	a5,a5,30
	add	a5,a5,a4
	.loc 1 188 419
	sw	a5,-216(s0)
	.loc 1 189 207
	lw	a4,-260(s0)
	.loc 1 189 236
	lw	a5,-280(s0)
	.loc 1 189 227
	xor	a4,a4,a5
	.loc 1 189 265
	lw	a5,-240(s0)
	.loc 1 189 256
	xor	a4,a4,a5
	.loc 1 189 295
	lw	a5,-248(s0)
	.loc 1 189 286
	xor	a5,a4,a5
	.loc 1 189 198
	sw	a5,-296(s0)
	.loc 1 189 32
	lw	a5,-224(s0)
	.loc 1 189 45
	srli	a4,a5,27
	slli	a5,a5,5
	add	a5,a5,a4
	.loc 1 189 102
	lw	a3,-220(s0)
	.loc 1 189 116
	lw	a4,-216(s0)
	.loc 1 189 107
	and	a3,a3,a4
	.loc 1 189 132
	lw	a2,-212(s0)
	.loc 1 189 147
	lw	a1,-220(s0)
	.loc 1 189 161
	lw	a4,-216(s0)
	.loc 1 189 152
	or	a4,a1,a4
	.loc 1 189 137
	and	a4,a2,a4
	.loc 1 189 122
	or	a4,a3,a4
	.loc 1 189 91
	add	a4,a5,a4
	.loc 1 189 342
	lw	a5,-296(s0)
	.loc 1 189 357
	srli	a3,a5,31
	slli	a5,a5,1
	add	a5,a5,a3
	.loc 1 189 332
	sw	a5,-248(s0)
	.loc 1 189 318
	lw	a5,-248(s0)
	.loc 1 189 182
	add	a4,a4,a5
	li	a5,-1894006784
	addi	a5,a5,-804
	add	a4,a4,a5
	.loc 1 189 16
	lw	a5,-228(s0)
	.loc 1 189 20
	add	a5,a4,a5
	sw	a5,-228(s0)
	.loc 1 189 430
	lw	a5,-220(s0)
	.loc 1 189 444
	srli	a4,a5,2
	slli	a5,a5,30
	add	a5,a5,a4
	.loc 1 189 419
	sw	a5,-220(s0)
	.loc 1 197 173
	lw	a4,-256(s0)
	.loc 1 197 202
	lw	a5,-276(s0)
	.loc 1 197 193
	xor	a4,a4,a5
	.loc 1 197 231
	lw	a5,-236(s0)
	.loc 1 197 222
	xor	a4,a4,a5
	.loc 1 197 261
	lw	a5,-244(s0)
	.loc 1 197 252
	xor	a5,a4,a5
	.loc 1 197 164
	sw	a5,-296(s0)
	.loc 1 197 32
	lw	a5,-228(s0)
	.loc 1 197 45
	srli	a4,a5,27
	slli	a5,a5,5
	add	a5,a5,a4
	.loc 1 197 101
	lw	a3,-224(s0)
	.loc 1 197 115
	lw	a4,-220(s0)
	.loc 1 197 106
	xor	a3,a3,a4
	.loc 1 197 129
	lw	a4,-216(s0)
	.loc 1 197 120
	xor	a4,a3,a4
	.loc 1 197 91
	add	a4,a5,a4
	.loc 1 197 308
	lw	a5,-296(s0)
	.loc 1 197 323
	srli	a3,a5,31
	slli	a5,a5,1
	add	a5,a5,a3
	.loc 1 197 298
	sw	a5,-244(s0)
	.loc 1 197 284
	lw	a5,-244(s0)
	.loc 1 197 148
	add	a4,a4,a5
	li	a5,-899497984
	addi	a5,a5,470
	add	a4,a4,a5
	.loc 1 197 16
	lw	a5,-212(s0)
	.loc 1 197 20
	add	a5,a4,a5
	sw	a5,-212(s0)
	.loc 1 197 396
	lw	a5,-224(s0)
	.loc 1 197 410
	srli	a4,a5,2
	slli	a5,a5,30
	add	a5,a5,a4
	.loc 1 197 385
	sw	a5,-224(s0)
	.loc 1 198 173
	lw	a4,-252(s0)
	.loc 1 198 202
	lw	a5,-272(s0)
	.loc 1 198 193
	xor	a4,a4,a5
	.loc 1 198 231
	lw	a5,-232(s0)
	.loc 1 198 222
	xor	a4,a4,a5
	.loc 1 198 261
	lw	a5,-240(s0)
	.loc 1 198 252
	xor	a5,a4,a5
	.loc 1 198 164
	sw	a5,-296(s0)
	.loc 1 198 32
	lw	a5,-212(s0)
	.loc 1 198 45
	srli	a4,a5,27
	slli	a5,a5,5
	add	a5,a5,a4
	.loc 1 198 101
	lw	a3,-228(s0)
	.loc 1 198 115
	lw	a4,-224(s0)
	.loc 1 198 106
	xor	a3,a3,a4
	.loc 1 198 129
	lw	a4,-220(s0)
	.loc 1 198 120
	xor	a4,a3,a4
	.loc 1 198 91
	add	a4,a5,a4
	.loc 1 198 308
	lw	a5,-296(s0)
	.loc 1 198 323
	srli	a3,a5,31
	slli	a5,a5,1
	add	a5,a5,a3
	.loc 1 198 298
	sw	a5,-240(s0)
	.loc 1 198 284
	lw	a5,-240(s0)
	.loc 1 198 148
	add	a4,a4,a5
	li	a5,-899497984
	addi	a5,a5,470
	add	a4,a4,a5
	.loc 1 198 16
	lw	a5,-216(s0)
	.loc 1 198 20
	add	a5,a4,a5
	sw	a5,-216(s0)
	.loc 1 198 396
	lw	a5,-228(s0)
	.loc 1 198 410
	srli	a4,a5,2
	slli	a5,a5,30
	add	a5,a5,a4
	.loc 1 198 385
	sw	a5,-228(s0)
	.loc 1 199 173
	lw	a4,-248(s0)
	.loc 1 199 202
	lw	a5,-268(s0)
	.loc 1 199 193
	xor	a4,a4,a5
	.loc 1 199 231
	lw	a5,-292(s0)
	.loc 1 199 222
	xor	a4,a4,a5
	.loc 1 199 261
	lw	a5,-236(s0)
	.loc 1 199 252
	xor	a5,a4,a5
	.loc 1 199 164
	sw	a5,-296(s0)
	.loc 1 199 32
	lw	a5,-216(s0)
	.loc 1 199 45
	srli	a4,a5,27
	slli	a5,a5,5
	add	a5,a5,a4
	.loc 1 199 101
	lw	a3,-212(s0)
	.loc 1 199 115
	lw	a4,-228(s0)
	.loc 1 199 106
	xor	a3,a3,a4
	.loc 1 199 129
	lw	a4,-224(s0)
	.loc 1 199 120
	xor	a4,a3,a4
	.loc 1 199 91
	add	a4,a5,a4
	.loc 1 199 308
	lw	a5,-296(s0)
	.loc 1 199 323
	srli	a3,a5,31
	slli	a5,a5,1
	add	a5,a5,a3
	.loc 1 199 298
	sw	a5,-236(s0)
	.loc 1 199 284
	lw	a5,-236(s0)
	.loc 1 199 148
	add	a4,a4,a5
	li	a5,-899497984
	addi	a5,a5,470
	add	a4,a4,a5
	.loc 1 199 16
	lw	a5,-220(s0)
	.loc 1 199 20
	add	a5,a4,a5
	sw	a5,-220(s0)
	.loc 1 199 396
	lw	a5,-212(s0)
	.loc 1 199 410
	srli	a4,a5,2
	slli	a5,a5,30
	add	a5,a5,a4
	.loc 1 199 385
	sw	a5,-212(s0)
	.loc 1 200 173
	lw	a4,-244(s0)
	.loc 1 200 202
	lw	a5,-264(s0)
	.loc 1 200 193
	xor	a4,a4,a5
	.loc 1 200 231
	lw	a5,-288(s0)
	.loc 1 200 222
	xor	a4,a4,a5
	.loc 1 200 261
	lw	a5,-232(s0)
	.loc 1 200 252
	xor	a5,a4,a5
	.loc 1 200 164
	sw	a5,-296(s0)
	.loc 1 200 32
	lw	a5,-220(s0)
	.loc 1 200 45
	srli	a4,a5,27
	slli	a5,a5,5
	add	a5,a5,a4
	.loc 1 200 101
	lw	a3,-216(s0)
	.loc 1 200 115
	lw	a4,-212(s0)
	.loc 1 200 106
	xor	a3,a3,a4
	.loc 1 200 129
	lw	a4,-228(s0)
	.loc 1 200 120
	xor	a4,a3,a4
	.loc 1 200 91
	add	a4,a5,a4
	.loc 1 200 308
	lw	a5,-296(s0)
	.loc 1 200 323
	srli	a3,a5,31
	slli	a5,a5,1
	add	a5,a5,a3
	.loc 1 200 298
	sw	a5,-232(s0)
	.loc 1 200 284
	lw	a5,-232(s0)
	.loc 1 200 148
	add	a4,a4,a5
	li	a5,-899497984
	addi	a5,a5,470
	add	a4,a4,a5
	.loc 1 200 16
	lw	a5,-224(s0)
	.loc 1 200 20
	add	a5,a4,a5
	sw	a5,-224(s0)
	.loc 1 200 396
	lw	a5,-216(s0)
	.loc 1 200 410
	srli	a4,a5,2
	slli	a5,a5,30
	add	a5,a5,a4
	.loc 1 200 385
	sw	a5,-216(s0)
	.loc 1 201 173
	lw	a4,-240(s0)
	.loc 1 201 202
	lw	a5,-260(s0)
	.loc 1 201 193
	xor	a4,a4,a5
	.loc 1 201 231
	lw	a5,-284(s0)
	.loc 1 201 222
	xor	a4,a4,a5
	.loc 1 201 261
	lw	a5,-292(s0)
	.loc 1 201 252
	xor	a5,a4,a5
	.loc 1 201 164
	sw	a5,-296(s0)
	.loc 1 201 32
	lw	a5,-224(s0)
	.loc 1 201 45
	srli	a4,a5,27
	slli	a5,a5,5
	add	a5,a5,a4
	.loc 1 201 101
	lw	a3,-220(s0)
	.loc 1 201 115
	lw	a4,-216(s0)
	.loc 1 201 106
	xor	a3,a3,a4
	.loc 1 201 129
	lw	a4,-212(s0)
	.loc 1 201 120
	xor	a4,a3,a4
	.loc 1 201 91
	add	a4,a5,a4
	.loc 1 201 308
	lw	a5,-296(s0)
	.loc 1 201 323
	srli	a3,a5,31
	slli	a5,a5,1
	add	a5,a5,a3
	.loc 1 201 298
	sw	a5,-292(s0)
	.loc 1 201 284
	lw	a5,-292(s0)
	.loc 1 201 148
	add	a4,a4,a5
	li	a5,-899497984
	addi	a5,a5,470
	add	a4,a4,a5
	.loc 1 201 16
	lw	a5,-228(s0)
	.loc 1 201 20
	add	a5,a4,a5
	sw	a5,-228(s0)
	.loc 1 201 396
	lw	a5,-220(s0)
	.loc 1 201 410
	srli	a4,a5,2
	slli	a5,a5,30
	add	a5,a5,a4
	.loc 1 201 385
	sw	a5,-220(s0)
	.loc 1 202 173
	lw	a4,-236(s0)
	.loc 1 202 202
	lw	a5,-256(s0)
	.loc 1 202 193
	xor	a4,a4,a5
	.loc 1 202 231
	lw	a5,-280(s0)
	.loc 1 202 222
	xor	a4,a4,a5
	.loc 1 202 261
	lw	a5,-288(s0)
	.loc 1 202 252
	xor	a5,a4,a5
	.loc 1 202 164
	sw	a5,-296(s0)
	.loc 1 202 32
	lw	a5,-228(s0)
	.loc 1 202 45
	srli	a4,a5,27
	slli	a5,a5,5
	add	a5,a5,a4
	.loc 1 202 101
	lw	a3,-224(s0)
	.loc 1 202 115
	lw	a4,-220(s0)
	.loc 1 202 106
	xor	a3,a3,a4
	.loc 1 202 129
	lw	a4,-216(s0)
	.loc 1 202 120
	xor	a4,a3,a4
	.loc 1 202 91
	add	a4,a5,a4
	.loc 1 202 308
	lw	a5,-296(s0)
	.loc 1 202 323
	srli	a3,a5,31
	slli	a5,a5,1
	add	a5,a5,a3
	.loc 1 202 298
	sw	a5,-288(s0)
	.loc 1 202 284
	lw	a5,-288(s0)
	.loc 1 202 148
	add	a4,a4,a5
	li	a5,-899497984
	addi	a5,a5,470
	add	a4,a4,a5
	.loc 1 202 16
	lw	a5,-212(s0)
	.loc 1 202 20
	add	a5,a4,a5
	sw	a5,-212(s0)
	.loc 1 202 396
	lw	a5,-224(s0)
	.loc 1 202 410
	srli	a4,a5,2
	slli	a5,a5,30
	add	a5,a5,a4
	.loc 1 202 385
	sw	a5,-224(s0)
	.loc 1 203 173
	lw	a4,-232(s0)
	.loc 1 203 202
	lw	a5,-252(s0)
	.loc 1 203 193
	xor	a4,a4,a5
	.loc 1 203 231
	lw	a5,-276(s0)
	.loc 1 203 222
	xor	a4,a4,a5
	.loc 1 203 261
	lw	a5,-284(s0)
	.loc 1 203 252
	xor	a5,a4,a5
	.loc 1 203 164
	sw	a5,-296(s0)
	.loc 1 203 32
	lw	a5,-212(s0)
	.loc 1 203 45
	srli	a4,a5,27
	slli	a5,a5,5
	add	a5,a5,a4
	.loc 1 203 101
	lw	a3,-228(s0)
	.loc 1 203 115
	lw	a4,-224(s0)
	.loc 1 203 106
	xor	a3,a3,a4
	.loc 1 203 129
	lw	a4,-220(s0)
	.loc 1 203 120
	xor	a4,a3,a4
	.loc 1 203 91
	add	a4,a5,a4
	.loc 1 203 308
	lw	a5,-296(s0)
	.loc 1 203 323
	srli	a3,a5,31
	slli	a5,a5,1
	add	a5,a5,a3
	.loc 1 203 298
	sw	a5,-284(s0)
	.loc 1 203 284
	lw	a5,-284(s0)
	.loc 1 203 148
	add	a4,a4,a5
	li	a5,-899497984
	addi	a5,a5,470
	add	a4,a4,a5
	.loc 1 203 16
	lw	a5,-216(s0)
	.loc 1 203 20
	add	a5,a4,a5
	sw	a5,-216(s0)
	.loc 1 203 396
	lw	a5,-228(s0)
	.loc 1 203 410
	srli	a4,a5,2
	slli	a5,a5,30
	add	a5,a5,a4
	.loc 1 203 385
	sw	a5,-228(s0)
	.loc 1 204 173
	lw	a4,-292(s0)
	.loc 1 204 202
	lw	a5,-248(s0)
	.loc 1 204 193
	xor	a4,a4,a5
	.loc 1 204 231
	lw	a5,-272(s0)
	.loc 1 204 222
	xor	a4,a4,a5
	.loc 1 204 261
	lw	a5,-280(s0)
	.loc 1 204 252
	xor	a5,a4,a5
	.loc 1 204 164
	sw	a5,-296(s0)
	.loc 1 204 32
	lw	a5,-216(s0)
	.loc 1 204 45
	srli	a4,a5,27
	slli	a5,a5,5
	add	a5,a5,a4
	.loc 1 204 101
	lw	a3,-212(s0)
	.loc 1 204 115
	lw	a4,-228(s0)
	.loc 1 204 106
	xor	a3,a3,a4
	.loc 1 204 129
	lw	a4,-224(s0)
	.loc 1 204 120
	xor	a4,a3,a4
	.loc 1 204 91
	add	a4,a5,a4
	.loc 1 204 308
	lw	a5,-296(s0)
	.loc 1 204 323
	srli	a3,a5,31
	slli	a5,a5,1
	add	a5,a5,a3
	.loc 1 204 298
	sw	a5,-280(s0)
	.loc 1 204 284
	lw	a5,-280(s0)
	.loc 1 204 148
	add	a4,a4,a5
	li	a5,-899497984
	addi	a5,a5,470
	add	a4,a4,a5
	.loc 1 204 16
	lw	a5,-220(s0)
	.loc 1 204 20
	add	a5,a4,a5
	sw	a5,-220(s0)
	.loc 1 204 396
	lw	a5,-212(s0)
	.loc 1 204 410
	srli	a4,a5,2
	slli	a5,a5,30
	add	a5,a5,a4
	.loc 1 204 385
	sw	a5,-212(s0)
	.loc 1 205 173
	lw	a4,-288(s0)
	.loc 1 205 202
	lw	a5,-244(s0)
	.loc 1 205 193
	xor	a4,a4,a5
	.loc 1 205 231
	lw	a5,-268(s0)
	.loc 1 205 222
	xor	a4,a4,a5
	.loc 1 205 261
	lw	a5,-276(s0)
	.loc 1 205 252
	xor	a5,a4,a5
	.loc 1 205 164
	sw	a5,-296(s0)
	.loc 1 205 32
	lw	a5,-220(s0)
	.loc 1 205 45
	srli	a4,a5,27
	slli	a5,a5,5
	add	a5,a5,a4
	.loc 1 205 101
	lw	a3,-216(s0)
	.loc 1 205 115
	lw	a4,-212(s0)
	.loc 1 205 106
	xor	a3,a3,a4
	.loc 1 205 129
	lw	a4,-228(s0)
	.loc 1 205 120
	xor	a4,a3,a4
	.loc 1 205 91
	add	a4,a5,a4
	.loc 1 205 308
	lw	a5,-296(s0)
	.loc 1 205 323
	srli	a3,a5,31
	slli	a5,a5,1
	add	a5,a5,a3
	.loc 1 205 298
	sw	a5,-276(s0)
	.loc 1 205 284
	lw	a5,-276(s0)
	.loc 1 205 148
	add	a4,a4,a5
	li	a5,-899497984
	addi	a5,a5,470
	add	a4,a4,a5
	.loc 1 205 16
	lw	a5,-224(s0)
	.loc 1 205 20
	add	a5,a4,a5
	sw	a5,-224(s0)
	.loc 1 205 396
	lw	a5,-216(s0)
	.loc 1 205 410
	srli	a4,a5,2
	slli	a5,a5,30
	add	a5,a5,a4
	.loc 1 205 385
	sw	a5,-216(s0)
	.loc 1 206 173
	lw	a4,-284(s0)
	.loc 1 206 202
	lw	a5,-240(s0)
	.loc 1 206 193
	xor	a4,a4,a5
	.loc 1 206 231
	lw	a5,-264(s0)
	.loc 1 206 222
	xor	a4,a4,a5
	.loc 1 206 261
	lw	a5,-272(s0)
	.loc 1 206 252
	xor	a5,a4,a5
	.loc 1 206 164
	sw	a5,-296(s0)
	.loc 1 206 32
	lw	a5,-224(s0)
	.loc 1 206 45
	srli	a4,a5,27
	slli	a5,a5,5
	add	a5,a5,a4
	.loc 1 206 101
	lw	a3,-220(s0)
	.loc 1 206 115
	lw	a4,-216(s0)
	.loc 1 206 106
	xor	a3,a3,a4
	.loc 1 206 129
	lw	a4,-212(s0)
	.loc 1 206 120
	xor	a4,a3,a4
	.loc 1 206 91
	add	a4,a5,a4
	.loc 1 206 308
	lw	a5,-296(s0)
	.loc 1 206 323
	srli	a3,a5,31
	slli	a5,a5,1
	add	a5,a5,a3
	.loc 1 206 298
	sw	a5,-272(s0)
	.loc 1 206 284
	lw	a5,-272(s0)
	.loc 1 206 148
	add	a4,a4,a5
	li	a5,-899497984
	addi	a5,a5,470
	add	a4,a4,a5
	.loc 1 206 16
	lw	a5,-228(s0)
	.loc 1 206 20
	add	a5,a4,a5
	sw	a5,-228(s0)
	.loc 1 206 396
	lw	a5,-220(s0)
	.loc 1 206 410
	srli	a4,a5,2
	slli	a5,a5,30
	add	a5,a5,a4
	.loc 1 206 385
	sw	a5,-220(s0)
	.loc 1 207 173
	lw	a4,-280(s0)
	.loc 1 207 202
	lw	a5,-236(s0)
	.loc 1 207 193
	xor	a4,a4,a5
	.loc 1 207 231
	lw	a5,-260(s0)
	.loc 1 207 222
	xor	a4,a4,a5
	.loc 1 207 261
	lw	a5,-268(s0)
	.loc 1 207 252
	xor	a5,a4,a5
	.loc 1 207 164
	sw	a5,-296(s0)
	.loc 1 207 32
	lw	a5,-228(s0)
	.loc 1 207 45
	srli	a4,a5,27
	slli	a5,a5,5
	add	a5,a5,a4
	.loc 1 207 101
	lw	a3,-224(s0)
	.loc 1 207 115
	lw	a4,-220(s0)
	.loc 1 207 106
	xor	a3,a3,a4
	.loc 1 207 129
	lw	a4,-216(s0)
	.loc 1 207 120
	xor	a4,a3,a4
	.loc 1 207 91
	add	a4,a5,a4
	.loc 1 207 308
	lw	a5,-296(s0)
	.loc 1 207 323
	srli	a3,a5,31
	slli	a5,a5,1
	add	a5,a5,a3
	.loc 1 207 298
	sw	a5,-268(s0)
	.loc 1 207 284
	lw	a5,-268(s0)
	.loc 1 207 148
	add	a4,a4,a5
	li	a5,-899497984
	addi	a5,a5,470
	add	a4,a4,a5
	.loc 1 207 16
	lw	a5,-212(s0)
	.loc 1 207 20
	add	a5,a4,a5
	sw	a5,-212(s0)
	.loc 1 207 396
	lw	a5,-224(s0)
	.loc 1 207 410
	srli	a4,a5,2
	slli	a5,a5,30
	add	a5,a5,a4
	.loc 1 207 385
	sw	a5,-224(s0)
	.loc 1 208 173
	lw	a4,-276(s0)
	.loc 1 208 202
	lw	a5,-232(s0)
	.loc 1 208 193
	xor	a4,a4,a5
	.loc 1 208 231
	lw	a5,-256(s0)
	.loc 1 208 222
	xor	a4,a4,a5
	.loc 1 208 261
	lw	a5,-264(s0)
	.loc 1 208 252
	xor	a5,a4,a5
	.loc 1 208 164
	sw	a5,-296(s0)
	.loc 1 208 32
	lw	a5,-212(s0)
	.loc 1 208 45
	srli	a4,a5,27
	slli	a5,a5,5
	add	a5,a5,a4
	.loc 1 208 101
	lw	a3,-228(s0)
	.loc 1 208 115
	lw	a4,-224(s0)
	.loc 1 208 106
	xor	a3,a3,a4
	.loc 1 208 129
	lw	a4,-220(s0)
	.loc 1 208 120
	xor	a4,a3,a4
	.loc 1 208 91
	add	a4,a5,a4
	.loc 1 208 308
	lw	a5,-296(s0)
	.loc 1 208 323
	srli	a3,a5,31
	slli	a5,a5,1
	add	a5,a5,a3
	.loc 1 208 298
	sw	a5,-264(s0)
	.loc 1 208 284
	lw	a5,-264(s0)
	.loc 1 208 148
	add	a4,a4,a5
	li	a5,-899497984
	addi	a5,a5,470
	add	a4,a4,a5
	.loc 1 208 16
	lw	a5,-216(s0)
	.loc 1 208 20
	add	a5,a4,a5
	sw	a5,-216(s0)
	.loc 1 208 396
	lw	a5,-228(s0)
	.loc 1 208 410
	srli	a4,a5,2
	slli	a5,a5,30
	add	a5,a5,a4
	.loc 1 208 385
	sw	a5,-228(s0)
	.loc 1 209 173
	lw	a4,-272(s0)
	.loc 1 209 202
	lw	a5,-292(s0)
	.loc 1 209 193
	xor	a4,a4,a5
	.loc 1 209 231
	lw	a5,-252(s0)
	.loc 1 209 222
	xor	a4,a4,a5
	.loc 1 209 261
	lw	a5,-260(s0)
	.loc 1 209 252
	xor	a5,a4,a5
	.loc 1 209 164
	sw	a5,-296(s0)
	.loc 1 209 32
	lw	a5,-216(s0)
	.loc 1 209 45
	srli	a4,a5,27
	slli	a5,a5,5
	add	a5,a5,a4
	.loc 1 209 101
	lw	a3,-212(s0)
	.loc 1 209 115
	lw	a4,-228(s0)
	.loc 1 209 106
	xor	a3,a3,a4
	.loc 1 209 129
	lw	a4,-224(s0)
	.loc 1 209 120
	xor	a4,a3,a4
	.loc 1 209 91
	add	a4,a5,a4
	.loc 1 209 308
	lw	a5,-296(s0)
	.loc 1 209 323
	srli	a3,a5,31
	slli	a5,a5,1
	add	a5,a5,a3
	.loc 1 209 298
	sw	a5,-260(s0)
	.loc 1 209 284
	lw	a5,-260(s0)
	.loc 1 209 148
	add	a4,a4,a5
	li	a5,-899497984
	addi	a5,a5,470
	add	a4,a4,a5
	.loc 1 209 16
	lw	a5,-220(s0)
	.loc 1 209 20
	add	a5,a4,a5
	sw	a5,-220(s0)
	.loc 1 209 396
	lw	a5,-212(s0)
	.loc 1 209 410
	srli	a4,a5,2
	slli	a5,a5,30
	add	a5,a5,a4
	.loc 1 209 385
	sw	a5,-212(s0)
	.loc 1 210 173
	lw	a4,-268(s0)
	.loc 1 210 202
	lw	a5,-288(s0)
	.loc 1 210 193
	xor	a4,a4,a5
	.loc 1 210 231
	lw	a5,-248(s0)
	.loc 1 210 222
	xor	a4,a4,a5
	.loc 1 210 261
	lw	a5,-256(s0)
	.loc 1 210 252
	xor	a5,a4,a5
	.loc 1 210 164
	sw	a5,-296(s0)
	.loc 1 210 32
	lw	a5,-220(s0)
	.loc 1 210 45
	srli	a4,a5,27
	slli	a5,a5,5
	add	a5,a5,a4
	.loc 1 210 101
	lw	a3,-216(s0)
	.loc 1 210 115
	lw	a4,-212(s0)
	.loc 1 210 106
	xor	a3,a3,a4
	.loc 1 210 129
	lw	a4,-228(s0)
	.loc 1 210 120
	xor	a4,a3,a4
	.loc 1 210 91
	add	a4,a5,a4
	.loc 1 210 308
	lw	a5,-296(s0)
	.loc 1 210 323
	srli	a3,a5,31
	slli	a5,a5,1
	add	a5,a5,a3
	.loc 1 210 298
	sw	a5,-256(s0)
	.loc 1 210 284
	lw	a5,-256(s0)
	.loc 1 210 148
	add	a4,a4,a5
	li	a5,-899497984
	addi	a5,a5,470
	add	a4,a4,a5
	.loc 1 210 16
	lw	a5,-224(s0)
	.loc 1 210 20
	add	a5,a4,a5
	sw	a5,-224(s0)
	.loc 1 210 396
	lw	a5,-216(s0)
	.loc 1 210 410
	srli	a4,a5,2
	slli	a5,a5,30
	add	a5,a5,a4
	.loc 1 210 385
	sw	a5,-216(s0)
	.loc 1 211 173
	lw	a4,-264(s0)
	.loc 1 211 202
	lw	a5,-284(s0)
	.loc 1 211 193
	xor	a4,a4,a5
	.loc 1 211 231
	lw	a5,-244(s0)
	.loc 1 211 222
	xor	a4,a4,a5
	.loc 1 211 261
	lw	a5,-252(s0)
	.loc 1 211 252
	xor	a5,a4,a5
	.loc 1 211 164
	sw	a5,-296(s0)
	.loc 1 211 32
	lw	a5,-224(s0)
	.loc 1 211 45
	srli	a4,a5,27
	slli	a5,a5,5
	add	a5,a5,a4
	.loc 1 211 101
	lw	a3,-220(s0)
	.loc 1 211 115
	lw	a4,-216(s0)
	.loc 1 211 106
	xor	a3,a3,a4
	.loc 1 211 129
	lw	a4,-212(s0)
	.loc 1 211 120
	xor	a4,a3,a4
	.loc 1 211 91
	add	a4,a5,a4
	.loc 1 211 308
	lw	a5,-296(s0)
	.loc 1 211 323
	srli	a3,a5,31
	slli	a5,a5,1
	add	a5,a5,a3
	.loc 1 211 298
	sw	a5,-252(s0)
	.loc 1 211 284
	lw	a5,-252(s0)
	.loc 1 211 148
	add	a4,a4,a5
	li	a5,-899497984
	addi	a5,a5,470
	add	a4,a4,a5
	.loc 1 211 16
	lw	a5,-228(s0)
	.loc 1 211 20
	add	a5,a4,a5
	sw	a5,-228(s0)
	.loc 1 211 396
	lw	a5,-220(s0)
	.loc 1 211 410
	srli	a4,a5,2
	slli	a5,a5,30
	add	a5,a5,a4
	.loc 1 211 385
	sw	a5,-220(s0)
	.loc 1 212 173
	lw	a4,-260(s0)
	.loc 1 212 202
	lw	a5,-280(s0)
	.loc 1 212 193
	xor	a4,a4,a5
	.loc 1 212 231
	lw	a5,-240(s0)
	.loc 1 212 222
	xor	a4,a4,a5
	.loc 1 212 261
	lw	a5,-248(s0)
	.loc 1 212 252
	xor	a5,a4,a5
	.loc 1 212 164
	sw	a5,-296(s0)
	.loc 1 212 32
	lw	a5,-228(s0)
	.loc 1 212 45
	srli	a4,a5,27
	slli	a5,a5,5
	add	a5,a5,a4
	.loc 1 212 101
	lw	a3,-224(s0)
	.loc 1 212 115
	lw	a4,-220(s0)
	.loc 1 212 106
	xor	a3,a3,a4
	.loc 1 212 129
	lw	a4,-216(s0)
	.loc 1 212 120
	xor	a4,a3,a4
	.loc 1 212 91
	add	a4,a5,a4
	.loc 1 212 308
	lw	a5,-296(s0)
	.loc 1 212 323
	srli	a3,a5,31
	slli	a5,a5,1
	add	a5,a5,a3
	.loc 1 212 298
	sw	a5,-248(s0)
	.loc 1 212 284
	lw	a5,-248(s0)
	.loc 1 212 148
	add	a4,a4,a5
	li	a5,-899497984
	addi	a5,a5,470
	add	a4,a4,a5
	.loc 1 212 16
	lw	a5,-212(s0)
	.loc 1 212 20
	add	a5,a4,a5
	sw	a5,-212(s0)
	.loc 1 212 396
	lw	a5,-224(s0)
	.loc 1 212 410
	srli	a4,a5,2
	slli	a5,a5,30
	add	a5,a5,a4
	.loc 1 212 385
	sw	a5,-224(s0)
	.loc 1 213 173
	lw	a4,-256(s0)
	.loc 1 213 202
	lw	a5,-276(s0)
	.loc 1 213 193
	xor	a4,a4,a5
	.loc 1 213 231
	lw	a5,-236(s0)
	.loc 1 213 222
	xor	a4,a4,a5
	.loc 1 213 261
	lw	a5,-244(s0)
	.loc 1 213 252
	xor	a5,a4,a5
	.loc 1 213 164
	sw	a5,-296(s0)
	.loc 1 213 32
	lw	a5,-212(s0)
	.loc 1 213 45
	srli	a4,a5,27
	slli	a5,a5,5
	add	a5,a5,a4
	.loc 1 213 101
	lw	a3,-228(s0)
	.loc 1 213 115
	lw	a4,-224(s0)
	.loc 1 213 106
	xor	a3,a3,a4
	.loc 1 213 129
	lw	a4,-220(s0)
	.loc 1 213 120
	xor	a4,a3,a4
	.loc 1 213 91
	add	a4,a5,a4
	.loc 1 213 308
	lw	a5,-296(s0)
	.loc 1 213 323
	srli	a3,a5,31
	slli	a5,a5,1
	add	a5,a5,a3
	.loc 1 213 298
	sw	a5,-244(s0)
	.loc 1 213 284
	lw	a5,-244(s0)
	.loc 1 213 148
	add	a4,a4,a5
	li	a5,-899497984
	addi	a5,a5,470
	add	a4,a4,a5
	.loc 1 213 16
	lw	a5,-216(s0)
	.loc 1 213 20
	add	a5,a4,a5
	sw	a5,-216(s0)
	.loc 1 213 396
	lw	a5,-228(s0)
	.loc 1 213 410
	srli	a4,a5,2
	slli	a5,a5,30
	add	a5,a5,a4
	.loc 1 213 385
	sw	a5,-228(s0)
	.loc 1 214 173
	lw	a4,-252(s0)
	.loc 1 214 202
	lw	a5,-272(s0)
	.loc 1 214 193
	xor	a4,a4,a5
	.loc 1 214 231
	lw	a5,-232(s0)
	.loc 1 214 222
	xor	a4,a4,a5
	.loc 1 214 261
	lw	a5,-240(s0)
	.loc 1 214 252
	xor	a5,a4,a5
	.loc 1 214 164
	sw	a5,-296(s0)
	.loc 1 214 32
	lw	a5,-216(s0)
	.loc 1 214 45
	srli	a4,a5,27
	slli	a5,a5,5
	add	a5,a5,a4
	.loc 1 214 101
	lw	a3,-212(s0)
	.loc 1 214 115
	lw	a4,-228(s0)
	.loc 1 214 106
	xor	a3,a3,a4
	.loc 1 214 129
	lw	a4,-224(s0)
	.loc 1 214 120
	xor	a4,a3,a4
	.loc 1 214 91
	add	a4,a5,a4
	.loc 1 214 308
	lw	a5,-296(s0)
	.loc 1 214 323
	srli	a3,a5,31
	slli	a5,a5,1
	add	a5,a5,a3
	.loc 1 214 298
	sw	a5,-240(s0)
	.loc 1 214 284
	lw	a5,-240(s0)
	.loc 1 214 148
	add	a4,a4,a5
	li	a5,-899497984
	addi	a5,a5,470
	add	a4,a4,a5
	.loc 1 214 16
	lw	a5,-220(s0)
	.loc 1 214 20
	add	a5,a4,a5
	sw	a5,-220(s0)
	.loc 1 214 396
	lw	a5,-212(s0)
	.loc 1 214 410
	srli	a4,a5,2
	slli	a5,a5,30
	add	a5,a5,a4
	.loc 1 214 385
	sw	a5,-212(s0)
	.loc 1 215 173
	lw	a4,-248(s0)
	.loc 1 215 202
	lw	a5,-268(s0)
	.loc 1 215 193
	xor	a4,a4,a5
	.loc 1 215 231
	lw	a5,-292(s0)
	.loc 1 215 222
	xor	a4,a4,a5
	.loc 1 215 261
	lw	a5,-236(s0)
	.loc 1 215 252
	xor	a5,a4,a5
	.loc 1 215 164
	sw	a5,-296(s0)
	.loc 1 215 32
	lw	a5,-220(s0)
	.loc 1 215 45
	srli	a4,a5,27
	slli	a5,a5,5
	add	a5,a5,a4
	.loc 1 215 101
	lw	a3,-216(s0)
	.loc 1 215 115
	lw	a4,-212(s0)
	.loc 1 215 106
	xor	a3,a3,a4
	.loc 1 215 129
	lw	a4,-228(s0)
	.loc 1 215 120
	xor	a4,a3,a4
	.loc 1 215 91
	add	a4,a5,a4
	.loc 1 215 308
	lw	a5,-296(s0)
	.loc 1 215 323
	srli	a3,a5,31
	slli	a5,a5,1
	add	a5,a5,a3
	.loc 1 215 298
	sw	a5,-236(s0)
	.loc 1 215 284
	lw	a5,-236(s0)
	.loc 1 215 148
	add	a4,a4,a5
	li	a5,-899497984
	addi	a5,a5,470
	add	a4,a4,a5
	.loc 1 215 16
	lw	a5,-224(s0)
	.loc 1 215 20
	add	a5,a4,a5
	sw	a5,-224(s0)
	.loc 1 215 396
	lw	a5,-216(s0)
	.loc 1 215 410
	srli	a4,a5,2
	slli	a5,a5,30
	add	a5,a5,a4
	.loc 1 215 385
	sw	a5,-216(s0)
	.loc 1 216 173
	lw	a4,-244(s0)
	.loc 1 216 202
	lw	a5,-264(s0)
	.loc 1 216 193
	xor	a4,a4,a5
	.loc 1 216 231
	lw	a5,-288(s0)
	.loc 1 216 222
	xor	a4,a4,a5
	.loc 1 216 261
	lw	a5,-232(s0)
	.loc 1 216 252
	xor	a5,a4,a5
	.loc 1 216 164
	sw	a5,-296(s0)
	.loc 1 216 32
	lw	a5,-224(s0)
	.loc 1 216 45
	srli	a4,a5,27
	slli	a5,a5,5
	add	a5,a5,a4
	.loc 1 216 101
	lw	a3,-220(s0)
	.loc 1 216 115
	lw	a4,-216(s0)
	.loc 1 216 106
	xor	a3,a3,a4
	.loc 1 216 129
	lw	a4,-212(s0)
	.loc 1 216 120
	xor	a4,a3,a4
	.loc 1 216 91
	add	a4,a5,a4
	.loc 1 216 308
	lw	a5,-296(s0)
	.loc 1 216 323
	srli	a3,a5,31
	slli	a5,a5,1
	add	a5,a5,a3
	.loc 1 216 298
	sw	a5,-232(s0)
	.loc 1 216 284
	lw	a5,-232(s0)
	.loc 1 216 148
	add	a4,a4,a5
	li	a5,-899497984
	addi	a5,a5,470
	add	a4,a4,a5
	.loc 1 216 16
	lw	a5,-228(s0)
	.loc 1 216 20
	add	a5,a4,a5
	sw	a5,-228(s0)
	.loc 1 216 396
	lw	a5,-220(s0)
	.loc 1 216 410
	srli	a4,a5,2
	slli	a5,a5,30
	add	a5,a5,a4
	.loc 1 216 385
	sw	a5,-220(s0)
	.loc 1 221 15
	lw	a5,-308(s0)
	lw	a4,8(a5)
	.loc 1 221 27
	lw	a5,-228(s0)
	.loc 1 221 19
	add	a4,a4,a5
	lw	a5,-308(s0)
	sw	a4,8(a5)
	.loc 1 222 15
	lw	a5,-308(s0)
	lw	a4,12(a5)
	.loc 1 222 27
	lw	a5,-224(s0)
	.loc 1 222 19
	add	a4,a4,a5
	lw	a5,-308(s0)
	sw	a4,12(a5)
	.loc 1 223 15
	lw	a5,-308(s0)
	lw	a4,16(a5)
	.loc 1 223 27
	lw	a5,-220(s0)
	.loc 1 223 19
	add	a4,a4,a5
	lw	a5,-308(s0)
	sw	a4,16(a5)
	.loc 1 224 15
	lw	a5,-308(s0)
	lw	a4,20(a5)
	.loc 1 224 27
	lw	a5,-216(s0)
	.loc 1 224 19
	add	a4,a4,a5
	lw	a5,-308(s0)
	sw	a4,20(a5)
	.loc 1 225 15
	lw	a5,-308(s0)
	lw	a4,24(a5)
	.loc 1 225 27
	lw	a5,-212(s0)
	.loc 1 225 19
	add	a4,a4,a5
	lw	a5,-308(s0)
	sw	a4,24(a5)
	.loc 1 228 5
	addi	a5,s0,-296
	li	a1,88
	mv	a0,a5
	call	mbedtls_platform_zeroize
	.loc 1 230 12
	li	a5,0
	.loc 1 231 1
	mv	a0,a5
	lw	ra,316(sp)
	.cfi_restore 1
	lw	s0,312(sp)
	.cfi_restore 8
	.cfi_def_cfa 2, 320
	addi	sp,sp,320
	.cfi_def_cfa_offset 0
	jr	ra
	.cfi_endproc
.LFE19:
	.size	mbedtls_internal_sha1_process, .-mbedtls_internal_sha1_process
	.section	.text.mbedtls_sha1_update,"ax",@progbits
	.align	1
	.globl	mbedtls_sha1_update
	.type	mbedtls_sha1_update, @function
mbedtls_sha1_update:
.LFB20:
	.loc 1 241 1
	.cfi_startproc
	addi	sp,sp,-48
	.cfi_def_cfa_offset 48
	sw	ra,44(sp)
	sw	s0,40(sp)
	.cfi_offset 1, -4
	.cfi_offset 8, -8
	addi	s0,sp,48
	.cfi_def_cfa 8, 0
	sw	a0,-36(s0)
	sw	a1,-40(s0)
	sw	a2,-44(s0)
	.loc 1 242 9
	li	a5,-110
	sw	a5,-24(s0)
	.loc 1 246 8
	lw	a5,-44(s0)
	bne	a5,zero,.L28
	.loc 1 247 16
	li	a5,0
	j	.L29
.L28:
	.loc 1 250 22
	lw	a5,-36(s0)
	lw	a5,0(a5)
	.loc 1 250 10
	andi	a5,a5,63
	sw	a5,-20(s0)
	.loc 1 251 10
	li	a4,64
	lw	a5,-20(s0)
	sub	a5,a4,a5
	sw	a5,-28(s0)
	.loc 1 253 15
	lw	a5,-36(s0)
	lw	a4,0(a5)
	.loc 1 253 19
	lw	a5,-44(s0)
	add	a4,a4,a5
	lw	a5,-36(s0)
	sw	a4,0(a5)
	.loc 1 254 15
	lw	a5,-36(s0)
	lw	a4,0(a5)
	.loc 1 254 19
	lw	a5,-36(s0)
	sw	a4,0(a5)
	.loc 1 256 19
	lw	a5,-36(s0)
	lw	a5,0(a5)
	.loc 1 256 8
	lw	a4,-44(s0)
	bleu	a4,a5,.L30
	.loc 1 257 19
	lw	a5,-36(s0)
	lw	a5,4(a5)
	.loc 1 257 22
	addi	a4,a5,1
	lw	a5,-36(s0)
	sw	a4,4(a5)
.L30:
	.loc 1 260 8
	lw	a5,-20(s0)
	beq	a5,zero,.L33
	.loc 1 260 14 discriminator 1
	lw	a4,-44(s0)
	lw	a5,-28(s0)
	bltu	a4,a5,.L33
	.loc 1 261 26
	lw	a5,-36(s0)
	addi	a4,a5,28
	.loc 1 261 9
	lw	a5,-20(s0)
	add	a5,a4,a5
	lw	a2,-28(s0)
	lw	a1,-40(s0)
	mv	a0,a5
	call	memcpy
	.loc 1 263 58
	lw	a5,-36(s0)
	addi	a5,a5,28
	.loc 1 263 20
	mv	a1,a5
	lw	a0,-36(s0)
	call	mbedtls_internal_sha1_process
	sw	a0,-24(s0)
	.loc 1 263 12 discriminator 1
	lw	a5,-24(s0)
	beq	a5,zero,.L32
	.loc 1 264 20
	lw	a5,-24(s0)
	j	.L29
.L32:
	.loc 1 267 15
	lw	a4,-40(s0)
	lw	a5,-28(s0)
	add	a5,a4,a5
	sw	a5,-40(s0)
	.loc 1 268 14
	lw	a4,-44(s0)
	lw	a5,-28(s0)
	sub	a5,a4,a5
	sw	a5,-44(s0)
	.loc 1 269 14
	sw	zero,-20(s0)
	.loc 1 272 11
	j	.L33
.L35:
	.loc 1 273 20
	lw	a1,-40(s0)
	lw	a0,-36(s0)
	call	mbedtls_internal_sha1_process
	sw	a0,-24(s0)
	.loc 1 273 12 discriminator 1
	lw	a5,-24(s0)
	beq	a5,zero,.L34
	.loc 1 274 20
	lw	a5,-24(s0)
	j	.L29
.L34:
	.loc 1 277 15
	lw	a5,-40(s0)
	addi	a5,a5,64
	sw	a5,-40(s0)
	.loc 1 278 14
	lw	a5,-44(s0)
	addi	a5,a5,-64
	sw	a5,-44(s0)
.L33:
	.loc 1 272 17
	lw	a4,-44(s0)
	li	a5,63
	bgtu	a4,a5,.L35
	.loc 1 281 8
	lw	a5,-44(s0)
	beq	a5,zero,.L36
	.loc 1 282 26
	lw	a5,-36(s0)
	addi	a4,a5,28
	.loc 1 282 9
	lw	a5,-20(s0)
	add	a5,a4,a5
	lw	a2,-44(s0)
	lw	a1,-40(s0)
	mv	a0,a5
	call	memcpy
.L36:
	.loc 1 285 12
	li	a5,0
.L29:
	.loc 1 286 1
	mv	a0,a5
	lw	ra,44(sp)
	.cfi_restore 1
	lw	s0,40(sp)
	.cfi_restore 8
	.cfi_def_cfa 2, 48
	addi	sp,sp,48
	.cfi_def_cfa_offset 0
	jr	ra
	.cfi_endproc
.LFE20:
	.size	mbedtls_sha1_update, .-mbedtls_sha1_update
	.section	.text.mbedtls_sha1_finish,"ax",@progbits
	.align	1
	.globl	mbedtls_sha1_finish
	.type	mbedtls_sha1_finish, @function
mbedtls_sha1_finish:
.LFB21:
	.loc 1 293 1
	.cfi_startproc
	addi	sp,sp,-144
	.cfi_def_cfa_offset 144
	sw	ra,140(sp)
	sw	s0,136(sp)
	sw	s1,132(sp)
	.cfi_offset 1, -4
	.cfi_offset 8, -8
	.cfi_offset 9, -12
	addi	s0,sp,144
	.cfi_def_cfa 8, 0
	sw	a0,-132(s0)
	sw	a1,-136(s0)
	.loc 1 294 9
	li	a5,-110
	sw	a5,-20(s0)
	.loc 1 301 22
	lw	a5,-132(s0)
	lw	a5,0(a5)
	.loc 1 301 10
	andi	a5,a5,63
	sw	a5,-24(s0)
	.loc 1 303 21
	lw	a5,-24(s0)
	addi	a4,a5,1
	sw	a4,-24(s0)
	.loc 1 303 25
	lw	a4,-132(s0)
	add	a5,a4,a5
	li	a4,-128
	sb	a4,28(a5)
	.loc 1 305 8
	lw	a4,-24(s0)
	li	a5,56
	bgtu	a4,a5,.L38
	.loc 1 307 16
	lw	a5,-132(s0)
	addi	a4,a5,28
	.loc 1 307 9
	lw	a5,-24(s0)
	add	a3,a4,a5
	.loc 1 307 42
	li	a4,56
	lw	a5,-24(s0)
	sub	a5,a4,a5
	.loc 1 307 9
	mv	a2,a5
	li	a1,0
	mv	a0,a3
	call	memset
	j	.L39
.L38:
	.loc 1 310 16
	lw	a5,-132(s0)
	addi	a4,a5,28
	.loc 1 310 9
	lw	a5,-24(s0)
	add	a3,a4,a5
	.loc 1 310 42
	li	a4,64
	lw	a5,-24(s0)
	sub	a5,a4,a5
	.loc 1 310 9
	mv	a2,a5
	li	a1,0
	mv	a0,a3
	call	memset
	.loc 1 312 58
	lw	a5,-132(s0)
	addi	a5,a5,28
	.loc 1 312 20
	mv	a1,a5
	lw	a0,-132(s0)
	call	mbedtls_internal_sha1_process
	sw	a0,-20(s0)
	.loc 1 312 12 discriminator 1
	lw	a5,-20(s0)
	bne	a5,zero,.L44
	.loc 1 316 19
	lw	a5,-132(s0)
	addi	a5,a5,28
	.loc 1 316 9
	li	a2,56
	li	a1,0
	mv	a0,a5
	call	memset
.L39:
	.loc 1 322 23
	lw	a5,-132(s0)
	lw	a5,0(a5)
	.loc 1 322 27
	srli	a4,a5,29
	.loc 1 323 25
	lw	a5,-132(s0)
	lw	a5,4(a5)
	.loc 1 323 29
	slli	a5,a5,3
	.loc 1 322 10
	or	a5,a4,a5
	sw	a5,-28(s0)
	.loc 1 324 22
	lw	a5,-132(s0)
	lw	a5,0(a5)
	.loc 1 324 9
	slli	a5,a5,3
	sw	a5,-32(s0)
	.loc 1 326 125 discriminator 2
	lw	a5,-132(s0)
	addi	a5,a5,28
	.loc 1 326 96 discriminator 2
	addi	s1,a5,56
	.loc 1 326 147 discriminator 2
	lw	a0,-28(s0)
	call	__bswapsi2
	mv	a5,a0
	sw	s1,-40(s0)
	sw	a5,-36(s0)
.LBB80:
.LBB81:
	.loc 2 200 33
	lw	a5,-40(s0)
	sw	a5,-44(s0)
	.loc 2 201 12
	lw	a5,-44(s0)
	lw	a4,-36(s0)
	andi	a4,a4,255
	lbu	a3,0(a5)
	andi	a3,a3,0
	or	a4,a3,a4
	sb	a4,0(a5)
	lw	a4,-36(s0)
	srli	a4,a4,8
	andi	a4,a4,255
	lbu	a3,1(a5)
	andi	a3,a3,0
	or	a4,a3,a4
	sb	a4,1(a5)
	lw	a4,-36(s0)
	srli	a4,a4,16
	andi	a4,a4,255
	lbu	a3,2(a5)
	andi	a3,a3,0
	or	a4,a3,a4
	sb	a4,2(a5)
	lw	a4,-36(s0)
	srli	a4,a4,24
	lbu	a3,3(a5)
	andi	a3,a3,0
	or	a4,a3,a4
	sb	a4,3(a5)
	.loc 2 205 1
	nop
.LBE81:
.LBE80:
	.loc 1 327 124 discriminator 2
	lw	a5,-132(s0)
	addi	a5,a5,28
	.loc 1 327 95 discriminator 2
	addi	s1,a5,60
	.loc 1 327 146 discriminator 2
	lw	a0,-32(s0)
	call	__bswapsi2
	mv	a5,a0
	sw	s1,-48(s0)
	sw	a5,-52(s0)
.LBB82:
.LBB83:
	.loc 2 200 33
	lw	a5,-48(s0)
	sw	a5,-56(s0)
	.loc 2 201 12
	lw	a5,-56(s0)
	lw	a4,-52(s0)
	andi	a4,a4,255
	lbu	a3,0(a5)
	andi	a3,a3,0
	or	a4,a3,a4
	sb	a4,0(a5)
	lw	a4,-52(s0)
	srli	a4,a4,8
	andi	a4,a4,255
	lbu	a3,1(a5)
	andi	a3,a3,0
	or	a4,a3,a4
	sb	a4,1(a5)
	lw	a4,-52(s0)
	srli	a4,a4,16
	andi	a4,a4,255
	lbu	a3,2(a5)
	andi	a3,a3,0
	or	a4,a3,a4
	sb	a4,2(a5)
	lw	a4,-52(s0)
	srli	a4,a4,24
	lbu	a3,3(a5)
	andi	a3,a3,0
	or	a4,a3,a4
	sb	a4,3(a5)
	.loc 2 205 1
	nop
.LBE83:
.LBE82:
	.loc 1 329 54
	lw	a5,-132(s0)
	addi	a5,a5,28
	.loc 1 329 16
	mv	a1,a5
	lw	a0,-132(s0)
	call	mbedtls_internal_sha1_process
	sw	a0,-20(s0)
	.loc 1 329 8 discriminator 1
	lw	a5,-20(s0)
	bne	a5,zero,.L45
	.loc 1 336 184 discriminator 2
	lw	a5,-132(s0)
	lw	a5,8(a5)
	.loc 1 336 144 discriminator 2
	mv	a0,a5
	call	__bswapsi2
	mv	a5,a0
	mv	a4,a5
	lw	a5,-136(s0)
	sw	a5,-60(s0)
	sw	a4,-64(s0)
.LBB84:
.LBB85:
	.loc 2 200 33
	lw	a5,-60(s0)
	sw	a5,-68(s0)
	.loc 2 201 12
	lw	a5,-68(s0)
	lw	a4,-64(s0)
	andi	a4,a4,255
	lbu	a3,0(a5)
	andi	a3,a3,0
	or	a4,a3,a4
	sb	a4,0(a5)
	lw	a4,-64(s0)
	srli	a4,a4,8
	andi	a4,a4,255
	lbu	a3,1(a5)
	andi	a3,a3,0
	or	a4,a3,a4
	sb	a4,1(a5)
	lw	a4,-64(s0)
	srli	a4,a4,16
	andi	a4,a4,255
	lbu	a3,2(a5)
	andi	a3,a3,0
	or	a4,a3,a4
	sb	a4,2(a5)
	lw	a4,-64(s0)
	srli	a4,a4,24
	lbu	a3,3(a5)
	andi	a3,a3,0
	or	a4,a3,a4
	sb	a4,3(a5)
	.loc 2 205 1
	nop
.LBE85:
.LBE84:
	.loc 1 337 137 discriminator 2
	lw	a5,-136(s0)
	addi	s1,a5,4
	.loc 1 337 184 discriminator 2
	lw	a5,-132(s0)
	lw	a5,12(a5)
	.loc 1 337 144 discriminator 2
	mv	a0,a5
	call	__bswapsi2
	mv	a5,a0
	sw	s1,-72(s0)
	sw	a5,-76(s0)
.LBB86:
.LBB87:
	.loc 2 200 33
	lw	a5,-72(s0)
	sw	a5,-80(s0)
	.loc 2 201 12
	lw	a5,-80(s0)
	lw	a4,-76(s0)
	andi	a4,a4,255
	lbu	a3,0(a5)
	andi	a3,a3,0
	or	a4,a3,a4
	sb	a4,0(a5)
	lw	a4,-76(s0)
	srli	a4,a4,8
	andi	a4,a4,255
	lbu	a3,1(a5)
	andi	a3,a3,0
	or	a4,a3,a4
	sb	a4,1(a5)
	lw	a4,-76(s0)
	srli	a4,a4,16
	andi	a4,a4,255
	lbu	a3,2(a5)
	andi	a3,a3,0
	or	a4,a3,a4
	sb	a4,2(a5)
	lw	a4,-76(s0)
	srli	a4,a4,24
	lbu	a3,3(a5)
	andi	a3,a3,0
	or	a4,a3,a4
	sb	a4,3(a5)
	.loc 2 205 1
	nop
.LBE87:
.LBE86:
	.loc 1 338 137 discriminator 2
	lw	a5,-136(s0)
	addi	s1,a5,8
	.loc 1 338 184 discriminator 2
	lw	a5,-132(s0)
	lw	a5,16(a5)
	.loc 1 338 144 discriminator 2
	mv	a0,a5
	call	__bswapsi2
	mv	a5,a0
	sw	s1,-84(s0)
	sw	a5,-88(s0)
.LBB88:
.LBB89:
	.loc 2 200 33
	lw	a5,-84(s0)
	sw	a5,-92(s0)
	.loc 2 201 12
	lw	a5,-92(s0)
	lw	a4,-88(s0)
	andi	a4,a4,255
	lbu	a3,0(a5)
	andi	a3,a3,0
	or	a4,a3,a4
	sb	a4,0(a5)
	lw	a4,-88(s0)
	srli	a4,a4,8
	andi	a4,a4,255
	lbu	a3,1(a5)
	andi	a3,a3,0
	or	a4,a3,a4
	sb	a4,1(a5)
	lw	a4,-88(s0)
	srli	a4,a4,16
	andi	a4,a4,255
	lbu	a3,2(a5)
	andi	a3,a3,0
	or	a4,a3,a4
	sb	a4,2(a5)
	lw	a4,-88(s0)
	srli	a4,a4,24
	lbu	a3,3(a5)
	andi	a3,a3,0
	or	a4,a3,a4
	sb	a4,3(a5)
	.loc 2 205 1
	nop
.LBE89:
.LBE88:
	.loc 1 339 138 discriminator 2
	lw	a5,-136(s0)
	addi	s1,a5,12
	.loc 1 339 186 discriminator 2
	lw	a5,-132(s0)
	lw	a5,20(a5)
	.loc 1 339 146 discriminator 2
	mv	a0,a5
	call	__bswapsi2
	mv	a5,a0
	sw	s1,-96(s0)
	sw	a5,-100(s0)
.LBB90:
.LBB91:
	.loc 2 200 33
	lw	a5,-96(s0)
	sw	a5,-104(s0)
	.loc 2 201 12
	lw	a5,-104(s0)
	lw	a4,-100(s0)
	andi	a4,a4,255
	lbu	a3,0(a5)
	andi	a3,a3,0
	or	a4,a3,a4
	sb	a4,0(a5)
	lw	a4,-100(s0)
	srli	a4,a4,8
	andi	a4,a4,255
	lbu	a3,1(a5)
	andi	a3,a3,0
	or	a4,a3,a4
	sb	a4,1(a5)
	lw	a4,-100(s0)
	srli	a4,a4,16
	andi	a4,a4,255
	lbu	a3,2(a5)
	andi	a3,a3,0
	or	a4,a3,a4
	sb	a4,2(a5)
	lw	a4,-100(s0)
	srli	a4,a4,24
	lbu	a3,3(a5)
	andi	a3,a3,0
	or	a4,a3,a4
	sb	a4,3(a5)
	.loc 2 205 1
	nop
.LBE91:
.LBE90:
	.loc 1 340 138 discriminator 2
	lw	a5,-136(s0)
	addi	s1,a5,16
	.loc 1 340 186 discriminator 2
	lw	a5,-132(s0)
	lw	a5,24(a5)
	.loc 1 340 146 discriminator 2
	mv	a0,a5
	call	__bswapsi2
	mv	a5,a0
	sw	s1,-108(s0)
	sw	a5,-112(s0)
.LBB92:
.LBB93:
	.loc 2 200 33
	lw	a5,-108(s0)
	sw	a5,-116(s0)
	.loc 2 201 12
	lw	a5,-116(s0)
	lw	a4,-112(s0)
	andi	a4,a4,255
	lbu	a3,0(a5)
	andi	a3,a3,0
	or	a4,a3,a4
	sb	a4,0(a5)
	lw	a4,-112(s0)
	srli	a4,a4,8
	andi	a4,a4,255
	lbu	a3,1(a5)
	andi	a3,a3,0
	or	a4,a3,a4
	sb	a4,1(a5)
	lw	a4,-112(s0)
	srli	a4,a4,16
	andi	a4,a4,255
	lbu	a3,2(a5)
	andi	a3,a3,0
	or	a4,a3,a4
	sb	a4,2(a5)
	lw	a4,-112(s0)
	srli	a4,a4,24
	lbu	a3,3(a5)
	andi	a3,a3,0
	or	a4,a3,a4
	sb	a4,3(a5)
	.loc 2 205 1
	nop
.LBE93:
.LBE92:
	.loc 1 342 9
	sw	zero,-20(s0)
	j	.L41
.L44:
	.loc 1 313 13
	nop
	j	.L41
.L45:
	.loc 1 330 9
	nop
.L41:
	.loc 1 345 5
	lw	a0,-132(s0)
	call	mbedtls_sha1_free
	.loc 1 346 12
	lw	a5,-20(s0)
	.loc 1 347 1
	mv	a0,a5
	lw	ra,140(sp)
	.cfi_restore 1
	lw	s0,136(sp)
	.cfi_restore 8
	.cfi_def_cfa 2, 144
	lw	s1,132(sp)
	.cfi_restore 9
	addi	sp,sp,144
	.cfi_def_cfa_offset 0
	jr	ra
	.cfi_endproc
.LFE21:
	.size	mbedtls_sha1_finish, .-mbedtls_sha1_finish
	.section	.text.mbedtls_sha1,"ax",@progbits
	.align	1
	.globl	mbedtls_sha1
	.type	mbedtls_sha1, @function
mbedtls_sha1:
.LFB22:
	.loc 1 357 1
	.cfi_startproc
	addi	sp,sp,-128
	.cfi_def_cfa_offset 128
	sw	ra,124(sp)
	sw	s0,120(sp)
	.cfi_offset 1, -4
	.cfi_offset 8, -8
	addi	s0,sp,128
	.cfi_def_cfa 8, 0
	sw	a0,-116(s0)
	sw	a1,-120(s0)
	sw	a2,-124(s0)
	.loc 1 358 9
	li	a5,-110
	sw	a5,-20(s0)
	.loc 1 361 5
	addi	a5,s0,-112
	mv	a0,a5
	call	mbedtls_sha1_init
	.loc 1 363 16
	addi	a5,s0,-112
	mv	a0,a5
	call	mbedtls_sha1_starts
	sw	a0,-20(s0)
	.loc 1 363 8 discriminator 1
	lw	a5,-20(s0)
	bne	a5,zero,.L51
	.loc 1 367 16
	addi	a5,s0,-112
	lw	a2,-120(s0)
	lw	a1,-116(s0)
	mv	a0,a5
	call	mbedtls_sha1_update
	sw	a0,-20(s0)
	.loc 1 367 8 discriminator 1
	lw	a5,-20(s0)
	bne	a5,zero,.L52
	.loc 1 371 16
	addi	a5,s0,-112
	lw	a1,-124(s0)
	mv	a0,a5
	call	mbedtls_sha1_finish
	sw	a0,-20(s0)
	.loc 1 375 1
	j	.L48
.L51:
	.loc 1 364 9
	nop
	j	.L48
.L52:
	.loc 1 368 9
	nop
.L48:
	.loc 1 376 5
	addi	a5,s0,-112
	mv	a0,a5
	call	mbedtls_sha1_free
	.loc 1 377 12
	lw	a5,-20(s0)
	.loc 1 378 1
	mv	a0,a5
	lw	ra,124(sp)
	.cfi_restore 1
	lw	s0,120(sp)
	.cfi_restore 8
	.cfi_def_cfa 2, 128
	addi	sp,sp,128
	.cfi_def_cfa_offset 0
	jr	ra
	.cfi_endproc
.LFE22:
	.size	mbedtls_sha1, .-mbedtls_sha1
	.section	.rodata.sha1_test_buf,"a"
	.align	2
	.type	sha1_test_buf, @object
	.size	sha1_test_buf, 171
sha1_test_buf:
	.string	"abc"
	.zero	53
	.string	"abcdbcdecdefdefgefghfghighijhijkijkljklmklmnlmnomnopnopq"
	.string	""
	.zero	56
	.section	.rodata.sha1_test_buflen,"a"
	.align	2
	.type	sha1_test_buflen, @object
	.size	sha1_test_buflen, 12
sha1_test_buflen:
	.word	3
	.word	56
	.word	1000
	.section	.rodata.sha1_test_sum,"a"
	.align	2
	.type	sha1_test_sum, @object
	.size	sha1_test_sum, 60
sha1_test_sum:
	.base64	"qZk+NkcGgWq6PiVxeFDCbJzQ2J0="
	.base64	"hJg+RBw70m66rkqh+VEp5eVGcPE="
	.base64	"NKqXPNTE2qT2Husr260nMWU0AW8="
	.section	.rodata
	.align	2
.LC0:
	.string	"  SHA-1 test #%d: "
	.align	2
.LC1:
	.string	"passed\n"
	.align	2
.LC2:
	.string	"\n"
	.align	2
.LC3:
	.string	"failed\n"
	.section	.text.mbedtls_sha1_self_test,"ax",@progbits
	.align	1
	.globl	mbedtls_sha1_self_test
	.type	mbedtls_sha1_self_test, @function
mbedtls_sha1_self_test:
.LFB23:
	.loc 1 410 1
	.cfi_startproc
	addi	sp,sp,-1184
	.cfi_def_cfa_offset 1184
	sw	ra,1180(sp)
	sw	s0,1176(sp)
	.cfi_offset 1, -4
	.cfi_offset 8, -8
	addi	s0,sp,1184
	.cfi_def_cfa 8, 0
	sw	a0,-1172(s0)
	.loc 1 411 23
	sw	zero,-28(s0)
	.loc 1 416 5
	addi	a5,s0,-1168
	mv	a0,a5
	call	mbedtls_sha1_init
	.loc 1 421 12
	sw	zero,-20(s0)
	.loc 1 421 5
	j	.L54
.L66:
	.loc 1 422 12
	lw	a5,-1172(s0)
	beq	a5,zero,.L55
	.loc 1 423 13
	lw	a5,-20(s0)
	addi	a5,a5,1
	mv	a1,a5
	lui	a5,%hi(.LC0)
	addi	a0,a5,%lo(.LC0)
	call	printf
.L55:
	.loc 1 426 20
	addi	a5,s0,-1168
	mv	a0,a5
	call	mbedtls_sha1_starts
	sw	a0,-28(s0)
	.loc 1 426 12 discriminator 1
	lw	a5,-28(s0)
	bne	a5,zero,.L70
	.loc 1 430 12
	lw	a4,-20(s0)
	li	a5,2
	bne	a4,a5,.L58
	.loc 1 431 37
	li	a5,1000
	sw	a5,-32(s0)
	.loc 1 431 13
	addi	a5,s0,-1056
	li	a2,1000
	li	a1,97
	mv	a0,a5
	call	memset
	.loc 1 433 20
	sw	zero,-24(s0)
	.loc 1 433 13
	j	.L59
.L61:
	.loc 1 434 23
	lw	a3,-32(s0)
	addi	a4,s0,-1056
	addi	a5,s0,-1168
	mv	a2,a3
	mv	a1,a4
	mv	a0,a5
	call	mbedtls_sha1_update
	sw	a0,-28(s0)
	.loc 1 435 20
	lw	a5,-28(s0)
	bne	a5,zero,.L71
	.loc 1 433 36 discriminator 2
	lw	a5,-24(s0)
	addi	a5,a5,1
	sw	a5,-24(s0)
.L59:
	.loc 1 433 27 discriminator 1
	lw	a4,-24(s0)
	li	a5,999
	ble	a4,a5,.L61
	j	.L62
.L58:
	.loc 1 440 58
	lw	a4,-20(s0)
	mv	a5,a4
	slli	a5,a5,3
	sub	a5,a5,a4
	slli	a5,a5,3
	add	a5,a5,a4
	lui	a4,%hi(sha1_test_buf)
	addi	a4,a4,%lo(sha1_test_buf)
	add	a3,a5,a4
	.loc 1 441 55
	lui	a5,%hi(sha1_test_buflen)
	addi	a4,a5,%lo(sha1_test_buflen)
	lw	a5,-20(s0)
	slli	a5,a5,2
	add	a5,a4,a5
	lw	a4,0(a5)
	.loc 1 440 19
	addi	a5,s0,-1168
	mv	a2,a4
	mv	a1,a3
	mv	a0,a5
	call	mbedtls_sha1_update
	sw	a0,-28(s0)
	.loc 1 442 16
	lw	a5,-28(s0)
	bne	a5,zero,.L72
.L62:
	.loc 1 447 20
	addi	a4,s0,-1076
	addi	a5,s0,-1168
	mv	a1,a4
	mv	a0,a5
	call	mbedtls_sha1_finish
	sw	a0,-28(s0)
	.loc 1 447 12 discriminator 1
	lw	a5,-28(s0)
	bne	a5,zero,.L73
	.loc 1 451 42
	lw	a4,-20(s0)
	mv	a5,a4
	slli	a5,a5,2
	add	a5,a5,a4
	slli	a5,a5,2
	lui	a4,%hi(sha1_test_sum)
	addi	a4,a4,%lo(sha1_test_sum)
	add	a4,a5,a4
	.loc 1 451 13
	addi	a5,s0,-1076
	li	a2,20
	mv	a1,a4
	mv	a0,a5
	call	memcmp
	mv	a5,a0
	.loc 1 451 12 discriminator 1
	beq	a5,zero,.L64
	.loc 1 452 17
	li	a5,1
	sw	a5,-28(s0)
	.loc 1 453 13
	j	.L57
.L64:
	.loc 1 456 12
	lw	a5,-1172(s0)
	beq	a5,zero,.L65
	.loc 1 457 13
	lui	a5,%hi(.LC1)
	addi	a0,a5,%lo(.LC1)
	call	printf
.L65:
	.loc 1 421 25 discriminator 2
	lw	a5,-20(s0)
	addi	a5,a5,1
	sw	a5,-20(s0)
.L54:
	.loc 1 421 19 discriminator 1
	lw	a4,-20(s0)
	li	a5,2
	ble	a4,a5,.L66
	.loc 1 461 8
	lw	a5,-1172(s0)
	beq	a5,zero,.L74
	.loc 1 462 9
	lui	a5,%hi(.LC2)
	addi	a0,a5,%lo(.LC2)
	call	printf
	.loc 1 465 5
	j	.L74
.L70:
	.loc 1 427 13
	nop
	j	.L57
.L71:
	.loc 1 436 21
	nop
	j	.L57
.L72:
	.loc 1 443 17
	nop
	j	.L57
.L73:
	.loc 1 448 13
	nop
.L57:
	.loc 1 468 8
	lw	a5,-1172(s0)
	beq	a5,zero,.L75
	.loc 1 469 9
	lui	a5,%hi(.LC3)
	addi	a0,a5,%lo(.LC3)
	call	printf
	j	.L68
.L74:
	.loc 1 465 5
	nop
	j	.L68
.L75:
	.loc 1 472 1
	nop
.L68:
	.loc 1 473 5
	addi	a5,s0,-1168
	mv	a0,a5
	call	mbedtls_sha1_free
	.loc 1 475 12
	lw	a5,-28(s0)
	.loc 1 476 1
	mv	a0,a5
	lw	ra,1180(sp)
	.cfi_restore 1
	lw	s0,1176(sp)
	.cfi_restore 8
	.cfi_def_cfa 2, 1184
	addi	sp,sp,1184
	.cfi_def_cfa_offset 0
	jr	ra
	.cfi_endproc
.LFE23:
	.size	mbedtls_sha1_self_test, .-mbedtls_sha1_self_test
	.text
.Letext0:
	.file 3 "/home/chandu/sdk/bl602_iot_sdk/toolchain/compiler/lib/gcc/riscv32-unknown-elf/15.1.0/include/stddef.h"
	.file 4 "/home/chandu/sdk/bl602_iot_sdk/toolchain/compiler/lib/gcc/riscv32-unknown-elf/15.1.0/include/stdint-gcc.h"
	.file 5 "/home/chandu/sdk/bl602_iot_sdk/components/security/mbedtls-bl602/include/mbedtls/sha1.h"
	.file 6 "/home/chandu/sdk/bl602_iot_sdk/toolchain/compiler/riscv32-unknown-elf/include/string.h"
	.file 7 "/home/chandu/sdk/bl602_iot_sdk/toolchain/compiler/riscv32-unknown-elf/include/stdio.h"
	.file 8 "/home/chandu/sdk/bl602_iot_sdk/components/security/mbedtls-bl602/include/mbedtls/platform_util.h"
	.section	.note.GNU-stack,"",@progbits
