	.file	"sha256.c"
	.option nopic
	.attribute arch, "rv32i2p1_m2p0_f2p2_c2p0_zicsr2p0_zmmul1p0_zca1p0_zcf1p0"
	.attribute unaligned_access, 0
	.attribute stack_align, 16
	.text
.Ltext0:
	.cfi_sections	.debug_frame
	.file 0 "/home/chandu/sdk/bl602_iot_sdk/customer_app/suas_app_pqkem_gateway/build_out/mbedtls-bl602" "/home/chandu/sdk/bl602_iot_sdk/components/security/mbedtls-bl602/library/sha256.c"
	.section	.text.mbedtls_sha256_init,"ax",@progbits
	.align	1
	.globl	mbedtls_sha256_init
	.type	mbedtls_sha256_init, @function
mbedtls_sha256_init:
.LFB15:
	.file 1 "/home/chandu/sdk/bl602_iot_sdk/components/security/mbedtls-bl602/library/sha256.c"
	.loc 1 226 1
	.cfi_startproc
	addi	sp,sp,-32
	.cfi_def_cfa_offset 32
	sw	ra,28(sp)
	sw	s0,24(sp)
	.cfi_offset 1, -4
	.cfi_offset 8, -8
	addi	s0,sp,32
	.cfi_def_cfa 8, 0
	sw	a0,-20(s0)
	.loc 1 227 5
	li	a2,108
	li	a1,0
	lw	a0,-20(s0)
	call	memset
	.loc 1 228 1
	nop
	lw	ra,28(sp)
	.cfi_restore 1
	lw	s0,24(sp)
	.cfi_restore 8
	.cfi_def_cfa 2, 32
	addi	sp,sp,32
	.cfi_def_cfa_offset 0
	jr	ra
	.cfi_endproc
.LFE15:
	.size	mbedtls_sha256_init, .-mbedtls_sha256_init
	.section	.text.mbedtls_sha256_free,"ax",@progbits
	.align	1
	.globl	mbedtls_sha256_free
	.type	mbedtls_sha256_free, @function
mbedtls_sha256_free:
.LFB16:
	.loc 1 231 1
	.cfi_startproc
	addi	sp,sp,-32
	.cfi_def_cfa_offset 32
	sw	ra,28(sp)
	sw	s0,24(sp)
	.cfi_offset 1, -4
	.cfi_offset 8, -8
	addi	s0,sp,32
	.cfi_def_cfa 8, 0
	sw	a0,-20(s0)
	.loc 1 232 8
	lw	a5,-20(s0)
	beq	a5,zero,.L5
	.loc 1 236 5
	li	a1,108
	lw	a0,-20(s0)
	call	mbedtls_platform_zeroize
	j	.L2
.L5:
	.loc 1 233 9
	nop
.L2:
	.loc 1 237 1
	lw	ra,28(sp)
	.cfi_restore 1
	lw	s0,24(sp)
	.cfi_restore 8
	.cfi_def_cfa 2, 32
	addi	sp,sp,32
	.cfi_def_cfa_offset 0
	jr	ra
	.cfi_endproc
.LFE16:
	.size	mbedtls_sha256_free, .-mbedtls_sha256_free
	.section	.text.mbedtls_sha256_clone,"ax",@progbits
	.align	1
	.globl	mbedtls_sha256_clone
	.type	mbedtls_sha256_clone, @function
mbedtls_sha256_clone:
.LFB17:
	.loc 1 241 1
	.cfi_startproc
	addi	sp,sp,-32
	.cfi_def_cfa_offset 32
	sw	ra,28(sp)
	sw	s0,24(sp)
	.cfi_offset 1, -4
	.cfi_offset 8, -8
	addi	s0,sp,32
	.cfi_def_cfa 8, 0
	sw	a0,-20(s0)
	sw	a1,-24(s0)
	.loc 1 242 10
	lw	a4,-20(s0)
	lw	a5,-24(s0)
	mv	a3,a5
	li	a5,108
	mv	a2,a5
	mv	a1,a3
	mv	a0,a4
	call	memcpy
	.loc 1 243 1
	nop
	lw	ra,28(sp)
	.cfi_restore 1
	lw	s0,24(sp)
	.cfi_restore 8
	.cfi_def_cfa 2, 32
	addi	sp,sp,32
	.cfi_def_cfa_offset 0
	jr	ra
	.cfi_endproc
.LFE17:
	.size	mbedtls_sha256_clone, .-mbedtls_sha256_clone
	.section	.text.mbedtls_sha256_starts,"ax",@progbits
	.align	1
	.globl	mbedtls_sha256_starts
	.type	mbedtls_sha256_starts, @function
mbedtls_sha256_starts:
.LFB18:
	.loc 1 249 1
	.cfi_startproc
	addi	sp,sp,-32
	.cfi_def_cfa_offset 32
	sw	ra,28(sp)
	sw	s0,24(sp)
	.cfi_offset 1, -4
	.cfi_offset 8, -8
	addi	s0,sp,32
	.cfi_def_cfa 8, 0
	sw	a0,-20(s0)
	sw	a1,-24(s0)
	.loc 1 251 8
	lw	a5,-24(s0)
	beq	a5,zero,.L8
	.loc 1 251 20 discriminator 1
	lw	a4,-24(s0)
	li	a5,1
	beq	a4,a5,.L8
	.loc 1 252 16
	li	a5,-116
	j	.L9
.L8:
	.loc 1 264 19
	lw	a5,-20(s0)
	sw	zero,64(a5)
	.loc 1 265 19
	lw	a5,-20(s0)
	sw	zero,68(a5)
	.loc 1 267 8
	lw	a5,-24(s0)
	bne	a5,zero,.L10
	.loc 1 269 23
	lw	a5,-20(s0)
	li	a4,1779032064
	addi	a4,a4,1639
	sw	a4,72(a5)
	.loc 1 270 23
	lw	a5,-20(s0)
	li	a4,-1150832640
	addi	a4,a4,-379
	sw	a4,76(a5)
	.loc 1 271 23
	lw	a5,-20(s0)
	li	a4,1013903360
	addi	a4,a4,882
	sw	a4,80(a5)
	.loc 1 272 23
	lw	a5,-20(s0)
	li	a4,-1521487872
	addi	a4,a4,1338
	sw	a4,84(a5)
	.loc 1 273 23
	lw	a5,-20(s0)
	li	a4,1359892480
	addi	a4,a4,639
	sw	a4,88(a5)
	.loc 1 274 23
	lw	a5,-20(s0)
	li	a4,-1694142464
	addi	a4,a4,-1908
	sw	a4,92(a5)
	.loc 1 275 23
	lw	a5,-20(s0)
	li	a4,528736256
	addi	a4,a4,-1621
	sw	a4,96(a5)
	.loc 1 276 23
	lw	a5,-20(s0)
	li	a4,1541459968
	addi	a4,a4,-743
	sw	a4,100(a5)
	j	.L11
.L10:
	.loc 1 280 23
	lw	a5,-20(s0)
	li	a4,-1056595968
	addi	a4,a4,-296
	sw	a4,72(a5)
	.loc 1 281 23
	lw	a5,-20(s0)
	li	a4,914149376
	addi	a4,a4,1287
	sw	a4,76(a5)
	.loc 1 282 23
	lw	a5,-20(s0)
	li	a4,812703744
	addi	a4,a4,-745
	sw	a4,80(a5)
	.loc 1 283 23
	lw	a5,-20(s0)
	li	a4,-150052864
	addi	a4,a4,-1735
	sw	a4,84(a5)
	.loc 1 284 23
	lw	a5,-20(s0)
	li	a4,-4190208
	addi	a4,a4,-1231
	sw	a4,88(a5)
	.loc 1 285 23
	lw	a5,-20(s0)
	li	a4,1750601728
	addi	a4,a4,1297
	sw	a4,92(a5)
	.loc 1 286 23
	lw	a5,-20(s0)
	li	a4,1694076928
	addi	a4,a4,-89
	sw	a4,96(a5)
	.loc 1 287 23
	lw	a5,-20(s0)
	li	a4,-1090891776
	addi	a4,a4,-92
	sw	a4,100(a5)
.L11:
	.loc 1 292 16
	lw	a5,-20(s0)
	lw	a4,-24(s0)
	sw	a4,104(a5)
	.loc 1 295 12
	li	a5,0
.L9:
	.loc 1 296 1
	mv	a0,a5
	lw	ra,28(sp)
	.cfi_restore 1
	lw	s0,24(sp)
	.cfi_restore 8
	.cfi_def_cfa 2, 32
	addi	sp,sp,32
	.cfi_def_cfa_offset 0
	jr	ra
	.cfi_endproc
.LFE18:
	.size	mbedtls_sha256_starts, .-mbedtls_sha256_starts
	.section	.rodata.K,"a"
	.align	2
	.type	K, @object
	.size	K, 256
K:
	.word	1116352408
	.word	1899447441
	.word	-1245643825
	.word	-373957723
	.word	961987163
	.word	1508970993
	.word	-1841331548
	.word	-1424204075
	.word	-670586216
	.word	310598401
	.word	607225278
	.word	1426881987
	.word	1925078388
	.word	-2132889090
	.word	-1680079193
	.word	-1046744716
	.word	-459576895
	.word	-272742522
	.word	264347078
	.word	604807628
	.word	770255983
	.word	1249150122
	.word	1555081692
	.word	1996064986
	.word	-1740746414
	.word	-1473132947
	.word	-1341970488
	.word	-1084653625
	.word	-958395405
	.word	-710438585
	.word	113926993
	.word	338241895
	.word	666307205
	.word	773529912
	.word	1294757372
	.word	1396182291
	.word	1695183700
	.word	1986661051
	.word	-2117940946
	.word	-1838011259
	.word	-1564481375
	.word	-1474664885
	.word	-1035236496
	.word	-949202525
	.word	-778901479
	.word	-694614492
	.word	-200395387
	.word	275423344
	.word	430227734
	.word	506948616
	.word	659060556
	.word	883997877
	.word	958139571
	.word	1322822218
	.word	1537002063
	.word	1747873779
	.word	1955562222
	.word	2024104815
	.word	-2067236844
	.word	-1933114872
	.word	-1866530822
	.word	-1538233109
	.word	-1090935817
	.word	-965641998
	.section	.text.mbedtls_internal_sha256_process,"ax",@progbits
	.align	1
	.globl	mbedtls_internal_sha256_process
	.type	mbedtls_internal_sha256_process, @function
mbedtls_internal_sha256_process:
.LFB19:
	.loc 1 494 1
	.cfi_startproc
	addi	sp,sp,-352
	.cfi_def_cfa_offset 352
	sw	ra,348(sp)
	sw	s0,344(sp)
	.cfi_offset 1, -4
	.cfi_offset 8, -8
	addi	s0,sp,352
	.cfi_def_cfa 8, 0
	sw	a0,-340(s0)
	sw	a1,-344(s0)
	.loc 1 502 12
	sw	zero,-20(s0)
	.loc 1 502 5
	j	.L13
.L14:
	.loc 1 503 32
	lw	a4,-340(s0)
	lw	a5,-20(s0)
	addi	a5,a5,16
	slli	a5,a5,2
	add	a5,a4,a5
	lw	a4,8(a5)
	.loc 1 503 20
	lw	a5,-20(s0)
	addi	a3,a5,64
	addi	a5,s0,-320
	slli	a3,a3,2
	add	a5,a3,a5
	sw	a4,0(a5)
	.loc 1 502 25 discriminator 3
	lw	a5,-20(s0)
	addi	a5,a5,1
	sw	a5,-20(s0)
.L13:
	.loc 1 502 19 discriminator 1
	lw	a4,-20(s0)
	li	a5,7
	bleu	a4,a5,.L14
	.loc 1 507 12
	sw	zero,-20(s0)
	.loc 1 507 5
	j	.L15
.L19:
	.loc 1 508 12
	lw	a4,-20(s0)
	li	a5,15
	bgtu	a4,a5,.L16
	.loc 1 509 141
	lw	a5,-20(s0)
	slli	a5,a5,2
	.loc 1 509 136
	lw	a4,-344(s0)
	add	a5,a4,a5
	sw	a5,-24(s0)
.LBB24:
.LBB25:
	.file 2 "/home/chandu/sdk/bl602_iot_sdk/components/security/mbedtls-bl602/library/alignment.h"
	.loc 2 174 33
	lw	a5,-24(s0)
	sw	a5,-28(s0)
	.loc 2 175 7
	lw	a5,-28(s0)
	lbu	a4,0(a5)
	lbu	a3,1(a5)
	slli	a3,a3,8
	or	a4,a3,a4
	lbu	a3,2(a5)
	slli	a3,a3,16
	or	a4,a3,a4
	lbu	a5,3(a5)
	slli	a5,a5,24
	or	a5,a5,a4
	sw	a5,-32(s0)
	.loc 2 179 12
	lw	a5,-32(s0)
.LBE25:
.LBE24:
	.loc 1 509 80 discriminator 1
	mv	a0,a5
	call	__bswapsi2
	mv	a5,a0
	mv	a3,a5
	.loc 1 509 24 discriminator 2
	lw	a4,-20(s0)
	addi	a5,s0,-320
	slli	a4,a4,2
	add	a5,a4,a5
	sw	a3,0(a5)
	j	.L18
.L16:
	.loc 1 511 45
	lw	a5,-20(s0)
	addi	a4,a5,-2
	.loc 1 511 40
	addi	a5,s0,-320
	slli	a4,a4,2
	add	a5,a4,a5
	lw	a5,0(a5)
	.loc 1 511 74
	srli	a3,a5,17
	slli	a4,a5,15
	add	a4,a4,a3
	.loc 1 511 131
	lw	a5,-20(s0)
	addi	a3,a5,-2
	.loc 1 511 126
	addi	a5,s0,-320
	slli	a3,a3,2
	add	a5,a3,a5
	lw	a5,0(a5)
	.loc 1 511 160
	srli	a3,a5,19
	slli	a5,a5,13
	add	a5,a5,a3
	.loc 1 511 113
	xor	a4,a4,a5
	.loc 1 511 216
	lw	a5,-20(s0)
	addi	a3,a5,-2
	.loc 1 511 211
	addi	a5,s0,-320
	slli	a3,a3,2
	add	a5,a3,a5
	lw	a5,0(a5)
	.loc 1 511 236
	srli	a5,a5,10
	.loc 1 511 199
	xor	a4,a4,a5
	.loc 1 511 260
	lw	a5,-20(s0)
	addi	a3,a5,-7
	.loc 1 511 255
	addi	a5,s0,-320
	slli	a3,a3,2
	add	a5,a3,a5
	lw	a5,0(a5)
	.loc 1 511 246
	add	a3,a4,a5
	.loc 1 511 284
	lw	a5,-20(s0)
	addi	a4,a5,-15
	.loc 1 511 279
	addi	a5,s0,-320
	slli	a4,a4,2
	add	a5,a4,a5
	lw	a5,0(a5)
	.loc 1 511 313
	srli	a2,a5,7
	slli	a4,a5,25
	add	a4,a4,a2
	.loc 1 511 370
	lw	a5,-20(s0)
	addi	a2,a5,-15
	.loc 1 511 365
	addi	a5,s0,-320
	slli	a2,a2,2
	add	a5,a2,a5
	lw	a5,0(a5)
	.loc 1 511 400
	srli	a2,a5,18
	slli	a5,a5,14
	add	a5,a5,a2
	.loc 1 511 352
	xor	a4,a4,a5
	.loc 1 511 457
	lw	a5,-20(s0)
	addi	a2,a5,-15
	.loc 1 511 452
	addi	a5,s0,-320
	slli	a2,a2,2
	add	a5,a2,a5
	lw	a5,0(a5)
	.loc 1 511 478
	srli	a5,a5,3
	.loc 1 511 440
	xor	a5,a4,a5
	.loc 1 511 265
	add	a4,a3,a5
	.loc 1 511 501
	lw	a5,-20(s0)
	addi	a3,a5,-16
	.loc 1 511 496
	addi	a5,s0,-320
	slli	a3,a3,2
	add	a5,a3,a5
	lw	a5,0(a5)
	.loc 1 511 487
	add	a4,a4,a5
	.loc 1 511 26
	lw	a3,-20(s0)
	addi	a5,s0,-320
	slli	a3,a3,2
	add	a5,a3,a5
	sw	a4,0(a5)
.L18:
	.loc 1 514 36
	lw	a3,-36(s0)
	.loc 1 514 55
	lw	a5,-48(s0)
	.loc 1 514 82
	srli	a2,a5,6
	slli	a4,a5,26
	add	a4,a4,a2
	.loc 1 514 127
	lw	a5,-48(s0)
	.loc 1 514 155
	srli	a2,a5,11
	slli	a5,a5,21
	add	a5,a5,a2
	.loc 1 514 114
	xor	a4,a4,a5
	.loc 1 514 201
	lw	a5,-48(s0)
	.loc 1 514 229
	srli	a2,a5,25
	slli	a5,a5,7
	add	a5,a5,a2
	.loc 1 514 188
	xor	a5,a4,a5
	.loc 1 514 41
	add	a4,a3,a5
	.loc 1 514 275
	lw	a3,-40(s0)
	.loc 1 514 293
	lw	a2,-48(s0)
	.loc 1 514 311
	lw	a1,-44(s0)
	.loc 1 514 328
	lw	a5,-40(s0)
	.loc 1 514 317
	xor	a5,a1,a5
	.loc 1 514 299
	and	a5,a2,a5
	.loc 1 514 281
	xor	a5,a3,a5
	.loc 1 514 263
	add	a4,a4,a5
	.loc 1 514 341
	lui	a5,%hi(K)
	addi	a3,a5,%lo(K)
	lw	a5,-20(s0)
	slli	a5,a5,2
	add	a5,a3,a5
	lw	a5,0(a5)
	.loc 1 514 337
	add	a4,a4,a5
	.loc 1 514 356
	lw	a3,-20(s0)
	addi	a5,s0,-320
	slli	a3,a3,2
	add	a5,a3,a5
	lw	a5,0(a5)
	.loc 1 514 346
	add	a5,a4,a5
	.loc 1 514 26
	sw	a5,-328(s0)
	.loc 1 514 388
	lw	a5,-64(s0)
	.loc 1 514 415
	srli	a3,a5,2
	slli	a4,a5,30
	add	a4,a4,a3
	.loc 1 514 460
	lw	a5,-64(s0)
	.loc 1 514 488
	srli	a3,a5,13
	slli	a5,a5,19
	add	a5,a5,a3
	.loc 1 514 447
	xor	a4,a4,a5
	.loc 1 514 534
	lw	a5,-64(s0)
	.loc 1 514 562
	srli	a3,a5,22
	slli	a5,a5,10
	add	a5,a5,a3
	.loc 1 514 521
	xor	a4,a4,a5
	.loc 1 514 609
	lw	a3,-64(s0)
	.loc 1 514 626
	lw	a5,-60(s0)
	.loc 1 514 615
	and	a3,a3,a5
	.loc 1 514 645
	lw	a2,-56(s0)
	.loc 1 514 663
	lw	a1,-64(s0)
	.loc 1 514 680
	lw	a5,-60(s0)
	.loc 1 514 669
	or	a5,a1,a5
	.loc 1 514 651
	and	a5,a2,a5
	.loc 1 514 633
	or	a5,a3,a5
	.loc 1 514 596
	add	a5,a4,a5
	.loc 1 514 374
	sw	a5,-324(s0)
	.loc 1 514 698
	lw	a4,-52(s0)
	.loc 1 514 711
	lw	a5,-328(s0)
	.loc 1 514 703
	add	a5,a4,a5
	sw	a5,-52(s0)
	.loc 1 514 739
	lw	a4,-328(s0)
	.loc 1 514 753
	lw	a5,-324(s0)
	.loc 1 514 746
	add	a5,a4,a5
	.loc 1 514 732
	sw	a5,-36(s0)
	.loc 1 517 30
	lw	a5,-36(s0)
	.loc 1 517 21
	sw	a5,-328(s0)
	.loc 1 517 55
	lw	a5,-40(s0)
	.loc 1 517 46
	sw	a5,-36(s0)
	.loc 1 518 29
	lw	a5,-44(s0)
	.loc 1 518 20
	sw	a5,-40(s0)
	.loc 1 518 54
	lw	a5,-48(s0)
	.loc 1 518 45
	sw	a5,-44(s0)
	.loc 1 519 29
	lw	a5,-52(s0)
	.loc 1 519 20
	sw	a5,-48(s0)
	.loc 1 519 54
	lw	a5,-56(s0)
	.loc 1 519 45
	sw	a5,-52(s0)
	.loc 1 520 29
	lw	a5,-60(s0)
	.loc 1 520 20
	sw	a5,-56(s0)
	.loc 1 520 54
	lw	a5,-64(s0)
	.loc 1 520 45
	sw	a5,-60(s0)
	.loc 1 521 27
	lw	a5,-328(s0)
	.loc 1 521 20
	sw	a5,-64(s0)
	.loc 1 507 26 discriminator 2
	lw	a5,-20(s0)
	addi	a5,a5,1
	sw	a5,-20(s0)
.L15:
	.loc 1 507 19 discriminator 1
	lw	a4,-20(s0)
	li	a5,63
	bleu	a4,a5,.L19
	.loc 1 567 12
	sw	zero,-20(s0)
	.loc 1 567 5
	j	.L20
.L21:
	.loc 1 568 19
	lw	a4,-340(s0)
	lw	a5,-20(s0)
	addi	a5,a5,16
	slli	a5,a5,2
	add	a5,a4,a5
	lw	a4,8(a5)
	.loc 1 568 33
	lw	a5,-20(s0)
	addi	a3,a5,64
	addi	a5,s0,-320
	slli	a3,a3,2
	add	a5,a3,a5
	lw	a5,0(a5)
	.loc 1 568 23
	add	a4,a4,a5
	lw	a3,-340(s0)
	lw	a5,-20(s0)
	addi	a5,a5,16
	slli	a5,a5,2
	add	a5,a3,a5
	sw	a4,8(a5)
	.loc 1 567 25 discriminator 3
	lw	a5,-20(s0)
	addi	a5,a5,1
	sw	a5,-20(s0)
.L20:
	.loc 1 567 19 discriminator 1
	lw	a4,-20(s0)
	li	a5,7
	bleu	a4,a5,.L21
	.loc 1 572 5
	addi	a5,s0,-328
	li	a1,296
	mv	a0,a5
	call	mbedtls_platform_zeroize
	.loc 1 574 12
	li	a5,0
	.loc 1 575 1
	mv	a0,a5
	lw	ra,348(sp)
	.cfi_restore 1
	lw	s0,344(sp)
	.cfi_restore 8
	.cfi_def_cfa 2, 352
	addi	sp,sp,352
	.cfi_def_cfa_offset 0
	jr	ra
	.cfi_endproc
.LFE19:
	.size	mbedtls_internal_sha256_process, .-mbedtls_internal_sha256_process
	.section	.text.mbedtls_internal_sha256_process_many,"ax",@progbits
	.align	1
	.type	mbedtls_internal_sha256_process_many, @function
mbedtls_internal_sha256_process_many:
.LFB20:
	.loc 1 584 1
	.cfi_startproc
	addi	sp,sp,-48
	.cfi_def_cfa_offset 48
	sw	ra,44(sp)
	sw	s0,40(sp)
	.cfi_offset 1, -4
	.cfi_offset 8, -8
	addi	s0,sp,48
	.cfi_def_cfa 8, 0
	sw	a0,-36(s0)
	sw	a1,-40(s0)
	sw	a2,-44(s0)
	.loc 1 585 12
	sw	zero,-20(s0)
	.loc 1 587 11
	j	.L24
.L27:
	.loc 1 588 13
	lw	a1,-40(s0)
	lw	a0,-36(s0)
	call	mbedtls_internal_sha256_process
	mv	a5,a0
	.loc 1 588 12 discriminator 1
	beq	a5,zero,.L25
	.loc 1 589 20
	li	a5,0
	j	.L26
.L25:
	.loc 1 592 14
	lw	a5,-40(s0)
	addi	a5,a5,64
	sw	a5,-40(s0)
	.loc 1 593 13
	lw	a5,-44(s0)
	addi	a5,a5,-64
	sw	a5,-44(s0)
	.loc 1 595 19
	lw	a5,-20(s0)
	addi	a5,a5,64
	sw	a5,-20(s0)
.L24:
	.loc 1 587 16
	lw	a4,-44(s0)
	li	a5,63
	bgtu	a4,a5,.L27
	.loc 1 598 12
	lw	a5,-20(s0)
.L26:
	.loc 1 599 1
	mv	a0,a5
	lw	ra,44(sp)
	.cfi_restore 1
	lw	s0,40(sp)
	.cfi_restore 8
	.cfi_def_cfa 2, 48
	addi	sp,sp,48
	.cfi_def_cfa_offset 0
	jr	ra
	.cfi_endproc
.LFE20:
	.size	mbedtls_internal_sha256_process_many, .-mbedtls_internal_sha256_process_many
	.section	.text.mbedtls_sha256_update,"ax",@progbits
	.align	1
	.globl	mbedtls_sha256_update
	.type	mbedtls_sha256_update, @function
mbedtls_sha256_update:
.LFB21:
	.loc 1 648 1
	.cfi_startproc
	addi	sp,sp,-48
	.cfi_def_cfa_offset 48
	sw	ra,44(sp)
	sw	s0,40(sp)
	.cfi_offset 1, -4
	.cfi_offset 8, -8
	addi	s0,sp,48
	.cfi_def_cfa 8, 0
	sw	a0,-36(s0)
	sw	a1,-40(s0)
	sw	a2,-44(s0)
	.loc 1 649 9
	li	a5,-110
	sw	a5,-24(s0)
	.loc 1 653 8
	lw	a5,-44(s0)
	bne	a5,zero,.L29
	.loc 1 654 16
	li	a5,0
	j	.L30
.L29:
	.loc 1 657 22
	lw	a5,-36(s0)
	lw	a5,64(a5)
	.loc 1 657 10
	andi	a5,a5,63
	sw	a5,-20(s0)
	.loc 1 658 10
	li	a4,64
	lw	a5,-20(s0)
	sub	a5,a4,a5
	sw	a5,-28(s0)
	.loc 1 660 15
	lw	a5,-36(s0)
	lw	a4,64(a5)
	.loc 1 660 19
	lw	a5,-44(s0)
	add	a4,a4,a5
	lw	a5,-36(s0)
	sw	a4,64(a5)
	.loc 1 661 15
	lw	a5,-36(s0)
	lw	a4,64(a5)
	.loc 1 661 19
	lw	a5,-36(s0)
	sw	a4,64(a5)
	.loc 1 663 19
	lw	a5,-36(s0)
	lw	a5,64(a5)
	.loc 1 663 8
	lw	a4,-44(s0)
	bleu	a4,a5,.L31
	.loc 1 664 19
	lw	a5,-36(s0)
	lw	a5,68(a5)
	.loc 1 664 22
	addi	a4,a5,1
	lw	a5,-36(s0)
	sw	a4,68(a5)
.L31:
	.loc 1 667 8
	lw	a5,-20(s0)
	beq	a5,zero,.L34
	.loc 1 667 14 discriminator 1
	lw	a4,-44(s0)
	lw	a5,-28(s0)
	bltu	a4,a5,.L34
	.loc 1 668 26
	lw	a4,-36(s0)
	.loc 1 668 9
	lw	a5,-20(s0)
	add	a5,a4,a5
	lw	a2,-28(s0)
	lw	a1,-40(s0)
	mv	a0,a5
	call	memcpy
	.loc 1 670 60
	lw	a5,-36(s0)
	.loc 1 670 20
	mv	a1,a5
	lw	a0,-36(s0)
	call	mbedtls_internal_sha256_process
	sw	a0,-24(s0)
	.loc 1 670 12 discriminator 1
	lw	a5,-24(s0)
	beq	a5,zero,.L33
	.loc 1 671 20
	lw	a5,-24(s0)
	j	.L30
.L33:
	.loc 1 674 15
	lw	a4,-40(s0)
	lw	a5,-28(s0)
	add	a5,a4,a5
	sw	a5,-40(s0)
	.loc 1 675 14
	lw	a4,-44(s0)
	lw	a5,-28(s0)
	sub	a5,a4,a5
	sw	a5,-44(s0)
	.loc 1 676 14
	sw	zero,-20(s0)
	.loc 1 679 11
	j	.L34
.L36:
.LBB26:
	.loc 1 681 13
	lw	a2,-44(s0)
	lw	a1,-40(s0)
	lw	a0,-36(s0)
	call	mbedtls_internal_sha256_process_many
	sw	a0,-32(s0)
	.loc 1 682 12
	lw	a4,-32(s0)
	li	a5,63
	bgtu	a4,a5,.L35
	.loc 1 683 20
	li	a5,-1
	j	.L30
.L35:
	.loc 1 686 15
	lw	a4,-40(s0)
	lw	a5,-32(s0)
	add	a5,a4,a5
	sw	a5,-40(s0)
	.loc 1 687 14
	lw	a4,-44(s0)
	lw	a5,-32(s0)
	sub	a5,a4,a5
	sw	a5,-44(s0)
.L34:
.LBE26:
	.loc 1 679 17
	lw	a4,-44(s0)
	li	a5,63
	bgtu	a4,a5,.L36
	.loc 1 690 8
	lw	a5,-44(s0)
	beq	a5,zero,.L37
	.loc 1 691 26
	lw	a4,-36(s0)
	.loc 1 691 9
	lw	a5,-20(s0)
	add	a5,a4,a5
	lw	a2,-44(s0)
	lw	a1,-40(s0)
	mv	a0,a5
	call	memcpy
.L37:
	.loc 1 694 12
	li	a5,0
.L30:
	.loc 1 695 1
	mv	a0,a5
	lw	ra,44(sp)
	.cfi_restore 1
	lw	s0,40(sp)
	.cfi_restore 8
	.cfi_def_cfa 2, 48
	addi	sp,sp,48
	.cfi_def_cfa_offset 0
	jr	ra
	.cfi_endproc
.LFE21:
	.size	mbedtls_sha256_update, .-mbedtls_sha256_update
	.section	.text.mbedtls_sha256_finish,"ax",@progbits
	.align	1
	.globl	mbedtls_sha256_finish
	.type	mbedtls_sha256_finish, @function
mbedtls_sha256_finish:
.LFB22:
	.loc 1 702 1
	.cfi_startproc
	addi	sp,sp,-176
	.cfi_def_cfa_offset 176
	sw	ra,172(sp)
	sw	s0,168(sp)
	sw	s1,164(sp)
	.cfi_offset 1, -4
	.cfi_offset 8, -8
	.cfi_offset 9, -12
	addi	s0,sp,176
	.cfi_def_cfa 8, 0
	sw	a0,-164(s0)
	sw	a1,-168(s0)
	.loc 1 703 9
	li	a5,-110
	sw	a5,-28(s0)
	.loc 1 706 9
	sw	zero,-36(s0)
	.loc 1 711 22
	lw	a5,-164(s0)
	lw	a5,64(a5)
	.loc 1 711 10
	andi	a5,a5,63
	sw	a5,-32(s0)
	.loc 1 713 21
	lw	a5,-32(s0)
	addi	a4,a5,1
	sw	a4,-32(s0)
	.loc 1 713 25
	lw	a4,-164(s0)
	add	a5,a4,a5
	li	a4,-128
	sb	a4,0(a5)
	.loc 1 715 8
	lw	a4,-32(s0)
	li	a5,56
	bgtu	a4,a5,.L39
	.loc 1 717 16
	lw	a4,-164(s0)
	.loc 1 717 9
	lw	a5,-32(s0)
	add	a3,a4,a5
	.loc 1 717 42
	li	a4,56
	lw	a5,-32(s0)
	sub	a5,a4,a5
	.loc 1 717 9
	mv	a2,a5
	li	a1,0
	mv	a0,a3
	call	memset
	j	.L40
.L39:
	.loc 1 720 16
	lw	a4,-164(s0)
	.loc 1 720 9
	lw	a5,-32(s0)
	add	a3,a4,a5
	.loc 1 720 42
	li	a4,64
	lw	a5,-32(s0)
	sub	a5,a4,a5
	.loc 1 720 9
	mv	a2,a5
	li	a1,0
	mv	a0,a3
	call	memset
	.loc 1 722 60
	lw	a5,-164(s0)
	.loc 1 722 20
	mv	a1,a5
	lw	a0,-164(s0)
	call	mbedtls_internal_sha256_process
	sw	a0,-28(s0)
	.loc 1 722 12 discriminator 1
	lw	a5,-28(s0)
	bne	a5,zero,.L46
	.loc 1 726 19
	lw	a5,-164(s0)
	.loc 1 726 9
	li	a2,56
	li	a1,0
	mv	a0,a5
	call	memset
.L40:
	.loc 1 732 23
	lw	a5,-164(s0)
	lw	a5,64(a5)
	.loc 1 732 27
	srli	a4,a5,29
	.loc 1 733 25
	lw	a5,-164(s0)
	lw	a5,68(a5)
	.loc 1 733 29
	slli	a5,a5,3
	.loc 1 732 10
	or	a5,a4,a5
	sw	a5,-24(s0)
	.loc 1 734 22
	lw	a5,-164(s0)
	lw	a5,64(a5)
	.loc 1 734 9
	slli	a5,a5,3
	sw	a5,-20(s0)
	.loc 1 736 125 discriminator 2
	lw	a5,-164(s0)
	.loc 1 736 96 discriminator 2
	addi	s1,a5,56
	.loc 1 736 147 discriminator 2
	lw	a0,-24(s0)
	call	__bswapsi2
	mv	a5,a0
	sw	s1,-44(s0)
	sw	a5,-40(s0)
.LBB27:
.LBB28:
	.loc 2 200 33
	lw	a5,-44(s0)
	sw	a5,-48(s0)
	.loc 2 201 12
	lw	a5,-48(s0)
	lw	a4,-40(s0)
	andi	a4,a4,255
	lbu	a3,0(a5)
	andi	a3,a3,0
	or	a4,a3,a4
	sb	a4,0(a5)
	lw	a4,-40(s0)
	srli	a4,a4,8
	andi	a4,a4,255
	lbu	a3,1(a5)
	andi	a3,a3,0
	or	a4,a3,a4
	sb	a4,1(a5)
	lw	a4,-40(s0)
	srli	a4,a4,16
	andi	a4,a4,255
	lbu	a3,2(a5)
	andi	a3,a3,0
	or	a4,a3,a4
	sb	a4,2(a5)
	lw	a4,-40(s0)
	srli	a4,a4,24
	lbu	a3,3(a5)
	andi	a3,a3,0
	or	a4,a3,a4
	sb	a4,3(a5)
	.loc 2 205 1
	nop
.LBE28:
.LBE27:
	.loc 1 737 124 discriminator 2
	lw	a5,-164(s0)
	.loc 1 737 95 discriminator 2
	addi	s1,a5,60
	.loc 1 737 146 discriminator 2
	lw	a0,-20(s0)
	call	__bswapsi2
	mv	a5,a0
	sw	s1,-52(s0)
	sw	a5,-56(s0)
.LBB29:
.LBB30:
	.loc 2 200 33
	lw	a5,-52(s0)
	sw	a5,-60(s0)
	.loc 2 201 12
	lw	a5,-60(s0)
	lw	a4,-56(s0)
	andi	a4,a4,255
	lbu	a3,0(a5)
	andi	a3,a3,0
	or	a4,a3,a4
	sb	a4,0(a5)
	lw	a4,-56(s0)
	srli	a4,a4,8
	andi	a4,a4,255
	lbu	a3,1(a5)
	andi	a3,a3,0
	or	a4,a3,a4
	sb	a4,1(a5)
	lw	a4,-56(s0)
	srli	a4,a4,16
	andi	a4,a4,255
	lbu	a3,2(a5)
	andi	a3,a3,0
	or	a4,a3,a4
	sb	a4,2(a5)
	lw	a4,-56(s0)
	srli	a4,a4,24
	lbu	a3,3(a5)
	andi	a3,a3,0
	or	a4,a3,a4
	sb	a4,3(a5)
	.loc 2 205 1
	nop
.LBE30:
.LBE29:
	.loc 1 739 56
	lw	a5,-164(s0)
	.loc 1 739 16
	mv	a1,a5
	lw	a0,-164(s0)
	call	mbedtls_internal_sha256_process
	sw	a0,-28(s0)
	.loc 1 739 8 discriminator 1
	lw	a5,-28(s0)
	bne	a5,zero,.L47
	.loc 1 746 184 discriminator 2
	lw	a5,-164(s0)
	lw	a5,72(a5)
	.loc 1 746 144 discriminator 2
	mv	a0,a5
	call	__bswapsi2
	mv	a5,a0
	mv	a4,a5
	lw	a5,-168(s0)
	sw	a5,-64(s0)
	sw	a4,-68(s0)
.LBB31:
.LBB32:
	.loc 2 200 33
	lw	a5,-64(s0)
	sw	a5,-72(s0)
	.loc 2 201 12
	lw	a5,-72(s0)
	lw	a4,-68(s0)
	andi	a4,a4,255
	lbu	a3,0(a5)
	andi	a3,a3,0
	or	a4,a3,a4
	sb	a4,0(a5)
	lw	a4,-68(s0)
	srli	a4,a4,8
	andi	a4,a4,255
	lbu	a3,1(a5)
	andi	a3,a3,0
	or	a4,a3,a4
	sb	a4,1(a5)
	lw	a4,-68(s0)
	srli	a4,a4,16
	andi	a4,a4,255
	lbu	a3,2(a5)
	andi	a3,a3,0
	or	a4,a3,a4
	sb	a4,2(a5)
	lw	a4,-68(s0)
	srli	a4,a4,24
	lbu	a3,3(a5)
	andi	a3,a3,0
	or	a4,a3,a4
	sb	a4,3(a5)
	.loc 2 205 1
	nop
.LBE32:
.LBE31:
	.loc 1 747 137 discriminator 2
	lw	a5,-168(s0)
	addi	s1,a5,4
	.loc 1 747 184 discriminator 2
	lw	a5,-164(s0)
	lw	a5,76(a5)
	.loc 1 747 144 discriminator 2
	mv	a0,a5
	call	__bswapsi2
	mv	a5,a0
	sw	s1,-76(s0)
	sw	a5,-80(s0)
.LBB33:
.LBB34:
	.loc 2 200 33
	lw	a5,-76(s0)
	sw	a5,-84(s0)
	.loc 2 201 12
	lw	a5,-84(s0)
	lw	a4,-80(s0)
	andi	a4,a4,255
	lbu	a3,0(a5)
	andi	a3,a3,0
	or	a4,a3,a4
	sb	a4,0(a5)
	lw	a4,-80(s0)
	srli	a4,a4,8
	andi	a4,a4,255
	lbu	a3,1(a5)
	andi	a3,a3,0
	or	a4,a3,a4
	sb	a4,1(a5)
	lw	a4,-80(s0)
	srli	a4,a4,16
	andi	a4,a4,255
	lbu	a3,2(a5)
	andi	a3,a3,0
	or	a4,a3,a4
	sb	a4,2(a5)
	lw	a4,-80(s0)
	srli	a4,a4,24
	lbu	a3,3(a5)
	andi	a3,a3,0
	or	a4,a3,a4
	sb	a4,3(a5)
	.loc 2 205 1
	nop
.LBE34:
.LBE33:
	.loc 1 748 137 discriminator 2
	lw	a5,-168(s0)
	addi	s1,a5,8
	.loc 1 748 184 discriminator 2
	lw	a5,-164(s0)
	lw	a5,80(a5)
	.loc 1 748 144 discriminator 2
	mv	a0,a5
	call	__bswapsi2
	mv	a5,a0
	sw	s1,-88(s0)
	sw	a5,-92(s0)
.LBB35:
.LBB36:
	.loc 2 200 33
	lw	a5,-88(s0)
	sw	a5,-96(s0)
	.loc 2 201 12
	lw	a5,-96(s0)
	lw	a4,-92(s0)
	andi	a4,a4,255
	lbu	a3,0(a5)
	andi	a3,a3,0
	or	a4,a3,a4
	sb	a4,0(a5)
	lw	a4,-92(s0)
	srli	a4,a4,8
	andi	a4,a4,255
	lbu	a3,1(a5)
	andi	a3,a3,0
	or	a4,a3,a4
	sb	a4,1(a5)
	lw	a4,-92(s0)
	srli	a4,a4,16
	andi	a4,a4,255
	lbu	a3,2(a5)
	andi	a3,a3,0
	or	a4,a3,a4
	sb	a4,2(a5)
	lw	a4,-92(s0)
	srli	a4,a4,24
	lbu	a3,3(a5)
	andi	a3,a3,0
	or	a4,a3,a4
	sb	a4,3(a5)
	.loc 2 205 1
	nop
.LBE36:
.LBE35:
	.loc 1 749 138 discriminator 2
	lw	a5,-168(s0)
	addi	s1,a5,12
	.loc 1 749 186 discriminator 2
	lw	a5,-164(s0)
	lw	a5,84(a5)
	.loc 1 749 146 discriminator 2
	mv	a0,a5
	call	__bswapsi2
	mv	a5,a0
	sw	s1,-100(s0)
	sw	a5,-104(s0)
.LBB37:
.LBB38:
	.loc 2 200 33
	lw	a5,-100(s0)
	sw	a5,-108(s0)
	.loc 2 201 12
	lw	a5,-108(s0)
	lw	a4,-104(s0)
	andi	a4,a4,255
	lbu	a3,0(a5)
	andi	a3,a3,0
	or	a4,a3,a4
	sb	a4,0(a5)
	lw	a4,-104(s0)
	srli	a4,a4,8
	andi	a4,a4,255
	lbu	a3,1(a5)
	andi	a3,a3,0
	or	a4,a3,a4
	sb	a4,1(a5)
	lw	a4,-104(s0)
	srli	a4,a4,16
	andi	a4,a4,255
	lbu	a3,2(a5)
	andi	a3,a3,0
	or	a4,a3,a4
	sb	a4,2(a5)
	lw	a4,-104(s0)
	srli	a4,a4,24
	lbu	a3,3(a5)
	andi	a3,a3,0
	or	a4,a3,a4
	sb	a4,3(a5)
	.loc 2 205 1
	nop
.LBE38:
.LBE37:
	.loc 1 750 138 discriminator 2
	lw	a5,-168(s0)
	addi	s1,a5,16
	.loc 1 750 186 discriminator 2
	lw	a5,-164(s0)
	lw	a5,88(a5)
	.loc 1 750 146 discriminator 2
	mv	a0,a5
	call	__bswapsi2
	mv	a5,a0
	sw	s1,-112(s0)
	sw	a5,-116(s0)
.LBB39:
.LBB40:
	.loc 2 200 33
	lw	a5,-112(s0)
	sw	a5,-120(s0)
	.loc 2 201 12
	lw	a5,-120(s0)
	lw	a4,-116(s0)
	andi	a4,a4,255
	lbu	a3,0(a5)
	andi	a3,a3,0
	or	a4,a3,a4
	sb	a4,0(a5)
	lw	a4,-116(s0)
	srli	a4,a4,8
	andi	a4,a4,255
	lbu	a3,1(a5)
	andi	a3,a3,0
	or	a4,a3,a4
	sb	a4,1(a5)
	lw	a4,-116(s0)
	srli	a4,a4,16
	andi	a4,a4,255
	lbu	a3,2(a5)
	andi	a3,a3,0
	or	a4,a3,a4
	sb	a4,2(a5)
	lw	a4,-116(s0)
	srli	a4,a4,24
	lbu	a3,3(a5)
	andi	a3,a3,0
	or	a4,a3,a4
	sb	a4,3(a5)
	.loc 2 205 1
	nop
.LBE40:
.LBE39:
	.loc 1 751 138 discriminator 2
	lw	a5,-168(s0)
	addi	s1,a5,20
	.loc 1 751 186 discriminator 2
	lw	a5,-164(s0)
	lw	a5,92(a5)
	.loc 1 751 146 discriminator 2
	mv	a0,a5
	call	__bswapsi2
	mv	a5,a0
	sw	s1,-124(s0)
	sw	a5,-128(s0)
.LBB41:
.LBB42:
	.loc 2 200 33
	lw	a5,-124(s0)
	sw	a5,-132(s0)
	.loc 2 201 12
	lw	a5,-132(s0)
	lw	a4,-128(s0)
	andi	a4,a4,255
	lbu	a3,0(a5)
	andi	a3,a3,0
	or	a4,a3,a4
	sb	a4,0(a5)
	lw	a4,-128(s0)
	srli	a4,a4,8
	andi	a4,a4,255
	lbu	a3,1(a5)
	andi	a3,a3,0
	or	a4,a3,a4
	sb	a4,1(a5)
	lw	a4,-128(s0)
	srli	a4,a4,16
	andi	a4,a4,255
	lbu	a3,2(a5)
	andi	a3,a3,0
	or	a4,a3,a4
	sb	a4,2(a5)
	lw	a4,-128(s0)
	srli	a4,a4,24
	lbu	a3,3(a5)
	andi	a3,a3,0
	or	a4,a3,a4
	sb	a4,3(a5)
	.loc 2 205 1
	nop
.LBE42:
.LBE41:
	.loc 1 752 138 discriminator 2
	lw	a5,-168(s0)
	addi	s1,a5,24
	.loc 1 752 186 discriminator 2
	lw	a5,-164(s0)
	lw	a5,96(a5)
	.loc 1 752 146 discriminator 2
	mv	a0,a5
	call	__bswapsi2
	mv	a5,a0
	sw	s1,-136(s0)
	sw	a5,-140(s0)
.LBB43:
.LBB44:
	.loc 2 200 33
	lw	a5,-136(s0)
	sw	a5,-144(s0)
	.loc 2 201 12
	lw	a5,-144(s0)
	lw	a4,-140(s0)
	andi	a4,a4,255
	lbu	a3,0(a5)
	andi	a3,a3,0
	or	a4,a3,a4
	sb	a4,0(a5)
	lw	a4,-140(s0)
	srli	a4,a4,8
	andi	a4,a4,255
	lbu	a3,1(a5)
	andi	a3,a3,0
	or	a4,a3,a4
	sb	a4,1(a5)
	lw	a4,-140(s0)
	srli	a4,a4,16
	andi	a4,a4,255
	lbu	a3,2(a5)
	andi	a3,a3,0
	or	a4,a3,a4
	sb	a4,2(a5)
	lw	a4,-140(s0)
	srli	a4,a4,24
	lbu	a3,3(a5)
	andi	a3,a3,0
	or	a4,a3,a4
	sb	a4,3(a5)
	.loc 2 205 1
	nop
.LBE44:
.LBE43:
	.loc 1 755 15
	lw	a5,-164(s0)
	lw	a5,104(a5)
	sw	a5,-36(s0)
	.loc 1 757 8
	lw	a5,-36(s0)
	bne	a5,zero,.L44
	.loc 1 758 142 discriminator 2
	lw	a5,-168(s0)
	addi	s1,a5,28
	.loc 1 758 190 discriminator 2
	lw	a5,-164(s0)
	lw	a5,100(a5)
	.loc 1 758 150 discriminator 2
	mv	a0,a5
	call	__bswapsi2
	mv	a5,a0
	sw	s1,-148(s0)
	sw	a5,-152(s0)
.LBB45:
.LBB46:
	.loc 2 200 33
	lw	a5,-148(s0)
	sw	a5,-156(s0)
	.loc 2 201 12
	lw	a5,-156(s0)
	lw	a4,-152(s0)
	andi	a4,a4,255
	lbu	a3,0(a5)
	andi	a3,a3,0
	or	a4,a3,a4
	sb	a4,0(a5)
	lw	a4,-152(s0)
	srli	a4,a4,8
	andi	a4,a4,255
	lbu	a3,1(a5)
	andi	a3,a3,0
	or	a4,a3,a4
	sb	a4,1(a5)
	lw	a4,-152(s0)
	srli	a4,a4,16
	andi	a4,a4,255
	lbu	a3,2(a5)
	andi	a3,a3,0
	or	a4,a3,a4
	sb	a4,2(a5)
	lw	a4,-152(s0)
	srli	a4,a4,24
	lbu	a3,3(a5)
	andi	a3,a3,0
	or	a4,a3,a4
	sb	a4,3(a5)
	.loc 2 205 1
	nop
.L44:
.LBE46:
.LBE45:
	.loc 1 761 9
	sw	zero,-28(s0)
	j	.L42
.L46:
	.loc 1 723 13
	nop
	j	.L42
.L47:
	.loc 1 740 9
	nop
.L42:
	.loc 1 764 5
	lw	a0,-164(s0)
	call	mbedtls_sha256_free
	.loc 1 765 12
	lw	a5,-28(s0)
	.loc 1 766 1
	mv	a0,a5
	lw	ra,172(sp)
	.cfi_restore 1
	lw	s0,168(sp)
	.cfi_restore 8
	.cfi_def_cfa 2, 176
	lw	s1,164(sp)
	.cfi_restore 9
	addi	sp,sp,176
	.cfi_def_cfa_offset 0
	jr	ra
	.cfi_endproc
.LFE22:
	.size	mbedtls_sha256_finish, .-mbedtls_sha256_finish
	.section	.text.mbedtls_sha256,"ax",@progbits
	.align	1
	.globl	mbedtls_sha256
	.type	mbedtls_sha256, @function
mbedtls_sha256:
.LFB23:
	.loc 1 777 1
	.cfi_startproc
	addi	sp,sp,-144
	.cfi_def_cfa_offset 144
	sw	ra,140(sp)
	sw	s0,136(sp)
	.cfi_offset 1, -4
	.cfi_offset 8, -8
	addi	s0,sp,144
	.cfi_def_cfa 8, 0
	sw	a0,-132(s0)
	sw	a1,-136(s0)
	sw	a2,-140(s0)
	sw	a3,-144(s0)
	.loc 1 778 9
	li	a5,-110
	sw	a5,-20(s0)
	.loc 1 782 8
	lw	a5,-144(s0)
	beq	a5,zero,.L49
	.loc 1 782 20 discriminator 1
	lw	a4,-144(s0)
	li	a5,1
	beq	a4,a5,.L49
	.loc 1 783 16
	li	a5,-116
	j	.L54
.L49:
	.loc 1 795 5
	addi	a5,s0,-128
	mv	a0,a5
	call	mbedtls_sha256_init
	.loc 1 797 16
	addi	a5,s0,-128
	lw	a1,-144(s0)
	mv	a0,a5
	call	mbedtls_sha256_starts
	sw	a0,-20(s0)
	.loc 1 797 8 discriminator 1
	lw	a5,-20(s0)
	bne	a5,zero,.L55
	.loc 1 801 16
	addi	a5,s0,-128
	lw	a2,-136(s0)
	lw	a1,-132(s0)
	mv	a0,a5
	call	mbedtls_sha256_update
	sw	a0,-20(s0)
	.loc 1 801 8 discriminator 1
	lw	a5,-20(s0)
	bne	a5,zero,.L56
	.loc 1 805 16
	addi	a5,s0,-128
	lw	a1,-140(s0)
	mv	a0,a5
	call	mbedtls_sha256_finish
	sw	a0,-20(s0)
	.loc 1 809 1
	j	.L52
.L55:
	.loc 1 798 9
	nop
	j	.L52
.L56:
	.loc 1 802 9
	nop
.L52:
	.loc 1 810 5
	addi	a5,s0,-128
	mv	a0,a5
	call	mbedtls_sha256_free
	.loc 1 812 12
	lw	a5,-20(s0)
.L54:
	.loc 1 813 1
	mv	a0,a5
	lw	ra,140(sp)
	.cfi_restore 1
	lw	s0,136(sp)
	.cfi_restore 8
	.cfi_def_cfa 2, 144
	addi	sp,sp,144
	.cfi_def_cfa_offset 0
	jr	ra
	.cfi_endproc
.LFE23:
	.size	mbedtls_sha256, .-mbedtls_sha256
	.section	.rodata.sha_test_buf,"a"
	.align	2
	.type	sha_test_buf, @object
	.size	sha_test_buf, 171
sha_test_buf:
	.string	"abc"
	.zero	53
	.string	"abcdbcdecdefdefgefghfghighijhijkijkljklmklmnlmnomnopnopq"
	.string	""
	.zero	56
	.section	.rodata.sha_test_buflen,"a"
	.align	2
	.type	sha_test_buflen, @object
	.size	sha_test_buflen, 12
sha_test_buflen:
	.word	3
	.word	56
	.word	1000
	.section	.rodata.sha224_test_sum,"a"
	.align	2
	.type	sha224_test_sum, @object
	.size	sha224_test_sum, 96
sha224_test_sum:
	.base64	"Iwl9IjQF2CKGQqR3vaJVsyqtvOS9oLP342ydpwA="
	.zero	3
	.base64	"dTiLFlEndsxdul2h/YkBULDGRVy09YsZUlIlJQA="
	.zero	3
	.base64	"IHlGVZgMkdi7tMHql2GKS/A/QlgZSLLuTuetZwA="
	.zero	3
	.section	.rodata.sha256_test_sum,"a"
	.align	2
	.type	sha256_test_sum, @object
	.size	sha256_test_sum, 96
sha256_test_sum:
	.base64	"ungWv48Bz+pBQUDeXa4iI7ADYaOWF3qctBD/YfIAFa0="
	.base64	"JI1qYdIGOLjlwCaTDD5gOaM85Flk/yFn9uzt1BnbBsE="
	.base64	"zcduXJkU+5KBocfihNc+Z/GAmkiklyAOBG05zMcRLNA="
	.section	.rodata
	.align	2
.LC0:
	.string	"Buffer allocation failed\n"
	.align	2
.LC1:
	.string	"  SHA-%d test #%d: "
	.align	2
.LC2:
	.string	"passed\n"
	.align	2
.LC3:
	.string	"\n"
	.align	2
.LC4:
	.string	"failed\n"
	.section	.text.mbedtls_sha256_common_self_test,"ax",@progbits
	.align	1
	.type	mbedtls_sha256_common_self_test, @function
mbedtls_sha256_common_self_test:
.LFB24:
	.loc 1 879 1
	.cfi_startproc
	addi	sp,sp,-208
	.cfi_def_cfa_offset 208
	sw	ra,204(sp)
	sw	s0,200(sp)
	.cfi_offset 1, -4
	.cfi_offset 8, -8
	addi	s0,sp,208
	.cfi_def_cfa 8, 0
	sw	a0,-196(s0)
	sw	a1,-200(s0)
	.loc 1 880 20
	sw	zero,-24(s0)
	.loc 1 886 62
	lw	a5,-200(s0)
	beq	a5,zero,.L58
	.loc 1 886 21 discriminator 1
	lui	a5,%hi(sha224_test_sum)
	addi	a5,a5,%lo(sha224_test_sum)
	sw	a5,-28(s0)
	j	.L59
.L58:
	.loc 1 886 21 is_stmt 0 discriminator 2
	lui	a5,%hi(sha256_test_sum)
	addi	a5,a5,%lo(sha256_test_sum)
	sw	a5,-28(s0)
.L59:
	.loc 1 893 11 is_stmt 1
	li	a1,1
	li	a0,1024
	call	calloc
	mv	a5,a0
	sw	a5,-36(s0)
	.loc 1 894 8
	lw	a5,-36(s0)
	bne	a5,zero,.L60
	.loc 1 895 12
	lw	a5,-196(s0)
	beq	a5,zero,.L61
	.loc 1 896 13
	lui	a5,%hi(.LC0)
	addi	a0,a5,%lo(.LC0)
	call	printf
.L61:
	.loc 1 899 16
	li	a5,1
	j	.L78
.L60:
	.loc 1 902 5
	addi	a5,s0,-180
	mv	a0,a5
	call	mbedtls_sha256_init
	.loc 1 904 12
	sw	zero,-20(s0)
	.loc 1 904 5
	j	.L63
.L75:
	.loc 1 905 12
	lw	a5,-196(s0)
	beq	a5,zero,.L64
	.loc 1 906 47
	li	a4,8
	lw	a5,-200(s0)
	sub	a5,a4,a5
	.loc 1 906 13
	slli	a4,a5,5
	lw	a5,-20(s0)
	addi	a5,a5,1
	mv	a2,a5
	mv	a1,a4
	lui	a5,%hi(.LC1)
	addi	a0,a5,%lo(.LC1)
	call	printf
.L64:
	.loc 1 909 20
	addi	a5,s0,-180
	lw	a1,-200(s0)
	mv	a0,a5
	call	mbedtls_sha256_starts
	sw	a0,-24(s0)
	.loc 1 909 12 discriminator 1
	lw	a5,-24(s0)
	bne	a5,zero,.L79
	.loc 1 913 12
	lw	a4,-20(s0)
	li	a5,2
	bne	a4,a5,.L67
	.loc 1 914 37
	li	a5,1000
	sw	a5,-40(s0)
	.loc 1 914 13
	li	a2,1000
	li	a1,97
	lw	a0,-36(s0)
	call	memset
.LBB47:
	.loc 1 916 22
	sw	zero,-32(s0)
	.loc 1 916 13
	j	.L68
.L70:
	.loc 1 917 23
	lw	a4,-40(s0)
	addi	a5,s0,-180
	mv	a2,a4
	lw	a1,-36(s0)
	mv	a0,a5
	call	mbedtls_sha256_update
	sw	a0,-24(s0)
	.loc 1 918 20
	lw	a5,-24(s0)
	bne	a5,zero,.L80
	.loc 1 916 40 discriminator 2
	lw	a5,-32(s0)
	addi	a5,a5,1
	sw	a5,-32(s0)
.L68:
	.loc 1 916 31 discriminator 1
	lw	a4,-32(s0)
	li	a5,999
	ble	a4,a5,.L70
	j	.L71
.L67:
.LBE47:
	.loc 1 924 59
	lw	a4,-20(s0)
	mv	a5,a4
	slli	a5,a5,3
	sub	a5,a5,a4
	slli	a5,a5,3
	add	a5,a5,a4
	lui	a4,%hi(sha_test_buf)
	addi	a4,a4,%lo(sha_test_buf)
	add	a3,a5,a4
	.loc 1 925 56
	lui	a5,%hi(sha_test_buflen)
	addi	a4,a5,%lo(sha_test_buflen)
	lw	a5,-20(s0)
	slli	a5,a5,2
	add	a5,a4,a5
	lw	a4,0(a5)
	.loc 1 924 19
	addi	a5,s0,-180
	mv	a2,a4
	mv	a1,a3
	mv	a0,a5
	call	mbedtls_sha256_update
	sw	a0,-24(s0)
	.loc 1 926 16
	lw	a5,-24(s0)
	bne	a5,zero,.L81
.L71:
	.loc 1 931 20
	addi	a4,s0,-72
	addi	a5,s0,-180
	mv	a1,a4
	mv	a0,a5
	call	mbedtls_sha256_finish
	sw	a0,-24(s0)
	.loc 1 931 12 discriminator 1
	lw	a5,-24(s0)
	bne	a5,zero,.L82
	.loc 1 936 43
	lw	a5,-20(s0)
	slli	a5,a5,5
	lw	a4,-28(s0)
	add	a3,a4,a5
	.loc 1 936 51
	li	a4,8
	lw	a5,-200(s0)
	sub	a5,a4,a5
	slli	a5,a5,2
	.loc 1 936 13
	mv	a4,a5
	addi	a5,s0,-72
	mv	a2,a4
	mv	a1,a3
	mv	a0,a5
	call	memcmp
	mv	a5,a0
	.loc 1 936 12 discriminator 1
	beq	a5,zero,.L73
	.loc 1 937 17
	li	a5,1
	sw	a5,-24(s0)
	.loc 1 938 13
	j	.L66
.L73:
	.loc 1 941 12
	lw	a5,-196(s0)
	beq	a5,zero,.L74
	.loc 1 942 13
	lui	a5,%hi(.LC2)
	addi	a0,a5,%lo(.LC2)
	call	printf
.L74:
	.loc 1 904 25 discriminator 2
	lw	a5,-20(s0)
	addi	a5,a5,1
	sw	a5,-20(s0)
.L63:
	.loc 1 904 19 discriminator 1
	lw	a4,-20(s0)
	li	a5,2
	ble	a4,a5,.L75
	.loc 1 946 8
	lw	a5,-196(s0)
	beq	a5,zero,.L83
	.loc 1 947 9
	lui	a5,%hi(.LC3)
	addi	a0,a5,%lo(.LC3)
	call	printf
	.loc 1 950 5
	j	.L83
.L79:
	.loc 1 910 13
	nop
	j	.L66
.L80:
.LBB48:
	.loc 1 919 21
	nop
	j	.L66
.L81:
.LBE48:
	.loc 1 927 17
	nop
	j	.L66
.L82:
	.loc 1 932 13
	nop
.L66:
	.loc 1 953 8
	lw	a5,-196(s0)
	beq	a5,zero,.L84
	.loc 1 954 9
	lui	a5,%hi(.LC4)
	addi	a0,a5,%lo(.LC4)
	call	printf
	j	.L77
.L83:
	.loc 1 950 5
	nop
	j	.L77
.L84:
	.loc 1 957 1
	nop
.L77:
	.loc 1 958 5
	addi	a5,s0,-180
	mv	a0,a5
	call	mbedtls_sha256_free
	.loc 1 959 5
	lw	a0,-36(s0)
	call	free
	.loc 1 961 12
	lw	a5,-24(s0)
.L78:
	.loc 1 962 1
	mv	a0,a5
	lw	ra,204(sp)
	.cfi_restore 1
	lw	s0,200(sp)
	.cfi_restore 8
	.cfi_def_cfa 2, 208
	addi	sp,sp,208
	.cfi_def_cfa_offset 0
	jr	ra
	.cfi_endproc
.LFE24:
	.size	mbedtls_sha256_common_self_test, .-mbedtls_sha256_common_self_test
	.section	.text.mbedtls_sha256_self_test,"ax",@progbits
	.align	1
	.globl	mbedtls_sha256_self_test
	.type	mbedtls_sha256_self_test, @function
mbedtls_sha256_self_test:
.LFB25:
	.loc 1 966 1
	.cfi_startproc
	addi	sp,sp,-32
	.cfi_def_cfa_offset 32
	sw	ra,28(sp)
	sw	s0,24(sp)
	.cfi_offset 1, -4
	.cfi_offset 8, -8
	addi	s0,sp,32
	.cfi_def_cfa 8, 0
	sw	a0,-20(s0)
	.loc 1 967 12
	li	a1,0
	lw	a0,-20(s0)
	call	mbedtls_sha256_common_self_test
	mv	a5,a0
	.loc 1 968 1
	mv	a0,a5
	lw	ra,28(sp)
	.cfi_restore 1
	lw	s0,24(sp)
	.cfi_restore 8
	.cfi_def_cfa 2, 32
	addi	sp,sp,32
	.cfi_def_cfa_offset 0
	jr	ra
	.cfi_endproc
.LFE25:
	.size	mbedtls_sha256_self_test, .-mbedtls_sha256_self_test
	.section	.text.mbedtls_sha224_self_test,"ax",@progbits
	.align	1
	.globl	mbedtls_sha224_self_test
	.type	mbedtls_sha224_self_test, @function
mbedtls_sha224_self_test:
.LFB26:
	.loc 1 973 1
	.cfi_startproc
	addi	sp,sp,-32
	.cfi_def_cfa_offset 32
	sw	ra,28(sp)
	sw	s0,24(sp)
	.cfi_offset 1, -4
	.cfi_offset 8, -8
	addi	s0,sp,32
	.cfi_def_cfa 8, 0
	sw	a0,-20(s0)
	.loc 1 974 12
	li	a1,1
	lw	a0,-20(s0)
	call	mbedtls_sha256_common_self_test
	mv	a5,a0
	.loc 1 975 1
	mv	a0,a5
	lw	ra,28(sp)
	.cfi_restore 1
	lw	s0,24(sp)
	.cfi_restore 8
	.cfi_def_cfa 2, 32
	addi	sp,sp,32
	.cfi_def_cfa_offset 0
	jr	ra
	.cfi_endproc
.LFE26:
	.size	mbedtls_sha224_self_test, .-mbedtls_sha224_self_test
	.text
.Letext0:
	.file 3 "/home/chandu/sdk/bl602_iot_sdk/toolchain/compiler/lib/gcc/riscv32-unknown-elf/15.1.0/include/stddef.h"
	.file 4 "/home/chandu/sdk/bl602_iot_sdk/toolchain/compiler/lib/gcc/riscv32-unknown-elf/15.1.0/include/stdint-gcc.h"
	.file 5 "/home/chandu/sdk/bl602_iot_sdk/components/security/mbedtls-bl602/include/mbedtls/sha256.h"
	.file 6 "/home/chandu/sdk/bl602_iot_sdk/toolchain/compiler/riscv32-unknown-elf/include/string.h"
	.file 7 "/home/chandu/sdk/bl602_iot_sdk/toolchain/compiler/riscv32-unknown-elf/include/stdio.h"
	.file 8 "/home/chandu/sdk/bl602_iot_sdk/toolchain/compiler/riscv32-unknown-elf/include/stdlib.h"
	.file 9 "/home/chandu/sdk/bl602_iot_sdk/components/security/mbedtls-bl602/include/mbedtls/platform_util.h"
	.section	.note.GNU-stack,"",@progbits
