	.file	"ssl_client.c"
	.option nopic
	.attribute arch, "rv32i2p1_m2p0_f2p2_c2p0_zicsr2p0_zmmul1p0_zca1p0_zcf1p0"
	.attribute unaligned_access, 0
	.attribute stack_align, 16
	.text
.Ltext0:
	.cfi_sections	.debug_frame
	.file 0 "/home/chandu/sdk/bl602_iot_sdk/customer_app/suas_app_pqkem_gateway/build_out/mbedtls-bl602" "/home/chandu/sdk/bl602_iot_sdk/components/security/mbedtls-bl602/library/ssl_client.c"
	.section	.text.mbedtls_ssl_chk_buf_ptr,"ax",@progbits
	.align	1
	.type	mbedtls_ssl_chk_buf_ptr, @function
mbedtls_ssl_chk_buf_ptr:
.LFB113:
	.file 1 "/home/chandu/sdk/bl602_iot_sdk/components/security/mbedtls-bl602/library/ssl_misc.h"
	.loc 1 509 1
	.cfi_startproc
	addi	sp,sp,-32
	.cfi_def_cfa_offset 32
	sw	ra,28(sp)
	sw	s0,24(sp)
	.cfi_offset 1, -4
	.cfi_offset 8, -8
	addi	s0,sp,32
	.cfi_def_cfa 8, 0
	sw	a0,-20(s0)
	sw	a1,-24(s0)
	sw	a2,-28(s0)
	.loc 1 510 24
	lw	a4,-20(s0)
	lw	a5,-24(s0)
	bgtu	a4,a5,.L2
	.loc 1 510 49 discriminator 2
	lw	a4,-24(s0)
	lw	a5,-20(s0)
	sub	a5,a4,a5
	.loc 1 510 35 discriminator 2
	mv	a4,a5
	.loc 1 510 24 discriminator 2
	lw	a5,-28(s0)
	bleu	a5,a4,.L3
.L2:
	.loc 1 510 24 is_stmt 0 discriminator 3
	li	a5,1
	.loc 1 510 24
	j	.L5
.L3:
	.loc 1 510 24 discriminator 4
	li	a5,0
.L5:
	.loc 1 511 1 is_stmt 1
	mv	a0,a5
	lw	ra,28(sp)
	.cfi_restore 1
	lw	s0,24(sp)
	.cfi_restore 8
	.cfi_def_cfa 2, 32
	addi	sp,sp,32
	.cfi_def_cfa_offset 0
	jr	ra
	.cfi_endproc
.LFE113:
	.size	mbedtls_ssl_chk_buf_ptr, .-mbedtls_ssl_chk_buf_ptr
	.section	.rodata
	.align	2
.LC0:
	.string	"handshake state: %d (%s) -> %d (%s)"
	.align	2
.LC1:
	.string	"/home/chandu/sdk/bl602_iot_sdk/components/security/mbedtls-bl602/library/ssl_misc.h"
	.section	.text.mbedtls_ssl_handshake_set_state,"ax",@progbits
	.align	1
	.type	mbedtls_ssl_handshake_set_state, @function
mbedtls_ssl_handshake_set_state:
.LFB115:
	.loc 1 1352 1
	.cfi_startproc
	addi	sp,sp,-64
	.cfi_def_cfa_offset 64
	sw	ra,60(sp)
	sw	s0,56(sp)
	sw	s1,52(sp)
	sw	s2,48(sp)
	sw	s3,44(sp)
	.cfi_offset 1, -4
	.cfi_offset 8, -8
	.cfi_offset 9, -12
	.cfi_offset 18, -16
	.cfi_offset 19, -20
	addi	s0,sp,64
	.cfi_def_cfa 8, 0
	sw	a0,-36(s0)
	mv	a5,a1
	sb	a5,-37(s0)
	.loc 1 1353 5
	lw	a5,-36(s0)
	lw	s1,4(a5)
	.loc 1 1353 207
	lw	a5,-36(s0)
	lw	a5,4(a5)
	.loc 1 1353 5
	andi	a5,a5,0xff
	mv	a0,a5
	call	mbedtls_ssl_states_str
	mv	s3,a0
	.loc 1 1353 5 is_stmt 0 discriminator 1
	lbu	s2,-37(s0)
	lbu	a5,-37(s0)
	mv	a0,a5
	call	mbedtls_ssl_states_str
	mv	a5,a0
	.loc 1 1353 5 discriminator 2
	sw	a5,0(sp)
	mv	a7,s2
	mv	a6,s3
	mv	a5,s1
	lui	a4,%hi(.LC0)
	addi	a4,a4,%lo(.LC0)
	li	a3,1353
	lui	a2,%hi(.LC1)
	addi	a2,a2,%lo(.LC1)
	li	a1,3
	lw	a0,-36(s0)
	call	mbedtls_debug_print_msg
	.loc 1 1356 18 is_stmt 1
	lbu	a4,-37(s0)
	.loc 1 1356 16
	lw	a5,-36(s0)
	sw	a4,4(a5)
	.loc 1 1357 1
	nop
	lw	ra,60(sp)
	.cfi_restore 1
	lw	s0,56(sp)
	.cfi_restore 8
	.cfi_def_cfa 2, 64
	lw	s1,52(sp)
	.cfi_restore 9
	lw	s2,48(sp)
	.cfi_restore 18
	lw	s3,44(sp)
	.cfi_restore 19
	addi	sp,sp,64
	.cfi_def_cfa_offset 0
	jr	ra
	.cfi_endproc
.LFE115:
	.size	mbedtls_ssl_handshake_set_state, .-mbedtls_ssl_handshake_set_state
	.section	.text.mbedtls_ssl_write_handshake_msg,"ax",@progbits
	.align	1
	.type	mbedtls_ssl_write_handshake_msg, @function
mbedtls_ssl_write_handshake_msg:
.LFB117:
	.loc 1 1476 1
	.cfi_startproc
	addi	sp,sp,-32
	.cfi_def_cfa_offset 32
	sw	ra,28(sp)
	sw	s0,24(sp)
	.cfi_offset 1, -4
	.cfi_offset 8, -8
	addi	s0,sp,32
	.cfi_def_cfa 8, 0
	sw	a0,-20(s0)
	.loc 1 1477 12
	li	a2,1
	li	a1,1
	lw	a0,-20(s0)
	call	mbedtls_ssl_write_handshake_msg_ext
	mv	a5,a0
	.loc 1 1478 1
	mv	a0,a5
	lw	ra,28(sp)
	.cfi_restore 1
	lw	s0,24(sp)
	.cfi_restore 8
	.cfi_def_cfa 2, 32
	addi	sp,sp,32
	.cfi_def_cfa_offset 0
	jr	ra
	.cfi_endproc
.LFE117:
	.size	mbedtls_ssl_write_handshake_msg, .-mbedtls_ssl_write_handshake_msg
	.section	.text.mbedtls_ssl_get_groups,"ax",@progbits
	.align	1
	.type	mbedtls_ssl_get_groups, @function
mbedtls_ssl_get_groups:
.LFB129:
	.loc 1 2326 1
	.cfi_startproc
	addi	sp,sp,-32
	.cfi_def_cfa_offset 32
	sw	ra,28(sp)
	sw	s0,24(sp)
	.cfi_offset 1, -4
	.cfi_offset 8, -8
	addi	s0,sp,32
	.cfi_def_cfa 8, 0
	sw	a0,-20(s0)
	.loc 1 2328 15
	lw	a5,-20(s0)
	lw	a5,0(a5)
	.loc 1 2328 21
	lw	a5,152(a5)
	.loc 1 2336 1
	mv	a0,a5
	lw	ra,28(sp)
	.cfi_restore 1
	lw	s0,24(sp)
	.cfi_restore 8
	.cfi_def_cfa 2, 32
	addi	sp,sp,32
	.cfi_def_cfa_offset 0
	jr	ra
	.cfi_endproc
.LFE129:
	.size	mbedtls_ssl_get_groups, .-mbedtls_ssl_get_groups
	.section	.text.mbedtls_ssl_tls12_named_group_is_ecdhe,"ax",@progbits
	.align	1
	.type	mbedtls_ssl_tls12_named_group_is_ecdhe, @function
mbedtls_ssl_tls12_named_group_is_ecdhe:
.LFB130:
	.loc 1 2342 1
	.cfi_startproc
	addi	sp,sp,-32
	.cfi_def_cfa_offset 32
	sw	ra,28(sp)
	sw	s0,24(sp)
	.cfi_offset 1, -4
	.cfi_offset 8, -8
	addi	s0,sp,32
	.cfi_def_cfa 8, 0
	mv	a5,a0
	sh	a5,-18(s0)
	.loc 1 2358 34
	lhu	a4,-18(s0)
	li	a5,29
	beq	a4,a5,.L12
	.loc 1 2346 34
	lhu	a4,-18(s0)
	li	a5,26
	beq	a4,a5,.L12
	.loc 1 2347 34
	lhu	a4,-18(s0)
	li	a5,27
	beq	a4,a5,.L12
	.loc 1 2348 34
	lhu	a4,-18(s0)
	li	a5,28
	beq	a4,a5,.L12
	.loc 1 2349 34
	lhu	a4,-18(s0)
	li	a5,30
	beq	a4,a5,.L12
	.loc 1 2350 34
	lhu	a4,-18(s0)
	li	a5,18
	beq	a4,a5,.L12
	.loc 1 2352 34
	lhu	a4,-18(s0)
	li	a5,19
	beq	a4,a5,.L12
	.loc 1 2353 34
	lhu	a4,-18(s0)
	li	a5,20
	beq	a4,a5,.L12
	.loc 1 2354 34
	lhu	a4,-18(s0)
	li	a5,21
	beq	a4,a5,.L12
	.loc 1 2355 34
	lhu	a4,-18(s0)
	li	a5,22
	beq	a4,a5,.L12
	.loc 1 2356 34
	lhu	a4,-18(s0)
	li	a5,23
	beq	a4,a5,.L12
	.loc 1 2357 34
	lhu	a4,-18(s0)
	li	a5,24
	beq	a4,a5,.L12
	.loc 1 2358 34 discriminator 2
	lhu	a4,-18(s0)
	li	a5,25
	bne	a4,a5,.L13
.L12:
	.loc 1 2358 34 is_stmt 0 discriminator 1
	li	a5,1
	.loc 1 2358 34
	j	.L15
.L13:
	.loc 1 2358 34 discriminator 3
	li	a5,0
.L15:
	.loc 1 2360 1 is_stmt 1
	mv	a0,a5
	lw	ra,28(sp)
	.cfi_restore 1
	lw	s0,24(sp)
	.cfi_restore 8
	.cfi_def_cfa 2, 32
	addi	sp,sp,32
	.cfi_def_cfa_offset 0
	jr	ra
	.cfi_endproc
.LFE130:
	.size	mbedtls_ssl_tls12_named_group_is_ecdhe, .-mbedtls_ssl_tls12_named_group_is_ecdhe
	.section	.rodata
	.align	2
.LC2:
	.string	"client hello, adding server name extension: %s"
	.align	2
.LC3:
	.string	"/home/chandu/sdk/bl602_iot_sdk/components/security/mbedtls-bl602/library/ssl_client.c"
	.section	.text.ssl_write_hostname_ext,"ax",@progbits
	.align	1
	.type	ssl_write_hostname_ext, @function
ssl_write_hostname_ext:
.LFB142:
	.file 2 "/home/chandu/sdk/bl602_iot_sdk/components/security/mbedtls-bl602/library/ssl_client.c"
	.loc 2 30 1
	.cfi_startproc
	addi	sp,sp,-96
	.cfi_def_cfa_offset 96
	sw	ra,92(sp)
	sw	s0,88(sp)
	.cfi_offset 1, -4
	.cfi_offset 8, -8
	addi	s0,sp,96
	.cfi_def_cfa 8, 0
	sw	a0,-84(s0)
	sw	a1,-88(s0)
	sw	a2,-92(s0)
	sw	a3,-96(s0)
	.loc 2 31 20
	lw	a5,-88(s0)
	sw	a5,-20(s0)
	.loc 2 32 28
	lw	a0,-84(s0)
	call	mbedtls_ssl_get_hostname_pointer
	sw	a0,-24(s0)
	.loc 2 35 11
	lw	a5,-96(s0)
	sw	zero,0(a5)
	.loc 2 37 8
	lw	a5,-24(s0)
	bne	a5,zero,.L17
	.loc 2 38 16
	li	a5,0
	j	.L18
.L17:
	.loc 2 41 5
	lw	a5,-24(s0)
	lui	a4,%hi(.LC2)
	addi	a4,a4,%lo(.LC2)
	li	a3,41
	lui	a2,%hi(.LC3)
	addi	a2,a2,%lo(.LC3)
	li	a1,3
	lw	a0,-84(s0)
	call	mbedtls_debug_print_msg
	.loc 2 45 20
	lw	a0,-24(s0)
	call	strlen
	sw	a0,-28(s0)
	.loc 2 47 14
	lw	a5,-28(s0)
	addi	a5,a5,9
	mv	a2,a5
	lw	a1,-92(s0)
	lw	a0,-20(s0)
	call	mbedtls_ssl_chk_buf_ptr
	mv	a5,a0
	.loc 2 47 13 discriminator 1
	beq	a5,zero,.L19
	.loc 2 47 85 discriminator 2
	li	a5,-28672
	addi	a5,a5,1536
	.loc 2 47 85 is_stmt 0
	j	.L18
.L19:
	lw	a5,-20(s0)
	sw	a5,-32(s0)
	sh	zero,-34(s0)
.LBB39:
.LBB40:
	.file 3 "/home/chandu/sdk/bl602_iot_sdk/components/security/mbedtls-bl602/library/alignment.h"
	.loc 3 148 33 is_stmt 1
	lw	a5,-32(s0)
	sw	a5,-40(s0)
	.loc 3 149 12
	lw	a5,-40(s0)
	lhu	a4,-34(s0)
	andi	a4,a4,255
	lbu	a3,0(a5)
	andi	a3,a3,0
	or	a4,a3,a4
	sb	a4,0(a5)
	lhu	a4,-34(s0)
	srli	a4,a4,8
	slli	a4,a4,16
	srli	a4,a4,16
	lbu	a3,1(a5)
	andi	a3,a3,0
	or	a4,a3,a4
	sb	a4,1(a5)
	.loc 3 153 1
	nop
.LBE40:
.LBE39:
	.loc 2 76 7
	lw	a5,-20(s0)
	addi	a5,a5,2
	sw	a5,-20(s0)
	.loc 2 78 137 discriminator 2
	lw	a5,-28(s0)
	slli	a5,a5,16
	srli	a5,a5,16
	addi	a5,a5,5
	slli	a5,a5,16
	srli	a5,a5,16
	slli	a4,a5,8
	srli	a5,a5,8
	or	a5,a4,a5
	slli	a5,a5,16
	srli	a5,a5,16
	lw	a4,-20(s0)
	sw	a4,-44(s0)
	sh	a5,-46(s0)
.LBB41:
.LBB42:
	.loc 3 148 33
	lw	a5,-44(s0)
	sw	a5,-52(s0)
	.loc 3 149 12
	lw	a5,-52(s0)
	lhu	a4,-46(s0)
	andi	a4,a4,255
	lbu	a3,0(a5)
	andi	a3,a3,0
	or	a4,a3,a4
	sb	a4,0(a5)
	lhu	a4,-46(s0)
	srli	a4,a4,8
	slli	a4,a4,16
	srli	a4,a4,16
	lbu	a3,1(a5)
	andi	a3,a3,0
	or	a4,a3,a4
	sb	a4,1(a5)
	.loc 3 153 1
	nop
.LBE42:
.LBE41:
	.loc 2 79 7
	lw	a5,-20(s0)
	addi	a5,a5,2
	sw	a5,-20(s0)
	.loc 2 81 137 discriminator 2
	lw	a5,-28(s0)
	slli	a5,a5,16
	srli	a5,a5,16
	addi	a5,a5,3
	slli	a5,a5,16
	srli	a5,a5,16
	slli	a4,a5,8
	srli	a5,a5,8
	or	a5,a4,a5
	slli	a5,a5,16
	srli	a5,a5,16
	lw	a4,-20(s0)
	sw	a4,-56(s0)
	sh	a5,-58(s0)
.LBB43:
.LBB44:
	.loc 3 148 33
	lw	a5,-56(s0)
	sw	a5,-64(s0)
	.loc 3 149 12
	lw	a5,-64(s0)
	lhu	a4,-58(s0)
	andi	a4,a4,255
	lbu	a3,0(a5)
	andi	a3,a3,0
	or	a4,a3,a4
	sb	a4,0(a5)
	lhu	a4,-58(s0)
	srli	a4,a4,8
	slli	a4,a4,16
	srli	a4,a4,16
	lbu	a3,1(a5)
	andi	a3,a3,0
	or	a4,a3,a4
	sb	a4,1(a5)
	.loc 3 153 1
	nop
.LBE44:
.LBE43:
	.loc 2 82 7
	lw	a5,-20(s0)
	addi	a5,a5,2
	sw	a5,-20(s0)
	.loc 2 84 7
	lw	a5,-20(s0)
	addi	a4,a5,1
	sw	a4,-20(s0)
	.loc 2 84 10
	sb	zero,0(a5)
	.loc 2 86 133 discriminator 2
	lw	a5,-28(s0)
	slli	a5,a5,16
	srli	a5,a5,16
	slli	a4,a5,8
	srli	a5,a5,8
	or	a5,a4,a5
	slli	a5,a5,16
	srli	a5,a5,16
	lw	a4,-20(s0)
	sw	a4,-68(s0)
	sh	a5,-70(s0)
.LBB45:
.LBB46:
	.loc 3 148 33
	lw	a5,-68(s0)
	sw	a5,-76(s0)
	.loc 3 149 12
	lw	a5,-76(s0)
	lhu	a4,-70(s0)
	andi	a4,a4,255
	lbu	a3,0(a5)
	andi	a3,a3,0
	or	a4,a3,a4
	sb	a4,0(a5)
	lhu	a4,-70(s0)
	srli	a4,a4,8
	slli	a4,a4,16
	srli	a4,a4,16
	lbu	a3,1(a5)
	andi	a3,a3,0
	or	a4,a3,a4
	sb	a4,1(a5)
	.loc 3 153 1
	nop
.LBE46:
.LBE45:
	.loc 2 87 7
	lw	a5,-20(s0)
	addi	a5,a5,2
	sw	a5,-20(s0)
	.loc 2 89 5
	lw	a2,-28(s0)
	lw	a1,-24(s0)
	lw	a0,-20(s0)
	call	memcpy
	.loc 2 91 26
	lw	a5,-28(s0)
	addi	a4,a5,9
	.loc 2 91 11
	lw	a5,-96(s0)
	sw	a4,0(a5)
	.loc 2 96 12
	li	a5,0
.L18:
	.loc 2 97 1
	mv	a0,a5
	lw	ra,92(sp)
	.cfi_restore 1
	lw	s0,88(sp)
	.cfi_restore 8
	.cfi_def_cfa 2, 96
	addi	sp,sp,96
	.cfi_def_cfa_offset 0
	jr	ra
	.cfi_endproc
.LFE142:
	.size	ssl_write_hostname_ext, .-ssl_write_hostname_ext
	.section	.rodata
	.align	2
.LC4:
	.string	"client hello, adding alpn extension"
	.section	.text.ssl_write_alpn_ext,"ax",@progbits
	.align	1
	.type	ssl_write_alpn_ext, @function
ssl_write_alpn_ext:
.LFB143:
	.loc 2 119 1
	.cfi_startproc
	addi	sp,sp,-80
	.cfi_def_cfa_offset 80
	sw	ra,76(sp)
	sw	s0,72(sp)
	.cfi_offset 1, -4
	.cfi_offset 8, -8
	addi	s0,sp,80
	.cfi_def_cfa 8, 0
	sw	a0,-68(s0)
	sw	a1,-72(s0)
	sw	a2,-76(s0)
	sw	a3,-80(s0)
	.loc 2 120 20
	lw	a5,-72(s0)
	sw	a5,-20(s0)
	.loc 2 122 14
	lw	a5,-80(s0)
	sw	zero,0(a5)
	.loc 2 124 12
	lw	a5,-68(s0)
	lw	a5,0(a5)
	.loc 2 124 18
	lw	a5,188(a5)
	.loc 2 124 8
	bne	a5,zero,.L21
	.loc 2 125 16
	li	a5,0
	j	.L22
.L21:
	.loc 2 128 5
	lui	a5,%hi(.LC4)
	addi	a4,a5,%lo(.LC4)
	li	a3,128
	lui	a5,%hi(.LC3)
	addi	a2,a5,%lo(.LC3)
	li	a1,3
	lw	a0,-68(s0)
	call	mbedtls_debug_print_msg
	.loc 2 134 14
	li	a2,6
	lw	a1,-76(s0)
	lw	a0,-20(s0)
	call	mbedtls_ssl_chk_buf_ptr
	mv	a5,a0
	.loc 2 134 13 discriminator 1
	beq	a5,zero,.L23
	.loc 2 134 70 discriminator 2
	li	a5,-28672
	addi	a5,a5,1536
	.loc 2 134 70 is_stmt 0
	j	.L22
.L23:
	lw	a5,-20(s0)
	sw	a5,-32(s0)
	li	a5,4096
	sh	a5,-34(s0)
.LBB47:
.LBB48:
	.loc 3 148 33 is_stmt 1
	lw	a5,-32(s0)
	sw	a5,-40(s0)
	.loc 3 149 12
	lw	a5,-40(s0)
	lhu	a4,-34(s0)
	andi	a4,a4,255
	lbu	a3,0(a5)
	andi	a3,a3,0
	or	a4,a3,a4
	sb	a4,0(a5)
	lhu	a4,-34(s0)
	srli	a4,a4,8
	slli	a4,a4,16
	srli	a4,a4,16
	lbu	a3,1(a5)
	andi	a3,a3,0
	or	a4,a3,a4
	sb	a4,1(a5)
	.loc 3 153 1
	nop
.LBE48:
.LBE47:
	.loc 2 137 7
	lw	a5,-20(s0)
	addi	a5,a5,6
	sw	a5,-20(s0)
.LBB49:
	.loc 2 146 32
	lw	a5,-68(s0)
	lw	a5,0(a5)
	.loc 2 146 23
	lw	a5,188(a5)
	sw	a5,-24(s0)
	.loc 2 146 5
	j	.L24
.L26:
.LBB50:
	.loc 2 151 36
	lw	a5,-24(s0)
	lw	a5,0(a5)
	mv	a0,a5
	call	strlen
	sw	a0,-28(s0)
	.loc 2 153 18
	lw	a5,-28(s0)
	addi	a5,a5,1
	mv	a2,a5
	lw	a1,-76(s0)
	lw	a0,-20(s0)
	call	mbedtls_ssl_chk_buf_ptr
	mv	a5,a0
	.loc 2 153 17 discriminator 1
	beq	a5,zero,.L25
	.loc 2 153 94 discriminator 2
	li	a5,-28672
	addi	a5,a5,1536
	.loc 2 153 94 is_stmt 0
	j	.L22
.L25:
	.loc 2 154 11 is_stmt 1
	lw	a5,-20(s0)
	addi	a4,a5,1
	sw	a4,-20(s0)
	.loc 2 154 16
	lw	a4,-28(s0)
	andi	a4,a4,0xff
	.loc 2 154 14
	sb	a4,0(a5)
	.loc 2 155 9
	lw	a5,-24(s0)
	lw	a5,0(a5)
	lw	a2,-28(s0)
	mv	a1,a5
	lw	a0,-20(s0)
	call	memcpy
	.loc 2 156 11
	lw	a4,-20(s0)
	lw	a5,-28(s0)
	add	a5,a4,a5
	sw	a5,-20(s0)
.LBE50:
	.loc 2 146 67 discriminator 2
	lw	a5,-24(s0)
	addi	a5,a5,4
	sw	a5,-24(s0)
.L24:
	.loc 2 146 51 discriminator 1
	lw	a5,-24(s0)
	lw	a5,0(a5)
	.loc 2 146 56 discriminator 1
	bne	a5,zero,.L26
.LBE49:
	.loc 2 159 28
	lw	a4,-20(s0)
	lw	a5,-72(s0)
	sub	a5,a4,a5
	.loc 2 159 16
	mv	a4,a5
	.loc 2 159 14
	lw	a5,-80(s0)
	sw	a4,0(a5)
	.loc 2 162 130 discriminator 2
	lw	a5,-72(s0)
	addi	a4,a5,4
	.loc 2 162 167 discriminator 2
	lw	a5,-80(s0)
	lw	a5,0(a5)
	.loc 2 162 137 discriminator 2
	slli	a5,a5,16
	srli	a5,a5,16
	addi	a5,a5,-6
	slli	a5,a5,16
	srli	a5,a5,16
	slli	a3,a5,8
	srli	a5,a5,8
	or	a5,a3,a5
	slli	a5,a5,16
	srli	a5,a5,16
	sw	a4,-44(s0)
	sh	a5,-46(s0)
.LBB51:
.LBB52:
	.loc 3 148 33
	lw	a5,-44(s0)
	sw	a5,-52(s0)
	.loc 3 149 12
	lw	a5,-52(s0)
	lhu	a4,-46(s0)
	andi	a4,a4,255
	lbu	a3,0(a5)
	andi	a3,a3,0
	or	a4,a3,a4
	sb	a4,0(a5)
	lhu	a4,-46(s0)
	srli	a4,a4,8
	slli	a4,a4,16
	srli	a4,a4,16
	lbu	a3,1(a5)
	andi	a3,a3,0
	or	a4,a3,a4
	sb	a4,1(a5)
	.loc 3 153 1
	nop
.LBE52:
.LBE51:
	.loc 2 165 130 discriminator 2
	lw	a5,-72(s0)
	addi	a4,a5,2
	.loc 2 165 167 discriminator 2
	lw	a5,-80(s0)
	lw	a5,0(a5)
	.loc 2 165 137 discriminator 2
	slli	a5,a5,16
	srli	a5,a5,16
	addi	a5,a5,-4
	slli	a5,a5,16
	srli	a5,a5,16
	slli	a3,a5,8
	srli	a5,a5,8
	or	a5,a3,a5
	slli	a5,a5,16
	srli	a5,a5,16
	sw	a4,-56(s0)
	sh	a5,-58(s0)
.LBB53:
.LBB54:
	.loc 3 148 33
	lw	a5,-56(s0)
	sw	a5,-64(s0)
	.loc 3 149 12
	lw	a5,-64(s0)
	lhu	a4,-58(s0)
	andi	a4,a4,255
	lbu	a3,0(a5)
	andi	a3,a3,0
	or	a4,a3,a4
	sb	a4,0(a5)
	lhu	a4,-58(s0)
	srli	a4,a4,8
	slli	a4,a4,16
	srli	a4,a4,16
	lbu	a3,1(a5)
	andi	a3,a3,0
	or	a4,a3,a4
	sb	a4,1(a5)
	.loc 3 153 1
	nop
.LBE54:
.LBE53:
	.loc 2 170 12
	li	a5,0
.L22:
	.loc 2 171 1
	mv	a0,a5
	lw	ra,76(sp)
	.cfi_restore 1
	lw	s0,72(sp)
	.cfi_restore 8
	.cfi_def_cfa 2, 80
	addi	sp,sp,80
	.cfi_def_cfa_offset 0
	jr	ra
	.cfi_endproc
.LFE143:
	.size	ssl_write_alpn_ext, .-ssl_write_alpn_ext
	.section	.rodata
	.align	2
.LC5:
	.string	"client hello, adding supported_groups extension"
	.align	2
.LC6:
	.string	"got supported group(%04x)"
	.align	2
.LC7:
	.string	"NamedGroup: %s ( %x )"
	.align	2
.LC8:
	.string	"No group available."
	.align	2
.LC9:
	.string	"Supported groups extension"
	.section	.text.ssl_write_supported_groups_ext,"ax",@progbits
	.align	1
	.type	ssl_write_supported_groups_ext, @function
ssl_write_supported_groups_ext:
.LFB144:
	.loc 2 223 1
	.cfi_startproc
	addi	sp,sp,-128
	.cfi_def_cfa_offset 128
	sw	ra,124(sp)
	sw	s0,120(sp)
	.cfi_offset 1, -4
	.cfi_offset 8, -8
	addi	s0,sp,128
	.cfi_def_cfa 8, 0
	sw	a0,-100(s0)
	sw	a1,-104(s0)
	sw	a2,-108(s0)
	sw	a3,-112(s0)
	sw	a4,-116(s0)
	.loc 2 224 20
	lw	a5,-104(s0)
	sw	a5,-28(s0)
	.loc 2 227 34
	lw	a0,-100(s0)
	call	mbedtls_ssl_get_groups
	sw	a0,-20(s0)
	.loc 2 229 14
	lw	a5,-116(s0)
	sw	zero,0(a5)
	.loc 2 231 5
	lui	a5,%hi(.LC5)
	addi	a4,a5,%lo(.LC5)
	li	a3,231
	lui	a5,%hi(.LC3)
	addi	a2,a5,%lo(.LC3)
	li	a1,3
	lw	a0,-100(s0)
	call	mbedtls_debug_print_msg
	.loc 2 238 14
	li	a2,6
	lw	a1,-108(s0)
	lw	a0,-28(s0)
	call	mbedtls_ssl_chk_buf_ptr
	mv	a5,a0
	.loc 2 238 13 discriminator 1
	beq	a5,zero,.L28
	.loc 2 238 70 discriminator 2
	li	a5,-28672
	addi	a5,a5,1536
	.loc 2 238 70 is_stmt 0
	j	.L29
.L28:
	.loc 2 239 7 is_stmt 1
	lw	a5,-28(s0)
	addi	a5,a5,6
	sw	a5,-28(s0)
	.loc 2 241 22
	lw	a5,-28(s0)
	sw	a5,-32(s0)
	.loc 2 243 8
	lw	a5,-20(s0)
	bne	a5,zero,.L31
	.loc 2 244 16
	li	a5,-24576
	addi	a5,a5,384
	j	.L29
.L35:
.LBB55:
	.loc 2 248 13
	sw	zero,-24(s0)
	.loc 2 250 164
	lw	a5,-20(s0)
	lhu	a5,0(a5)
	.loc 2 250 9
	lui	a4,%hi(.LC6)
	addi	a4,a4,%lo(.LC6)
	li	a3,250
	lui	a2,%hi(.LC3)
	addi	a2,a2,%lo(.LC3)
	li	a1,3
	lw	a0,-100(s0)
	call	mbedtls_debug_print_msg
	.loc 2 270 20
	lw	a5,-112(s0)
	andi	a5,a5,1
	.loc 2 270 12
	beq	a5,zero,.L32
	.loc 2 271 13
	lw	a5,-20(s0)
	lhu	a5,0(a5)
	mv	a0,a5
	call	mbedtls_ssl_tls12_named_group_is_ecdhe
	mv	a5,a0
	.loc 2 270 25 discriminator 1
	beq	a5,zero,.L32
	.loc 2 272 14
	lw	a5,-20(s0)
	lhu	a5,0(a5)
	mv	a0,a5
	call	mbedtls_ssl_get_ecp_group_id_from_tls_id
	mv	a5,a0
	.loc 2 271 65
	beq	a5,zero,.L32
	.loc 2 274 27
	li	a5,1
	sw	a5,-24(s0)
.L32:
	.loc 2 278 12
	lw	a5,-24(s0)
	beq	a5,zero,.L33
	.loc 2 279 22
	li	a2,2
	lw	a1,-108(s0)
	lw	a0,-28(s0)
	call	mbedtls_ssl_chk_buf_ptr
	mv	a5,a0
	.loc 2 279 21 discriminator 1
	beq	a5,zero,.L34
	.loc 2 279 78 discriminator 2
	li	a5,-28672
	addi	a5,a5,1536
	.loc 2 279 78 is_stmt 0
	j	.L29
.L34:
	.loc 2 280 140 is_stmt 1 discriminator 2
	lw	a5,-20(s0)
	lhu	a5,0(a5)
	slli	a4,a5,8
	srli	a5,a5,8
	or	a5,a4,a5
	slli	a5,a5,16
	srli	a5,a5,16
	lw	a4,-28(s0)
	sw	a4,-40(s0)
	sh	a5,-42(s0)
.LBB56:
.LBB57:
	.loc 3 148 33
	lw	a5,-40(s0)
	sw	a5,-48(s0)
	.loc 3 149 12
	lw	a5,-48(s0)
	lhu	a4,-42(s0)
	andi	a4,a4,255
	lbu	a3,0(a5)
	andi	a3,a3,0
	or	a4,a3,a4
	sb	a4,0(a5)
	lhu	a4,-42(s0)
	srli	a4,a4,8
	slli	a4,a4,16
	srli	a4,a4,16
	lbu	a3,1(a5)
	andi	a3,a3,0
	or	a4,a3,a4
	sb	a4,1(a5)
	.loc 3 153 1
	nop
.LBE57:
.LBE56:
	.loc 2 281 15
	lw	a5,-28(s0)
	addi	a5,a5,2
	sw	a5,-28(s0)
	.loc 2 282 13
	lw	a5,-20(s0)
	lhu	a5,0(a5)
	mv	a0,a5
	call	mbedtls_ssl_named_group_to_str
	mv	a4,a0
	.loc 2 282 209 discriminator 1
	lw	a5,-20(s0)
	lhu	a5,0(a5)
	.loc 2 282 13 discriminator 1
	mv	a6,a5
	mv	a5,a4
	lui	a4,%hi(.LC7)
	addi	a4,a4,%lo(.LC7)
	li	a3,282
	lui	a2,%hi(.LC3)
	addi	a2,a2,%lo(.LC3)
	li	a1,3
	lw	a0,-100(s0)
	call	mbedtls_debug_print_msg
.L33:
.LBE55:
	.loc 2 247 40
	lw	a5,-20(s0)
	addi	a5,a5,2
	sw	a5,-20(s0)
.L31:
	.loc 2 247 12 discriminator 1
	lw	a5,-20(s0)
	lhu	a5,0(a5)
	.loc 2 247 24 discriminator 1
	bne	a5,zero,.L35
	.loc 2 289 40
	lw	a4,-28(s0)
	lw	a5,-32(s0)
	sub	a5,a4,a5
	.loc 2 289 26
	sw	a5,-36(s0)
	.loc 2 290 8
	lw	a5,-36(s0)
	bne	a5,zero,.L36
	.loc 2 291 9
	lui	a5,%hi(.LC8)
	addi	a4,a5,%lo(.LC8)
	li	a3,291
	lui	a5,%hi(.LC3)
	addi	a2,a5,%lo(.LC3)
	li	a1,1
	lw	a0,-100(s0)
	call	mbedtls_debug_print_msg
	.loc 2 292 16
	li	a5,-28672
	addi	a5,a5,1024
	j	.L29
.L36:
	lw	a5,-104(s0)
	sw	a5,-52(s0)
	li	a5,4096
	addi	a5,a5,-1536
	sh	a5,-54(s0)
.LBB58:
.LBB59:
	.loc 3 148 33
	lw	a5,-52(s0)
	sw	a5,-60(s0)
	.loc 3 149 12
	lw	a5,-60(s0)
	lhu	a4,-54(s0)
	andi	a4,a4,255
	lbu	a3,0(a5)
	andi	a3,a3,0
	or	a4,a3,a4
	sb	a4,0(a5)
	lhu	a4,-54(s0)
	srli	a4,a4,8
	slli	a4,a4,16
	srli	a4,a4,16
	lbu	a3,1(a5)
	andi	a3,a3,0
	or	a4,a3,a4
	sb	a4,1(a5)
	.loc 3 153 1
	nop
.LBE59:
.LBE58:
	.loc 2 298 142 discriminator 2
	lw	a5,-104(s0)
	addi	a4,a5,2
	.loc 2 298 149 discriminator 2
	lw	a5,-36(s0)
	slli	a5,a5,16
	srli	a5,a5,16
	addi	a5,a5,2
	slli	a5,a5,16
	srli	a5,a5,16
	slli	a3,a5,8
	srli	a5,a5,8
	or	a5,a3,a5
	slli	a5,a5,16
	srli	a5,a5,16
	sw	a4,-64(s0)
	sh	a5,-66(s0)
.LBB60:
.LBB61:
	.loc 3 148 33
	lw	a5,-64(s0)
	sw	a5,-72(s0)
	.loc 3 149 12
	lw	a5,-72(s0)
	lhu	a4,-66(s0)
	andi	a4,a4,255
	lbu	a3,0(a5)
	andi	a3,a3,0
	or	a4,a3,a4
	sb	a4,0(a5)
	lhu	a4,-66(s0)
	srli	a4,a4,8
	slli	a4,a4,16
	srli	a4,a4,16
	lbu	a3,1(a5)
	andi	a3,a3,0
	or	a4,a3,a4
	sb	a4,1(a5)
	.loc 3 153 1
	nop
.LBE61:
.LBE60:
	.loc 2 300 138 discriminator 2
	lw	a5,-104(s0)
	addi	a4,a5,4
	.loc 2 300 145 discriminator 2
	lw	a5,-36(s0)
	slli	a5,a5,16
	srli	a5,a5,16
	slli	a3,a5,8
	srli	a5,a5,8
	or	a5,a3,a5
	slli	a5,a5,16
	srli	a5,a5,16
	sw	a4,-76(s0)
	sh	a5,-78(s0)
.LBB62:
.LBB63:
	.loc 3 148 33
	lw	a5,-76(s0)
	sw	a5,-84(s0)
	.loc 3 149 12
	lw	a5,-84(s0)
	lhu	a4,-78(s0)
	andi	a4,a4,255
	lbu	a3,0(a5)
	andi	a3,a3,0
	or	a4,a3,a4
	sb	a4,0(a5)
	lhu	a4,-78(s0)
	srli	a4,a4,8
	slli	a4,a4,16
	srli	a4,a4,16
	lbu	a3,1(a5)
	andi	a3,a3,0
	or	a4,a3,a4
	sb	a4,1(a5)
	.loc 3 153 1
	nop
.LBE63:
.LBE62:
	.loc 2 302 165
	lw	a5,-104(s0)
	addi	a4,a5,4
	.loc 2 302 5
	lw	a5,-36(s0)
	addi	a5,a5,2
	mv	a6,a5
	mv	a5,a4
	lui	a4,%hi(.LC9)
	addi	a4,a4,%lo(.LC9)
	li	a3,302
	lui	a2,%hi(.LC3)
	addi	a2,a2,%lo(.LC3)
	li	a1,3
	lw	a0,-100(s0)
	call	mbedtls_debug_print_buf
	.loc 2 305 28
	lw	a4,-28(s0)
	lw	a5,-104(s0)
	sub	a5,a4,a5
	.loc 2 305 16
	mv	a4,a5
	.loc 2 305 14
	lw	a5,-116(s0)
	sw	a4,0(a5)
	.loc 2 312 12
	li	a5,0
.L29:
	.loc 2 313 1
	mv	a0,a5
	lw	ra,124(sp)
	.cfi_restore 1
	lw	s0,120(sp)
	.cfi_restore 8
	.cfi_def_cfa 2, 128
	addi	sp,sp,128
	.cfi_def_cfa_offset 0
	jr	ra
	.cfi_endproc
.LFE144:
	.size	ssl_write_supported_groups_ext, .-ssl_write_supported_groups_ext
	.section	.rodata
	.align	2
.LC10:
	.string	"client hello, add ciphersuite: %04x, %s"
	.align	2
.LC11:
	.string	"adding EMPTY_RENEGOTIATION_INFO_SCSV"
	.align	2
.LC12:
	.string	"client hello, got %zu cipher suites"
	.section	.text.ssl_write_client_hello_cipher_suites,"ax",@progbits
	.align	1
	.type	ssl_write_client_hello_cipher_suites, @function
ssl_write_client_hello_cipher_suites:
.LFB145:
	.loc 2 324 1
	.cfi_startproc
	addi	sp,sp,-128
	.cfi_def_cfa_offset 128
	sw	ra,124(sp)
	sw	s0,120(sp)
	.cfi_offset 1, -4
	.cfi_offset 8, -8
	addi	s0,sp,128
	.cfi_def_cfa 8, 0
	sw	a0,-100(s0)
	sw	a1,-104(s0)
	sw	a2,-108(s0)
	sw	a3,-112(s0)
	sw	a4,-116(s0)
	.loc 2 325 20
	lw	a5,-104(s0)
	sw	a5,-20(s0)
	.loc 2 330 20
	lw	a5,-112(s0)
	sw	zero,0(a5)
	.loc 2 331 14
	lw	a5,-116(s0)
	sw	zero,0(a5)
	.loc 2 341 27
	lw	a5,-100(s0)
	lw	a5,0(a5)
	.loc 2 341 22
	lw	a5,20(a5)
	sw	a5,-28(s0)
	.loc 2 344 14
	li	a2,2
	lw	a1,-108(s0)
	lw	a0,-20(s0)
	call	mbedtls_ssl_chk_buf_ptr
	mv	a5,a0
	.loc 2 344 13 discriminator 1
	beq	a5,zero,.L38
	.loc 2 344 70 discriminator 2
	li	a5,-28672
	addi	a5,a5,1536
	.loc 2 344 70 is_stmt 0
	j	.L39
.L38:
	.loc 2 345 7 is_stmt 1
	lw	a5,-20(s0)
	addi	a5,a5,2
	sw	a5,-20(s0)
	.loc 2 350 19
	lw	a5,-20(s0)
	sw	a5,-32(s0)
.LBB64:
	.loc 2 351 17
	sw	zero,-24(s0)
	.loc 2 351 5
	j	.L40
.L44:
.LBB65:
	.loc 2 352 44
	lw	a5,-24(s0)
	slli	a5,a5,2
	lw	a4,-28(s0)
	add	a5,a4,a5
	.loc 2 352 13
	lw	a5,0(a5)
	sw	a5,-44(s0)
	.loc 2 355 28
	lw	a0,-44(s0)
	call	mbedtls_ssl_ciphersuite_from_id
	sw	a0,-48(s0)
	.loc 2 358 49
	lw	a5,-100(s0)
	lw	a5,64(a5)
	.loc 2 357 13
	lhu	a4,6(a5)
	lw	a5,-100(s0)
	lhu	a5,16(a5)
	mv	a3,a5
	mv	a2,a4
	lw	a1,-48(s0)
	lw	a0,-100(s0)
	call	mbedtls_ssl_validate_ciphersuite
	mv	a5,a0
	.loc 2 357 12 discriminator 1
	bne	a5,zero,.L47
	.loc 2 367 27
	lw	a0,-48(s0)
	call	mbedtls_ssl_ciphersuite_uses_ec
	mv	a4,a0
	.loc 2 367 9 discriminator 1
	lw	a5,-112(s0)
	lw	a5,0(a5)
	.loc 2 367 24 discriminator 1
	or	a4,a4,a5
	lw	a5,-112(s0)
	sw	a4,0(a5)
	.loc 2 370 9
	lw	a4,-44(s0)
	.loc 2 370 223
	lw	a5,-48(s0)
	lw	a5,4(a5)
	.loc 2 370 9
	mv	a6,a5
	mv	a5,a4
	lui	a4,%hi(.LC10)
	addi	a4,a4,%lo(.LC10)
	li	a3,370
	lui	a2,%hi(.LC3)
	addi	a2,a2,%lo(.LC3)
	li	a1,3
	lw	a0,-100(s0)
	call	mbedtls_debug_print_msg
	.loc 2 375 18
	li	a2,2
	lw	a1,-108(s0)
	lw	a0,-20(s0)
	call	mbedtls_ssl_chk_buf_ptr
	mv	a5,a0
	.loc 2 375 17 discriminator 1
	beq	a5,zero,.L43
	.loc 2 375 74 discriminator 2
	li	a5,-28672
	addi	a5,a5,1536
	.loc 2 375 74 is_stmt 0
	j	.L39
.L43:
	.loc 2 376 137 is_stmt 1 discriminator 2
	lw	a5,-44(s0)
	slli	a5,a5,16
	srli	a5,a5,16
	slli	a4,a5,8
	srli	a5,a5,8
	or	a5,a4,a5
	slli	a5,a5,16
	srli	a5,a5,16
	lw	a4,-20(s0)
	sw	a4,-52(s0)
	sh	a5,-54(s0)
.LBB66:
.LBB67:
	.loc 3 148 33
	lw	a5,-52(s0)
	sw	a5,-60(s0)
	.loc 3 149 12
	lw	a5,-60(s0)
	lhu	a4,-54(s0)
	andi	a4,a4,255
	lbu	a3,0(a5)
	andi	a3,a3,0
	or	a4,a3,a4
	sb	a4,0(a5)
	lhu	a4,-54(s0)
	srli	a4,a4,8
	slli	a4,a4,16
	srli	a4,a4,16
	lbu	a3,1(a5)
	andi	a3,a3,0
	or	a4,a3,a4
	sb	a4,1(a5)
	.loc 3 153 1
	nop
.LBE67:
.LBE66:
	.loc 2 377 11
	lw	a5,-20(s0)
	addi	a5,a5,2
	sw	a5,-20(s0)
	j	.L42
.L47:
	.loc 2 360 13
	nop
.L42:
.LBE65:
	.loc 2 351 51 discriminator 2
	lw	a5,-24(s0)
	addi	a5,a5,1
	sw	a5,-24(s0)
.L40:
	.loc 2 351 40 discriminator 1
	lw	a5,-24(s0)
	slli	a5,a5,2
	lw	a4,-28(s0)
	add	a5,a4,a5
	lw	a5,0(a5)
	.loc 2 351 44 discriminator 1
	bne	a5,zero,.L44
.LBE64:
	.loc 2 383 9
	sw	zero,-36(s0)
	.loc 2 385 25
	lw	a5,-100(s0)
	lw	a5,8(a5)
	.loc 2 385 41
	snez	a5,a5
	andi	a5,a5,0xff
	.loc 2 385 19
	sw	a5,-36(s0)
	.loc 2 387 8
	lw	a5,-36(s0)
	bne	a5,zero,.L45
	.loc 2 388 9
	lui	a5,%hi(.LC11)
	addi	a4,a5,%lo(.LC11)
	li	a3,388
	lui	a5,%hi(.LC3)
	addi	a2,a5,%lo(.LC3)
	li	a1,3
	lw	a0,-100(s0)
	call	mbedtls_debug_print_msg
	.loc 2 389 18
	li	a2,2
	lw	a1,-108(s0)
	lw	a0,-20(s0)
	call	mbedtls_ssl_chk_buf_ptr
	mv	a5,a0
	.loc 2 389 17 discriminator 1
	beq	a5,zero,.L46
	.loc 2 389 74 discriminator 2
	li	a5,-28672
	addi	a5,a5,1536
	.loc 2 389 74 is_stmt 0
	j	.L39
.L46:
	lw	a5,-20(s0)
	sw	a5,-64(s0)
	li	a5,-256
	sh	a5,-66(s0)
.LBB68:
.LBB69:
	.loc 3 148 33 is_stmt 1
	lw	a5,-64(s0)
	sw	a5,-72(s0)
	.loc 3 149 12
	lw	a5,-72(s0)
	lhu	a4,-66(s0)
	andi	a4,a4,255
	lbu	a3,0(a5)
	andi	a3,a3,0
	or	a4,a3,a4
	sb	a4,0(a5)
	lhu	a4,-66(s0)
	srli	a4,a4,8
	slli	a4,a4,16
	srli	a4,a4,16
	lbu	a3,1(a5)
	andi	a3,a3,0
	or	a4,a3,a4
	sb	a4,1(a5)
	.loc 3 153 1
	nop
.LBE69:
.LBE68:
	.loc 2 391 11
	lw	a5,-20(s0)
	addi	a5,a5,2
	sw	a5,-20(s0)
.L45:
	.loc 2 395 37
	lw	a4,-20(s0)
	lw	a5,-32(s0)
	sub	a5,a4,a5
	.loc 2 395 23
	sw	a5,-40(s0)
	.loc 2 396 142 discriminator 2
	lw	a5,-40(s0)
	slli	a5,a5,16
	srli	a5,a5,16
	slli	a4,a5,8
	srli	a5,a5,8
	or	a5,a4,a5
	slli	a5,a5,16
	srli	a5,a5,16
	lw	a4,-104(s0)
	sw	a4,-76(s0)
	sh	a5,-78(s0)
.LBB70:
.LBB71:
	.loc 3 148 33
	lw	a5,-76(s0)
	sw	a5,-84(s0)
	.loc 3 149 12
	lw	a5,-84(s0)
	lhu	a4,-78(s0)
	andi	a4,a4,255
	lbu	a3,0(a5)
	andi	a3,a3,0
	or	a4,a3,a4
	sb	a4,0(a5)
	lhu	a4,-78(s0)
	srli	a4,a4,8
	slli	a4,a4,16
	srli	a4,a4,16
	lbu	a3,1(a5)
	andi	a3,a3,0
	or	a4,a3,a4
	sb	a4,1(a5)
	.loc 3 153 1
	nop
.LBE71:
.LBE70:
	.loc 2 397 5
	lw	a5,-40(s0)
	srli	a5,a5,1
	lui	a4,%hi(.LC12)
	addi	a4,a4,%lo(.LC12)
	li	a3,397
	lui	a2,%hi(.LC3)
	addi	a2,a2,%lo(.LC3)
	li	a1,3
	lw	a0,-100(s0)
	call	mbedtls_debug_print_msg
	.loc 2 402 28
	lw	a4,-20(s0)
	lw	a5,-104(s0)
	sub	a5,a4,a5
	.loc 2 402 16
	mv	a4,a5
	.loc 2 402 14
	lw	a5,-116(s0)
	sw	a4,0(a5)
	.loc 2 404 12
	li	a5,0
.L39:
	.loc 2 405 1
	mv	a0,a5
	lw	ra,124(sp)
	.cfi_restore 1
	lw	s0,120(sp)
	.cfi_restore 8
	.cfi_def_cfa 2, 128
	addi	sp,sp,128
	.cfi_def_cfa_offset 0
	jr	ra
	.cfi_endproc
.LFE145:
	.size	ssl_write_client_hello_cipher_suites, .-ssl_write_client_hello_cipher_suites
	.section	.rodata
	.align	2
.LC13:
	.string	"client hello, random bytes"
	.align	2
.LC14:
	.string	"session id"
	.align	2
.LC15:
	.string	"client hello, cookie"
	.align	2
.LC16:
	.string	"client hello, total extension length: %zu"
	.align	2
.LC17:
	.string	"client hello extensions"
	.section	.text.ssl_write_client_hello_body,"ax",@progbits
	.align	1
	.type	ssl_write_client_hello_body, @function
ssl_write_client_hello_body:
.LFB146:
	.loc 2 442 1
	.cfi_startproc
	addi	sp,sp,-112
	.cfi_def_cfa_offset 112
	sw	ra,108(sp)
	sw	s0,104(sp)
	.cfi_offset 1, -4
	.cfi_offset 8, -8
	addi	s0,sp,112
	.cfi_def_cfa 8, 0
	sw	a0,-84(s0)
	sw	a1,-88(s0)
	sw	a2,-92(s0)
	sw	a3,-96(s0)
	sw	a4,-100(s0)
	.loc 2 444 35
	lw	a5,-84(s0)
	lw	a5,64(a5)
	sw	a5,-32(s0)
	.loc 2 445 20
	lw	a5,-88(s0)
	sw	a5,-20(s0)
	.loc 2 449 9
	sw	zero,-72(s0)
	.loc 2 451 14
	lw	a5,-96(s0)
	sw	zero,0(a5)
	.loc 2 452 18
	lw	a5,-100(s0)
	sw	zero,0(a5)
	.loc 2 456 19
	lw	a5,-32(s0)
	lhu	a4,6(a5)
	.loc 2 457 9
	li	a5,771
	bgtu	a4,a5,.L49
	.loc 2 458 43
	lw	a5,-84(s0)
	lhu	a4,16(a5)
	.loc 2 457 9 discriminator 1
	li	a5,770
	bleu	a4,a5,.L49
	.loc 2 457 9 is_stmt 0 discriminator 3
	li	a5,1
	.loc 2 457 9
	j	.L50
.L49:
	.loc 2 457 9 discriminator 4
	li	a5,0
.L50:
	.loc 2 455 19 is_stmt 1
	sb	a5,-33(s0)
	.loc 2 472 14
	li	a2,2
	lw	a1,-92(s0)
	lw	a0,-20(s0)
	call	mbedtls_ssl_chk_buf_ptr
	mv	a5,a0
	.loc 2 472 13 discriminator 1
	beq	a5,zero,.L51
	.loc 2 472 70 discriminator 2
	li	a5,-28672
	addi	a5,a5,1536
	.loc 2 472 70 is_stmt 0
	j	.L75
.L51:
	.loc 2 473 37 is_stmt 1
	lw	a5,-84(s0)
	lw	a5,0(a5)
	.loc 2 473 43
	lbu	a5,5(a5)
	.loc 2 473 5
	li	a2,771
	mv	a1,a5
	lw	a0,-20(s0)
	call	mbedtls_ssl_write_version
	.loc 2 475 7
	lw	a5,-20(s0)
	addi	a5,a5,2
	sw	a5,-20(s0)
	.loc 2 485 14
	li	a2,32
	lw	a1,-92(s0)
	lw	a0,-20(s0)
	call	mbedtls_ssl_chk_buf_ptr
	mv	a5,a0
	.loc 2 485 13 discriminator 1
	beq	a5,zero,.L53
	.loc 2 485 71 discriminator 2
	li	a5,-28672
	addi	a5,a5,1536
	.loc 2 485 71 is_stmt 0
	j	.L75
.L53:
	.loc 2 486 24 is_stmt 1
	lw	a5,-32(s0)
	addi	a5,a5,808
	.loc 2 486 5
	li	a2,32
	mv	a1,a5
	lw	a0,-20(s0)
	call	memcpy
	.loc 2 487 5
	li	a6,32
	lw	a5,-20(s0)
	lui	a4,%hi(.LC13)
	addi	a4,a4,%lo(.LC13)
	li	a3,487
	lui	a2,%hi(.LC3)
	addi	a2,a2,%lo(.LC3)
	li	a1,3
	lw	a0,-84(s0)
	call	mbedtls_debug_print_buf
	.loc 2 489 7
	lw	a5,-20(s0)
	addi	a5,a5,32
	sw	a5,-20(s0)
	.loc 2 507 54
	lw	a5,-84(s0)
	lw	a5,60(a5)
	.loc 2 507 73
	lw	a5,12(a5)
	.loc 2 507 14
	addi	a5,a5,1
	mv	a2,a5
	lw	a1,-92(s0)
	lw	a0,-20(s0)
	call	mbedtls_ssl_chk_buf_ptr
	mv	a5,a0
	.loc 2 507 13 discriminator 1
	beq	a5,zero,.L54
	.loc 2 507 103 discriminator 2
	li	a5,-28672
	addi	a5,a5,1536
	.loc 2 507 103 is_stmt 0
	j	.L75
.L54:
	.loc 2 508 31 is_stmt 1
	lw	a5,-84(s0)
	lw	a5,60(a5)
	.loc 2 508 50
	lw	a3,12(a5)
	.loc 2 508 7
	lw	a5,-20(s0)
	addi	a4,a5,1
	sw	a4,-20(s0)
	.loc 2 508 12
	andi	a4,a3,0xff
	.loc 2 508 10
	sb	a4,0(a5)
	.loc 2 509 18
	lw	a5,-84(s0)
	lw	a5,60(a5)
	.loc 2 509 37
	addi	a4,a5,16
	.loc 2 509 46
	lw	a5,-84(s0)
	lw	a5,60(a5)
	.loc 2 509 5
	lw	a5,12(a5)
	mv	a2,a5
	mv	a1,a4
	lw	a0,-20(s0)
	call	memcpy
	.loc 2 510 13
	lw	a5,-84(s0)
	lw	a5,60(a5)
	.loc 2 510 32
	lw	a5,12(a5)
	.loc 2 510 7
	lw	a4,-20(s0)
	add	a5,a4,a5
	sw	a5,-20(s0)
	.loc 2 512 148
	lw	a5,-84(s0)
	lw	a5,60(a5)
	.loc 2 512 167
	addi	a4,a5,16
	.loc 2 512 176
	lw	a5,-84(s0)
	lw	a5,60(a5)
	.loc 2 512 5
	lw	a5,12(a5)
	mv	a6,a5
	mv	a5,a4
	lui	a4,%hi(.LC14)
	addi	a4,a4,%lo(.LC14)
	li	a3,512
	lui	a2,%hi(.LC3)
	addi	a2,a2,%lo(.LC3)
	li	a1,3
	lw	a0,-84(s0)
	call	mbedtls_debug_print_buf
	.loc 2 521 12
	lw	a5,-84(s0)
	lw	a5,0(a5)
	.loc 2 521 18
	lbu	a4,5(a5)
	.loc 2 521 8
	li	a5,1
	bne	a4,a5,.L55
.LBB72:
	.loc 2 523 17
	sb	zero,-21(s0)
	.loc 2 528 22
	lw	a5,-32(s0)
	lw	a5,624(a5)
	.loc 2 528 12
	beq	a5,zero,.L56
	.loc 2 529 172
	lw	a5,-32(s0)
	lw	a4,624(a5)
	.loc 2 529 191
	lw	a5,-32(s0)
	lbu	a5,628(a5)
	.loc 2 529 13
	mv	a6,a5
	mv	a5,a4
	lui	a4,%hi(.LC15)
	addi	a4,a4,%lo(.LC15)
	li	a3,529
	lui	a2,%hi(.LC3)
	addi	a2,a2,%lo(.LC3)
	li	a1,3
	lw	a0,-84(s0)
	call	mbedtls_debug_print_buf
	.loc 2 532 24
	lw	a5,-32(s0)
	lbu	a5,628(a5)
	sb	a5,-21(s0)
.L56:
	.loc 2 535 66
	lbu	a5,-21(s0)
	addi	a5,a5,1
	.loc 2 535 18
	mv	a2,a5
	lw	a1,-92(s0)
	lw	a0,-20(s0)
	call	mbedtls_ssl_chk_buf_ptr
	mv	a5,a0
	.loc 2 535 17 discriminator 1
	beq	a5,zero,.L57
	.loc 2 535 87 discriminator 2
	li	a5,-28672
	addi	a5,a5,1536
	.loc 2 535 87 is_stmt 0
	j	.L75
.L57:
	.loc 2 536 11 is_stmt 1
	lw	a5,-20(s0)
	addi	a4,a5,1
	sw	a4,-20(s0)
	.loc 2 536 14
	lbu	a4,-21(s0)
	sb	a4,0(a5)
	.loc 2 537 12
	lbu	a5,-21(s0)
	beq	a5,zero,.L55
	.loc 2 538 32
	lw	a5,-32(s0)
	lw	a5,624(a5)
	.loc 2 538 13
	lbu	a4,-21(s0)
	mv	a2,a4
	mv	a1,a5
	lw	a0,-20(s0)
	call	memcpy
	.loc 2 539 15
	lbu	a5,-21(s0)
	lw	a4,-20(s0)
	add	a5,a4,a5
	sw	a5,-20(s0)
.L55:
.LBE72:
	.loc 2 545 11
	addi	a4,s0,-68
	addi	a5,s0,-72
	mv	a3,a5
	lw	a2,-92(s0)
	lw	a1,-20(s0)
	lw	a0,-84(s0)
	call	ssl_write_client_hello_cipher_suites
	sw	a0,-40(s0)
	.loc 2 548 8
	lw	a5,-40(s0)
	beq	a5,zero,.L58
	.loc 2 549 16
	lw	a5,-40(s0)
	j	.L75
.L58:
	.loc 2 551 7
	lw	a5,-68(s0)
	lw	a4,-20(s0)
	add	a5,a4,a5
	sw	a5,-20(s0)
	.loc 2 563 14
	li	a2,2
	lw	a1,-92(s0)
	lw	a0,-20(s0)
	call	mbedtls_ssl_chk_buf_ptr
	mv	a5,a0
	.loc 2 563 13 discriminator 1
	beq	a5,zero,.L59
	.loc 2 563 70 discriminator 2
	li	a5,-28672
	addi	a5,a5,1536
	.loc 2 563 70 is_stmt 0
	j	.L75
.L59:
	.loc 2 564 7 is_stmt 1
	lw	a5,-20(s0)
	addi	a4,a5,1
	sw	a4,-20(s0)
	.loc 2 564 10
	li	a4,1
	sb	a4,0(a5)
	.loc 2 565 7
	lw	a5,-20(s0)
	addi	a4,a5,1
	sw	a4,-20(s0)
	.loc 2 565 10
	sb	zero,0(a5)
	.loc 2 575 14
	li	a2,2
	lw	a1,-92(s0)
	lw	a0,-20(s0)
	call	mbedtls_ssl_chk_buf_ptr
	mv	a5,a0
	.loc 2 575 13 discriminator 1
	beq	a5,zero,.L60
	.loc 2 575 70 discriminator 2
	li	a5,-28672
	addi	a5,a5,1536
	.loc 2 575 70 is_stmt 0
	j	.L75
.L60:
	.loc 2 576 22 is_stmt 1
	lw	a5,-20(s0)
	sw	a5,-44(s0)
	.loc 2 577 7
	lw	a5,-20(s0)
	addi	a5,a5,2
	sw	a5,-20(s0)
	.loc 2 581 11
	addi	a5,s0,-68
	mv	a3,a5
	lw	a2,-92(s0)
	lw	a1,-20(s0)
	lw	a0,-84(s0)
	call	ssl_write_hostname_ext
	sw	a0,-40(s0)
	.loc 2 582 8
	lw	a5,-40(s0)
	beq	a5,zero,.L61
	.loc 2 583 16
	lw	a5,-40(s0)
	j	.L75
.L61:
	.loc 2 585 7
	lw	a5,-68(s0)
	lw	a4,-20(s0)
	add	a5,a4,a5
	sw	a5,-20(s0)
	.loc 2 589 11
	addi	a5,s0,-68
	mv	a3,a5
	lw	a2,-92(s0)
	lw	a1,-20(s0)
	lw	a0,-84(s0)
	call	ssl_write_alpn_ext
	sw	a0,-40(s0)
	.loc 2 590 8
	lw	a5,-40(s0)
	beq	a5,zero,.L62
	.loc 2 591 16
	lw	a5,-40(s0)
	j	.L75
.L62:
	.loc 2 593 7
	lw	a5,-68(s0)
	lw	a4,-20(s0)
	add	a5,a4,a5
	sw	a5,-20(s0)
.LBB73:
	.loc 2 610 13
	sw	zero,-28(s0)
	.loc 2 619 12
	lbu	a5,-33(s0)
	beq	a5,zero,.L63
	.loc 2 619 27 discriminator 1
	lw	a5,-72(s0)
	beq	a5,zero,.L63
	.loc 2 620 50
	lw	a5,-28(s0)
	ori	a5,a5,1
	sw	a5,-28(s0)
.L63:
	.loc 2 624 12
	lw	a5,-28(s0)
	beq	a5,zero,.L64
	.loc 2 625 19
	addi	a5,s0,-68
	mv	a4,a5
	lw	a3,-28(s0)
	lw	a2,-92(s0)
	lw	a1,-20(s0)
	lw	a0,-84(s0)
	call	ssl_write_supported_groups_ext
	sw	a0,-40(s0)
	.loc 2 628 16
	lw	a5,-40(s0)
	beq	a5,zero,.L65
	.loc 2 629 24
	lw	a5,-40(s0)
	j	.L75
.L65:
	.loc 2 631 15
	lw	a5,-68(s0)
	lw	a4,-20(s0)
	add	a5,a4,a5
	sw	a5,-20(s0)
.L64:
.LBE73:
	.loc 2 638 9
	sw	zero,-48(s0)
	.loc 2 644 43
	lw	a5,-48(s0)
	bne	a5,zero,.L66
	.loc 2 644 43 is_stmt 0 discriminator 2
	lbu	a5,-33(s0)
	beq	a5,zero,.L67
.L66:
	.loc 2 644 43 discriminator 3
	li	a5,1
	.loc 2 644 43
	j	.L68
.L67:
	.loc 2 644 43 discriminator 4
	li	a5,0
.L68:
	.loc 2 644 23 is_stmt 1 discriminator 6
	sw	a5,-48(s0)
	.loc 2 647 8
	lw	a5,-48(s0)
	beq	a5,zero,.L69
	.loc 2 648 15
	addi	a5,s0,-68
	mv	a3,a5
	lw	a2,-92(s0)
	lw	a1,-20(s0)
	lw	a0,-84(s0)
	call	mbedtls_ssl_write_sig_alg_ext
	sw	a0,-40(s0)
	.loc 2 649 12
	lw	a5,-40(s0)
	beq	a5,zero,.L70
	.loc 2 650 20
	lw	a5,-40(s0)
	j	.L75
.L70:
	.loc 2 652 11
	lw	a5,-68(s0)
	lw	a4,-20(s0)
	add	a5,a4,a5
	sw	a5,-20(s0)
.L69:
	.loc 2 657 8
	lbu	a5,-33(s0)
	beq	a5,zero,.L71
	.loc 2 658 15
	lw	a5,-72(s0)
	addi	a4,s0,-68
	mv	a3,a5
	lw	a2,-92(s0)
	lw	a1,-20(s0)
	lw	a0,-84(s0)
	call	mbedtls_ssl_tls12_write_client_hello_exts
	sw	a0,-40(s0)
	.loc 2 661 12
	lw	a5,-40(s0)
	beq	a5,zero,.L72
	.loc 2 662 20
	lw	a5,-40(s0)
	j	.L75
.L72:
	.loc 2 664 11
	lw	a5,-68(s0)
	lw	a4,-20(s0)
	add	a5,a4,a5
	sw	a5,-20(s0)
.L71:
	.loc 2 683 34
	lw	a4,-20(s0)
	lw	a5,-44(s0)
	sub	a5,a4,a5
	.loc 2 683 20
	addi	a5,a5,-2
	sw	a5,-52(s0)
	.loc 2 685 8
	lw	a5,-52(s0)
	bne	a5,zero,.L73
	.loc 2 686 11
	lw	a5,-44(s0)
	sw	a5,-20(s0)
	j	.L74
.L73:
	.loc 2 688 169 discriminator 2
	lw	a5,-52(s0)
	slli	a5,a5,16
	srli	a5,a5,16
	slli	a4,a5,8
	srli	a5,a5,8
	or	a5,a4,a5
	slli	a5,a5,16
	srli	a5,a5,16
	lw	a4,-44(s0)
	sw	a4,-56(s0)
	sh	a5,-58(s0)
.LBB74:
.LBB75:
	.loc 3 148 33
	lw	a5,-56(s0)
	sw	a5,-64(s0)
	.loc 3 149 12
	lw	a5,-64(s0)
	lhu	a4,-58(s0)
	andi	a4,a4,255
	lbu	a3,0(a5)
	andi	a3,a3,0
	or	a4,a3,a4
	sb	a4,0(a5)
	lhu	a4,-58(s0)
	srli	a4,a4,8
	slli	a4,a4,16
	srli	a4,a4,16
	lbu	a3,1(a5)
	andi	a3,a3,0
	or	a4,a3,a4
	sb	a4,1(a5)
	.loc 3 153 1
	nop
.LBE75:
.LBE74:
	.loc 2 689 9
	lw	a5,-52(s0)
	lui	a4,%hi(.LC16)
	addi	a4,a4,%lo(.LC16)
	li	a3,689
	lui	a2,%hi(.LC3)
	addi	a2,a2,%lo(.LC3)
	li	a1,3
	lw	a0,-84(s0)
	call	mbedtls_debug_print_msg
	.loc 2 691 9
	lw	a6,-52(s0)
	lw	a5,-44(s0)
	lui	a4,%hi(.LC17)
	addi	a4,a4,%lo(.LC17)
	li	a3,691
	lui	a2,%hi(.LC3)
	addi	a2,a2,%lo(.LC3)
	li	a1,3
	lw	a0,-84(s0)
	call	mbedtls_debug_print_buf
.L74:
	.loc 2 695 28
	lw	a4,-20(s0)
	lw	a5,-88(s0)
	sub	a5,a4,a5
	.loc 2 695 16
	mv	a4,a5
	.loc 2 695 14
	lw	a5,-96(s0)
	sw	a4,0(a5)
	.loc 2 696 12
	li	a5,0
.L75:
	.loc 2 697 1
	mv	a0,a5
	lw	ra,108(sp)
	.cfi_restore 1
	lw	s0,104(sp)
	.cfi_restore 8
	.cfi_def_cfa 2, 112
	addi	sp,sp,112
	.cfi_def_cfa_offset 0
	jr	ra
	.cfi_endproc
.LFE146:
	.size	ssl_write_client_hello_body, .-ssl_write_client_hello_body
	.section	.text.ssl_generate_random,"ax",@progbits
	.align	1
	.type	ssl_generate_random, @function
ssl_generate_random:
.LFB147:
	.loc 2 701 1
	.cfi_startproc
	addi	sp,sp,-48
	.cfi_def_cfa_offset 48
	sw	ra,44(sp)
	sw	s0,40(sp)
	.cfi_offset 1, -4
	.cfi_offset 8, -8
	addi	s0,sp,48
	.cfi_def_cfa 8, 0
	sw	a0,-36(s0)
	.loc 2 702 9
	li	a5,-110
	sw	a5,-20(s0)
	.loc 2 703 35
	lw	a5,-36(s0)
	lw	a5,64(a5)
	.loc 2 703 20
	addi	a5,a5,808
	sw	a5,-24(s0)
	.loc 2 704 12
	sw	zero,-28(s0)
	.loc 2 730 14
	lw	a5,-36(s0)
	lw	a5,0(a5)
	.loc 2 730 20
	lw	a5,32(a5)
	.loc 2 730 31
	lw	a4,-36(s0)
	lw	a4,0(a4)
	.loc 2 730 37
	lw	a0,36(a4)
	.loc 2 730 11
	lw	a3,-24(s0)
	lw	a4,-28(s0)
	add	a1,a3,a4
	li	a3,32
	lw	a4,-28(s0)
	sub	a4,a3,a4
	mv	a2,a4
	jalr	a5
.LVL0:
	sw	a0,-20(s0)
	.loc 2 733 12
	lw	a5,-20(s0)
	.loc 2 734 1
	mv	a0,a5
	lw	ra,44(sp)
	.cfi_restore 1
	lw	s0,40(sp)
	.cfi_restore 8
	.cfi_def_cfa 2, 48
	addi	sp,sp,48
	.cfi_def_cfa_offset 0
	jr	ra
	.cfi_endproc
.LFE147:
	.size	ssl_generate_random, .-ssl_generate_random
	.section	.rodata
	.align	2
.LC18:
	.string	"Random bytes generation failed"
	.align	2
.LC19:
	.string	"creating session id failed"
	.section	.text.ssl_prepare_client_hello,"ax",@progbits
	.align	1
	.type	ssl_prepare_client_hello, @function
ssl_prepare_client_hello:
.LFB148:
	.loc 2 738 1
	.cfi_startproc
	addi	sp,sp,-48
	.cfi_def_cfa_offset 48
	sw	ra,44(sp)
	sw	s0,40(sp)
	.cfi_offset 1, -4
	.cfi_offset 8, -8
	addi	s0,sp,48
	.cfi_def_cfa 8, 0
	sw	a0,-36(s0)
	.loc 2 741 26
	lw	a5,-36(s0)
	lw	a5,60(a5)
	sw	a5,-28(s0)
	.loc 2 743 8
	lw	a5,-28(s0)
	bne	a5,zero,.L79
	.loc 2 744 16
	li	a5,-28672
	addi	a5,a5,1024
	j	.L80
.L79:
	.loc 2 773 12
	lw	a5,-36(s0)
	lw	a5,8(a5)
	.loc 2 773 8
	beq	a5,zero,.L81
	.loc 2 774 12
	lw	a5,-36(s0)
	lw	a5,64(a5)
	.loc 2 774 46
	lw	a4,-36(s0)
	lhu	a4,16(a4)
	.loc 2 774 41
	sh	a4,6(a5)
	j	.L82
.L81:
	.loc 2 778 16
	lw	a5,-36(s0)
	lw	a5,64(a5)
	.loc 2 778 27
	lbu	a5,0(a5)
	.loc 2 778 12
	beq	a5,zero,.L83
	.loc 2 779 49
	lw	a5,-28(s0)
	lhu	a4,4(a5)
	.loc 2 779 30
	lw	a5,-36(s0)
	sh	a4,16(a5)
	.loc 2 780 16
	lw	a5,-36(s0)
	lw	a5,64(a5)
	.loc 2 780 50
	lw	a4,-36(s0)
	lhu	a4,16(a4)
	.loc 2 780 45
	sh	a4,6(a5)
	j	.L82
.L83:
	.loc 2 782 50
	lw	a5,-36(s0)
	lw	a4,0(a5)
	.loc 2 782 16
	lw	a5,-36(s0)
	lw	a5,64(a5)
	.loc 2 782 56
	lhu	a4,2(a4)
	.loc 2 782 45
	sh	a4,6(a5)
.L82:
	.loc 2 792 13
	lw	a5,-36(s0)
	lw	a5,0(a5)
	.loc 2 792 19
	lbu	a4,5(a5)
	.loc 2 792 8
	li	a5,1
	bne	a4,a5,.L84
	.loc 2 793 13
	lw	a5,-36(s0)
	lw	a5,64(a5)
	.loc 2 793 24
	lw	a5,624(a5)
	.loc 2 792 37 discriminator 1
	bne	a5,zero,.L85
.L84:
	.loc 2 800 19
	lw	a0,-36(s0)
	call	ssl_generate_random
	sw	a0,-32(s0)
	.loc 2 801 16
	lw	a5,-32(s0)
	beq	a5,zero,.L85
	.loc 2 802 17
	lw	a5,-32(s0)
	lui	a4,%hi(.LC18)
	addi	a4,a4,%lo(.LC18)
	li	a3,802
	lui	a2,%hi(.LC3)
	addi	a2,a2,%lo(.LC3)
	li	a1,1
	lw	a0,-36(s0)
	call	mbedtls_debug_print_ret
	.loc 2 803 24
	lw	a5,-32(s0)
	j	.L80
.L85:
	.loc 2 814 20
	lw	a5,-28(s0)
	lw	a5,12(a5)
	sw	a5,-20(s0)
	.loc 2 817 12
	lw	a5,-36(s0)
	lhu	a4,16(a5)
	.loc 2 817 8
	li	a5,771
	bne	a4,a5,.L86
.LBB76:
	.loc 2 818 12
	lw	a4,-20(s0)
	li	a5,15
	bleu	a4,a5,.L87
	.loc 2 818 33 discriminator 1
	lw	a4,-20(s0)
	li	a5,32
	bgtu	a4,a5,.L87
	.loc 2 820 16
	lw	a5,-36(s0)
	lw	a5,8(a5)
	.loc 2 818 56 discriminator 2
	bne	a5,zero,.L87
	.loc 2 822 16
	lw	a5,-36(s0)
	lw	a5,64(a5)
	.loc 2 822 27
	lbu	a5,0(a5)
	.loc 2 820 37
	bne	a5,zero,.L88
.L87:
	.loc 2 823 28
	sw	zero,-20(s0)
.L88:
	.loc 2 831 13
	sw	zero,-24(s0)
	.loc 2 833 16
	lw	a5,-36(s0)
	lw	a5,8(a5)
	.loc 2 833 12
	beq	a5,zero,.L89
	.loc 2 834 27
	li	a5,1
	sw	a5,-24(s0)
.L89:
	.loc 2 837 12
	lw	a5,-24(s0)
	bne	a5,zero,.L86
	.loc 2 838 35
	lw	a5,-28(s0)
	lw	a5,104(a5)
	.loc 2 838 16
	beq	a5,zero,.L86
	.loc 2 839 35
	lw	a5,-28(s0)
	lw	a5,108(a5)
	.loc 2 838 52 discriminator 1
	beq	a5,zero,.L86
	.loc 2 840 32
	li	a5,32
	sw	a5,-20(s0)
.L86:
.LBE76:
	.loc 2 848 12
	lw	a5,-36(s0)
	lhu	a4,16(a5)
	.loc 2 848 8
	li	a5,772
	bne	a4,a5,.L90
	.loc 2 865 24
	li	a5,32
	sw	a5,-20(s0)
.L90:
	.loc 2 869 44
	lw	a5,-28(s0)
	lw	a5,12(a5)
	.loc 2 869 8
	lw	a4,-20(s0)
	beq	a4,a5,.L91
	.loc 2 870 35
	lw	a5,-28(s0)
	lw	a4,-20(s0)
	sw	a4,12(a5)
	.loc 2 871 12
	lw	a5,-20(s0)
	beq	a5,zero,.L91
	.loc 2 872 22
	lw	a5,-36(s0)
	lw	a5,0(a5)
	.loc 2 872 28
	lw	a5,32(a5)
	.loc 2 872 39
	lw	a4,-36(s0)
	lw	a4,0(a4)
	.loc 2 872 45
	lw	a3,36(a4)
	.loc 2 873 53
	lw	a4,-28(s0)
	addi	a4,a4,16
	.loc 2 872 19
	lw	a2,-20(s0)
	mv	a1,a4
	mv	a0,a3
	jalr	a5
.LVL1:
	sw	a0,-32(s0)
	.loc 2 875 16
	lw	a5,-32(s0)
	beq	a5,zero,.L91
	.loc 2 876 17
	lw	a5,-32(s0)
	lui	a4,%hi(.LC19)
	addi	a4,a4,%lo(.LC19)
	li	a3,876
	lui	a2,%hi(.LC3)
	addi	a2,a2,%lo(.LC3)
	li	a1,1
	lw	a0,-36(s0)
	call	mbedtls_debug_print_ret
	.loc 2 877 24
	lw	a5,-32(s0)
	j	.L80
.L91:
	.loc 2 909 12
	li	a5,0
.L80:
	.loc 2 910 1
	mv	a0,a5
	lw	ra,44(sp)
	.cfi_restore 1
	lw	s0,40(sp)
	.cfi_restore 8
	.cfi_def_cfa 2, 48
	addi	sp,sp,48
	.cfi_def_cfa_offset 0
	jr	ra
	.cfi_endproc
.LFE148:
	.size	ssl_prepare_client_hello, .-ssl_prepare_client_hello
	.section	.rodata
	.align	2
.LC20:
	.string	"=> write client hello"
	.align	2
.LC21:
	.string	"mbedtls_ssl_write_handshake_msg"
	.align	2
.LC22:
	.string	"mbedtls_ssl_flight_transmit"
	.align	2
.LC23:
	.string	"mbedtls_ssl_add_hs_hdr_to_checksum"
	.align	2
.LC24:
	.string	"update_checksum"
	.align	2
.LC25:
	.string	"<= write client hello"
	.section	.text.mbedtls_ssl_write_client_hello,"ax",@progbits
	.align	1
	.globl	mbedtls_ssl_write_client_hello
	.type	mbedtls_ssl_write_client_hello, @function
mbedtls_ssl_write_client_hello:
.LFB149:
	.loc 2 916 1
	.cfi_startproc
	addi	sp,sp,-64
	.cfi_def_cfa_offset 64
	sw	ra,60(sp)
	sw	s0,56(sp)
	.cfi_offset 1, -4
	.cfi_offset 8, -8
	addi	s0,sp,64
	.cfi_def_cfa 8, 0
	sw	a0,-52(s0)
	.loc 2 917 9
	sw	zero,-20(s0)
	.loc 2 921 5
	lui	a5,%hi(.LC20)
	addi	a4,a5,%lo(.LC20)
	li	a3,921
	lui	a5,%hi(.LC3)
	addi	a2,a5,%lo(.LC3)
	li	a1,2
	lw	a0,-52(s0)
	call	mbedtls_debug_print_msg
	.loc 2 923 17
	lw	a0,-52(s0)
	call	ssl_prepare_client_hello
	sw	a0,-20(s0)
	.loc 2 923 52 discriminator 1
	lw	a5,-20(s0)
	bne	a5,zero,.L104
	.loc 2 925 17
	addi	a4,s0,-28
	addi	a5,s0,-24
	mv	a3,a4
	mv	a2,a5
	li	a1,1
	lw	a0,-52(s0)
	call	mbedtls_ssl_start_handshake_msg
	sw	a0,-20(s0)
	.loc 2 925 79 discriminator 1
	lw	a5,-20(s0)
	bne	a5,zero,.L105
	.loc 2 929 17
	lw	a1,-24(s0)
	lw	a4,-24(s0)
	lw	a5,-28(s0)
	add	a5,a4,a5
	addi	a4,s0,-36
	addi	a3,s0,-32
	mv	a2,a5
	lw	a0,-52(s0)
	call	ssl_write_client_hello_body
	sw	a0,-20(s0)
	.loc 2 929 99 discriminator 1
	lw	a5,-20(s0)
	bne	a5,zero,.L106
	.loc 2 935 12
	lw	a5,-52(s0)
	lw	a5,0(a5)
	.loc 2 935 18
	lbu	a4,5(a5)
	.loc 2 935 8
	li	a5,1
	bne	a4,a5,.L97
	.loc 2 936 35
	lw	a5,-32(s0)
	addi	a4,a5,4
	.loc 2 936 25
	lw	a5,-52(s0)
	sw	a4,224(a5)
	.loc 2 937 9
	lw	a0,-52(s0)
	call	mbedtls_ssl_send_flight_completed
	.loc 2 948 9
	li	a1,2
	lw	a0,-52(s0)
	call	mbedtls_ssl_handshake_set_state
	.loc 2 950 20
	lw	a0,-52(s0)
	call	mbedtls_ssl_write_handshake_msg
	sw	a0,-20(s0)
	.loc 2 950 12 discriminator 1
	lw	a5,-20(s0)
	beq	a5,zero,.L98
	.loc 2 951 13
	lw	a5,-20(s0)
	lui	a4,%hi(.LC21)
	addi	a4,a4,%lo(.LC21)
	li	a3,951
	lui	a2,%hi(.LC3)
	addi	a2,a2,%lo(.LC3)
	li	a1,1
	lw	a0,-52(s0)
	call	mbedtls_debug_print_ret
	.loc 2 952 20
	lw	a5,-20(s0)
	j	.L103
.L98:
	.loc 2 955 20
	lw	a0,-52(s0)
	call	mbedtls_ssl_flight_transmit
	sw	a0,-20(s0)
	.loc 2 955 12 discriminator 1
	lw	a5,-20(s0)
	beq	a5,zero,.L94
	.loc 2 956 13
	lw	a5,-20(s0)
	lui	a4,%hi(.LC22)
	addi	a4,a4,%lo(.LC22)
	li	a3,956
	lui	a2,%hi(.LC3)
	addi	a2,a2,%lo(.LC3)
	li	a1,1
	lw	a0,-52(s0)
	call	mbedtls_debug_print_ret
	.loc 2 957 20
	lw	a5,-20(s0)
	j	.L103
.L97:
	.loc 2 963 15
	lw	a5,-32(s0)
	mv	a2,a5
	li	a1,1
	lw	a0,-52(s0)
	call	mbedtls_ssl_add_hs_hdr_to_checksum
	sw	a0,-20(s0)
	.loc 2 966 12
	lw	a5,-20(s0)
	beq	a5,zero,.L100
	.loc 2 967 13
	lw	a5,-20(s0)
	lui	a4,%hi(.LC23)
	addi	a4,a4,%lo(.LC23)
	li	a3,967
	lui	a2,%hi(.LC3)
	addi	a2,a2,%lo(.LC3)
	li	a1,1
	lw	a0,-52(s0)
	call	mbedtls_debug_print_ret
	.loc 2 968 20
	lw	a5,-20(s0)
	j	.L103
.L100:
	.loc 2 970 18
	lw	a5,-52(s0)
	lw	a5,64(a5)
	.loc 2 970 29
	lw	a5,28(a5)
	.loc 2 970 15
	lw	a1,-24(s0)
	lw	a3,-32(s0)
	lw	a4,-36(s0)
	sub	a4,a3,a4
	mv	a2,a4
	lw	a0,-52(s0)
	jalr	a5
.LVL2:
	sw	a0,-20(s0)
	.loc 2 971 12
	lw	a5,-20(s0)
	beq	a5,zero,.L101
	.loc 2 972 13
	lw	a5,-20(s0)
	lui	a4,%hi(.LC24)
	addi	a4,a4,%lo(.LC24)
	li	a3,972
	lui	a2,%hi(.LC3)
	addi	a2,a2,%lo(.LC3)
	li	a1,1
	lw	a0,-52(s0)
	call	mbedtls_debug_print_ret
	.loc 2 973 20
	lw	a5,-20(s0)
	j	.L103
.L101:
	.loc 2 989 21
	lw	a5,-28(s0)
	lw	a4,-32(s0)
	mv	a2,a4
	mv	a1,a5
	lw	a0,-52(s0)
	call	mbedtls_ssl_finish_handshake_msg
	sw	a0,-20(s0)
	.loc 2 989 82 discriminator 1
	lw	a5,-20(s0)
	bne	a5,zero,.L107
	.loc 2 997 9
	li	a1,2
	lw	a0,-52(s0)
	call	mbedtls_ssl_handshake_set_state
	j	.L94
.L104:
	.loc 2 923 65
	nop
	j	.L94
.L105:
	.loc 2 925 92
	nop
	j	.L94
.L106:
	.loc 2 929 112
	nop
	j	.L94
.L107:
	.loc 2 989 95
	nop
.L94:
	.loc 2 1014 5
	lui	a5,%hi(.LC25)
	addi	a4,a5,%lo(.LC25)
	li	a3,1014
	lui	a5,%hi(.LC3)
	addi	a2,a5,%lo(.LC3)
	li	a1,2
	lw	a0,-52(s0)
	call	mbedtls_debug_print_msg
	.loc 2 1015 12
	lw	a5,-20(s0)
.L103:
	.loc 2 1016 1
	mv	a0,a5
	lw	ra,60(sp)
	.cfi_restore 1
	lw	s0,56(sp)
	.cfi_restore 8
	.cfi_def_cfa 2, 64
	addi	sp,sp,64
	.cfi_def_cfa_offset 0
	jr	ra
	.cfi_endproc
.LFE149:
	.size	mbedtls_ssl_write_client_hello, .-mbedtls_ssl_write_client_hello
	.text
.Letext0:
	.file 4 "/home/chandu/sdk/bl602_iot_sdk/toolchain/compiler/lib/gcc/riscv32-unknown-elf/15.1.0/include/stddef.h"
	.file 5 "/home/chandu/sdk/bl602_iot_sdk/toolchain/compiler/lib/gcc/riscv32-unknown-elf/15.1.0/include/stdint-gcc.h"
	.file 6 "/home/chandu/sdk/bl602_iot_sdk/components/security/mbedtls-bl602/include/mbedtls/bignum.h"
	.file 7 "/home/chandu/sdk/bl602_iot_sdk/components/security/mbedtls-bl602/include/mbedtls/ecp.h"
	.file 8 "/home/chandu/sdk/bl602_iot_sdk/components/security/mbedtls-bl602/include/mbedtls/md.h"
	.file 9 "/home/chandu/sdk/bl602_iot_sdk/components/security/mbedtls-bl602/include/mbedtls/cipher.h"
	.file 10 "/home/chandu/sdk/bl602_iot_sdk/components/security/mbedtls-bl602/include/mbedtls/cmac.h"
	.file 11 "/home/chandu/sdk/bl602_iot_sdk/components/security/mbedtls-bl602/include/mbedtls/pk.h"
	.file 12 "/home/chandu/sdk/bl602_iot_sdk/components/security/mbedtls-bl602/include/mbedtls/ssl_ciphersuites.h"
	.file 13 "/home/chandu/sdk/bl602_iot_sdk/components/security/mbedtls-bl602/include/mbedtls/asn1.h"
	.file 14 "/home/chandu/sdk/bl602_iot_sdk/components/security/mbedtls-bl602/include/mbedtls/x509.h"
	.file 15 "/home/chandu/sdk/bl602_iot_sdk/components/security/mbedtls-bl602/include/mbedtls/x509_crl.h"
	.file 16 "/home/chandu/sdk/bl602_iot_sdk/components/security/mbedtls-bl602/include/mbedtls/x509_crt.h"
	.file 17 "/home/chandu/sdk/bl602_iot_sdk/components/security/mbedtls-bl602/include/mbedtls/dhm.h"
	.file 18 "/home/chandu/sdk/bl602_iot_sdk/components/security/mbedtls-bl602/include/mbedtls/ecdh.h"
	.file 19 "/home/chandu/sdk/bl602_iot_sdk/components/security/mbedtls-bl602/include/mbedtls/ssl.h"
	.file 20 "/home/chandu/sdk/bl602_iot_sdk/components/security/mbedtls-bl602/library/ssl_debug_helpers.h"
	.file 21 "/home/chandu/sdk/bl602_iot_sdk/components/security/mbedtls-bl602/library/debug_internal.h"
	.file 22 "/home/chandu/sdk/bl602_iot_sdk/components/security/mbedtls-bl602/library/ssl_ciphersuites_internal.h"
	.file 23 "/home/chandu/sdk/bl602_iot_sdk/toolchain/compiler/riscv32-unknown-elf/include/string.h"
	.section	.note.GNU-stack,"",@progbits
