	.file	"ssl_ciphersuites.c"
	.option nopic
	.attribute arch, "rv32i2p1_m2p0_f2p2_c2p0_zicsr2p0_zmmul1p0_zca1p0_zcf1p0"
	.attribute unaligned_access, 0
	.attribute stack_align, 16
	.text
.Ltext0:
	.cfi_sections	.debug_frame
	.file 0 "/home/chandu/sdk/bl602_iot_sdk/customer_app/suas_app_pqkem_gateway/build_out/mbedtls-bl602" "/home/chandu/sdk/bl602_iot_sdk/components/security/mbedtls-bl602/library/ssl_ciphersuites.c"
	.section	.text.mbedtls_cipher_info_get_key_bitlen,"ax",@progbits
	.align	1
	.type	mbedtls_cipher_info_get_key_bitlen, @function
mbedtls_cipher_info_get_key_bitlen:
.LFB21:
	.file 1 "/home/chandu/sdk/bl602_iot_sdk/components/security/mbedtls-bl602/include/mbedtls/cipher.h"
	.loc 1 486 1
	.cfi_startproc
	addi	sp,sp,-32
	.cfi_def_cfa_offset 32
	sw	ra,28(sp)
	sw	s0,24(sp)
	.cfi_offset 1, -4
	.cfi_offset 8, -8
	addi	s0,sp,32
	.cfi_def_cfa 8, 0
	sw	a0,-20(s0)
	.loc 1 487 8
	lw	a5,-20(s0)
	bne	a5,zero,.L2
	.loc 1 488 16
	li	a5,0
	j	.L3
.L2:
	.loc 1 490 30
	lw	a5,-20(s0)
	lw	a5,4(a5)
	srli	a5,a5,8
	andi	a5,a5,15
	andi	a5,a5,0xff
	.loc 1 490 44
	slli	a5,a5,6
.L3:
	.loc 1 492 1
	mv	a0,a5
	lw	ra,28(sp)
	.cfi_restore 1
	lw	s0,24(sp)
	.cfi_restore 8
	.cfi_def_cfa 2, 32
	addi	sp,sp,32
	.cfi_def_cfa_offset 0
	jr	ra
	.cfi_endproc
.LFE21:
	.size	mbedtls_cipher_info_get_key_bitlen, .-mbedtls_cipher_info_get_key_bitlen
	.section	.rodata.ciphersuite_preference,"a"
	.align	2
	.type	ciphersuite_preference, @object
	.size	ciphersuite_preference, 744
ciphersuite_preference:
	.word	52392
	.word	52393
	.word	52394
	.word	49196
	.word	49200
	.word	159
	.word	49325
	.word	49311
	.word	49188
	.word	49192
	.word	107
	.word	49162
	.word	49172
	.word	57
	.word	49327
	.word	49315
	.word	49287
	.word	49291
	.word	49277
	.word	49267
	.word	49271
	.word	196
	.word	136
	.word	49245
	.word	49249
	.word	49235
	.word	49225
	.word	49229
	.word	49221
	.word	49195
	.word	49199
	.word	158
	.word	49324
	.word	49310
	.word	49187
	.word	49191
	.word	103
	.word	49161
	.word	49171
	.word	51
	.word	49326
	.word	49314
	.word	49286
	.word	49290
	.word	49276
	.word	49266
	.word	49270
	.word	190
	.word	69
	.word	49244
	.word	49248
	.word	49234
	.word	49224
	.word	49228
	.word	49220
	.word	52396
	.word	52397
	.word	171
	.word	49319
	.word	49208
	.word	179
	.word	49206
	.word	145
	.word	49297
	.word	49307
	.word	49303
	.word	49323
	.word	49261
	.word	49265
	.word	49255
	.word	170
	.word	49318
	.word	49207
	.word	178
	.word	49205
	.word	144
	.word	49296
	.word	49302
	.word	49306
	.word	49322
	.word	49260
	.word	49264
	.word	49254
	.word	49407
	.word	157
	.word	49309
	.word	61
	.word	53
	.word	49202
	.word	49194
	.word	49167
	.word	49198
	.word	49190
	.word	49157
	.word	49313
	.word	49275
	.word	192
	.word	132
	.word	49293
	.word	49273
	.word	49289
	.word	49269
	.word	49247
	.word	49251
	.word	49233
	.word	49227
	.word	49231
	.word	49213
	.word	156
	.word	49308
	.word	60
	.word	47
	.word	49201
	.word	49193
	.word	49166
	.word	49197
	.word	49189
	.word	49156
	.word	49312
	.word	49274
	.word	186
	.word	65
	.word	49292
	.word	49272
	.word	49288
	.word	49268
	.word	49246
	.word	49250
	.word	49232
	.word	49226
	.word	49230
	.word	49212
	.word	52398
	.word	173
	.word	183
	.word	149
	.word	49299
	.word	49305
	.word	49263
	.word	49257
	.word	172
	.word	182
	.word	148
	.word	49298
	.word	49304
	.word	49262
	.word	49256
	.word	52395
	.word	169
	.word	49317
	.word	175
	.word	141
	.word	49295
	.word	49301
	.word	49321
	.word	49259
	.word	49253
	.word	168
	.word	49316
	.word	174
	.word	140
	.word	49294
	.word	49300
	.word	49320
	.word	49258
	.word	49252
	.word	49158
	.word	49168
	.word	49211
	.word	49210
	.word	49209
	.word	181
	.word	180
	.word	45
	.word	59
	.word	2
	.word	1
	.word	49163
	.word	49153
	.word	185
	.word	184
	.word	46
	.word	177
	.word	176
	.word	44
	.word	0
	.section	.rodata
	.align	2
.LC0:
	.string	"TLS-ECDHE-ECDSA-WITH-AES-128-CBC-SHA"
	.align	2
.LC1:
	.string	"TLS-ECDHE-ECDSA-WITH-AES-256-CBC-SHA"
	.align	2
.LC2:
	.string	"TLS-ECDHE-ECDSA-WITH-AES-128-CBC-SHA256"
	.align	2
.LC3:
	.string	"TLS-ECDHE-ECDSA-WITH-AES-128-GCM-SHA256"
	.align	2
.LC4:
	.string	"TLS-ECDHE-ECDSA-WITH-AES-256-CBC-SHA384"
	.align	2
.LC5:
	.string	"TLS-ECDHE-ECDSA-WITH-AES-256-GCM-SHA384"
	.align	2
.LC6:
	.string	"TLS-ECDHE-ECDSA-WITH-AES-256-CCM"
	.align	2
.LC7:
	.string	"TLS-ECDHE-ECDSA-WITH-AES-256-CCM-8"
	.align	2
.LC8:
	.string	"TLS-ECDHE-ECDSA-WITH-AES-128-CCM"
	.align	2
.LC9:
	.string	"TLS-ECDHE-ECDSA-WITH-AES-128-CCM-8"
	.align	2
.LC10:
	.string	"TLS-ECDH-ECDSA-WITH-AES-128-CBC-SHA"
	.align	2
.LC11:
	.string	"TLS-ECDH-ECDSA-WITH-AES-256-CBC-SHA"
	.align	2
.LC12:
	.string	"TLS-ECDH-ECDSA-WITH-AES-128-CBC-SHA256"
	.align	2
.LC13:
	.string	"TLS-ECDH-ECDSA-WITH-AES-128-GCM-SHA256"
	.align	2
.LC14:
	.string	"TLS-ECDH-ECDSA-WITH-AES-256-CBC-SHA384"
	.align	2
.LC15:
	.string	"TLS-ECDH-ECDSA-WITH-AES-256-GCM-SHA384"
	.align	2
.LC16:
	.string	"TLS-PSK-WITH-AES-128-GCM-SHA256"
	.align	2
.LC17:
	.string	"TLS-PSK-WITH-AES-256-GCM-SHA384"
	.align	2
.LC18:
	.string	"TLS-PSK-WITH-AES-128-CBC-SHA256"
	.align	2
.LC19:
	.string	"TLS-PSK-WITH-AES-256-CBC-SHA384"
	.align	2
.LC20:
	.string	"TLS-PSK-WITH-AES-128-CBC-SHA"
	.align	2
.LC21:
	.string	"TLS-PSK-WITH-AES-256-CBC-SHA"
	.align	2
.LC22:
	.string	"TLS-PSK-WITH-AES-256-CCM"
	.align	2
.LC23:
	.string	"TLS-PSK-WITH-AES-256-CCM-8"
	.align	2
.LC24:
	.string	"TLS-PSK-WITH-AES-128-CCM"
	.align	2
.LC25:
	.string	"TLS-PSK-WITH-AES-128-CCM-8"
	.align	2
.LC26:
	.string	"TLS-ECDHE-PSK-WITH-AES-128-CBC-SHA256"
	.align	2
.LC27:
	.string	"TLS-ECDHE-PSK-WITH-AES-256-CBC-SHA384"
	.align	2
.LC28:
	.string	"TLS-ECDHE-PSK-WITH-AES-128-CBC-SHA"
	.align	2
.LC29:
	.string	"TLS-ECDHE-PSK-WITH-AES-256-CBC-SHA"
	.align	2
.LC30:
	.string	""
	.section	.rodata.ciphersuite_definitions,"a"
	.align	2
	.type	ciphersuite_definitions, @object
	.size	ciphersuite_definitions, 496
ciphersuite_definitions:
	.word	49161
	.word	.LC0
	.byte	5
	.byte	5
	.byte	4
	.byte	0
	.half	771
	.half	771
	.word	49162
	.word	.LC1
	.byte	7
	.byte	5
	.byte	4
	.byte	0
	.half	771
	.half	771
	.word	49187
	.word	.LC2
	.byte	5
	.byte	9
	.byte	4
	.byte	0
	.half	771
	.half	771
	.word	49195
	.word	.LC3
	.byte	14
	.byte	9
	.byte	4
	.byte	0
	.half	771
	.half	771
	.word	49188
	.word	.LC4
	.byte	7
	.byte	10
	.byte	4
	.byte	0
	.half	771
	.half	771
	.word	49196
	.word	.LC5
	.byte	16
	.byte	10
	.byte	4
	.byte	0
	.half	771
	.half	771
	.word	49325
	.word	.LC6
	.byte	40
	.byte	9
	.byte	4
	.byte	0
	.half	771
	.half	771
	.word	49327
	.word	.LC7
	.byte	40
	.byte	9
	.byte	4
	.byte	2
	.half	771
	.half	771
	.word	49324
	.word	.LC8
	.byte	38
	.byte	9
	.byte	4
	.byte	0
	.half	771
	.half	771
	.word	49326
	.word	.LC9
	.byte	38
	.byte	9
	.byte	4
	.byte	2
	.half	771
	.half	771
	.word	49156
	.word	.LC10
	.byte	5
	.byte	5
	.byte	10
	.byte	0
	.half	771
	.half	771
	.word	49157
	.word	.LC11
	.byte	7
	.byte	5
	.byte	10
	.byte	0
	.half	771
	.half	771
	.word	49189
	.word	.LC12
	.byte	5
	.byte	9
	.byte	10
	.byte	0
	.half	771
	.half	771
	.word	49197
	.word	.LC13
	.byte	14
	.byte	9
	.byte	10
	.byte	0
	.half	771
	.half	771
	.word	49190
	.word	.LC14
	.byte	7
	.byte	10
	.byte	10
	.byte	0
	.half	771
	.half	771
	.word	49198
	.word	.LC15
	.byte	16
	.byte	10
	.byte	10
	.byte	0
	.half	771
	.half	771
	.word	168
	.word	.LC16
	.byte	14
	.byte	9
	.byte	5
	.byte	0
	.half	771
	.half	771
	.word	169
	.word	.LC17
	.byte	16
	.byte	10
	.byte	5
	.byte	0
	.half	771
	.half	771
	.word	174
	.word	.LC18
	.byte	5
	.byte	9
	.byte	5
	.byte	0
	.half	771
	.half	771
	.word	175
	.word	.LC19
	.byte	7
	.byte	10
	.byte	5
	.byte	0
	.half	771
	.half	771
	.word	140
	.word	.LC20
	.byte	5
	.byte	5
	.byte	5
	.byte	0
	.half	771
	.half	771
	.word	141
	.word	.LC21
	.byte	7
	.byte	5
	.byte	5
	.byte	0
	.half	771
	.half	771
	.word	49317
	.word	.LC22
	.byte	40
	.byte	9
	.byte	5
	.byte	0
	.half	771
	.half	771
	.word	49321
	.word	.LC23
	.byte	40
	.byte	9
	.byte	5
	.byte	2
	.half	771
	.half	771
	.word	49316
	.word	.LC24
	.byte	38
	.byte	9
	.byte	5
	.byte	0
	.half	771
	.half	771
	.word	49320
	.word	.LC25
	.byte	38
	.byte	9
	.byte	5
	.byte	2
	.half	771
	.half	771
	.word	49207
	.word	.LC26
	.byte	5
	.byte	9
	.byte	8
	.byte	0
	.half	771
	.half	771
	.word	49208
	.word	.LC27
	.byte	7
	.byte	10
	.byte	8
	.byte	0
	.half	771
	.half	771
	.word	49205
	.word	.LC28
	.byte	5
	.byte	5
	.byte	8
	.byte	0
	.half	771
	.half	771
	.word	49206
	.word	.LC29
	.byte	7
	.byte	5
	.byte	8
	.byte	0
	.half	771
	.half	771
	.word	0
	.word	.LC30
	.byte	0
	.byte	0
	.byte	0
	.byte	0
	.half	0
	.half	0
	.section	.bss.supported_ciphersuites,"aw",@nobits
	.align	2
	.type	supported_ciphersuites, @object
	.size	supported_ciphersuites, 124
supported_ciphersuites:
	.zero	124
	.section	.sbss.supported_init,"aw",@nobits
	.align	2
	.type	supported_init, @object
	.size	supported_init, 4
supported_init:
	.zero	4
	.section	.text.ciphersuite_is_removed,"ax",@progbits
	.align	1
	.type	ciphersuite_is_removed, @function
ciphersuite_is_removed:
.LFB142:
	.file 2 "/home/chandu/sdk/bl602_iot_sdk/components/security/mbedtls-bl602/library/ssl_ciphersuites.c"
	.loc 2 1810 1
	.cfi_startproc
	addi	sp,sp,-32
	.cfi_def_cfa_offset 32
	sw	ra,28(sp)
	sw	s0,24(sp)
	.cfi_offset 1, -4
	.cfi_offset 8, -8
	addi	s0,sp,32
	.cfi_def_cfa 8, 0
	sw	a0,-20(s0)
	.loc 2 1813 12
	li	a5,0
	.loc 2 1814 1
	mv	a0,a5
	lw	ra,28(sp)
	.cfi_restore 1
	lw	s0,24(sp)
	.cfi_restore 8
	.cfi_def_cfa 2, 32
	addi	sp,sp,32
	.cfi_def_cfa_offset 0
	jr	ra
	.cfi_endproc
.LFE142:
	.size	ciphersuite_is_removed, .-ciphersuite_is_removed
	.section	.text.mbedtls_ssl_list_ciphersuites,"ax",@progbits
	.align	1
	.globl	mbedtls_ssl_list_ciphersuites
	.type	mbedtls_ssl_list_ciphersuites, @function
mbedtls_ssl_list_ciphersuites:
.LFB143:
	.loc 2 1817 1
	.cfi_startproc
	addi	sp,sp,-32
	.cfi_def_cfa_offset 32
	sw	ra,28(sp)
	sw	s0,24(sp)
	.cfi_offset 1, -4
	.cfi_offset 8, -8
	addi	s0,sp,32
	.cfi_def_cfa 8, 0
	.loc 2 1822 24
	lui	a5,%hi(supported_init)
	lw	a5,%lo(supported_init)(a5)
	.loc 2 1822 8
	bne	a5,zero,.L7
.LBB2:
	.loc 2 1826 16
	lui	a5,%hi(ciphersuite_preference)
	addi	a5,a5,%lo(ciphersuite_preference)
	sw	a5,-20(s0)
	.loc 2 1826 44
	lui	a5,%hi(supported_ciphersuites)
	addi	a5,a5,%lo(supported_ciphersuites)
	sw	a5,-24(s0)
	.loc 2 1826 9
	j	.L8
.L11:
.LBB3:
	.loc 2 1830 28
	lw	a5,-20(s0)
	lw	a5,0(a5)
	mv	a0,a5
	call	mbedtls_ssl_ciphersuite_from_id
	sw	a0,-28(s0)
	.loc 2 1830 16 discriminator 1
	lw	a5,-28(s0)
	beq	a5,zero,.L9
	.loc 2 1831 18
	lw	a0,-28(s0)
	call	ciphersuite_is_removed
	mv	a5,a0
	.loc 2 1830 72 discriminator 2
	bne	a5,zero,.L9
	.loc 2 1832 20
	lw	a5,-24(s0)
	addi	a4,a5,4
	sw	a4,-24(s0)
	.loc 2 1832 26
	lw	a4,-20(s0)
	lw	a4,0(a4)
	.loc 2 1832 24
	sw	a4,0(a5)
.L9:
.LBE3:
	.loc 2 1828 15
	lw	a5,-20(s0)
	addi	a5,a5,4
	sw	a5,-20(s0)
.L8:
	.loc 2 1827 14
	lw	a5,-20(s0)
	lw	a5,0(a5)
	.loc 2 1827 22
	beq	a5,zero,.L10
	.loc 2 1827 123 discriminator 1
	lui	a5,%hi(supported_ciphersuites+120)
	addi	a5,a5,%lo(supported_ciphersuites+120)
	.loc 2 1827 22 discriminator 1
	lw	a4,-24(s0)
	bltu	a4,a5,.L11
.L10:
	.loc 2 1835 12
	lw	a5,-24(s0)
	sw	zero,0(a5)
	.loc 2 1837 24
	lui	a5,%hi(supported_init)
	li	a4,1
	sw	a4,%lo(supported_init)(a5)
.L7:
.LBE2:
	.loc 2 1840 12
	lui	a5,%hi(supported_ciphersuites)
	addi	a5,a5,%lo(supported_ciphersuites)
	.loc 2 1841 1
	mv	a0,a5
	lw	ra,28(sp)
	.cfi_restore 1
	lw	s0,24(sp)
	.cfi_restore 8
	.cfi_def_cfa 2, 32
	addi	sp,sp,32
	.cfi_def_cfa_offset 0
	jr	ra
	.cfi_endproc
.LFE143:
	.size	mbedtls_ssl_list_ciphersuites, .-mbedtls_ssl_list_ciphersuites
	.section	.text.mbedtls_ssl_ciphersuite_from_string,"ax",@progbits
	.align	1
	.globl	mbedtls_ssl_ciphersuite_from_string
	.type	mbedtls_ssl_ciphersuite_from_string, @function
mbedtls_ssl_ciphersuite_from_string:
.LFB144:
	.loc 2 1846 1
	.cfi_startproc
	addi	sp,sp,-48
	.cfi_def_cfa_offset 48
	sw	ra,44(sp)
	sw	s0,40(sp)
	.cfi_offset 1, -4
	.cfi_offset 8, -8
	addi	s0,sp,48
	.cfi_def_cfa 8, 0
	sw	a0,-36(s0)
	.loc 2 1847 38
	lui	a5,%hi(ciphersuite_definitions)
	addi	a5,a5,%lo(ciphersuite_definitions)
	sw	a5,-20(s0)
	.loc 2 1849 8
	lw	a5,-36(s0)
	bne	a5,zero,.L16
	.loc 2 1850 15
	li	a5,0
	j	.L15
.L18:
	.loc 2 1854 28
	lw	a5,-20(s0)
	lw	a5,4(a5)
	.loc 2 1854 18
	lw	a1,-36(s0)
	mv	a0,a5
	call	strcmp
	mv	a5,a0
	.loc 2 1854 12 discriminator 1
	bne	a5,zero,.L17
	.loc 2 1855 20
	lw	a5,-20(s0)
	j	.L15
.L17:
	.loc 2 1858 12
	lw	a5,-20(s0)
	addi	a5,a5,16
	sw	a5,-20(s0)
.L16:
	.loc 2 1853 15
	lw	a5,-20(s0)
	lw	a5,0(a5)
	.loc 2 1853 20
	bne	a5,zero,.L18
	.loc 2 1861 11
	li	a5,0
.L15:
	.loc 2 1862 1
	mv	a0,a5
	lw	ra,44(sp)
	.cfi_restore 1
	lw	s0,40(sp)
	.cfi_restore 8
	.cfi_def_cfa 2, 48
	addi	sp,sp,48
	.cfi_def_cfa_offset 0
	jr	ra
	.cfi_endproc
.LFE144:
	.size	mbedtls_ssl_ciphersuite_from_string, .-mbedtls_ssl_ciphersuite_from_string
	.section	.text.mbedtls_ssl_ciphersuite_from_id,"ax",@progbits
	.align	1
	.globl	mbedtls_ssl_ciphersuite_from_id
	.type	mbedtls_ssl_ciphersuite_from_id, @function
mbedtls_ssl_ciphersuite_from_id:
.LFB145:
	.loc 2 1865 1
	.cfi_startproc
	addi	sp,sp,-48
	.cfi_def_cfa_offset 48
	sw	ra,44(sp)
	sw	s0,40(sp)
	.cfi_offset 1, -4
	.cfi_offset 8, -8
	addi	s0,sp,48
	.cfi_def_cfa 8, 0
	sw	a0,-36(s0)
	.loc 2 1866 38
	lui	a5,%hi(ciphersuite_definitions)
	addi	a5,a5,%lo(ciphersuite_definitions)
	sw	a5,-20(s0)
	.loc 2 1868 11
	j	.L20
.L23:
	.loc 2 1869 16
	lw	a5,-20(s0)
	lw	a5,0(a5)
	.loc 2 1869 12
	lw	a4,-36(s0)
	bne	a4,a5,.L21
	.loc 2 1870 20
	lw	a5,-20(s0)
	j	.L22
.L21:
	.loc 2 1873 12
	lw	a5,-20(s0)
	addi	a5,a5,16
	sw	a5,-20(s0)
.L20:
	.loc 2 1868 15
	lw	a5,-20(s0)
	lw	a5,0(a5)
	.loc 2 1868 20
	bne	a5,zero,.L23
	.loc 2 1876 11
	li	a5,0
.L22:
	.loc 2 1877 1
	mv	a0,a5
	lw	ra,44(sp)
	.cfi_restore 1
	lw	s0,40(sp)
	.cfi_restore 8
	.cfi_def_cfa 2, 48
	addi	sp,sp,48
	.cfi_def_cfa_offset 0
	jr	ra
	.cfi_endproc
.LFE145:
	.size	mbedtls_ssl_ciphersuite_from_id, .-mbedtls_ssl_ciphersuite_from_id
	.section	.rodata
	.align	2
.LC31:
	.string	"unknown"
	.section	.text.mbedtls_ssl_get_ciphersuite_name,"ax",@progbits
	.align	1
	.globl	mbedtls_ssl_get_ciphersuite_name
	.type	mbedtls_ssl_get_ciphersuite_name, @function
mbedtls_ssl_get_ciphersuite_name:
.LFB146:
	.loc 2 1880 1
	.cfi_startproc
	addi	sp,sp,-48
	.cfi_def_cfa_offset 48
	sw	ra,44(sp)
	sw	s0,40(sp)
	.cfi_offset 1, -4
	.cfi_offset 8, -8
	addi	s0,sp,48
	.cfi_def_cfa 8, 0
	sw	a0,-36(s0)
	.loc 2 1883 11
	lw	a0,-36(s0)
	call	mbedtls_ssl_ciphersuite_from_id
	sw	a0,-20(s0)
	.loc 2 1885 8
	lw	a5,-20(s0)
	bne	a5,zero,.L25
	.loc 2 1886 16
	lui	a5,%hi(.LC31)
	addi	a5,a5,%lo(.LC31)
	j	.L26
.L25:
	.loc 2 1889 15
	lw	a5,-20(s0)
	lw	a5,4(a5)
.L26:
	.loc 2 1890 1
	mv	a0,a5
	lw	ra,44(sp)
	.cfi_restore 1
	lw	s0,40(sp)
	.cfi_restore 8
	.cfi_def_cfa 2, 48
	addi	sp,sp,48
	.cfi_def_cfa_offset 0
	jr	ra
	.cfi_endproc
.LFE146:
	.size	mbedtls_ssl_get_ciphersuite_name, .-mbedtls_ssl_get_ciphersuite_name
	.section	.text.mbedtls_ssl_get_ciphersuite_id,"ax",@progbits
	.align	1
	.globl	mbedtls_ssl_get_ciphersuite_id
	.type	mbedtls_ssl_get_ciphersuite_id, @function
mbedtls_ssl_get_ciphersuite_id:
.LFB147:
	.loc 2 1893 1
	.cfi_startproc
	addi	sp,sp,-48
	.cfi_def_cfa_offset 48
	sw	ra,44(sp)
	sw	s0,40(sp)
	.cfi_offset 1, -4
	.cfi_offset 8, -8
	addi	s0,sp,48
	.cfi_def_cfa 8, 0
	sw	a0,-36(s0)
	.loc 2 1896 11
	lw	a0,-36(s0)
	call	mbedtls_ssl_ciphersuite_from_string
	sw	a0,-20(s0)
	.loc 2 1898 8
	lw	a5,-20(s0)
	bne	a5,zero,.L28
	.loc 2 1899 16
	li	a5,0
	j	.L29
.L28:
	.loc 2 1902 15
	lw	a5,-20(s0)
	lw	a5,0(a5)
.L29:
	.loc 2 1903 1
	mv	a0,a5
	lw	ra,44(sp)
	.cfi_restore 1
	lw	s0,40(sp)
	.cfi_restore 8
	.cfi_def_cfa 2, 48
	addi	sp,sp,48
	.cfi_def_cfa_offset 0
	jr	ra
	.cfi_endproc
.LFE147:
	.size	mbedtls_ssl_get_ciphersuite_id, .-mbedtls_ssl_get_ciphersuite_id
	.section	.text.mbedtls_ssl_ciphersuite_get_cipher_key_bitlen,"ax",@progbits
	.align	1
	.globl	mbedtls_ssl_ciphersuite_get_cipher_key_bitlen
	.type	mbedtls_ssl_ciphersuite_get_cipher_key_bitlen, @function
mbedtls_ssl_ciphersuite_get_cipher_key_bitlen:
.LFB148:
	.loc 2 1906 1
	.cfi_startproc
	addi	sp,sp,-48
	.cfi_def_cfa_offset 48
	sw	ra,44(sp)
	sw	s0,40(sp)
	.cfi_offset 1, -4
	.cfi_offset 8, -8
	addi	s0,sp,48
	.cfi_def_cfa 8, 0
	sw	a0,-36(s0)
	.loc 2 1924 67
	lw	a5,-36(s0)
	lbu	a5,8(a5)
	.loc 2 1924 9
	mv	a0,a5
	call	mbedtls_cipher_info_from_type
	sw	a0,-20(s0)
	.loc 2 1926 12
	lw	a0,-20(s0)
	call	mbedtls_cipher_info_get_key_bitlen
	mv	a5,a0
	.loc 2 1928 1
	mv	a0,a5
	lw	ra,44(sp)
	.cfi_restore 1
	lw	s0,40(sp)
	.cfi_restore 8
	.cfi_def_cfa 2, 48
	addi	sp,sp,48
	.cfi_def_cfa_offset 0
	jr	ra
	.cfi_endproc
.LFE148:
	.size	mbedtls_ssl_ciphersuite_get_cipher_key_bitlen, .-mbedtls_ssl_ciphersuite_get_cipher_key_bitlen
	.section	.text.mbedtls_ssl_get_ciphersuite_sig_pk_alg,"ax",@progbits
	.align	1
	.globl	mbedtls_ssl_get_ciphersuite_sig_pk_alg
	.type	mbedtls_ssl_get_ciphersuite_sig_pk_alg, @function
mbedtls_ssl_get_ciphersuite_sig_pk_alg:
.LFB149:
	.loc 2 1932 1
	.cfi_startproc
	addi	sp,sp,-32
	.cfi_def_cfa_offset 32
	sw	ra,28(sp)
	sw	s0,24(sp)
	.cfi_offset 1, -4
	.cfi_offset 8, -8
	addi	s0,sp,32
	.cfi_def_cfa 8, 0
	sw	a0,-20(s0)
	.loc 2 1933 17
	lw	a5,-20(s0)
	lbu	a5,10(a5)
	.loc 2 1933 5
	li	a4,10
	bgt	a5,a4,.L33
	li	a4,9
	bge	a5,a4,.L34
	li	a4,7
	beq	a5,a4,.L35
	li	a4,7
	bgt	a5,a4,.L33
	li	a4,3
	bgt	a5,a4,.L36
	bgt	a5,zero,.L35
	j	.L33
.L36:
	li	a4,4
	beq	a5,a4,.L37
	j	.L33
.L35:
	.loc 2 1938 20
	li	a5,1
	j	.L38
.L37:
	.loc 2 1941 20
	li	a5,4
	j	.L38
.L34:
	.loc 2 1945 20
	li	a5,2
	j	.L38
.L33:
	.loc 2 1948 20
	li	a5,0
.L38:
	.loc 2 1950 1
	mv	a0,a5
	lw	ra,28(sp)
	.cfi_restore 1
	lw	s0,24(sp)
	.cfi_restore 8
	.cfi_def_cfa 2, 32
	addi	sp,sp,32
	.cfi_def_cfa_offset 0
	jr	ra
	.cfi_endproc
.LFE149:
	.size	mbedtls_ssl_get_ciphersuite_sig_pk_alg, .-mbedtls_ssl_get_ciphersuite_sig_pk_alg
	.section	.text.mbedtls_ssl_get_ciphersuite_sig_alg,"ax",@progbits
	.align	1
	.globl	mbedtls_ssl_get_ciphersuite_sig_alg
	.type	mbedtls_ssl_get_ciphersuite_sig_alg, @function
mbedtls_ssl_get_ciphersuite_sig_alg:
.LFB150:
	.loc 2 1998 1
	.cfi_startproc
	addi	sp,sp,-32
	.cfi_def_cfa_offset 32
	sw	ra,28(sp)
	sw	s0,24(sp)
	.cfi_offset 1, -4
	.cfi_offset 8, -8
	addi	s0,sp,32
	.cfi_def_cfa 8, 0
	sw	a0,-20(s0)
	.loc 2 1999 17
	lw	a5,-20(s0)
	lbu	a5,10(a5)
	.loc 2 1999 5
	li	a4,3
	bgt	a5,a4,.L40
	li	a4,2
	bge	a5,a4,.L41
	j	.L42
.L40:
	li	a4,4
	beq	a5,a4,.L43
	j	.L42
.L41:
	.loc 2 2002 20
	li	a5,1
	j	.L44
.L43:
	.loc 2 2005 20
	li	a5,4
	j	.L44
.L42:
	.loc 2 2008 20
	li	a5,0
.L44:
	.loc 2 2010 1
	mv	a0,a5
	lw	ra,28(sp)
	.cfi_restore 1
	lw	s0,24(sp)
	.cfi_restore 8
	.cfi_def_cfa 2, 32
	addi	sp,sp,32
	.cfi_def_cfa_offset 0
	jr	ra
	.cfi_endproc
.LFE150:
	.size	mbedtls_ssl_get_ciphersuite_sig_alg, .-mbedtls_ssl_get_ciphersuite_sig_alg
	.section	.text.mbedtls_ssl_ciphersuite_uses_ec,"ax",@progbits
	.align	1
	.globl	mbedtls_ssl_ciphersuite_uses_ec
	.type	mbedtls_ssl_ciphersuite_uses_ec, @function
mbedtls_ssl_ciphersuite_uses_ec:
.LFB151:
	.loc 2 2018 1
	.cfi_startproc
	addi	sp,sp,-32
	.cfi_def_cfa_offset 32
	sw	ra,28(sp)
	sw	s0,24(sp)
	.cfi_offset 1, -4
	.cfi_offset 8, -8
	addi	s0,sp,32
	.cfi_def_cfa 8, 0
	sw	a0,-20(s0)
	.loc 2 2019 17
	lw	a5,-20(s0)
	lbu	a5,10(a5)
	.loc 2 2019 5
	li	a4,4
	bgt	a5,a4,.L46
	li	a4,3
	bge	a5,a4,.L47
	j	.L48
.L46:
	addi	a4,a5,-8
	li	a5,3
	bgtu	a4,a5,.L48
.L47:
	.loc 2 2026 20
	li	a5,1
	j	.L49
.L48:
	.loc 2 2029 20
	li	a5,0
.L49:
	.loc 2 2031 1
	mv	a0,a5
	lw	ra,28(sp)
	.cfi_restore 1
	lw	s0,24(sp)
	.cfi_restore 8
	.cfi_def_cfa 2, 32
	addi	sp,sp,32
	.cfi_def_cfa_offset 0
	jr	ra
	.cfi_endproc
.LFE151:
	.size	mbedtls_ssl_ciphersuite_uses_ec, .-mbedtls_ssl_ciphersuite_uses_ec
	.section	.text.mbedtls_ssl_ciphersuite_uses_psk,"ax",@progbits
	.align	1
	.globl	mbedtls_ssl_ciphersuite_uses_psk
	.type	mbedtls_ssl_ciphersuite_uses_psk, @function
mbedtls_ssl_ciphersuite_uses_psk:
.LFB152:
	.loc 2 2038 1
	.cfi_startproc
	addi	sp,sp,-32
	.cfi_def_cfa_offset 32
	sw	ra,28(sp)
	sw	s0,24(sp)
	.cfi_offset 1, -4
	.cfi_offset 8, -8
	addi	s0,sp,32
	.cfi_def_cfa 8, 0
	sw	a0,-20(s0)
	.loc 2 2039 17
	lw	a5,-20(s0)
	lbu	a5,10(a5)
	addi	a4,a5,-5
	.loc 2 2039 5
	li	a5,3
	bgtu	a4,a5,.L51
	.loc 2 2044 20
	li	a5,1
	j	.L52
.L51:
	.loc 2 2047 20
	li	a5,0
.L52:
	.loc 2 2049 1
	mv	a0,a5
	lw	ra,28(sp)
	.cfi_restore 1
	lw	s0,24(sp)
	.cfi_restore 8
	.cfi_def_cfa 2, 32
	addi	sp,sp,32
	.cfi_def_cfa_offset 0
	jr	ra
	.cfi_endproc
.LFE152:
	.size	mbedtls_ssl_ciphersuite_uses_psk, .-mbedtls_ssl_ciphersuite_uses_psk
	.text
.Letext0:
	.file 3 "/home/chandu/sdk/bl602_iot_sdk/toolchain/compiler/lib/gcc/riscv32-unknown-elf/15.1.0/include/stddef.h"
	.file 4 "/home/chandu/sdk/bl602_iot_sdk/toolchain/compiler/lib/gcc/riscv32-unknown-elf/15.1.0/include/stdint-gcc.h"
	.file 5 "/home/chandu/sdk/bl602_iot_sdk/components/security/mbedtls-bl602/include/mbedtls/md.h"
	.file 6 "/home/chandu/sdk/bl602_iot_sdk/components/security/mbedtls-bl602/include/mbedtls/pk.h"
	.file 7 "/home/chandu/sdk/bl602_iot_sdk/components/security/mbedtls-bl602/include/mbedtls/ssl_ciphersuites.h"
	.file 8 "/home/chandu/sdk/bl602_iot_sdk/components/security/mbedtls-bl602/include/mbedtls/ssl.h"
	.file 9 "/home/chandu/sdk/bl602_iot_sdk/toolchain/compiler/riscv32-unknown-elf/include/string.h"
	.section	.note.GNU-stack,"",@progbits
