	.file	"version.c"
	.option nopic
	.attribute arch, "rv32i2p1_m2p0_f2p2_c2p0_zicsr2p0_zmmul1p0_zca1p0_zcf1p0"
	.attribute unaligned_access, 0
	.attribute stack_align, 16
	.text
.Ltext0:
	.cfi_sections	.debug_frame
	.file 0 "/home/chandu/sdk/bl602_iot_sdk/customer_app/suas_app_pqkem_gateway/build_out/mbedtls-bl602" "/home/chandu/sdk/bl602_iot_sdk/components/security/mbedtls-bl602/library/version.c"
	.section	.text.mbedtls_version_get_number,"ax",@progbits
	.align	1
	.globl	mbedtls_version_get_number
	.type	mbedtls_version_get_number, @function
mbedtls_version_get_number:
.LFB11:
	.file 1 "/home/chandu/sdk/bl602_iot_sdk/components/security/mbedtls-bl602/library/version.c"
	.loc 1 16 1
	.cfi_startproc
	addi	sp,sp,-16
	.cfi_def_cfa_offset 16
	sw	ra,12(sp)
	sw	s0,8(sp)
	.cfi_offset 1, -4
	.cfi_offset 8, -8
	addi	s0,sp,16
	.cfi_def_cfa 8, 0
	.loc 1 17 12
	li	a5,50724864
	addi	a5,a5,1280
	.loc 1 18 1
	mv	a0,a5
	lw	ra,12(sp)
	.cfi_restore 1
	lw	s0,8(sp)
	.cfi_restore 8
	.cfi_def_cfa 2, 16
	addi	sp,sp,16
	.cfi_def_cfa_offset 0
	jr	ra
	.cfi_endproc
.LFE11:
	.size	mbedtls_version_get_number, .-mbedtls_version_get_number
	.section	.rodata
	.align	2
.LC0:
	.string	"3.6.5"
	.section	.text.mbedtls_version_get_string,"ax",@progbits
	.align	1
	.globl	mbedtls_version_get_string
	.type	mbedtls_version_get_string, @function
mbedtls_version_get_string:
.LFB12:
	.loc 1 21 1
	.cfi_startproc
	addi	sp,sp,-32
	.cfi_def_cfa_offset 32
	sw	ra,28(sp)
	sw	s0,24(sp)
	.cfi_offset 1, -4
	.cfi_offset 8, -8
	addi	s0,sp,32
	.cfi_def_cfa 8, 0
	sw	a0,-20(s0)
	.loc 1 22 5
	li	a2,6
	lui	a5,%hi(.LC0)
	addi	a1,a5,%lo(.LC0)
	lw	a0,-20(s0)
	call	memcpy
	.loc 1 24 1
	nop
	lw	ra,28(sp)
	.cfi_restore 1
	lw	s0,24(sp)
	.cfi_restore 8
	.cfi_def_cfa 2, 32
	addi	sp,sp,32
	.cfi_def_cfa_offset 0
	jr	ra
	.cfi_endproc
.LFE12:
	.size	mbedtls_version_get_string, .-mbedtls_version_get_string
	.section	.rodata
	.align	2
.LC1:
	.string	"Mbed TLS 3.6.5"
	.section	.text.mbedtls_version_get_string_full,"ax",@progbits
	.align	1
	.globl	mbedtls_version_get_string_full
	.type	mbedtls_version_get_string_full, @function
mbedtls_version_get_string_full:
.LFB13:
	.loc 1 27 1
	.cfi_startproc
	addi	sp,sp,-32
	.cfi_def_cfa_offset 32
	sw	ra,28(sp)
	sw	s0,24(sp)
	.cfi_offset 1, -4
	.cfi_offset 8, -8
	addi	s0,sp,32
	.cfi_def_cfa 8, 0
	sw	a0,-20(s0)
	.loc 1 28 5
	li	a2,15
	lui	a5,%hi(.LC1)
	addi	a1,a5,%lo(.LC1)
	lw	a0,-20(s0)
	call	memcpy
	.loc 1 30 1
	nop
	lw	ra,28(sp)
	.cfi_restore 1
	lw	s0,24(sp)
	.cfi_restore 8
	.cfi_def_cfa 2, 32
	addi	sp,sp,32
	.cfi_def_cfa_offset 0
	jr	ra
	.cfi_endproc
.LFE13:
	.size	mbedtls_version_get_string_full, .-mbedtls_version_get_string_full
	.text
.Letext0:
	.file 2 "/home/chandu/sdk/bl602_iot_sdk/toolchain/compiler/lib/gcc/riscv32-unknown-elf/15.1.0/include/stddef.h"
	.file 3 "/home/chandu/sdk/bl602_iot_sdk/toolchain/compiler/riscv32-unknown-elf/include/string.h"
	.section	.note.GNU-stack,"",@progbits
