	.file	"x509_csr.c"
	.option nopic
	.attribute arch, "rv32i2p1_m2p0_f2p2_c2p0_zicsr2p0_zmmul1p0_zca1p0_zcf1p0"
	.attribute unaligned_access, 0
	.attribute stack_align, 16
	.text
.Ltext0:
	.cfi_sections	.debug_frame
	.file 0 "/home/chandu/sdk/bl602_iot_sdk/customer_app/suas_app_pqkem_gateway/build_out/mbedtls-bl602" "/home/chandu/sdk/bl602_iot_sdk/components/security/mbedtls-bl602/library/x509_csr.c"
	.section	.text.mbedtls_error_add,"ax",@progbits
	.align	1
	.type	mbedtls_error_add, @function
mbedtls_error_add:
.LFB76:
	.file 1 "/home/chandu/sdk/bl602_iot_sdk/components/security/mbedtls-bl602/include/mbedtls/error.h"
	.loc 1 144 1
	.cfi_startproc
	addi	sp,sp,-32
	.cfi_def_cfa_offset 32
	sw	ra,28(sp)
	sw	s0,24(sp)
	.cfi_offset 1, -4
	.cfi_offset 8, -8
	addi	s0,sp,32
	.cfi_def_cfa 8, 0
	sw	a0,-20(s0)
	sw	a1,-24(s0)
	sw	a2,-28(s0)
	sw	a3,-32(s0)
	.loc 1 153 17
	lw	a4,-20(s0)
	lw	a5,-24(s0)
	add	a5,a4,a5
	.loc 1 154 1
	mv	a0,a5
	lw	ra,28(sp)
	.cfi_restore 1
	lw	s0,24(sp)
	.cfi_restore 8
	.cfi_def_cfa 2, 32
	addi	sp,sp,32
	.cfi_def_cfa_offset 0
	jr	ra
	.cfi_endproc
.LFE76:
	.size	mbedtls_error_add, .-mbedtls_error_add
	.section	.rodata
	.align	2
.LC0:
	.string	"/home/chandu/sdk/bl602_iot_sdk/components/security/mbedtls-bl602/library/x509_csr.c"
	.section	.text.x509_csr_get_version,"ax",@progbits
	.align	1
	.type	x509_csr_get_version, @function
x509_csr_get_version:
.LFB80:
	.file 2 "/home/chandu/sdk/bl602_iot_sdk/components/security/mbedtls-bl602/library/x509_csr.c"
	.loc 2 46 1
	.cfi_startproc
	addi	sp,sp,-48
	.cfi_def_cfa_offset 48
	sw	ra,44(sp)
	sw	s0,40(sp)
	.cfi_offset 1, -4
	.cfi_offset 8, -8
	addi	s0,sp,48
	.cfi_def_cfa 8, 0
	sw	a0,-36(s0)
	sw	a1,-40(s0)
	sw	a2,-44(s0)
	.loc 2 47 9
	li	a5,-110
	sw	a5,-20(s0)
	.loc 2 49 16
	lw	a2,-44(s0)
	lw	a1,-40(s0)
	lw	a0,-36(s0)
	call	mbedtls_asn1_get_int
	sw	a0,-20(s0)
	.loc 2 49 8 discriminator 1
	lw	a5,-20(s0)
	beq	a5,zero,.L4
	.loc 2 50 12
	lw	a4,-20(s0)
	li	a5,-98
	bne	a4,a5,.L5
	.loc 2 51 18
	lw	a5,-44(s0)
	sw	zero,0(a5)
	.loc 2 52 20
	li	a5,0
	j	.L6
.L5:
	.loc 2 55 16
	li	a3,55
	lui	a5,%hi(.LC0)
	addi	a2,a5,%lo(.LC0)
	lw	a1,-20(s0)
	li	a5,-8192
	addi	a0,a5,-512
	call	mbedtls_error_add
	mv	a5,a0
	j	.L6
.L4:
	.loc 2 58 12
	li	a5,0
.L6:
	.loc 2 59 1
	mv	a0,a5
	lw	ra,44(sp)
	.cfi_restore 1
	lw	s0,40(sp)
	.cfi_restore 8
	.cfi_def_cfa 2, 48
	addi	sp,sp,48
	.cfi_def_cfa_offset 0
	jr	ra
	.cfi_endproc
.LFE80:
	.size	x509_csr_get_version, .-x509_csr_get_version
	.section	.text.x509_csr_parse_extensions,"ax",@progbits
	.align	1
	.type	x509_csr_parse_extensions, @function
x509_csr_parse_extensions:
.LFB81:
	.loc 2 68 1
	.cfi_startproc
	addi	sp,sp,-96
	.cfi_def_cfa_offset 96
	sw	ra,92(sp)
	sw	s0,88(sp)
	.cfi_offset 1, -4
	.cfi_offset 8, -8
	addi	s0,sp,96
	.cfi_def_cfa 8, 0
	sw	a0,-68(s0)
	sw	a1,-72(s0)
	sw	a2,-76(s0)
	sw	a3,-80(s0)
	sw	a4,-84(s0)
	.loc 2 69 9
	li	a5,-110
	sw	a5,-20(s0)
	.loc 2 73 11
	j	.L8
.L32:
.LBB2:
	.loc 2 74 26
	sw	zero,-44(s0)
	sw	zero,-40(s0)
	sw	zero,-36(s0)
	.loc 2 75 13
	sw	zero,-48(s0)
	.loc 2 76 13
	sw	zero,-52(s0)
	.loc 2 79 20
	addi	a5,s0,-32
	li	a3,48
	mv	a2,a5
	lw	a1,-76(s0)
	lw	a0,-72(s0)
	call	mbedtls_asn1_get_tag
	sw	a0,-20(s0)
	.loc 2 79 12 discriminator 1
	lw	a5,-20(s0)
	beq	a5,zero,.L9
	.loc 2 81 20
	li	a3,81
	lui	a5,%hi(.LC0)
	addi	a2,a5,%lo(.LC0)
	lw	a1,-20(s0)
	li	a5,-8192
	addi	a0,a5,-1280
	call	mbedtls_error_add
	mv	a5,a0
	j	.L34
.L9:
	.loc 2 84 24
	lw	a5,-72(s0)
	lw	a4,0(a5)
	.loc 2 84 27
	lw	a5,-32(s0)
	.loc 2 84 22
	add	a5,a4,a5
	sw	a5,-24(s0)
	.loc 2 87 20
	addi	a5,s0,-44
	addi	a5,a5,4
	li	a3,6
	mv	a2,a5
	lw	a1,-24(s0)
	lw	a0,-72(s0)
	call	mbedtls_asn1_get_tag
	sw	a0,-20(s0)
	.loc 2 87 12 discriminator 1
	lw	a5,-20(s0)
	beq	a5,zero,.L11
	.loc 2 89 20
	li	a3,89
	lui	a5,%hi(.LC0)
	addi	a2,a5,%lo(.LC0)
	lw	a1,-20(s0)
	li	a5,-8192
	addi	a0,a5,-1280
	call	mbedtls_error_add
	mv	a5,a0
	j	.L34
.L11:
	.loc 2 92 22
	li	a5,6
	sw	a5,-44(s0)
	.loc 2 93 22
	lw	a5,-72(s0)
	lw	a5,0(a5)
	.loc 2 93 20
	sw	a5,-36(s0)
	.loc 2 94 9
	lw	a5,-72(s0)
	lw	a4,0(a5)
	.loc 2 94 23
	lw	a5,-40(s0)
	.loc 2 94 12
	add	a4,a4,a5
	lw	a5,-72(s0)
	sw	a4,0(a5)
	.loc 2 97 20
	addi	a5,s0,-48
	mv	a2,a5
	lw	a1,-24(s0)
	lw	a0,-72(s0)
	call	mbedtls_asn1_get_bool
	sw	a0,-20(s0)
	.loc 2 97 12 discriminator 1
	lw	a5,-20(s0)
	beq	a5,zero,.L12
	.loc 2 97 79 discriminator 2
	lw	a4,-20(s0)
	li	a5,-98
	beq	a4,a5,.L12
	.loc 2 99 20
	li	a3,99
	lui	a5,%hi(.LC0)
	addi	a2,a5,%lo(.LC0)
	lw	a1,-20(s0)
	li	a5,-8192
	addi	a0,a5,-1280
	call	mbedtls_error_add
	mv	a5,a0
	j	.L34
.L12:
	.loc 2 103 20
	addi	a5,s0,-32
	li	a3,4
	mv	a2,a5
	lw	a1,-24(s0)
	lw	a0,-72(s0)
	call	mbedtls_asn1_get_tag
	sw	a0,-20(s0)
	.loc 2 103 12 discriminator 1
	lw	a5,-20(s0)
	beq	a5,zero,.L13
	.loc 2 105 20
	li	a3,105
	lui	a5,%hi(.LC0)
	addi	a2,a5,%lo(.LC0)
	lw	a1,-20(s0)
	li	a5,-8192
	addi	a0,a5,-1280
	call	mbedtls_error_add
	mv	a5,a0
	j	.L34
.L13:
	.loc 2 108 25
	lw	a5,-72(s0)
	lw	a4,0(a5)
	.loc 2 108 28
	lw	a5,-32(s0)
	.loc 2 108 23
	add	a5,a4,a5
	sw	a5,-28(s0)
	.loc 2 110 12
	lw	a4,-28(s0)
	lw	a5,-24(s0)
	beq	a4,a5,.L14
	.loc 2 111 20
	li	a3,111
	lui	a5,%hi(.LC0)
	addi	a2,a5,%lo(.LC0)
	li	a1,-102
	li	a5,-8192
	addi	a0,a5,-1280
	call	mbedtls_error_add
	mv	a5,a0
	j	.L34
.L14:
	.loc 2 118 15
	addi	a4,s0,-52
	addi	a5,s0,-44
	mv	a1,a4
	mv	a0,a5
	call	mbedtls_oid_get_x509_ext_type
	sw	a0,-20(s0)
	.loc 2 120 12
	lw	a5,-20(s0)
	beq	a5,zero,.L15
	.loc 2 122 16
	lw	a5,-80(s0)
	beq	a5,zero,.L16
	.loc 2 123 23
	lw	a3,-48(s0)
	lw	a5,-72(s0)
	lw	a4,0(a5)
	addi	a2,s0,-44
	lw	a6,-80(s0)
	lw	a5,-28(s0)
	lw	a1,-68(s0)
	lw	a0,-84(s0)
	jalr	a6
.LVL0:
	sw	a0,-20(s0)
	.loc 2 124 20
	lw	a5,-20(s0)
	beq	a5,zero,.L17
	.loc 2 124 30 discriminator 1
	lw	a5,-48(s0)
	beq	a5,zero,.L17
	.loc 2 125 28
	lw	a5,-20(s0)
	j	.L34
.L17:
	.loc 2 127 20
	lw	a5,-72(s0)
	lw	a4,-28(s0)
	sw	a4,0(a5)
	.loc 2 128 17
	j	.L8
.L16:
	.loc 2 132 16
	lw	a5,-72(s0)
	lw	a4,-28(s0)
	sw	a4,0(a5)
	.loc 2 134 17
	lw	a5,-48(s0)
	.loc 2 134 16
	beq	a5,zero,.L35
	.loc 2 136 24
	li	a3,136
	lui	a5,%hi(.LC0)
	addi	a2,a5,%lo(.LC0)
	li	a1,-98
	li	a5,-8192
	addi	a0,a5,-1280
	call	mbedtls_error_add
	mv	a5,a0
	j	.L34
.L15:
	.loc 2 143 17
	lw	a5,-68(s0)
	lw	a4,104(a5)
	.loc 2 143 29
	lw	a5,-52(s0)
	and	a5,a4,a5
	.loc 2 143 12
	beq	a5,zero,.L20
	.loc 2 144 20
	li	a3,144
	lui	a5,%hi(.LC0)
	addi	a2,a5,%lo(.LC0)
	li	a1,-104
	li	a5,-8192
	addi	a0,a5,-1280
	call	mbedtls_error_add
	mv	a5,a0
	j	.L34
.L20:
	.loc 2 148 12
	lw	a5,-68(s0)
	lw	a4,104(a5)
	.loc 2 148 24
	lw	a5,-52(s0)
	or	a4,a4,a5
	lw	a5,-68(s0)
	sw	a4,104(a5)
	.loc 2 150 9
	lw	a5,-52(s0)
	li	a4,65536
	beq	a5,a4,.L21
	li	a4,65536
	bgt	a5,a4,.L22
	li	a4,4
	beq	a5,a4,.L23
	li	a4,32
	beq	a5,a4,.L24
	j	.L22
.L23:
	.loc 2 153 28
	lw	a5,-68(s0)
	addi	a5,a5,80
	mv	a2,a5
	lw	a1,-24(s0)
	lw	a0,-72(s0)
	call	mbedtls_x509_get_key_usage
	sw	a0,-20(s0)
	.loc 2 153 20 discriminator 1
	lw	a5,-20(s0)
	beq	a5,zero,.L36
	.loc 2 155 28
	lw	a5,-20(s0)
	j	.L34
.L24:
	.loc 2 161 28
	lw	a5,-68(s0)
	addi	a5,a5,88
	mv	a2,a5
	lw	a1,-24(s0)
	lw	a0,-72(s0)
	call	mbedtls_x509_get_subject_alt_name
	sw	a0,-20(s0)
	.loc 2 161 20 discriminator 1
	lw	a5,-20(s0)
	beq	a5,zero,.L37
	.loc 2 163 28
	lw	a5,-20(s0)
	j	.L34
.L21:
	.loc 2 169 28
	lw	a5,-68(s0)
	addi	a5,a5,84
	mv	a2,a5
	lw	a1,-24(s0)
	lw	a0,-72(s0)
	call	mbedtls_x509_get_ns_cert_type
	sw	a0,-20(s0)
	.loc 2 169 20 discriminator 1
	lw	a5,-20(s0)
	beq	a5,zero,.L38
	.loc 2 171 28
	lw	a5,-20(s0)
	j	.L34
.L22:
	.loc 2 180 21
	lw	a5,-48(s0)
	.loc 2 180 20
	beq	a5,zero,.L29
	.loc 2 181 28
	li	a5,-8192
	addi	a5,a5,-128
	j	.L34
.L29:
	.loc 2 183 24
	lw	a5,-72(s0)
	lw	a4,-28(s0)
	sw	a4,0(a5)
	j	.L8
.L35:
	.loc 2 139 13
	nop
	j	.L8
.L36:
	.loc 2 157 17
	nop
	j	.L8
.L37:
	.loc 2 165 17
	nop
	j	.L8
.L38:
	.loc 2 173 17
	nop
.L8:
.LBE2:
	.loc 2 73 12
	lw	a5,-72(s0)
	lw	a5,0(a5)
	.loc 2 73 15
	lw	a4,-76(s0)
	bgtu	a4,a5,.L32
	.loc 2 188 9
	lw	a5,-72(s0)
	lw	a5,0(a5)
	.loc 2 188 8
	lw	a4,-76(s0)
	beq	a4,a5,.L33
	.loc 2 189 16
	li	a3,189
	lui	a5,%hi(.LC0)
	addi	a2,a5,%lo(.LC0)
	li	a1,-102
	li	a5,-8192
	addi	a0,a5,-1280
	call	mbedtls_error_add
	mv	a5,a0
	j	.L34
.L33:
	.loc 2 193 12
	li	a5,0
.L34:
	.loc 2 194 1
	mv	a0,a5
	lw	ra,92(sp)
	.cfi_restore 1
	lw	s0,88(sp)
	.cfi_restore 8
	.cfi_def_cfa 2, 96
	addi	sp,sp,96
	.cfi_def_cfa_offset 0
	jr	ra
	.cfi_endproc
.LFE81:
	.size	x509_csr_parse_extensions, .-x509_csr_parse_extensions
	.section	.rodata
	.align	2
.LC1:
	.base64	"KoZIhvcNAQkOAA=="
	.section	.text.x509_csr_parse_attributes,"ax",@progbits
	.align	1
	.type	x509_csr_parse_attributes, @function
x509_csr_parse_attributes:
.LFB82:
	.loc 2 203 1
	.cfi_startproc
	addi	sp,sp,-80
	.cfi_def_cfa_offset 80
	sw	ra,76(sp)
	sw	s0,72(sp)
	.cfi_offset 1, -4
	.cfi_offset 8, -8
	addi	s0,sp,80
	.cfi_def_cfa 8, 0
	sw	a0,-52(s0)
	sw	a1,-56(s0)
	sw	a2,-60(s0)
	sw	a3,-64(s0)
	sw	a4,-68(s0)
	.loc 2 207 21
	addi	a5,s0,-56
	sw	a5,-20(s0)
	.loc 2 209 11
	j	.L40
.L52:
.LBB3:
	.loc 2 210 26
	sw	zero,-44(s0)
	sw	zero,-40(s0)
	sw	zero,-36(s0)
	.loc 2 212 20
	addi	a5,s0,-32
	li	a3,48
	mv	a2,a5
	lw	a1,-60(s0)
	lw	a0,-20(s0)
	call	mbedtls_asn1_get_tag
	sw	a0,-24(s0)
	.loc 2 212 12 discriminator 1
	lw	a5,-24(s0)
	beq	a5,zero,.L41
	.loc 2 214 20
	li	a3,214
	lui	a5,%hi(.LC0)
	addi	a2,a5,%lo(.LC0)
	lw	a1,-24(s0)
	li	a5,-8192
	addi	a0,a5,-1280
	call	mbedtls_error_add
	mv	a5,a0
	j	.L54
.L41:
	.loc 2 216 25
	lw	a5,-20(s0)
	lw	a4,0(a5)
	.loc 2 216 28
	lw	a5,-32(s0)
	.loc 2 216 23
	add	a5,a4,a5
	sw	a5,-28(s0)
	.loc 2 219 20
	addi	a5,s0,-44
	addi	a5,a5,4
	li	a3,6
	mv	a2,a5
	lw	a1,-28(s0)
	lw	a0,-20(s0)
	call	mbedtls_asn1_get_tag
	sw	a0,-24(s0)
	.loc 2 219 12 discriminator 1
	lw	a5,-24(s0)
	beq	a5,zero,.L43
	.loc 2 221 20
	li	a3,221
	lui	a5,%hi(.LC0)
	addi	a2,a5,%lo(.LC0)
	lw	a1,-24(s0)
	li	a5,-8192
	addi	a0,a5,-1280
	call	mbedtls_error_add
	mv	a5,a0
	j	.L54
.L43:
	.loc 2 224 22
	li	a5,6
	sw	a5,-44(s0)
	.loc 2 225 22
	lw	a5,-20(s0)
	lw	a5,0(a5)
	.loc 2 225 20
	sw	a5,-36(s0)
	.loc 2 226 9
	lw	a5,-20(s0)
	lw	a4,0(a5)
	.loc 2 226 23
	lw	a5,-40(s0)
	.loc 2 226 12
	add	a4,a4,a5
	lw	a5,-20(s0)
	sw	a4,0(a5)
	.loc 2 229 97
	lw	a4,-40(s0)
	.loc 2 229 104
	li	a5,9
	bne	a4,a5,.L44
	.loc 2 229 182 discriminator 2
	lw	a5,-36(s0)
	.loc 2 229 107 discriminator 2
	lw	a4,-40(s0)
	mv	a2,a4
	mv	a1,a5
	lui	a5,%hi(.LC1)
	addi	a0,a5,%lo(.LC1)
	call	memcmp
	mv	a5,a0
	.loc 2 229 104 discriminator 3
	beq	a5,zero,.L45
.L44:
	.loc 2 229 104 is_stmt 0 discriminator 4
	li	a5,1
	.loc 2 229 104
	j	.L46
.L45:
	.loc 2 229 104 discriminator 5
	li	a5,0
.L46:
	.loc 2 229 12 is_stmt 1 discriminator 7
	bne	a5,zero,.L47
	.loc 2 230 24
	addi	a5,s0,-32
	li	a3,49
	mv	a2,a5
	lw	a1,-60(s0)
	lw	a0,-20(s0)
	call	mbedtls_asn1_get_tag
	sw	a0,-24(s0)
	.loc 2 230 16 discriminator 1
	lw	a5,-24(s0)
	beq	a5,zero,.L48
	.loc 2 232 24
	li	a3,232
	lui	a5,%hi(.LC0)
	addi	a2,a5,%lo(.LC0)
	lw	a1,-24(s0)
	li	a5,-8192
	addi	a0,a5,-1280
	call	mbedtls_error_add
	mv	a5,a0
	j	.L54
.L48:
	.loc 2 235 24
	addi	a5,s0,-32
	li	a3,48
	mv	a2,a5
	lw	a1,-60(s0)
	lw	a0,-20(s0)
	call	mbedtls_asn1_get_tag
	sw	a0,-24(s0)
	.loc 2 235 16 discriminator 1
	lw	a5,-24(s0)
	beq	a5,zero,.L49
	.loc 2 238 24
	li	a3,238
	lui	a5,%hi(.LC0)
	addi	a2,a5,%lo(.LC0)
	lw	a1,-24(s0)
	li	a5,-8192
	addi	a0,a5,-1280
	call	mbedtls_error_add
	mv	a5,a0
	j	.L54
.L49:
	.loc 2 241 58
	lw	a5,-20(s0)
	lw	a4,0(a5)
	.loc 2 241 24
	lw	a5,-32(s0)
	.loc 2 241 61
	add	a5,a4,a5
	.loc 2 241 24
	lw	a4,-68(s0)
	lw	a3,-64(s0)
	mv	a2,a5
	lw	a1,-20(s0)
	lw	a0,-52(s0)
	call	x509_csr_parse_extensions
	sw	a0,-24(s0)
	.loc 2 241 16 discriminator 1
	lw	a5,-24(s0)
	beq	a5,zero,.L50
	.loc 2 242 24
	lw	a5,-24(s0)
	j	.L54
.L50:
	.loc 2 245 17
	lw	a5,-20(s0)
	lw	a5,0(a5)
	.loc 2 245 16
	lw	a4,-28(s0)
	beq	a4,a5,.L47
	.loc 2 246 24
	li	a3,246
	lui	a5,%hi(.LC0)
	addi	a2,a5,%lo(.LC0)
	li	a1,-102
	li	a5,-8192
	addi	a0,a5,-1280
	call	mbedtls_error_add
	mv	a5,a0
	j	.L54
.L47:
	.loc 2 251 12
	lw	a5,-20(s0)
	lw	a4,-28(s0)
	sw	a4,0(a5)
.L40:
.LBE3:
	.loc 2 209 12
	lw	a5,-20(s0)
	lw	a5,0(a5)
	.loc 2 209 15
	lw	a4,-60(s0)
	bgtu	a4,a5,.L52
	.loc 2 254 9
	lw	a5,-20(s0)
	lw	a5,0(a5)
	.loc 2 254 8
	lw	a4,-60(s0)
	beq	a4,a5,.L53
	.loc 2 255 16
	li	a3,255
	lui	a5,%hi(.LC0)
	addi	a2,a5,%lo(.LC0)
	li	a1,-102
	li	a5,-8192
	addi	a0,a5,-1280
	call	mbedtls_error_add
	mv	a5,a0
	j	.L54
.L53:
	.loc 2 259 12
	li	a5,0
.L54:
	.loc 2 260 1
	mv	a0,a5
	lw	ra,76(sp)
	.cfi_restore 1
	lw	s0,72(sp)
	.cfi_restore 8
	.cfi_def_cfa 2, 80
	addi	sp,sp,80
	.cfi_def_cfa_offset 0
	jr	ra
	.cfi_endproc
.LFE82:
	.size	x509_csr_parse_attributes, .-x509_csr_parse_attributes
	.section	.text.mbedtls_x509_csr_parse_der_internal,"ax",@progbits
	.align	1
	.type	mbedtls_x509_csr_parse_der_internal, @function
mbedtls_x509_csr_parse_der_internal:
.LFB83:
	.loc 2 269 1
	.cfi_startproc
	addi	sp,sp,-80
	.cfi_def_cfa_offset 80
	sw	ra,76(sp)
	sw	s0,72(sp)
	.cfi_offset 1, -4
	.cfi_offset 8, -8
	addi	s0,sp,80
	.cfi_def_cfa 8, 0
	sw	a0,-52(s0)
	sw	a1,-56(s0)
	sw	a2,-60(s0)
	sw	a3,-64(s0)
	sw	a4,-68(s0)
	.loc 2 270 9
	li	a5,-110
	sw	a5,-20(s0)
	.loc 2 275 5
	addi	a5,s0,-44
	li	a2,12
	li	a1,0
	mv	a0,a5
	call	memset
	.loc 2 280 8
	lw	a5,-52(s0)
	beq	a5,zero,.L56
	.loc 2 280 20 discriminator 1
	lw	a5,-56(s0)
	beq	a5,zero,.L56
	.loc 2 280 35 discriminator 2
	lw	a5,-60(s0)
	bne	a5,zero,.L57
.L56:
	.loc 2 281 16
	li	a5,-8192
	addi	a5,a5,-2048
	j	.L74
.L57:
	.loc 2 284 5
	lw	a0,-52(s0)
	call	mbedtls_x509_csr_init
	.loc 2 289 9
	lw	a5,-60(s0)
	sw	a5,-28(s0)
	lw	a5,-28(s0)
	mv	a1,a5
	li	a0,1
	call	calloc
	mv	a5,a0
	.loc 2 289 7 discriminator 1
	sw	a5,-32(s0)
	.loc 2 291 11
	lw	a5,-32(s0)
	.loc 2 291 8
	bne	a5,zero,.L59
	.loc 2 292 16
	li	a5,-12288
	addi	a5,a5,1920
	j	.L74
.L59:
	.loc 2 295 5
	lw	a5,-32(s0)
	lw	a2,-60(s0)
	lw	a1,-56(s0)
	mv	a0,a5
	call	memcpy
	.loc 2 297 16
	lw	a4,-32(s0)
	lw	a5,-52(s0)
	sw	a4,8(a5)
	.loc 2 298 18
	lw	a4,-28(s0)
	lw	a5,-52(s0)
	sw	a4,4(a5)
	.loc 2 299 13
	lw	a4,-32(s0)
	lw	a5,-28(s0)
	.loc 2 299 9
	add	a5,a4,a5
	sw	a5,-24(s0)
	.loc 2 308 16
	addi	a4,s0,-28
	addi	a5,s0,-32
	li	a3,48
	mv	a2,a4
	lw	a1,-24(s0)
	mv	a0,a5
	call	mbedtls_asn1_get_tag
	sw	a0,-20(s0)
	.loc 2 308 8 discriminator 1
	lw	a5,-20(s0)
	beq	a5,zero,.L60
	.loc 2 310 9
	lw	a0,-52(s0)
	call	mbedtls_x509_csr_free
	.loc 2 311 16
	li	a5,-8192
	addi	a5,a5,-384
	j	.L74
.L60:
	.loc 2 314 30
	lw	a5,-32(s0)
	lw	a4,-24(s0)
	sub	a5,a4,a5
	.loc 2 314 16
	mv	a4,a5
	.loc 2 314 13
	lw	a5,-28(s0)
	.loc 2 314 8
	beq	a4,a5,.L61
	.loc 2 315 9
	lw	a0,-52(s0)
	call	mbedtls_x509_csr_free
	.loc 2 316 16
	li	a3,316
	lui	a5,%hi(.LC0)
	addi	a2,a5,%lo(.LC0)
	li	a1,-102
	li	a5,-8192
	addi	a0,a5,-384
	call	mbedtls_error_add
	mv	a5,a0
	j	.L74
.L61:
	.loc 2 323 16
	lw	a4,-32(s0)
	lw	a5,-52(s0)
	sw	a4,20(a5)
	.loc 2 325 16
	addi	a4,s0,-28
	addi	a5,s0,-32
	li	a3,48
	mv	a2,a4
	lw	a1,-24(s0)
	mv	a0,a5
	call	mbedtls_asn1_get_tag
	sw	a0,-20(s0)
	.loc 2 325 8 discriminator 1
	lw	a5,-20(s0)
	beq	a5,zero,.L62
	.loc 2 327 9
	lw	a0,-52(s0)
	call	mbedtls_x509_csr_free
	.loc 2 328 16
	li	a3,328
	lui	a5,%hi(.LC0)
	addi	a2,a5,%lo(.LC0)
	lw	a1,-20(s0)
	li	a5,-8192
	addi	a0,a5,-384
	call	mbedtls_error_add
	mv	a5,a0
	j	.L74
.L62:
	.loc 2 331 13
	lw	a4,-32(s0)
	lw	a5,-28(s0)
	.loc 2 331 9
	add	a5,a4,a5
	sw	a5,-24(s0)
	.loc 2 332 44
	lw	a5,-52(s0)
	lw	a5,20(a5)
	.loc 2 332 34
	lw	a4,-24(s0)
	sub	a5,a4,a5
	.loc 2 332 20
	mv	a4,a5
	.loc 2 332 18
	lw	a5,-52(s0)
	sw	a4,16(a5)
	.loc 2 337 16
	lw	a5,-52(s0)
	addi	a4,a5,24
	addi	a5,s0,-32
	mv	a2,a4
	lw	a1,-24(s0)
	mv	a0,a5
	call	x509_csr_get_version
	sw	a0,-20(s0)
	.loc 2 337 8 discriminator 1
	lw	a5,-20(s0)
	beq	a5,zero,.L63
	.loc 2 338 9
	lw	a0,-52(s0)
	call	mbedtls_x509_csr_free
	.loc 2 339 16
	lw	a5,-20(s0)
	j	.L74
.L63:
	.loc 2 342 12
	lw	a5,-52(s0)
	lw	a5,24(a5)
	.loc 2 342 8
	beq	a5,zero,.L64
	.loc 2 343 9
	lw	a0,-52(s0)
	call	mbedtls_x509_csr_free
	.loc 2 344 16
	li	a5,-8192
	addi	a5,a5,-1408
	j	.L74
.L64:
	.loc 2 347 8
	lw	a5,-52(s0)
	lw	a5,24(a5)
	.loc 2 347 17
	addi	a4,a5,1
	lw	a5,-52(s0)
	sw	a4,24(a5)
	.loc 2 352 24
	lw	a4,-32(s0)
	lw	a5,-52(s0)
	sw	a4,36(a5)
	.loc 2 354 16
	addi	a4,s0,-28
	addi	a5,s0,-32
	li	a3,48
	mv	a2,a4
	lw	a1,-24(s0)
	mv	a0,a5
	call	mbedtls_asn1_get_tag
	sw	a0,-20(s0)
	.loc 2 354 8 discriminator 1
	lw	a5,-20(s0)
	beq	a5,zero,.L65
	.loc 2 356 9
	lw	a0,-52(s0)
	call	mbedtls_x509_csr_free
	.loc 2 357 16
	li	a3,357
	lui	a5,%hi(.LC0)
	addi	a2,a5,%lo(.LC0)
	lw	a1,-20(s0)
	li	a5,-8192
	addi	a0,a5,-384
	call	mbedtls_error_add
	mv	a5,a0
	j	.L74
.L65:
	.loc 2 360 16
	lw	a4,-32(s0)
	lw	a5,-28(s0)
	.loc 2 360 44
	add	a4,a4,a5
	.loc 2 360 16
	lw	a5,-52(s0)
	addi	a3,a5,40
	addi	a5,s0,-32
	mv	a2,a3
	mv	a1,a4
	mv	a0,a5
	call	mbedtls_x509_get_name
	sw	a0,-20(s0)
	.loc 2 360 8 discriminator 1
	lw	a5,-20(s0)
	beq	a5,zero,.L66
	.loc 2 361 9
	lw	a0,-52(s0)
	call	mbedtls_x509_csr_free
	.loc 2 362 16
	lw	a5,-20(s0)
	j	.L74
.L66:
	.loc 2 365 40
	lw	a4,-32(s0)
	.loc 2 365 58
	lw	a5,-52(s0)
	lw	a5,36(a5)
	.loc 2 365 40
	sub	a5,a4,a5
	.loc 2 365 28
	mv	a4,a5
	.loc 2 365 26
	lw	a5,-52(s0)
	sw	a4,32(a5)
	.loc 2 370 16
	lw	a5,-52(s0)
	addi	a4,a5,72
	addi	a5,s0,-32
	mv	a2,a4
	lw	a1,-24(s0)
	mv	a0,a5
	call	mbedtls_pk_parse_subpubkey
	sw	a0,-20(s0)
	.loc 2 370 8 discriminator 1
	lw	a5,-20(s0)
	beq	a5,zero,.L67
	.loc 2 371 9
	lw	a0,-52(s0)
	call	mbedtls_x509_csr_free
	.loc 2 372 16
	lw	a5,-20(s0)
	j	.L74
.L67:
	.loc 2 385 16
	addi	a4,s0,-28
	addi	a5,s0,-32
	li	a3,160
	mv	a2,a4
	lw	a1,-24(s0)
	mv	a0,a5
	call	mbedtls_asn1_get_tag
	sw	a0,-20(s0)
	.loc 2 385 8 discriminator 1
	lw	a5,-20(s0)
	beq	a5,zero,.L68
	.loc 2 388 9
	lw	a0,-52(s0)
	call	mbedtls_x509_csr_free
	.loc 2 389 16
	li	a3,389
	lui	a5,%hi(.LC0)
	addi	a2,a5,%lo(.LC0)
	lw	a1,-20(s0)
	li	a5,-8192
	addi	a0,a5,-384
	call	mbedtls_error_add
	mv	a5,a0
	j	.L74
.L68:
	.loc 2 392 16
	lw	a1,-32(s0)
	lw	a4,-32(s0)
	lw	a5,-28(s0)
	.loc 2 392 52
	add	a5,a4,a5
	.loc 2 392 16
	lw	a4,-68(s0)
	lw	a3,-64(s0)
	mv	a2,a5
	lw	a0,-52(s0)
	call	x509_csr_parse_attributes
	sw	a0,-20(s0)
	.loc 2 392 8 discriminator 1
	lw	a5,-20(s0)
	beq	a5,zero,.L69
	.loc 2 393 9
	lw	a0,-52(s0)
	call	mbedtls_x509_csr_free
	.loc 2 394 16
	lw	a5,-20(s0)
	j	.L74
.L69:
	.loc 2 397 7
	lw	a4,-32(s0)
	lw	a5,-28(s0)
	add	a5,a4,a5
	sw	a5,-32(s0)
	.loc 2 399 19
	lw	a5,-52(s0)
	lw	a4,8(a5)
	.loc 2 399 32
	lw	a5,-52(s0)
	lw	a5,4(a5)
	.loc 2 399 9
	add	a5,a4,a5
	sw	a5,-24(s0)
	.loc 2 405 16
	lw	a5,-52(s0)
	addi	a4,a5,108
	addi	a3,s0,-44
	addi	a5,s0,-32
	mv	a2,a4
	lw	a1,-24(s0)
	mv	a0,a5
	call	mbedtls_x509_get_alg
	sw	a0,-20(s0)
	.loc 2 405 8 discriminator 1
	lw	a5,-20(s0)
	beq	a5,zero,.L70
	.loc 2 406 9
	lw	a0,-52(s0)
	call	mbedtls_x509_csr_free
	.loc 2 407 16
	lw	a5,-20(s0)
	j	.L74
.L70:
	.loc 2 410 41
	lw	a5,-52(s0)
	addi	a0,a5,108
	.loc 2 410 16
	lw	a5,-52(s0)
	addi	a2,a5,132
	lw	a5,-52(s0)
	addi	a3,a5,133
	lw	a5,-52(s0)
	addi	a4,a5,136
	addi	a5,s0,-44
	mv	a1,a5
	call	mbedtls_x509_get_sig_alg
	sw	a0,-20(s0)
	.loc 2 410 8 discriminator 1
	lw	a5,-20(s0)
	beq	a5,zero,.L71
	.loc 2 413 9
	lw	a0,-52(s0)
	call	mbedtls_x509_csr_free
	.loc 2 414 16
	li	a5,-8192
	addi	a5,a5,-1536
	j	.L74
.L71:
	.loc 2 417 16
	lw	a5,-52(s0)
	addi	a4,a5,120
	addi	a5,s0,-32
	mv	a2,a4
	lw	a1,-24(s0)
	mv	a0,a5
	call	mbedtls_x509_get_sig
	sw	a0,-20(s0)
	.loc 2 417 8 discriminator 1
	lw	a5,-20(s0)
	beq	a5,zero,.L72
	.loc 2 418 9
	lw	a0,-52(s0)
	call	mbedtls_x509_csr_free
	.loc 2 419 16
	lw	a5,-20(s0)
	j	.L74
.L72:
	.loc 2 422 11
	lw	a5,-32(s0)
	.loc 2 422 8
	lw	a4,-24(s0)
	beq	a4,a5,.L73
	.loc 2 423 9
	lw	a0,-52(s0)
	call	mbedtls_x509_csr_free
	.loc 2 424 16
	li	a3,424
	lui	a5,%hi(.LC0)
	addi	a2,a5,%lo(.LC0)
	li	a1,-102
	li	a5,-8192
	addi	a0,a5,-384
	call	mbedtls_error_add
	mv	a5,a0
	j	.L74
.L73:
	.loc 2 428 12
	li	a5,0
.L74:
	.loc 2 429 1
	mv	a0,a5
	lw	ra,76(sp)
	.cfi_restore 1
	lw	s0,72(sp)
	.cfi_restore 8
	.cfi_def_cfa 2, 80
	addi	sp,sp,80
	.cfi_def_cfa_offset 0
	jr	ra
	.cfi_endproc
.LFE83:
	.size	mbedtls_x509_csr_parse_der_internal, .-mbedtls_x509_csr_parse_der_internal
	.section	.text.mbedtls_x509_csr_parse_der,"ax",@progbits
	.align	1
	.globl	mbedtls_x509_csr_parse_der
	.type	mbedtls_x509_csr_parse_der, @function
mbedtls_x509_csr_parse_der:
.LFB84:
	.loc 2 436 1
	.cfi_startproc
	addi	sp,sp,-32
	.cfi_def_cfa_offset 32
	sw	ra,28(sp)
	sw	s0,24(sp)
	.cfi_offset 1, -4
	.cfi_offset 8, -8
	addi	s0,sp,32
	.cfi_def_cfa 8, 0
	sw	a0,-20(s0)
	sw	a1,-24(s0)
	sw	a2,-28(s0)
	.loc 2 437 12
	li	a4,0
	li	a3,0
	lw	a2,-28(s0)
	lw	a1,-24(s0)
	lw	a0,-20(s0)
	call	mbedtls_x509_csr_parse_der_internal
	mv	a5,a0
	.loc 2 438 1
	mv	a0,a5
	lw	ra,28(sp)
	.cfi_restore 1
	lw	s0,24(sp)
	.cfi_restore 8
	.cfi_def_cfa 2, 32
	addi	sp,sp,32
	.cfi_def_cfa_offset 0
	jr	ra
	.cfi_endproc
.LFE84:
	.size	mbedtls_x509_csr_parse_der, .-mbedtls_x509_csr_parse_der
	.section	.text.mbedtls_x509_csr_parse_der_with_ext_cb,"ax",@progbits
	.align	1
	.globl	mbedtls_x509_csr_parse_der_with_ext_cb
	.type	mbedtls_x509_csr_parse_der_with_ext_cb, @function
mbedtls_x509_csr_parse_der_with_ext_cb:
.LFB85:
	.loc 2 447 1
	.cfi_startproc
	addi	sp,sp,-48
	.cfi_def_cfa_offset 48
	sw	ra,44(sp)
	sw	s0,40(sp)
	.cfi_offset 1, -4
	.cfi_offset 8, -8
	addi	s0,sp,48
	.cfi_def_cfa 8, 0
	sw	a0,-20(s0)
	sw	a1,-24(s0)
	sw	a2,-28(s0)
	sw	a3,-32(s0)
	sw	a4,-36(s0)
	.loc 2 448 12
	lw	a4,-36(s0)
	lw	a3,-32(s0)
	lw	a2,-28(s0)
	lw	a1,-24(s0)
	lw	a0,-20(s0)
	call	mbedtls_x509_csr_parse_der_internal
	mv	a5,a0
	.loc 2 449 1
	mv	a0,a5
	lw	ra,44(sp)
	.cfi_restore 1
	lw	s0,40(sp)
	.cfi_restore 8
	.cfi_def_cfa 2, 48
	addi	sp,sp,48
	.cfi_def_cfa_offset 0
	jr	ra
	.cfi_endproc
.LFE85:
	.size	mbedtls_x509_csr_parse_der_with_ext_cb, .-mbedtls_x509_csr_parse_der_with_ext_cb
	.section	.text.mbedtls_x509_csr_parse,"ax",@progbits
	.align	1
	.globl	mbedtls_x509_csr_parse
	.type	mbedtls_x509_csr_parse, @function
mbedtls_x509_csr_parse:
.LFB86:
	.loc 2 455 1
	.cfi_startproc
	addi	sp,sp,-32
	.cfi_def_cfa_offset 32
	sw	ra,28(sp)
	sw	s0,24(sp)
	.cfi_offset 1, -4
	.cfi_offset 8, -8
	addi	s0,sp,32
	.cfi_def_cfa 8, 0
	sw	a0,-20(s0)
	sw	a1,-24(s0)
	sw	a2,-28(s0)
	.loc 2 465 8
	lw	a5,-20(s0)
	beq	a5,zero,.L80
	.loc 2 465 20 discriminator 1
	lw	a5,-24(s0)
	beq	a5,zero,.L80
	.loc 2 465 35 discriminator 2
	lw	a5,-28(s0)
	bne	a5,zero,.L81
.L80:
	.loc 2 466 16
	li	a5,-8192
	addi	a5,a5,-2048
	j	.L82
.L81:
	.loc 2 497 12
	lw	a2,-28(s0)
	lw	a1,-24(s0)
	lw	a0,-20(s0)
	call	mbedtls_x509_csr_parse_der
	mv	a5,a0
.L82:
	.loc 2 498 1
	mv	a0,a5
	lw	ra,28(sp)
	.cfi_restore 1
	lw	s0,24(sp)
	.cfi_restore 8
	.cfi_def_cfa 2, 32
	addi	sp,sp,32
	.cfi_def_cfa_offset 0
	jr	ra
	.cfi_endproc
.LFE86:
	.size	mbedtls_x509_csr_parse, .-mbedtls_x509_csr_parse
	.section	.rodata
	.align	2
.LC2:
	.string	"%sCSR version   : %d"
	.align	2
.LC3:
	.string	"\n%ssubject name  : "
	.align	2
.LC4:
	.string	"\n%ssigned using  : "
	.align	2
.LC5:
	.string	"\n%s%-14s: %d bits\n"
	.align	2
.LC6:
	.string	"\n%ssubject alt name  :"
	.align	2
.LC7:
	.string	"\n%scert. type        : "
	.align	2
.LC8:
	.string	"\n%skey usage         : "
	.align	2
.LC9:
	.string	"\n"
	.section	.text.mbedtls_x509_csr_info,"ax",@progbits
	.align	1
	.globl	mbedtls_x509_csr_info
	.type	mbedtls_x509_csr_info, @function
mbedtls_x509_csr_info:
.LFB87:
	.loc 2 530 1
	.cfi_startproc
	addi	sp,sp,-64
	.cfi_def_cfa_offset 64
	sw	ra,60(sp)
	sw	s0,56(sp)
	sw	s1,52(sp)
	sw	s2,48(sp)
	.cfi_offset 1, -4
	.cfi_offset 8, -8
	.cfi_offset 9, -12
	.cfi_offset 18, -16
	addi	s0,sp,64
	.cfi_def_cfa 8, 0
	sw	a0,-52(s0)
	sw	a1,-56(s0)
	sw	a2,-60(s0)
	sw	a3,-64(s0)
	.loc 2 531 9
	li	a5,-110
	sw	a5,-20(s0)
	.loc 2 536 7
	lw	a5,-52(s0)
	sw	a5,-28(s0)
	.loc 2 537 7
	lw	a5,-56(s0)
	sw	a5,-24(s0)
	.loc 2 539 11
	lw	a0,-28(s0)
	lw	a1,-24(s0)
	.loc 2 540 39
	lw	a5,-64(s0)
	lw	a5,24(a5)
	.loc 2 539 11
	mv	a4,a5
	lw	a3,-60(s0)
	lui	a5,%hi(.LC2)
	addi	a2,a5,%lo(.LC2)
	call	snprintf
	sw	a0,-20(s0)
	.loc 2 541 13
	lw	a5,-20(s0)
	blt	a5,zero,.L84
	.loc 2 541 25 discriminator 2
	lw	a4,-20(s0)
	.loc 2 541 38 discriminator 2
	lw	a5,-24(s0)
	.loc 2 541 22 discriminator 2
	bltu	a4,a5,.L85
.L84:
	.loc 2 541 51 discriminator 3
	li	a5,-12288
	addi	a5,a5,1664
	.loc 2 541 51 is_stmt 0
	j	.L110
.L85:
	.loc 2 541 62 is_stmt 1 discriminator 4
	lw	a4,-24(s0)
	.loc 2 541 65 discriminator 4
	lw	a5,-20(s0)
	.loc 2 541 62 discriminator 4
	sub	a5,a4,a5
	sw	a5,-24(s0)
	.loc 2 541 81 discriminator 4
	lw	a4,-28(s0)
	.loc 2 541 84 discriminator 4
	lw	a5,-20(s0)
	.loc 2 541 81 discriminator 4
	add	a5,a4,a5
	sw	a5,-28(s0)
	.loc 2 543 11
	lw	a4,-28(s0)
	lw	a1,-24(s0)
	lw	a3,-60(s0)
	lui	a5,%hi(.LC3)
	addi	a2,a5,%lo(.LC3)
	mv	a0,a4
	call	snprintf
	sw	a0,-20(s0)
	.loc 2 544 13
	lw	a5,-20(s0)
	blt	a5,zero,.L87
	.loc 2 544 25 discriminator 2
	lw	a4,-20(s0)
	.loc 2 544 38 discriminator 2
	lw	a5,-24(s0)
	.loc 2 544 22 discriminator 2
	bltu	a4,a5,.L88
.L87:
	.loc 2 544 51 discriminator 3
	li	a5,-12288
	addi	a5,a5,1664
	.loc 2 544 51 is_stmt 0
	j	.L110
.L88:
	.loc 2 544 62 is_stmt 1 discriminator 4
	lw	a4,-24(s0)
	.loc 2 544 65 discriminator 4
	lw	a5,-20(s0)
	.loc 2 544 62 discriminator 4
	sub	a5,a4,a5
	sw	a5,-24(s0)
	.loc 2 544 81 discriminator 4
	lw	a4,-28(s0)
	.loc 2 544 84 discriminator 4
	lw	a5,-20(s0)
	.loc 2 544 81 discriminator 4
	add	a5,a4,a5
	sw	a5,-28(s0)
	.loc 2 545 11
	lw	a4,-28(s0)
	lw	a3,-24(s0)
	lw	a5,-64(s0)
	addi	a5,a5,40
	mv	a2,a5
	mv	a1,a3
	mv	a0,a4
	call	mbedtls_x509_dn_gets
	sw	a0,-20(s0)
	.loc 2 546 13
	lw	a5,-20(s0)
	blt	a5,zero,.L89
	.loc 2 546 25 discriminator 2
	lw	a4,-20(s0)
	.loc 2 546 38 discriminator 2
	lw	a5,-24(s0)
	.loc 2 546 22 discriminator 2
	bltu	a4,a5,.L90
.L89:
	.loc 2 546 51 discriminator 3
	li	a5,-12288
	addi	a5,a5,1664
	.loc 2 546 51 is_stmt 0
	j	.L110
.L90:
	.loc 2 546 62 is_stmt 1 discriminator 4
	lw	a4,-24(s0)
	.loc 2 546 65 discriminator 4
	lw	a5,-20(s0)
	.loc 2 546 62 discriminator 4
	sub	a5,a4,a5
	sw	a5,-24(s0)
	.loc 2 546 81 discriminator 4
	lw	a4,-28(s0)
	.loc 2 546 84 discriminator 4
	lw	a5,-20(s0)
	.loc 2 546 81 discriminator 4
	add	a5,a4,a5
	sw	a5,-28(s0)
	.loc 2 548 11
	lw	a4,-28(s0)
	lw	a1,-24(s0)
	lw	a3,-60(s0)
	lui	a5,%hi(.LC4)
	addi	a2,a5,%lo(.LC4)
	mv	a0,a4
	call	snprintf
	sw	a0,-20(s0)
	.loc 2 549 13
	lw	a5,-20(s0)
	blt	a5,zero,.L91
	.loc 2 549 25 discriminator 2
	lw	a4,-20(s0)
	.loc 2 549 38 discriminator 2
	lw	a5,-24(s0)
	.loc 2 549 22 discriminator 2
	bltu	a4,a5,.L92
.L91:
	.loc 2 549 51 discriminator 3
	li	a5,-12288
	addi	a5,a5,1664
	.loc 2 549 51 is_stmt 0
	j	.L110
.L92:
	.loc 2 549 62 is_stmt 1 discriminator 4
	lw	a4,-24(s0)
	.loc 2 549 65 discriminator 4
	lw	a5,-20(s0)
	.loc 2 549 62 discriminator 4
	sub	a5,a4,a5
	sw	a5,-24(s0)
	.loc 2 549 81 discriminator 4
	lw	a4,-28(s0)
	.loc 2 549 84 discriminator 4
	lw	a5,-20(s0)
	.loc 2 549 81 discriminator 4
	add	a5,a4,a5
	sw	a5,-28(s0)
	.loc 2 551 11
	lw	a0,-28(s0)
	lw	a1,-24(s0)
	lw	a5,-64(s0)
	addi	a2,a5,108
	.loc 2 551 61
	lw	a5,-64(s0)
	lbu	a3,133(a5)
	.loc 2 551 74
	lw	a5,-64(s0)
	lbu	a4,132(a5)
	.loc 2 552 40
	lw	a5,-64(s0)
	lw	a5,136(a5)
	.loc 2 551 11
	call	mbedtls_x509_sig_alg_gets
	sw	a0,-20(s0)
	.loc 2 553 13
	lw	a5,-20(s0)
	blt	a5,zero,.L93
	.loc 2 553 25 discriminator 2
	lw	a4,-20(s0)
	.loc 2 553 38 discriminator 2
	lw	a5,-24(s0)
	.loc 2 553 22 discriminator 2
	bltu	a4,a5,.L94
.L93:
	.loc 2 553 51 discriminator 3
	li	a5,-12288
	addi	a5,a5,1664
	.loc 2 553 51 is_stmt 0
	j	.L110
.L94:
	.loc 2 553 62 is_stmt 1 discriminator 4
	lw	a4,-24(s0)
	.loc 2 553 65 discriminator 4
	lw	a5,-20(s0)
	.loc 2 553 62 discriminator 4
	sub	a5,a4,a5
	sw	a5,-24(s0)
	.loc 2 553 81 discriminator 4
	lw	a4,-28(s0)
	.loc 2 553 84 discriminator 4
	lw	a5,-20(s0)
	.loc 2 553 81 discriminator 4
	add	a5,a4,a5
	sw	a5,-28(s0)
	.loc 2 555 16
	lw	a5,-64(s0)
	addi	a5,a5,72
	mv	a0,a5
	call	mbedtls_pk_get_name
	mv	a4,a0
	.loc 2 555 16 is_stmt 0 discriminator 1
	addi	a5,s0,-44
	mv	a2,a4
	li	a1,14
	mv	a0,a5
	call	mbedtls_x509_key_size_helper
	sw	a0,-20(s0)
	.loc 2 555 8 is_stmt 1 discriminator 2
	lw	a5,-20(s0)
	beq	a5,zero,.L95
	.loc 2 557 16
	lw	a5,-20(s0)
	j	.L110
.L95:
	.loc 2 560 11
	lw	s1,-28(s0)
	lw	s2,-24(s0)
	.loc 2 561 34
	lw	a5,-64(s0)
	addi	a5,a5,72
	mv	a0,a5
	call	mbedtls_pk_get_bitlen
	mv	a5,a0
	.loc 2 560 11
	addi	a4,s0,-44
	lw	a3,-60(s0)
	lui	a2,%hi(.LC5)
	addi	a2,a2,%lo(.LC5)
	mv	a1,s2
	mv	a0,s1
	call	snprintf
	sw	a0,-20(s0)
	.loc 2 562 13
	lw	a5,-20(s0)
	blt	a5,zero,.L96
	.loc 2 562 25 discriminator 2
	lw	a4,-20(s0)
	.loc 2 562 38 discriminator 2
	lw	a5,-24(s0)
	.loc 2 562 22 discriminator 2
	bltu	a4,a5,.L97
.L96:
	.loc 2 562 51 discriminator 3
	li	a5,-12288
	addi	a5,a5,1664
	.loc 2 562 51 is_stmt 0
	j	.L110
.L97:
	.loc 2 562 62 is_stmt 1 discriminator 4
	lw	a4,-24(s0)
	.loc 2 562 65 discriminator 4
	lw	a5,-20(s0)
	.loc 2 562 62 discriminator 4
	sub	a5,a4,a5
	sw	a5,-24(s0)
	.loc 2 562 81 discriminator 4
	lw	a4,-28(s0)
	.loc 2 562 84 discriminator 4
	lw	a5,-20(s0)
	.loc 2 562 81 discriminator 4
	add	a5,a4,a5
	sw	a5,-28(s0)
	.loc 2 568 12
	lw	a5,-64(s0)
	lw	a5,104(a5)
	.loc 2 568 24
	andi	a5,a5,32
	.loc 2 568 8
	beq	a5,zero,.L98
	.loc 2 569 15
	lw	a4,-28(s0)
	lw	a1,-24(s0)
	lw	a3,-60(s0)
	lui	a5,%hi(.LC6)
	addi	a2,a5,%lo(.LC6)
	mv	a0,a4
	call	snprintf
	sw	a0,-20(s0)
	.loc 2 570 17
	lw	a5,-20(s0)
	blt	a5,zero,.L99
	.loc 2 570 29 discriminator 2
	lw	a4,-20(s0)
	.loc 2 570 42 discriminator 2
	lw	a5,-24(s0)
	.loc 2 570 26 discriminator 2
	bltu	a4,a5,.L100
.L99:
	.loc 2 570 55 discriminator 3
	li	a5,-12288
	addi	a5,a5,1664
	.loc 2 570 55 is_stmt 0
	j	.L110
.L100:
	.loc 2 570 66 is_stmt 1 discriminator 4
	lw	a4,-24(s0)
	.loc 2 570 69 discriminator 4
	lw	a5,-20(s0)
	.loc 2 570 66 discriminator 4
	sub	a5,a4,a5
	sw	a5,-24(s0)
	.loc 2 570 85 discriminator 4
	lw	a4,-28(s0)
	.loc 2 570 88 discriminator 4
	lw	a5,-20(s0)
	.loc 2 570 85 discriminator 4
	add	a5,a4,a5
	sw	a5,-28(s0)
	.loc 2 572 20
	lw	a5,-64(s0)
	addi	a2,a5,88
	addi	a4,s0,-24
	addi	a5,s0,-28
	lw	a3,-60(s0)
	mv	a1,a4
	mv	a0,a5
	call	mbedtls_x509_info_subject_alt_name
	sw	a0,-20(s0)
	.loc 2 572 12 discriminator 1
	lw	a5,-20(s0)
	beq	a5,zero,.L98
	.loc 2 575 20
	lw	a5,-20(s0)
	j	.L110
.L98:
	.loc 2 579 12
	lw	a5,-64(s0)
	lw	a4,104(a5)
	.loc 2 579 24
	li	a5,65536
	and	a5,a4,a5
	.loc 2 579 8
	beq	a5,zero,.L101
	.loc 2 580 15
	lw	a4,-28(s0)
	lw	a1,-24(s0)
	lw	a3,-60(s0)
	lui	a5,%hi(.LC7)
	addi	a2,a5,%lo(.LC7)
	mv	a0,a4
	call	snprintf
	sw	a0,-20(s0)
	.loc 2 581 17
	lw	a5,-20(s0)
	blt	a5,zero,.L102
	.loc 2 581 29 discriminator 2
	lw	a4,-20(s0)
	.loc 2 581 42 discriminator 2
	lw	a5,-24(s0)
	.loc 2 581 26 discriminator 2
	bltu	a4,a5,.L103
.L102:
	.loc 2 581 55 discriminator 3
	li	a5,-12288
	addi	a5,a5,1664
	.loc 2 581 55 is_stmt 0
	j	.L110
.L103:
	.loc 2 581 66 is_stmt 1 discriminator 4
	lw	a4,-24(s0)
	.loc 2 581 69 discriminator 4
	lw	a5,-20(s0)
	.loc 2 581 66 discriminator 4
	sub	a5,a4,a5
	sw	a5,-24(s0)
	.loc 2 581 85 discriminator 4
	lw	a4,-28(s0)
	.loc 2 581 88 discriminator 4
	lw	a5,-20(s0)
	.loc 2 581 85 discriminator 4
	add	a5,a4,a5
	sw	a5,-28(s0)
	.loc 2 583 59
	lw	a5,-64(s0)
	lbu	a3,84(a5)
	.loc 2 583 20
	addi	a4,s0,-24
	addi	a5,s0,-28
	mv	a2,a3
	mv	a1,a4
	mv	a0,a5
	call	mbedtls_x509_info_cert_type
	sw	a0,-20(s0)
	.loc 2 583 12 discriminator 1
	lw	a5,-20(s0)
	beq	a5,zero,.L101
	.loc 2 584 20
	lw	a5,-20(s0)
	j	.L110
.L101:
	.loc 2 588 12
	lw	a5,-64(s0)
	lw	a5,104(a5)
	.loc 2 588 24
	andi	a5,a5,4
	.loc 2 588 8
	beq	a5,zero,.L104
	.loc 2 589 15
	lw	a4,-28(s0)
	lw	a1,-24(s0)
	lw	a3,-60(s0)
	lui	a5,%hi(.LC8)
	addi	a2,a5,%lo(.LC8)
	mv	a0,a4
	call	snprintf
	sw	a0,-20(s0)
	.loc 2 590 17
	lw	a5,-20(s0)
	blt	a5,zero,.L105
	.loc 2 590 29 discriminator 2
	lw	a4,-20(s0)
	.loc 2 590 42 discriminator 2
	lw	a5,-24(s0)
	.loc 2 590 26 discriminator 2
	bltu	a4,a5,.L106
.L105:
	.loc 2 590 55 discriminator 3
	li	a5,-12288
	addi	a5,a5,1664
	.loc 2 590 55 is_stmt 0
	j	.L110
.L106:
	.loc 2 590 66 is_stmt 1 discriminator 4
	lw	a4,-24(s0)
	.loc 2 590 69 discriminator 4
	lw	a5,-20(s0)
	.loc 2 590 66 discriminator 4
	sub	a5,a4,a5
	sw	a5,-24(s0)
	.loc 2 590 85 discriminator 4
	lw	a4,-28(s0)
	.loc 2 590 88 discriminator 4
	lw	a5,-20(s0)
	.loc 2 590 85 discriminator 4
	add	a5,a4,a5
	sw	a5,-28(s0)
	.loc 2 592 59
	lw	a5,-64(s0)
	lw	a3,80(a5)
	.loc 2 592 20
	addi	a4,s0,-24
	addi	a5,s0,-28
	mv	a2,a3
	mv	a1,a4
	mv	a0,a5
	call	mbedtls_x509_info_key_usage
	sw	a0,-20(s0)
	.loc 2 592 12 discriminator 1
	lw	a5,-20(s0)
	beq	a5,zero,.L104
	.loc 2 593 20
	lw	a5,-20(s0)
	j	.L110
.L104:
	.loc 2 597 12
	lw	a5,-64(s0)
	lw	a5,104(a5)
	.loc 2 597 8
	beq	a5,zero,.L107
	.loc 2 598 15
	lw	a4,-28(s0)
	lw	a3,-24(s0)
	lui	a5,%hi(.LC9)
	addi	a2,a5,%lo(.LC9)
	mv	a1,a3
	mv	a0,a4
	call	snprintf
	sw	a0,-20(s0)
	.loc 2 599 17
	lw	a5,-20(s0)
	blt	a5,zero,.L108
	.loc 2 599 29 discriminator 2
	lw	a4,-20(s0)
	.loc 2 599 42 discriminator 2
	lw	a5,-24(s0)
	.loc 2 599 26 discriminator 2
	bltu	a4,a5,.L109
.L108:
	.loc 2 599 55 discriminator 3
	li	a5,-12288
	addi	a5,a5,1664
	.loc 2 599 55 is_stmt 0
	j	.L110
.L109:
	.loc 2 599 66 is_stmt 1 discriminator 4
	lw	a4,-24(s0)
	.loc 2 599 69 discriminator 4
	lw	a5,-20(s0)
	.loc 2 599 66 discriminator 4
	sub	a5,a4,a5
	sw	a5,-24(s0)
	.loc 2 599 85 discriminator 4
	lw	a4,-28(s0)
	.loc 2 599 88 discriminator 4
	lw	a5,-20(s0)
	.loc 2 599 85 discriminator 4
	add	a5,a4,a5
	sw	a5,-28(s0)
.L107:
	.loc 2 602 24
	lw	a5,-24(s0)
	lw	a4,-56(s0)
	sub	a5,a4,a5
.L110:
	.loc 2 603 1
	mv	a0,a5
	lw	ra,60(sp)
	.cfi_restore 1
	lw	s0,56(sp)
	.cfi_restore 8
	.cfi_def_cfa 2, 64
	lw	s1,52(sp)
	.cfi_restore 9
	lw	s2,48(sp)
	.cfi_restore 18
	addi	sp,sp,64
	.cfi_def_cfa_offset 0
	jr	ra
	.cfi_endproc
.LFE87:
	.size	mbedtls_x509_csr_info, .-mbedtls_x509_csr_info
	.section	.text.mbedtls_x509_csr_init,"ax",@progbits
	.align	1
	.globl	mbedtls_x509_csr_init
	.type	mbedtls_x509_csr_init, @function
mbedtls_x509_csr_init:
.LFB88:
	.loc 2 610 1
	.cfi_startproc
	addi	sp,sp,-32
	.cfi_def_cfa_offset 32
	sw	ra,28(sp)
	sw	s0,24(sp)
	.cfi_offset 1, -4
	.cfi_offset 8, -8
	addi	s0,sp,32
	.cfi_def_cfa 8, 0
	sw	a0,-20(s0)
	.loc 2 611 5
	li	a2,140
	li	a1,0
	lw	a0,-20(s0)
	call	memset
	.loc 2 612 1
	nop
	lw	ra,28(sp)
	.cfi_restore 1
	lw	s0,24(sp)
	.cfi_restore 8
	.cfi_def_cfa 2, 32
	addi	sp,sp,32
	.cfi_def_cfa_offset 0
	jr	ra
	.cfi_endproc
.LFE88:
	.size	mbedtls_x509_csr_init, .-mbedtls_x509_csr_init
	.section	.text.mbedtls_x509_csr_free,"ax",@progbits
	.align	1
	.globl	mbedtls_x509_csr_free
	.type	mbedtls_x509_csr_free, @function
mbedtls_x509_csr_free:
.LFB89:
	.loc 2 618 1
	.cfi_startproc
	addi	sp,sp,-32
	.cfi_def_cfa_offset 32
	sw	ra,28(sp)
	sw	s0,24(sp)
	.cfi_offset 1, -4
	.cfi_offset 8, -8
	addi	s0,sp,32
	.cfi_def_cfa 8, 0
	sw	a0,-20(s0)
	.loc 2 619 8
	lw	a5,-20(s0)
	beq	a5,zero,.L116
	.loc 2 623 5
	lw	a5,-20(s0)
	addi	a5,a5,72
	mv	a0,a5
	call	mbedtls_pk_free
	.loc 2 629 59
	lw	a5,-20(s0)
	lw	a5,64(a5)
	.loc 2 629 5
	mv	a0,a5
	call	mbedtls_asn1_free_named_data_list_shallow
	.loc 2 630 54
	lw	a5,-20(s0)
	lw	a5,100(a5)
	.loc 2 630 5
	mv	a0,a5
	call	mbedtls_asn1_sequence_free
	.loc 2 632 17
	lw	a5,-20(s0)
	lw	a5,8(a5)
	.loc 2 632 8
	beq	a5,zero,.L115
	.loc 2 633 42
	lw	a5,-20(s0)
	lw	a4,8(a5)
	.loc 2 633 9
	lw	a5,-20(s0)
	lw	a5,4(a5)
	mv	a1,a5
	mv	a0,a4
	call	mbedtls_zeroize_and_free
.L115:
	.loc 2 636 5
	li	a1,140
	lw	a0,-20(s0)
	call	mbedtls_platform_zeroize
	j	.L112
.L116:
	.loc 2 620 9
	nop
.L112:
	.loc 2 637 1
	lw	ra,28(sp)
	.cfi_restore 1
	lw	s0,24(sp)
	.cfi_restore 8
	.cfi_def_cfa 2, 32
	addi	sp,sp,32
	.cfi_def_cfa_offset 0
	jr	ra
	.cfi_endproc
.LFE89:
	.size	mbedtls_x509_csr_free, .-mbedtls_x509_csr_free
	.text
.Letext0:
	.file 3 "/home/chandu/sdk/bl602_iot_sdk/components/security/mbedtls-bl602/include/mbedtls/asn1.h"
	.file 4 "/home/chandu/sdk/bl602_iot_sdk/toolchain/compiler/lib/gcc/riscv32-unknown-elf/15.1.0/include/stddef.h"
	.file 5 "/home/chandu/sdk/bl602_iot_sdk/components/security/mbedtls-bl602/include/mbedtls/md.h"
	.file 6 "/home/chandu/sdk/bl602_iot_sdk/components/security/mbedtls-bl602/include/mbedtls/pk.h"
	.file 7 "/home/chandu/sdk/bl602_iot_sdk/components/security/mbedtls-bl602/include/mbedtls/x509.h"
	.file 8 "/home/chandu/sdk/bl602_iot_sdk/components/security/mbedtls-bl602/include/mbedtls/x509_csr.h"
	.file 9 "/home/chandu/sdk/bl602_iot_sdk/components/security/mbedtls-bl602/include/mbedtls/platform_util.h"
	.file 10 "/home/chandu/sdk/bl602_iot_sdk/components/security/mbedtls-bl602/library/common.h"
	.file 11 "/home/chandu/sdk/bl602_iot_sdk/components/security/mbedtls-bl602/library/x509_internal.h"
	.file 12 "/home/chandu/sdk/bl602_iot_sdk/toolchain/compiler/riscv32-unknown-elf/include/stdio.h"
	.file 13 "/home/chandu/sdk/bl602_iot_sdk/toolchain/compiler/riscv32-unknown-elf/include/string.h"
	.file 14 "/home/chandu/sdk/bl602_iot_sdk/toolchain/compiler/riscv32-unknown-elf/include/stdlib.h"
	.file 15 "/home/chandu/sdk/bl602_iot_sdk/components/security/mbedtls-bl602/include/mbedtls/oid.h"
	.section	.note.GNU-stack,"",@progbits
