	.file	"bl602_adc.c"
	.option nopic
	.attribute arch, "rv32i2p1_m2p0_f2p2_c2p0_zicsr2p0_zmmul1p0_zca1p0_zcf1p0"
	.attribute unaligned_access, 0
	.attribute stack_align, 16
	.text
.Ltext0:
	.cfi_sections	.debug_frame
	.file 0 "/home/chandu/sdk/bl602_iot_sdk/customer_app/suas_app_pqkem_gateway/build_out/bl602_std" "/home/chandu/sdk/bl602_iot_sdk/components/bl602/bl602_std/bl602_std/StdDriver/Src/bl602_adc.c"
	.section	.bss.adcIntCbfArra,"aw",@nobits
	.align	2
	.type	adcIntCbfArra, @object
	.size	adcIntCbfArra, 20
adcIntCbfArra:
	.zero	20
	.section	.sdata.adcGainCoeffCal,"aw"
	.align	2
	.type	adcGainCoeffCal, @object
	.size	adcGainCoeffCal, 8
adcGainCoeffCal:
	.byte	0
	.zero	1
	.half	0
	.word	1065353216
	.section	.text.ADC_Reset,"ax",@progbits
	.align	1
	.globl	ADC_Reset
	.type	ADC_Reset, @function
ADC_Reset:
.LFB8:
	.file 1 "/home/chandu/sdk/bl602_iot_sdk/components/bl602/bl602_std/bl602_std/StdDriver/Src/bl602_adc.c"
	.loc 1 107 1
	.cfi_startproc
	addi	sp,sp,-32
	.cfi_def_cfa_offset 32
	sw	ra,28(sp)
	sw	s0,24(sp)
	.cfi_offset 1, -4
	.cfi_offset 8, -8
	addi	s0,sp,32
	.cfi_def_cfa 8, 0
	.loc 1 111 13
	li	a5,1073807360
	addi	a5,a5,-1780
	.loc 1 111 11
	lw	a5,0(a5)
	sw	a5,-20(s0)
	.loc 1 112 7
	li	a5,1073807360
	addi	a5,a5,-1780
	.loc 1 112 74
	lw	a4,-20(s0)
	ori	a4,a4,4
	.loc 1 112 61
	sw	a4,0(a5)
	.loc 1 113 6
 #APP
# 113 "/home/chandu/sdk/bl602_iot_sdk/components/bl602/bl602_std/bl602_std/StdDriver/Src/bl602_adc.c" 1
	nop
# 0 "" 2
	.loc 1 113 29
# 113 "/home/chandu/sdk/bl602_iot_sdk/components/bl602/bl602_std/bl602_std/StdDriver/Src/bl602_adc.c" 1
	nop
# 0 "" 2
	.loc 1 113 52
# 113 "/home/chandu/sdk/bl602_iot_sdk/components/bl602/bl602_std/bl602_std/StdDriver/Src/bl602_adc.c" 1
	nop
# 0 "" 2
	.loc 1 113 75
# 113 "/home/chandu/sdk/bl602_iot_sdk/components/bl602/bl602_std/bl602_std/StdDriver/Src/bl602_adc.c" 1
	nop
# 0 "" 2
	.loc 1 113 98
# 113 "/home/chandu/sdk/bl602_iot_sdk/components/bl602/bl602_std/bl602_std/StdDriver/Src/bl602_adc.c" 1
	nop
# 0 "" 2
	.loc 1 113 121
# 113 "/home/chandu/sdk/bl602_iot_sdk/components/bl602/bl602_std/bl602_std/StdDriver/Src/bl602_adc.c" 1
	nop
# 0 "" 2
	.loc 1 113 144
# 113 "/home/chandu/sdk/bl602_iot_sdk/components/bl602/bl602_std/bl602_std/StdDriver/Src/bl602_adc.c" 1
	nop
# 0 "" 2
	.loc 1 113 167
# 113 "/home/chandu/sdk/bl602_iot_sdk/components/bl602/bl602_std/bl602_std/StdDriver/Src/bl602_adc.c" 1
	nop
# 0 "" 2
	.loc 1 114 7
 #NO_APP
	li	a5,1073807360
	addi	a5,a5,-1780
	.loc 1 114 74
	lw	a4,-20(s0)
	andi	a4,a4,-5
	.loc 1 114 61
	sw	a4,0(a5)
	.loc 1 115 1
	nop
	lw	ra,28(sp)
	.cfi_restore 1
	lw	s0,24(sp)
	.cfi_restore 8
	.cfi_def_cfa 2, 32
	addi	sp,sp,32
	.cfi_def_cfa_offset 0
	jr	ra
	.cfi_endproc
.LFE8:
	.size	ADC_Reset, .-ADC_Reset
	.section	.text.ADC_Enable,"ax",@progbits
	.align	1
	.globl	ADC_Enable
	.type	ADC_Enable, @function
ADC_Enable:
.LFB9:
	.loc 1 126 1
	.cfi_startproc
	addi	sp,sp,-32
	.cfi_def_cfa_offset 32
	sw	ra,28(sp)
	sw	s0,24(sp)
	.cfi_offset 1, -4
	.cfi_offset 8, -8
	addi	s0,sp,32
	.cfi_def_cfa 8, 0
	.loc 1 129 13
	li	a5,1073807360
	addi	a5,a5,-1780
	.loc 1 129 11
	lw	a5,0(a5)
	sw	a5,-20(s0)
	.loc 1 130 11
	lw	a5,-20(s0)
	ori	a5,a5,1
	sw	a5,-20(s0)
	.loc 1 131 7
	li	a5,1073807360
	addi	a5,a5,-1780
	.loc 1 131 61
	lw	a4,-20(s0)
	sw	a4,0(a5)
	.loc 1 132 1
	nop
	lw	ra,28(sp)
	.cfi_restore 1
	lw	s0,24(sp)
	.cfi_restore 8
	.cfi_def_cfa 2, 32
	addi	sp,sp,32
	.cfi_def_cfa_offset 0
	jr	ra
	.cfi_endproc
.LFE9:
	.size	ADC_Enable, .-ADC_Enable
	.section	.text.ADC_Disable,"ax",@progbits
	.align	1
	.globl	ADC_Disable
	.type	ADC_Disable, @function
ADC_Disable:
.LFB10:
	.loc 1 143 1
	.cfi_startproc
	addi	sp,sp,-32
	.cfi_def_cfa_offset 32
	sw	ra,28(sp)
	sw	s0,24(sp)
	.cfi_offset 1, -4
	.cfi_offset 8, -8
	addi	s0,sp,32
	.cfi_def_cfa 8, 0
	.loc 1 146 13
	li	a5,1073807360
	addi	a5,a5,-1780
	.loc 1 146 11
	lw	a5,0(a5)
	sw	a5,-20(s0)
	.loc 1 147 11
	lw	a5,-20(s0)
	andi	a5,a5,-2
	sw	a5,-20(s0)
	.loc 1 148 7
	li	a5,1073807360
	addi	a5,a5,-1780
	.loc 1 148 61
	lw	a4,-20(s0)
	sw	a4,0(a5)
	.loc 1 149 1
	nop
	lw	ra,28(sp)
	.cfi_restore 1
	lw	s0,24(sp)
	.cfi_restore 8
	.cfi_def_cfa 2, 32
	addi	sp,sp,32
	.cfi_def_cfa_offset 0
	jr	ra
	.cfi_endproc
.LFE10:
	.size	ADC_Disable, .-ADC_Disable
	.section	.text.ADC_Init,"ax",@progbits
	.align	1
	.globl	ADC_Init
	.type	ADC_Init, @function
ADC_Init:
.LFB11:
	.loc 1 161 1
	.cfi_startproc
	addi	sp,sp,-48
	.cfi_def_cfa_offset 48
	sw	ra,44(sp)
	sw	s0,40(sp)
	.cfi_offset 1, -4
	.cfi_offset 8, -8
	addi	s0,sp,48
	.cfi_def_cfa 8, 0
	sw	a0,-36(s0)
	.loc 1 179 14
	li	a5,1073807360
	addi	a5,a5,-1776
	.loc 1 179 12
	lw	a5,0(a5)
	sw	a5,-24(s0)
	.loc 1 180 25
	lw	a4,-24(s0)
	li	a5,-1610612736
	addi	a5,a5,-1
	and	a4,a4,a5
	.loc 1 180 71
	lw	a5,-36(s0)
	lbu	a5,0(a5)
	.loc 1 180 80
	slli	a5,a5,29
	.loc 1 180 12
	or	a5,a4,a5
	sw	a5,-24(s0)
	.loc 1 181 25
	lw	a4,-24(s0)
	li	a5,-402653184
	addi	a5,a5,-1
	and	a4,a4,a5
	.loc 1 181 71
	lw	a5,-36(s0)
	lbu	a5,1(a5)
	.loc 1 181 80
	slli	a5,a5,27
	.loc 1 181 12
	or	a5,a4,a5
	sw	a5,-24(s0)
	.loc 1 182 12
	lw	a4,-24(s0)
	li	a5,-67108864
	addi	a5,a5,-1
	and	a5,a4,a5
	sw	a5,-24(s0)
	.loc 1 183 12
	lw	a4,-24(s0)
	li	a5,-33554432
	addi	a5,a5,-1
	and	a5,a4,a5
	sw	a5,-24(s0)
	.loc 1 184 12
	lw	a4,-24(s0)
	li	a5,-31457280
	addi	a5,a5,-1
	and	a5,a4,a5
	sw	a5,-24(s0)
	.loc 1 185 25
	lw	a4,-24(s0)
	li	a5,-1835008
	addi	a5,a5,-1
	and	a4,a4,a5
	.loc 1 185 71
	lw	a5,-36(s0)
	lbu	a5,2(a5)
	.loc 1 185 80
	slli	a5,a5,18
	.loc 1 185 12
	or	a5,a4,a5
	sw	a5,-24(s0)
	.loc 1 186 12
	lw	a4,-24(s0)
	li	a5,-131072
	addi	a5,a5,-1
	and	a5,a4,a5
	sw	a5,-24(s0)
	.loc 1 187 25
	lw	a5,-24(s0)
	andi	a5,a5,-2
	.loc 1 187 70
	lw	a4,-36(s0)
	lbu	a4,11(a4)
	.loc 1 187 12
	or	a5,a5,a4
	sw	a5,-24(s0)
	.loc 1 188 25
	lw	a5,-24(s0)
	andi	a4,a5,-29
	.loc 1 188 70
	lw	a5,-36(s0)
	lbu	a5,10(a5)
	.loc 1 188 81
	slli	a5,a5,2
	.loc 1 188 12
	or	a5,a4,a5
	sw	a5,-24(s0)
	.loc 1 189 7
	li	a5,1073807360
	addi	a5,a5,-1776
	.loc 1 189 61
	lw	a4,-24(s0)
	sw	a4,0(a5)
	.loc 1 190 6
 #APP
# 190 "/home/chandu/sdk/bl602_iot_sdk/components/bl602/bl602_std/bl602_std/StdDriver/Src/bl602_adc.c" 1
	nop
# 0 "" 2
	.loc 1 190 29
# 190 "/home/chandu/sdk/bl602_iot_sdk/components/bl602/bl602_std/bl602_std/StdDriver/Src/bl602_adc.c" 1
	nop
# 0 "" 2
	.loc 1 190 52
# 190 "/home/chandu/sdk/bl602_iot_sdk/components/bl602/bl602_std/bl602_std/StdDriver/Src/bl602_adc.c" 1
	nop
# 0 "" 2
	.loc 1 190 75
# 190 "/home/chandu/sdk/bl602_iot_sdk/components/bl602/bl602_std/bl602_std/StdDriver/Src/bl602_adc.c" 1
	nop
# 0 "" 2
	.loc 1 190 98
# 190 "/home/chandu/sdk/bl602_iot_sdk/components/bl602/bl602_std/bl602_std/StdDriver/Src/bl602_adc.c" 1
	nop
# 0 "" 2
	.loc 1 190 121
# 190 "/home/chandu/sdk/bl602_iot_sdk/components/bl602/bl602_std/bl602_std/StdDriver/Src/bl602_adc.c" 1
	nop
# 0 "" 2
	.loc 1 190 144
# 190 "/home/chandu/sdk/bl602_iot_sdk/components/bl602/bl602_std/bl602_std/StdDriver/Src/bl602_adc.c" 1
	nop
# 0 "" 2
	.loc 1 190 167
# 190 "/home/chandu/sdk/bl602_iot_sdk/components/bl602/bl602_std/bl602_std/StdDriver/Src/bl602_adc.c" 1
	nop
# 0 "" 2
	.loc 1 193 14
 #NO_APP
	li	a5,1073807360
	addi	a5,a5,-1772
	.loc 1 193 12
	lw	a5,0(a5)
	sw	a5,-20(s0)
	.loc 1 194 12
	lw	a4,-20(s0)
	li	a5,-1879048192
	addi	a5,a5,-1
	and	a5,a4,a5
	sw	a5,-20(s0)
	.loc 1 195 25
	lw	a4,-20(s0)
	li	a5,-234881024
	addi	a5,a5,-1
	and	a4,a4,a5
	.loc 1 195 71
	lw	a5,-36(s0)
	lbu	a5,3(a5)
	.loc 1 195 79
	slli	a5,a5,25
	.loc 1 195 12
	or	a5,a4,a5
	sw	a5,-20(s0)
	.loc 1 196 25
	lw	a4,-20(s0)
	li	a5,-29360128
	addi	a5,a5,-1
	and	a4,a4,a5
	.loc 1 196 71
	lw	a5,-36(s0)
	lbu	a5,4(a5)
	.loc 1 196 79
	slli	a5,a5,22
	.loc 1 196 12
	or	a5,a4,a5
	sw	a5,-20(s0)
	.loc 1 197 25
	lw	a4,-20(s0)
	li	a5,-131072
	addi	a5,a5,-1
	and	a4,a4,a5
	.loc 1 197 71
	lw	a5,-36(s0)
	lbu	a5,6(a5)
	.loc 1 197 81
	slli	a5,a5,17
	.loc 1 197 12
	or	a5,a4,a5
	sw	a5,-20(s0)
	.loc 1 200 12
	lw	a5,-36(s0)
	lbu	a5,3(a5)
	.loc 1 200 7
	bne	a5,zero,.L5
	.loc 1 200 45 discriminator 1
	lw	a5,-36(s0)
	lbu	a5,4(a5)
	.loc 1 200 39 discriminator 1
	beq	a5,zero,.L6
.L5:
	.loc 1 201 29
	lw	a4,-20(s0)
	li	a5,-98304
	addi	a5,a5,-1
	and	a4,a4,a5
	.loc 1 201 16
	li	a5,65536
	or	a5,a4,a5
	sw	a5,-20(s0)
	j	.L7
.L6:
	.loc 1 203 29
	lw	a4,-20(s0)
	li	a5,-98304
	addi	a5,a5,-1
	and	a4,a4,a5
	.loc 1 203 16
	li	a5,32768
	or	a5,a4,a5
	sw	a5,-20(s0)
.L7:
	.loc 1 206 12
	lw	a4,-20(s0)
	li	a5,-16384
	addi	a5,a5,-1
	and	a5,a4,a5
	sw	a5,-20(s0)
	.loc 1 207 12
	lw	a5,-36(s0)
	lbu	a5,3(a5)
	.loc 1 207 7
	bne	a5,zero,.L8
	.loc 1 207 45 discriminator 1
	lw	a5,-36(s0)
	lbu	a5,4(a5)
	.loc 1 207 39 discriminator 1
	beq	a5,zero,.L9
.L8:
	.loc 1 208 16
	lw	a4,-20(s0)
	li	a5,8192
	or	a5,a4,a5
	sw	a5,-20(s0)
	j	.L10
.L9:
	.loc 1 210 16
	lw	a4,-20(s0)
	li	a5,-8192
	addi	a5,a5,-1
	and	a5,a4,a5
	sw	a5,-20(s0)
.L10:
	.loc 1 213 25
	lw	a4,-20(s0)
	li	a5,-8192
	addi	a5,a5,511
	and	a4,a4,a5
	.loc 1 213 12
	li	a5,4096
	or	a5,a4,a5
	sw	a5,-20(s0)
	.loc 1 214 25
	lw	a5,-20(s0)
	andi	a4,a5,-385
	.loc 1 214 70
	lw	a5,-36(s0)
	lbu	a5,7(a5)
	.loc 1 214 76
	slli	a5,a5,7
	.loc 1 214 12
	or	a5,a4,a5
	sw	a5,-20(s0)
	.loc 1 215 25
	lw	a5,-20(s0)
	andi	a4,a5,-9
	.loc 1 215 70
	lw	a5,-36(s0)
	lbu	a5,8(a5)
	.loc 1 215 77
	slli	a5,a5,3
	.loc 1 215 12
	or	a5,a4,a5
	sw	a5,-20(s0)
	.loc 1 216 25
	lw	a5,-20(s0)
	andi	a4,a5,-5
	.loc 1 216 70
	lw	a5,-36(s0)
	lbu	a5,9(a5)
	.loc 1 216 82
	slli	a5,a5,2
	.loc 1 216 12
	or	a5,a4,a5
	sw	a5,-20(s0)
	.loc 1 218 7
	li	a5,1073807360
	addi	a5,a5,-1772
	.loc 1 218 61
	lw	a4,-20(s0)
	sw	a4,0(a5)
	.loc 1 221 15
	li	a5,1073807360
	addi	a5,a5,-1736
	.loc 1 221 13
	lw	a5,0(a5)
	sw	a5,-28(s0)
	.loc 1 222 27
	lw	a4,-28(s0)
	li	a5,-65536
	and	a5,a4,a5
	.loc 1 222 73
	lw	a4,-36(s0)
	lh	a4,12(a4)
	.loc 1 222 13
	or	a5,a5,a4
	sw	a5,-28(s0)
	.loc 1 223 7
	li	a5,1073807360
	addi	a5,a5,-1736
	.loc 1 223 61
	lw	a4,-28(s0)
	sw	a4,0(a5)
	.loc 1 229 5
	call	ADC_Gain_Trim
	.loc 1 230 1
	nop
	lw	ra,44(sp)
	.cfi_restore 1
	lw	s0,40(sp)
	.cfi_restore 8
	.cfi_def_cfa 2, 48
	addi	sp,sp,48
	.cfi_def_cfa_offset 0
	jr	ra
	.cfi_endproc
.LFE11:
	.size	ADC_Init, .-ADC_Init
	.section	.text.ADC_Channel_Config,"ax",@progbits
	.align	1
	.globl	ADC_Channel_Config
	.type	ADC_Channel_Config, @function
ADC_Channel_Config:
.LFB12:
	.loc 1 243 1
	.cfi_startproc
	addi	sp,sp,-48
	.cfi_def_cfa_offset 48
	sw	ra,44(sp)
	sw	s0,40(sp)
	.cfi_offset 1, -4
	.cfi_offset 8, -8
	addi	s0,sp,48
	.cfi_def_cfa 8, 0
	mv	a5,a0
	mv	a3,a1
	mv	a4,a2
	sb	a5,-33(s0)
	mv	a5,a3
	sb	a5,-34(s0)
	mv	a5,a4
	sb	a5,-35(s0)
	.loc 1 251 13
	li	a5,1073807360
	addi	a5,a5,-1780
	.loc 1 251 11
	lw	a5,0(a5)
	sw	a5,-20(s0)
	.loc 1 252 23
	lw	a4,-20(s0)
	li	a5,-8192
	addi	a5,a5,255
	and	a4,a4,a5
	.loc 1 252 54
	lbu	a5,-33(s0)
	.loc 1 252 71
	slli	a5,a5,8
	.loc 1 252 11
	or	a5,a4,a5
	sw	a5,-20(s0)
	.loc 1 253 23
	lw	a5,-20(s0)
	andi	a4,a5,-249
	.loc 1 253 54
	lbu	a5,-34(s0)
	.loc 1 253 71
	slli	a5,a5,3
	.loc 1 253 11
	or	a5,a4,a5
	sw	a5,-20(s0)
	.loc 1 254 7
	li	a5,1073807360
	addi	a5,a5,-1780
	.loc 1 254 61
	lw	a4,-20(s0)
	sw	a4,0(a5)
	.loc 1 257 14
	li	a5,1073807360
	addi	a5,a5,-1776
	.loc 1 257 12
	lw	a5,0(a5)
	sw	a5,-24(s0)
	.loc 1 258 25
	lw	a5,-24(s0)
	andi	a4,a5,-3
	.loc 1 258 56
	lbu	a5,-35(s0)
	.loc 1 258 74
	slli	a5,a5,1
	.loc 1 258 12
	or	a5,a4,a5
	sw	a5,-24(s0)
	.loc 1 259 12
	lw	a4,-24(s0)
	li	a5,-33554432
	addi	a5,a5,-1
	and	a5,a4,a5
	sw	a5,-24(s0)
	.loc 1 260 7
	li	a5,1073807360
	addi	a5,a5,-1776
	.loc 1 260 61
	lw	a4,-24(s0)
	sw	a4,0(a5)
	.loc 1 262 1
	nop
	lw	ra,44(sp)
	.cfi_restore 1
	lw	s0,40(sp)
	.cfi_restore 8
	.cfi_def_cfa 2, 48
	addi	sp,sp,48
	.cfi_def_cfa_offset 0
	jr	ra
	.cfi_endproc
.LFE12:
	.size	ADC_Channel_Config, .-ADC_Channel_Config
	.section	.text.ADC_Scan_Channel_Config,"ax",@progbits
	.align	1
	.globl	ADC_Scan_Channel_Config
	.type	ADC_Scan_Channel_Config, @function
ADC_Scan_Channel_Config:
.LFB13:
	.loc 1 276 1
	.cfi_startproc
	addi	sp,sp,-48
	.cfi_def_cfa_offset 48
	sw	ra,44(sp)
	sw	s0,40(sp)
	.cfi_offset 1, -4
	.cfi_offset 8, -8
	addi	s0,sp,48
	.cfi_def_cfa 8, 0
	sw	a0,-36(s0)
	sw	a1,-40(s0)
	mv	a5,a2
	mv	a4,a3
	sb	a5,-41(s0)
	mv	a5,a4
	sb	a5,-42(s0)
	.loc 1 283 12
	li	a5,6
	sw	a5,-28(s0)
	.loc 1 284 18
	lbu	a5,-41(s0)
	.loc 1 284 7
	lw	a4,-28(s0)
	bleu	a4,a5,.L13
	.loc 1 285 16
	lbu	a5,-41(s0)
	sw	a5,-28(s0)
.L13:
	.loc 1 288 13
	li	a5,1073807360
	addi	a5,a5,-1768
	.loc 1 288 11
	lw	a5,0(a5)
	sw	a5,-20(s0)
	.loc 1 289 10
	sw	zero,-24(s0)
	.loc 1 289 5
	j	.L14
.L15:
	.loc 1 290 34
	lw	a4,-24(s0)
	mv	a5,a4
	slli	a5,a5,2
	add	a5,a5,a4
	.loc 1 290 30
	li	a4,31
	sll	a5,a4,a5
	.loc 1 290 24
	not	a5,a5
	mv	a4,a5
	.loc 1 290 15
	lw	a5,-20(s0)
	and	a5,a5,a4
	sw	a5,-20(s0)
	.loc 1 291 27
	lw	a4,-36(s0)
	lw	a5,-24(s0)
	add	a5,a4,a5
	lbu	a5,0(a5)
	mv	a3,a5
	.loc 1 291 34
	lw	a4,-24(s0)
	mv	a5,a4
	slli	a5,a5,2
	add	a5,a5,a4
	.loc 1 291 30
	sll	a5,a3,a5
	mv	a4,a5
	.loc 1 291 15
	lw	a5,-20(s0)
	or	a5,a5,a4
	sw	a5,-20(s0)
	.loc 1 289 24 discriminator 3
	lw	a5,-24(s0)
	addi	a5,a5,1
	sw	a5,-24(s0)
.L14:
	.loc 1 289 14 discriminator 1
	lw	a4,-24(s0)
	lw	a5,-28(s0)
	bltu	a4,a5,.L15
	.loc 1 293 7
	li	a5,1073807360
	addi	a5,a5,-1768
	.loc 1 293 61
	lw	a4,-20(s0)
	sw	a4,0(a5)
	.loc 1 295 13
	li	a5,1073807360
	addi	a5,a5,-1760
	.loc 1 295 11
	lw	a5,0(a5)
	sw	a5,-20(s0)
	.loc 1 296 10
	sw	zero,-24(s0)
	.loc 1 296 5
	j	.L16
.L17:
	.loc 1 297 34
	lw	a4,-24(s0)
	mv	a5,a4
	slli	a5,a5,2
	add	a5,a5,a4
	.loc 1 297 30
	li	a4,31
	sll	a5,a4,a5
	.loc 1 297 24
	not	a5,a5
	mv	a4,a5
	.loc 1 297 15
	lw	a5,-20(s0)
	and	a5,a5,a4
	sw	a5,-20(s0)
	.loc 1 298 27
	lw	a4,-40(s0)
	lw	a5,-24(s0)
	add	a5,a4,a5
	lbu	a5,0(a5)
	mv	a3,a5
	.loc 1 298 34
	lw	a4,-24(s0)
	mv	a5,a4
	slli	a5,a5,2
	add	a5,a5,a4
	.loc 1 298 30
	sll	a5,a3,a5
	mv	a4,a5
	.loc 1 298 15
	lw	a5,-20(s0)
	or	a5,a5,a4
	sw	a5,-20(s0)
	.loc 1 296 24 discriminator 3
	lw	a5,-24(s0)
	addi	a5,a5,1
	sw	a5,-24(s0)
.L16:
	.loc 1 296 14 discriminator 1
	lw	a4,-24(s0)
	lw	a5,-28(s0)
	bltu	a4,a5,.L17
	.loc 1 300 7
	li	a5,1073807360
	addi	a5,a5,-1760
	.loc 1 300 61
	lw	a4,-20(s0)
	sw	a4,0(a5)
	.loc 1 303 18
	lbu	a5,-41(s0)
	.loc 1 303 7
	lw	a4,-28(s0)
	bgeu	a4,a5,.L18
	.loc 1 304 17
	li	a5,1073807360
	addi	a5,a5,-1764
	.loc 1 304 15
	lw	a5,0(a5)
	sw	a5,-20(s0)
	.loc 1 305 14
	sw	zero,-24(s0)
	.loc 1 305 9
	j	.L19
.L20:
	.loc 1 306 38
	lw	a4,-24(s0)
	mv	a5,a4
	slli	a5,a5,2
	add	a5,a5,a4
	.loc 1 306 34
	li	a4,31
	sll	a5,a4,a5
	.loc 1 306 28
	not	a5,a5
	mv	a4,a5
	.loc 1 306 19
	lw	a5,-20(s0)
	and	a5,a5,a4
	sw	a5,-20(s0)
	.loc 1 307 33
	lw	a4,-24(s0)
	lw	a5,-28(s0)
	add	a5,a4,a5
	.loc 1 307 31
	lw	a4,-36(s0)
	add	a5,a4,a5
	lbu	a5,0(a5)
	mv	a3,a5
	.loc 1 307 46
	lw	a4,-24(s0)
	mv	a5,a4
	slli	a5,a5,2
	add	a5,a5,a4
	.loc 1 307 42
	sll	a5,a3,a5
	mv	a4,a5
	.loc 1 307 19
	lw	a5,-20(s0)
	or	a5,a5,a4
	sw	a5,-20(s0)
	.loc 1 305 39 discriminator 3
	lw	a5,-24(s0)
	addi	a5,a5,1
	sw	a5,-24(s0)
.L19:
	.loc 1 305 29 discriminator 1
	lbu	a4,-41(s0)
	lw	a5,-28(s0)
	sub	a5,a4,a5
	.loc 1 305 18 discriminator 1
	lw	a4,-24(s0)
	bltu	a4,a5,.L20
	.loc 1 309 11
	li	a5,1073807360
	addi	a5,a5,-1764
	.loc 1 309 65
	lw	a4,-20(s0)
	sw	a4,0(a5)
	.loc 1 311 17
	li	a5,1073807360
	addi	a5,a5,-1756
	.loc 1 311 15
	lw	a5,0(a5)
	sw	a5,-20(s0)
	.loc 1 312 14
	sw	zero,-24(s0)
	.loc 1 312 9
	j	.L21
.L22:
	.loc 1 313 38
	lw	a4,-24(s0)
	mv	a5,a4
	slli	a5,a5,2
	add	a5,a5,a4
	.loc 1 313 34
	li	a4,31
	sll	a5,a4,a5
	.loc 1 313 28
	not	a5,a5
	mv	a4,a5
	.loc 1 313 19
	lw	a5,-20(s0)
	and	a5,a5,a4
	sw	a5,-20(s0)
	.loc 1 314 33
	lw	a4,-24(s0)
	lw	a5,-28(s0)
	add	a5,a4,a5
	.loc 1 314 31
	lw	a4,-40(s0)
	add	a5,a4,a5
	lbu	a5,0(a5)
	mv	a3,a5
	.loc 1 314 46
	lw	a4,-24(s0)
	mv	a5,a4
	slli	a5,a5,2
	add	a5,a5,a4
	.loc 1 314 42
	sll	a5,a3,a5
	mv	a4,a5
	.loc 1 314 19
	lw	a5,-20(s0)
	or	a5,a5,a4
	sw	a5,-20(s0)
	.loc 1 312 39 discriminator 3
	lw	a5,-24(s0)
	addi	a5,a5,1
	sw	a5,-24(s0)
.L21:
	.loc 1 312 29 discriminator 1
	lbu	a4,-41(s0)
	lw	a5,-28(s0)
	sub	a5,a4,a5
	.loc 1 312 18 discriminator 1
	lw	a4,-24(s0)
	bltu	a4,a5,.L22
	.loc 1 316 11
	li	a5,1073807360
	addi	a5,a5,-1756
	.loc 1 316 65
	lw	a4,-20(s0)
	sw	a4,0(a5)
.L18:
	.loc 1 320 13
	li	a5,1073807360
	addi	a5,a5,-1776
	.loc 1 320 11
	lw	a5,0(a5)
	sw	a5,-20(s0)
	.loc 1 321 23
	lw	a4,-20(s0)
	li	a5,-31457280
	addi	a5,a5,-1
	and	a4,a4,a5
	.loc 1 321 76
	lbu	a5,-41(s0)
	addi	a5,a5,-1
	.loc 1 321 79
	slli	a5,a5,21
	.loc 1 321 11
	or	a5,a4,a5
	sw	a5,-20(s0)
	.loc 1 322 23
	lw	a5,-20(s0)
	andi	a4,a5,-3
	.loc 1 322 54
	lbu	a5,-42(s0)
	.loc 1 322 72
	slli	a5,a5,1
	.loc 1 322 11
	or	a5,a4,a5
	sw	a5,-20(s0)
	.loc 1 323 11
	lw	a4,-20(s0)
	li	a5,33554432
	or	a5,a4,a5
	sw	a5,-20(s0)
	.loc 1 324 7
	li	a5,1073807360
	addi	a5,a5,-1776
	.loc 1 324 61
	lw	a4,-20(s0)
	sw	a4,0(a5)
	.loc 1 325 1
	nop
	lw	ra,44(sp)
	.cfi_restore 1
	lw	s0,40(sp)
	.cfi_restore 8
	.cfi_def_cfa 2, 48
	addi	sp,sp,48
	.cfi_def_cfa_offset 0
	jr	ra
	.cfi_endproc
.LFE13:
	.size	ADC_Scan_Channel_Config, .-ADC_Scan_Channel_Config
	.section	.text.ADC_Start,"ax",@progbits
	.align	1
	.globl	ADC_Start
	.type	ADC_Start, @function
ADC_Start:
.LFB14:
	.loc 1 336 1
	.cfi_startproc
	addi	sp,sp,-32
	.cfi_def_cfa_offset 32
	sw	ra,28(sp)
	sw	s0,24(sp)
	.cfi_offset 1, -4
	.cfi_offset 8, -8
	addi	s0,sp,32
	.cfi_def_cfa 8, 0
	.loc 1 340 13
	li	a5,1073807360
	addi	a5,a5,-1780
	.loc 1 340 11
	lw	a5,0(a5)
	sw	a5,-20(s0)
	.loc 1 341 11
	lw	a5,-20(s0)
	andi	a5,a5,-3
	sw	a5,-20(s0)
	.loc 1 342 7
	li	a5,1073807360
	addi	a5,a5,-1780
	.loc 1 342 61
	lw	a4,-20(s0)
	sw	a4,0(a5)
	.loc 1 344 5
	li	a0,100
	call	BL602_Delay_US
	.loc 1 347 13
	li	a5,1073807360
	addi	a5,a5,-1780
	.loc 1 347 11
	lw	a5,0(a5)
	sw	a5,-20(s0)
	.loc 1 348 11
	lw	a5,-20(s0)
	ori	a5,a5,2
	sw	a5,-20(s0)
	.loc 1 349 7
	li	a5,1073807360
	addi	a5,a5,-1780
	.loc 1 349 61
	lw	a4,-20(s0)
	sw	a4,0(a5)
	.loc 1 351 1
	nop
	lw	ra,28(sp)
	.cfi_restore 1
	lw	s0,24(sp)
	.cfi_restore 8
	.cfi_def_cfa 2, 32
	addi	sp,sp,32
	.cfi_def_cfa_offset 0
	jr	ra
	.cfi_endproc
.LFE14:
	.size	ADC_Start, .-ADC_Start
	.section	.text.ADC_Stop,"ax",@progbits
	.align	1
	.globl	ADC_Stop
	.type	ADC_Stop, @function
ADC_Stop:
.LFB15:
	.loc 1 362 1
	.cfi_startproc
	addi	sp,sp,-32
	.cfi_def_cfa_offset 32
	sw	ra,28(sp)
	sw	s0,24(sp)
	.cfi_offset 1, -4
	.cfi_offset 8, -8
	addi	s0,sp,32
	.cfi_def_cfa 8, 0
	.loc 1 366 13
	li	a5,1073807360
	addi	a5,a5,-1780
	.loc 1 366 11
	lw	a5,0(a5)
	sw	a5,-20(s0)
	.loc 1 367 11
	lw	a5,-20(s0)
	andi	a5,a5,-3
	sw	a5,-20(s0)
	.loc 1 368 7
	li	a5,1073807360
	addi	a5,a5,-1780
	.loc 1 368 61
	lw	a4,-20(s0)
	sw	a4,0(a5)
	.loc 1 369 1
	nop
	lw	ra,28(sp)
	.cfi_restore 1
	lw	s0,24(sp)
	.cfi_restore 8
	.cfi_def_cfa 2, 32
	addi	sp,sp,32
	.cfi_def_cfa_offset 0
	jr	ra
	.cfi_endproc
.LFE15:
	.size	ADC_Stop, .-ADC_Stop
	.section	.text.ADC_FIFO_Cfg,"ax",@progbits
	.align	1
	.globl	ADC_FIFO_Cfg
	.type	ADC_FIFO_Cfg, @function
ADC_FIFO_Cfg:
.LFB16:
	.loc 1 380 1
	.cfi_startproc
	addi	sp,sp,-48
	.cfi_def_cfa_offset 48
	sw	ra,44(sp)
	sw	s0,40(sp)
	.cfi_offset 1, -4
	.cfi_offset 8, -8
	addi	s0,sp,48
	.cfi_def_cfa 8, 0
	sw	a0,-36(s0)
	.loc 1 391 13
	li	a5,1073750016
	.loc 1 391 11
	lw	a5,0(a5)
	sw	a5,-20(s0)
	.loc 1 392 23
	lw	a4,-20(s0)
	li	a5,-12582912
	addi	a5,a5,-1
	and	a4,a4,a5
	.loc 1 392 73
	lw	a5,-36(s0)
	lbu	a5,0(a5)
	.loc 1 392 89
	slli	a5,a5,22
	.loc 1 392 11
	or	a5,a4,a5
	sw	a5,-20(s0)
	.loc 1 395 23
	lw	a5,-20(s0)
	andi	a5,a5,-2
	.loc 1 395 72
	lw	a4,-36(s0)
	lbu	a4,1(a4)
	.loc 1 395 11
	or	a5,a5,a4
	sw	a5,-20(s0)
	.loc 1 397 7
	li	a5,1073750016
	.loc 1 397 59
	lw	a4,-20(s0)
	sw	a4,0(a5)
	.loc 1 400 13
	li	a5,1073750016
	.loc 1 400 11
	lw	a5,0(a5)
	sw	a5,-20(s0)
	.loc 1 401 11
	lw	a5,-20(s0)
	ori	a5,a5,2
	sw	a5,-20(s0)
	.loc 1 402 7
	li	a5,1073750016
	.loc 1 402 59
	lw	a4,-20(s0)
	sw	a4,0(a5)
	.loc 1 404 1
	nop
	lw	ra,44(sp)
	.cfi_restore 1
	lw	s0,40(sp)
	.cfi_restore 8
	.cfi_def_cfa 2, 48
	addi	sp,sp,48
	.cfi_def_cfa_offset 0
	jr	ra
	.cfi_endproc
.LFE16:
	.size	ADC_FIFO_Cfg, .-ADC_FIFO_Cfg
	.section	.text.ADC_Get_FIFO_Count,"ax",@progbits
	.align	1
	.globl	ADC_Get_FIFO_Count
	.type	ADC_Get_FIFO_Count, @function
ADC_Get_FIFO_Count:
.LFB17:
	.loc 1 415 1
	.cfi_startproc
	addi	sp,sp,-32
	.cfi_def_cfa_offset 32
	sw	ra,28(sp)
	sw	s0,24(sp)
	.cfi_offset 1, -4
	.cfi_offset 8, -8
	addi	s0,sp,32
	.cfi_def_cfa 8, 0
	.loc 1 418 13
	li	a5,1073750016
	.loc 1 418 11
	lw	a5,0(a5)
	sw	a5,-20(s0)
	.loc 1 420 51
	lw	a5,-20(s0)
	srli	a5,a5,16
	andi	a5,a5,0xff
	andi	a5,a5,63
	andi	a5,a5,0xff
	.loc 1 421 1
	mv	a0,a5
	lw	ra,28(sp)
	.cfi_restore 1
	lw	s0,24(sp)
	.cfi_restore 8
	.cfi_def_cfa 2, 32
	addi	sp,sp,32
	.cfi_def_cfa_offset 0
	jr	ra
	.cfi_endproc
.LFE17:
	.size	ADC_Get_FIFO_Count, .-ADC_Get_FIFO_Count
	.section	.text.ADC_FIFO_Is_Full,"ax",@progbits
	.align	1
	.globl	ADC_FIFO_Is_Full
	.type	ADC_FIFO_Is_Full, @function
ADC_FIFO_Is_Full:
.LFB18:
	.loc 1 432 1
	.cfi_startproc
	addi	sp,sp,-32
	.cfi_def_cfa_offset 32
	sw	ra,28(sp)
	sw	s0,24(sp)
	.cfi_offset 1, -4
	.cfi_offset 8, -8
	addi	s0,sp,32
	.cfi_def_cfa 8, 0
	.loc 1 435 13
	li	a5,1073750016
	.loc 1 435 11
	lw	a5,0(a5)
	sw	a5,-20(s0)
	.loc 1 437 19
	lw	a5,-20(s0)
	andi	a5,a5,8
	.loc 1 437 7
	beq	a5,zero,.L29
	.loc 1 438 16
	li	a5,1
	j	.L30
.L29:
	.loc 1 440 16
	li	a5,0
.L30:
	.loc 1 442 1
	mv	a0,a5
	lw	ra,28(sp)
	.cfi_restore 1
	lw	s0,24(sp)
	.cfi_restore 8
	.cfi_def_cfa 2, 32
	addi	sp,sp,32
	.cfi_def_cfa_offset 0
	jr	ra
	.cfi_endproc
.LFE18:
	.size	ADC_FIFO_Is_Full, .-ADC_FIFO_Is_Full
	.section	.text.ADC_FIFO_Is_Empty,"ax",@progbits
	.align	1
	.globl	ADC_FIFO_Is_Empty
	.type	ADC_FIFO_Is_Empty, @function
ADC_FIFO_Is_Empty:
.LFB19:
	.loc 1 453 1
	.cfi_startproc
	addi	sp,sp,-32
	.cfi_def_cfa_offset 32
	sw	ra,28(sp)
	sw	s0,24(sp)
	.cfi_offset 1, -4
	.cfi_offset 8, -8
	addi	s0,sp,32
	.cfi_def_cfa 8, 0
	.loc 1 456 13
	li	a5,1073750016
	.loc 1 456 11
	lw	a5,0(a5)
	sw	a5,-20(s0)
	.loc 1 458 19
	lw	a5,-20(s0)
	andi	a5,a5,4
	.loc 1 458 7
	beq	a5,zero,.L32
	.loc 1 459 16
	li	a5,0
	j	.L33
.L32:
	.loc 1 461 16
	li	a5,1
.L33:
	.loc 1 463 1
	mv	a0,a5
	lw	ra,28(sp)
	.cfi_restore 1
	lw	s0,24(sp)
	.cfi_restore 8
	.cfi_def_cfa 2, 32
	addi	sp,sp,32
	.cfi_def_cfa_offset 0
	jr	ra
	.cfi_endproc
.LFE19:
	.size	ADC_FIFO_Is_Empty, .-ADC_FIFO_Is_Empty
	.section	.text.ADC_Read_FIFO,"ax",@progbits
	.align	1
	.globl	ADC_Read_FIFO
	.type	ADC_Read_FIFO, @function
ADC_Read_FIFO:
.LFB20:
	.loc 1 477 1
	.cfi_startproc
	addi	sp,sp,-32
	.cfi_def_cfa_offset 32
	sw	ra,28(sp)
	sw	s0,24(sp)
	.cfi_offset 1, -4
	.cfi_offset 8, -8
	addi	s0,sp,32
	.cfi_def_cfa 8, 0
	.loc 1 480 13
	li	a5,1073750016
	addi	a5,a5,4
	.loc 1 480 11
	lw	a5,0(a5)
	sw	a5,-20(s0)
	.loc 1 482 12
	lw	a5,-20(s0)
	.loc 1 483 1
	mv	a0,a5
	lw	ra,28(sp)
	.cfi_restore 1
	lw	s0,24(sp)
	.cfi_restore 8
	.cfi_def_cfa 2, 32
	addi	sp,sp,32
	.cfi_def_cfa_offset 0
	jr	ra
	.cfi_endproc
.LFE20:
	.size	ADC_Read_FIFO, .-ADC_Read_FIFO
	.section	.text.ADC_Parse_Result,"ax",@progbits
	.align	1
	.globl	ADC_Parse_Result
	.type	ADC_Parse_Result, @function
ADC_Parse_Result:
.LFB21:
	.loc 1 496 1
	.cfi_startproc
	addi	sp,sp,-80
	.cfi_def_cfa_offset 80
	sw	ra,76(sp)
	sw	s0,72(sp)
	sw	s1,68(sp)
	sw	s2,64(sp)
	sw	s3,60(sp)
	.cfi_offset 1, -4
	.cfi_offset 8, -8
	.cfi_offset 9, -12
	.cfi_offset 18, -16
	.cfi_offset 19, -20
	addi	s0,sp,80
	.cfi_def_cfa 8, 0
	sw	a0,-68(s0)
	sw	a1,-72(s0)
	sw	a2,-76(s0)
	.loc 1 497 13
	sb	zero,-33(s0)
	.loc 1 498 14
	sw	zero,-52(s0)
	.loc 1 498 24
	sw	zero,-56(s0)
	.loc 1 501 11
	lui	a5,%hi(.LC0)
	flw	fa5,%lo(.LC0)(a5)
	fsw	fa5,-40(s0)
	.loc 1 502 14
	sw	zero,-44(s0)
	.loc 1 504 11
	lui	a5,%hi(.LC1)
	flw	fa5,%lo(.LC1)(a5)
	fsw	fa5,-48(s0)
	.loc 1 506 23
	lui	a5,%hi(adcGainCoeffCal)
	addi	a5,a5,%lo(adcGainCoeffCal)
	lbu	a5,0(a5)
	.loc 1 506 7
	beq	a5,zero,.L37
	.loc 1 507 12
	lui	a5,%hi(adcGainCoeffCal)
	addi	a5,a5,%lo(adcGainCoeffCal)
	flw	fa5,4(a5)
	fsw	fa5,-48(s0)
.L37:
	.loc 1 510 14
	li	a5,1073807360
	addi	a5,a5,-1776
	.loc 1 510 12
	lw	a5,0(a5)
	sw	a5,-52(s0)
	.loc 1 511 14
	li	a5,1073807360
	addi	a5,a5,-1772
	.loc 1 511 12
	lw	a5,0(a5)
	sw	a5,-56(s0)
	.loc 1 512 53
	lw	a5,-52(s0)
	srli	a5,a5,2
	andi	a5,a5,0xff
	.loc 1 512 13
	andi	a5,a5,7
	sb	a5,-57(s0)
	.loc 1 513 52
	lw	a5,-56(s0)
	srli	a5,a5,2
	andi	a5,a5,0xff
	.loc 1 513 12
	andi	a5,a5,1
	sb	a5,-58(s0)
	.loc 1 515 56
	lw	a5,-56(s0)
	andi	a5,a5,8
	.loc 1 515 7
	bne	a5,zero,.L38
	.loc 1 516 12
	lui	a5,%hi(.LC2)
	flw	fa5,%lo(.LC2)(a5)
	fsw	fa5,-40(s0)
.L38:
	.loc 1 518 7
	lbu	a5,-58(s0)
	bne	a5,zero,.L39
	.loc 1 519 14
	sw	zero,-44(s0)
	.loc 1 519 9
	j	.L40
.L45:
	.loc 1 520 37
	lw	a5,-44(s0)
	slli	a5,a5,2
	lw	a4,-68(s0)
	add	a5,a4,a5
	lw	a5,0(a5)
	.loc 1 520 40
	srli	a3,a5,21
	.loc 1 520 19
	lw	a5,-44(s0)
	slli	a5,a5,3
	lw	a4,-76(s0)
	add	a5,a4,a5
	.loc 1 520 30
	slli	a4,a3,24
	srai	a4,a4,24
	sb	a4,0(a5)
	.loc 1 521 19
	lw	a5,-44(s0)
	slli	a5,a5,3
	lw	a4,-76(s0)
	add	a5,a4,a5
	.loc 1 521 30
	li	a4,-1
	sb	a4,1(a5)
	.loc 1 522 15
	lbu	a5,-57(s0)
	bne	a5,zero,.L41
	.loc 1 523 56
	lw	a5,-44(s0)
	slli	a5,a5,2
	lw	a4,-68(s0)
	add	a5,a4,a5
	lw	a5,0(a5)
	.loc 1 523 67
	srli	a4,a5,4
	li	a5,4096
	addi	a5,a5,-1
	and	a5,a4,a5
	.loc 1 523 71
	fcvt.s.wu	fa4,a5
	flw	fa5,-48(s0)
	fdiv.s	fa5,fa4,fa5
	.loc 1 523 33
	fcvt.wu.s a3,fa5,rtz
	.loc 1 523 23
	lw	a5,-44(s0)
	slli	a5,a5,3
	lw	a4,-76(s0)
	add	a5,a4,a5
	.loc 1 523 32
	slli	a4,a3,16
	srli	a4,a4,16
	sh	a4,2(a5)
	.loc 1 524 38
	lw	a5,-44(s0)
	slli	a5,a5,3
	lw	a4,-76(s0)
	add	a5,a4,a5
	.loc 1 524 41
	lhu	a5,2(a5)
	.loc 1 524 47
	mv	a0,a5
	call	__floatsidf
	mv	a4,a0
	mv	a5,a1
	lui	a3,%hi(.LC3)
	lw	a2,%lo(.LC3)(a3)
	lw	a3,%lo(.LC3+4)(a3)
	mv	a0,a4
	mv	a1,a5
	call	__divdf3
	mv	a4,a0
	mv	a5,a1
	mv	s2,a4
	mv	s3,a5
	.loc 1 524 54
	flw	fa0,-40(s0)
	call	__extendsfdf2
	mv	a4,a0
	mv	a5,a1
	mv	a2,a4
	mv	a3,a5
	mv	a0,s2
	mv	a1,s3
	call	__muldf3
	mv	a4,a0
	mv	a5,a1
	mv	a2,a4
	mv	a3,a5
	.loc 1 524 23
	lw	a5,-44(s0)
	slli	a5,a5,3
	lw	a4,-76(s0)
	add	s1,a4,a5
	.loc 1 524 54
	mv	a0,a2
	mv	a1,a3
	call	__truncdfsf2
	fmv.s	fa5,fa0
	.loc 1 524 31
	fsw	fa5,4(s1)
	j	.L42
.L41:
	.loc 1 525 21
	lbu	a4,-57(s0)
	li	a5,1
	bne	a4,a5,.L43
	.loc 1 526 56
	lw	a5,-44(s0)
	slli	a5,a5,2
	lw	a4,-68(s0)
	add	a5,a4,a5
	lw	a5,0(a5)
	.loc 1 526 67
	srli	a4,a5,2
	li	a5,16384
	addi	a5,a5,-1
	and	a5,a4,a5
	.loc 1 526 71
	fcvt.s.wu	fa4,a5
	flw	fa5,-48(s0)
	fdiv.s	fa5,fa4,fa5
	.loc 1 526 33
	fcvt.wu.s a3,fa5,rtz
	.loc 1 526 23
	lw	a5,-44(s0)
	slli	a5,a5,3
	lw	a4,-76(s0)
	add	a5,a4,a5
	.loc 1 526 32
	slli	a4,a3,16
	srli	a4,a4,16
	sh	a4,2(a5)
	.loc 1 527 38
	lw	a5,-44(s0)
	slli	a5,a5,3
	lw	a4,-76(s0)
	add	a5,a4,a5
	.loc 1 527 41
	lhu	a5,2(a5)
	.loc 1 527 47
	mv	a0,a5
	call	__floatsidf
	mv	a4,a0
	mv	a5,a1
	lui	a3,%hi(.LC4)
	lw	a2,%lo(.LC4)(a3)
	lw	a3,%lo(.LC4+4)(a3)
	mv	a0,a4
	mv	a1,a5
	call	__divdf3
	mv	a4,a0
	mv	a5,a1
	mv	s2,a4
	mv	s3,a5
	.loc 1 527 55
	flw	fa0,-40(s0)
	call	__extendsfdf2
	mv	a4,a0
	mv	a5,a1
	mv	a2,a4
	mv	a3,a5
	mv	a0,s2
	mv	a1,s3
	call	__muldf3
	mv	a4,a0
	mv	a5,a1
	mv	a2,a4
	mv	a3,a5
	.loc 1 527 23
	lw	a5,-44(s0)
	slli	a5,a5,3
	lw	a4,-76(s0)
	add	s1,a4,a5
	.loc 1 527 55
	mv	a0,a2
	mv	a1,a3
	call	__truncdfsf2
	fmv.s	fa5,fa0
	.loc 1 527 31
	fsw	fa5,4(s1)
	j	.L42
.L43:
	.loc 1 528 21
	lbu	a4,-57(s0)
	li	a5,2
	beq	a4,a5,.L44
	.loc 1 528 65 discriminator 1
	lbu	a4,-57(s0)
	li	a5,4
	bne	a4,a5,.L42
.L44:
	.loc 1 529 55
	lw	a5,-44(s0)
	slli	a5,a5,2
	lw	a4,-68(s0)
	add	a5,a4,a5
	lw	a5,0(a5)
	.loc 1 529 58
	slli	a5,a5,16
	srli	a5,a5,16
	.loc 1 529 66
	fcvt.s.wu	fa4,a5
	flw	fa5,-48(s0)
	fdiv.s	fa5,fa4,fa5
	.loc 1 529 33
	fcvt.wu.s a3,fa5,rtz
	.loc 1 529 23
	lw	a5,-44(s0)
	slli	a5,a5,3
	lw	a4,-76(s0)
	add	a5,a4,a5
	.loc 1 529 32
	slli	a4,a3,16
	srli	a4,a4,16
	sh	a4,2(a5)
	.loc 1 530 38
	lw	a5,-44(s0)
	slli	a5,a5,3
	lw	a4,-76(s0)
	add	a5,a4,a5
	.loc 1 530 41
	lhu	a5,2(a5)
	.loc 1 530 47
	mv	a0,a5
	call	__floatsidf
	mv	a4,a0
	mv	a5,a1
	lui	a3,%hi(.LC5)
	lw	a2,%lo(.LC5)(a3)
	lw	a3,%lo(.LC5+4)(a3)
	mv	a0,a4
	mv	a1,a5
	call	__divdf3
	mv	a4,a0
	mv	a5,a1
	mv	s2,a4
	mv	s3,a5
	.loc 1 530 55
	flw	fa0,-40(s0)
	call	__extendsfdf2
	mv	a4,a0
	mv	a5,a1
	mv	a2,a4
	mv	a3,a5
	mv	a0,s2
	mv	a1,s3
	call	__muldf3
	mv	a4,a0
	mv	a5,a1
	mv	a2,a4
	mv	a3,a5
	.loc 1 530 23
	lw	a5,-44(s0)
	slli	a5,a5,3
	lw	a4,-76(s0)
	add	s1,a4,a5
	.loc 1 530 55
	mv	a0,a2
	mv	a1,a3
	call	__truncdfsf2
	fmv.s	fa5,fa0
	.loc 1 530 31
	fsw	fa5,4(s1)
.L42:
	.loc 1 519 24 discriminator 2
	lw	a5,-44(s0)
	addi	a5,a5,1
	sw	a5,-44(s0)
.L40:
	.loc 1 519 18 discriminator 1
	lw	a4,-44(s0)
	lw	a5,-72(s0)
	bltu	a4,a5,.L45
	.loc 1 559 1
	j	.L55
.L39:
	.loc 1 534 14
	sw	zero,-44(s0)
	.loc 1 534 9
	j	.L47
.L54:
	.loc 1 535 17
	sb	zero,-33(s0)
	.loc 1 536 37
	lw	a5,-44(s0)
	slli	a5,a5,2
	lw	a4,-68(s0)
	add	a5,a4,a5
	lw	a5,0(a5)
	.loc 1 536 40
	srli	a3,a5,21
	.loc 1 536 19
	lw	a5,-44(s0)
	slli	a5,a5,3
	lw	a4,-76(s0)
	add	a5,a4,a5
	.loc 1 536 30
	slli	a4,a3,24
	srai	a4,a4,24
	sb	a4,0(a5)
	.loc 1 537 38
	lw	a5,-44(s0)
	slli	a5,a5,2
	lw	a4,-68(s0)
	add	a5,a4,a5
	lw	a5,0(a5)
	.loc 1 537 41
	srli	a5,a5,16
	.loc 1 537 46
	slli	a4,a5,24
	srai	a4,a4,24
	.loc 1 537 19
	lw	a5,-44(s0)
	slli	a5,a5,3
	lw	a3,-76(s0)
	add	a5,a3,a5
	.loc 1 537 46
	andi	a4,a4,31
	slli	a4,a4,24
	srai	a4,a4,24
	.loc 1 537 30
	sb	a4,1(a5)
	.loc 1 539 22
	lw	a5,-44(s0)
	slli	a5,a5,2
	lw	a4,-68(s0)
	add	a5,a4,a5
	lw	a4,0(a5)
	.loc 1 539 25
	li	a5,32768
	and	a5,a4,a5
	.loc 1 539 15
	beq	a5,zero,.L48
	.loc 1 540 36
	lw	a5,-44(s0)
	slli	a5,a5,2
	lw	a4,-68(s0)
	add	a5,a4,a5
	lw	a4,0(a5)
	.loc 1 540 23
	lw	a5,-44(s0)
	slli	a5,a5,2
	lw	a3,-68(s0)
	add	a5,a3,a5
	.loc 1 540 29
	not	a4,a4
	.loc 1 540 27
	sw	a4,0(a5)
	.loc 1 541 23
	lw	a5,-44(s0)
	slli	a5,a5,2
	lw	a4,-68(s0)
	add	a5,a4,a5
	lw	a4,0(a5)
	lw	a5,-44(s0)
	slli	a5,a5,2
	lw	a3,-68(s0)
	add	a5,a3,a5
	.loc 1 541 27
	addi	a4,a4,1
	sw	a4,0(a5)
	.loc 1 542 21
	li	a5,1
	sb	a5,-33(s0)
.L48:
	.loc 1 544 15
	lbu	a5,-57(s0)
	bne	a5,zero,.L49
	.loc 1 545 56
	lw	a5,-44(s0)
	slli	a5,a5,2
	lw	a4,-68(s0)
	add	a5,a4,a5
	lw	a5,0(a5)
	.loc 1 545 67
	srli	a4,a5,4
	li	a5,4096
	addi	a5,a5,-1
	and	a5,a4,a5
	.loc 1 545 71
	fcvt.s.wu	fa4,a5
	flw	fa5,-48(s0)
	fdiv.s	fa5,fa4,fa5
	.loc 1 545 33
	fcvt.wu.s a3,fa5,rtz
	.loc 1 545 23
	lw	a5,-44(s0)
	slli	a5,a5,3
	lw	a4,-76(s0)
	add	a5,a4,a5
	.loc 1 545 32
	slli	a4,a3,16
	srli	a4,a4,16
	sh	a4,2(a5)
	.loc 1 546 38
	lw	a5,-44(s0)
	slli	a5,a5,3
	lw	a4,-76(s0)
	add	a5,a4,a5
	.loc 1 546 41
	lhu	a5,2(a5)
	.loc 1 546 47
	mv	a0,a5
	call	__floatsidf
	mv	a4,a0
	mv	a5,a1
	lui	a3,%hi(.LC6)
	lw	a2,%lo(.LC6)(a3)
	lw	a3,%lo(.LC6+4)(a3)
	mv	a0,a4
	mv	a1,a5
	call	__divdf3
	mv	a4,a0
	mv	a5,a1
	mv	s2,a4
	mv	s3,a5
	.loc 1 546 54
	flw	fa0,-40(s0)
	call	__extendsfdf2
	mv	a4,a0
	mv	a5,a1
	mv	a2,a4
	mv	a3,a5
	mv	a0,s2
	mv	a1,s3
	call	__muldf3
	mv	a4,a0
	mv	a5,a1
	mv	a2,a4
	mv	a3,a5
	.loc 1 546 23
	lw	a5,-44(s0)
	slli	a5,a5,3
	lw	a4,-76(s0)
	add	s1,a4,a5
	.loc 1 546 54
	mv	a0,a2
	mv	a1,a3
	call	__truncdfsf2
	fmv.s	fa5,fa0
	.loc 1 546 31
	fsw	fa5,4(s1)
	j	.L50
.L49:
	.loc 1 547 21
	lbu	a4,-57(s0)
	li	a5,1
	bne	a4,a5,.L51
	.loc 1 548 56
	lw	a5,-44(s0)
	slli	a5,a5,2
	lw	a4,-68(s0)
	add	a5,a4,a5
	lw	a5,0(a5)
	.loc 1 548 67
	srli	a4,a5,2
	li	a5,16384
	addi	a5,a5,-1
	and	a5,a4,a5
	.loc 1 548 71
	fcvt.s.wu	fa4,a5
	flw	fa5,-48(s0)
	fdiv.s	fa5,fa4,fa5
	.loc 1 548 33
	fcvt.wu.s a3,fa5,rtz
	.loc 1 548 23
	lw	a5,-44(s0)
	slli	a5,a5,3
	lw	a4,-76(s0)
	add	a5,a4,a5
	.loc 1 548 32
	slli	a4,a3,16
	srli	a4,a4,16
	sh	a4,2(a5)
	.loc 1 549 38
	lw	a5,-44(s0)
	slli	a5,a5,3
	lw	a4,-76(s0)
	add	a5,a4,a5
	.loc 1 549 41
	lhu	a5,2(a5)
	.loc 1 549 47
	mv	a0,a5
	call	__floatsidf
	mv	a4,a0
	mv	a5,a1
	lui	a3,%hi(.LC7)
	lw	a2,%lo(.LC7)(a3)
	lw	a3,%lo(.LC7+4)(a3)
	mv	a0,a4
	mv	a1,a5
	call	__divdf3
	mv	a4,a0
	mv	a5,a1
	mv	s2,a4
	mv	s3,a5
	.loc 1 549 54
	flw	fa0,-40(s0)
	call	__extendsfdf2
	mv	a4,a0
	mv	a5,a1
	mv	a2,a4
	mv	a3,a5
	mv	a0,s2
	mv	a1,s3
	call	__muldf3
	mv	a4,a0
	mv	a5,a1
	mv	a2,a4
	mv	a3,a5
	.loc 1 549 23
	lw	a5,-44(s0)
	slli	a5,a5,3
	lw	a4,-76(s0)
	add	s1,a4,a5
	.loc 1 549 54
	mv	a0,a2
	mv	a1,a3
	call	__truncdfsf2
	fmv.s	fa5,fa0
	.loc 1 549 31
	fsw	fa5,4(s1)
	j	.L50
.L51:
	.loc 1 550 21
	lbu	a4,-57(s0)
	li	a5,2
	beq	a4,a5,.L52
	.loc 1 550 65 discriminator 1
	lbu	a4,-57(s0)
	li	a5,4
	bne	a4,a5,.L50
.L52:
	.loc 1 551 55
	lw	a5,-44(s0)
	slli	a5,a5,2
	lw	a4,-68(s0)
	add	a5,a4,a5
	lw	a5,0(a5)
	.loc 1 551 58
	slli	a5,a5,16
	srli	a5,a5,16
	.loc 1 551 66
	fcvt.s.wu	fa4,a5
	flw	fa5,-48(s0)
	fdiv.s	fa5,fa4,fa5
	.loc 1 551 33
	fcvt.wu.s a3,fa5,rtz
	.loc 1 551 23
	lw	a5,-44(s0)
	slli	a5,a5,3
	lw	a4,-76(s0)
	add	a5,a4,a5
	.loc 1 551 32
	slli	a4,a3,16
	srli	a4,a4,16
	sh	a4,2(a5)
	.loc 1 552 38
	lw	a5,-44(s0)
	slli	a5,a5,3
	lw	a4,-76(s0)
	add	a5,a4,a5
	.loc 1 552 41
	lhu	a5,2(a5)
	.loc 1 552 47
	mv	a0,a5
	call	__floatsidf
	mv	a4,a0
	mv	a5,a1
	lui	a3,%hi(.LC8)
	lw	a2,%lo(.LC8)(a3)
	lw	a3,%lo(.LC8+4)(a3)
	mv	a0,a4
	mv	a1,a5
	call	__divdf3
	mv	a4,a0
	mv	a5,a1
	mv	s2,a4
	mv	s3,a5
	.loc 1 552 55
	flw	fa0,-40(s0)
	call	__extendsfdf2
	mv	a4,a0
	mv	a5,a1
	mv	a2,a4
	mv	a3,a5
	mv	a0,s2
	mv	a1,s3
	call	__muldf3
	mv	a4,a0
	mv	a5,a1
	mv	a2,a4
	mv	a3,a5
	.loc 1 552 23
	lw	a5,-44(s0)
	slli	a5,a5,3
	lw	a4,-76(s0)
	add	s1,a4,a5
	.loc 1 552 55
	mv	a0,a2
	mv	a1,a3
	call	__truncdfsf2
	fmv.s	fa5,fa0
	.loc 1 552 31
	fsw	fa5,4(s1)
.L50:
	.loc 1 554 15
	lbu	a5,-33(s0)
	beq	a5,zero,.L53
	.loc 1 555 42
	lw	a5,-44(s0)
	slli	a5,a5,3
	lw	a4,-76(s0)
	add	a5,a4,a5
	.loc 1 555 45
	flw	fa5,4(a5)
	.loc 1 555 23
	lw	a5,-44(s0)
	slli	a5,a5,3
	lw	a4,-76(s0)
	add	a5,a4,a5
	.loc 1 555 34
	fneg.s	fa5,fa5
	.loc 1 555 32
	fsw	fa5,4(a5)
.L53:
	.loc 1 534 24 discriminator 2
	lw	a5,-44(s0)
	addi	a5,a5,1
	sw	a5,-44(s0)
.L47:
	.loc 1 534 18 discriminator 1
	lw	a4,-44(s0)
	lw	a5,-72(s0)
	bltu	a4,a5,.L54
.L55:
	.loc 1 559 1
	nop
	lw	ra,76(sp)
	.cfi_restore 1
	lw	s0,72(sp)
	.cfi_restore 8
	.cfi_def_cfa 2, 80
	lw	s1,68(sp)
	.cfi_restore 9
	lw	s2,64(sp)
	.cfi_restore 18
	lw	s3,60(sp)
	.cfi_restore 19
	addi	sp,sp,80
	.cfi_def_cfa_offset 0
	jr	ra
	.cfi_endproc
.LFE21:
	.size	ADC_Parse_Result, .-ADC_Parse_Result
	.section	.text.ADC_IntMask,"ax",@progbits
	.align	1
	.globl	ADC_IntMask
	.type	ADC_IntMask, @function
ADC_IntMask:
.LFB22:
	.loc 1 571 1
	.cfi_startproc
	addi	sp,sp,-48
	.cfi_def_cfa_offset 48
	sw	ra,44(sp)
	sw	s0,40(sp)
	.cfi_offset 1, -4
	.cfi_offset 8, -8
	addi	s0,sp,48
	.cfi_def_cfa 8, 0
	mv	a5,a0
	mv	a4,a1
	sb	a5,-33(s0)
	mv	a5,a4
	sb	a5,-34(s0)
	.loc 1 578 5
	lbu	a5,-33(s0)
	li	a4,5
	beq	a5,a4,.L57
	li	a4,5
	bgt	a5,a4,.L77
	li	a4,4
	beq	a5,a4,.L59
	li	a4,4
	bgt	a5,a4,.L77
	li	a4,3
	beq	a5,a4,.L60
	li	a4,3
	bgt	a5,a4,.L77
	li	a4,2
	beq	a5,a4,.L61
	li	a4,2
	bgt	a5,a4,.L77
	beq	a5,zero,.L62
	li	a4,1
	beq	a5,a4,.L63
	.loc 1 663 13
	j	.L77
.L62:
	.loc 1 581 21
	li	a5,1073807360
	addi	a5,a5,-1748
	.loc 1 581 19
	lw	a5,0(a5)
	sw	a5,-20(s0)
	.loc 1 582 15
	lbu	a5,-34(s0)
	bne	a5,zero,.L64
	.loc 1 584 23
	lw	a5,-20(s0)
	andi	a5,a5,-513
	sw	a5,-20(s0)
	j	.L65
.L64:
	.loc 1 587 23
	lw	a5,-20(s0)
	ori	a5,a5,512
	sw	a5,-20(s0)
.L65:
	.loc 1 589 15
	li	a5,1073807360
	addi	a5,a5,-1748
	.loc 1 589 69
	lw	a4,-20(s0)
	sw	a4,0(a5)
	.loc 1 590 13
	j	.L66
.L63:
	.loc 1 592 21
	li	a5,1073807360
	addi	a5,a5,-1748
	.loc 1 592 19
	lw	a5,0(a5)
	sw	a5,-20(s0)
	.loc 1 593 15
	lbu	a5,-34(s0)
	bne	a5,zero,.L67
	.loc 1 595 23
	lw	a5,-20(s0)
	andi	a5,a5,-257
	sw	a5,-20(s0)
	j	.L68
.L67:
	.loc 1 598 23
	lw	a5,-20(s0)
	ori	a5,a5,256
	sw	a5,-20(s0)
.L68:
	.loc 1 600 15
	li	a5,1073807360
	addi	a5,a5,-1748
	.loc 1 600 69
	lw	a4,-20(s0)
	sw	a4,0(a5)
	.loc 1 601 13
	j	.L66
.L61:
	.loc 1 603 21
	li	a5,1073750016
	.loc 1 603 19
	lw	a5,0(a5)
	sw	a5,-20(s0)
	.loc 1 604 15
	lbu	a5,-34(s0)
	bne	a5,zero,.L69
	.loc 1 606 23
	lw	a4,-20(s0)
	li	a5,-16384
	addi	a5,a5,-1
	and	a5,a4,a5
	sw	a5,-20(s0)
	j	.L70
.L69:
	.loc 1 609 23
	lw	a4,-20(s0)
	li	a5,16384
	or	a5,a4,a5
	sw	a5,-20(s0)
.L70:
	.loc 1 611 15
	li	a5,1073750016
	.loc 1 611 67
	lw	a4,-20(s0)
	sw	a4,0(a5)
	.loc 1 612 13
	j	.L66
.L60:
	.loc 1 614 21
	li	a5,1073750016
	.loc 1 614 19
	lw	a5,0(a5)
	sw	a5,-20(s0)
	.loc 1 615 15
	lbu	a5,-34(s0)
	bne	a5,zero,.L71
	.loc 1 617 23
	lw	a4,-20(s0)
	li	a5,-8192
	addi	a5,a5,-1
	and	a5,a4,a5
	sw	a5,-20(s0)
	j	.L72
.L71:
	.loc 1 620 23
	lw	a4,-20(s0)
	li	a5,8192
	or	a5,a4,a5
	sw	a5,-20(s0)
.L72:
	.loc 1 622 15
	li	a5,1073750016
	.loc 1 622 67
	lw	a4,-20(s0)
	sw	a4,0(a5)
	.loc 1 623 13
	j	.L66
.L59:
	.loc 1 625 21
	li	a5,1073750016
	.loc 1 625 19
	lw	a5,0(a5)
	sw	a5,-20(s0)
	.loc 1 626 15
	lbu	a5,-34(s0)
	bne	a5,zero,.L73
	.loc 1 628 23
	lw	a4,-20(s0)
	li	a5,-4096
	addi	a5,a5,-1
	and	a5,a4,a5
	sw	a5,-20(s0)
	j	.L74
.L73:
	.loc 1 631 23
	lw	a4,-20(s0)
	li	a5,4096
	or	a5,a4,a5
	sw	a5,-20(s0)
.L74:
	.loc 1 633 15
	li	a5,1073750016
	.loc 1 633 67
	lw	a4,-20(s0)
	sw	a4,0(a5)
	.loc 1 634 13
	j	.L66
.L57:
	.loc 1 636 15
	lbu	a5,-34(s0)
	bne	a5,zero,.L75
	.loc 1 638 25
	li	a5,1073754112
	addi	a5,a5,-1748
	.loc 1 638 23
	lw	a5,0(a5)
	sw	a5,-20(s0)
	.loc 1 639 23
	lw	a5,-20(s0)
	andi	a5,a5,-513
	sw	a5,-20(s0)
	.loc 1 640 23
	lw	a5,-20(s0)
	andi	a5,a5,-257
	sw	a5,-20(s0)
	.loc 1 641 19
	li	a5,1073807360
	addi	a5,a5,-1748
	.loc 1 641 73
	lw	a4,-20(s0)
	sw	a4,0(a5)
	.loc 1 643 25
	li	a5,1073750016
	.loc 1 643 23
	lw	a5,0(a5)
	sw	a5,-20(s0)
	.loc 1 644 23
	lw	a4,-20(s0)
	li	a5,-16384
	addi	a5,a5,-1
	and	a5,a4,a5
	sw	a5,-20(s0)
	.loc 1 645 23
	lw	a4,-20(s0)
	li	a5,-8192
	addi	a5,a5,-1
	and	a5,a4,a5
	sw	a5,-20(s0)
	.loc 1 646 23
	lw	a4,-20(s0)
	li	a5,-4096
	addi	a5,a5,-1
	and	a5,a4,a5
	sw	a5,-20(s0)
	.loc 1 647 19
	li	a5,1073750016
	.loc 1 647 71
	lw	a4,-20(s0)
	sw	a4,0(a5)
	.loc 1 661 13
	j	.L66
.L75:
	.loc 1 650 25
	li	a5,1073754112
	addi	a5,a5,-1748
	.loc 1 650 23
	lw	a5,0(a5)
	sw	a5,-20(s0)
	.loc 1 651 23
	lw	a5,-20(s0)
	ori	a5,a5,512
	sw	a5,-20(s0)
	.loc 1 652 23
	lw	a5,-20(s0)
	ori	a5,a5,256
	sw	a5,-20(s0)
	.loc 1 653 19
	li	a5,1073807360
	addi	a5,a5,-1748
	.loc 1 653 73
	lw	a4,-20(s0)
	sw	a4,0(a5)
	.loc 1 655 25
	li	a5,1073750016
	.loc 1 655 23
	lw	a5,0(a5)
	sw	a5,-20(s0)
	.loc 1 656 23
	lw	a4,-20(s0)
	li	a5,8192
	or	a5,a4,a5
	sw	a5,-20(s0)
	.loc 1 657 23
	lw	a4,-20(s0)
	li	a5,16384
	or	a5,a4,a5
	sw	a5,-20(s0)
	.loc 1 658 23
	lw	a4,-20(s0)
	li	a5,4096
	or	a5,a4,a5
	sw	a5,-20(s0)
	.loc 1 659 19
	li	a5,1073750016
	.loc 1 659 71
	lw	a4,-20(s0)
	sw	a4,0(a5)
	.loc 1 661 13
	j	.L66
.L77:
	.loc 1 663 13
	nop
.L66:
	.loc 1 665 1
	nop
	lw	ra,44(sp)
	.cfi_restore 1
	lw	s0,40(sp)
	.cfi_restore 8
	.cfi_def_cfa 2, 48
	addi	sp,sp,48
	.cfi_def_cfa_offset 0
	jr	ra
	.cfi_endproc
.LFE22:
	.size	ADC_IntMask, .-ADC_IntMask
	.section	.text.ADC_IntClr,"ax",@progbits
	.align	1
	.globl	ADC_IntClr
	.type	ADC_IntClr, @function
ADC_IntClr:
.LFB23:
	.loc 1 676 1
	.cfi_startproc
	addi	sp,sp,-48
	.cfi_def_cfa_offset 48
	sw	ra,44(sp)
	sw	s0,40(sp)
	.cfi_offset 1, -4
	.cfi_offset 8, -8
	addi	s0,sp,48
	.cfi_def_cfa 8, 0
	mv	a5,a0
	sb	a5,-33(s0)
	.loc 1 682 5
	lbu	a5,-33(s0)
	li	a4,5
	beq	a5,a4,.L79
	li	a4,5
	bgt	a5,a4,.L87
	li	a4,4
	beq	a5,a4,.L81
	li	a4,4
	bgt	a5,a4,.L87
	li	a4,3
	beq	a5,a4,.L82
	li	a4,3
	bgt	a5,a4,.L87
	li	a4,2
	beq	a5,a4,.L83
	li	a4,2
	bgt	a5,a4,.L87
	beq	a5,zero,.L84
	li	a4,1
	beq	a5,a4,.L85
	.loc 1 792 13
	j	.L87
.L84:
	.loc 1 685 21
	li	a5,1073807360
	addi	a5,a5,-1748
	.loc 1 685 19
	lw	a5,0(a5)
	sw	a5,-20(s0)
	.loc 1 686 19
	lw	a5,-20(s0)
	andi	a5,a5,-33
	sw	a5,-20(s0)
	.loc 1 687 15
	li	a5,1073807360
	addi	a5,a5,-1748
	.loc 1 687 69
	lw	a4,-20(s0)
	sw	a4,0(a5)
	.loc 1 689 19
	lw	a5,-20(s0)
	ori	a5,a5,32
	sw	a5,-20(s0)
	.loc 1 690 15
	li	a5,1073807360
	addi	a5,a5,-1748
	.loc 1 690 69
	lw	a4,-20(s0)
	sw	a4,0(a5)
	.loc 1 693 21
	li	a5,1073807360
	addi	a5,a5,-1748
	.loc 1 693 19
	lw	a5,0(a5)
	sw	a5,-20(s0)
	.loc 1 694 19
	lw	a5,-20(s0)
	andi	a5,a5,-33
	sw	a5,-20(s0)
	.loc 1 695 15
	li	a5,1073807360
	addi	a5,a5,-1748
	.loc 1 695 69
	lw	a4,-20(s0)
	sw	a4,0(a5)
	.loc 1 697 13
	j	.L86
.L85:
	.loc 1 699 21
	li	a5,1073807360
	addi	a5,a5,-1748
	.loc 1 699 19
	lw	a5,0(a5)
	sw	a5,-20(s0)
	.loc 1 700 19
	lw	a5,-20(s0)
	andi	a5,a5,-17
	sw	a5,-20(s0)
	.loc 1 701 15
	li	a5,1073807360
	addi	a5,a5,-1748
	.loc 1 701 69
	lw	a4,-20(s0)
	sw	a4,0(a5)
	.loc 1 703 19
	lw	a5,-20(s0)
	ori	a5,a5,16
	sw	a5,-20(s0)
	.loc 1 704 15
	li	a5,1073807360
	addi	a5,a5,-1748
	.loc 1 704 69
	lw	a4,-20(s0)
	sw	a4,0(a5)
	.loc 1 707 21
	li	a5,1073807360
	addi	a5,a5,-1748
	.loc 1 707 19
	lw	a5,0(a5)
	sw	a5,-20(s0)
	.loc 1 708 19
	lw	a5,-20(s0)
	andi	a5,a5,-17
	sw	a5,-20(s0)
	.loc 1 709 15
	li	a5,1073807360
	addi	a5,a5,-1748
	.loc 1 709 69
	lw	a4,-20(s0)
	sw	a4,0(a5)
	.loc 1 711 13
	j	.L86
.L83:
	.loc 1 713 21
	li	a5,1073750016
	.loc 1 713 19
	lw	a5,0(a5)
	sw	a5,-20(s0)
	.loc 1 714 19
	lw	a5,-20(s0)
	andi	a5,a5,-1025
	sw	a5,-20(s0)
	.loc 1 715 15
	li	a5,1073750016
	.loc 1 715 67
	lw	a4,-20(s0)
	sw	a4,0(a5)
	.loc 1 717 19
	lw	a5,-20(s0)
	ori	a5,a5,1024
	sw	a5,-20(s0)
	.loc 1 718 15
	li	a5,1073750016
	.loc 1 718 67
	lw	a4,-20(s0)
	sw	a4,0(a5)
	.loc 1 721 21
	li	a5,1073750016
	.loc 1 721 19
	lw	a5,0(a5)
	sw	a5,-20(s0)
	.loc 1 722 19
	lw	a5,-20(s0)
	andi	a5,a5,-1025
	sw	a5,-20(s0)
	.loc 1 723 15
	li	a5,1073750016
	.loc 1 723 67
	lw	a4,-20(s0)
	sw	a4,0(a5)
	.loc 1 725 13
	j	.L86
.L82:
	.loc 1 727 21
	li	a5,1073750016
	.loc 1 727 19
	lw	a5,0(a5)
	sw	a5,-20(s0)
	.loc 1 728 19
	lw	a5,-20(s0)
	andi	a5,a5,-513
	sw	a5,-20(s0)
	.loc 1 729 15
	li	a5,1073750016
	.loc 1 729 67
	lw	a4,-20(s0)
	sw	a4,0(a5)
	.loc 1 731 19
	lw	a5,-20(s0)
	ori	a5,a5,512
	sw	a5,-20(s0)
	.loc 1 732 15
	li	a5,1073750016
	.loc 1 732 67
	lw	a4,-20(s0)
	sw	a4,0(a5)
	.loc 1 735 21
	li	a5,1073750016
	.loc 1 735 19
	lw	a5,0(a5)
	sw	a5,-20(s0)
	.loc 1 736 19
	lw	a5,-20(s0)
	andi	a5,a5,-513
	sw	a5,-20(s0)
	.loc 1 737 15
	li	a5,1073750016
	.loc 1 737 67
	lw	a4,-20(s0)
	sw	a4,0(a5)
	.loc 1 739 13
	j	.L86
.L81:
	.loc 1 741 21
	li	a5,1073750016
	.loc 1 741 19
	lw	a5,0(a5)
	sw	a5,-20(s0)
	.loc 1 742 19
	lw	a5,-20(s0)
	andi	a5,a5,-257
	sw	a5,-20(s0)
	.loc 1 743 15
	li	a5,1073750016
	.loc 1 743 67
	lw	a4,-20(s0)
	sw	a4,0(a5)
	.loc 1 745 19
	lw	a5,-20(s0)
	ori	a5,a5,256
	sw	a5,-20(s0)
	.loc 1 746 15
	li	a5,1073750016
	.loc 1 746 67
	lw	a4,-20(s0)
	sw	a4,0(a5)
	.loc 1 749 21
	li	a5,1073750016
	.loc 1 749 19
	lw	a5,0(a5)
	sw	a5,-20(s0)
	.loc 1 750 19
	lw	a5,-20(s0)
	andi	a5,a5,-257
	sw	a5,-20(s0)
	.loc 1 751 15
	li	a5,1073750016
	.loc 1 751 67
	lw	a4,-20(s0)
	sw	a4,0(a5)
	.loc 1 753 13
	j	.L86
.L79:
	.loc 1 755 21
	li	a5,1073807360
	addi	a5,a5,-1748
	.loc 1 755 19
	lw	a5,0(a5)
	sw	a5,-20(s0)
	.loc 1 756 19
	lw	a5,-20(s0)
	andi	a5,a5,-33
	sw	a5,-20(s0)
	.loc 1 757 19
	lw	a5,-20(s0)
	andi	a5,a5,-17
	sw	a5,-20(s0)
	.loc 1 758 15
	li	a5,1073807360
	addi	a5,a5,-1748
	.loc 1 758 69
	lw	a4,-20(s0)
	sw	a4,0(a5)
	.loc 1 760 19
	lw	a5,-20(s0)
	ori	a5,a5,32
	sw	a5,-20(s0)
	.loc 1 761 19
	lw	a5,-20(s0)
	ori	a5,a5,16
	sw	a5,-20(s0)
	.loc 1 762 15
	li	a5,1073807360
	addi	a5,a5,-1748
	.loc 1 762 69
	lw	a4,-20(s0)
	sw	a4,0(a5)
	.loc 1 765 21
	li	a5,1073807360
	addi	a5,a5,-1748
	.loc 1 765 19
	lw	a5,0(a5)
	sw	a5,-20(s0)
	.loc 1 766 19
	lw	a5,-20(s0)
	andi	a5,a5,-33
	sw	a5,-20(s0)
	.loc 1 767 19
	lw	a5,-20(s0)
	andi	a5,a5,-17
	sw	a5,-20(s0)
	.loc 1 768 15
	li	a5,1073807360
	addi	a5,a5,-1748
	.loc 1 768 69
	lw	a4,-20(s0)
	sw	a4,0(a5)
	.loc 1 771 21
	li	a5,1073750016
	.loc 1 771 19
	lw	a5,0(a5)
	sw	a5,-20(s0)
	.loc 1 772 19
	lw	a5,-20(s0)
	andi	a5,a5,-1025
	sw	a5,-20(s0)
	.loc 1 773 19
	lw	a5,-20(s0)
	andi	a5,a5,-513
	sw	a5,-20(s0)
	.loc 1 774 19
	lw	a5,-20(s0)
	andi	a5,a5,-257
	sw	a5,-20(s0)
	.loc 1 775 15
	li	a5,1073750016
	.loc 1 775 67
	lw	a4,-20(s0)
	sw	a4,0(a5)
	.loc 1 777 19
	lw	a5,-20(s0)
	ori	a5,a5,1024
	sw	a5,-20(s0)
	.loc 1 778 19
	lw	a5,-20(s0)
	ori	a5,a5,512
	sw	a5,-20(s0)
	.loc 1 779 19
	lw	a5,-20(s0)
	ori	a5,a5,256
	sw	a5,-20(s0)
	.loc 1 780 15
	li	a5,1073750016
	.loc 1 780 67
	lw	a4,-20(s0)
	sw	a4,0(a5)
	.loc 1 783 21
	li	a5,1073750016
	.loc 1 783 19
	lw	a5,0(a5)
	sw	a5,-20(s0)
	.loc 1 784 19
	lw	a5,-20(s0)
	andi	a5,a5,-1025
	sw	a5,-20(s0)
	.loc 1 785 19
	lw	a5,-20(s0)
	andi	a5,a5,-513
	sw	a5,-20(s0)
	.loc 1 786 19
	lw	a5,-20(s0)
	andi	a5,a5,-257
	sw	a5,-20(s0)
	.loc 1 787 15
	li	a5,1073750016
	.loc 1 787 67
	lw	a4,-20(s0)
	sw	a4,0(a5)
	.loc 1 790 13
	j	.L86
.L87:
	.loc 1 792 13
	nop
.L86:
	.loc 1 794 1
	nop
	lw	ra,44(sp)
	.cfi_restore 1
	lw	s0,40(sp)
	.cfi_restore 8
	.cfi_def_cfa 2, 48
	addi	sp,sp,48
	.cfi_def_cfa_offset 0
	jr	ra
	.cfi_endproc
.LFE23:
	.size	ADC_IntClr, .-ADC_IntClr
	.section	.text.ADC_GetIntStatus,"ax",@progbits
	.align	1
	.globl	ADC_GetIntStatus
	.type	ADC_GetIntStatus, @function
ADC_GetIntStatus:
.LFB24:
	.loc 1 805 1
	.cfi_startproc
	addi	sp,sp,-48
	.cfi_def_cfa_offset 48
	sw	ra,44(sp)
	sw	s0,40(sp)
	.cfi_offset 1, -4
	.cfi_offset 8, -8
	addi	s0,sp,48
	.cfi_def_cfa 8, 0
	mv	a5,a0
	sb	a5,-33(s0)
	.loc 1 807 17
	sb	zero,-17(s0)
	.loc 1 812 5
	lbu	a5,-33(s0)
	li	a4,5
	beq	a5,a4,.L98
	li	a4,5
	bgt	a5,a4,.L99
	li	a4,4
	beq	a5,a4,.L91
	li	a4,4
	bgt	a5,a4,.L99
	li	a4,3
	beq	a5,a4,.L92
	li	a4,3
	bgt	a5,a4,.L99
	li	a4,2
	beq	a5,a4,.L93
	li	a4,2
	bgt	a5,a4,.L99
	beq	a5,zero,.L94
	li	a4,1
	beq	a5,a4,.L95
	.loc 1 837 13
	j	.L99
.L94:
	.loc 1 815 21
	li	a5,1073807360
	addi	a5,a5,-1748
	.loc 1 815 19
	lw	a5,0(a5)
	sw	a5,-24(s0)
	.loc 1 816 62
	lw	a5,-24(s0)
	srli	a5,a5,1
	andi	a5,a5,0xff
	.loc 1 816 23
	andi	a5,a5,1
	sb	a5,-17(s0)
	.loc 1 817 13
	j	.L96
.L95:
	.loc 1 819 21
	li	a5,1073807360
	addi	a5,a5,-1748
	.loc 1 819 19
	lw	a5,0(a5)
	sw	a5,-24(s0)
	.loc 1 820 62
	lw	a5,-24(s0)
	andi	a5,a5,0xff
	.loc 1 820 23
	andi	a5,a5,1
	sb	a5,-17(s0)
	.loc 1 821 13
	j	.L96
.L93:
	.loc 1 823 21
	li	a5,1073750016
	.loc 1 823 19
	lw	a5,0(a5)
	sw	a5,-24(s0)
	.loc 1 824 65
	lw	a5,-24(s0)
	srli	a5,a5,6
	andi	a5,a5,0xff
	.loc 1 824 23
	andi	a5,a5,1
	sb	a5,-17(s0)
	.loc 1 825 13
	j	.L96
.L92:
	.loc 1 827 21
	li	a5,1073750016
	.loc 1 827 19
	lw	a5,0(a5)
	sw	a5,-24(s0)
	.loc 1 828 65
	lw	a5,-24(s0)
	srli	a5,a5,5
	andi	a5,a5,0xff
	.loc 1 828 23
	andi	a5,a5,1
	sb	a5,-17(s0)
	.loc 1 829 13
	j	.L96
.L91:
	.loc 1 831 21
	li	a5,1073750016
	.loc 1 831 19
	lw	a5,0(a5)
	sw	a5,-24(s0)
	.loc 1 832 65
	lw	a5,-24(s0)
	srli	a5,a5,4
	andi	a5,a5,0xff
	.loc 1 832 23
	andi	a5,a5,1
	sb	a5,-17(s0)
	.loc 1 833 13
	j	.L96
.L98:
	.loc 1 835 13
	nop
	j	.L96
.L99:
	.loc 1 837 13
	nop
.L96:
	.loc 1 840 12
	lbu	a5,-17(s0)
	.loc 1 841 1
	mv	a0,a5
	lw	ra,44(sp)
	.cfi_restore 1
	lw	s0,40(sp)
	.cfi_restore 8
	.cfi_def_cfa 2, 48
	addi	sp,sp,48
	.cfi_def_cfa_offset 0
	jr	ra
	.cfi_endproc
.LFE24:
	.size	ADC_GetIntStatus, .-ADC_GetIntStatus
	.section	.text.ADC_Int_Callback_Install,"ax",@progbits
	.align	1
	.globl	ADC_Int_Callback_Install
	.type	ADC_Int_Callback_Install, @function
ADC_Int_Callback_Install:
.LFB25:
	.loc 1 853 1
	.cfi_startproc
	addi	sp,sp,-32
	.cfi_def_cfa_offset 32
	sw	ra,28(sp)
	sw	s0,24(sp)
	.cfi_offset 1, -4
	.cfi_offset 8, -8
	addi	s0,sp,32
	.cfi_def_cfa 8, 0
	mv	a5,a0
	sw	a1,-24(s0)
	sb	a5,-17(s0)
	.loc 1 857 18
	lbu	a5,-17(s0)
	.loc 1 857 28
	lui	a4,%hi(adcIntCbfArra)
	addi	a4,a4,%lo(adcIntCbfArra)
	slli	a5,a5,2
	add	a5,a4,a5
	lw	a4,-24(s0)
	sw	a4,0(a5)
	.loc 1 858 1
	nop
	lw	ra,28(sp)
	.cfi_restore 1
	lw	s0,24(sp)
	.cfi_restore 8
	.cfi_def_cfa 2, 32
	addi	sp,sp,32
	.cfi_def_cfa_offset 0
	jr	ra
	.cfi_endproc
.LFE25:
	.size	ADC_Int_Callback_Install, .-ADC_Int_Callback_Install
	.section	.text.ADC_Vbat_Enable,"ax",@progbits
	.align	1
	.globl	ADC_Vbat_Enable
	.type	ADC_Vbat_Enable, @function
ADC_Vbat_Enable:
.LFB26:
	.loc 1 916 1
	.cfi_startproc
	addi	sp,sp,-32
	.cfi_def_cfa_offset 32
	sw	ra,28(sp)
	sw	s0,24(sp)
	.cfi_offset 1, -4
	.cfi_offset 8, -8
	addi	s0,sp,32
	.cfi_def_cfa 8, 0
	.loc 1 919 13
	li	a5,1073807360
	addi	a5,a5,-1772
	.loc 1 919 11
	lw	a5,0(a5)
	sw	a5,-20(s0)
	.loc 1 920 11
	lw	a5,-20(s0)
	ori	a5,a5,16
	sw	a5,-20(s0)
	.loc 1 921 7
	li	a5,1073807360
	addi	a5,a5,-1772
	.loc 1 921 61
	lw	a4,-20(s0)
	sw	a4,0(a5)
	.loc 1 922 1
	nop
	lw	ra,28(sp)
	.cfi_restore 1
	lw	s0,24(sp)
	.cfi_restore 8
	.cfi_def_cfa 2, 32
	addi	sp,sp,32
	.cfi_def_cfa_offset 0
	jr	ra
	.cfi_endproc
.LFE26:
	.size	ADC_Vbat_Enable, .-ADC_Vbat_Enable
	.section	.text.ADC_Vbat_Disable,"ax",@progbits
	.align	1
	.globl	ADC_Vbat_Disable
	.type	ADC_Vbat_Disable, @function
ADC_Vbat_Disable:
.LFB27:
	.loc 1 933 1
	.cfi_startproc
	addi	sp,sp,-32
	.cfi_def_cfa_offset 32
	sw	ra,28(sp)
	sw	s0,24(sp)
	.cfi_offset 1, -4
	.cfi_offset 8, -8
	addi	s0,sp,32
	.cfi_def_cfa 8, 0
	.loc 1 936 13
	li	a5,1073807360
	addi	a5,a5,-1772
	.loc 1 936 11
	lw	a5,0(a5)
	sw	a5,-20(s0)
	.loc 1 937 11
	lw	a5,-20(s0)
	andi	a5,a5,-17
	sw	a5,-20(s0)
	.loc 1 938 7
	li	a5,1073807360
	addi	a5,a5,-1772
	.loc 1 938 61
	lw	a4,-20(s0)
	sw	a4,0(a5)
	.loc 1 939 1
	nop
	lw	ra,28(sp)
	.cfi_restore 1
	lw	s0,24(sp)
	.cfi_restore 8
	.cfi_def_cfa 2, 32
	addi	sp,sp,32
	.cfi_def_cfa_offset 0
	jr	ra
	.cfi_endproc
.LFE27:
	.size	ADC_Vbat_Disable, .-ADC_Vbat_Disable
	.section	.text.ADC_Tsen_Init,"ax",@progbits
	.align	1
	.globl	ADC_Tsen_Init
	.type	ADC_Tsen_Init, @function
ADC_Tsen_Init:
.LFB28:
	.loc 1 950 1
	.cfi_startproc
	addi	sp,sp,-48
	.cfi_def_cfa_offset 48
	sw	ra,44(sp)
	sw	s0,40(sp)
	.cfi_offset 1, -4
	.cfi_offset 8, -8
	addi	s0,sp,48
	.cfi_def_cfa 8, 0
	mv	a5,a0
	sb	a5,-33(s0)
	.loc 1 956 13
	li	a5,1073807360
	addi	a5,a5,-1780
	.loc 1 956 11
	lw	a5,0(a5)
	sw	a5,-20(s0)
	.loc 1 958 11
	lw	a4,-20(s0)
	li	a5,-1073741824
	addi	a5,a5,-1
	and	a5,a4,a5
	sw	a5,-20(s0)
	.loc 1 960 11
	lw	a4,-20(s0)
	li	a5,-805306368
	addi	a5,a5,-1
	and	a5,a4,a5
	sw	a5,-20(s0)
	.loc 1 962 11
	lw	a4,-20(s0)
	li	a5,-134217728
	addi	a5,a5,-1
	and	a5,a4,a5
	sw	a5,-20(s0)
	.loc 1 964 11
	lw	a4,-20(s0)
	li	a5,262144
	or	a5,a4,a5
	sw	a5,-20(s0)
	.loc 1 965 7
	li	a5,1073807360
	addi	a5,a5,-1780
	.loc 1 965 61
	lw	a4,-20(s0)
	sw	a4,0(a5)
	.loc 1 968 13
	li	a5,1073807360
	addi	a5,a5,-1772
	.loc 1 968 11
	lw	a5,0(a5)
	sw	a5,-20(s0)
	.loc 1 970 11
	lw	a4,-20(s0)
	li	a5,-2147483648
	addi	a5,a5,-1
	and	a5,a4,a5
	sw	a5,-20(s0)
	.loc 1 972 23
	lw	a4,-20(s0)
	li	a5,-1879048192
	addi	a5,a5,-1
	and	a4,a4,a5
	.loc 1 972 11
	li	a5,536870912
	or	a5,a4,a5
	sw	a5,-20(s0)
	.loc 1 974 11
	lw	a4,-20(s0)
	li	a5,-3670016
	addi	a5,a5,-1
	and	a5,a4,a5
	sw	a5,-20(s0)
	.loc 1 976 11
	lw	a4,-20(s0)
	li	a5,-262144
	addi	a5,a5,-1
	and	a5,a4,a5
	sw	a5,-20(s0)
	.loc 1 978 11
	lw	a5,-20(s0)
	ori	a5,a5,64
	sw	a5,-20(s0)
	.loc 1 980 23
	lw	a5,-20(s0)
	andi	a4,a5,-33
	.loc 1 980 54
	lbu	a5,-33(s0)
	.loc 1 980 73
	slli	a5,a5,5
	.loc 1 980 11
	or	a5,a4,a5
	sw	a5,-20(s0)
	.loc 1 982 23
	lw	a5,-20(s0)
	andi	a5,a5,-385
	.loc 1 982 11
	ori	a5,a5,256
	sw	a5,-20(s0)
	.loc 1 984 11
	lw	a4,-20(s0)
	li	a5,-16384
	addi	a5,a5,-1
	and	a5,a4,a5
	sw	a5,-20(s0)
	.loc 1 986 11
	lw	a4,-20(s0)
	li	a5,-8192
	addi	a5,a5,511
	and	a5,a4,a5
	sw	a5,-20(s0)
	.loc 1 988 7
	li	a5,1073807360
	addi	a5,a5,-1772
	.loc 1 988 61
	lw	a4,-20(s0)
	sw	a4,0(a5)
	.loc 1 991 13
	li	a5,1073807360
	addi	a5,a5,-1776
	.loc 1 991 11
	lw	a5,0(a5)
	sw	a5,-20(s0)
	.loc 1 993 12
	lw	a4,-20(s0)
	li	a5,67108864
	or	a5,a4,a5
	sw	a5,-20(s0)
	.loc 1 994 7
	li	a5,1073807360
	addi	a5,a5,-1776
	.loc 1 994 61
	lw	a4,-20(s0)
	sw	a4,0(a5)
	.loc 1 1000 15
	li	a5,1073807360
	addi	a5,a5,-1780
	.loc 1 1000 12
	lw	a5,0(a5)
	sw	a5,-20(s0)
	.loc 1 1001 12
	lw	a4,-20(s0)
	li	a5,524288
	or	a5,a4,a5
	sw	a5,-20(s0)
	.loc 1 1002 7
	li	a5,1073807360
	addi	a5,a5,-1780
	.loc 1 1002 61
	lw	a4,-20(s0)
	sw	a4,0(a5)
	.loc 1 1003 1
	nop
	lw	ra,44(sp)
	.cfi_restore 1
	lw	s0,40(sp)
	.cfi_restore 8
	.cfi_def_cfa 2, 48
	addi	sp,sp,48
	.cfi_def_cfa_offset 0
	jr	ra
	.cfi_endproc
.LFE28:
	.size	ADC_Tsen_Init, .-ADC_Tsen_Init
	.section	.text.TSEN_Get_V_Error,"ax",@progbits
	.align	1
	.globl	TSEN_Get_V_Error
	.type	TSEN_Get_V_Error, @function
TSEN_Get_V_Error:
.LFB29:
	.loc 1 1015 1
	.cfi_startproc
	addi	sp,sp,-48
	.cfi_def_cfa_offset 48
	sw	ra,44(sp)
	sw	s0,40(sp)
	.cfi_offset 1, -4
	.cfi_offset 8, -8
	addi	s0,sp,48
	.cfi_def_cfa 8, 0
	.loc 1 1016 14
	sw	zero,-20(s0)
	.loc 1 1016 22
	sw	zero,-24(s0)
	.loc 1 1017 14
	sw	zero,-28(s0)
	.loc 1 1018 14
	sw	zero,-40(s0)
	.loc 1 1021 13
	sb	zero,-29(s0)
	.loc 1 1024 15
	li	a5,1073750016
	.loc 1 1024 12
	lw	a5,0(a5)
	sw	a5,-36(s0)
	.loc 1 1025 12
	lw	a5,-36(s0)
	ori	a5,a5,2
	sw	a5,-36(s0)
	.loc 1 1026 7
	li	a5,1073750016
	.loc 1 1026 59
	lw	a4,-36(s0)
	sw	a4,0(a5)
	.loc 1 1028 5
	call	ADC_SET_TSVBE_LOW
	.loc 1 1030 5
	call	ADC_Start
	.loc 1 1031 11
	nop
.L105:
	.loc 1 1031 12 discriminator 2
	call	ADC_Get_FIFO_Count
	mv	a5,a0
	.loc 1 1031 33 discriminator 2
	beq	a5,zero,.L105
	.loc 1 1033 14
	call	ADC_Read_FIFO
	mv	a5,a0
	.loc 1 1033 12 discriminator 1
	sw	a5,-40(s0)
	.loc 1 1034 19
	lui	a5,%hi(adcGainCoeffCal)
	addi	a5,a5,%lo(adcGainCoeffCal)
	lbu	a5,0(a5)
	sb	a5,-29(s0)
	.loc 1 1035 39
	lui	a5,%hi(adcGainCoeffCal)
	addi	a5,a5,%lo(adcGainCoeffCal)
	sb	zero,0(a5)
	.loc 1 1036 5
	addi	a4,s0,-48
	addi	a5,s0,-40
	mv	a2,a4
	li	a1,1
	mv	a0,a5
	call	ADC_Parse_Result
	.loc 1 1037 39
	lui	a5,%hi(adcGainCoeffCal)
	addi	a5,a5,%lo(adcGainCoeffCal)
	lbu	a4,-29(s0)
	sb	a4,0(a5)
	.loc 1 1038 16
	lhu	a5,-46(s0)
	.loc 1 1038 8
	sw	a5,-20(s0)
	.loc 1 1041 15
	li	a5,1073750016
	.loc 1 1041 12
	lw	a5,0(a5)
	sw	a5,-36(s0)
	.loc 1 1042 12
	lw	a5,-36(s0)
	ori	a5,a5,2
	sw	a5,-36(s0)
	.loc 1 1043 7
	li	a5,1073750016
	.loc 1 1043 59
	lw	a4,-36(s0)
	sw	a4,0(a5)
	.loc 1 1046 5
	call	ADC_SET_TSVBE_HIGH
	.loc 1 1048 5
	call	ADC_Start
	.loc 1 1049 11
	nop
.L106:
	.loc 1 1049 12 discriminator 2
	call	ADC_Get_FIFO_Count
	mv	a5,a0
	.loc 1 1049 33 discriminator 2
	beq	a5,zero,.L106
	.loc 1 1051 14
	call	ADC_Read_FIFO
	mv	a5,a0
	.loc 1 1051 12 discriminator 1
	sw	a5,-40(s0)
	.loc 1 1052 19
	lui	a5,%hi(adcGainCoeffCal)
	addi	a5,a5,%lo(adcGainCoeffCal)
	lbu	a5,0(a5)
	sb	a5,-29(s0)
	.loc 1 1053 39
	lui	a5,%hi(adcGainCoeffCal)
	addi	a5,a5,%lo(adcGainCoeffCal)
	sb	zero,0(a5)
	.loc 1 1054 5
	addi	a4,s0,-48
	addi	a5,s0,-40
	mv	a2,a4
	li	a1,1
	mv	a0,a5
	call	ADC_Parse_Result
	.loc 1 1055 39
	lui	a5,%hi(adcGainCoeffCal)
	addi	a5,a5,%lo(adcGainCoeffCal)
	lbu	a4,-29(s0)
	sb	a4,0(a5)
	.loc 1 1056 16
	lhu	a5,-46(s0)
	.loc 1 1056 8
	sw	a5,-24(s0)
	.loc 1 1058 13
	lw	a4,-20(s0)
	lw	a5,-24(s0)
	sub	a5,a4,a5
	sw	a5,-28(s0)
	.loc 1 1060 12
	lw	a5,-28(s0)
	.loc 1 1061 1
	mv	a0,a5
	lw	ra,44(sp)
	.cfi_restore 1
	lw	s0,40(sp)
	.cfi_restore 8
	.cfi_def_cfa 2, 48
	addi	sp,sp,48
	.cfi_def_cfa_offset 0
	jr	ra
	.cfi_endproc
.LFE29:
	.size	TSEN_Get_V_Error, .-TSEN_Get_V_Error
	.section	.sclock_rlt_code,"ax",@progbits
	.align	1
	.globl	ADC_Trim_TSEN
	.type	ADC_Trim_TSEN, @function
ADC_Trim_TSEN:
.LFB30:
	.loc 1 1073 1
	.cfi_startproc
	addi	sp,sp,-80
	.cfi_def_cfa_offset 80
	sw	ra,76(sp)
	sw	s0,72(sp)
	sw	s1,68(sp)
	sw	s2,64(sp)
	sw	s3,60(sp)
	.cfi_offset 1, -4
	.cfi_offset 8, -8
	.cfi_offset 9, -12
	.cfi_offset 18, -16
	.cfi_offset 19, -20
	addi	s0,sp,80
	.cfi_def_cfa 8, 0
	sw	a0,-68(s0)
	.loc 1 1074 13
	sb	zero,-33(s0)
	.loc 1 1075 14
	sw	zero,-40(s0)
	.loc 1 1076 14
	sw	zero,-44(s0)
	.loc 1 1077 11
	sw	zero,-48(s0)
	.loc 1 1077 18
	sw	zero,-52(s0)
	.loc 1 1077 25
	sw	zero,-56(s0)
	.loc 1 1077 31
	sw	zero,-60(s0)
	.loc 1 1080 5
	addi	a5,s0,-64
	mv	a0,a5
	call	EF_Ctrl_Read_TSEN_Trim
	.loc 1 1082 8
	lw	a4,-64(s0)
	li	a5,8192
	and	a5,a4,a5
	.loc 1 1082 7
	beq	a5,zero,.L109
	.loc 1 1083 16
	lw	a5,-64(s0)
	srli	a5,a5,12
	andi	a5,a5,1
	andi	a5,a5,0xff
	mv	s1,a5
	.loc 1 1083 70
	lw	a5,-64(s0)
	mv	a4,a5
	li	a5,4096
	addi	a5,a5,-1
	and	a5,a4,a5
	slli	a5,a5,16
	srli	a5,a5,16
	.loc 1 1083 42
	li	a1,12
	mv	a0,a5
	call	EF_Ctrl_Get_Trim_Parity
	mv	a5,a0
	.loc 1 1083 11 discriminator 1
	bne	s1,a5,.L109
	.loc 1 1087 32
	lw	a5,-64(s0)
	mv	a4,a5
	li	a5,4096
	addi	a5,a5,-1
	and	a5,a4,a5
	slli	a5,a5,16
	srli	a5,a5,16
	mv	a4,a5
	.loc 1 1087 26
	lw	a5,-68(s0)
	sh	a4,0(a5)
	.loc 1 1089 46
	lw	a4,-64(s0)
	li	a5,16384
	and	a5,a4,a5
	.loc 1 1089 15
	bne	a5,zero,.L110
	.loc 1 1095 27
	li	a5,1073807360
	addi	a5,a5,-1780
	.loc 1 1095 24
	lw	a5,0(a5)
	sw	a5,-44(s0)
	.loc 1 1096 24
	lw	a4,-44(s0)
	li	a5,-524288
	addi	a5,a5,-1
	and	a5,a4,a5
	sw	a5,-44(s0)
	.loc 1 1097 19
	li	a5,1073807360
	addi	a5,a5,-1780
	.loc 1 1097 73
	lw	a4,-44(s0)
	sw	a4,0(a5)
	.loc 1 1099 34
	sb	zero,-33(s0)
	.loc 1 1099 17
	j	.L111
.L112:
	.loc 1 1100 36
	call	TSEN_Get_V_Error
	mv	a4,a0
	.loc 1 1100 33 discriminator 1
	lw	a5,-40(s0)
	add	a5,a5,a4
	sw	a5,-40(s0)
	.loc 1 1099 67 discriminator 3
	lbu	a5,-33(s0)
	addi	a5,a5,1
	sb	a5,-33(s0)
.L111:
	.loc 1 1099 50 discriminator 1
	lbu	a4,-33(s0)
	li	a5,49
	bleu	a4,a5,.L112
	.loc 1 1103 29
	lw	a4,-40(s0)
	li	a5,1374388224
	addi	a5,a5,1311
	mulhu	a5,a4,a5
	srli	a5,a5,4
	sw	a5,-40(s0)
	.loc 1 1106 20
	lw	a5,-40(s0)
	fcvt.s.wu	fa5,a5
	fsw	fa5,-48(s0)
	.loc 1 1108 29
	sw	zero,-40(s0)
	.loc 1 1111 27
	li	a5,1073807360
	addi	a5,a5,-1780
	.loc 1 1111 24
	lw	a5,0(a5)
	sw	a5,-44(s0)
	.loc 1 1112 24
	lw	a4,-44(s0)
	li	a5,524288
	or	a5,a4,a5
	sw	a5,-44(s0)
	.loc 1 1113 19
	li	a5,1073807360
	addi	a5,a5,-1780
	.loc 1 1113 73
	lw	a4,-44(s0)
	sw	a4,0(a5)
	.loc 1 1115 34
	sb	zero,-33(s0)
	.loc 1 1115 17
	j	.L113
.L114:
	.loc 1 1116 36
	call	TSEN_Get_V_Error
	mv	a4,a0
	.loc 1 1116 33 discriminator 1
	lw	a5,-40(s0)
	add	a5,a5,a4
	sw	a5,-40(s0)
	.loc 1 1115 67 discriminator 3
	lbu	a5,-33(s0)
	addi	a5,a5,1
	sb	a5,-33(s0)
.L113:
	.loc 1 1115 50 discriminator 1
	lbu	a4,-33(s0)
	li	a5,49
	bleu	a4,a5,.L114
	.loc 1 1119 29
	lw	a4,-40(s0)
	li	a5,1374388224
	addi	a5,a5,1311
	mulhu	a5,a4,a5
	srli	a5,a5,4
	sw	a5,-40(s0)
	.loc 1 1122 20
	lw	a5,-40(s0)
	fcvt.s.wu	fa5,a5
	fsw	fa5,-52(s0)
	.loc 1 1125 21
	lw	a5,-68(s0)
	lhu	a5,0(a5)
	.loc 1 1125 19
	fcvt.s.wu	fa5,a5
	fsw	fa5,-56(s0)
	.loc 1 1127 28
	flw	fa0,-52(s0)
	call	__extendsfdf2
	mv	s2,a0
	mv	s3,a1
	.loc 1 1127 44
	flw	fa0,-48(s0)
	call	__extendsfdf2
	mv	a4,a0
	mv	a5,a1
	lui	a3,%hi(.LC9)
	lw	a2,%lo(.LC9)(a3)
	lw	a3,%lo(.LC9+4)(a3)
	mv	a0,a4
	mv	a1,a5
	call	__muldf3
	mv	a4,a0
	mv	a5,a1
	.loc 1 1127 28
	mv	a2,a4
	mv	a3,a5
	mv	a0,s2
	mv	a1,s3
	call	__subdf3
	mv	a4,a0
	mv	a5,a1
	mv	s2,a4
	mv	s3,a5
	.loc 1 1127 65
	flw	fa0,-56(s0)
	call	__extendsfdf2
	mv	a4,a0
	mv	a5,a1
	lui	a3,%hi(.LC10)
	lw	a2,%lo(.LC10)(a3)
	lw	a3,%lo(.LC10+4)(a3)
	mv	a0,a4
	mv	a1,a5
	call	__muldf3
	mv	a4,a0
	mv	a5,a1
	.loc 1 1127 50
	mv	a2,a4
	mv	a3,a5
	mv	a0,s2
	mv	a1,s3
	call	__adddf3
	mv	a4,a0
	mv	a5,a1
	mv	a0,a4
	mv	a1,a5
	.loc 1 1127 69
	lui	a5,%hi(.LC11)
	lw	a2,%lo(.LC11)(a5)
	lw	a3,%lo(.LC11+4)(a5)
	call	__adddf3
	mv	a4,a0
	mv	a5,a1
	.loc 1 1127 23
	mv	a0,a4
	mv	a1,a5
	call	__truncdfsf2
	fmv.s	fa5,fa0
	fsw	fa5,-60(s0)
	.loc 1 1131 38
	flw	fa4,-60(s0)
	flw	fa5,-56(s0)
	fadd.s	fa5,fa4,fa5
	.loc 1 1131 30
	fcvt.wu.s a5,fa5,rtz
	slli	a4,a5,16
	srli	a4,a4,16
	lw	a5,-68(s0)
	sh	a4,0(a5)
.L110:
	.loc 1 1134 20
	li	a5,0
	j	.L116
.L109:
	.loc 1 1138 12
	li	a5,1
.L116:
	.loc 1 1139 1
	mv	a0,a5
	lw	ra,76(sp)
	.cfi_restore 1
	lw	s0,72(sp)
	.cfi_restore 8
	.cfi_def_cfa 2, 80
	lw	s1,68(sp)
	.cfi_restore 9
	lw	s2,64(sp)
	.cfi_restore 18
	lw	s3,60(sp)
	.cfi_restore 19
	addi	sp,sp,80
	.cfi_def_cfa_offset 0
	jr	ra
	.cfi_endproc
.LFE30:
	.size	ADC_Trim_TSEN, .-ADC_Trim_TSEN
	.section	.text.ADC_SET_TSVBE_LOW,"ax",@progbits
	.align	1
	.globl	ADC_SET_TSVBE_LOW
	.type	ADC_SET_TSVBE_LOW, @function
ADC_SET_TSVBE_LOW:
.LFB31:
	.loc 1 1150 1
	.cfi_startproc
	addi	sp,sp,-32
	.cfi_def_cfa_offset 32
	sw	ra,28(sp)
	sw	s0,24(sp)
	.cfi_offset 1, -4
	.cfi_offset 8, -8
	addi	s0,sp,32
	.cfi_def_cfa 8, 0
	.loc 1 1152 13
	li	a5,1073807360
	addi	a5,a5,-1772
	.loc 1 1152 11
	lw	a5,0(a5)
	sw	a5,-20(s0)
	.loc 1 1153 11
	lw	a4,-20(s0)
	li	a5,-2147483648
	addi	a5,a5,-1
	and	a5,a4,a5
	sw	a5,-20(s0)
	.loc 1 1154 7
	li	a5,1073807360
	addi	a5,a5,-1772
	.loc 1 1154 61
	lw	a4,-20(s0)
	sw	a4,0(a5)
	.loc 1 1155 1
	nop
	lw	ra,28(sp)
	.cfi_restore 1
	lw	s0,24(sp)
	.cfi_restore 8
	.cfi_def_cfa 2, 32
	addi	sp,sp,32
	.cfi_def_cfa_offset 0
	jr	ra
	.cfi_endproc
.LFE31:
	.size	ADC_SET_TSVBE_LOW, .-ADC_SET_TSVBE_LOW
	.section	.text.ADC_SET_TSVBE_HIGH,"ax",@progbits
	.align	1
	.globl	ADC_SET_TSVBE_HIGH
	.type	ADC_SET_TSVBE_HIGH, @function
ADC_SET_TSVBE_HIGH:
.LFB32:
	.loc 1 1166 1
	.cfi_startproc
	addi	sp,sp,-32
	.cfi_def_cfa_offset 32
	sw	ra,28(sp)
	sw	s0,24(sp)
	.cfi_offset 1, -4
	.cfi_offset 8, -8
	addi	s0,sp,32
	.cfi_def_cfa 8, 0
	.loc 1 1168 13
	li	a5,1073807360
	addi	a5,a5,-1772
	.loc 1 1168 11
	lw	a5,0(a5)
	sw	a5,-20(s0)
	.loc 1 1169 11
	lw	a4,-20(s0)
	li	a5,-2147483648
	or	a5,a4,a5
	sw	a5,-20(s0)
	.loc 1 1170 7
	li	a5,1073807360
	addi	a5,a5,-1772
	.loc 1 1170 61
	lw	a4,-20(s0)
	sw	a4,0(a5)
	.loc 1 1171 1
	nop
	lw	ra,28(sp)
	.cfi_restore 1
	lw	s0,24(sp)
	.cfi_restore 8
	.cfi_def_cfa 2, 32
	addi	sp,sp,32
	.cfi_def_cfa_offset 0
	jr	ra
	.cfi_endproc
.LFE32:
	.size	ADC_SET_TSVBE_HIGH, .-ADC_SET_TSVBE_HIGH
	.section	.text.TSEN_Get_Temp,"ax",@progbits
	.align	1
	.globl	TSEN_Get_Temp
	.type	TSEN_Get_Temp, @function
TSEN_Get_Temp:
.LFB33:
	.loc 1 1182 1
	.cfi_startproc
	addi	sp,sp,-64
	.cfi_def_cfa_offset 64
	sw	ra,60(sp)
	sw	s0,56(sp)
	.cfi_offset 1, -4
	.cfi_offset 8, -8
	addi	s0,sp,64
	.cfi_def_cfa 8, 0
	sw	a0,-52(s0)
	.loc 1 1183 14
	sw	zero,-24(s0)
	.loc 1 1183 22
	sw	zero,-28(s0)
	.loc 1 1184 11
	sw	zero,-20(s0)
	.loc 1 1185 14
	sw	zero,-40(s0)
	.loc 1 1188 13
	sb	zero,-29(s0)
	.loc 1 1191 15
	li	a5,1073750016
	.loc 1 1191 12
	lw	a5,0(a5)
	sw	a5,-36(s0)
	.loc 1 1192 12
	lw	a5,-36(s0)
	ori	a5,a5,2
	sw	a5,-36(s0)
	.loc 1 1193 7
	li	a5,1073750016
	.loc 1 1193 59
	lw	a4,-36(s0)
	sw	a4,0(a5)
	.loc 1 1195 5
	call	ADC_SET_TSVBE_LOW
	.loc 1 1197 5
	call	ADC_Start
	.loc 1 1198 11
	nop
.L120:
	.loc 1 1198 12 discriminator 2
	call	ADC_Get_FIFO_Count
	mv	a5,a0
	.loc 1 1198 33 discriminator 2
	beq	a5,zero,.L120
	.loc 1 1200 14
	call	ADC_Read_FIFO
	mv	a5,a0
	.loc 1 1200 12 discriminator 1
	sw	a5,-40(s0)
	.loc 1 1202 19
	lui	a5,%hi(adcGainCoeffCal)
	addi	a5,a5,%lo(adcGainCoeffCal)
	lbu	a5,0(a5)
	sb	a5,-29(s0)
	.loc 1 1203 39
	lui	a5,%hi(adcGainCoeffCal)
	addi	a5,a5,%lo(adcGainCoeffCal)
	sb	zero,0(a5)
	.loc 1 1204 5
	addi	a4,s0,-48
	addi	a5,s0,-40
	mv	a2,a4
	li	a1,1
	mv	a0,a5
	call	ADC_Parse_Result
	.loc 1 1205 39
	lui	a5,%hi(adcGainCoeffCal)
	addi	a5,a5,%lo(adcGainCoeffCal)
	lbu	a4,-29(s0)
	sb	a4,0(a5)
	.loc 1 1206 16
	lhu	a5,-46(s0)
	.loc 1 1206 8
	sw	a5,-24(s0)
	.loc 1 1209 15
	li	a5,1073750016
	.loc 1 1209 12
	lw	a5,0(a5)
	sw	a5,-36(s0)
	.loc 1 1210 12
	lw	a5,-36(s0)
	ori	a5,a5,2
	sw	a5,-36(s0)
	.loc 1 1211 7
	li	a5,1073750016
	.loc 1 1211 59
	lw	a4,-36(s0)
	sw	a4,0(a5)
	.loc 1 1214 5
	call	ADC_SET_TSVBE_HIGH
	.loc 1 1216 5
	call	ADC_Start
	.loc 1 1217 11
	nop
.L121:
	.loc 1 1217 12 discriminator 2
	call	ADC_Get_FIFO_Count
	mv	a5,a0
	.loc 1 1217 33 discriminator 2
	beq	a5,zero,.L121
	.loc 1 1219 14
	call	ADC_Read_FIFO
	mv	a5,a0
	.loc 1 1219 12 discriminator 1
	sw	a5,-40(s0)
	.loc 1 1220 19
	lui	a5,%hi(adcGainCoeffCal)
	addi	a5,a5,%lo(adcGainCoeffCal)
	lbu	a5,0(a5)
	sb	a5,-29(s0)
	.loc 1 1221 39
	lui	a5,%hi(adcGainCoeffCal)
	addi	a5,a5,%lo(adcGainCoeffCal)
	sb	zero,0(a5)
	.loc 1 1222 5
	addi	a4,s0,-48
	addi	a5,s0,-40
	mv	a2,a4
	li	a1,1
	mv	a0,a5
	call	ADC_Parse_Result
	.loc 1 1223 39
	lui	a5,%hi(adcGainCoeffCal)
	addi	a5,a5,%lo(adcGainCoeffCal)
	lbu	a4,-29(s0)
	sb	a4,0(a5)
	.loc 1 1224 16
	lhu	a5,-46(s0)
	.loc 1 1224 8
	sw	a5,-28(s0)
	.loc 1 1226 8
	lw	a4,-24(s0)
	lw	a5,-28(s0)
	bleu	a4,a5,.L122
	.loc 1 1228 18
	lw	a5,-24(s0)
	fcvt.s.wu	fa4,a5
	.loc 1 1228 30
	lw	a5,-28(s0)
	fcvt.s.wu	fa5,a5
	.loc 1 1228 28
	fsub.s	fa4,fa4,fa5
	.loc 1 1228 43
	lw	a5,-52(s0)
	fcvt.s.wu	fa5,a5
	.loc 1 1228 41
	fsub.s	fa5,fa4,fa5
	fmv.s	fa0,fa5
	call	__extendsfdf2
	mv	a4,a0
	mv	a5,a1
	.loc 1 1228 63
	lui	a3,%hi(.LC12)
	lw	a2,%lo(.LC12)(a3)
	lw	a3,%lo(.LC12+4)(a3)
	mv	a0,a4
	mv	a1,a5
	call	__divdf3
	mv	a4,a0
	mv	a5,a1
	.loc 1 1228 14
	mv	a0,a4
	mv	a1,a5
	call	__truncdfsf2
	fmv.s	fa5,fa0
	fsw	fa5,-20(s0)
	j	.L123
.L122:
	.loc 1 1232 18
	lw	a5,-28(s0)
	fcvt.s.wu	fa4,a5
	.loc 1 1232 30
	lw	a5,-24(s0)
	fcvt.s.wu	fa5,a5
	.loc 1 1232 28
	fsub.s	fa4,fa4,fa5
	.loc 1 1232 43
	lw	a5,-52(s0)
	fcvt.s.wu	fa5,a5
	.loc 1 1232 41
	fsub.s	fa5,fa4,fa5
	fmv.s	fa0,fa5
	call	__extendsfdf2
	mv	a4,a0
	mv	a5,a1
	.loc 1 1232 63
	lui	a3,%hi(.LC12)
	lw	a2,%lo(.LC12)(a3)
	lw	a3,%lo(.LC12+4)(a3)
	mv	a0,a4
	mv	a1,a5
	call	__divdf3
	mv	a4,a0
	mv	a5,a1
	.loc 1 1232 14
	mv	a0,a4
	mv	a1,a5
	call	__truncdfsf2
	fmv.s	fa5,fa0
	fsw	fa5,-20(s0)
.L123:
	.loc 1 1235 12
	flw	fa5,-20(s0)
	.loc 1 1236 1
	fmv.s	fa0,fa5
	lw	ra,60(sp)
	.cfi_restore 1
	lw	s0,56(sp)
	.cfi_restore 8
	.cfi_def_cfa 2, 64
	addi	sp,sp,64
	.cfi_def_cfa_offset 0
	jr	ra
	.cfi_endproc
.LFE33:
	.size	TSEN_Get_Temp, .-TSEN_Get_Temp
	.section	.text.ADC_Mic_Init,"ax",@progbits
	.align	1
	.globl	ADC_Mic_Init
	.type	ADC_Mic_Init, @function
ADC_Mic_Init:
.LFB34:
	.loc 1 1248 1
	.cfi_startproc
	addi	sp,sp,-48
	.cfi_def_cfa_offset 48
	sw	ra,44(sp)
	sw	s0,40(sp)
	.cfi_offset 1, -4
	.cfi_offset 8, -8
	addi	s0,sp,48
	.cfi_def_cfa 8, 0
	sw	a0,-36(s0)
	.loc 1 1249 14
	sw	zero,-20(s0)
	.loc 1 1249 24
	sw	zero,-24(s0)
	.loc 1 1260 16
	li	a5,1073807360
	addi	a5,a5,-1772
	.loc 1 1260 13
	lw	a5,0(a5)
	sw	a5,-24(s0)
	.loc 1 1262 14
	li	a5,1073807360
	addi	a5,a5,-1780
	.loc 1 1262 12
	lw	a5,0(a5)
	sw	a5,-20(s0)
	.loc 1 1263 25
	lw	a4,-20(s0)
	li	a5,-8388608
	addi	a5,a5,-1
	and	a4,a4,a5
	.loc 1 1263 82
	lw	a5,-36(s0)
	lbu	a5,0(a5)
	.loc 1 1263 95
	slli	a5,a5,23
	.loc 1 1263 12
	or	a5,a4,a5
	sw	a5,-20(s0)
	.loc 1 1264 25
	lw	a4,-20(s0)
	li	a5,-6291456
	addi	a5,a5,-1
	and	a4,a4,a5
	.loc 1 1264 82
	lw	a5,-36(s0)
	lbu	a5,1(a5)
	.loc 1 1264 96
	slli	a5,a5,21
	.loc 1 1264 12
	or	a5,a4,a5
	sw	a5,-20(s0)
	.loc 1 1265 25
	lw	a4,-20(s0)
	li	a5,-1048576
	addi	a5,a5,-1
	and	a4,a4,a5
	.loc 1 1265 82
	lw	a5,-36(s0)
	lbu	a5,2(a5)
	.loc 1 1265 93
	slli	a5,a5,20
	.loc 1 1265 12
	or	a5,a4,a5
	sw	a5,-20(s0)
	.loc 1 1266 25
	lw	a4,-20(s0)
	li	a5,-524288
	addi	a5,a5,-1
	and	a4,a4,a5
	.loc 1 1266 82
	lw	a5,-36(s0)
	lbu	a5,3(a5)
	.loc 1 1266 93
	slli	a5,a5,19
	.loc 1 1266 12
	or	a5,a4,a5
	sw	a5,-20(s0)
	.loc 1 1267 25
	lw	a4,-20(s0)
	li	a5,-262144
	addi	a5,a5,-1
	and	a4,a4,a5
	.loc 1 1267 82
	lw	a5,-36(s0)
	lbu	a5,4(a5)
	.loc 1 1267 90
	slli	a5,a5,18
	.loc 1 1267 12
	or	a5,a4,a5
	sw	a5,-20(s0)
	.loc 1 1268 25
	lw	a4,-20(s0)
	li	a5,-65536
	addi	a5,a5,-1
	and	a4,a4,a5
	.loc 1 1268 82
	lw	a5,-36(s0)
	lbu	a5,5(a5)
	.loc 1 1268 101
	slli	a5,a5,16
	.loc 1 1268 12
	or	a5,a4,a5
	sw	a5,-20(s0)
	.loc 1 1270 20
	lw	a4,-24(s0)
	li	a5,8192
	and	a5,a4,a5
	.loc 1 1270 7
	beq	a5,zero,.L126
	.loc 1 1270 59 discriminator 1
	lw	a5,-36(s0)
	lbu	a4,6(a5)
	.loc 1 1270 42 discriminator 1
	li	a5,1
	bne	a4,a5,.L126
	.loc 1 1272 16
	li	a5,1
	j	.L127
.L126:
	.loc 1 1274 29
	lw	a4,-20(s0)
	li	a5,-32768
	addi	a5,a5,-1
	and	a4,a4,a5
	.loc 1 1274 86
	lw	a5,-36(s0)
	lbu	a5,6(a5)
	.loc 1 1274 97
	slli	a5,a5,15
	.loc 1 1274 16
	or	a5,a4,a5
	sw	a5,-20(s0)
	.loc 1 1277 25
	lw	a4,-20(s0)
	li	a5,-16384
	addi	a5,a5,-1
	and	a4,a4,a5
	.loc 1 1277 82
	lw	a5,-36(s0)
	lbu	a5,7(a5)
	.loc 1 1277 94
	slli	a5,a5,14
	.loc 1 1277 12
	or	a5,a4,a5
	sw	a5,-20(s0)
	.loc 1 1279 7
	li	a5,1073807360
	addi	a5,a5,-1780
	.loc 1 1279 61
	lw	a4,-20(s0)
	sw	a4,0(a5)
	.loc 1 1281 12
	li	a5,0
.L127:
	.loc 1 1283 1
	mv	a0,a5
	lw	ra,44(sp)
	.cfi_restore 1
	lw	s0,40(sp)
	.cfi_restore 8
	.cfi_def_cfa 2, 48
	addi	sp,sp,48
	.cfi_def_cfa_offset 0
	jr	ra
	.cfi_endproc
.LFE34:
	.size	ADC_Mic_Init, .-ADC_Mic_Init
	.section	.text.ADC_MIC_Bias_Enable,"ax",@progbits
	.align	1
	.globl	ADC_MIC_Bias_Enable
	.type	ADC_MIC_Bias_Enable, @function
ADC_MIC_Bias_Enable:
.LFB35:
	.loc 1 1295 1
	.cfi_startproc
	addi	sp,sp,-32
	.cfi_def_cfa_offset 32
	sw	ra,28(sp)
	sw	s0,24(sp)
	.cfi_offset 1, -4
	.cfi_offset 8, -8
	addi	s0,sp,32
	.cfi_def_cfa 8, 0
	.loc 1 1298 13
	li	a5,1073807360
	addi	a5,a5,-1780
	.loc 1 1298 11
	lw	a5,0(a5)
	sw	a5,-20(s0)
	.loc 1 1299 11
	lw	a4,-20(s0)
	li	a5,16384
	or	a5,a4,a5
	sw	a5,-20(s0)
	.loc 1 1300 7
	li	a5,1073807360
	addi	a5,a5,-1780
	.loc 1 1300 61
	lw	a4,-20(s0)
	sw	a4,0(a5)
	.loc 1 1301 1
	nop
	lw	ra,28(sp)
	.cfi_restore 1
	lw	s0,24(sp)
	.cfi_restore 8
	.cfi_def_cfa 2, 32
	addi	sp,sp,32
	.cfi_def_cfa_offset 0
	jr	ra
	.cfi_endproc
.LFE35:
	.size	ADC_MIC_Bias_Enable, .-ADC_MIC_Bias_Enable
	.section	.text.ADC_MIC_Bias_Disable,"ax",@progbits
	.align	1
	.globl	ADC_MIC_Bias_Disable
	.type	ADC_MIC_Bias_Disable, @function
ADC_MIC_Bias_Disable:
.LFB36:
	.loc 1 1313 1
	.cfi_startproc
	addi	sp,sp,-32
	.cfi_def_cfa_offset 32
	sw	ra,28(sp)
	sw	s0,24(sp)
	.cfi_offset 1, -4
	.cfi_offset 8, -8
	addi	s0,sp,32
	.cfi_def_cfa 8, 0
	.loc 1 1316 13
	li	a5,1073807360
	addi	a5,a5,-1780
	.loc 1 1316 11
	lw	a5,0(a5)
	sw	a5,-20(s0)
	.loc 1 1317 11
	lw	a4,-20(s0)
	li	a5,-16384
	addi	a5,a5,-1
	and	a5,a4,a5
	sw	a5,-20(s0)
	.loc 1 1318 7
	li	a5,1073807360
	addi	a5,a5,-1780
	.loc 1 1318 61
	lw	a4,-20(s0)
	sw	a4,0(a5)
	.loc 1 1319 1
	nop
	lw	ra,28(sp)
	.cfi_restore 1
	lw	s0,24(sp)
	.cfi_restore 8
	.cfi_def_cfa 2, 32
	addi	sp,sp,32
	.cfi_def_cfa_offset 0
	jr	ra
	.cfi_endproc
.LFE36:
	.size	ADC_MIC_Bias_Disable, .-ADC_MIC_Bias_Disable
	.section	.sclock_rlt_code
	.align	1
	.globl	ADC_Gain_Trim
	.type	ADC_Gain_Trim, @function
ADC_Gain_Trim:
.LFB37:
	.loc 1 1331 1
	.cfi_startproc
	addi	sp,sp,-32
	.cfi_def_cfa_offset 32
	sw	ra,28(sp)
	sw	s0,24(sp)
	sw	s1,20(sp)
	.cfi_offset 1, -4
	.cfi_offset 8, -8
	.cfi_offset 9, -12
	addi	s0,sp,32
	.cfi_def_cfa 8, 0
	.loc 1 1335 5
	addi	a5,s0,-24
	mv	a0,a5
	call	EF_Ctrl_Read_ADC_Gain_Trim
	.loc 1 1337 8
	lw	a4,-24(s0)
	li	a5,8192
	and	a5,a4,a5
	.loc 1 1337 7
	beq	a5,zero,.L131
	.loc 1 1338 16
	lw	a5,-24(s0)
	srli	a5,a5,12
	andi	a5,a5,1
	andi	a5,a5,0xff
	mv	s1,a5
	.loc 1 1338 65
	lw	a5,-24(s0)
	mv	a4,a5
	li	a5,4096
	addi	a5,a5,-1
	and	a5,a4,a5
	slli	a5,a5,16
	srli	a5,a5,16
	.loc 1 1338 37
	li	a1,12
	mv	a0,a5
	call	EF_Ctrl_Get_Trim_Parity
	mv	a5,a0
	.loc 1 1338 11 discriminator 1
	bne	s1,a5,.L131
	.loc 1 1339 48
	lui	a5,%hi(adcGainCoeffCal)
	addi	a5,a5,%lo(adcGainCoeffCal)
	li	a4,1
	sb	a4,0(a5)
	.loc 1 1340 51
	lw	a5,-24(s0)
	mv	a4,a5
	li	a5,4096
	addi	a5,a5,-1
	and	a5,a4,a5
	slli	a5,a5,16
	srli	a5,a5,16
	mv	a4,a5
	.loc 1 1340 45
	lui	a5,%hi(adcGainCoeffCal)
	addi	a5,a5,%lo(adcGainCoeffCal)
	sh	a4,2(a5)
	.loc 1 1341 32
	lui	a5,%hi(adcGainCoeffCal)
	addi	a5,a5,%lo(adcGainCoeffCal)
	lhu	a5,2(a5)
	.loc 1 1341 16
	sw	a5,-20(s0)
	.loc 1 1342 20
	lw	a4,-20(s0)
	li	a5,4096
	addi	a5,a5,-2048
	and	a5,a4,a5
	.loc 1 1342 15
	beq	a5,zero,.L132
	.loc 1 1343 21
	lw	a5,-20(s0)
	not	a5,a5
	sw	a5,-20(s0)
	.loc 1 1344 21
	lw	a5,-20(s0)
	addi	a5,a5,1
	sw	a5,-20(s0)
	.loc 1 1345 21
	lw	a4,-20(s0)
	li	a5,4096
	addi	a5,a5,-1
	and	a5,a4,a5
	sw	a5,-20(s0)
	.loc 1 1347 43
	lw	a5,-20(s0)
	fcvt.s.wu	fa5,a5
	fmv.s	fa0,fa5
	call	__extendsfdf2
	mv	a4,a0
	mv	a5,a1
	.loc 1 1347 53
	lui	a3,%hi(.LC6)
	lw	a2,%lo(.LC6)(a3)
	lw	a3,%lo(.LC6+4)(a3)
	mv	a0,a4
	mv	a1,a5
	call	__divdf3
	mv	a4,a0
	mv	a5,a1
	mv	a0,a4
	mv	a1,a5
	.loc 1 1347 41
	lui	a5,%hi(.LC13)
	lw	a2,%lo(.LC13)(a5)
	lw	a3,%lo(.LC13+4)(a5)
	call	__adddf3
	mv	a4,a0
	mv	a5,a1
	mv	a0,a4
	mv	a1,a5
	call	__truncdfsf2
	fmv.s	fa5,fa0
	.loc 1 1347 36
	lui	a5,%hi(adcGainCoeffCal)
	addi	a5,a5,%lo(adcGainCoeffCal)
	fsw	fa5,4(a5)
	j	.L133
.L132:
	.loc 1 1350 43
	lw	a5,-20(s0)
	fcvt.s.wu	fa5,a5
	fmv.s	fa0,fa5
	call	__extendsfdf2
	mv	a4,a0
	mv	a5,a1
	.loc 1 1350 53
	lui	a3,%hi(.LC6)
	lw	a2,%lo(.LC6)(a3)
	lw	a3,%lo(.LC6+4)(a3)
	mv	a0,a4
	mv	a1,a5
	call	__divdf3
	mv	a4,a0
	mv	a5,a1
	mv	a2,a4
	mv	a3,a5
	.loc 1 1350 41
	lui	a5,%hi(.LC13)
	lw	a0,%lo(.LC13)(a5)
	lw	a1,%lo(.LC13+4)(a5)
	call	__subdf3
	mv	a4,a0
	mv	a5,a1
	mv	a0,a4
	mv	a1,a5
	call	__truncdfsf2
	fmv.s	fa5,fa0
	.loc 1 1350 36
	lui	a5,%hi(adcGainCoeffCal)
	addi	a5,a5,%lo(adcGainCoeffCal)
	fsw	fa5,4(a5)
.L133:
	.loc 1 1354 20
	li	a5,0
	j	.L135
.L131:
	.loc 1 1358 12
	li	a5,1
.L135:
	.loc 1 1359 1
	mv	a0,a5
	lw	ra,28(sp)
	.cfi_restore 1
	lw	s0,24(sp)
	.cfi_restore 8
	.cfi_def_cfa 2, 32
	lw	s1,20(sp)
	.cfi_restore 9
	addi	sp,sp,32
	.cfi_def_cfa_offset 0
	jr	ra
	.cfi_endproc
.LFE37:
	.size	ADC_Gain_Trim, .-ADC_Gain_Trim
	.section	.rodata
	.align	2
.LC0:
	.word	1073741824
	.align	2
.LC1:
	.word	1065353216
	.align	2
.LC2:
	.word	1078774989
	.align	3
.LC3:
	.word	0
	.word	1085276160
	.align	3
.LC4:
	.word	0
	.word	1087373312
	.align	3
.LC5:
	.word	0
	.word	1089470464
	.align	3
.LC6:
	.word	0
	.word	1084227584
	.align	3
.LC7:
	.word	0
	.word	1086324736
	.align	3
.LC8:
	.word	0
	.word	1088421888
	.align	3
.LC9:
	.word	-972099360
	.word	1073091221
	.align	3
.LC10:
	.word	406569858
	.word	1071139415
	.align	3
.LC11:
	.word	0
	.word	1079115776
	.align	3
.LC12:
	.word	1855425872
	.word	1075774226
	.align	3
.LC13:
	.word	0
	.word	1072693248
	.text
.Letext0:
	.file 2 "/home/chandu/sdk/bl602_iot_sdk/toolchain/compiler/lib/gcc/riscv32-unknown-elf/15.1.0/include/stdint-gcc.h"
	.file 3 "/home/chandu/sdk/bl602_iot_sdk/components/bl602/bl602_std/bl602_std/StdDriver/Inc/bl602_common.h"
	.file 4 "/home/chandu/sdk/bl602_iot_sdk/components/bl602/bl602_std/bl602_std/StdDriver/Inc/bl602_adc.h"
	.file 5 "/home/chandu/sdk/bl602_iot_sdk/components/bl602/bl602_std/bl602_std/StdDriver/Inc/bl602_ef_ctrl.h"
	.section	.note.GNU-stack,"",@progbits
