	.file	"bl602_sf_cfg_ext.c"
	.option nopic
	.attribute arch, "rv32i2p1_m2p0_f2p2_c2p0_zicsr2p0_zmmul1p0_zca1p0_zcf1p0"
	.attribute unaligned_access, 0
	.attribute stack_align, 16
	.text
.Ltext0:
	.cfi_sections	.debug_frame
	.file 0 "/home/chandu/sdk/bl602_iot_sdk/customer_app/suas_app_pqkem_gateway/build_out/bl602_std" "/home/chandu/sdk/bl602_iot_sdk/components/bl602/bl602_std/bl602_std/StdDriver/Src/bl602_sf_cfg_ext.c"
	.section	.tcm_const,"a"
	.align	2
	.type	flashCfg_FM_25Q08, @object
	.size	flashCfg_FM_25Q08, 84
flashCfg_FM_25Q08:
	.byte	4
	.byte	1
	.byte	1
	.byte	63
	.byte	102
	.byte	-103
	.byte	-1
	.byte	3
	.byte	-97
	.byte	0
	.byte	-97
	.byte	0
	.byte	4
	.byte	-56
	.half	256
	.byte	-57
	.byte	32
	.byte	82
	.byte	-40
	.byte	6
	.byte	2
	.byte	50
	.byte	0
	.byte	11
	.byte	1
	.byte	11
	.byte	1
	.byte	59
	.byte	1
	.byte	-69
	.byte	0
	.byte	107
	.byte	1
	.byte	-21
	.byte	2
	.byte	-21
	.byte	2
	.byte	2
	.byte	80
	.byte	0
	.byte	1
	.byte	0
	.byte	1
	.byte	1
	.byte	0
	.byte	0
	.byte	1
	.byte	2
	.byte	1
	.byte	-85
	.byte	1
	.base64	"BTUA"
	.zero	1
	.base64	"AQEA"
	.zero	1
	.byte	56
	.byte	-1
	.byte	32
	.byte	-1
	.byte	119
	.byte	3
	.byte	2
	.byte	64
	.byte	119
	.byte	3
	.byte	2
	.byte	-16
	.half	300
	.half	1200
	.half	1200
	.half	5
	.half	20000
	.byte	20
	.byte	0
	.align	2
	.type	flashInfos, @object
	.size	flashInfos, 12
flashInfos:
	.word	1327265
	.zero	4
	.word	flashCfg_FM_25Q08
	.section	.rodata
	.align	2
.LC0:
	.string	"FCFG"
	.section	.tcm_code,"ax",@progbits
	.align	1
	.globl	SF_Cfg_Get_Flash_Cfg_Need_Lock_Ext
	.type	SF_Cfg_Get_Flash_Cfg_Need_Lock_Ext, @function
SF_Cfg_Get_Flash_Cfg_Need_Lock_Ext:
.LFB8:
	.file 1 "/home/chandu/sdk/bl602_iot_sdk/components/bl602/bl602_std/bl602_std/StdDriver/Src/bl602_sf_cfg_ext.c"
	.loc 1 206 1
	.cfi_startproc
	addi	sp,sp,-144
	.cfi_def_cfa_offset 144
	sw	ra,140(sp)
	sw	s0,136(sp)
	.cfi_offset 1, -4
	.cfi_offset 8, -8
	addi	s0,sp,144
	.cfi_def_cfa 8, 0
	sw	a0,-132(s0)
	sw	a1,-136(s0)
	.loc 1 211 7
	lw	a5,-132(s0)
	bne	a5,zero,.L2
	.loc 1 212 9
	addi	a5,s0,-120
	li	a2,92
	mv	a1,a5
	li	a5,587202560
	addi	a0,a5,8
	call	XIP_SFlash_Read_Via_Cache_Need_Lock
	.loc 1 213 12
	addi	a4,s0,-120
	li	a2,4
	lui	a5,%hi(.LC0)
	addi	a1,a5,%lo(.LC0)
	mv	a0,a4
	call	BL602_MemCmp
	mv	a5,a0
	.loc 1 213 11 discriminator 1
	bne	a5,zero,.L3
	.loc 1 214 17
	addi	a5,s0,-120
	addi	a5,a5,4
	li	a1,84
	mv	a0,a5
	call	BFLB_Soft_CRC32
	sw	a0,-24(s0)
	.loc 1 215 17
	addi	a5,s0,-120
	addi	a5,a5,88
	sw	a5,-28(s0)
	.loc 1 216 16
	lw	a5,-28(s0)
	lw	a5,0(a5)
	.loc 1 216 15
	lw	a4,-24(s0)
	bne	a4,a5,.L3
	.loc 1 217 17
	addi	a5,s0,-120
	addi	a5,a5,4
	li	a2,84
	mv	a1,a5
	lw	a0,-136(s0)
	call	BL602_MemCpy_Fast
	.loc 1 218 24
	li	a5,0
	j	.L9
.L2:
	.loc 1 222 12
	lw	a1,-136(s0)
	lw	a0,-132(s0)
	call	SF_Cfg_Get_Flash_Cfg_Need_Lock
	mv	a5,a0
	.loc 1 222 11 discriminator 1
	beq	a5,zero,.L5
	.loc 1 223 20
	li	a5,0
	j	.L9
.L5:
	.loc 1 225 14
	sw	zero,-20(s0)
	.loc 1 225 9
	j	.L6
.L8:
	.loc 1 226 29
	lui	a5,%hi(flashInfos)
	addi	a3,a5,%lo(flashInfos)
	lw	a4,-20(s0)
	mv	a5,a4
	slli	a5,a5,1
	add	a5,a5,a4
	slli	a5,a5,2
	add	a5,a3,a5
	lw	a5,0(a5)
	.loc 1 226 15
	lw	a4,-132(s0)
	bne	a4,a5,.L7
	.loc 1 227 58
	lui	a5,%hi(flashCfg_FM_25Q08)
	addi	a5,a5,%lo(flashCfg_FM_25Q08)
	.loc 1 227 17
	li	a2,84
	mv	a1,a5
	lw	a0,-136(s0)
	call	BL602_MemCpy_Fast
	.loc 1 228 24
	li	a5,0
	j	.L9
.L7:
	.loc 1 225 61 discriminator 2
	lw	a5,-20(s0)
	addi	a5,a5,1
	sw	a5,-20(s0)
.L6:
	.loc 1 225 18 discriminator 1
	lw	a5,-20(s0)
	beq	a5,zero,.L8
.L3:
	.loc 1 233 12
	li	a5,1
.L9:
	.loc 1 234 1
	mv	a0,a5
	lw	ra,140(sp)
	.cfi_restore 1
	lw	s0,136(sp)
	.cfi_restore 8
	.cfi_def_cfa 2, 144
	addi	sp,sp,144
	.cfi_def_cfa_offset 0
	jr	ra
	.cfi_endproc
.LFE8:
	.size	SF_Cfg_Get_Flash_Cfg_Need_Lock_Ext, .-SF_Cfg_Get_Flash_Cfg_Need_Lock_Ext
	.align	1
	.globl	SF_Cfg_Flash_Identify_Ext
	.type	SF_Cfg_Flash_Identify_Ext, @function
SF_Cfg_Flash_Identify_Ext:
.LFB9:
	.loc 1 250 1
	.cfi_startproc
	addi	sp,sp,-48
	.cfi_def_cfa_offset 48
	sw	ra,44(sp)
	sw	s0,40(sp)
	.cfi_offset 1, -4
	.cfi_offset 8, -8
	addi	s0,sp,48
	.cfi_def_cfa 8, 0
	mv	a5,a0
	sw	a1,-40(s0)
	sw	a2,-44(s0)
	sw	a4,-48(s0)
	sb	a5,-33(s0)
	mv	a5,a3
	sb	a5,-34(s0)
	.loc 1 251 14
	sw	zero,-24(s0)
	.loc 1 252 14
	sw	zero,-20(s0)
	.loc 1 253 14
	sw	zero,-28(s0)
	.loc 1 255 9
	lbu	a3,-34(s0)
	lbu	a5,-33(s0)
	lw	a4,-48(s0)
	lw	a2,-44(s0)
	lw	a1,-40(s0)
	mv	a0,a5
	call	SF_Cfg_Flash_Identify
	sw	a0,-28(s0)
	.loc 1 256 24
	lw	a5,-28(s0)
	.loc 1 256 7
	bge	a5,zero,.L11
	.loc 1 257 16
	lw	a5,-28(s0)
	j	.L12
.L11:
	.loc 1 260 11
	lw	a4,-28(s0)
	li	a5,16777216
	addi	a5,a5,-1
	and	a5,a4,a5
	sw	a5,-24(s0)
	.loc 1 261 10
	sw	zero,-20(s0)
	.loc 1 261 5
	j	.L13
.L16:
	.loc 1 262 25
	lui	a5,%hi(flashInfos)
	addi	a3,a5,%lo(flashInfos)
	lw	a4,-20(s0)
	mv	a5,a4
	slli	a5,a5,1
	add	a5,a5,a4
	slli	a5,a5,2
	add	a5,a3,a5
	lw	a5,0(a5)
	.loc 1 262 11
	lw	a4,-24(s0)
	bne	a4,a5,.L14
	.loc 1 263 54
	lui	a5,%hi(flashCfg_FM_25Q08)
	addi	a5,a5,%lo(flashCfg_FM_25Q08)
	.loc 1 263 13
	li	a2,84
	mv	a1,a5
	lw	a0,-48(s0)
	call	BL602_MemCpy_Fast
	.loc 1 264 13
	j	.L15
.L14:
	.loc 1 261 57 discriminator 2
	lw	a5,-20(s0)
	addi	a5,a5,1
	sw	a5,-20(s0)
.L13:
	.loc 1 261 14 discriminator 1
	lw	a5,-20(s0)
	beq	a5,zero,.L16
.L15:
	.loc 1 267 7
	lw	a4,-20(s0)
	li	a5,1
	bne	a4,a5,.L17
	.loc 1 268 16
	lw	a5,-24(s0)
	j	.L12
.L17:
	.loc 1 270 23
	lw	a4,-24(s0)
	li	a5,-2147483648
	or	a5,a4,a5
.L12:
	.loc 1 272 1
	mv	a0,a5
	lw	ra,44(sp)
	.cfi_restore 1
	lw	s0,40(sp)
	.cfi_restore 8
	.cfi_def_cfa 2, 48
	addi	sp,sp,48
	.cfi_def_cfa_offset 0
	jr	ra
	.cfi_endproc
.LFE9:
	.size	SF_Cfg_Flash_Identify_Ext, .-SF_Cfg_Flash_Identify_Ext
	.text
.Letext0:
	.file 2 "/home/chandu/sdk/bl602_iot_sdk/toolchain/compiler/lib/gcc/riscv32-unknown-elf/15.1.0/include/stdint-gcc.h"
	.file 3 "/home/chandu/sdk/bl602_iot_sdk/components/bl602/bl602_std/bl602_std/StdDriver/Inc/bl602_common.h"
	.file 4 "/home/chandu/sdk/bl602_iot_sdk/components/bl602/bl602_std/bl602_std/StdDriver/Inc/bl602_sf_ctrl.h"
	.file 5 "/home/chandu/sdk/bl602_iot_sdk/components/bl602/bl602_std/bl602_std/StdDriver/Inc/bl602_sflash.h"
	.file 6 "/home/chandu/sdk/bl602_iot_sdk/components/bl602/bl602_std/bl602_std/StdDriver/Inc/bl602_sf_cfg.h"
	.file 7 "/home/chandu/sdk/bl602_iot_sdk/components/bl602/bl602_std/bl602_std/Common/soft_crc/softcrc.h"
	.file 8 "/home/chandu/sdk/bl602_iot_sdk/components/bl602/bl602_std/bl602_std/StdDriver/Inc/bl602_xip_sflash.h"
	.section	.note.GNU-stack,"",@progbits
