	.file	"bl602_sflash_ext.c"
	.option nopic
	.attribute arch, "rv32i2p1_m2p0_f2p2_c2p0_zicsr2p0_zmmul1p0_zca1p0_zcf1p0"
	.attribute unaligned_access, 0
	.attribute stack_align, 16
	.text
.Ltext0:
	.cfi_sections	.debug_frame
	.file 0 "/home/chandu/sdk/bl602_iot_sdk/customer_app/suas_app_pqkem_gateway/build_out/bl602_std" "/home/chandu/sdk/bl602_iot_sdk/components/bl602/bl602_std/bl602_std/StdDriver/Src/bl602_sflash_ext.c"
	.section	.tcm_code,"ax",@progbits
	.align	1
	.globl	SFlash_Restore_From_Powerdown
	.type	SFlash_Restore_From_Powerdown, @function
SFlash_Restore_From_Powerdown:
.LFB8:
	.file 1 "/home/chandu/sdk/bl602_iot_sdk/components/bl602/bl602_std/bl602_std/StdDriver/Src/bl602_sflash_ext.c"
	.loc 1 100 1
	.cfi_startproc
	addi	sp,sp,-48
	.cfi_def_cfa_offset 48
	sw	ra,44(sp)
	sw	s0,40(sp)
	.cfi_offset 1, -4
	.cfi_offset 8, -8
	addi	s0,sp,48
	.cfi_def_cfa 8, 0
	sw	a0,-36(s0)
	mv	a5,a1
	sb	a5,-37(s0)
	.loc 1 101 17
	sb	zero,-17(s0)
	.loc 1 102 14
	sw	zero,-24(s0)
	.loc 1 104 29
	lw	a5,-36(s0)
	lbu	a5,0(a5)
	.loc 1 104 13
	andi	a5,a5,15
	sb	a5,-18(s0)
	.loc 1 107 5
	lw	a0,-36(s0)
	call	SFlash_Releae_Powerdown
	.loc 1 108 5
	li	a0,120
	call	BL602_Delay_US
	.loc 1 110 5
	addi	a5,s0,-24
	mv	a1,a5
	lw	a0,-36(s0)
	call	SFlash_GetJedecId
	.loc 1 112 7
	lbu	a4,-18(s0)
	li	a5,2
	beq	a4,a5,.L2
	.loc 1 112 31 discriminator 1
	lbu	a4,-18(s0)
	li	a5,4
	bne	a4,a5,.L3
.L2:
	.loc 1 113 9
	lw	a0,-36(s0)
	call	SFlash_Qspi_Enable
.L3:
	.loc 1 116 19
	lw	a5,-36(s0)
	lbu	a5,0(a5)
	.loc 1 116 31
	srli	a5,a5,4
	andi	a5,a5,0xff
	andi	a5,a5,1
	.loc 1 116 7
	beq	a5,zero,.L4
	.loc 1 118 9
	li	a0,0
	call	L1C_Set_Wrap
	j	.L5
.L4:
	.loc 1 121 9
	li	a0,1
	call	L1C_Set_Wrap
	.loc 1 123 9
	lw	a0,-36(s0)
	call	SFlash_Write_Enable
	.loc 1 124 9
	lw	a0,-36(s0)
	call	SFlash_SetBurstWrap
.L5:
	.loc 1 127 7
	lbu	a5,-37(s0)
	beq	a5,zero,.L6
	.loc 1 128 14
	addi	a4,s0,-32
	lbu	a1,-18(s0)
	li	a5,8
	li	a3,0
	li	a2,1
	lw	a0,-36(s0)
	call	SFlash_Read
	mv	a5,a0
	sb	a5,-17(s0)
	.loc 1 129 14
	lbu	a5,-18(s0)
	li	a4,32
	li	a3,0
	li	a2,1
	mv	a1,a5
	lw	a0,-36(s0)
	call	SFlash_Set_IDbus_Cfg
	mv	a5,a0
	sb	a5,-17(s0)
	j	.L7
.L6:
	.loc 1 131 14
	lbu	a5,-18(s0)
	li	a4,32
	li	a3,0
	li	a2,0
	mv	a1,a5
	lw	a0,-36(s0)
	call	SFlash_Set_IDbus_Cfg
	mv	a5,a0
	sb	a5,-17(s0)
.L7:
	.loc 1 133 12
	lbu	a5,-17(s0)
	.loc 1 134 1
	mv	a0,a5
	lw	ra,44(sp)
	.cfi_restore 1
	lw	s0,40(sp)
	.cfi_restore 8
	.cfi_def_cfa 2, 48
	addi	sp,sp,48
	.cfi_def_cfa_offset 0
	jr	ra
	.cfi_endproc
.LFE8:
	.size	SFlash_Restore_From_Powerdown, .-SFlash_Restore_From_Powerdown
	.text
.Letext0:
	.file 2 "/home/chandu/sdk/bl602_iot_sdk/toolchain/compiler/lib/gcc/riscv32-unknown-elf/15.1.0/include/stdint-gcc.h"
	.file 3 "/home/chandu/sdk/bl602_iot_sdk/components/bl602/bl602_std/bl602_std/StdDriver/Inc/bl602_common.h"
	.file 4 "/home/chandu/sdk/bl602_iot_sdk/components/bl602/bl602_std/bl602_std/StdDriver/Inc/bl602_sf_ctrl.h"
	.file 5 "/home/chandu/sdk/bl602_iot_sdk/components/bl602/bl602_std/bl602_std/StdDriver/Inc/bl602_sflash.h"
	.file 6 "/home/chandu/sdk/bl602_iot_sdk/components/bl602/bl602_std/bl602_std/StdDriver/Inc/bl602_l1c.h"
	.section	.note.GNU-stack,"",@progbits
