	.file	"bl602_glb.c"
	.option nopic
	.attribute arch, "rv32i2p1_m2p0_f2p2_c2p0_zicsr2p0_zmmul1p0_zca1p0_zcf1p0"
	.attribute unaligned_access, 0
	.attribute stack_align, 16
	.text
.Ltext0:
	.cfi_sections	.debug_frame
	.file 0 "/home/chandu/sdk/bl602_iot_sdk/customer_app/suas_app_pqkem_gateway/build_out/bl602_std" "/home/chandu/sdk/bl602_iot_sdk/components/bl602/bl602_std/bl602_std/StdDriver/Src/bl602_glb.c"
	.section	.sbss.glbBmxErrIntCbfArra,"aw",@nobits
	.align	2
	.type	glbBmxErrIntCbfArra, @object
	.size	glbBmxErrIntCbfArra, 4
glbBmxErrIntCbfArra:
	.zero	4
	.section	.sbss.glbBmxToIntCbfArra,"aw",@nobits
	.align	2
	.type	glbBmxToIntCbfArra, @object
	.size	glbBmxToIntCbfArra, 4
glbBmxToIntCbfArra:
	.zero	4
	.section	.bss.glbGpioInt0CbfArra,"aw",@nobits
	.align	2
	.type	glbGpioInt0CbfArra, @object
	.size	glbGpioInt0CbfArra, 92
glbGpioInt0CbfArra:
	.zero	92
	.section	.sclock_rlt_code,"ax",@progbits
	.align	1
	.weak	GLB_Get_Root_CLK_Sel
	.type	GLB_Get_Root_CLK_Sel, @function
GLB_Get_Root_CLK_Sel:
.LFB8:
	.file 1 "/home/chandu/sdk/bl602_iot_sdk/components/bl602/bl602_std/bl602_std/StdDriver/Src/bl602_glb.c"
	.loc 1 110 1
	.cfi_startproc
	addi	sp,sp,-32
	.cfi_def_cfa_offset 32
	sw	ra,28(sp)
	sw	s0,24(sp)
	.cfi_offset 1, -4
	.cfi_offset 8, -8
	addi	s0,sp,32
	.cfi_def_cfa 8, 0
	.loc 1 111 14
	sw	zero,-20(s0)
	.loc 1 113 15
	li	a5,1073741824
	.loc 1 113 12
	lw	a5,0(a5)
	sw	a5,-20(s0)
	.loc 1 115 50
	lw	a5,-20(s0)
	srli	a5,a5,6
	andi	a5,a5,3
	.loc 1 115 5
	li	a4,3
	bgtu	a5,a4,.L2
	li	a4,2
	bgeu	a5,a4,.L3
	beq	a5,zero,.L4
	li	a4,1
	beq	a5,a4,.L5
	j	.L2
.L4:
	.loc 1 117 20
	li	a5,0
	j	.L6
.L5:
	.loc 1 119 20
	li	a5,1
	j	.L6
.L3:
	.loc 1 122 20
	li	a5,2
	j	.L6
.L2:
	.loc 1 124 20
	li	a5,0
.L6:
	.loc 1 126 1
	mv	a0,a5
	lw	ra,28(sp)
	.cfi_restore 1
	lw	s0,24(sp)
	.cfi_restore 8
	.cfi_def_cfa 2, 32
	addi	sp,sp,32
	.cfi_def_cfa_offset 0
	jr	ra
	.cfi_endproc
.LFE8:
	.size	GLB_Get_Root_CLK_Sel, .-GLB_Get_Root_CLK_Sel
	.align	1
	.weak	GLB_Set_System_CLK_Div
	.type	GLB_Set_System_CLK_Div, @function
GLB_Set_System_CLK_Div:
.LFB9:
	.loc 1 141 1
	.cfi_startproc
	addi	sp,sp,-48
	.cfi_def_cfa_offset 48
	sw	ra,44(sp)
	sw	s0,40(sp)
	.cfi_offset 1, -4
	.cfi_offset 8, -8
	addi	s0,sp,48
	.cfi_def_cfa 8, 0
	mv	a5,a0
	mv	a4,a1
	sb	a5,-33(s0)
	mv	a5,a4
	sb	a5,-34(s0)
	.loc 1 145 13
	li	a5,1073741824
	.loc 1 145 11
	lw	a5,0(a5)
	sw	a5,-20(s0)
	.loc 1 146 23
	lw	a4,-20(s0)
	li	a5,-65536
	addi	a5,a5,255
	and	a4,a4,a5
	.loc 1 146 54
	lbu	a5,-33(s0)
	.loc 1 146 73
	slli	a5,a5,8
	.loc 1 146 11
	or	a5,a4,a5
	sw	a5,-20(s0)
	.loc 1 147 23
	lw	a4,-20(s0)
	li	a5,-16711680
	addi	a5,a5,-1
	and	a4,a4,a5
	.loc 1 147 55
	lbu	a5,-34(s0)
	.loc 1 147 74
	slli	a5,a5,16
	.loc 1 147 11
	or	a5,a4,a5
	sw	a5,-20(s0)
	.loc 1 148 7
	li	a5,1073741824
	.loc 1 148 59
	lw	a4,-20(s0)
	sw	a4,0(a5)
	.loc 1 149 6
	li	a5,1073745920
	addi	a5,a5,-4
	.loc 1 149 40
	li	a4,1
	sw	a4,0(a5)
	.loc 1 150 6
	li	a5,1073745920
	addi	a5,a5,-4
	.loc 1 150 40
	sw	zero,0(a5)
	.loc 1 151 44
	li	a5,1073803264
	addi	a5,a5,264
	lw	a4,0(a5)
	.loc 1 151 82
	lbu	a5,-33(s0)
	.loc 1 151 99
	addi	a5,a5,1
	mv	a3,a5
	.loc 1 151 7
	li	a5,1073803264
	addi	a5,a5,264
	.loc 1 151 80
	divu	a4,a4,a3
	.loc 1 151 41
	sw	a4,0(a5)
	.loc 1 152 6
 #APP
# 152 "/home/chandu/sdk/bl602_iot_sdk/components/bl602/bl602_std/bl602_std/StdDriver/Src/bl602_glb.c" 1
	nop
# 0 "" 2
	.loc 1 152 29
# 152 "/home/chandu/sdk/bl602_iot_sdk/components/bl602/bl602_std/bl602_std/StdDriver/Src/bl602_glb.c" 1
	nop
# 0 "" 2
	.loc 1 152 52
# 152 "/home/chandu/sdk/bl602_iot_sdk/components/bl602/bl602_std/bl602_std/StdDriver/Src/bl602_glb.c" 1
	nop
# 0 "" 2
	.loc 1 152 75
# 152 "/home/chandu/sdk/bl602_iot_sdk/components/bl602/bl602_std/bl602_std/StdDriver/Src/bl602_glb.c" 1
	nop
# 0 "" 2
	.loc 1 152 98
# 152 "/home/chandu/sdk/bl602_iot_sdk/components/bl602/bl602_std/bl602_std/StdDriver/Src/bl602_glb.c" 1
	nop
# 0 "" 2
	.loc 1 152 121
# 152 "/home/chandu/sdk/bl602_iot_sdk/components/bl602/bl602_std/bl602_std/StdDriver/Src/bl602_glb.c" 1
	nop
# 0 "" 2
	.loc 1 152 144
# 152 "/home/chandu/sdk/bl602_iot_sdk/components/bl602/bl602_std/bl602_std/StdDriver/Src/bl602_glb.c" 1
	nop
# 0 "" 2
	.loc 1 152 167
# 152 "/home/chandu/sdk/bl602_iot_sdk/components/bl602/bl602_std/bl602_std/StdDriver/Src/bl602_glb.c" 1
	nop
# 0 "" 2
	.loc 1 154 13
 #NO_APP
	li	a5,1073741824
	.loc 1 154 11
	lw	a5,0(a5)
	sw	a5,-20(s0)
	.loc 1 155 11
	lw	a5,-20(s0)
	ori	a5,a5,4
	sw	a5,-20(s0)
	.loc 1 156 11
	lw	a5,-20(s0)
	ori	a5,a5,8
	sw	a5,-20(s0)
	.loc 1 157 7
	li	a5,1073741824
	.loc 1 157 59
	lw	a4,-20(s0)
	sw	a4,0(a5)
	.loc 1 158 6
 #APP
# 158 "/home/chandu/sdk/bl602_iot_sdk/components/bl602/bl602_std/bl602_std/StdDriver/Src/bl602_glb.c" 1
	nop
# 0 "" 2
	.loc 1 158 29
# 158 "/home/chandu/sdk/bl602_iot_sdk/components/bl602/bl602_std/bl602_std/StdDriver/Src/bl602_glb.c" 1
	nop
# 0 "" 2
	.loc 1 158 52
# 158 "/home/chandu/sdk/bl602_iot_sdk/components/bl602/bl602_std/bl602_std/StdDriver/Src/bl602_glb.c" 1
	nop
# 0 "" 2
	.loc 1 158 75
# 158 "/home/chandu/sdk/bl602_iot_sdk/components/bl602/bl602_std/bl602_std/StdDriver/Src/bl602_glb.c" 1
	nop
# 0 "" 2
	.loc 1 158 98
# 158 "/home/chandu/sdk/bl602_iot_sdk/components/bl602/bl602_std/bl602_std/StdDriver/Src/bl602_glb.c" 1
	nop
# 0 "" 2
	.loc 1 158 121
# 158 "/home/chandu/sdk/bl602_iot_sdk/components/bl602/bl602_std/bl602_std/StdDriver/Src/bl602_glb.c" 1
	nop
# 0 "" 2
	.loc 1 158 144
# 158 "/home/chandu/sdk/bl602_iot_sdk/components/bl602/bl602_std/bl602_std/StdDriver/Src/bl602_glb.c" 1
	nop
# 0 "" 2
	.loc 1 158 167
# 158 "/home/chandu/sdk/bl602_iot_sdk/components/bl602/bl602_std/bl602_std/StdDriver/Src/bl602_glb.c" 1
	nop
# 0 "" 2
	.loc 1 160 12
 #NO_APP
	li	a5,0
	.loc 1 161 1
	mv	a0,a5
	lw	ra,44(sp)
	.cfi_restore 1
	lw	s0,40(sp)
	.cfi_restore 8
	.cfi_def_cfa 2, 48
	addi	sp,sp,48
	.cfi_def_cfa_offset 0
	jr	ra
	.cfi_endproc
.LFE9:
	.size	GLB_Set_System_CLK_Div, .-GLB_Set_System_CLK_Div
	.align	1
	.weak	GLB_Get_BCLK_Div
	.type	GLB_Get_BCLK_Div, @function
GLB_Get_BCLK_Div:
.LFB10:
	.loc 1 175 1
	.cfi_startproc
	addi	sp,sp,-32
	.cfi_def_cfa_offset 32
	sw	ra,28(sp)
	sw	s0,24(sp)
	.cfi_offset 1, -4
	.cfi_offset 8, -8
	addi	s0,sp,32
	.cfi_def_cfa 8, 0
	.loc 1 178 13
	li	a5,1073741824
	.loc 1 178 11
	lw	a5,0(a5)
	sw	a5,-20(s0)
	.loc 1 180 51
	lw	a5,-20(s0)
	srli	a5,a5,16
	andi	a5,a5,0xff
	.loc 1 181 1
	mv	a0,a5
	lw	ra,28(sp)
	.cfi_restore 1
	lw	s0,24(sp)
	.cfi_restore 8
	.cfi_def_cfa 2, 32
	addi	sp,sp,32
	.cfi_def_cfa_offset 0
	jr	ra
	.cfi_endproc
.LFE10:
	.size	GLB_Get_BCLK_Div, .-GLB_Get_BCLK_Div
	.align	1
	.weak	GLB_Get_HCLK_Div
	.type	GLB_Get_HCLK_Div, @function
GLB_Get_HCLK_Div:
.LFB11:
	.loc 1 195 1
	.cfi_startproc
	addi	sp,sp,-32
	.cfi_def_cfa_offset 32
	sw	ra,28(sp)
	sw	s0,24(sp)
	.cfi_offset 1, -4
	.cfi_offset 8, -8
	addi	s0,sp,32
	.cfi_def_cfa 8, 0
	.loc 1 198 13
	li	a5,1073741824
	.loc 1 198 11
	lw	a5,0(a5)
	sw	a5,-20(s0)
	.loc 1 200 50
	lw	a5,-20(s0)
	srli	a5,a5,8
	andi	a5,a5,0xff
	.loc 1 201 1
	mv	a0,a5
	lw	ra,28(sp)
	.cfi_restore 1
	lw	s0,24(sp)
	.cfi_restore 8
	.cfi_def_cfa 2, 32
	addi	sp,sp,32
	.cfi_def_cfa_offset 0
	jr	ra
	.cfi_endproc
.LFE11:
	.size	GLB_Get_HCLK_Div, .-GLB_Get_HCLK_Div
	.align	1
	.weak	Update_SystemCoreClockWith_XTAL
	.type	Update_SystemCoreClockWith_XTAL, @function
Update_SystemCoreClockWith_XTAL:
.LFB12:
	.loc 1 215 1
	.cfi_startproc
	addi	sp,sp,-32
	.cfi_def_cfa_offset 32
	sw	ra,28(sp)
	sw	s0,24(sp)
	.cfi_offset 1, -4
	.cfi_offset 8, -8
	addi	s0,sp,32
	.cfi_def_cfa 8, 0
	mv	a5,a0
	sb	a5,-17(s0)
	.loc 1 218 5
	lbu	a5,-17(s0)
	li	a4,6
	beq	a5,a4,.L14
	li	a4,6
	bgt	a5,a4,.L24
	li	a4,5
	beq	a5,a4,.L16
	li	a4,5
	bgt	a5,a4,.L24
	li	a4,4
	beq	a5,a4,.L17
	li	a4,4
	bgt	a5,a4,.L24
	li	a4,3
	beq	a5,a4,.L18
	li	a4,3
	bgt	a5,a4,.L24
	li	a4,2
	beq	a5,a4,.L19
	li	a4,2
	bgt	a5,a4,.L24
	beq	a5,zero,.L25
	li	a4,1
	beq	a5,a4,.L21
	.loc 1 240 13
	j	.L24
.L21:
	.loc 1 222 15
	li	a5,1073803264
	addi	a5,a5,264
	.loc 1 222 49
	li	a4,23998464
	addi	a4,a4,1536
	sw	a4,0(a5)
	.loc 1 223 13
	j	.L22
.L19:
	.loc 1 225 15
	li	a5,1073803264
	addi	a5,a5,264
	.loc 1 225 49
	li	a4,32002048
	addi	a4,a4,-2048
	sw	a4,0(a5)
	.loc 1 226 13
	j	.L22
.L18:
	.loc 1 228 15
	li	a5,1073803264
	addi	a5,a5,264
	.loc 1 228 49
	li	a4,38400000
	sw	a4,0(a5)
	.loc 1 229 13
	j	.L22
.L17:
	.loc 1 231 15
	li	a5,1073803264
	addi	a5,a5,264
	.loc 1 231 49
	li	a4,40001536
	addi	a4,a4,-1536
	sw	a4,0(a5)
	.loc 1 232 13
	j	.L22
.L16:
	.loc 1 234 15
	li	a5,1073803264
	addi	a5,a5,264
	.loc 1 234 49
	li	a4,26001408
	addi	a4,a4,-1408
	sw	a4,0(a5)
	.loc 1 235 13
	j	.L22
.L14:
	.loc 1 237 15
	li	a5,1073803264
	addi	a5,a5,264
	.loc 1 237 49
	li	a4,32002048
	addi	a4,a4,-2048
	sw	a4,0(a5)
	.loc 1 238 13
	j	.L22
.L24:
	.loc 1 240 13
	nop
	j	.L22
.L25:
	.loc 1 220 13
	nop
.L22:
	.loc 1 243 12
	li	a5,0
	.loc 1 244 1
	mv	a0,a5
	lw	ra,28(sp)
	.cfi_restore 1
	lw	s0,24(sp)
	.cfi_restore 8
	.cfi_def_cfa 2, 32
	addi	sp,sp,32
	.cfi_def_cfa_offset 0
	jr	ra
	.cfi_endproc
.LFE12:
	.size	Update_SystemCoreClockWith_XTAL, .-Update_SystemCoreClockWith_XTAL
	.align	1
	.weak	GLB_Set_System_CLK
	.type	GLB_Set_System_CLK, @function
GLB_Set_System_CLK:
.LFB13:
	.loc 1 259 1
	.cfi_startproc
	addi	sp,sp,-48
	.cfi_def_cfa_offset 48
	sw	ra,44(sp)
	sw	s0,40(sp)
	.cfi_offset 1, -4
	.cfi_offset 8, -8
	addi	s0,sp,48
	.cfi_def_cfa 8, 0
	mv	a5,a0
	mv	a4,a1
	sb	a5,-33(s0)
	mv	a5,a4
	sb	a5,-34(s0)
	.loc 1 266 15
	li	a5,1073741824
	.loc 1 266 12
	lw	a5,0(a5)
	sw	a5,-20(s0)
	.loc 1 267 12
	lw	a5,-20(s0)
	ori	a5,a5,8
	sw	a5,-20(s0)
	.loc 1 268 12
	lw	a5,-20(s0)
	ori	a5,a5,4
	sw	a5,-20(s0)
	.loc 1 269 12
	lw	a5,-20(s0)
	ori	a5,a5,2
	sw	a5,-20(s0)
	.loc 1 270 7
	li	a5,1073741824
	.loc 1 270 59
	lw	a4,-20(s0)
	sw	a4,0(a5)
	.loc 1 273 5
	li	a0,0
	call	HBN_Set_ROOT_CLK_Sel
	.loc 1 274 5
	li	a1,0
	li	a0,0
	call	GLB_Set_System_CLK_Div
	.loc 1 275 7
	li	a5,1073803264
	addi	a5,a5,264
	.loc 1 275 41
	li	a4,32002048
	addi	a4,a4,-2048
	sw	a4,0(a5)
	.loc 1 278 5
	li	a0,0
	call	GLB_Set_PKA_CLK_Sel
	.loc 1 280 7
	lbu	a5,-33(s0)
	bne	a5,zero,.L27
	.loc 1 281 11
	lbu	a5,-34(s0)
	bne	a5,zero,.L28
	.loc 1 282 20
	li	a5,0
	j	.L29
.L28:
	.loc 1 284 20
	li	a5,1
	j	.L29
.L27:
	.loc 1 288 7
	lbu	a4,-33(s0)
	li	a5,6
	beq	a4,a5,.L30
	.loc 1 290 9
	call	AON_Power_On_XTAL
.L30:
	.loc 1 294 5
	lbu	a5,-33(s0)
	mv	a0,a5
	call	PDS_Power_On_PLL
	.loc 1 295 5
	li	a0,55
	call	BL602_Delay_US
	.loc 1 296 5
	call	PDS_Enable_PLL_All_Clks
	.loc 1 299 15
	li	a5,1073741824
	.loc 1 299 12
	lw	a5,0(a5)
	sw	a5,-20(s0)
	.loc 1 300 12
	lw	a5,-20(s0)
	ori	a5,a5,1
	sw	a5,-20(s0)
	.loc 1 301 7
	li	a5,1073741824
	.loc 1 301 59
	lw	a4,-20(s0)
	sw	a4,0(a5)
	.loc 1 304 7
	lbu	a4,-34(s0)
	li	a5,1
	bleu	a4,a5,.L31
	.loc 1 305 19
	li	a5,1073741824
	.loc 1 305 16
	lw	a5,0(a5)
	sw	a5,-20(s0)
	.loc 1 306 29
	lw	a5,-20(s0)
	andi	a4,a5,-49
	.loc 1 306 78
	lbu	a5,-34(s0)
	addi	a5,a5,-2
	.loc 1 306 98
	slli	a5,a5,4
	.loc 1 306 16
	or	a5,a4,a5
	sw	a5,-20(s0)
	.loc 1 307 11
	li	a5,1073741824
	.loc 1 307 63
	lw	a4,-20(s0)
	sw	a4,0(a5)
.L31:
	.loc 1 310 5
	lbu	a5,-34(s0)
	li	a4,5
	beq	a5,a4,.L32
	li	a4,5
	bgt	a5,a4,.L40
	li	a4,4
	beq	a5,a4,.L34
	li	a4,4
	bgt	a5,a4,.L40
	li	a4,3
	beq	a5,a4,.L35
	li	a4,3
	bgt	a5,a4,.L40
	li	a4,2
	beq	a5,a4,.L36
	li	a4,2
	bgt	a5,a4,.L40
	beq	a5,zero,.L41
	li	a4,1
	beq	a5,a4,.L38
	.loc 1 339 13
	j	.L40
.L38:
	.loc 1 314 13
	li	a0,1
	call	HBN_Set_ROOT_CLK_Sel
	.loc 1 315 13
	lbu	a5,-33(s0)
	mv	a0,a5
	call	Update_SystemCoreClockWith_XTAL
	.loc 1 316 13
	j	.L39
.L36:
	.loc 1 318 13
	li	a0,2
	call	HBN_Set_ROOT_CLK_Sel
	.loc 1 319 15
	li	a5,1073803264
	addi	a5,a5,264
	.loc 1 319 49
	li	a4,48001024
	addi	a4,a4,-1024
	sw	a4,0(a5)
	.loc 1 320 13
	j	.L39
.L35:
	.loc 1 322 13
	li	a1,1
	li	a0,0
	call	GLB_Set_System_CLK_Div
	.loc 1 323 13
	li	a0,2
	call	HBN_Set_ROOT_CLK_Sel
	.loc 1 324 15
	li	a5,1073803264
	addi	a5,a5,264
	.loc 1 324 49
	li	a4,120000512
	addi	a4,a4,-512
	sw	a4,0(a5)
	.loc 1 325 13
	j	.L39
.L34:
	.loc 1 327 13
	li	a0,1
	call	L1C_IROM_2T_Access_Set
	.loc 1 328 13
	li	a1,1
	li	a0,0
	call	GLB_Set_System_CLK_Div
	.loc 1 329 13
	li	a0,2
	call	HBN_Set_ROOT_CLK_Sel
	.loc 1 330 15
	li	a5,1073803264
	addi	a5,a5,264
	.loc 1 330 49
	li	a4,160002048
	addi	a4,a4,-2048
	sw	a4,0(a5)
	.loc 1 331 13
	j	.L39
.L32:
	.loc 1 333 13
	li	a0,1
	call	L1C_IROM_2T_Access_Set
	.loc 1 334 13
	li	a1,1
	li	a0,0
	call	GLB_Set_System_CLK_Div
	.loc 1 335 13
	li	a0,2
	call	HBN_Set_ROOT_CLK_Sel
	.loc 1 336 15
	li	a5,1073803264
	addi	a5,a5,264
	.loc 1 336 49
	li	a4,192000000
	sw	a4,0(a5)
	.loc 1 337 13
	j	.L39
.L40:
	.loc 1 339 13
	nop
	j	.L39
.L41:
	.loc 1 312 13
	nop
.L39:
	.loc 1 342 6
 #APP
# 342 "/home/chandu/sdk/bl602_iot_sdk/components/bl602/bl602_std/bl602_std/StdDriver/Src/bl602_glb.c" 1
	nop
# 0 "" 2
	.loc 1 342 29
# 342 "/home/chandu/sdk/bl602_iot_sdk/components/bl602/bl602_std/bl602_std/StdDriver/Src/bl602_glb.c" 1
	nop
# 0 "" 2
	.loc 1 342 52
# 342 "/home/chandu/sdk/bl602_iot_sdk/components/bl602/bl602_std/bl602_std/StdDriver/Src/bl602_glb.c" 1
	nop
# 0 "" 2
	.loc 1 342 75
# 342 "/home/chandu/sdk/bl602_iot_sdk/components/bl602/bl602_std/bl602_std/StdDriver/Src/bl602_glb.c" 1
	nop
# 0 "" 2
	.loc 1 342 98
# 342 "/home/chandu/sdk/bl602_iot_sdk/components/bl602/bl602_std/bl602_std/StdDriver/Src/bl602_glb.c" 1
	nop
# 0 "" 2
	.loc 1 342 121
# 342 "/home/chandu/sdk/bl602_iot_sdk/components/bl602/bl602_std/bl602_std/StdDriver/Src/bl602_glb.c" 1
	nop
# 0 "" 2
	.loc 1 342 144
# 342 "/home/chandu/sdk/bl602_iot_sdk/components/bl602/bl602_std/bl602_std/StdDriver/Src/bl602_glb.c" 1
	nop
# 0 "" 2
	.loc 1 342 167
# 342 "/home/chandu/sdk/bl602_iot_sdk/components/bl602/bl602_std/bl602_std/StdDriver/Src/bl602_glb.c" 1
	nop
# 0 "" 2
	.loc 1 345 5
 #NO_APP
	li	a0,1
	call	GLB_Set_PKA_CLK_Sel
	.loc 1 347 12
	li	a5,0
.L29:
	.loc 1 348 1
	mv	a0,a5
	lw	ra,44(sp)
	.cfi_restore 1
	lw	s0,40(sp)
	.cfi_restore 8
	.cfi_def_cfa 2, 48
	addi	sp,sp,48
	.cfi_def_cfa_offset 0
	jr	ra
	.cfi_endproc
.LFE13:
	.size	GLB_Set_System_CLK, .-GLB_Set_System_CLK
	.align	1
	.weak	System_Core_Clock_Update_From_RC32M
	.type	System_Core_Clock_Update_From_RC32M, @function
System_Core_Clock_Update_From_RC32M:
.LFB14:
	.loc 1 363 1
	.cfi_startproc
	addi	sp,sp,-32
	.cfi_def_cfa_offset 32
	sw	ra,28(sp)
	sw	s0,24(sp)
	.cfi_offset 1, -4
	.cfi_offset 8, -8
	addi	s0,sp,32
	.cfi_def_cfa 8, 0
	.loc 1 364 22
	sw	zero,-28(s0)
	sw	zero,-24(s0)
	sb	zero,-20(s0)
	li	a5,1
	sb	a5,-28(s0)
	li	a5,1
	sb	a5,-25(s0)
	li	a5,1
	sb	a5,-24(s0)
	li	a5,1
	sb	a5,-23(s0)
	.loc 1 374 5
	li	a1,4
	li	a0,6
	call	GLB_Set_System_CLK
	.loc 1 376 5
	addi	a5,s0,-28
	mv	a0,a5
	call	SF_Ctrl_Enable
	.loc 1 377 5
 #APP
# 377 "/home/chandu/sdk/bl602_iot_sdk/components/bl602/bl602_std/bl602_std/StdDriver/Src/bl602_glb.c" 1
	nop
# 0 "" 2
	.loc 1 378 5
# 378 "/home/chandu/sdk/bl602_iot_sdk/components/bl602/bl602_std/bl602_std/StdDriver/Src/bl602_glb.c" 1
	nop
# 0 "" 2
	.loc 1 379 5
# 379 "/home/chandu/sdk/bl602_iot_sdk/components/bl602/bl602_std/bl602_std/StdDriver/Src/bl602_glb.c" 1
	nop
# 0 "" 2
	.loc 1 380 5
# 380 "/home/chandu/sdk/bl602_iot_sdk/components/bl602/bl602_std/bl602_std/StdDriver/Src/bl602_glb.c" 1
	nop
# 0 "" 2
	.loc 1 382 12
 #NO_APP
	li	a5,0
	.loc 1 383 1
	mv	a0,a5
	lw	ra,28(sp)
	.cfi_restore 1
	lw	s0,24(sp)
	.cfi_restore 8
	.cfi_def_cfa 2, 32
	addi	sp,sp,32
	.cfi_def_cfa_offset 0
	jr	ra
	.cfi_endproc
.LFE14:
	.size	System_Core_Clock_Update_From_RC32M, .-System_Core_Clock_Update_From_RC32M
	.section	.text.GLB_Set_BLE_CLK,"ax",@progbits
	.align	1
	.globl	GLB_Set_BLE_CLK
	.type	GLB_Set_BLE_CLK, @function
GLB_Set_BLE_CLK:
.LFB15:
	.loc 1 395 1
	.cfi_startproc
	addi	sp,sp,-48
	.cfi_def_cfa_offset 48
	sw	ra,44(sp)
	sw	s0,40(sp)
	.cfi_offset 1, -4
	.cfi_offset 8, -8
	addi	s0,sp,48
	.cfi_def_cfa 8, 0
	mv	a5,a0
	sb	a5,-33(s0)
	.loc 1 396 14
	sw	zero,-20(s0)
	.loc 1 398 15
	li	a5,1073741824
	addi	a5,a5,4
	.loc 1 398 12
	lw	a5,0(a5)
	sw	a5,-20(s0)
	.loc 1 399 7
	lbu	a5,-33(s0)
	beq	a5,zero,.L45
	.loc 1 400 16
	lw	a4,-20(s0)
	li	a5,16777216
	or	a5,a4,a5
	sw	a5,-20(s0)
	j	.L46
.L45:
	.loc 1 402 16
	lw	a4,-20(s0)
	li	a5,-16777216
	addi	a5,a5,-1
	and	a5,a4,a5
	sw	a5,-20(s0)
.L46:
	.loc 1 404 7
	li	a5,1073741824
	addi	a5,a5,4
	.loc 1 404 59
	lw	a4,-20(s0)
	sw	a4,0(a5)
	.loc 1 406 12
	li	a5,0
	.loc 1 407 1
	mv	a0,a5
	lw	ra,44(sp)
	.cfi_restore 1
	lw	s0,40(sp)
	.cfi_restore 8
	.cfi_def_cfa 2, 48
	addi	sp,sp,48
	.cfi_def_cfa_offset 0
	jr	ra
	.cfi_endproc
.LFE15:
	.size	GLB_Set_BLE_CLK, .-GLB_Set_BLE_CLK
	.section	.text.GLB_Set_WiFi_Core_CLK,"ax",@progbits
	.align	1
	.globl	GLB_Set_WiFi_Core_CLK
	.type	GLB_Set_WiFi_Core_CLK, @function
GLB_Set_WiFi_Core_CLK:
.LFB16:
	.loc 1 418 1
	.cfi_startproc
	addi	sp,sp,-48
	.cfi_def_cfa_offset 48
	sw	ra,44(sp)
	sw	s0,40(sp)
	.cfi_offset 1, -4
	.cfi_offset 8, -8
	addi	s0,sp,48
	.cfi_def_cfa 8, 0
	mv	a5,a0
	sb	a5,-33(s0)
	.loc 1 419 14
	sw	zero,-20(s0)
	.loc 1 423 15
	li	a5,1073741824
	addi	a5,a5,4
	.loc 1 423 12
	lw	a5,0(a5)
	sw	a5,-20(s0)
	.loc 1 424 25
	lw	a5,-20(s0)
	andi	a4,a5,-16
	.loc 1 424 74
	lbu	a5,-33(s0)
	.loc 1 424 12
	or	a5,a4,a5
	sw	a5,-20(s0)
	.loc 1 425 7
	li	a5,1073741824
	addi	a5,a5,4
	.loc 1 425 59
	lw	a4,-20(s0)
	sw	a4,0(a5)
	.loc 1 427 12
	li	a5,0
	.loc 1 428 1
	mv	a0,a5
	lw	ra,44(sp)
	.cfi_restore 1
	lw	s0,40(sp)
	.cfi_restore 8
	.cfi_def_cfa 2, 48
	addi	sp,sp,48
	.cfi_def_cfa_offset 0
	jr	ra
	.cfi_endproc
.LFE16:
	.size	GLB_Set_WiFi_Core_CLK, .-GLB_Set_WiFi_Core_CLK
	.section	.text.GLB_Set_WiFi_Encrypt_CLK,"ax",@progbits
	.align	1
	.globl	GLB_Set_WiFi_Encrypt_CLK
	.type	GLB_Set_WiFi_Encrypt_CLK, @function
GLB_Set_WiFi_Encrypt_CLK:
.LFB17:
	.loc 1 439 1
	.cfi_startproc
	addi	sp,sp,-48
	.cfi_def_cfa_offset 48
	sw	ra,44(sp)
	sw	s0,40(sp)
	.cfi_offset 1, -4
	.cfi_offset 8, -8
	addi	s0,sp,48
	.cfi_def_cfa 8, 0
	mv	a5,a0
	sb	a5,-33(s0)
	.loc 1 440 14
	sw	zero,-20(s0)
	.loc 1 444 15
	li	a5,1073741824
	addi	a5,a5,4
	.loc 1 444 12
	lw	a5,0(a5)
	sw	a5,-20(s0)
	.loc 1 445 25
	lw	a5,-20(s0)
	andi	a4,a5,-241
	.loc 1 445 56
	lbu	a5,-33(s0)
	.loc 1 445 74
	slli	a5,a5,4
	.loc 1 445 12
	or	a5,a4,a5
	sw	a5,-20(s0)
	.loc 1 446 7
	li	a5,1073741824
	addi	a5,a5,4
	.loc 1 446 59
	lw	a4,-20(s0)
	sw	a4,0(a5)
	.loc 1 448 12
	li	a5,0
	.loc 1 449 1
	mv	a0,a5
	lw	ra,44(sp)
	.cfi_restore 1
	lw	s0,40(sp)
	.cfi_restore 8
	.cfi_def_cfa 2, 48
	addi	sp,sp,48
	.cfi_def_cfa_offset 0
	jr	ra
	.cfi_endproc
.LFE17:
	.size	GLB_Set_WiFi_Encrypt_CLK, .-GLB_Set_WiFi_Encrypt_CLK
	.section	.text.GLB_Set_DMA_CLK,"ax",@progbits
	.align	1
	.globl	GLB_Set_DMA_CLK
	.type	GLB_Set_DMA_CLK, @function
GLB_Set_DMA_CLK:
.LFB18:
	.loc 1 461 1
	.cfi_startproc
	addi	sp,sp,-48
	.cfi_def_cfa_offset 48
	sw	ra,44(sp)
	sw	s0,40(sp)
	.cfi_offset 1, -4
	.cfi_offset 8, -8
	addi	s0,sp,48
	.cfi_def_cfa 8, 0
	mv	a5,a0
	mv	a4,a1
	sb	a5,-33(s0)
	mv	a5,a4
	sb	a5,-34(s0)
	.loc 1 465 13
	li	a5,1073741824
	addi	a5,a5,8
	.loc 1 465 11
	lw	a5,0(a5)
	sw	a5,-24(s0)
	.loc 1 466 12
	lw	a5,-24(s0)
	srli	a5,a5,24
	sw	a5,-20(s0)
	.loc 1 467 7
	lbu	a5,-33(s0)
	beq	a5,zero,.L53
	.loc 1 468 21
	lbu	a5,-34(s0)
	li	a4,1
	sll	a5,a4,a5
	mv	a4,a5
	.loc 1 468 17
	lw	a5,-20(s0)
	or	a5,a5,a4
	sw	a5,-20(s0)
	j	.L54
.L53:
	.loc 1 470 24
	lbu	a5,-34(s0)
	li	a4,1
	sll	a5,a4,a5
	.loc 1 470 21
	not	a5,a5
	mv	a4,a5
	.loc 1 470 17
	lw	a5,-20(s0)
	and	a5,a5,a4
	sw	a5,-20(s0)
.L54:
	.loc 1 472 23
	lw	a4,-24(s0)
	li	a5,16777216
	addi	a5,a5,-1
	and	a4,a4,a5
	.loc 1 472 74
	lw	a5,-20(s0)
	slli	a5,a5,24
	.loc 1 472 11
	or	a5,a4,a5
	sw	a5,-24(s0)
	.loc 1 473 7
	li	a5,1073741824
	addi	a5,a5,8
	.loc 1 473 59
	lw	a4,-24(s0)
	sw	a4,0(a5)
	.loc 1 475 12
	li	a5,0
	.loc 1 476 1
	mv	a0,a5
	lw	ra,44(sp)
	.cfi_restore 1
	lw	s0,40(sp)
	.cfi_restore 8
	.cfi_def_cfa 2, 48
	addi	sp,sp,48
	.cfi_def_cfa_offset 0
	jr	ra
	.cfi_endproc
.LFE18:
	.size	GLB_Set_DMA_CLK, .-GLB_Set_DMA_CLK
	.section	.text.GLB_Set_IR_CLK,"ax",@progbits
	.align	1
	.globl	GLB_Set_IR_CLK
	.type	GLB_Set_IR_CLK, @function
GLB_Set_IR_CLK:
.LFB19:
	.loc 1 489 1
	.cfi_startproc
	addi	sp,sp,-48
	.cfi_def_cfa_offset 48
	sw	ra,44(sp)
	sw	s0,40(sp)
	.cfi_offset 1, -4
	.cfi_offset 8, -8
	addi	s0,sp,48
	.cfi_def_cfa 8, 0
	mv	a5,a0
	mv	a3,a1
	mv	a4,a2
	sb	a5,-33(s0)
	mv	a5,a3
	sb	a5,-34(s0)
	mv	a5,a4
	sb	a5,-35(s0)
	.loc 1 490 14
	sw	zero,-20(s0)
	.loc 1 495 15
	li	a5,1073741824
	addi	a5,a5,8
	.loc 1 495 12
	lw	a5,0(a5)
	sw	a5,-20(s0)
	.loc 1 496 25
	lw	a4,-20(s0)
	li	a5,-4128768
	addi	a5,a5,-1
	and	a4,a4,a5
	.loc 1 496 57
	lbu	a5,-35(s0)
	.loc 1 496 72
	slli	a5,a5,16
	.loc 1 496 12
	or	a5,a4,a5
	sw	a5,-20(s0)
	.loc 1 497 7
	li	a5,1073741824
	addi	a5,a5,8
	.loc 1 497 59
	lw	a4,-20(s0)
	sw	a4,0(a5)
	.loc 1 499 15
	li	a5,1073741824
	addi	a5,a5,8
	.loc 1 499 12
	lw	a5,0(a5)
	sw	a5,-20(s0)
	.loc 1 500 7
	lbu	a5,-33(s0)
	beq	a5,zero,.L57
	.loc 1 501 16
	lw	a4,-20(s0)
	li	a5,8388608
	or	a5,a4,a5
	sw	a5,-20(s0)
	j	.L58
.L57:
	.loc 1 503 16
	lw	a4,-20(s0)
	li	a5,-8388608
	addi	a5,a5,-1
	and	a5,a4,a5
	sw	a5,-20(s0)
.L58:
	.loc 1 505 7
	li	a5,1073741824
	addi	a5,a5,8
	.loc 1 505 59
	lw	a4,-20(s0)
	sw	a4,0(a5)
	.loc 1 507 12
	li	a5,0
	.loc 1 508 1
	mv	a0,a5
	lw	ra,44(sp)
	.cfi_restore 1
	lw	s0,40(sp)
	.cfi_restore 8
	.cfi_def_cfa 2, 48
	addi	sp,sp,48
	.cfi_def_cfa_offset 0
	jr	ra
	.cfi_endproc
.LFE19:
	.size	GLB_Set_IR_CLK, .-GLB_Set_IR_CLK
	.section	.sclock_rlt_code
	.align	1
	.weak	GLB_Set_SF_CLK
	.type	GLB_Set_SF_CLK, @function
GLB_Set_SF_CLK:
.LFB20:
	.loc 1 523 1
	.cfi_startproc
	addi	sp,sp,-48
	.cfi_def_cfa_offset 48
	sw	ra,44(sp)
	sw	s0,40(sp)
	.cfi_offset 1, -4
	.cfi_offset 8, -8
	addi	s0,sp,48
	.cfi_def_cfa 8, 0
	mv	a5,a0
	mv	a3,a1
	mv	a4,a2
	sb	a5,-33(s0)
	mv	a5,a3
	sb	a5,-34(s0)
	mv	a5,a4
	sb	a5,-35(s0)
	.loc 1 524 14
	sw	zero,-20(s0)
	.loc 1 531 13
	li	a5,1073741824
	addi	a5,a5,8
	.loc 1 531 11
	lw	a5,0(a5)
	sw	a5,-20(s0)
	.loc 1 532 11
	lw	a4,-20(s0)
	li	a5,-4096
	addi	a5,a5,2047
	and	a5,a4,a5
	sw	a5,-20(s0)
	.loc 1 533 7
	li	a5,1073741824
	addi	a5,a5,8
	.loc 1 533 59
	lw	a4,-20(s0)
	sw	a4,0(a5)
	.loc 1 536 8
	sb	zero,-21(s0)
	.loc 1 537 5
	lbu	a5,-21(s0)
	mv	a0,a5
	call	PDS_Enable_PLL_Clk
	.loc 1 540 13
	li	a5,1073741824
	addi	a5,a5,8
	.loc 1 540 11
	lw	a5,0(a5)
	sw	a5,-20(s0)
	.loc 1 541 23
	lw	a5,-20(s0)
	andi	a4,a5,-1793
	.loc 1 541 54
	lbu	a5,-35(s0)
	.loc 1 541 69
	slli	a5,a5,8
	.loc 1 541 11
	or	a5,a4,a5
	sw	a5,-20(s0)
	.loc 1 542 5
	lbu	a5,-34(s0)
	li	a4,5
	beq	a5,a4,.L61
	li	a4,5
	bgt	a5,a4,.L72
	li	a4,4
	beq	a5,a4,.L63
	li	a4,4
	bgt	a5,a4,.L72
	li	a4,3
	beq	a5,a4,.L64
	li	a4,3
	bgt	a5,a4,.L72
	li	a4,2
	beq	a5,a4,.L65
	li	a4,2
	bgt	a5,a4,.L72
	beq	a5,zero,.L66
	li	a4,1
	beq	a5,a4,.L67
	.loc 1 565 13
	j	.L72
.L66:
	.loc 1 544 19
	lw	a4,-20(s0)
	li	a5,-12288
	addi	a5,a5,-1
	and	a5,a4,a5
	sw	a5,-20(s0)
	.loc 1 545 19
	lw	a4,-20(s0)
	li	a5,-49152
	addi	a5,a5,-1
	and	a5,a4,a5
	sw	a5,-20(s0)
	.loc 1 546 13
	j	.L68
.L67:
	.loc 1 548 19
	lw	a4,-20(s0)
	li	a5,-12288
	addi	a5,a5,-1
	and	a5,a4,a5
	sw	a5,-20(s0)
	.loc 1 549 31
	lw	a4,-20(s0)
	li	a5,-49152
	addi	a5,a5,-1
	and	a4,a4,a5
	.loc 1 549 19
	li	a5,16384
	or	a5,a4,a5
	sw	a5,-20(s0)
	.loc 1 550 13
	j	.L68
.L65:
	.loc 1 552 19
	lw	a4,-20(s0)
	li	a5,-12288
	addi	a5,a5,-1
	and	a5,a4,a5
	sw	a5,-20(s0)
	.loc 1 553 19
	lw	a4,-20(s0)
	li	a5,49152
	or	a5,a4,a5
	sw	a5,-20(s0)
	.loc 1 554 13
	j	.L68
.L64:
	.loc 1 556 31
	lw	a4,-20(s0)
	li	a5,-12288
	addi	a5,a5,-1
	and	a4,a4,a5
	.loc 1 556 19
	li	a5,4096
	or	a5,a4,a5
	sw	a5,-20(s0)
	.loc 1 557 13
	j	.L68
.L63:
	.loc 1 559 31
	lw	a4,-20(s0)
	li	a5,-12288
	addi	a5,a5,-1
	and	a4,a4,a5
	.loc 1 559 19
	li	a5,8192
	or	a5,a4,a5
	sw	a5,-20(s0)
	.loc 1 560 13
	j	.L68
.L61:
	.loc 1 562 19
	lw	a4,-20(s0)
	li	a5,12288
	or	a5,a4,a5
	sw	a5,-20(s0)
	.loc 1 563 13
	j	.L68
.L72:
	.loc 1 565 13
	nop
.L68:
	.loc 1 567 7
	li	a5,1073741824
	addi	a5,a5,8
	.loc 1 567 59
	lw	a4,-20(s0)
	sw	a4,0(a5)
	.loc 1 570 13
	li	a5,1073741824
	addi	a5,a5,8
	.loc 1 570 11
	lw	a5,0(a5)
	sw	a5,-20(s0)
	.loc 1 571 7
	lbu	a5,-33(s0)
	beq	a5,zero,.L69
	.loc 1 572 15
	lw	a4,-20(s0)
	li	a5,4096
	addi	a5,a5,-2048
	or	a5,a4,a5
	sw	a5,-20(s0)
	j	.L70
.L69:
	.loc 1 574 15
	lw	a4,-20(s0)
	li	a5,-4096
	addi	a5,a5,2047
	and	a5,a4,a5
	sw	a5,-20(s0)
.L70:
	.loc 1 576 7
	li	a5,1073741824
	addi	a5,a5,8
	.loc 1 576 59
	lw	a4,-20(s0)
	sw	a4,0(a5)
	.loc 1 578 12
	li	a5,0
	.loc 1 579 1
	mv	a0,a5
	lw	ra,44(sp)
	.cfi_restore 1
	lw	s0,40(sp)
	.cfi_restore 8
	.cfi_def_cfa 2, 48
	addi	sp,sp,48
	.cfi_def_cfa_offset 0
	jr	ra
	.cfi_endproc
.LFE20:
	.size	GLB_Set_SF_CLK, .-GLB_Set_SF_CLK
	.section	.text.GLB_Set_UART_CLK,"ax",@progbits
	.align	1
	.globl	GLB_Set_UART_CLK
	.type	GLB_Set_UART_CLK, @function
GLB_Set_UART_CLK:
.LFB21:
	.loc 1 593 1
	.cfi_startproc
	addi	sp,sp,-48
	.cfi_def_cfa_offset 48
	sw	ra,44(sp)
	sw	s0,40(sp)
	.cfi_offset 1, -4
	.cfi_offset 8, -8
	addi	s0,sp,48
	.cfi_def_cfa 8, 0
	mv	a5,a0
	mv	a3,a1
	mv	a4,a2
	sb	a5,-33(s0)
	mv	a5,a3
	sb	a5,-34(s0)
	mv	a5,a4
	sb	a5,-35(s0)
	.loc 1 594 14
	sw	zero,-20(s0)
	.loc 1 600 13
	li	a5,1073741824
	addi	a5,a5,8
	.loc 1 600 11
	lw	a5,0(a5)
	sw	a5,-20(s0)
	.loc 1 601 11
	lw	a5,-20(s0)
	andi	a5,a5,-17
	sw	a5,-20(s0)
	.loc 1 602 7
	li	a5,1073741824
	addi	a5,a5,8
	.loc 1 602 59
	lw	a4,-20(s0)
	sw	a4,0(a5)
	.loc 1 605 13
	li	a5,1073741824
	addi	a5,a5,8
	.loc 1 605 11
	lw	a5,0(a5)
	sw	a5,-20(s0)
	.loc 1 606 23
	lw	a5,-20(s0)
	andi	a4,a5,-8
	.loc 1 606 69
	lbu	a5,-35(s0)
	.loc 1 606 11
	or	a5,a4,a5
	sw	a5,-20(s0)
	.loc 1 607 7
	li	a5,1073741824
	addi	a5,a5,8
	.loc 1 607 59
	lw	a4,-20(s0)
	sw	a4,0(a5)
	.loc 1 610 5
	lbu	a5,-34(s0)
	mv	a0,a5
	call	HBN_Set_UART_CLK_Sel
	.loc 1 613 13
	li	a5,1073741824
	addi	a5,a5,8
	.loc 1 613 11
	lw	a5,0(a5)
	sw	a5,-20(s0)
	.loc 1 614 7
	lbu	a5,-33(s0)
	beq	a5,zero,.L74
	.loc 1 615 15
	lw	a5,-20(s0)
	ori	a5,a5,16
	sw	a5,-20(s0)
	j	.L75
.L74:
	.loc 1 617 15
	lw	a5,-20(s0)
	andi	a5,a5,-17
	sw	a5,-20(s0)
.L75:
	.loc 1 619 7
	li	a5,1073741824
	addi	a5,a5,8
	.loc 1 619 59
	lw	a4,-20(s0)
	sw	a4,0(a5)
	.loc 1 621 12
	li	a5,0
	.loc 1 622 1
	mv	a0,a5
	lw	ra,44(sp)
	.cfi_restore 1
	lw	s0,40(sp)
	.cfi_restore 8
	.cfi_def_cfa 2, 48
	addi	sp,sp,48
	.cfi_def_cfa_offset 0
	jr	ra
	.cfi_endproc
.LFE21:
	.size	GLB_Set_UART_CLK, .-GLB_Set_UART_CLK
	.section	.text.GLB_Set_I2C_CLK,"ax",@progbits
	.align	1
	.globl	GLB_Set_I2C_CLK
	.type	GLB_Set_I2C_CLK, @function
GLB_Set_I2C_CLK:
.LFB22:
	.loc 1 634 1
	.cfi_startproc
	addi	sp,sp,-48
	.cfi_def_cfa_offset 48
	sw	ra,44(sp)
	sw	s0,40(sp)
	.cfi_offset 1, -4
	.cfi_offset 8, -8
	addi	s0,sp,48
	.cfi_def_cfa 8, 0
	mv	a5,a0
	mv	a4,a1
	sb	a5,-33(s0)
	mv	a5,a4
	sb	a5,-34(s0)
	.loc 1 635 14
	sw	zero,-20(s0)
	.loc 1 637 13
	li	a5,1073741824
	addi	a5,a5,12
	.loc 1 637 11
	lw	a5,0(a5)
	sw	a5,-20(s0)
	.loc 1 638 23
	lw	a4,-20(s0)
	li	a5,-16711680
	addi	a5,a5,-1
	and	a4,a4,a5
	.loc 1 638 55
	lbu	a5,-34(s0)
	.loc 1 638 70
	slli	a5,a5,16
	.loc 1 638 11
	or	a5,a4,a5
	sw	a5,-20(s0)
	.loc 1 639 7
	li	a5,1073741824
	addi	a5,a5,12
	.loc 1 639 59
	lw	a4,-20(s0)
	sw	a4,0(a5)
	.loc 1 641 13
	li	a5,1073741824
	addi	a5,a5,12
	.loc 1 641 11
	lw	a5,0(a5)
	sw	a5,-20(s0)
	.loc 1 642 7
	lbu	a5,-33(s0)
	beq	a5,zero,.L78
	.loc 1 643 15
	lw	a4,-20(s0)
	li	a5,16777216
	or	a5,a4,a5
	sw	a5,-20(s0)
	j	.L79
.L78:
	.loc 1 645 15
	lw	a4,-20(s0)
	li	a5,-16777216
	addi	a5,a5,-1
	and	a5,a4,a5
	sw	a5,-20(s0)
.L79:
	.loc 1 647 7
	li	a5,1073741824
	addi	a5,a5,12
	.loc 1 647 59
	lw	a4,-20(s0)
	sw	a4,0(a5)
	.loc 1 649 12
	li	a5,0
	.loc 1 650 1
	mv	a0,a5
	lw	ra,44(sp)
	.cfi_restore 1
	lw	s0,40(sp)
	.cfi_restore 8
	.cfi_def_cfa 2, 48
	addi	sp,sp,48
	.cfi_def_cfa_offset 0
	jr	ra
	.cfi_endproc
.LFE22:
	.size	GLB_Set_I2C_CLK, .-GLB_Set_I2C_CLK
	.section	.text.GLB_Set_SPI_CLK,"ax",@progbits
	.align	1
	.globl	GLB_Set_SPI_CLK
	.type	GLB_Set_SPI_CLK, @function
GLB_Set_SPI_CLK:
.LFB23:
	.loc 1 662 1
	.cfi_startproc
	addi	sp,sp,-48
	.cfi_def_cfa_offset 48
	sw	ra,44(sp)
	sw	s0,40(sp)
	.cfi_offset 1, -4
	.cfi_offset 8, -8
	addi	s0,sp,48
	.cfi_def_cfa 8, 0
	mv	a5,a0
	mv	a4,a1
	sb	a5,-33(s0)
	mv	a5,a4
	sb	a5,-34(s0)
	.loc 1 663 14
	sw	zero,-20(s0)
	.loc 1 667 13
	li	a5,1073741824
	addi	a5,a5,12
	.loc 1 667 11
	lw	a5,0(a5)
	sw	a5,-20(s0)
	.loc 1 668 23
	lw	a5,-20(s0)
	andi	a4,a5,-32
	.loc 1 668 69
	lbu	a5,-34(s0)
	.loc 1 668 11
	or	a5,a4,a5
	sw	a5,-20(s0)
	.loc 1 669 7
	li	a5,1073741824
	addi	a5,a5,12
	.loc 1 669 59
	lw	a4,-20(s0)
	sw	a4,0(a5)
	.loc 1 671 13
	li	a5,1073741824
	addi	a5,a5,12
	.loc 1 671 11
	lw	a5,0(a5)
	sw	a5,-20(s0)
	.loc 1 672 7
	lbu	a5,-33(s0)
	beq	a5,zero,.L82
	.loc 1 673 15
	lw	a5,-20(s0)
	ori	a5,a5,256
	sw	a5,-20(s0)
	j	.L83
.L82:
	.loc 1 675 15
	lw	a5,-20(s0)
	andi	a5,a5,-257
	sw	a5,-20(s0)
.L83:
	.loc 1 677 7
	li	a5,1073741824
	addi	a5,a5,12
	.loc 1 677 59
	lw	a4,-20(s0)
	sw	a4,0(a5)
	.loc 1 679 12
	li	a5,0
	.loc 1 680 1
	mv	a0,a5
	lw	ra,44(sp)
	.cfi_restore 1
	lw	s0,40(sp)
	.cfi_restore 8
	.cfi_def_cfa 2, 48
	addi	sp,sp,48
	.cfi_def_cfa_offset 0
	jr	ra
	.cfi_endproc
.LFE23:
	.size	GLB_Set_SPI_CLK, .-GLB_Set_SPI_CLK
	.section	.sclock_rlt_code
	.align	1
	.weak	GLB_Set_PKA_CLK_Sel
	.type	GLB_Set_PKA_CLK_Sel, @function
GLB_Set_PKA_CLK_Sel:
.LFB24:
	.loc 1 693 1
	.cfi_startproc
	addi	sp,sp,-48
	.cfi_def_cfa_offset 48
	sw	ra,44(sp)
	sw	s0,40(sp)
	.cfi_offset 1, -4
	.cfi_offset 8, -8
	addi	s0,sp,48
	.cfi_def_cfa 8, 0
	mv	a5,a0
	sb	a5,-33(s0)
	.loc 1 694 14
	sw	zero,-20(s0)
	.loc 1 698 13
	li	a5,1073741824
	addi	a5,a5,24
	.loc 1 698 11
	lw	a5,0(a5)
	sw	a5,-20(s0)
	.loc 1 699 23
	lw	a4,-20(s0)
	li	a5,-16777216
	addi	a5,a5,-1
	and	a4,a4,a5
	.loc 1 699 55
	lbu	a5,-33(s0)
	.loc 1 699 73
	slli	a5,a5,24
	.loc 1 699 11
	or	a5,a4,a5
	sw	a5,-20(s0)
	.loc 1 700 7
	li	a5,1073741824
	addi	a5,a5,24
	.loc 1 700 60
	lw	a4,-20(s0)
	sw	a4,0(a5)
	.loc 1 702 12
	li	a5,0
	.loc 1 703 1
	mv	a0,a5
	lw	ra,44(sp)
	.cfi_restore 1
	lw	s0,40(sp)
	.cfi_restore 8
	.cfi_def_cfa 2, 48
	addi	sp,sp,48
	.cfi_def_cfa_offset 0
	jr	ra
	.cfi_endproc
.LFE24:
	.size	GLB_Set_PKA_CLK_Sel, .-GLB_Set_PKA_CLK_Sel
	.section	.tcm_code,"ax",@progbits
	.align	1
	.weak	GLB_SW_System_Reset
	.type	GLB_SW_System_Reset, @function
GLB_SW_System_Reset:
.LFB25:
	.loc 1 717 1
	.cfi_startproc
	addi	sp,sp,-32
	.cfi_def_cfa_offset 32
	sw	ra,28(sp)
	sw	s0,24(sp)
	.cfi_offset 1, -4
	.cfi_offset 8, -8
	addi	s0,sp,32
	.cfi_def_cfa 8, 0
	.loc 1 721 13
	li	a5,1073803264
	addi	a5,a5,48
	.loc 1 721 11
	lw	a5,0(a5)
	sw	a5,-20(s0)
	.loc 1 722 11
	lw	a5,-20(s0)
	andi	a5,a5,-4
	sw	a5,-20(s0)
	.loc 1 723 7
	li	a5,1073803264
	addi	a5,a5,48
	.loc 1 723 60
	lw	a4,-20(s0)
	sw	a4,0(a5)
	.loc 1 724 6
 #APP
# 724 "/home/chandu/sdk/bl602_iot_sdk/components/bl602/bl602_std/bl602_std/StdDriver/Src/bl602_glb.c" 1
	nop
# 0 "" 2
	.loc 1 724 29
# 724 "/home/chandu/sdk/bl602_iot_sdk/components/bl602/bl602_std/bl602_std/StdDriver/Src/bl602_glb.c" 1
	nop
# 0 "" 2
	.loc 1 724 52
# 724 "/home/chandu/sdk/bl602_iot_sdk/components/bl602/bl602_std/bl602_std/StdDriver/Src/bl602_glb.c" 1
	nop
# 0 "" 2
	.loc 1 724 75
# 724 "/home/chandu/sdk/bl602_iot_sdk/components/bl602/bl602_std/bl602_std/StdDriver/Src/bl602_glb.c" 1
	nop
# 0 "" 2
	.loc 1 724 98
# 724 "/home/chandu/sdk/bl602_iot_sdk/components/bl602/bl602_std/bl602_std/StdDriver/Src/bl602_glb.c" 1
	nop
# 0 "" 2
	.loc 1 724 121
# 724 "/home/chandu/sdk/bl602_iot_sdk/components/bl602/bl602_std/bl602_std/StdDriver/Src/bl602_glb.c" 1
	nop
# 0 "" 2
	.loc 1 724 144
# 724 "/home/chandu/sdk/bl602_iot_sdk/components/bl602/bl602_std/bl602_std/StdDriver/Src/bl602_glb.c" 1
	nop
# 0 "" 2
	.loc 1 724 167
# 724 "/home/chandu/sdk/bl602_iot_sdk/components/bl602/bl602_std/bl602_std/StdDriver/Src/bl602_glb.c" 1
	nop
# 0 "" 2
	.loc 1 727 13
 #NO_APP
	li	a5,1073741824
	.loc 1 727 11
	lw	a5,0(a5)
	sw	a5,-20(s0)
	.loc 1 728 11
	lw	a4,-20(s0)
	li	a5,-16711680
	addi	a5,a5,-1
	and	a5,a4,a5
	sw	a5,-20(s0)
	.loc 1 729 11
	lw	a4,-20(s0)
	li	a5,-65536
	addi	a5,a5,255
	and	a5,a4,a5
	sw	a5,-20(s0)
	.loc 1 730 7
	li	a5,1073741824
	.loc 1 730 59
	lw	a4,-20(s0)
	sw	a4,0(a5)
	.loc 1 731 6
	li	a5,1073745920
	addi	a5,a5,-4
	.loc 1 731 40
	li	a4,1
	sw	a4,0(a5)
	.loc 1 732 6
	li	a5,1073745920
	addi	a5,a5,-4
	.loc 1 732 40
	sw	zero,0(a5)
	.loc 1 733 6
 #APP
# 733 "/home/chandu/sdk/bl602_iot_sdk/components/bl602/bl602_std/bl602_std/StdDriver/Src/bl602_glb.c" 1
	nop
# 0 "" 2
	.loc 1 733 29
# 733 "/home/chandu/sdk/bl602_iot_sdk/components/bl602/bl602_std/bl602_std/StdDriver/Src/bl602_glb.c" 1
	nop
# 0 "" 2
	.loc 1 733 52
# 733 "/home/chandu/sdk/bl602_iot_sdk/components/bl602/bl602_std/bl602_std/StdDriver/Src/bl602_glb.c" 1
	nop
# 0 "" 2
	.loc 1 733 75
# 733 "/home/chandu/sdk/bl602_iot_sdk/components/bl602/bl602_std/bl602_std/StdDriver/Src/bl602_glb.c" 1
	nop
# 0 "" 2
	.loc 1 733 98
# 733 "/home/chandu/sdk/bl602_iot_sdk/components/bl602/bl602_std/bl602_std/StdDriver/Src/bl602_glb.c" 1
	nop
# 0 "" 2
	.loc 1 733 121
# 733 "/home/chandu/sdk/bl602_iot_sdk/components/bl602/bl602_std/bl602_std/StdDriver/Src/bl602_glb.c" 1
	nop
# 0 "" 2
	.loc 1 733 144
# 733 "/home/chandu/sdk/bl602_iot_sdk/components/bl602/bl602_std/bl602_std/StdDriver/Src/bl602_glb.c" 1
	nop
# 0 "" 2
	.loc 1 733 167
# 733 "/home/chandu/sdk/bl602_iot_sdk/components/bl602/bl602_std/bl602_std/StdDriver/Src/bl602_glb.c" 1
	nop
# 0 "" 2
	.loc 1 736 13
 #NO_APP
	li	a5,1073741824
	addi	a5,a5,24
	.loc 1 736 11
	lw	a5,0(a5)
	sw	a5,-20(s0)
	.loc 1 737 11
	lw	a5,-20(s0)
	andi	a5,a5,-5
	sw	a5,-20(s0)
	.loc 1 738 11
	lw	a5,-20(s0)
	andi	a5,a5,-3
	sw	a5,-20(s0)
	.loc 1 739 11
	lw	a5,-20(s0)
	andi	a5,a5,-2
	sw	a5,-20(s0)
	.loc 1 740 7
	li	a5,1073741824
	addi	a5,a5,24
	.loc 1 740 60
	lw	a4,-20(s0)
	sw	a4,0(a5)
	.loc 1 742 13
	li	a5,1073741824
	addi	a5,a5,24
	.loc 1 742 11
	lw	a5,0(a5)
	sw	a5,-20(s0)
	.loc 1 743 11
	lw	a5,-20(s0)
	ori	a5,a5,4
	sw	a5,-20(s0)
	.loc 1 744 11
	lw	a5,-20(s0)
	ori	a5,a5,2
	sw	a5,-20(s0)
	.loc 1 746 7
	li	a5,1073741824
	addi	a5,a5,24
	.loc 1 746 60
	lw	a4,-20(s0)
	sw	a4,0(a5)
.L88:
	.loc 1 750 9 discriminator 2
	li	a0,10
	call	BL602_Delay_US
	j	.L88
	.cfi_endproc
.LFE25:
	.size	GLB_SW_System_Reset, .-GLB_SW_System_Reset
	.align	1
	.weak	GLB_SW_CPU_Reset
	.type	GLB_SW_CPU_Reset, @function
GLB_SW_CPU_Reset:
.LFB26:
	.loc 1 768 1
	.cfi_startproc
	addi	sp,sp,-32
	.cfi_def_cfa_offset 32
	sw	ra,28(sp)
	sw	s0,24(sp)
	.cfi_offset 1, -4
	.cfi_offset 8, -8
	addi	s0,sp,32
	.cfi_def_cfa 8, 0
	.loc 1 772 13
	li	a5,1073803264
	addi	a5,a5,48
	.loc 1 772 11
	lw	a5,0(a5)
	sw	a5,-20(s0)
	.loc 1 773 11
	lw	a5,-20(s0)
	andi	a5,a5,-4
	sw	a5,-20(s0)
	.loc 1 774 7
	li	a5,1073803264
	addi	a5,a5,48
	.loc 1 774 60
	lw	a4,-20(s0)
	sw	a4,0(a5)
	.loc 1 775 6
 #APP
# 775 "/home/chandu/sdk/bl602_iot_sdk/components/bl602/bl602_std/bl602_std/StdDriver/Src/bl602_glb.c" 1
	nop
# 0 "" 2
	.loc 1 775 29
# 775 "/home/chandu/sdk/bl602_iot_sdk/components/bl602/bl602_std/bl602_std/StdDriver/Src/bl602_glb.c" 1
	nop
# 0 "" 2
	.loc 1 775 52
# 775 "/home/chandu/sdk/bl602_iot_sdk/components/bl602/bl602_std/bl602_std/StdDriver/Src/bl602_glb.c" 1
	nop
# 0 "" 2
	.loc 1 775 75
# 775 "/home/chandu/sdk/bl602_iot_sdk/components/bl602/bl602_std/bl602_std/StdDriver/Src/bl602_glb.c" 1
	nop
# 0 "" 2
	.loc 1 775 98
# 775 "/home/chandu/sdk/bl602_iot_sdk/components/bl602/bl602_std/bl602_std/StdDriver/Src/bl602_glb.c" 1
	nop
# 0 "" 2
	.loc 1 775 121
# 775 "/home/chandu/sdk/bl602_iot_sdk/components/bl602/bl602_std/bl602_std/StdDriver/Src/bl602_glb.c" 1
	nop
# 0 "" 2
	.loc 1 775 144
# 775 "/home/chandu/sdk/bl602_iot_sdk/components/bl602/bl602_std/bl602_std/StdDriver/Src/bl602_glb.c" 1
	nop
# 0 "" 2
	.loc 1 775 167
# 775 "/home/chandu/sdk/bl602_iot_sdk/components/bl602/bl602_std/bl602_std/StdDriver/Src/bl602_glb.c" 1
	nop
# 0 "" 2
	.loc 1 778 13
 #NO_APP
	li	a5,1073741824
	.loc 1 778 11
	lw	a5,0(a5)
	sw	a5,-20(s0)
	.loc 1 779 11
	lw	a4,-20(s0)
	li	a5,-16711680
	addi	a5,a5,-1
	and	a5,a4,a5
	sw	a5,-20(s0)
	.loc 1 780 11
	lw	a4,-20(s0)
	li	a5,-65536
	addi	a5,a5,255
	and	a5,a4,a5
	sw	a5,-20(s0)
	.loc 1 781 7
	li	a5,1073741824
	.loc 1 781 59
	lw	a4,-20(s0)
	sw	a4,0(a5)
	.loc 1 782 6
	li	a5,1073745920
	addi	a5,a5,-4
	.loc 1 782 40
	li	a4,1
	sw	a4,0(a5)
	.loc 1 783 6
	li	a5,1073745920
	addi	a5,a5,-4
	.loc 1 783 40
	sw	zero,0(a5)
	.loc 1 784 6
 #APP
# 784 "/home/chandu/sdk/bl602_iot_sdk/components/bl602/bl602_std/bl602_std/StdDriver/Src/bl602_glb.c" 1
	nop
# 0 "" 2
	.loc 1 784 29
# 784 "/home/chandu/sdk/bl602_iot_sdk/components/bl602/bl602_std/bl602_std/StdDriver/Src/bl602_glb.c" 1
	nop
# 0 "" 2
	.loc 1 784 52
# 784 "/home/chandu/sdk/bl602_iot_sdk/components/bl602/bl602_std/bl602_std/StdDriver/Src/bl602_glb.c" 1
	nop
# 0 "" 2
	.loc 1 784 75
# 784 "/home/chandu/sdk/bl602_iot_sdk/components/bl602/bl602_std/bl602_std/StdDriver/Src/bl602_glb.c" 1
	nop
# 0 "" 2
	.loc 1 784 98
# 784 "/home/chandu/sdk/bl602_iot_sdk/components/bl602/bl602_std/bl602_std/StdDriver/Src/bl602_glb.c" 1
	nop
# 0 "" 2
	.loc 1 784 121
# 784 "/home/chandu/sdk/bl602_iot_sdk/components/bl602/bl602_std/bl602_std/StdDriver/Src/bl602_glb.c" 1
	nop
# 0 "" 2
	.loc 1 784 144
# 784 "/home/chandu/sdk/bl602_iot_sdk/components/bl602/bl602_std/bl602_std/StdDriver/Src/bl602_glb.c" 1
	nop
# 0 "" 2
	.loc 1 784 167
# 784 "/home/chandu/sdk/bl602_iot_sdk/components/bl602/bl602_std/bl602_std/StdDriver/Src/bl602_glb.c" 1
	nop
# 0 "" 2
	.loc 1 787 13
 #NO_APP
	li	a5,1073741824
	addi	a5,a5,24
	.loc 1 787 11
	lw	a5,0(a5)
	sw	a5,-20(s0)
	.loc 1 788 11
	lw	a5,-20(s0)
	andi	a5,a5,-5
	sw	a5,-20(s0)
	.loc 1 789 11
	lw	a5,-20(s0)
	andi	a5,a5,-3
	sw	a5,-20(s0)
	.loc 1 790 11
	lw	a5,-20(s0)
	andi	a5,a5,-2
	sw	a5,-20(s0)
	.loc 1 791 7
	li	a5,1073741824
	addi	a5,a5,24
	.loc 1 791 60
	lw	a4,-20(s0)
	sw	a4,0(a5)
	.loc 1 793 13
	li	a5,1073741824
	addi	a5,a5,24
	.loc 1 793 11
	lw	a5,0(a5)
	sw	a5,-20(s0)
	.loc 1 795 11
	lw	a5,-20(s0)
	ori	a5,a5,2
	sw	a5,-20(s0)
	.loc 1 797 7
	li	a5,1073741824
	addi	a5,a5,24
	.loc 1 797 60
	lw	a4,-20(s0)
	sw	a4,0(a5)
.L90:
	.loc 1 801 9 discriminator 2
	li	a0,10
	call	BL602_Delay_US
	j	.L90
	.cfi_endproc
.LFE26:
	.size	GLB_SW_CPU_Reset, .-GLB_SW_CPU_Reset
	.align	1
	.weak	GLB_SW_POR_Reset
	.type	GLB_SW_POR_Reset, @function
GLB_SW_POR_Reset:
.LFB27:
	.loc 1 819 1
	.cfi_startproc
	addi	sp,sp,-32
	.cfi_def_cfa_offset 32
	sw	ra,28(sp)
	sw	s0,24(sp)
	.cfi_offset 1, -4
	.cfi_offset 8, -8
	addi	s0,sp,32
	.cfi_def_cfa 8, 0
	.loc 1 823 13
	li	a5,1073803264
	addi	a5,a5,48
	.loc 1 823 11
	lw	a5,0(a5)
	sw	a5,-20(s0)
	.loc 1 824 11
	lw	a5,-20(s0)
	andi	a5,a5,-4
	sw	a5,-20(s0)
	.loc 1 825 7
	li	a5,1073803264
	addi	a5,a5,48
	.loc 1 825 60
	lw	a4,-20(s0)
	sw	a4,0(a5)
	.loc 1 826 6
 #APP
# 826 "/home/chandu/sdk/bl602_iot_sdk/components/bl602/bl602_std/bl602_std/StdDriver/Src/bl602_glb.c" 1
	nop
# 0 "" 2
	.loc 1 826 29
# 826 "/home/chandu/sdk/bl602_iot_sdk/components/bl602/bl602_std/bl602_std/StdDriver/Src/bl602_glb.c" 1
	nop
# 0 "" 2
	.loc 1 826 52
# 826 "/home/chandu/sdk/bl602_iot_sdk/components/bl602/bl602_std/bl602_std/StdDriver/Src/bl602_glb.c" 1
	nop
# 0 "" 2
	.loc 1 826 75
# 826 "/home/chandu/sdk/bl602_iot_sdk/components/bl602/bl602_std/bl602_std/StdDriver/Src/bl602_glb.c" 1
	nop
# 0 "" 2
	.loc 1 826 98
# 826 "/home/chandu/sdk/bl602_iot_sdk/components/bl602/bl602_std/bl602_std/StdDriver/Src/bl602_glb.c" 1
	nop
# 0 "" 2
	.loc 1 826 121
# 826 "/home/chandu/sdk/bl602_iot_sdk/components/bl602/bl602_std/bl602_std/StdDriver/Src/bl602_glb.c" 1
	nop
# 0 "" 2
	.loc 1 826 144
# 826 "/home/chandu/sdk/bl602_iot_sdk/components/bl602/bl602_std/bl602_std/StdDriver/Src/bl602_glb.c" 1
	nop
# 0 "" 2
	.loc 1 826 167
# 826 "/home/chandu/sdk/bl602_iot_sdk/components/bl602/bl602_std/bl602_std/StdDriver/Src/bl602_glb.c" 1
	nop
# 0 "" 2
	.loc 1 829 13
 #NO_APP
	li	a5,1073741824
	.loc 1 829 11
	lw	a5,0(a5)
	sw	a5,-20(s0)
	.loc 1 830 11
	lw	a4,-20(s0)
	li	a5,-16711680
	addi	a5,a5,-1
	and	a5,a4,a5
	sw	a5,-20(s0)
	.loc 1 831 11
	lw	a4,-20(s0)
	li	a5,-65536
	addi	a5,a5,255
	and	a5,a4,a5
	sw	a5,-20(s0)
	.loc 1 832 7
	li	a5,1073741824
	.loc 1 832 59
	lw	a4,-20(s0)
	sw	a4,0(a5)
	.loc 1 833 6
	li	a5,1073745920
	addi	a5,a5,-4
	.loc 1 833 40
	li	a4,1
	sw	a4,0(a5)
	.loc 1 834 6
	li	a5,1073745920
	addi	a5,a5,-4
	.loc 1 834 40
	sw	zero,0(a5)
	.loc 1 835 6
 #APP
# 835 "/home/chandu/sdk/bl602_iot_sdk/components/bl602/bl602_std/bl602_std/StdDriver/Src/bl602_glb.c" 1
	nop
# 0 "" 2
	.loc 1 835 29
# 835 "/home/chandu/sdk/bl602_iot_sdk/components/bl602/bl602_std/bl602_std/StdDriver/Src/bl602_glb.c" 1
	nop
# 0 "" 2
	.loc 1 835 52
# 835 "/home/chandu/sdk/bl602_iot_sdk/components/bl602/bl602_std/bl602_std/StdDriver/Src/bl602_glb.c" 1
	nop
# 0 "" 2
	.loc 1 835 75
# 835 "/home/chandu/sdk/bl602_iot_sdk/components/bl602/bl602_std/bl602_std/StdDriver/Src/bl602_glb.c" 1
	nop
# 0 "" 2
	.loc 1 835 98
# 835 "/home/chandu/sdk/bl602_iot_sdk/components/bl602/bl602_std/bl602_std/StdDriver/Src/bl602_glb.c" 1
	nop
# 0 "" 2
	.loc 1 835 121
# 835 "/home/chandu/sdk/bl602_iot_sdk/components/bl602/bl602_std/bl602_std/StdDriver/Src/bl602_glb.c" 1
	nop
# 0 "" 2
	.loc 1 835 144
# 835 "/home/chandu/sdk/bl602_iot_sdk/components/bl602/bl602_std/bl602_std/StdDriver/Src/bl602_glb.c" 1
	nop
# 0 "" 2
	.loc 1 835 167
# 835 "/home/chandu/sdk/bl602_iot_sdk/components/bl602/bl602_std/bl602_std/StdDriver/Src/bl602_glb.c" 1
	nop
# 0 "" 2
	.loc 1 838 13
 #NO_APP
	li	a5,1073741824
	addi	a5,a5,24
	.loc 1 838 11
	lw	a5,0(a5)
	sw	a5,-20(s0)
	.loc 1 839 11
	lw	a5,-20(s0)
	andi	a5,a5,-5
	sw	a5,-20(s0)
	.loc 1 840 11
	lw	a5,-20(s0)
	andi	a5,a5,-3
	sw	a5,-20(s0)
	.loc 1 841 11
	lw	a5,-20(s0)
	andi	a5,a5,-2
	sw	a5,-20(s0)
	.loc 1 842 7
	li	a5,1073741824
	addi	a5,a5,24
	.loc 1 842 60
	lw	a4,-20(s0)
	sw	a4,0(a5)
	.loc 1 844 13
	li	a5,1073741824
	addi	a5,a5,24
	.loc 1 844 11
	lw	a5,0(a5)
	sw	a5,-20(s0)
	.loc 1 845 11
	lw	a5,-20(s0)
	ori	a5,a5,4
	sw	a5,-20(s0)
	.loc 1 846 11
	lw	a5,-20(s0)
	ori	a5,a5,2
	sw	a5,-20(s0)
	.loc 1 847 11
	lw	a5,-20(s0)
	ori	a5,a5,1
	sw	a5,-20(s0)
	.loc 1 848 7
	li	a5,1073741824
	addi	a5,a5,24
	.loc 1 848 60
	lw	a4,-20(s0)
	sw	a4,0(a5)
.L92:
	.loc 1 852 9 discriminator 2
	li	a0,10
	call	BL602_Delay_US
	j	.L92
	.cfi_endproc
.LFE27:
	.size	GLB_SW_POR_Reset, .-GLB_SW_POR_Reset
	.section	.text.GLB_AHB_Slave1_Reset,"ax",@progbits
	.align	1
	.globl	GLB_AHB_Slave1_Reset
	.type	GLB_AHB_Slave1_Reset, @function
GLB_AHB_Slave1_Reset:
.LFB28:
	.loc 1 868 1
	.cfi_startproc
	addi	sp,sp,-48
	.cfi_def_cfa_offset 48
	sw	ra,44(sp)
	sw	s0,40(sp)
	.cfi_offset 1, -4
	.cfi_offset 8, -8
	addi	s0,sp,48
	.cfi_def_cfa 8, 0
	mv	a5,a0
	sb	a5,-33(s0)
	.loc 1 869 14
	sw	zero,-20(s0)
	.loc 1 871 13
	li	a5,1073741824
	addi	a5,a5,20
	.loc 1 871 11
	lw	a5,0(a5)
	sw	a5,-20(s0)
	.loc 1 872 18
	lbu	a5,-33(s0)
	li	a4,1
	sll	a5,a4,a5
	.loc 1 872 15
	not	a5,a5
	mv	a4,a5
	.loc 1 872 12
	lw	a5,-20(s0)
	and	a5,a5,a4
	sw	a5,-20(s0)
	.loc 1 873 7
	li	a5,1073741824
	addi	a5,a5,20
	.loc 1 873 60
	lw	a4,-20(s0)
	sw	a4,0(a5)
	.loc 1 874 6
 #APP
# 874 "/home/chandu/sdk/bl602_iot_sdk/components/bl602/bl602_std/bl602_std/StdDriver/Src/bl602_glb.c" 1
	nop
# 0 "" 2
	.loc 1 874 29
# 874 "/home/chandu/sdk/bl602_iot_sdk/components/bl602/bl602_std/bl602_std/StdDriver/Src/bl602_glb.c" 1
	nop
# 0 "" 2
	.loc 1 874 52
# 874 "/home/chandu/sdk/bl602_iot_sdk/components/bl602/bl602_std/bl602_std/StdDriver/Src/bl602_glb.c" 1
	nop
# 0 "" 2
	.loc 1 874 75
# 874 "/home/chandu/sdk/bl602_iot_sdk/components/bl602/bl602_std/bl602_std/StdDriver/Src/bl602_glb.c" 1
	nop
# 0 "" 2
	.loc 1 875 13
 #NO_APP
	li	a5,1073741824
	addi	a5,a5,20
	.loc 1 875 11
	lw	a5,0(a5)
	sw	a5,-20(s0)
	.loc 1 876 16
	lbu	a5,-33(s0)
	li	a4,1
	sll	a5,a4,a5
	mv	a4,a5
	.loc 1 876 12
	lw	a5,-20(s0)
	or	a5,a5,a4
	sw	a5,-20(s0)
	.loc 1 877 7
	li	a5,1073741824
	addi	a5,a5,20
	.loc 1 877 60
	lw	a4,-20(s0)
	sw	a4,0(a5)
	.loc 1 878 6
 #APP
# 878 "/home/chandu/sdk/bl602_iot_sdk/components/bl602/bl602_std/bl602_std/StdDriver/Src/bl602_glb.c" 1
	nop
# 0 "" 2
	.loc 1 878 29
# 878 "/home/chandu/sdk/bl602_iot_sdk/components/bl602/bl602_std/bl602_std/StdDriver/Src/bl602_glb.c" 1
	nop
# 0 "" 2
	.loc 1 878 52
# 878 "/home/chandu/sdk/bl602_iot_sdk/components/bl602/bl602_std/bl602_std/StdDriver/Src/bl602_glb.c" 1
	nop
# 0 "" 2
	.loc 1 878 75
# 878 "/home/chandu/sdk/bl602_iot_sdk/components/bl602/bl602_std/bl602_std/StdDriver/Src/bl602_glb.c" 1
	nop
# 0 "" 2
	.loc 1 879 13
 #NO_APP
	li	a5,1073741824
	addi	a5,a5,20
	.loc 1 879 11
	lw	a5,0(a5)
	sw	a5,-20(s0)
	.loc 1 880 18
	lbu	a5,-33(s0)
	li	a4,1
	sll	a5,a4,a5
	.loc 1 880 15
	not	a5,a5
	mv	a4,a5
	.loc 1 880 12
	lw	a5,-20(s0)
	and	a5,a5,a4
	sw	a5,-20(s0)
	.loc 1 881 7
	li	a5,1073741824
	addi	a5,a5,20
	.loc 1 881 60
	lw	a4,-20(s0)
	sw	a4,0(a5)
	.loc 1 883 12
	li	a5,0
	.loc 1 884 1
	mv	a0,a5
	lw	ra,44(sp)
	.cfi_restore 1
	lw	s0,40(sp)
	.cfi_restore 8
	.cfi_def_cfa 2, 48
	addi	sp,sp,48
	.cfi_def_cfa_offset 0
	jr	ra
	.cfi_endproc
.LFE28:
	.size	GLB_AHB_Slave1_Reset, .-GLB_AHB_Slave1_Reset
	.section	.text.GLB_AHB_Slave1_Clock_Gate,"ax",@progbits
	.align	1
	.globl	GLB_AHB_Slave1_Clock_Gate
	.type	GLB_AHB_Slave1_Clock_Gate, @function
GLB_AHB_Slave1_Clock_Gate:
.LFB29:
	.loc 1 896 1
	.cfi_startproc
	addi	sp,sp,-48
	.cfi_def_cfa_offset 48
	sw	ra,44(sp)
	sw	s0,40(sp)
	.cfi_offset 1, -4
	.cfi_offset 8, -8
	addi	s0,sp,48
	.cfi_def_cfa 8, 0
	mv	a5,a0
	mv	a4,a1
	sb	a5,-33(s0)
	mv	a5,a4
	sb	a5,-34(s0)
	.loc 1 897 14
	sw	zero,-20(s0)
	.loc 1 899 13
	li	a5,1073741824
	addi	a5,a5,36
	.loc 1 899 11
	lw	a5,0(a5)
	sw	a5,-20(s0)
	.loc 1 900 7
	lbu	a5,-33(s0)
	beq	a5,zero,.L96
	.loc 1 902 22
	lbu	a5,-34(s0)
	li	a4,1
	sll	a5,a4,a5
	.loc 1 902 19
	not	a5,a5
	mv	a4,a5
	.loc 1 902 16
	lw	a5,-20(s0)
	and	a5,a5,a4
	sw	a5,-20(s0)
	j	.L97
.L96:
	.loc 1 905 20
	lbu	a5,-34(s0)
	li	a4,1
	sll	a5,a4,a5
	mv	a4,a5
	.loc 1 905 16
	lw	a5,-20(s0)
	or	a5,a5,a4
	sw	a5,-20(s0)
.L97:
	.loc 1 907 7
	li	a5,1073741824
	addi	a5,a5,36
	.loc 1 907 60
	lw	a4,-20(s0)
	sw	a4,0(a5)
	.loc 1 909 12
	li	a5,0
	.loc 1 910 1
	mv	a0,a5
	lw	ra,44(sp)
	.cfi_restore 1
	lw	s0,40(sp)
	.cfi_restore 8
	.cfi_def_cfa 2, 48
	addi	sp,sp,48
	.cfi_def_cfa_offset 0
	jr	ra
	.cfi_endproc
.LFE29:
	.size	GLB_AHB_Slave1_Clock_Gate, .-GLB_AHB_Slave1_Clock_Gate
	.section	.text.GLB_BMX_Init,"ax",@progbits
	.align	1
	.globl	GLB_BMX_Init
	.type	GLB_BMX_Init, @function
GLB_BMX_Init:
.LFB30:
	.loc 1 921 1
	.cfi_startproc
	addi	sp,sp,-48
	.cfi_def_cfa_offset 48
	sw	ra,44(sp)
	sw	s0,40(sp)
	.cfi_offset 1, -4
	.cfi_offset 8, -8
	addi	s0,sp,48
	.cfi_def_cfa 8, 0
	sw	a0,-36(s0)
	.loc 1 922 14
	sw	zero,-20(s0)
	.loc 1 926 13
	li	a5,1073741824
	addi	a5,a5,80
	.loc 1 926 11
	lw	a5,0(a5)
	sw	a5,-20(s0)
	.loc 1 927 23
	lw	a5,-20(s0)
	andi	a5,a5,-16
	.loc 1 927 71
	lw	a4,-36(s0)
	lbu	a4,0(a4)
	.loc 1 927 11
	or	a5,a5,a4
	sw	a5,-20(s0)
	.loc 1 928 23
	lw	a5,-20(s0)
	andi	a4,a5,-257
	.loc 1 928 71
	lw	a5,-36(s0)
	lbu	a5,1(a5)
	.loc 1 928 79
	slli	a5,a5,8
	.loc 1 928 11
	or	a5,a4,a5
	sw	a5,-20(s0)
	.loc 1 929 23
	lw	a5,-20(s0)
	andi	a4,a5,-49
	.loc 1 929 71
	lw	a5,-36(s0)
	lbu	a5,2(a5)
	.loc 1 929 80
	slli	a5,a5,4
	.loc 1 929 11
	or	a5,a4,a5
	sw	a5,-20(s0)
	.loc 1 930 7
	li	a5,1073741824
	addi	a5,a5,80
	.loc 1 930 60
	lw	a4,-20(s0)
	sw	a4,0(a5)
	.loc 1 932 12
	li	a5,0
	.loc 1 933 1
	mv	a0,a5
	lw	ra,44(sp)
	.cfi_restore 1
	lw	s0,40(sp)
	.cfi_restore 8
	.cfi_def_cfa 2, 48
	addi	sp,sp,48
	.cfi_def_cfa_offset 0
	jr	ra
	.cfi_endproc
.LFE30:
	.size	GLB_BMX_Init, .-GLB_BMX_Init
	.section	.text.GLB_BMX_Addr_Monitor_Enable,"ax",@progbits
	.align	1
	.globl	GLB_BMX_Addr_Monitor_Enable
	.type	GLB_BMX_Addr_Monitor_Enable, @function
GLB_BMX_Addr_Monitor_Enable:
.LFB31:
	.loc 1 944 1
	.cfi_startproc
	addi	sp,sp,-32
	.cfi_def_cfa_offset 32
	sw	ra,28(sp)
	sw	s0,24(sp)
	.cfi_offset 1, -4
	.cfi_offset 8, -8
	addi	s0,sp,32
	.cfi_def_cfa 8, 0
	.loc 1 945 14
	sw	zero,-20(s0)
	.loc 1 947 13
	li	a5,1073741824
	addi	a5,a5,84
	.loc 1 947 11
	lw	a5,0(a5)
	sw	a5,-20(s0)
	.loc 1 948 11
	lw	a5,-20(s0)
	andi	a5,a5,-2
	sw	a5,-20(s0)
	.loc 1 949 7
	li	a5,1073741824
	addi	a5,a5,84
	.loc 1 949 60
	lw	a4,-20(s0)
	sw	a4,0(a5)
	.loc 1 951 12
	li	a5,0
	.loc 1 952 1
	mv	a0,a5
	lw	ra,28(sp)
	.cfi_restore 1
	lw	s0,24(sp)
	.cfi_restore 8
	.cfi_def_cfa 2, 32
	addi	sp,sp,32
	.cfi_def_cfa_offset 0
	jr	ra
	.cfi_endproc
.LFE31:
	.size	GLB_BMX_Addr_Monitor_Enable, .-GLB_BMX_Addr_Monitor_Enable
	.section	.text.GLB_BMX_Addr_Monitor_Disable,"ax",@progbits
	.align	1
	.globl	GLB_BMX_Addr_Monitor_Disable
	.type	GLB_BMX_Addr_Monitor_Disable, @function
GLB_BMX_Addr_Monitor_Disable:
.LFB32:
	.loc 1 963 1
	.cfi_startproc
	addi	sp,sp,-32
	.cfi_def_cfa_offset 32
	sw	ra,28(sp)
	sw	s0,24(sp)
	.cfi_offset 1, -4
	.cfi_offset 8, -8
	addi	s0,sp,32
	.cfi_def_cfa 8, 0
	.loc 1 964 14
	sw	zero,-20(s0)
	.loc 1 966 13
	li	a5,1073741824
	addi	a5,a5,84
	.loc 1 966 11
	lw	a5,0(a5)
	sw	a5,-20(s0)
	.loc 1 967 11
	lw	a5,-20(s0)
	ori	a5,a5,1
	sw	a5,-20(s0)
	.loc 1 968 7
	li	a5,1073741824
	addi	a5,a5,84
	.loc 1 968 60
	lw	a4,-20(s0)
	sw	a4,0(a5)
	.loc 1 970 12
	li	a5,0
	.loc 1 971 1
	mv	a0,a5
	lw	ra,28(sp)
	.cfi_restore 1
	lw	s0,24(sp)
	.cfi_restore 8
	.cfi_def_cfa 2, 32
	addi	sp,sp,32
	.cfi_def_cfa_offset 0
	jr	ra
	.cfi_endproc
.LFE32:
	.size	GLB_BMX_Addr_Monitor_Disable, .-GLB_BMX_Addr_Monitor_Disable
	.section	.text.GLB_BMX_BusErrResponse_Enable,"ax",@progbits
	.align	1
	.globl	GLB_BMX_BusErrResponse_Enable
	.type	GLB_BMX_BusErrResponse_Enable, @function
GLB_BMX_BusErrResponse_Enable:
.LFB33:
	.loc 1 982 1
	.cfi_startproc
	addi	sp,sp,-32
	.cfi_def_cfa_offset 32
	sw	ra,28(sp)
	sw	s0,24(sp)
	.cfi_offset 1, -4
	.cfi_offset 8, -8
	addi	s0,sp,32
	.cfi_def_cfa 8, 0
	.loc 1 983 14
	sw	zero,-20(s0)
	.loc 1 985 13
	li	a5,1073741824
	addi	a5,a5,80
	.loc 1 985 11
	lw	a5,0(a5)
	sw	a5,-20(s0)
	.loc 1 986 11
	lw	a5,-20(s0)
	ori	a5,a5,256
	sw	a5,-20(s0)
	.loc 1 987 7
	li	a5,1073741824
	addi	a5,a5,80
	.loc 1 987 60
	lw	a4,-20(s0)
	sw	a4,0(a5)
	.loc 1 989 12
	li	a5,0
	.loc 1 990 1
	mv	a0,a5
	lw	ra,28(sp)
	.cfi_restore 1
	lw	s0,24(sp)
	.cfi_restore 8
	.cfi_def_cfa 2, 32
	addi	sp,sp,32
	.cfi_def_cfa_offset 0
	jr	ra
	.cfi_endproc
.LFE33:
	.size	GLB_BMX_BusErrResponse_Enable, .-GLB_BMX_BusErrResponse_Enable
	.section	.text.GLB_BMX_BusErrResponse_Disable,"ax",@progbits
	.align	1
	.globl	GLB_BMX_BusErrResponse_Disable
	.type	GLB_BMX_BusErrResponse_Disable, @function
GLB_BMX_BusErrResponse_Disable:
.LFB34:
	.loc 1 1001 1
	.cfi_startproc
	addi	sp,sp,-32
	.cfi_def_cfa_offset 32
	sw	ra,28(sp)
	sw	s0,24(sp)
	.cfi_offset 1, -4
	.cfi_offset 8, -8
	addi	s0,sp,32
	.cfi_def_cfa 8, 0
	.loc 1 1002 14
	sw	zero,-20(s0)
	.loc 1 1004 13
	li	a5,1073741824
	addi	a5,a5,80
	.loc 1 1004 11
	lw	a5,0(a5)
	sw	a5,-20(s0)
	.loc 1 1005 11
	lw	a5,-20(s0)
	andi	a5,a5,-257
	sw	a5,-20(s0)
	.loc 1 1006 7
	li	a5,1073741824
	addi	a5,a5,80
	.loc 1 1006 60
	lw	a4,-20(s0)
	sw	a4,0(a5)
	.loc 1 1008 12
	li	a5,0
	.loc 1 1009 1
	mv	a0,a5
	lw	ra,28(sp)
	.cfi_restore 1
	lw	s0,24(sp)
	.cfi_restore 8
	.cfi_def_cfa 2, 32
	addi	sp,sp,32
	.cfi_def_cfa_offset 0
	jr	ra
	.cfi_endproc
.LFE34:
	.size	GLB_BMX_BusErrResponse_Disable, .-GLB_BMX_BusErrResponse_Disable
	.section	.text.GLB_BMX_Get_Status,"ax",@progbits
	.align	1
	.globl	GLB_BMX_Get_Status
	.type	GLB_BMX_Get_Status, @function
GLB_BMX_Get_Status:
.LFB35:
	.loc 1 1020 1
	.cfi_startproc
	addi	sp,sp,-48
	.cfi_def_cfa_offset 48
	sw	ra,44(sp)
	sw	s0,40(sp)
	.cfi_offset 1, -4
	.cfi_offset 8, -8
	addi	s0,sp,48
	.cfi_def_cfa 8, 0
	mv	a5,a0
	sb	a5,-33(s0)
	.loc 1 1021 14
	sw	zero,-20(s0)
	.loc 1 1025 13
	li	a5,1073741824
	addi	a5,a5,84
	.loc 1 1025 11
	lw	a5,0(a5)
	sw	a5,-20(s0)
	.loc 1 1026 7
	lbu	a5,-33(s0)
	bne	a5,zero,.L110
	.loc 1 1027 67
	lw	a5,-20(s0)
	srli	a5,a5,5
	andi	a5,a5,0xff
	andi	a5,a5,1
	andi	a5,a5,0xff
	j	.L111
.L110:
	.loc 1 1029 67
	lw	a5,-20(s0)
	srli	a5,a5,4
	andi	a5,a5,0xff
	andi	a5,a5,1
	andi	a5,a5,0xff
.L111:
	.loc 1 1031 1
	mv	a0,a5
	lw	ra,44(sp)
	.cfi_restore 1
	lw	s0,40(sp)
	.cfi_restore 8
	.cfi_def_cfa 2, 48
	addi	sp,sp,48
	.cfi_def_cfa_offset 0
	jr	ra
	.cfi_endproc
.LFE35:
	.size	GLB_BMX_Get_Status, .-GLB_BMX_Get_Status
	.section	.text.GLB_BMX_Get_Err_Addr,"ax",@progbits
	.align	1
	.globl	GLB_BMX_Get_Err_Addr
	.type	GLB_BMX_Get_Err_Addr, @function
GLB_BMX_Get_Err_Addr:
.LFB36:
	.loc 1 1042 1
	.cfi_startproc
	addi	sp,sp,-16
	.cfi_def_cfa_offset 16
	sw	ra,12(sp)
	sw	s0,8(sp)
	.cfi_offset 1, -4
	.cfi_offset 8, -8
	addi	s0,sp,16
	.cfi_def_cfa 8, 0
	.loc 1 1043 13
	li	a5,1073741824
	addi	a5,a5,88
	lw	a5,0(a5)
	.loc 1 1044 1
	mv	a0,a5
	lw	ra,12(sp)
	.cfi_restore 1
	lw	s0,8(sp)
	.cfi_restore 8
	.cfi_def_cfa 2, 16
	addi	sp,sp,16
	.cfi_def_cfa_offset 0
	jr	ra
	.cfi_endproc
.LFE36:
	.size	GLB_BMX_Get_Err_Addr, .-GLB_BMX_Get_Err_Addr
	.section	.text.BMX_ERR_INT_Callback_Install,"ax",@progbits
	.align	1
	.globl	BMX_ERR_INT_Callback_Install
	.type	BMX_ERR_INT_Callback_Install, @function
BMX_ERR_INT_Callback_Install:
.LFB37:
	.loc 1 1056 1
	.cfi_startproc
	addi	sp,sp,-32
	.cfi_def_cfa_offset 32
	sw	ra,28(sp)
	sw	s0,24(sp)
	.cfi_offset 1, -4
	.cfi_offset 8, -8
	addi	s0,sp,32
	.cfi_def_cfa 8, 0
	mv	a5,a0
	sw	a1,-24(s0)
	sb	a5,-17(s0)
	.loc 1 1059 24
	lbu	a4,-17(s0)
	.loc 1 1059 34
	lui	a5,%hi(glbBmxErrIntCbfArra)
	slli	a4,a4,2
	addi	a5,a5,%lo(glbBmxErrIntCbfArra)
	add	a5,a4,a5
	lw	a4,-24(s0)
	sw	a4,0(a5)
	.loc 1 1061 12
	li	a5,0
	.loc 1 1062 1
	mv	a0,a5
	lw	ra,28(sp)
	.cfi_restore 1
	lw	s0,24(sp)
	.cfi_restore 8
	.cfi_def_cfa 2, 32
	addi	sp,sp,32
	.cfi_def_cfa_offset 0
	jr	ra
	.cfi_endproc
.LFE37:
	.size	BMX_ERR_INT_Callback_Install, .-BMX_ERR_INT_Callback_Install
	.section	.text.BMX_TIMEOUT_INT_Callback_Install,"ax",@progbits
	.align	1
	.globl	BMX_TIMEOUT_INT_Callback_Install
	.type	BMX_TIMEOUT_INT_Callback_Install, @function
BMX_TIMEOUT_INT_Callback_Install:
.LFB38:
	.loc 1 1100 1
	.cfi_startproc
	addi	sp,sp,-32
	.cfi_def_cfa_offset 32
	sw	ra,28(sp)
	sw	s0,24(sp)
	.cfi_offset 1, -4
	.cfi_offset 8, -8
	addi	s0,sp,32
	.cfi_def_cfa 8, 0
	mv	a5,a0
	sw	a1,-24(s0)
	sb	a5,-17(s0)
	.loc 1 1103 23
	lbu	a4,-17(s0)
	.loc 1 1103 33
	lui	a5,%hi(glbBmxToIntCbfArra)
	slli	a4,a4,2
	addi	a5,a5,%lo(glbBmxToIntCbfArra)
	add	a5,a4,a5
	lw	a4,-24(s0)
	sw	a4,0(a5)
	.loc 1 1105 12
	li	a5,0
	.loc 1 1106 1
	mv	a0,a5
	lw	ra,28(sp)
	.cfi_restore 1
	lw	s0,24(sp)
	.cfi_restore 8
	.cfi_def_cfa 2, 32
	addi	sp,sp,32
	.cfi_def_cfa_offset 0
	jr	ra
	.cfi_endproc
.LFE38:
	.size	BMX_TIMEOUT_INT_Callback_Install, .-BMX_TIMEOUT_INT_Callback_Install
	.section	.text.GLB_Set_SRAM_RET,"ax",@progbits
	.align	1
	.globl	GLB_Set_SRAM_RET
	.type	GLB_Set_SRAM_RET, @function
GLB_Set_SRAM_RET:
.LFB39:
	.loc 1 1143 1
	.cfi_startproc
	addi	sp,sp,-32
	.cfi_def_cfa_offset 32
	sw	ra,28(sp)
	sw	s0,24(sp)
	.cfi_offset 1, -4
	.cfi_offset 8, -8
	addi	s0,sp,32
	.cfi_def_cfa 8, 0
	sw	a0,-20(s0)
	.loc 1 1144 7
	li	a5,1073741824
	addi	a5,a5,112
	.loc 1 1144 60
	lw	a4,-20(s0)
	sw	a4,0(a5)
	.loc 1 1146 12
	li	a5,0
	.loc 1 1147 1
	mv	a0,a5
	lw	ra,28(sp)
	.cfi_restore 1
	lw	s0,24(sp)
	.cfi_restore 8
	.cfi_def_cfa 2, 32
	addi	sp,sp,32
	.cfi_def_cfa_offset 0
	jr	ra
	.cfi_endproc
.LFE39:
	.size	GLB_Set_SRAM_RET, .-GLB_Set_SRAM_RET
	.section	.text.GLB_Get_SRAM_RET,"ax",@progbits
	.align	1
	.globl	GLB_Get_SRAM_RET
	.type	GLB_Get_SRAM_RET, @function
GLB_Get_SRAM_RET:
.LFB40:
	.loc 1 1158 1
	.cfi_startproc
	addi	sp,sp,-16
	.cfi_def_cfa_offset 16
	sw	ra,12(sp)
	sw	s0,8(sp)
	.cfi_offset 1, -4
	.cfi_offset 8, -8
	addi	s0,sp,16
	.cfi_def_cfa 8, 0
	.loc 1 1159 13
	li	a5,1073741824
	addi	a5,a5,112
	lw	a5,0(a5)
	.loc 1 1160 1
	mv	a0,a5
	lw	ra,12(sp)
	.cfi_restore 1
	lw	s0,8(sp)
	.cfi_restore 8
	.cfi_def_cfa 2, 16
	addi	sp,sp,16
	.cfi_def_cfa_offset 0
	jr	ra
	.cfi_endproc
.LFE40:
	.size	GLB_Get_SRAM_RET, .-GLB_Get_SRAM_RET
	.section	.text.GLB_Set_SRAM_SLP,"ax",@progbits
	.align	1
	.globl	GLB_Set_SRAM_SLP
	.type	GLB_Set_SRAM_SLP, @function
GLB_Set_SRAM_SLP:
.LFB41:
	.loc 1 1171 1
	.cfi_startproc
	addi	sp,sp,-32
	.cfi_def_cfa_offset 32
	sw	ra,28(sp)
	sw	s0,24(sp)
	.cfi_offset 1, -4
	.cfi_offset 8, -8
	addi	s0,sp,32
	.cfi_def_cfa 8, 0
	sw	a0,-20(s0)
	.loc 1 1172 7
	li	a5,1073741824
	addi	a5,a5,116
	.loc 1 1172 60
	lw	a4,-20(s0)
	sw	a4,0(a5)
	.loc 1 1174 12
	li	a5,0
	.loc 1 1175 1
	mv	a0,a5
	lw	ra,28(sp)
	.cfi_restore 1
	lw	s0,24(sp)
	.cfi_restore 8
	.cfi_def_cfa 2, 32
	addi	sp,sp,32
	.cfi_def_cfa_offset 0
	jr	ra
	.cfi_endproc
.LFE41:
	.size	GLB_Set_SRAM_SLP, .-GLB_Set_SRAM_SLP
	.section	.text.GLB_Get_SRAM_SLP,"ax",@progbits
	.align	1
	.globl	GLB_Get_SRAM_SLP
	.type	GLB_Get_SRAM_SLP, @function
GLB_Get_SRAM_SLP:
.LFB42:
	.loc 1 1186 1
	.cfi_startproc
	addi	sp,sp,-16
	.cfi_def_cfa_offset 16
	sw	ra,12(sp)
	sw	s0,8(sp)
	.cfi_offset 1, -4
	.cfi_offset 8, -8
	addi	s0,sp,16
	.cfi_def_cfa 8, 0
	.loc 1 1187 13
	li	a5,1073741824
	addi	a5,a5,116
	lw	a5,0(a5)
	.loc 1 1188 1
	mv	a0,a5
	lw	ra,12(sp)
	.cfi_restore 1
	lw	s0,8(sp)
	.cfi_restore 8
	.cfi_def_cfa 2, 16
	addi	sp,sp,16
	.cfi_def_cfa_offset 0
	jr	ra
	.cfi_endproc
.LFE42:
	.size	GLB_Get_SRAM_SLP, .-GLB_Get_SRAM_SLP
	.section	.text.GLB_Set_SRAM_PARM,"ax",@progbits
	.align	1
	.globl	GLB_Set_SRAM_PARM
	.type	GLB_Set_SRAM_PARM, @function
GLB_Set_SRAM_PARM:
.LFB43:
	.loc 1 1199 1
	.cfi_startproc
	addi	sp,sp,-32
	.cfi_def_cfa_offset 32
	sw	ra,28(sp)
	sw	s0,24(sp)
	.cfi_offset 1, -4
	.cfi_offset 8, -8
	addi	s0,sp,32
	.cfi_def_cfa 8, 0
	sw	a0,-20(s0)
	.loc 1 1200 7
	li	a5,1073741824
	addi	a5,a5,120
	.loc 1 1200 60
	lw	a4,-20(s0)
	sw	a4,0(a5)
	.loc 1 1202 12
	li	a5,0
	.loc 1 1203 1
	mv	a0,a5
	lw	ra,28(sp)
	.cfi_restore 1
	lw	s0,24(sp)
	.cfi_restore 8
	.cfi_def_cfa 2, 32
	addi	sp,sp,32
	.cfi_def_cfa_offset 0
	jr	ra
	.cfi_endproc
.LFE43:
	.size	GLB_Set_SRAM_PARM, .-GLB_Set_SRAM_PARM
	.section	.text.GLB_Get_SRAM_PARM,"ax",@progbits
	.align	1
	.globl	GLB_Get_SRAM_PARM
	.type	GLB_Get_SRAM_PARM, @function
GLB_Get_SRAM_PARM:
.LFB44:
	.loc 1 1214 1
	.cfi_startproc
	addi	sp,sp,-16
	.cfi_def_cfa_offset 16
	sw	ra,12(sp)
	sw	s0,8(sp)
	.cfi_offset 1, -4
	.cfi_offset 8, -8
	addi	s0,sp,16
	.cfi_def_cfa 8, 0
	.loc 1 1215 13
	li	a5,1073741824
	addi	a5,a5,120
	lw	a5,0(a5)
	.loc 1 1216 1
	mv	a0,a5
	lw	ra,12(sp)
	.cfi_restore 1
	lw	s0,8(sp)
	.cfi_restore 8
	.cfi_def_cfa 2, 16
	addi	sp,sp,16
	.cfi_def_cfa_offset 0
	jr	ra
	.cfi_endproc
.LFE44:
	.size	GLB_Get_SRAM_PARM, .-GLB_Get_SRAM_PARM
	.section	.text.GLB_Set_EM_Sel,"ax",@progbits
	.align	1
	.globl	GLB_Set_EM_Sel
	.type	GLB_Set_EM_Sel, @function
GLB_Set_EM_Sel:
.LFB45:
	.loc 1 1227 1
	.cfi_startproc
	addi	sp,sp,-48
	.cfi_def_cfa_offset 48
	sw	ra,44(sp)
	sw	s0,40(sp)
	.cfi_offset 1, -4
	.cfi_offset 8, -8
	addi	s0,sp,48
	.cfi_def_cfa 8, 0
	mv	a5,a0
	sb	a5,-33(s0)
	.loc 1 1228 14
	sw	zero,-20(s0)
	.loc 1 1232 13
	li	a5,1073741824
	addi	a5,a5,124
	.loc 1 1232 11
	lw	a5,0(a5)
	sw	a5,-20(s0)
	.loc 1 1233 23
	lw	a5,-20(s0)
	andi	a4,a5,-16
	.loc 1 1233 72
	lbu	a5,-33(s0)
	.loc 1 1233 11
	or	a5,a4,a5
	sw	a5,-20(s0)
	.loc 1 1234 7
	li	a5,1073741824
	addi	a5,a5,124
	.loc 1 1234 60
	lw	a4,-20(s0)
	sw	a4,0(a5)
	.loc 1 1236 12
	li	a5,0
	.loc 1 1237 1
	mv	a0,a5
	lw	ra,44(sp)
	.cfi_restore 1
	lw	s0,40(sp)
	.cfi_restore 8
	.cfi_def_cfa 2, 48
	addi	sp,sp,48
	.cfi_def_cfa_offset 0
	jr	ra
	.cfi_endproc
.LFE45:
	.size	GLB_Set_EM_Sel, .-GLB_Set_EM_Sel
	.section	.text.GLB_UART_Sig_Swap_Set,"ax",@progbits
	.align	1
	.globl	GLB_UART_Sig_Swap_Set
	.type	GLB_UART_Sig_Swap_Set, @function
GLB_UART_Sig_Swap_Set:
.LFB46:
	.loc 1 1248 1
	.cfi_startproc
	addi	sp,sp,-48
	.cfi_def_cfa_offset 48
	sw	ra,44(sp)
	sw	s0,40(sp)
	.cfi_offset 1, -4
	.cfi_offset 8, -8
	addi	s0,sp,48
	.cfi_def_cfa 8, 0
	mv	a5,a0
	sb	a5,-33(s0)
	.loc 1 1249 14
	sw	zero,-20(s0)
	.loc 1 1253 13
	li	a5,1073741824
	addi	a5,a5,128
	.loc 1 1253 11
	lw	a5,0(a5)
	sw	a5,-20(s0)
	.loc 1 1254 23
	lw	a4,-20(s0)
	li	a5,-117440512
	addi	a5,a5,-1
	and	a4,a4,a5
	.loc 1 1254 55
	lbu	a5,-33(s0)
	.loc 1 1254 74
	slli	a5,a5,24
	.loc 1 1254 11
	or	a5,a4,a5
	sw	a5,-20(s0)
	.loc 1 1255 7
	li	a5,1073741824
	addi	a5,a5,128
	.loc 1 1255 60
	lw	a4,-20(s0)
	sw	a4,0(a5)
	.loc 1 1257 12
	li	a5,0
	.loc 1 1258 1
	mv	a0,a5
	lw	ra,44(sp)
	.cfi_restore 1
	lw	s0,40(sp)
	.cfi_restore 8
	.cfi_def_cfa 2, 48
	addi	sp,sp,48
	.cfi_def_cfa_offset 0
	jr	ra
	.cfi_endproc
.LFE46:
	.size	GLB_UART_Sig_Swap_Set, .-GLB_UART_Sig_Swap_Set
	.section	.text.GLB_JTAG_Sig_Swap_Set,"ax",@progbits
	.align	1
	.globl	GLB_JTAG_Sig_Swap_Set
	.type	GLB_JTAG_Sig_Swap_Set, @function
GLB_JTAG_Sig_Swap_Set:
.LFB47:
	.loc 1 1269 1
	.cfi_startproc
	addi	sp,sp,-48
	.cfi_def_cfa_offset 48
	sw	ra,44(sp)
	sw	s0,40(sp)
	.cfi_offset 1, -4
	.cfi_offset 8, -8
	addi	s0,sp,48
	.cfi_def_cfa 8, 0
	mv	a5,a0
	sb	a5,-33(s0)
	.loc 1 1270 14
	sw	zero,-20(s0)
	.loc 1 1274 13
	li	a5,1073741824
	addi	a5,a5,128
	.loc 1 1274 11
	lw	a5,0(a5)
	sw	a5,-20(s0)
	.loc 1 1275 23
	lw	a5,-20(s0)
	andi	a4,a5,-253
	.loc 1 1275 54
	lbu	a5,-33(s0)
	.loc 1 1275 73
	slli	a5,a5,2
	.loc 1 1275 11
	or	a5,a4,a5
	sw	a5,-20(s0)
	.loc 1 1276 7
	li	a5,1073741824
	addi	a5,a5,128
	.loc 1 1276 60
	lw	a4,-20(s0)
	sw	a4,0(a5)
	.loc 1 1278 12
	li	a5,0
	.loc 1 1279 1
	mv	a0,a5
	lw	ra,44(sp)
	.cfi_restore 1
	lw	s0,40(sp)
	.cfi_restore 8
	.cfi_def_cfa 2, 48
	addi	sp,sp,48
	.cfi_def_cfa_offset 0
	jr	ra
	.cfi_endproc
.LFE47:
	.size	GLB_JTAG_Sig_Swap_Set, .-GLB_JTAG_Sig_Swap_Set
	.section	.text.GLB_Swap_SPI_0_MOSI_With_MISO,"ax",@progbits
	.align	1
	.globl	GLB_Swap_SPI_0_MOSI_With_MISO
	.type	GLB_Swap_SPI_0_MOSI_With_MISO, @function
GLB_Swap_SPI_0_MOSI_With_MISO:
.LFB48:
	.loc 1 1290 1
	.cfi_startproc
	addi	sp,sp,-48
	.cfi_def_cfa_offset 48
	sw	ra,44(sp)
	sw	s0,40(sp)
	.cfi_offset 1, -4
	.cfi_offset 8, -8
	addi	s0,sp,48
	.cfi_def_cfa 8, 0
	mv	a5,a0
	sb	a5,-33(s0)
	.loc 1 1291 14
	sw	zero,-20(s0)
	.loc 1 1293 13
	li	a5,1073741824
	addi	a5,a5,128
	.loc 1 1293 11
	lw	a5,0(a5)
	sw	a5,-20(s0)
	.loc 1 1294 23
	lw	a4,-20(s0)
	li	a5,-8192
	addi	a5,a5,-1
	and	a4,a4,a5
	.loc 1 1294 55
	lbu	a5,-33(s0)
	.loc 1 1294 75
	slli	a5,a5,13
	.loc 1 1294 11
	or	a5,a4,a5
	sw	a5,-20(s0)
	.loc 1 1295 7
	li	a5,1073741824
	addi	a5,a5,128
	.loc 1 1295 60
	lw	a4,-20(s0)
	sw	a4,0(a5)
	.loc 1 1297 12
	li	a5,0
	.loc 1 1298 1
	mv	a0,a5
	lw	ra,44(sp)
	.cfi_restore 1
	lw	s0,40(sp)
	.cfi_restore 8
	.cfi_def_cfa 2, 48
	addi	sp,sp,48
	.cfi_def_cfa_offset 0
	jr	ra
	.cfi_endproc
.LFE48:
	.size	GLB_Swap_SPI_0_MOSI_With_MISO, .-GLB_Swap_SPI_0_MOSI_With_MISO
	.section	.text.GLB_Set_SPI_0_ACT_MOD_Sel,"ax",@progbits
	.align	1
	.globl	GLB_Set_SPI_0_ACT_MOD_Sel
	.type	GLB_Set_SPI_0_ACT_MOD_Sel, @function
GLB_Set_SPI_0_ACT_MOD_Sel:
.LFB49:
	.loc 1 1309 1
	.cfi_startproc
	addi	sp,sp,-48
	.cfi_def_cfa_offset 48
	sw	ra,44(sp)
	sw	s0,40(sp)
	.cfi_offset 1, -4
	.cfi_offset 8, -8
	addi	s0,sp,48
	.cfi_def_cfa 8, 0
	mv	a5,a0
	sb	a5,-33(s0)
	.loc 1 1314 13
	li	a5,1073741824
	addi	a5,a5,128
	.loc 1 1314 11
	lw	a5,0(a5)
	sw	a5,-20(s0)
	.loc 1 1315 23
	lw	a4,-20(s0)
	li	a5,-4096
	addi	a5,a5,-1
	and	a4,a4,a5
	.loc 1 1315 55
	lbu	a5,-33(s0)
	.loc 1 1315 70
	slli	a5,a5,12
	.loc 1 1315 11
	or	a5,a4,a5
	sw	a5,-20(s0)
	.loc 1 1316 7
	li	a5,1073741824
	addi	a5,a5,128
	.loc 1 1316 60
	lw	a4,-20(s0)
	sw	a4,0(a5)
	.loc 1 1318 12
	li	a5,0
	.loc 1 1319 1
	mv	a0,a5
	lw	ra,44(sp)
	.cfi_restore 1
	lw	s0,40(sp)
	.cfi_restore 8
	.cfi_def_cfa 2, 48
	addi	sp,sp,48
	.cfi_def_cfa_offset 0
	jr	ra
	.cfi_endproc
.LFE49:
	.size	GLB_Set_SPI_0_ACT_MOD_Sel, .-GLB_Set_SPI_0_ACT_MOD_Sel
	.section	.tcm_code
	.align	1
	.weak	GLB_Select_Internal_Flash
	.type	GLB_Select_Internal_Flash, @function
GLB_Select_Internal_Flash:
.LFB50:
	.loc 1 1332 1
	.cfi_startproc
	addi	sp,sp,-32
	.cfi_def_cfa_offset 32
	sw	ra,28(sp)
	sw	s0,24(sp)
	.cfi_offset 1, -4
	.cfi_offset 8, -8
	addi	s0,sp,32
	.cfi_def_cfa 8, 0
	.loc 1 1335 13
	li	a5,1073741824
	addi	a5,a5,128
	.loc 1 1335 11
	lw	a5,0(a5)
	sw	a5,-20(s0)
	.loc 1 1336 11
	lw	a5,-20(s0)
	ori	a5,a5,512
	sw	a5,-20(s0)
	.loc 1 1337 7
	li	a5,1073741824
	addi	a5,a5,128
	.loc 1 1337 60
	lw	a4,-20(s0)
	sw	a4,0(a5)
	.loc 1 1339 12
	li	a5,0
	.loc 1 1340 1
	mv	a0,a5
	lw	ra,28(sp)
	.cfi_restore 1
	lw	s0,24(sp)
	.cfi_restore 8
	.cfi_def_cfa 2, 32
	addi	sp,sp,32
	.cfi_def_cfa_offset 0
	jr	ra
	.cfi_endproc
.LFE50:
	.size	GLB_Select_Internal_Flash, .-GLB_Select_Internal_Flash
	.align	1
	.weak	GLB_Select_External_Flash
	.type	GLB_Select_External_Flash, @function
GLB_Select_External_Flash:
.LFB51:
	.loc 1 1354 1
	.cfi_startproc
	addi	sp,sp,-32
	.cfi_def_cfa_offset 32
	sw	ra,28(sp)
	sw	s0,24(sp)
	.cfi_offset 1, -4
	.cfi_offset 8, -8
	addi	s0,sp,32
	.cfi_def_cfa 8, 0
	.loc 1 1357 13
	li	a5,1073741824
	addi	a5,a5,128
	.loc 1 1357 11
	lw	a5,0(a5)
	sw	a5,-20(s0)
	.loc 1 1358 11
	lw	a5,-20(s0)
	andi	a5,a5,-513
	sw	a5,-20(s0)
	.loc 1 1359 7
	li	a5,1073741824
	addi	a5,a5,128
	.loc 1 1359 60
	lw	a4,-20(s0)
	sw	a4,0(a5)
	.loc 1 1361 12
	li	a5,0
	.loc 1 1362 1
	mv	a0,a5
	lw	ra,28(sp)
	.cfi_restore 1
	lw	s0,24(sp)
	.cfi_restore 8
	.cfi_def_cfa 2, 32
	addi	sp,sp,32
	.cfi_def_cfa_offset 0
	jr	ra
	.cfi_endproc
.LFE51:
	.size	GLB_Select_External_Flash, .-GLB_Select_External_Flash
	.align	1
	.weak	GLB_Deswap_Flash_Pin
	.type	GLB_Deswap_Flash_Pin, @function
GLB_Deswap_Flash_Pin:
.LFB52:
	.loc 1 1376 1
	.cfi_startproc
	addi	sp,sp,-32
	.cfi_def_cfa_offset 32
	sw	ra,28(sp)
	sw	s0,24(sp)
	.cfi_offset 1, -4
	.cfi_offset 8, -8
	addi	s0,sp,32
	.cfi_def_cfa 8, 0
	.loc 1 1379 13
	li	a5,1073741824
	addi	a5,a5,128
	.loc 1 1379 11
	lw	a5,0(a5)
	sw	a5,-20(s0)
	.loc 1 1380 11
	lw	a5,-20(s0)
	andi	a5,a5,-257
	sw	a5,-20(s0)
	.loc 1 1381 7
	li	a5,1073741824
	addi	a5,a5,128
	.loc 1 1381 60
	lw	a4,-20(s0)
	sw	a4,0(a5)
	.loc 1 1383 12
	li	a5,0
	.loc 1 1384 1
	mv	a0,a5
	lw	ra,28(sp)
	.cfi_restore 1
	lw	s0,24(sp)
	.cfi_restore 8
	.cfi_def_cfa 2, 32
	addi	sp,sp,32
	.cfi_def_cfa_offset 0
	jr	ra
	.cfi_endproc
.LFE52:
	.size	GLB_Deswap_Flash_Pin, .-GLB_Deswap_Flash_Pin
	.align	1
	.weak	GLB_Swap_Flash_Pin
	.type	GLB_Swap_Flash_Pin, @function
GLB_Swap_Flash_Pin:
.LFB53:
	.loc 1 1398 1
	.cfi_startproc
	addi	sp,sp,-32
	.cfi_def_cfa_offset 32
	sw	ra,28(sp)
	sw	s0,24(sp)
	.cfi_offset 1, -4
	.cfi_offset 8, -8
	addi	s0,sp,32
	.cfi_def_cfa 8, 0
	.loc 1 1401 13
	li	a5,1073741824
	addi	a5,a5,128
	.loc 1 1401 11
	lw	a5,0(a5)
	sw	a5,-20(s0)
	.loc 1 1402 11
	lw	a5,-20(s0)
	ori	a5,a5,256
	sw	a5,-20(s0)
	.loc 1 1403 7
	li	a5,1073741824
	addi	a5,a5,128
	.loc 1 1403 60
	lw	a4,-20(s0)
	sw	a4,0(a5)
	.loc 1 1405 12
	li	a5,0
	.loc 1 1406 1
	mv	a0,a5
	lw	ra,28(sp)
	.cfi_restore 1
	lw	s0,24(sp)
	.cfi_restore 8
	.cfi_def_cfa 2, 32
	addi	sp,sp,32
	.cfi_def_cfa_offset 0
	jr	ra
	.cfi_endproc
.LFE53:
	.size	GLB_Swap_Flash_Pin, .-GLB_Swap_Flash_Pin
	.section	.text.GLB_Set_MTimer_CLK,"ax",@progbits
	.align	1
	.globl	GLB_Set_MTimer_CLK
	.type	GLB_Set_MTimer_CLK, @function
GLB_Set_MTimer_CLK:
.LFB54:
	.loc 1 1420 1
	.cfi_startproc
	addi	sp,sp,-48
	.cfi_def_cfa_offset 48
	sw	ra,44(sp)
	sw	s0,40(sp)
	.cfi_offset 1, -4
	.cfi_offset 8, -8
	addi	s0,sp,48
	.cfi_def_cfa 8, 0
	mv	a5,a0
	mv	a4,a1
	sw	a2,-40(s0)
	sb	a5,-33(s0)
	mv	a5,a4
	sb	a5,-34(s0)
	.loc 1 1427 13
	li	a5,1073741824
	addi	a5,a5,144
	.loc 1 1427 11
	lw	a5,0(a5)
	sw	a5,-20(s0)
	.loc 1 1428 11
	lw	a4,-20(s0)
	li	a5,-262144
	addi	a5,a5,-1
	and	a5,a4,a5
	sw	a5,-20(s0)
	.loc 1 1429 7
	li	a5,1073741824
	addi	a5,a5,144
	.loc 1 1429 60
	lw	a4,-20(s0)
	sw	a4,0(a5)
	.loc 1 1431 13
	li	a5,1073741824
	addi	a5,a5,144
	.loc 1 1431 11
	lw	a5,0(a5)
	sw	a5,-20(s0)
	.loc 1 1432 23
	lw	a4,-20(s0)
	li	a5,-524288
	addi	a5,a5,-1
	and	a4,a4,a5
	.loc 1 1432 55
	lbu	a5,-34(s0)
	.loc 1 1432 73
	slli	a5,a5,19
	.loc 1 1432 11
	or	a5,a4,a5
	sw	a5,-20(s0)
	.loc 1 1433 23
	lw	a4,-20(s0)
	li	a5,-131072
	and	a5,a4,a5
	.loc 1 1433 11
	lw	a4,-40(s0)
	or	a5,a4,a5
	sw	a5,-20(s0)
	.loc 1 1434 7
	li	a5,1073741824
	addi	a5,a5,144
	.loc 1 1434 60
	lw	a4,-20(s0)
	sw	a4,0(a5)
	.loc 1 1436 13
	li	a5,1073741824
	addi	a5,a5,144
	.loc 1 1436 11
	lw	a5,0(a5)
	sw	a5,-20(s0)
	.loc 1 1437 7
	lbu	a5,-33(s0)
	beq	a5,zero,.L149
	.loc 1 1438 15
	lw	a4,-20(s0)
	li	a5,262144
	or	a5,a4,a5
	sw	a5,-20(s0)
	j	.L150
.L149:
	.loc 1 1440 15
	lw	a4,-20(s0)
	li	a5,-262144
	addi	a5,a5,-1
	and	a5,a4,a5
	sw	a5,-20(s0)
.L150:
	.loc 1 1442 7
	li	a5,1073741824
	addi	a5,a5,144
	.loc 1 1442 60
	lw	a4,-20(s0)
	sw	a4,0(a5)
	.loc 1 1444 12
	li	a5,0
	.loc 1 1445 1
	mv	a0,a5
	lw	ra,44(sp)
	.cfi_restore 1
	lw	s0,40(sp)
	.cfi_restore 8
	.cfi_def_cfa 2, 48
	addi	sp,sp,48
	.cfi_def_cfa_offset 0
	jr	ra
	.cfi_endproc
.LFE54:
	.size	GLB_Set_MTimer_CLK, .-GLB_Set_MTimer_CLK
	.section	.text.GLB_Set_ADC_CLK,"ax",@progbits
	.align	1
	.globl	GLB_Set_ADC_CLK
	.type	GLB_Set_ADC_CLK, @function
GLB_Set_ADC_CLK:
.LFB55:
	.loc 1 1458 1
	.cfi_startproc
	addi	sp,sp,-48
	.cfi_def_cfa_offset 48
	sw	ra,44(sp)
	sw	s0,40(sp)
	.cfi_offset 1, -4
	.cfi_offset 8, -8
	addi	s0,sp,48
	.cfi_def_cfa 8, 0
	mv	a5,a0
	mv	a3,a1
	mv	a4,a2
	sb	a5,-33(s0)
	mv	a5,a3
	sb	a5,-34(s0)
	mv	a5,a4
	sb	a5,-35(s0)
	.loc 1 1464 13
	li	a5,1073741824
	addi	a5,a5,164
	.loc 1 1464 11
	lw	a5,0(a5)
	sw	a5,-20(s0)
	.loc 1 1465 11
	lw	a5,-20(s0)
	andi	a5,a5,-257
	sw	a5,-20(s0)
	.loc 1 1466 7
	li	a5,1073741824
	addi	a5,a5,164
	.loc 1 1466 60
	lw	a4,-20(s0)
	sw	a4,0(a5)
	.loc 1 1468 13
	li	a5,1073741824
	addi	a5,a5,164
	.loc 1 1468 11
	lw	a5,0(a5)
	sw	a5,-20(s0)
	.loc 1 1469 23
	lw	a5,-20(s0)
	andi	a4,a5,-64
	.loc 1 1469 69
	lbu	a5,-35(s0)
	.loc 1 1469 11
	or	a5,a4,a5
	sw	a5,-20(s0)
	.loc 1 1470 23
	lw	a5,-20(s0)
	andi	a4,a5,-129
	.loc 1 1470 54
	lbu	a5,-34(s0)
	.loc 1 1470 72
	slli	a5,a5,7
	.loc 1 1470 11
	or	a5,a4,a5
	sw	a5,-20(s0)
	.loc 1 1471 7
	li	a5,1073741824
	addi	a5,a5,164
	.loc 1 1471 60
	lw	a4,-20(s0)
	sw	a4,0(a5)
	.loc 1 1473 13
	li	a5,1073741824
	addi	a5,a5,164
	.loc 1 1473 11
	lw	a5,0(a5)
	sw	a5,-20(s0)
	.loc 1 1474 7
	lbu	a5,-33(s0)
	beq	a5,zero,.L153
	.loc 1 1475 15
	lw	a5,-20(s0)
	ori	a5,a5,256
	sw	a5,-20(s0)
	j	.L154
.L153:
	.loc 1 1477 15
	lw	a5,-20(s0)
	andi	a5,a5,-257
	sw	a5,-20(s0)
.L154:
	.loc 1 1479 7
	li	a5,1073741824
	addi	a5,a5,164
	.loc 1 1479 60
	lw	a4,-20(s0)
	sw	a4,0(a5)
	.loc 1 1481 12
	li	a5,0
	.loc 1 1482 1
	mv	a0,a5
	lw	ra,44(sp)
	.cfi_restore 1
	lw	s0,40(sp)
	.cfi_restore 8
	.cfi_def_cfa 2, 48
	addi	sp,sp,48
	.cfi_def_cfa_offset 0
	jr	ra
	.cfi_endproc
.LFE55:
	.size	GLB_Set_ADC_CLK, .-GLB_Set_ADC_CLK
	.section	.text.GLB_Set_DAC_CLK,"ax",@progbits
	.align	1
	.globl	GLB_Set_DAC_CLK
	.type	GLB_Set_DAC_CLK, @function
GLB_Set_DAC_CLK:
.LFB56:
	.loc 1 1495 1
	.cfi_startproc
	addi	sp,sp,-48
	.cfi_def_cfa_offset 48
	sw	ra,44(sp)
	sw	s0,40(sp)
	.cfi_offset 1, -4
	.cfi_offset 8, -8
	addi	s0,sp,48
	.cfi_def_cfa 8, 0
	mv	a5,a0
	mv	a3,a1
	mv	a4,a2
	sb	a5,-33(s0)
	mv	a5,a3
	sb	a5,-34(s0)
	mv	a5,a4
	sb	a5,-35(s0)
	.loc 1 1500 13
	li	a5,1073741824
	addi	a5,a5,168
	.loc 1 1500 11
	lw	a5,0(a5)
	sw	a5,-20(s0)
	.loc 1 1501 11
	lw	a4,-20(s0)
	li	a5,-16777216
	addi	a5,a5,-1
	and	a5,a4,a5
	sw	a5,-20(s0)
	.loc 1 1502 7
	li	a5,1073741824
	addi	a5,a5,168
	.loc 1 1502 60
	lw	a4,-20(s0)
	sw	a4,0(a5)
	.loc 1 1504 11
	lw	a4,-20(s0)
	li	a5,-33554432
	addi	a5,a5,-1
	and	a5,a4,a5
	sw	a5,-20(s0)
	.loc 1 1506 7
	lbu	a5,-34(s0)
	bne	a5,zero,.L157
	.loc 1 1507 15
	lw	a4,-20(s0)
	li	a5,-268435456
	addi	a5,a5,-1
	and	a5,a4,a5
	sw	a5,-20(s0)
	j	.L158
.L157:
	.loc 1 1509 15
	lw	a4,-20(s0)
	li	a5,268435456
	or	a5,a4,a5
	sw	a5,-20(s0)
.L158:
	.loc 1 1512 23
	lw	a4,-20(s0)
	li	a5,-8323072
	addi	a5,a5,-1
	and	a4,a4,a5
	.loc 1 1512 55
	lbu	a5,-35(s0)
	.loc 1 1512 70
	slli	a5,a5,16
	.loc 1 1512 11
	or	a5,a4,a5
	sw	a5,-20(s0)
	.loc 1 1514 7
	lbu	a5,-33(s0)
	beq	a5,zero,.L159
	.loc 1 1515 15
	lw	a4,-20(s0)
	li	a5,16777216
	or	a5,a4,a5
	sw	a5,-20(s0)
	j	.L160
.L159:
	.loc 1 1517 15
	lw	a4,-20(s0)
	li	a5,-16777216
	addi	a5,a5,-1
	and	a5,a4,a5
	sw	a5,-20(s0)
.L160:
	.loc 1 1520 7
	li	a5,1073741824
	addi	a5,a5,168
	.loc 1 1520 60
	lw	a4,-20(s0)
	sw	a4,0(a5)
	.loc 1 1522 12
	li	a5,0
	.loc 1 1523 1
	mv	a0,a5
	lw	ra,44(sp)
	.cfi_restore 1
	lw	s0,40(sp)
	.cfi_restore 8
	.cfi_def_cfa 2, 48
	addi	sp,sp,48
	.cfi_def_cfa_offset 0
	jr	ra
	.cfi_endproc
.LFE56:
	.size	GLB_Set_DAC_CLK, .-GLB_Set_DAC_CLK
	.section	.text.GLB_Platform_Wakeup_Enable,"ax",@progbits
	.align	1
	.globl	GLB_Platform_Wakeup_Enable
	.type	GLB_Platform_Wakeup_Enable, @function
GLB_Platform_Wakeup_Enable:
.LFB57:
	.loc 1 1534 1
	.cfi_startproc
	addi	sp,sp,-32
	.cfi_def_cfa_offset 32
	sw	ra,28(sp)
	sw	s0,24(sp)
	.cfi_offset 1, -4
	.cfi_offset 8, -8
	addi	s0,sp,32
	.cfi_def_cfa 8, 0
	.loc 1 1537 13
	li	a5,1073741824
	addi	a5,a5,168
	.loc 1 1537 11
	lw	a5,0(a5)
	sw	a5,-20(s0)
	.loc 1 1538 11
	lw	a4,-20(s0)
	li	a5,-2147483648
	or	a5,a4,a5
	sw	a5,-20(s0)
	.loc 1 1539 7
	li	a5,1073741824
	addi	a5,a5,168
	.loc 1 1539 60
	lw	a4,-20(s0)
	sw	a4,0(a5)
	.loc 1 1541 12
	li	a5,0
	.loc 1 1542 1
	mv	a0,a5
	lw	ra,28(sp)
	.cfi_restore 1
	lw	s0,24(sp)
	.cfi_restore 8
	.cfi_def_cfa 2, 32
	addi	sp,sp,32
	.cfi_def_cfa_offset 0
	jr	ra
	.cfi_endproc
.LFE57:
	.size	GLB_Platform_Wakeup_Enable, .-GLB_Platform_Wakeup_Enable
	.section	.text.GLB_Platform_Wakeup_Disable,"ax",@progbits
	.align	1
	.globl	GLB_Platform_Wakeup_Disable
	.type	GLB_Platform_Wakeup_Disable, @function
GLB_Platform_Wakeup_Disable:
.LFB58:
	.loc 1 1553 1
	.cfi_startproc
	addi	sp,sp,-32
	.cfi_def_cfa_offset 32
	sw	ra,28(sp)
	sw	s0,24(sp)
	.cfi_offset 1, -4
	.cfi_offset 8, -8
	addi	s0,sp,32
	.cfi_def_cfa 8, 0
	.loc 1 1556 13
	li	a5,1073741824
	addi	a5,a5,168
	.loc 1 1556 11
	lw	a5,0(a5)
	sw	a5,-20(s0)
	.loc 1 1557 11
	lw	a4,-20(s0)
	li	a5,-2147483648
	addi	a5,a5,-1
	and	a5,a4,a5
	sw	a5,-20(s0)
	.loc 1 1558 7
	li	a5,1073741824
	addi	a5,a5,168
	.loc 1 1558 60
	lw	a4,-20(s0)
	sw	a4,0(a5)
	.loc 1 1560 12
	li	a5,0
	.loc 1 1561 1
	mv	a0,a5
	lw	ra,28(sp)
	.cfi_restore 1
	lw	s0,24(sp)
	.cfi_restore 8
	.cfi_def_cfa 2, 32
	addi	sp,sp,32
	.cfi_def_cfa_offset 0
	jr	ra
	.cfi_endproc
.LFE58:
	.size	GLB_Platform_Wakeup_Disable, .-GLB_Platform_Wakeup_Disable
	.section	.text.GLB_Set_DIG_CLK_Sel,"ax",@progbits
	.align	1
	.globl	GLB_Set_DIG_CLK_Sel
	.type	GLB_Set_DIG_CLK_Sel, @function
GLB_Set_DIG_CLK_Sel:
.LFB59:
	.loc 1 1572 1
	.cfi_startproc
	addi	sp,sp,-48
	.cfi_def_cfa_offset 48
	sw	ra,44(sp)
	sw	s0,40(sp)
	.cfi_offset 1, -4
	.cfi_offset 8, -8
	addi	s0,sp,48
	.cfi_def_cfa 8, 0
	mv	a5,a0
	sb	a5,-33(s0)
	.loc 1 1578 13
	li	a5,1073741824
	addi	a5,a5,168
	.loc 1 1578 11
	lw	a5,0(a5)
	sw	a5,-20(s0)
	.loc 1 1579 54
	lw	a5,-20(s0)
	srli	a5,a5,24
	.loc 1 1579 14
	andi	a5,a5,1
	sw	a5,-24(s0)
	.loc 1 1580 53
	lw	a5,-20(s0)
	srli	a5,a5,12
	.loc 1 1580 13
	andi	a5,a5,1
	sw	a5,-28(s0)
	.loc 1 1581 11
	lw	a4,-20(s0)
	li	a5,-16777216
	addi	a5,a5,-1
	and	a5,a4,a5
	sw	a5,-20(s0)
	.loc 1 1582 11
	lw	a4,-20(s0)
	li	a5,-4096
	addi	a5,a5,-1
	and	a5,a4,a5
	sw	a5,-20(s0)
	.loc 1 1583 7
	li	a5,1073741824
	addi	a5,a5,168
	.loc 1 1583 60
	lw	a4,-20(s0)
	sw	a4,0(a5)
	.loc 1 1585 13
	li	a5,1073741824
	addi	a5,a5,168
	.loc 1 1585 11
	lw	a5,0(a5)
	sw	a5,-20(s0)
	.loc 1 1586 23
	lw	a4,-20(s0)
	li	a5,-268435456
	addi	a5,a5,-1
	and	a4,a4,a5
	.loc 1 1586 55
	lbu	a5,-33(s0)
	.loc 1 1586 73
	slli	a5,a5,28
	.loc 1 1586 11
	or	a5,a4,a5
	sw	a5,-20(s0)
	.loc 1 1587 7
	li	a5,1073741824
	addi	a5,a5,168
	.loc 1 1587 60
	lw	a4,-20(s0)
	sw	a4,0(a5)
	.loc 1 1590 13
	li	a5,1073741824
	addi	a5,a5,168
	.loc 1 1590 11
	lw	a5,0(a5)
	sw	a5,-20(s0)
	.loc 1 1591 23
	lw	a4,-20(s0)
	li	a5,-16777216
	addi	a5,a5,-1
	and	a4,a4,a5
	.loc 1 1591 76
	lw	a5,-24(s0)
	slli	a5,a5,24
	.loc 1 1591 11
	or	a5,a4,a5
	sw	a5,-20(s0)
	.loc 1 1592 23
	lw	a4,-20(s0)
	li	a5,-4096
	addi	a5,a5,-1
	and	a4,a4,a5
	.loc 1 1592 75
	lw	a5,-28(s0)
	slli	a5,a5,12
	.loc 1 1592 11
	or	a5,a4,a5
	sw	a5,-20(s0)
	.loc 1 1593 7
	li	a5,1073741824
	addi	a5,a5,168
	.loc 1 1593 60
	lw	a4,-20(s0)
	sw	a4,0(a5)
	.loc 1 1595 12
	li	a5,0
	.loc 1 1596 1
	mv	a0,a5
	lw	ra,44(sp)
	.cfi_restore 1
	lw	s0,40(sp)
	.cfi_restore 8
	.cfi_def_cfa 2, 48
	addi	sp,sp,48
	.cfi_def_cfa_offset 0
	jr	ra
	.cfi_endproc
.LFE59:
	.size	GLB_Set_DIG_CLK_Sel, .-GLB_Set_DIG_CLK_Sel
	.section	.text.GLB_Set_DIG_512K_CLK,"ax",@progbits
	.align	1
	.globl	GLB_Set_DIG_512K_CLK
	.type	GLB_Set_DIG_512K_CLK, @function
GLB_Set_DIG_512K_CLK:
.LFB60:
	.loc 1 1609 1
	.cfi_startproc
	addi	sp,sp,-48
	.cfi_def_cfa_offset 48
	sw	ra,44(sp)
	sw	s0,40(sp)
	.cfi_offset 1, -4
	.cfi_offset 8, -8
	addi	s0,sp,48
	.cfi_def_cfa 8, 0
	mv	a5,a0
	mv	a3,a1
	mv	a4,a2
	sb	a5,-33(s0)
	mv	a5,a3
	sb	a5,-34(s0)
	mv	a5,a4
	sb	a5,-35(s0)
	.loc 1 1612 13
	li	a5,1073741824
	addi	a5,a5,168
	.loc 1 1612 11
	lw	a5,0(a5)
	sw	a5,-20(s0)
	.loc 1 1613 7
	lbu	a5,-34(s0)
	beq	a5,zero,.L169
	.loc 1 1614 15
	lw	a4,-20(s0)
	li	a5,33554432
	or	a5,a4,a5
	sw	a5,-20(s0)
	j	.L170
.L169:
	.loc 1 1616 15
	lw	a4,-20(s0)
	li	a5,-33554432
	addi	a5,a5,-1
	and	a5,a4,a5
	sw	a5,-20(s0)
.L170:
	.loc 1 1618 23
	lw	a4,-20(s0)
	li	a5,-8323072
	addi	a5,a5,-1
	and	a4,a4,a5
	.loc 1 1618 55
	lbu	a5,-35(s0)
	.loc 1 1618 70
	slli	a5,a5,16
	.loc 1 1618 11
	or	a5,a4,a5
	sw	a5,-20(s0)
	.loc 1 1619 7
	li	a5,1073741824
	addi	a5,a5,168
	.loc 1 1619 60
	lw	a4,-20(s0)
	sw	a4,0(a5)
	.loc 1 1621 13
	li	a5,1073741824
	addi	a5,a5,168
	.loc 1 1621 11
	lw	a5,0(a5)
	sw	a5,-20(s0)
	.loc 1 1622 7
	lbu	a5,-33(s0)
	beq	a5,zero,.L171
	.loc 1 1623 15
	lw	a4,-20(s0)
	li	a5,16777216
	or	a5,a4,a5
	sw	a5,-20(s0)
	j	.L172
.L171:
	.loc 1 1625 15
	lw	a4,-20(s0)
	li	a5,-16777216
	addi	a5,a5,-1
	and	a5,a4,a5
	sw	a5,-20(s0)
.L172:
	.loc 1 1627 7
	li	a5,1073741824
	addi	a5,a5,168
	.loc 1 1627 60
	lw	a4,-20(s0)
	sw	a4,0(a5)
	.loc 1 1629 12
	li	a5,0
	.loc 1 1630 1
	mv	a0,a5
	lw	ra,44(sp)
	.cfi_restore 1
	lw	s0,40(sp)
	.cfi_restore 8
	.cfi_def_cfa 2, 48
	addi	sp,sp,48
	.cfi_def_cfa_offset 0
	jr	ra
	.cfi_endproc
.LFE60:
	.size	GLB_Set_DIG_512K_CLK, .-GLB_Set_DIG_512K_CLK
	.section	.text.GLB_Set_DIG_32K_CLK,"ax",@progbits
	.align	1
	.globl	GLB_Set_DIG_32K_CLK
	.type	GLB_Set_DIG_32K_CLK, @function
GLB_Set_DIG_32K_CLK:
.LFB61:
	.loc 1 1643 1
	.cfi_startproc
	addi	sp,sp,-48
	.cfi_def_cfa_offset 48
	sw	ra,44(sp)
	sw	s0,40(sp)
	.cfi_offset 1, -4
	.cfi_offset 8, -8
	addi	s0,sp,48
	.cfi_def_cfa 8, 0
	mv	a5,a0
	mv	a3,a1
	mv	a4,a2
	sb	a5,-33(s0)
	mv	a5,a3
	sb	a5,-34(s0)
	mv	a5,a4
	sb	a5,-35(s0)
	.loc 1 1646 13
	li	a5,1073741824
	addi	a5,a5,168
	.loc 1 1646 11
	lw	a5,0(a5)
	sw	a5,-20(s0)
	.loc 1 1647 7
	lbu	a5,-34(s0)
	beq	a5,zero,.L175
	.loc 1 1648 15
	lw	a4,-20(s0)
	li	a5,8192
	or	a5,a4,a5
	sw	a5,-20(s0)
	j	.L176
.L175:
	.loc 1 1650 15
	lw	a4,-20(s0)
	li	a5,-8192
	addi	a5,a5,-1
	and	a5,a4,a5
	sw	a5,-20(s0)
.L176:
	.loc 1 1652 23
	lw	a5,-20(s0)
	andi	a4,a5,-2048
	.loc 1 1652 70
	lbu	a5,-35(s0)
	.loc 1 1652 11
	or	a5,a4,a5
	sw	a5,-20(s0)
	.loc 1 1653 7
	li	a5,1073741824
	addi	a5,a5,168
	.loc 1 1653 60
	lw	a4,-20(s0)
	sw	a4,0(a5)
	.loc 1 1655 13
	li	a5,1073741824
	addi	a5,a5,168
	.loc 1 1655 11
	lw	a5,0(a5)
	sw	a5,-20(s0)
	.loc 1 1656 7
	lbu	a5,-33(s0)
	beq	a5,zero,.L177
	.loc 1 1657 15
	lw	a4,-20(s0)
	li	a5,4096
	or	a5,a4,a5
	sw	a5,-20(s0)
	j	.L178
.L177:
	.loc 1 1659 15
	lw	a4,-20(s0)
	li	a5,-4096
	addi	a5,a5,-1
	and	a5,a4,a5
	sw	a5,-20(s0)
.L178:
	.loc 1 1661 7
	li	a5,1073741824
	addi	a5,a5,168
	.loc 1 1661 60
	lw	a4,-20(s0)
	sw	a4,0(a5)
	.loc 1 1663 12
	li	a5,0
	.loc 1 1664 1
	mv	a0,a5
	lw	ra,44(sp)
	.cfi_restore 1
	lw	s0,40(sp)
	.cfi_restore 8
	.cfi_def_cfa 2, 48
	addi	sp,sp,48
	.cfi_def_cfa_offset 0
	jr	ra
	.cfi_endproc
.LFE61:
	.size	GLB_Set_DIG_32K_CLK, .-GLB_Set_DIG_32K_CLK
	.section	.text.GLB_Set_BT_Coex_Signal,"ax",@progbits
	.align	1
	.globl	GLB_Set_BT_Coex_Signal
	.type	GLB_Set_BT_Coex_Signal, @function
GLB_Set_BT_Coex_Signal:
.LFB62:
	.loc 1 1678 1
	.cfi_startproc
	addi	sp,sp,-48
	.cfi_def_cfa_offset 48
	sw	ra,44(sp)
	sw	s0,40(sp)
	.cfi_offset 1, -4
	.cfi_offset 8, -8
	addi	s0,sp,48
	.cfi_def_cfa 8, 0
	mv	a5,a0
	mv	a4,a3
	sb	a5,-33(s0)
	mv	a5,a1
	sb	a5,-34(s0)
	mv	a5,a2
	sb	a5,-35(s0)
	mv	a5,a4
	sb	a5,-36(s0)
	.loc 1 1679 14
	sw	zero,-20(s0)
	.loc 1 1685 13
	li	a5,1073741824
	addi	a5,a5,172
	.loc 1 1685 11
	lw	a5,0(a5)
	sw	a5,-20(s0)
	.loc 1 1686 23
	lw	a4,-20(s0)
	li	a5,-4096
	addi	a5,a5,2047
	and	a4,a4,a5
	.loc 1 1686 55
	lbu	a5,-34(s0)
	.loc 1 1686 76
	slli	a5,a5,11
	.loc 1 1686 11
	or	a5,a4,a5
	sw	a5,-20(s0)
	.loc 1 1687 23
	lw	a5,-20(s0)
	andi	a4,a5,-1921
	.loc 1 1687 54
	lbu	a5,-35(s0)
	.loc 1 1687 69
	slli	a5,a5,7
	.loc 1 1687 11
	or	a5,a4,a5
	sw	a5,-20(s0)
	.loc 1 1688 23
	lw	a5,-20(s0)
	andi	a4,a5,-128
	.loc 1 1688 73
	lbu	a5,-36(s0)
	.loc 1 1688 11
	or	a5,a4,a5
	sw	a5,-20(s0)
	.loc 1 1689 7
	li	a5,1073741824
	addi	a5,a5,172
	.loc 1 1689 60
	lw	a4,-20(s0)
	sw	a4,0(a5)
	.loc 1 1691 13
	li	a5,1073741824
	addi	a5,a5,172
	.loc 1 1691 11
	lw	a5,0(a5)
	sw	a5,-20(s0)
	.loc 1 1692 7
	lbu	a5,-33(s0)
	beq	a5,zero,.L181
	.loc 1 1693 15
	lw	a4,-20(s0)
	li	a5,4096
	or	a5,a4,a5
	sw	a5,-20(s0)
	j	.L182
.L181:
	.loc 1 1695 15
	lw	a4,-20(s0)
	li	a5,-4096
	addi	a5,a5,-1
	and	a5,a4,a5
	sw	a5,-20(s0)
.L182:
	.loc 1 1697 7
	li	a5,1073741824
	addi	a5,a5,172
	.loc 1 1697 60
	lw	a4,-20(s0)
	sw	a4,0(a5)
	.loc 1 1699 12
	li	a5,0
	.loc 1 1700 1
	mv	a0,a5
	lw	ra,44(sp)
	.cfi_restore 1
	lw	s0,40(sp)
	.cfi_restore 8
	.cfi_def_cfa 2, 48
	addi	sp,sp,48
	.cfi_def_cfa_offset 0
	jr	ra
	.cfi_endproc
.LFE62:
	.size	GLB_Set_BT_Coex_Signal, .-GLB_Set_BT_Coex_Signal
	.section	.text.GLB_UART_Fun_Sel,"ax",@progbits
	.align	1
	.globl	GLB_UART_Fun_Sel
	.type	GLB_UART_Fun_Sel, @function
GLB_UART_Fun_Sel:
.LFB63:
	.loc 1 1712 1
	.cfi_startproc
	addi	sp,sp,-48
	.cfi_def_cfa_offset 48
	sw	ra,44(sp)
	sw	s0,40(sp)
	.cfi_offset 1, -4
	.cfi_offset 8, -8
	addi	s0,sp,48
	.cfi_def_cfa 8, 0
	mv	a5,a0
	mv	a4,a1
	sb	a5,-33(s0)
	mv	a5,a4
	sb	a5,-34(s0)
	.loc 1 1713 14
	sw	zero,-20(s0)
	.loc 1 1714 14
	sw	zero,-24(s0)
	.loc 1 1719 13
	li	a5,1073741824
	addi	a5,a5,192
	.loc 1 1719 11
	lw	a5,0(a5)
	sw	a5,-24(s0)
	.loc 1 1720 17
	lbu	a5,-33(s0)
	slli	a5,a5,2
	.loc 1 1720 12
	sw	a5,-20(s0)
	.loc 1 1722 21
	lw	a5,-20(s0)
	li	a4,15
	sll	a5,a4,a5
	.loc 1 1722 16
	not	a5,a5
	mv	a4,a5
	.loc 1 1722 12
	lw	a5,-24(s0)
	and	a5,a5,a4
	sw	a5,-24(s0)
	.loc 1 1724 19
	lbu	a4,-34(s0)
	lw	a5,-20(s0)
	sll	a5,a4,a5
	mv	a4,a5
	.loc 1 1724 12
	lw	a5,-24(s0)
	or	a5,a5,a4
	sw	a5,-24(s0)
	.loc 1 1725 7
	li	a5,1073741824
	addi	a5,a5,192
	.loc 1 1725 60
	lw	a4,-24(s0)
	sw	a4,0(a5)
	.loc 1 1727 12
	li	a5,0
	.loc 1 1728 1
	mv	a0,a5
	lw	ra,44(sp)
	.cfi_restore 1
	lw	s0,40(sp)
	.cfi_restore 8
	.cfi_def_cfa 2, 48
	addi	sp,sp,48
	.cfi_def_cfa_offset 0
	jr	ra
	.cfi_endproc
.LFE63:
	.size	GLB_UART_Fun_Sel, .-GLB_UART_Fun_Sel
	.section	.text.GLB_IR_RX_GPIO_Sel,"ax",@progbits
	.align	1
	.globl	GLB_IR_RX_GPIO_Sel
	.type	GLB_IR_RX_GPIO_Sel, @function
GLB_IR_RX_GPIO_Sel:
.LFB64:
	.loc 1 1739 1
	.cfi_startproc
	addi	sp,sp,-48
	.cfi_def_cfa_offset 48
	sw	ra,44(sp)
	sw	s0,40(sp)
	.cfi_offset 1, -4
	.cfi_offset 8, -8
	addi	s0,sp,48
	.cfi_def_cfa 8, 0
	mv	a5,a0
	sb	a5,-33(s0)
	.loc 1 1740 14
	sw	zero,-20(s0)
	.loc 1 1743 7
	lbu	a4,-33(s0)
	li	a5,10
	bleu	a4,a5,.L187
	.loc 1 1743 16 discriminator 1
	lbu	a4,-33(s0)
	li	a5,13
	bgtu	a4,a5,.L187
	.loc 1 1744 17
	li	a5,1073741824
	addi	a5,a5,548
	.loc 1 1744 15
	lw	a5,0(a5)
	sw	a5,-20(s0)
	.loc 1 1745 27
	lw	a5,-20(s0)
	andi	a4,a5,-769
	.loc 1 1745 73
	lbu	a5,-33(s0)
	addi	a5,a5,-10
	.loc 1 1745 77
	slli	a5,a5,8
	.loc 1 1745 15
	or	a5,a4,a5
	sw	a5,-20(s0)
	.loc 1 1746 11
	li	a5,1073741824
	addi	a5,a5,548
	.loc 1 1746 65
	lw	a4,-20(s0)
	sw	a4,0(a5)
.L187:
	.loc 1 1750 7
	lbu	a5,-33(s0)
	bne	a5,zero,.L188
	.loc 1 1751 17
	li	a5,1073741824
	addi	a5,a5,548
	.loc 1 1751 15
	lw	a5,0(a5)
	sw	a5,-20(s0)
	.loc 1 1752 15
	lw	a5,-20(s0)
	andi	a5,a5,-769
	sw	a5,-20(s0)
	.loc 1 1753 11
	li	a5,1073741824
	addi	a5,a5,548
	.loc 1 1753 65
	lw	a4,-20(s0)
	sw	a4,0(a5)
.L188:
	.loc 1 1756 12
	li	a5,0
	.loc 1 1757 1
	mv	a0,a5
	lw	ra,44(sp)
	.cfi_restore 1
	lw	s0,40(sp)
	.cfi_restore 8
	.cfi_def_cfa 2, 48
	addi	sp,sp,48
	.cfi_def_cfa_offset 0
	jr	ra
	.cfi_endproc
.LFE64:
	.size	GLB_IR_RX_GPIO_Sel, .-GLB_IR_RX_GPIO_Sel
	.section	.text.GLB_IR_LED_Driver_Enable,"ax",@progbits
	.align	1
	.globl	GLB_IR_LED_Driver_Enable
	.type	GLB_IR_LED_Driver_Enable, @function
GLB_IR_LED_Driver_Enable:
.LFB65:
	.loc 1 1768 1
	.cfi_startproc
	addi	sp,sp,-32
	.cfi_def_cfa_offset 32
	sw	ra,28(sp)
	sw	s0,24(sp)
	.cfi_offset 1, -4
	.cfi_offset 8, -8
	addi	s0,sp,32
	.cfi_def_cfa 8, 0
	.loc 1 1769 14
	sw	zero,-20(s0)
	.loc 1 1772 13
	li	a5,1073741824
	addi	a5,a5,548
	.loc 1 1772 11
	lw	a5,0(a5)
	sw	a5,-20(s0)
	.loc 1 1773 11
	lw	a4,-20(s0)
	li	a5,-2147483648
	or	a5,a4,a5
	sw	a5,-20(s0)
	.loc 1 1774 7
	li	a5,1073741824
	addi	a5,a5,548
	.loc 1 1774 61
	lw	a4,-20(s0)
	sw	a4,0(a5)
	.loc 1 1776 12
	li	a5,0
	.loc 1 1777 1
	mv	a0,a5
	lw	ra,28(sp)
	.cfi_restore 1
	lw	s0,24(sp)
	.cfi_restore 8
	.cfi_def_cfa 2, 32
	addi	sp,sp,32
	.cfi_def_cfa_offset 0
	jr	ra
	.cfi_endproc
.LFE65:
	.size	GLB_IR_LED_Driver_Enable, .-GLB_IR_LED_Driver_Enable
	.section	.text.GLB_IR_LED_Driver_Disable,"ax",@progbits
	.align	1
	.globl	GLB_IR_LED_Driver_Disable
	.type	GLB_IR_LED_Driver_Disable, @function
GLB_IR_LED_Driver_Disable:
.LFB66:
	.loc 1 1788 1
	.cfi_startproc
	addi	sp,sp,-32
	.cfi_def_cfa_offset 32
	sw	ra,28(sp)
	sw	s0,24(sp)
	.cfi_offset 1, -4
	.cfi_offset 8, -8
	addi	s0,sp,32
	.cfi_def_cfa 8, 0
	.loc 1 1789 14
	sw	zero,-20(s0)
	.loc 1 1792 13
	li	a5,1073741824
	addi	a5,a5,548
	.loc 1 1792 11
	lw	a5,0(a5)
	sw	a5,-20(s0)
	.loc 1 1793 11
	lw	a4,-20(s0)
	li	a5,-2147483648
	addi	a5,a5,-1
	and	a5,a4,a5
	sw	a5,-20(s0)
	.loc 1 1794 7
	li	a5,1073741824
	addi	a5,a5,548
	.loc 1 1794 61
	lw	a4,-20(s0)
	sw	a4,0(a5)
	.loc 1 1796 12
	li	a5,0
	.loc 1 1797 1
	mv	a0,a5
	lw	ra,28(sp)
	.cfi_restore 1
	lw	s0,24(sp)
	.cfi_restore 8
	.cfi_def_cfa 2, 32
	addi	sp,sp,32
	.cfi_def_cfa_offset 0
	jr	ra
	.cfi_endproc
.LFE66:
	.size	GLB_IR_LED_Driver_Disable, .-GLB_IR_LED_Driver_Disable
	.section	.text.GLB_IR_LED_Driver_Ibias,"ax",@progbits
	.align	1
	.globl	GLB_IR_LED_Driver_Ibias
	.type	GLB_IR_LED_Driver_Ibias, @function
GLB_IR_LED_Driver_Ibias:
.LFB67:
	.loc 1 1808 1
	.cfi_startproc
	addi	sp,sp,-48
	.cfi_def_cfa_offset 48
	sw	ra,44(sp)
	sw	s0,40(sp)
	.cfi_offset 1, -4
	.cfi_offset 8, -8
	addi	s0,sp,48
	.cfi_def_cfa 8, 0
	mv	a5,a0
	sb	a5,-33(s0)
	.loc 1 1809 14
	sw	zero,-20(s0)
	.loc 1 1812 13
	li	a5,1073741824
	addi	a5,a5,548
	.loc 1 1812 11
	lw	a5,0(a5)
	sw	a5,-20(s0)
	.loc 1 1813 23
	lw	a5,-20(s0)
	andi	a4,a5,-241
	.loc 1 1813 70
	lbu	a5,-33(s0)
	.loc 1 1813 75
	slli	a5,a5,4
	andi	a5,a5,255
	.loc 1 1813 11
	or	a5,a4,a5
	sw	a5,-20(s0)
	.loc 1 1814 7
	li	a5,1073741824
	addi	a5,a5,548
	.loc 1 1814 61
	lw	a4,-20(s0)
	sw	a4,0(a5)
	.loc 1 1816 12
	li	a5,0
	.loc 1 1817 1
	mv	a0,a5
	lw	ra,44(sp)
	.cfi_restore 1
	lw	s0,40(sp)
	.cfi_restore 8
	.cfi_def_cfa 2, 48
	addi	sp,sp,48
	.cfi_def_cfa_offset 0
	jr	ra
	.cfi_endproc
.LFE67:
	.size	GLB_IR_LED_Driver_Ibias, .-GLB_IR_LED_Driver_Ibias
	.section	.tcm_code
	.align	1
	.weak	GLB_GPIO_Init
	.type	GLB_GPIO_Init, @function
GLB_GPIO_Init:
.LFB68:
	.loc 1 1830 1
	.cfi_startproc
	addi	sp,sp,-64
	.cfi_def_cfa_offset 64
	sw	ra,60(sp)
	sw	s0,56(sp)
	.cfi_offset 1, -4
	.cfi_offset 8, -8
	addi	s0,sp,64
	.cfi_def_cfa 8, 0
	sw	a0,-52(s0)
	.loc 1 1831 13
	lw	a5,-52(s0)
	lbu	a5,0(a5)
	sb	a5,-25(s0)
	.loc 1 1837 66
	lbu	a5,-25(s0)
	srli	a5,a5,5
	andi	a5,a5,0xff
	slli	a4,a5,2
	.loc 1 1837 52
	li	a5,1073741824
	addi	a5,a5,400
	add	a5,a4,a5
	.loc 1 1837 9
	sw	a5,-32(s0)
	.loc 1 1838 16
	lbu	a5,-25(s0)
	.loc 1 1838 8
	andi	a5,a5,31
	sw	a5,-36(s0)
	.loc 1 1839 11
	lw	a5,-32(s0)
	lw	a5,0(a5)
	sw	a5,-20(s0)
	.loc 1 1841 19
	lw	a5,-36(s0)
	li	a4,1
	sll	a5,a4,a5
	.loc 1 1841 16
	not	a5,a5
	mv	a4,a5
	.loc 1 1841 12
	lw	a5,-20(s0)
	and	a5,a5,a4
	sw	a5,-20(s0)
	.loc 1 1842 10
	lw	a5,-32(s0)
	lw	a4,-20(s0)
	sw	a4,0(a5)
	.loc 1 1844 73
	lbu	a5,-25(s0)
	srli	a5,a5,1
	andi	a5,a5,0xff
	.loc 1 1844 75
	slli	a5,a5,2
	mv	a4,a5
	.loc 1 1844 65
	li	a5,1073741824
	addi	a5,a5,256
	add	a5,a4,a5
	.loc 1 1844 11
	lw	a5,0(a5)
	sw	a5,-24(s0)
	.loc 1 1846 17
	lbu	a5,-25(s0)
	andi	a5,a5,1
	andi	a5,a5,0xff
	.loc 1 1846 7
	bne	a5,zero,.L197
	.loc 1 1848 15
	lw	a5,-52(s0)
	lbu	a4,2(a5)
	.loc 1 1848 11
	li	a5,1
	bne	a4,a5,.L198
	.loc 1 1849 19
	lw	a5,-24(s0)
	andi	a5,a5,-2
	sw	a5,-24(s0)
	.loc 1 1850 25
	lw	a5,-36(s0)
	li	a4,1
	sll	a5,a4,a5
	mv	a4,a5
	.loc 1 1850 20
	lw	a5,-20(s0)
	or	a5,a5,a4
	sw	a5,-20(s0)
	j	.L199
.L198:
	.loc 1 1852 19
	lw	a5,-24(s0)
	ori	a5,a5,1
	sw	a5,-24(s0)
.L199:
	.loc 1 1856 15
	lw	a5,-24(s0)
	andi	a5,a5,-17
	sw	a5,-24(s0)
	.loc 1 1857 15
	lw	a5,-24(s0)
	andi	a5,a5,-33
	sw	a5,-24(s0)
	.loc 1 1858 15
	lw	a5,-52(s0)
	lbu	a5,3(a5)
	.loc 1 1858 11
	bne	a5,zero,.L200
	.loc 1 1859 19
	lw	a5,-24(s0)
	ori	a5,a5,16
	sw	a5,-24(s0)
	j	.L201
.L200:
	.loc 1 1860 21
	lw	a5,-52(s0)
	lbu	a4,3(a5)
	.loc 1 1860 17
	li	a5,1
	bne	a4,a5,.L201
	.loc 1 1861 19
	lw	a5,-24(s0)
	ori	a5,a5,32
	sw	a5,-24(s0)
.L201:
	.loc 1 1864 27
	lw	a5,-24(s0)
	andi	a4,a5,-13
	.loc 1 1864 72
	lw	a5,-52(s0)
	lbu	a5,4(a5)
	.loc 1 1864 80
	slli	a5,a5,2
	.loc 1 1864 15
	or	a5,a4,a5
	sw	a5,-24(s0)
	.loc 1 1865 27
	lw	a5,-24(s0)
	andi	a4,a5,-3
	.loc 1 1865 72
	lw	a5,-52(s0)
	lbu	a5,5(a5)
	.loc 1 1865 82
	slli	a5,a5,1
	.loc 1 1865 15
	or	a5,a4,a5
	sw	a5,-24(s0)
	.loc 1 1866 27
	lw	a4,-24(s0)
	li	a5,-4096
	addi	a5,a5,255
	and	a4,a4,a5
	.loc 1 1866 72
	lw	a5,-52(s0)
	lbu	a5,1(a5)
	.loc 1 1866 82
	slli	a5,a5,8
	.loc 1 1866 15
	or	a5,a4,a5
	sw	a5,-24(s0)
	j	.L202
.L197:
	.loc 1 1869 15
	lw	a5,-52(s0)
	lbu	a4,2(a5)
	.loc 1 1869 11
	li	a5,1
	bne	a4,a5,.L203
	.loc 1 1870 19
	lw	a4,-24(s0)
	li	a5,-65536
	addi	a5,a5,-1
	and	a5,a4,a5
	sw	a5,-24(s0)
	.loc 1 1871 25
	lw	a5,-36(s0)
	li	a4,1
	sll	a5,a4,a5
	mv	a4,a5
	.loc 1 1871 20
	lw	a5,-20(s0)
	or	a5,a5,a4
	sw	a5,-20(s0)
	j	.L204
.L203:
	.loc 1 1873 19
	lw	a4,-24(s0)
	li	a5,65536
	or	a5,a4,a5
	sw	a5,-24(s0)
.L204:
	.loc 1 1876 15
	lw	a4,-24(s0)
	li	a5,-1048576
	addi	a5,a5,-1
	and	a5,a4,a5
	sw	a5,-24(s0)
	.loc 1 1877 15
	lw	a4,-24(s0)
	li	a5,-2097152
	addi	a5,a5,-1
	and	a5,a4,a5
	sw	a5,-24(s0)
	.loc 1 1878 15
	lw	a5,-52(s0)
	lbu	a5,3(a5)
	.loc 1 1878 11
	bne	a5,zero,.L205
	.loc 1 1879 19
	lw	a4,-24(s0)
	li	a5,1048576
	or	a5,a4,a5
	sw	a5,-24(s0)
	j	.L206
.L205:
	.loc 1 1880 21
	lw	a5,-52(s0)
	lbu	a4,3(a5)
	.loc 1 1880 17
	li	a5,1
	bne	a4,a5,.L206
	.loc 1 1881 19
	lw	a4,-24(s0)
	li	a5,2097152
	or	a5,a4,a5
	sw	a5,-24(s0)
.L206:
	.loc 1 1884 27
	lw	a4,-24(s0)
	li	a5,-786432
	addi	a5,a5,-1
	and	a4,a4,a5
	.loc 1 1884 73
	lw	a5,-52(s0)
	lbu	a5,4(a5)
	.loc 1 1884 81
	slli	a5,a5,18
	.loc 1 1884 15
	or	a5,a4,a5
	sw	a5,-24(s0)
	.loc 1 1885 27
	lw	a4,-24(s0)
	li	a5,-131072
	addi	a5,a5,-1
	and	a4,a4,a5
	.loc 1 1885 73
	lw	a5,-52(s0)
	lbu	a5,5(a5)
	.loc 1 1885 83
	slli	a5,a5,17
	.loc 1 1885 15
	or	a5,a4,a5
	sw	a5,-24(s0)
	.loc 1 1886 27
	lw	a4,-24(s0)
	li	a5,-251658240
	addi	a5,a5,-1
	and	a4,a4,a5
	.loc 1 1886 73
	lw	a5,-52(s0)
	lbu	a5,1(a5)
	.loc 1 1886 83
	slli	a5,a5,24
	.loc 1 1886 15
	or	a5,a4,a5
	sw	a5,-24(s0)
.L202:
	.loc 1 1889 66
	lbu	a5,-25(s0)
	srli	a5,a5,1
	andi	a5,a5,0xff
	.loc 1 1889 68
	slli	a5,a5,2
	mv	a4,a5
	.loc 1 1889 58
	li	a5,1073741824
	addi	a5,a5,256
	add	a5,a4,a5
	.loc 1 1889 8
	mv	a4,a5
	.loc 1 1889 72
	lw	a5,-24(s0)
	sw	a5,0(a4)
	.loc 1 1891 10
	lw	a5,-32(s0)
	lw	a4,-20(s0)
	sw	a4,0(a5)
	.loc 1 1893 12
	li	a5,0
	.loc 1 1894 1
	mv	a0,a5
	lw	ra,60(sp)
	.cfi_restore 1
	lw	s0,56(sp)
	.cfi_restore 8
	.cfi_def_cfa 2, 64
	addi	sp,sp,64
	.cfi_def_cfa_offset 0
	jr	ra
	.cfi_endproc
.LFE68:
	.size	GLB_GPIO_Init, .-GLB_GPIO_Init
	.section	.text.GLB_GPIO_Func_Init,"ax",@progbits
	.align	1
	.globl	GLB_GPIO_Func_Init
	.type	GLB_GPIO_Func_Init, @function
GLB_GPIO_Func_Init:
.LFB69:
	.loc 1 1908 1
	.cfi_startproc
	addi	sp,sp,-48
	.cfi_def_cfa_offset 48
	sw	ra,44(sp)
	sw	s0,40(sp)
	.cfi_offset 1, -4
	.cfi_offset 8, -8
	addi	s0,sp,48
	.cfi_def_cfa 8, 0
	mv	a5,a0
	sw	a1,-40(s0)
	mv	a4,a2
	sb	a5,-33(s0)
	mv	a5,a4
	sb	a5,-34(s0)
	.loc 1 1909 23
	sb	zero,-24(s0)
	lbu	a5,-33(s0)
	sb	a5,-23(s0)
	li	a5,2
	sb	a5,-22(s0)
	sb	zero,-21(s0)
	li	a5,1
	sb	a5,-20(s0)
	li	a5,1
	sb	a5,-19(s0)
	.loc 1 1918 7
	lbu	a4,-33(s0)
	li	a5,10
	bne	a4,a5,.L209
	.loc 1 1919 25
	li	a5,2
	sb	a5,-21(s0)
.L209:
.LBB2:
	.loc 1 1922 17
	sb	zero,-17(s0)
	.loc 1 1922 5
	j	.L210
.L211:
	.loc 1 1923 32
	lbu	a5,-17(s0)
	lw	a4,-40(s0)
	add	a5,a4,a5
	lbu	a5,0(a5)
	.loc 1 1923 24
	sb	a5,-24(s0)
	.loc 1 1924 9
	addi	a5,s0,-24
	mv	a0,a5
	call	GLB_GPIO_Init
	.loc 1 1922 28 discriminator 3
	lbu	a5,-17(s0)
	addi	a5,a5,1
	sb	a5,-17(s0)
.L210:
	.loc 1 1922 22 discriminator 1
	lbu	a4,-17(s0)
	lbu	a5,-34(s0)
	bltu	a4,a5,.L211
.LBE2:
	.loc 1 1927 12
	li	a5,0
	.loc 1 1928 1
	mv	a0,a5
	lw	ra,44(sp)
	.cfi_restore 1
	lw	s0,40(sp)
	.cfi_restore 8
	.cfi_def_cfa 2, 48
	addi	sp,sp,48
	.cfi_def_cfa_offset 0
	jr	ra
	.cfi_endproc
.LFE69:
	.size	GLB_GPIO_Func_Init, .-GLB_GPIO_Func_Init
	.section	.tcm_code
	.align	1
	.weak	GLB_GPIO_INPUT_Enable
	.type	GLB_GPIO_INPUT_Enable, @function
GLB_GPIO_INPUT_Enable:
.LFB70:
	.loc 1 1941 1
	.cfi_startproc
	addi	sp,sp,-48
	.cfi_def_cfa_offset 48
	sw	ra,44(sp)
	sw	s0,40(sp)
	.cfi_offset 1, -4
	.cfi_offset 8, -8
	addi	s0,sp,48
	.cfi_def_cfa 8, 0
	mv	a5,a0
	sb	a5,-33(s0)
	.loc 1 1945 27
	lbu	a5,-33(s0)
	srli	a5,a5,1
	andi	a5,a5,0xff
	.loc 1 1945 14
	slli	a5,a5,2
	sw	a5,-24(s0)
	.loc 1 1946 55
	lw	a4,-24(s0)
	li	a5,1073741824
	addi	a5,a5,256
	add	a5,a4,a5
	.loc 1 1946 11
	lw	a5,0(a5)
	sw	a5,-20(s0)
	.loc 1 1947 17
	lbu	a5,-33(s0)
	andi	a5,a5,1
	andi	a5,a5,0xff
	.loc 1 1947 7
	bne	a5,zero,.L214
	.loc 1 1949 15
	lw	a5,-20(s0)
	ori	a5,a5,1
	sw	a5,-20(s0)
	j	.L215
.L214:
	.loc 1 1952 15
	lw	a4,-20(s0)
	li	a5,65536
	or	a5,a4,a5
	sw	a5,-20(s0)
.L215:
	.loc 1 1954 48
	lw	a4,-24(s0)
	li	a5,1073741824
	addi	a5,a5,256
	add	a5,a4,a5
	.loc 1 1954 6
	mv	a4,a5
	.loc 1 1954 59
	lw	a5,-20(s0)
	sw	a5,0(a4)
	.loc 1 1956 12
	li	a5,0
	.loc 1 1957 1
	mv	a0,a5
	lw	ra,44(sp)
	.cfi_restore 1
	lw	s0,40(sp)
	.cfi_restore 8
	.cfi_def_cfa 2, 48
	addi	sp,sp,48
	.cfi_def_cfa_offset 0
	jr	ra
	.cfi_endproc
.LFE70:
	.size	GLB_GPIO_INPUT_Enable, .-GLB_GPIO_INPUT_Enable
	.align	1
	.weak	GLB_GPIO_INPUT_Disable
	.type	GLB_GPIO_INPUT_Disable, @function
GLB_GPIO_INPUT_Disable:
.LFB71:
	.loc 1 1971 1
	.cfi_startproc
	addi	sp,sp,-48
	.cfi_def_cfa_offset 48
	sw	ra,44(sp)
	sw	s0,40(sp)
	.cfi_offset 1, -4
	.cfi_offset 8, -8
	addi	s0,sp,48
	.cfi_def_cfa 8, 0
	mv	a5,a0
	sb	a5,-33(s0)
	.loc 1 1975 27
	lbu	a5,-33(s0)
	srli	a5,a5,1
	andi	a5,a5,0xff
	.loc 1 1975 14
	slli	a5,a5,2
	sw	a5,-24(s0)
	.loc 1 1976 55
	lw	a4,-24(s0)
	li	a5,1073741824
	addi	a5,a5,256
	add	a5,a4,a5
	.loc 1 1976 11
	lw	a5,0(a5)
	sw	a5,-20(s0)
	.loc 1 1977 17
	lbu	a5,-33(s0)
	andi	a5,a5,1
	andi	a5,a5,0xff
	.loc 1 1977 7
	bne	a5,zero,.L218
	.loc 1 1979 15
	lw	a5,-20(s0)
	andi	a5,a5,-2
	sw	a5,-20(s0)
	j	.L219
.L218:
	.loc 1 1982 15
	lw	a4,-20(s0)
	li	a5,-65536
	addi	a5,a5,-1
	and	a5,a4,a5
	sw	a5,-20(s0)
.L219:
	.loc 1 1984 48
	lw	a4,-24(s0)
	li	a5,1073741824
	addi	a5,a5,256
	add	a5,a4,a5
	.loc 1 1984 6
	mv	a4,a5
	.loc 1 1984 59
	lw	a5,-20(s0)
	sw	a5,0(a4)
	.loc 1 1986 12
	li	a5,0
	.loc 1 1987 1
	mv	a0,a5
	lw	ra,44(sp)
	.cfi_restore 1
	lw	s0,40(sp)
	.cfi_restore 8
	.cfi_def_cfa 2, 48
	addi	sp,sp,48
	.cfi_def_cfa_offset 0
	jr	ra
	.cfi_endproc
.LFE71:
	.size	GLB_GPIO_INPUT_Disable, .-GLB_GPIO_INPUT_Disable
	.align	1
	.weak	GLB_GPIO_OUTPUT_Enable
	.type	GLB_GPIO_OUTPUT_Enable, @function
GLB_GPIO_OUTPUT_Enable:
.LFB72:
	.loc 1 2001 1
	.cfi_startproc
	addi	sp,sp,-48
	.cfi_def_cfa_offset 48
	sw	ra,44(sp)
	sw	s0,40(sp)
	.cfi_offset 1, -4
	.cfi_offset 8, -8
	addi	s0,sp,48
	.cfi_def_cfa 8, 0
	mv	a5,a0
	sb	a5,-33(s0)
	.loc 1 2004 13
	li	a5,1073741824
	addi	a5,a5,400
	.loc 1 2004 11
	lw	a5,0(a5)
	sw	a5,-20(s0)
	.loc 1 2005 21
	lbu	a5,-33(s0)
	li	a4,1
	sll	a5,a4,a5
	mv	a4,a5
	.loc 1 2005 11
	lw	a5,-20(s0)
	or	a5,a5,a4
	sw	a5,-20(s0)
	.loc 1 2006 7
	li	a5,1073741824
	addi	a5,a5,400
	.loc 1 2006 61
	lw	a4,-20(s0)
	sw	a4,0(a5)
	.loc 1 2008 12
	li	a5,0
	.loc 1 2009 1
	mv	a0,a5
	lw	ra,44(sp)
	.cfi_restore 1
	lw	s0,40(sp)
	.cfi_restore 8
	.cfi_def_cfa 2, 48
	addi	sp,sp,48
	.cfi_def_cfa_offset 0
	jr	ra
	.cfi_endproc
.LFE72:
	.size	GLB_GPIO_OUTPUT_Enable, .-GLB_GPIO_OUTPUT_Enable
	.align	1
	.weak	GLB_GPIO_OUTPUT_Disable
	.type	GLB_GPIO_OUTPUT_Disable, @function
GLB_GPIO_OUTPUT_Disable:
.LFB73:
	.loc 1 2023 1
	.cfi_startproc
	addi	sp,sp,-48
	.cfi_def_cfa_offset 48
	sw	ra,44(sp)
	sw	s0,40(sp)
	.cfi_offset 1, -4
	.cfi_offset 8, -8
	addi	s0,sp,48
	.cfi_def_cfa 8, 0
	mv	a5,a0
	sb	a5,-33(s0)
	.loc 1 2026 13
	li	a5,1073741824
	addi	a5,a5,400
	.loc 1 2026 11
	lw	a5,0(a5)
	sw	a5,-20(s0)
	.loc 1 2027 22
	lbu	a5,-33(s0)
	li	a4,1
	sll	a5,a4,a5
	.loc 1 2027 19
	not	a5,a5
	mv	a4,a5
	.loc 1 2027 11
	lw	a5,-20(s0)
	and	a5,a5,a4
	sw	a5,-20(s0)
	.loc 1 2028 7
	li	a5,1073741824
	addi	a5,a5,400
	.loc 1 2028 61
	lw	a4,-20(s0)
	sw	a4,0(a5)
	.loc 1 2030 12
	li	a5,0
	.loc 1 2031 1
	mv	a0,a5
	lw	ra,44(sp)
	.cfi_restore 1
	lw	s0,40(sp)
	.cfi_restore 8
	.cfi_def_cfa 2, 48
	addi	sp,sp,48
	.cfi_def_cfa_offset 0
	jr	ra
	.cfi_endproc
.LFE73:
	.size	GLB_GPIO_OUTPUT_Disable, .-GLB_GPIO_OUTPUT_Disable
	.align	1
	.weak	GLB_GPIO_Set_HZ
	.type	GLB_GPIO_Set_HZ, @function
GLB_GPIO_Set_HZ:
.LFB74:
	.loc 1 2045 1
	.cfi_startproc
	addi	sp,sp,-48
	.cfi_def_cfa_offset 48
	sw	ra,44(sp)
	sw	s0,40(sp)
	.cfi_offset 1, -4
	.cfi_offset 8, -8
	addi	s0,sp,48
	.cfi_def_cfa 8, 0
	mv	a5,a0
	sb	a5,-33(s0)
	.loc 1 2051 66
	lbu	a5,-33(s0)
	srli	a5,a5,5
	andi	a5,a5,0xff
	slli	a4,a5,2
	.loc 1 2051 52
	li	a5,1073741824
	addi	a5,a5,400
	add	a5,a4,a5
	.loc 1 2051 9
	sw	a5,-24(s0)
	.loc 1 2052 16
	lbu	a5,-33(s0)
	.loc 1 2052 8
	andi	a5,a5,31
	sw	a5,-28(s0)
	.loc 1 2053 11
	lw	a5,-24(s0)
	lw	a5,0(a5)
	sw	a5,-32(s0)
	.loc 1 2056 19
	lw	a5,-28(s0)
	li	a4,1
	sll	a5,a4,a5
	.loc 1 2056 16
	not	a5,a5
	mv	a4,a5
	.loc 1 2056 12
	lw	a5,-32(s0)
	and	a5,a5,a4
	sw	a5,-32(s0)
	.loc 1 2057 10
	lw	a5,-24(s0)
	lw	a4,-32(s0)
	sw	a4,0(a5)
	.loc 1 2059 73
	lbu	a5,-33(s0)
	srli	a5,a5,1
	andi	a5,a5,0xff
	.loc 1 2059 75
	slli	a5,a5,2
	mv	a4,a5
	.loc 1 2059 65
	li	a5,1073741824
	addi	a5,a5,256
	add	a5,a4,a5
	.loc 1 2059 11
	lw	a5,0(a5)
	sw	a5,-20(s0)
	.loc 1 2062 17
	lbu	a5,-33(s0)
	andi	a5,a5,1
	andi	a5,a5,0xff
	.loc 1 2062 7
	bne	a5,zero,.L226
	.loc 1 2063 15
	lw	a4,-20(s0)
	li	a5,-65536
	and	a5,a4,a5
	sw	a5,-20(s0)
	.loc 1 2064 15
	lw	a4,-20(s0)
	li	a5,4096
	addi	a5,a5,-1280
	or	a5,a4,a5
	sw	a5,-20(s0)
	j	.L227
.L226:
	.loc 1 2066 15
	lw	a5,-20(s0)
	slli	a5,a5,16
	srli	a5,a5,16
	sw	a5,-20(s0)
	.loc 1 2067 15
	lw	a4,-20(s0)
	li	a5,184549376
	or	a5,a4,a5
	sw	a5,-20(s0)
.L227:
	.loc 1 2070 66
	lbu	a5,-33(s0)
	srli	a5,a5,1
	andi	a5,a5,0xff
	.loc 1 2070 68
	slli	a5,a5,2
	mv	a4,a5
	.loc 1 2070 58
	li	a5,1073741824
	addi	a5,a5,256
	add	a5,a4,a5
	.loc 1 2070 8
	mv	a4,a5
	.loc 1 2070 72
	lw	a5,-20(s0)
	sw	a5,0(a4)
	.loc 1 2073 10
	lw	a5,-24(s0)
	lw	a4,-32(s0)
	sw	a4,0(a5)
	.loc 1 2075 12
	li	a5,0
	.loc 1 2076 1
	mv	a0,a5
	lw	ra,44(sp)
	.cfi_restore 1
	lw	s0,40(sp)
	.cfi_restore 8
	.cfi_def_cfa 2, 48
	addi	sp,sp,48
	.cfi_def_cfa_offset 0
	jr	ra
	.cfi_endproc
.LFE74:
	.size	GLB_GPIO_Set_HZ, .-GLB_GPIO_Set_HZ
	.align	1
	.weak	GLB_GPIO_Get_Fun
	.type	GLB_GPIO_Get_Fun, @function
GLB_GPIO_Get_Fun:
.LFB75:
	.loc 1 2090 1
	.cfi_startproc
	addi	sp,sp,-48
	.cfi_def_cfa_offset 48
	sw	ra,44(sp)
	sw	s0,40(sp)
	.cfi_offset 1, -4
	.cfi_offset 8, -8
	addi	s0,sp,48
	.cfi_def_cfa 8, 0
	mv	a5,a0
	sb	a5,-33(s0)
	.loc 1 2092 72
	lbu	a5,-33(s0)
	srli	a5,a5,1
	andi	a5,a5,0xff
	.loc 1 2092 74
	slli	a5,a5,2
	mv	a4,a5
	.loc 1 2092 64
	li	a5,1073741824
	addi	a5,a5,256
	add	a5,a4,a5
	.loc 1 2092 10
	lw	a5,0(a5)
	sw	a5,-20(s0)
	.loc 1 2094 16
	lbu	a5,-33(s0)
	andi	a5,a5,1
	andi	a5,a5,0xff
	.loc 1 2094 6
	bne	a5,zero,.L230
	.loc 1 2095 53
	lw	a5,-20(s0)
	srli	a5,a5,8
	andi	a5,a5,0xff
	andi	a5,a5,15
	andi	a5,a5,0xff
	j	.L231
.L230:
	.loc 1 2097 54
	lw	a5,-20(s0)
	srli	a5,a5,24
	andi	a5,a5,0xff
	andi	a5,a5,15
	andi	a5,a5,0xff
.L231:
	.loc 1 2099 1
	mv	a0,a5
	lw	ra,44(sp)
	.cfi_restore 1
	lw	s0,40(sp)
	.cfi_restore 8
	.cfi_def_cfa 2, 48
	addi	sp,sp,48
	.cfi_def_cfa_offset 0
	jr	ra
	.cfi_endproc
.LFE75:
	.size	GLB_GPIO_Get_Fun, .-GLB_GPIO_Get_Fun
	.section	.text.GLB_GPIO_Get_Real_Fun,"ax",@progbits
	.align	1
	.globl	GLB_GPIO_Get_Real_Fun
	.type	GLB_GPIO_Get_Real_Fun, @function
GLB_GPIO_Get_Real_Fun:
.LFB76:
	.loc 1 2111 1
	.cfi_startproc
	addi	sp,sp,-48
	.cfi_def_cfa_offset 48
	sw	ra,44(sp)
	sw	s0,40(sp)
	.cfi_offset 1, -4
	.cfi_offset 8, -8
	addi	s0,sp,48
	.cfi_def_cfa 8, 0
	mv	a5,a0
	sb	a5,-33(s0)
	.loc 1 2116 72
	lbu	a5,-33(s0)
	srli	a5,a5,1
	andi	a5,a5,0xff
	.loc 1 2116 74
	slli	a5,a5,2
	mv	a4,a5
	.loc 1 2116 64
	li	a5,1073741824
	addi	a5,a5,256
	add	a5,a4,a5
	.loc 1 2116 10
	lw	a5,0(a5)
	sw	a5,-20(s0)
	.loc 1 2117 16
	lbu	a5,-33(s0)
	andi	a5,a5,1
	andi	a5,a5,0xff
	.loc 1 2117 6
	bne	a5,zero,.L233
	.loc 1 2118 79
	lw	a5,-20(s0)
	srli	a5,a5,12
	andi	a5,a5,15
	.loc 1 2118 15
	andi	a5,a5,0xff
	j	.L234
.L233:
	.loc 1 2120 79
	lw	a5,-20(s0)
	srli	a5,a5,28
	.loc 1 2120 15
	andi	a5,a5,0xff
.L234:
	.loc 1 2122 1
	mv	a0,a5
	lw	ra,44(sp)
	.cfi_restore 1
	lw	s0,40(sp)
	.cfi_restore 8
	.cfi_def_cfa 2, 48
	addi	sp,sp,48
	.cfi_def_cfa_offset 0
	jr	ra
	.cfi_endproc
.LFE76:
	.size	GLB_GPIO_Get_Real_Fun, .-GLB_GPIO_Get_Real_Fun
	.section	.text.GLB_GPIO_Write,"ax",@progbits
	.align	1
	.globl	GLB_GPIO_Write
	.type	GLB_GPIO_Write, @function
GLB_GPIO_Write:
.LFB77:
	.loc 1 2134 1
	.cfi_startproc
	addi	sp,sp,-48
	.cfi_def_cfa_offset 48
	sw	ra,44(sp)
	sw	s0,40(sp)
	.cfi_offset 1, -4
	.cfi_offset 8, -8
	addi	s0,sp,48
	.cfi_def_cfa 8, 0
	mv	a5,a0
	sw	a1,-40(s0)
	sb	a5,-33(s0)
	.loc 1 2135 76
	lbu	a5,-33(s0)
	srli	a5,a5,5
	andi	a5,a5,0xff
	slli	a4,a5,2
	.loc 1 2135 62
	li	a5,1073741824
	addi	a5,a5,392
	add	a5,a4,a5
	.loc 1 2135 15
	sw	a5,-24(s0)
	.loc 1 2136 25
	lbu	a5,-33(s0)
	.loc 1 2136 14
	andi	a5,a5,31
	sw	a5,-28(s0)
	.loc 1 2139 11
	lw	a5,-24(s0)
	lw	a5,0(a5)
	sw	a5,-20(s0)
	.loc 1 2140 7
	lw	a5,-40(s0)
	beq	a5,zero,.L236
	.loc 1 2141 21
	lw	a5,-28(s0)
	li	a4,1
	sll	a5,a4,a5
	mv	a4,a5
	.loc 1 2141 16
	lw	a5,-20(s0)
	or	a5,a5,a4
	sw	a5,-20(s0)
	j	.L237
.L236:
	.loc 1 2143 23
	lw	a5,-28(s0)
	li	a4,1
	sll	a5,a4,a5
	.loc 1 2143 20
	not	a5,a5
	mv	a4,a5
	.loc 1 2143 16
	lw	a5,-20(s0)
	and	a5,a5,a4
	sw	a5,-20(s0)
.L237:
	.loc 1 2145 10
	lw	a5,-24(s0)
	lw	a4,-20(s0)
	sw	a4,0(a5)
	.loc 1 2147 12
	li	a5,0
	.loc 1 2148 1
	mv	a0,a5
	lw	ra,44(sp)
	.cfi_restore 1
	lw	s0,40(sp)
	.cfi_restore 8
	.cfi_def_cfa 2, 48
	addi	sp,sp,48
	.cfi_def_cfa_offset 0
	jr	ra
	.cfi_endproc
.LFE77:
	.size	GLB_GPIO_Write, .-GLB_GPIO_Write
	.section	.text.GLB_GPIO_Read,"ax",@progbits
	.align	1
	.globl	GLB_GPIO_Read
	.type	GLB_GPIO_Read, @function
GLB_GPIO_Read:
.LFB78:
	.loc 1 2159 1
	.cfi_startproc
	addi	sp,sp,-48
	.cfi_def_cfa_offset 48
	sw	ra,44(sp)
	sw	s0,40(sp)
	.cfi_offset 1, -4
	.cfi_offset 8, -8
	addi	s0,sp,48
	.cfi_def_cfa 8, 0
	mv	a5,a0
	sb	a5,-33(s0)
	.loc 1 2160 73
	lbu	a5,-33(s0)
	srli	a5,a5,5
	andi	a5,a5,0xff
	slli	a4,a5,2
	.loc 1 2160 59
	li	a5,1073741824
	addi	a5,a5,384
	add	a5,a4,a5
	.loc 1 2160 15
	sw	a5,-20(s0)
	.loc 1 2161 25
	lbu	a5,-33(s0)
	.loc 1 2161 14
	andi	a5,a5,31
	sw	a5,-24(s0)
	.loc 1 2163 9
	lw	a5,-20(s0)
	lw	a5,0(a5)
	.loc 1 2163 15
	lw	a4,-24(s0)
	li	a3,1
	sll	a4,a3,a4
	.loc 1 2163 12
	and	a5,a5,a4
	.loc 1 2163 7
	beq	a5,zero,.L240
	.loc 1 2164 16
	li	a5,1
	j	.L241
.L240:
	.loc 1 2166 16
	li	a5,0
.L241:
	.loc 1 2168 1
	mv	a0,a5
	lw	ra,44(sp)
	.cfi_restore 1
	lw	s0,40(sp)
	.cfi_restore 8
	.cfi_def_cfa 2, 48
	addi	sp,sp,48
	.cfi_def_cfa_offset 0
	jr	ra
	.cfi_endproc
.LFE78:
	.size	GLB_GPIO_Read, .-GLB_GPIO_Read
	.section	.text.GLB_GPIO_IntMask,"ax",@progbits
	.align	1
	.globl	GLB_GPIO_IntMask
	.type	GLB_GPIO_IntMask, @function
GLB_GPIO_IntMask:
.LFB79:
	.loc 1 2180 1
	.cfi_startproc
	addi	sp,sp,-48
	.cfi_def_cfa_offset 48
	sw	ra,44(sp)
	sw	s0,40(sp)
	.cfi_offset 1, -4
	.cfi_offset 8, -8
	addi	s0,sp,48
	.cfi_def_cfa 8, 0
	mv	a5,a0
	mv	a4,a1
	sb	a5,-33(s0)
	mv	a5,a4
	sb	a5,-34(s0)
	.loc 1 2183 7
	lbu	a4,-33(s0)
	li	a5,31
	bgtu	a4,a5,.L243
	.loc 1 2185 19
	li	a5,1073741824
	addi	a5,a5,416
	.loc 1 2185 16
	lw	a5,0(a5)
	sw	a5,-20(s0)
	.loc 1 2186 11
	lbu	a4,-34(s0)
	li	a5,1
	bne	a4,a5,.L244
	.loc 1 2187 31
	lbu	a5,-33(s0)
	li	a4,1
	sll	a5,a4,a5
	mv	a4,a5
	.loc 1 2187 20
	lw	a5,-20(s0)
	or	a5,a5,a4
	sw	a5,-20(s0)
	j	.L245
.L244:
	.loc 1 2189 32
	lbu	a5,-33(s0)
	li	a4,1
	sll	a5,a4,a5
	.loc 1 2189 29
	not	a5,a5
	mv	a4,a5
	.loc 1 2189 20
	lw	a5,-20(s0)
	and	a5,a5,a4
	sw	a5,-20(s0)
.L245:
	.loc 1 2191 11
	li	a5,1073741824
	addi	a5,a5,416
	.loc 1 2191 65
	lw	a4,-20(s0)
	sw	a4,0(a5)
.L243:
	.loc 1 2194 12
	li	a5,0
	.loc 1 2195 1
	mv	a0,a5
	lw	ra,44(sp)
	.cfi_restore 1
	lw	s0,40(sp)
	.cfi_restore 8
	.cfi_def_cfa 2, 48
	addi	sp,sp,48
	.cfi_def_cfa_offset 0
	jr	ra
	.cfi_endproc
.LFE79:
	.size	GLB_GPIO_IntMask, .-GLB_GPIO_IntMask
	.section	.text.GLB_GPIO_IntClear,"ax",@progbits
	.align	1
	.globl	GLB_GPIO_IntClear
	.type	GLB_GPIO_IntClear, @function
GLB_GPIO_IntClear:
.LFB80:
	.loc 1 2207 1
	.cfi_startproc
	addi	sp,sp,-48
	.cfi_def_cfa_offset 48
	sw	ra,44(sp)
	sw	s0,40(sp)
	.cfi_offset 1, -4
	.cfi_offset 8, -8
	addi	s0,sp,48
	.cfi_def_cfa 8, 0
	mv	a5,a0
	mv	a4,a1
	sb	a5,-33(s0)
	mv	a5,a4
	sb	a5,-34(s0)
	.loc 1 2210 7
	lbu	a4,-33(s0)
	li	a5,31
	bgtu	a4,a5,.L248
	.loc 1 2212 19
	li	a5,1073741824
	addi	a5,a5,432
	.loc 1 2212 16
	lw	a5,0(a5)
	sw	a5,-20(s0)
	.loc 1 2213 11
	lbu	a4,-34(s0)
	li	a5,1
	bne	a4,a5,.L249
	.loc 1 2214 31
	lbu	a5,-33(s0)
	li	a4,1
	sll	a5,a4,a5
	mv	a4,a5
	.loc 1 2214 20
	lw	a5,-20(s0)
	or	a5,a5,a4
	sw	a5,-20(s0)
	j	.L250
.L249:
	.loc 1 2216 32
	lbu	a5,-33(s0)
	li	a4,1
	sll	a5,a4,a5
	.loc 1 2216 29
	not	a5,a5
	mv	a4,a5
	.loc 1 2216 20
	lw	a5,-20(s0)
	and	a5,a5,a4
	sw	a5,-20(s0)
.L250:
	.loc 1 2218 11
	li	a5,1073741824
	addi	a5,a5,432
	.loc 1 2218 65
	lw	a4,-20(s0)
	sw	a4,0(a5)
.L248:
	.loc 1 2221 12
	li	a5,0
	.loc 1 2222 1
	mv	a0,a5
	lw	ra,44(sp)
	.cfi_restore 1
	lw	s0,40(sp)
	.cfi_restore 8
	.cfi_def_cfa 2, 48
	addi	sp,sp,48
	.cfi_def_cfa_offset 0
	jr	ra
	.cfi_endproc
.LFE80:
	.size	GLB_GPIO_IntClear, .-GLB_GPIO_IntClear
	.section	.text.GLB_Get_GPIO_IntStatus,"ax",@progbits
	.align	1
	.globl	GLB_Get_GPIO_IntStatus
	.type	GLB_Get_GPIO_IntStatus, @function
GLB_Get_GPIO_IntStatus:
.LFB81:
	.loc 1 2233 1
	.cfi_startproc
	addi	sp,sp,-48
	.cfi_def_cfa_offset 48
	sw	ra,44(sp)
	sw	s0,40(sp)
	.cfi_offset 1, -4
	.cfi_offset 8, -8
	addi	s0,sp,48
	.cfi_def_cfa 8, 0
	mv	a5,a0
	sb	a5,-33(s0)
	.loc 1 2234 14
	sw	zero,-20(s0)
	.loc 1 2236 7
	lbu	a4,-33(s0)
	li	a5,31
	bgtu	a4,a5,.L253
	.loc 1 2238 19
	li	a5,1073741824
	addi	a5,a5,424
	.loc 1 2238 16
	lw	a5,0(a5)
	sw	a5,-20(s0)
.L253:
	.loc 1 2241 22
	lbu	a5,-33(s0)
	li	a4,1
	sll	a5,a4,a5
	mv	a4,a5
	.loc 1 2241 19
	lw	a5,-20(s0)
	and	a5,a4,a5
	.loc 1 2241 37
	snez	a5,a5
	andi	a5,a5,0xff
	.loc 1 2242 1
	mv	a0,a5
	lw	ra,44(sp)
	.cfi_restore 1
	lw	s0,40(sp)
	.cfi_restore 8
	.cfi_def_cfa 2, 48
	addi	sp,sp,48
	.cfi_def_cfa_offset 0
	jr	ra
	.cfi_endproc
.LFE81:
	.size	GLB_Get_GPIO_IntStatus, .-GLB_Get_GPIO_IntStatus
	.section	.text.GLB_Clr_GPIO_IntStatus,"ax",@progbits
	.align	1
	.globl	GLB_Clr_GPIO_IntStatus
	.type	GLB_Clr_GPIO_IntStatus, @function
GLB_Clr_GPIO_IntStatus:
.LFB82:
	.loc 1 2253 1
	.cfi_startproc
	addi	sp,sp,-48
	.cfi_def_cfa_offset 48
	sw	ra,44(sp)
	sw	s0,40(sp)
	.cfi_offset 1, -4
	.cfi_offset 8, -8
	addi	s0,sp,48
	.cfi_def_cfa 8, 0
	mv	a5,a0
	sb	a5,-33(s0)
	.loc 1 2256 7
	lbu	a4,-33(s0)
	li	a5,31
	bgtu	a4,a5,.L256
	.loc 1 2258 19
	li	a5,1073741824
	addi	a5,a5,432
	.loc 1 2258 16
	lw	a5,0(a5)
	sw	a5,-20(s0)
	.loc 1 2259 27
	lbu	a5,-33(s0)
	li	a4,1
	sll	a5,a4,a5
	mv	a4,a5
	.loc 1 2259 16
	lw	a5,-20(s0)
	or	a5,a5,a4
	sw	a5,-20(s0)
	.loc 1 2260 11
	li	a5,1073741824
	addi	a5,a5,432
	.loc 1 2260 65
	lw	a4,-20(s0)
	sw	a4,0(a5)
.L256:
	.loc 1 2263 12
	li	a5,0
	.loc 1 2264 1
	mv	a0,a5
	lw	ra,44(sp)
	.cfi_restore 1
	lw	s0,40(sp)
	.cfi_restore 8
	.cfi_def_cfa 2, 48
	addi	sp,sp,48
	.cfi_def_cfa_offset 0
	jr	ra
	.cfi_endproc
.LFE82:
	.size	GLB_Clr_GPIO_IntStatus, .-GLB_Clr_GPIO_IntStatus
	.section	.text.GLB_Set_GPIO_IntMod,"ax",@progbits
	.align	1
	.globl	GLB_Set_GPIO_IntMod
	.type	GLB_Set_GPIO_IntMod, @function
GLB_Set_GPIO_IntMod:
.LFB83:
	.loc 1 2277 1
	.cfi_startproc
	addi	sp,sp,-48
	.cfi_def_cfa_offset 48
	sw	ra,44(sp)
	sw	s0,40(sp)
	.cfi_offset 1, -4
	.cfi_offset 8, -8
	addi	s0,sp,48
	.cfi_def_cfa 8, 0
	mv	a5,a0
	mv	a3,a1
	mv	a4,a2
	sb	a5,-33(s0)
	mv	a5,a3
	sb	a5,-34(s0)
	mv	a5,a4
	sb	a5,-35(s0)
	.loc 1 2284 7
	lbu	a4,-33(s0)
	li	a5,9
	bgtu	a4,a5,.L259
	.loc 1 2286 19
	li	a5,1073741824
	addi	a5,a5,448
	.loc 1 2286 16
	lw	a5,0(a5)
	sw	a5,-20(s0)
	.loc 1 2287 20
	lbu	a5,-33(s0)
	sw	a5,-24(s0)
	.loc 1 2288 35
	lw	a4,-24(s0)
	mv	a5,a4
	slli	a5,a5,1
	add	a5,a5,a4
	.loc 1 2288 31
	li	a4,7
	sll	a5,a4,a5
	.loc 1 2288 26
	not	a5,a5
	mv	a4,a5
	.loc 1 2288 25
	lw	a5,-20(s0)
	and	a3,a4,a5
	.loc 1 2288 62
	lbu	a5,-34(s0)
	slli	a4,a5,2
	.loc 1 2288 66
	lbu	a5,-35(s0)
	or	a2,a4,a5
	.loc 1 2288 81
	lw	a4,-24(s0)
	mv	a5,a4
	slli	a5,a5,1
	add	a5,a5,a4
	.loc 1 2288 77
	sll	a5,a2,a5
	.loc 1 2288 16
	or	a5,a3,a5
	sw	a5,-20(s0)
	.loc 1 2289 11
	li	a5,1073741824
	addi	a5,a5,448
	.loc 1 2289 65
	lw	a4,-20(s0)
	sw	a4,0(a5)
	j	.L260
.L259:
	.loc 1 2290 13
	lbu	a4,-33(s0)
	li	a5,19
	bgtu	a4,a5,.L261
	.loc 1 2292 19
	li	a5,1073741824
	addi	a5,a5,452
	.loc 1 2292 16
	lw	a5,0(a5)
	sw	a5,-20(s0)
	.loc 1 2293 30
	lbu	a5,-33(s0)
	addi	a5,a5,-10
	.loc 1 2293 20
	sw	a5,-24(s0)
	.loc 1 2294 35
	lw	a4,-24(s0)
	mv	a5,a4
	slli	a5,a5,1
	add	a5,a5,a4
	.loc 1 2294 31
	li	a4,7
	sll	a5,a4,a5
	.loc 1 2294 26
	not	a5,a5
	mv	a4,a5
	.loc 1 2294 25
	lw	a5,-20(s0)
	and	a3,a4,a5
	.loc 1 2294 62
	lbu	a5,-34(s0)
	slli	a4,a5,2
	.loc 1 2294 66
	lbu	a5,-35(s0)
	or	a2,a4,a5
	.loc 1 2294 81
	lw	a4,-24(s0)
	mv	a5,a4
	slli	a5,a5,1
	add	a5,a5,a4
	.loc 1 2294 77
	sll	a5,a2,a5
	.loc 1 2294 16
	or	a5,a3,a5
	sw	a5,-20(s0)
	.loc 1 2295 11
	li	a5,1073741824
	addi	a5,a5,452
	.loc 1 2295 65
	lw	a4,-20(s0)
	sw	a4,0(a5)
	j	.L260
.L261:
	.loc 1 2298 19
	li	a5,1073741824
	addi	a5,a5,456
	.loc 1 2298 16
	lw	a5,0(a5)
	sw	a5,-20(s0)
	.loc 1 2299 30
	lbu	a5,-33(s0)
	addi	a5,a5,-20
	.loc 1 2299 20
	sw	a5,-24(s0)
	.loc 1 2300 35
	lw	a4,-24(s0)
	mv	a5,a4
	slli	a5,a5,1
	add	a5,a5,a4
	.loc 1 2300 31
	li	a4,7
	sll	a5,a4,a5
	.loc 1 2300 26
	not	a5,a5
	mv	a4,a5
	.loc 1 2300 25
	lw	a5,-20(s0)
	and	a3,a4,a5
	.loc 1 2300 62
	lbu	a5,-34(s0)
	slli	a4,a5,2
	.loc 1 2300 66
	lbu	a5,-35(s0)
	or	a2,a4,a5
	.loc 1 2300 81
	lw	a4,-24(s0)
	mv	a5,a4
	slli	a5,a5,1
	add	a5,a5,a4
	.loc 1 2300 77
	sll	a5,a2,a5
	.loc 1 2300 16
	or	a5,a3,a5
	sw	a5,-20(s0)
	.loc 1 2301 11
	li	a5,1073741824
	addi	a5,a5,456
	.loc 1 2301 65
	lw	a4,-20(s0)
	sw	a4,0(a5)
.L260:
	.loc 1 2304 12
	li	a5,0
	.loc 1 2305 1
	mv	a0,a5
	lw	ra,44(sp)
	.cfi_restore 1
	lw	s0,40(sp)
	.cfi_restore 8
	.cfi_def_cfa 2, 48
	addi	sp,sp,48
	.cfi_def_cfa_offset 0
	jr	ra
	.cfi_endproc
.LFE83:
	.size	GLB_Set_GPIO_IntMod, .-GLB_Set_GPIO_IntMod
	.section	.text.GLB_Get_GPIO_IntCtlMod,"ax",@progbits
	.align	1
	.globl	GLB_Get_GPIO_IntCtlMod
	.type	GLB_Get_GPIO_IntCtlMod, @function
GLB_Get_GPIO_IntCtlMod:
.LFB84:
	.loc 1 2316 1
	.cfi_startproc
	addi	sp,sp,-48
	.cfi_def_cfa_offset 48
	sw	ra,44(sp)
	sw	s0,40(sp)
	.cfi_offset 1, -4
	.cfi_offset 8, -8
	addi	s0,sp,48
	.cfi_def_cfa 8, 0
	mv	a5,a0
	sb	a5,-33(s0)
	.loc 1 2320 7
	lbu	a4,-33(s0)
	li	a5,9
	bgtu	a4,a5,.L264
	.loc 1 2322 15
	lbu	a5,-33(s0)
	sw	a5,-20(s0)
	.loc 1 2323 17
	li	a5,1073741824
	addi	a5,a5,448
	.loc 1 2323 15
	lw	a5,0(a5)
	sw	a5,-24(s0)
	.loc 1 2324 37
	lw	a4,-20(s0)
	mv	a5,a4
	slli	a5,a5,1
	add	a5,a5,a4
	.loc 1 2324 28
	li	a4,7
	sll	a5,a4,a5
	mv	a4,a5
	.loc 1 2324 23
	lw	a5,-24(s0)
	and	a3,a4,a5
	.loc 1 2324 51
	lw	a4,-20(s0)
	mv	a5,a4
	slli	a5,a5,1
	add	a5,a5,a4
	.loc 1 2324 15
	srl	a5,a3,a5
	sw	a5,-24(s0)
	.loc 1 2325 23
	lw	a5,-24(s0)
	srli	a5,a5,2
	.loc 1 2325 54
	snez	a5,a5
	andi	a5,a5,0xff
	j	.L265
.L264:
	.loc 1 2326 13
	lbu	a4,-33(s0)
	li	a5,9
	bleu	a4,a5,.L266
	.loc 1 2326 38 discriminator 1
	lbu	a4,-33(s0)
	li	a5,19
	bgtu	a4,a5,.L266
	.loc 1 2328 23
	lbu	a5,-33(s0)
	addi	a5,a5,-10
	.loc 1 2328 15
	sw	a5,-20(s0)
	.loc 1 2329 17
	li	a5,1073741824
	addi	a5,a5,452
	.loc 1 2329 15
	lw	a5,0(a5)
	sw	a5,-24(s0)
	.loc 1 2330 37
	lw	a4,-20(s0)
	mv	a5,a4
	slli	a5,a5,1
	add	a5,a5,a4
	.loc 1 2330 28
	li	a4,7
	sll	a5,a4,a5
	mv	a4,a5
	.loc 1 2330 23
	lw	a5,-24(s0)
	and	a3,a4,a5
	.loc 1 2330 51
	lw	a4,-20(s0)
	mv	a5,a4
	slli	a5,a5,1
	add	a5,a5,a4
	.loc 1 2330 15
	srl	a5,a3,a5
	sw	a5,-24(s0)
	.loc 1 2331 23
	lw	a5,-24(s0)
	srli	a5,a5,2
	.loc 1 2331 54
	snez	a5,a5
	andi	a5,a5,0xff
	j	.L265
.L266:
	.loc 1 2334 23
	lbu	a5,-33(s0)
	addi	a5,a5,-20
	.loc 1 2334 15
	sw	a5,-20(s0)
	.loc 1 2335 17
	li	a5,1073741824
	addi	a5,a5,456
	.loc 1 2335 15
	lw	a5,0(a5)
	sw	a5,-24(s0)
	.loc 1 2336 37
	lw	a4,-20(s0)
	mv	a5,a4
	slli	a5,a5,1
	add	a5,a5,a4
	.loc 1 2336 28
	li	a4,7
	sll	a5,a4,a5
	mv	a4,a5
	.loc 1 2336 23
	lw	a5,-24(s0)
	and	a3,a4,a5
	.loc 1 2336 51
	lw	a4,-20(s0)
	mv	a5,a4
	slli	a5,a5,1
	add	a5,a5,a4
	.loc 1 2336 15
	srl	a5,a3,a5
	sw	a5,-24(s0)
	.loc 1 2337 23
	lw	a5,-24(s0)
	srli	a5,a5,2
	.loc 1 2337 54
	snez	a5,a5
	andi	a5,a5,0xff
.L265:
	.loc 1 2339 1
	mv	a0,a5
	lw	ra,44(sp)
	.cfi_restore 1
	lw	s0,40(sp)
	.cfi_restore 8
	.cfi_def_cfa 2, 48
	addi	sp,sp,48
	.cfi_def_cfa_offset 0
	jr	ra
	.cfi_endproc
.LFE84:
	.size	GLB_Get_GPIO_IntCtlMod, .-GLB_Get_GPIO_IntCtlMod
	.section	.text.GLB_GPIO_INT0_Callback_Install,"ax",@progbits
	.align	1
	.globl	GLB_GPIO_INT0_Callback_Install
	.type	GLB_GPIO_INT0_Callback_Install, @function
GLB_GPIO_INT0_Callback_Install:
.LFB85:
	.loc 1 2351 1
	.cfi_startproc
	addi	sp,sp,-32
	.cfi_def_cfa_offset 32
	sw	ra,28(sp)
	sw	s0,24(sp)
	.cfi_offset 1, -4
	.cfi_offset 8, -8
	addi	s0,sp,32
	.cfi_def_cfa 8, 0
	mv	a5,a0
	sw	a1,-24(s0)
	sb	a5,-17(s0)
	.loc 1 2352 7
	lbu	a4,-17(s0)
	li	a5,22
	bgtu	a4,a5,.L268
	.loc 1 2353 27
	lbu	a5,-17(s0)
	.loc 1 2353 37
	lui	a4,%hi(glbGpioInt0CbfArra)
	addi	a4,a4,%lo(glbGpioInt0CbfArra)
	slli	a5,a5,2
	add	a5,a4,a5
	lw	a4,-24(s0)
	sw	a4,0(a5)
.L268:
	.loc 1 2356 12
	li	a5,0
	.loc 1 2357 1
	mv	a0,a5
	lw	ra,28(sp)
	.cfi_restore 1
	lw	s0,24(sp)
	.cfi_restore 8
	.cfi_def_cfa 2, 32
	addi	sp,sp,32
	.cfi_def_cfa_offset 0
	jr	ra
	.cfi_endproc
.LFE85:
	.size	GLB_GPIO_INT0_Callback_Install, .-GLB_GPIO_INT0_Callback_Install
	.text
.Letext0:
	.file 2 "/home/chandu/sdk/bl602_iot_sdk/components/bl602/bl602_std/bl602_std/Device/Bouffalo/BL602/Peripherals/bl602.h"
	.file 3 "/home/chandu/sdk/bl602_iot_sdk/toolchain/compiler/lib/gcc/riscv32-unknown-elf/15.1.0/include/stdint-gcc.h"
	.file 4 "/home/chandu/sdk/bl602_iot_sdk/components/bl602/bl602_std/bl602_std/StdDriver/Inc/bl602_gpio.h"
	.file 5 "/home/chandu/sdk/bl602_iot_sdk/components/bl602/bl602_std/bl602_std/StdDriver/Inc/bl602_common.h"
	.file 6 "/home/chandu/sdk/bl602_iot_sdk/components/bl602/bl602_std/bl602_std/StdDriver/Inc/bl602_sf_ctrl.h"
	.file 7 "/home/chandu/sdk/bl602_iot_sdk/components/bl602/bl602_std/bl602_std/StdDriver/Inc/bl602_hbn.h"
	.file 8 "/home/chandu/sdk/bl602_iot_sdk/components/bl602/bl602_std/bl602_std/StdDriver/Inc/bl602_pds.h"
	.file 9 "/home/chandu/sdk/bl602_iot_sdk/components/bl602/bl602_std/bl602_std/StdDriver/Inc/bl602_glb.h"
	.file 10 "/home/chandu/sdk/bl602_iot_sdk/components/bl602/bl602_std/bl602_std/StdDriver/Inc/bl602_l1c.h"
	.file 11 "/home/chandu/sdk/bl602_iot_sdk/components/bl602/bl602_std/bl602_std/StdDriver/Inc/bl602_aon.h"
	.section	.note.GNU-stack,"",@progbits
