	.file	"bl602_dma.c"
	.option nopic
	.attribute arch, "rv32i2p1_m2p0_f2p2_c2p0_zicsr2p0_zmmul1p0_zca1p0_zcf1p0"
	.attribute unaligned_access, 0
	.attribute stack_align, 16
	.text
.Ltext0:
	.cfi_sections	.debug_frame
	.file 0 "/home/chandu/sdk/bl602_iot_sdk/customer_app/suas_app_pqkem_gateway/build_out/bl602_std" "/home/chandu/sdk/bl602_iot_sdk/components/bl602/bl602_std/bl602_std/StdDriver/Src/bl602_dma.c"
	.section	.bss.dmaIntCbfArra,"aw",@nobits
	.align	2
	.type	dmaIntCbfArra, @object
	.size	dmaIntCbfArra, 32
dmaIntCbfArra:
	.zero	32
	.section	.bss.PingPongListArra,"aw",@nobits
	.align	2
	.type	PingPongListArra, @object
	.size	PingPongListArra, 128
PingPongListArra:
	.zero	128
	.section	.text.DMA_Enable,"ax",@progbits
	.align	1
	.globl	DMA_Enable
	.type	DMA_Enable, @function
DMA_Enable:
.LFB8:
	.file 1 "/home/chandu/sdk/bl602_iot_sdk/components/bl602/bl602_std/bl602_std/StdDriver/Src/bl602_dma.c"
	.loc 1 160 1
	.cfi_startproc
	addi	sp,sp,-32
	.cfi_def_cfa_offset 32
	sw	ra,28(sp)
	sw	s0,24(sp)
	.cfi_offset 1, -4
	.cfi_offset 8, -8
	addi	s0,sp,32
	.cfi_def_cfa 8, 0
	.loc 1 163 14
	li	a5,1073790976
	sw	a5,-20(s0)
	.loc 1 165 44
	lw	a5,-20(s0)
	addi	a5,a5,48
	.loc 1 165 12
	lw	a5,0(a5)
	sw	a5,-24(s0)
	.loc 1 166 12
	lw	a5,-24(s0)
	ori	a5,a5,1
	sw	a5,-24(s0)
	.loc 1 167 35
	lw	a5,-20(s0)
	addi	a5,a5,48
	.loc 1 167 8
	mv	a4,a5
	.loc 1 167 44
	lw	a5,-24(s0)
	sw	a5,0(a4)
	.loc 1 168 1
	nop
	lw	ra,28(sp)
	.cfi_restore 1
	lw	s0,24(sp)
	.cfi_restore 8
	.cfi_def_cfa 2, 32
	addi	sp,sp,32
	.cfi_def_cfa_offset 0
	jr	ra
	.cfi_endproc
.LFE8:
	.size	DMA_Enable, .-DMA_Enable
	.section	.text.DMA_Disable,"ax",@progbits
	.align	1
	.globl	DMA_Disable
	.type	DMA_Disable, @function
DMA_Disable:
.LFB9:
	.loc 1 179 1
	.cfi_startproc
	addi	sp,sp,-32
	.cfi_def_cfa_offset 32
	sw	ra,28(sp)
	sw	s0,24(sp)
	.cfi_offset 1, -4
	.cfi_offset 8, -8
	addi	s0,sp,32
	.cfi_def_cfa 8, 0
	.loc 1 182 14
	li	a5,1073790976
	sw	a5,-20(s0)
	.loc 1 184 44
	lw	a5,-20(s0)
	addi	a5,a5,48
	.loc 1 184 12
	lw	a5,0(a5)
	sw	a5,-24(s0)
	.loc 1 185 12
	lw	a5,-24(s0)
	andi	a5,a5,-2
	sw	a5,-24(s0)
	.loc 1 186 35
	lw	a5,-20(s0)
	addi	a5,a5,48
	.loc 1 186 8
	mv	a4,a5
	.loc 1 186 44
	lw	a5,-24(s0)
	sw	a5,0(a4)
	.loc 1 187 1
	nop
	lw	ra,28(sp)
	.cfi_restore 1
	lw	s0,24(sp)
	.cfi_restore 8
	.cfi_def_cfa 2, 32
	addi	sp,sp,32
	.cfi_def_cfa_offset 0
	jr	ra
	.cfi_endproc
.LFE9:
	.size	DMA_Disable, .-DMA_Disable
	.section	.text.DMA_Channel_Init,"ax",@progbits
	.align	1
	.globl	DMA_Channel_Init
	.type	DMA_Channel_Init, @function
DMA_Channel_Init:
.LFB10:
	.loc 1 198 1
	.cfi_startproc
	addi	sp,sp,-48
	.cfi_def_cfa_offset 48
	sw	ra,44(sp)
	sw	s0,40(sp)
	.cfi_offset 1, -4
	.cfi_offset 8, -8
	addi	s0,sp,48
	.cfi_def_cfa 8, 0
	sw	a0,-36(s0)
	.loc 1 201 60
	lw	a5,-36(s0)
	lbu	a5,13(a5)
	.loc 1 201 65
	slli	a5,a5,8
	mv	a4,a5
	.loc 1 201 14
	li	a5,1073790976
	addi	a5,a5,256
	add	a5,a4,a5
	sw	a5,-20(s0)
	.loc 1 214 8
	lw	a5,-20(s0)
	.loc 1 214 50
	lw	a4,-36(s0)
	lw	a4,0(a4)
	.loc 1 214 43
	sw	a4,0(a5)
	.loc 1 215 35
	lw	a5,-20(s0)
	addi	a5,a5,4
	.loc 1 215 8
	mv	a4,a5
	.loc 1 215 50
	lw	a5,-36(s0)
	lw	a5,4(a5)
	.loc 1 215 43
	sw	a5,0(a4)
	.loc 1 217 44
	lw	a5,-20(s0)
	addi	a5,a5,12
	.loc 1 217 12
	lw	a5,0(a5)
	sw	a5,-24(s0)
	.loc 1 218 25
	lw	a4,-24(s0)
	li	a5,-4096
	and	a4,a4,a5
	.loc 1 218 73
	lw	a5,-36(s0)
	lw	a5,8(a5)
	.loc 1 218 12
	or	a5,a4,a5
	sw	a5,-24(s0)
	.loc 1 219 25
	lw	a4,-24(s0)
	li	a5,-1835008
	addi	a5,a5,-1
	and	a4,a4,a5
	.loc 1 219 73
	lw	a5,-36(s0)
	lbu	a5,14(a5)
	.loc 1 219 90
	slli	a5,a5,18
	.loc 1 219 12
	or	a5,a4,a5
	sw	a5,-24(s0)
	.loc 1 220 25
	lw	a4,-24(s0)
	li	a5,-14680064
	addi	a5,a5,-1
	and	a4,a4,a5
	.loc 1 220 73
	lw	a5,-36(s0)
	lbu	a5,15(a5)
	.loc 1 220 90
	slli	a5,a5,21
	.loc 1 220 12
	or	a5,a4,a5
	sw	a5,-24(s0)
	.loc 1 221 25
	lw	a4,-24(s0)
	li	a5,-28672
	addi	a5,a5,-1
	and	a4,a4,a5
	.loc 1 221 73
	lw	a5,-36(s0)
	lbu	a5,16(a5)
	.loc 1 221 88
	slli	a5,a5,12
	.loc 1 221 12
	or	a5,a4,a5
	sw	a5,-24(s0)
	.loc 1 222 25
	lw	a4,-24(s0)
	li	a5,-229376
	addi	a5,a5,-1
	and	a4,a4,a5
	.loc 1 222 73
	lw	a5,-36(s0)
	lbu	a5,17(a5)
	.loc 1 222 88
	slli	a5,a5,15
	.loc 1 222 12
	or	a5,a4,a5
	sw	a5,-24(s0)
	.loc 1 224 12
	lw	a4,-24(s0)
	li	a5,-16777216
	addi	a5,a5,-1
	and	a5,a4,a5
	sw	a5,-24(s0)
	.loc 1 225 25
	lw	a4,-24(s0)
	li	a5,-67108864
	addi	a5,a5,-1
	and	a4,a4,a5
	.loc 1 225 73
	lw	a5,-36(s0)
	lbu	a5,18(a5)
	.loc 1 225 86
	slli	a5,a5,26
	.loc 1 225 12
	or	a5,a4,a5
	sw	a5,-24(s0)
	.loc 1 226 25
	lw	a4,-24(s0)
	li	a5,-134217728
	addi	a5,a5,-1
	and	a4,a4,a5
	.loc 1 226 73
	lw	a5,-36(s0)
	lbu	a5,19(a5)
	.loc 1 226 87
	slli	a5,a5,27
	.loc 1 226 12
	or	a5,a4,a5
	sw	a5,-24(s0)
	.loc 1 227 35
	lw	a5,-20(s0)
	addi	a5,a5,12
	.loc 1 227 8
	mv	a4,a5
	.loc 1 227 43
	lw	a5,-24(s0)
	sw	a5,0(a4)
	.loc 1 229 44
	lw	a5,-20(s0)
	addi	a5,a5,16
	.loc 1 229 12
	lw	a5,0(a5)
	sw	a5,-24(s0)
	.loc 1 230 25
	lw	a4,-24(s0)
	li	a5,-16384
	addi	a5,a5,2047
	and	a4,a4,a5
	.loc 1 230 73
	lw	a5,-36(s0)
	lbu	a5,12(a5)
	.loc 1 230 79
	slli	a5,a5,11
	.loc 1 230 12
	or	a5,a4,a5
	sw	a5,-24(s0)
	.loc 1 231 25
	lw	a5,-24(s0)
	andi	a4,a5,-1985
	.loc 1 231 72
	lw	a5,-36(s0)
	lbu	a5,21(a5)
	.loc 1 231 84
	slli	a5,a5,6
	.loc 1 231 12
	or	a5,a4,a5
	sw	a5,-24(s0)
	.loc 1 232 25
	lw	a5,-24(s0)
	andi	a4,a5,-63
	.loc 1 232 72
	lw	a5,-36(s0)
	lbu	a5,20(a5)
	.loc 1 232 84
	slli	a5,a5,1
	.loc 1 232 12
	or	a5,a4,a5
	sw	a5,-24(s0)
	.loc 1 233 35
	lw	a5,-20(s0)
	addi	a5,a5,16
	.loc 1 233 8
	mv	a4,a5
	.loc 1 233 44
	lw	a5,-24(s0)
	sw	a5,0(a4)
	.loc 1 234 1
	nop
	lw	ra,44(sp)
	.cfi_restore 1
	lw	s0,40(sp)
	.cfi_restore 8
	.cfi_def_cfa 2, 48
	addi	sp,sp,48
	.cfi_def_cfa_offset 0
	jr	ra
	.cfi_endproc
.LFE10:
	.size	DMA_Channel_Init, .-DMA_Channel_Init
	.section	.text.DMA_Channel_Update_SrcMemcfg,"ax",@progbits
	.align	1
	.globl	DMA_Channel_Update_SrcMemcfg
	.type	DMA_Channel_Update_SrcMemcfg, @function
DMA_Channel_Update_SrcMemcfg:
.LFB11:
	.loc 1 247 1
	.cfi_startproc
	addi	sp,sp,-48
	.cfi_def_cfa_offset 48
	sw	ra,44(sp)
	sw	s0,40(sp)
	.cfi_offset 1, -4
	.cfi_offset 8, -8
	addi	s0,sp,48
	.cfi_def_cfa 8, 0
	mv	a5,a0
	sw	a1,-40(s0)
	sw	a2,-44(s0)
	sb	a5,-33(s0)
	.loc 1 250 58
	lbu	a5,-33(s0)
	slli	a5,a5,8
	mv	a4,a5
	.loc 1 250 14
	li	a5,1073790976
	addi	a5,a5,256
	add	a5,a4,a5
	sw	a5,-20(s0)
	.loc 1 256 8
	lw	a5,-20(s0)
	.loc 1 256 43
	lw	a4,-40(s0)
	sw	a4,0(a5)
	.loc 1 257 44
	lw	a5,-20(s0)
	addi	a5,a5,12
	.loc 1 257 12
	lw	a5,0(a5)
	sw	a5,-24(s0)
	.loc 1 258 25
	lw	a4,-24(s0)
	li	a5,-4096
	and	a5,a4,a5
	.loc 1 258 12
	lw	a4,-44(s0)
	or	a5,a4,a5
	sw	a5,-24(s0)
	.loc 1 259 35
	lw	a5,-20(s0)
	addi	a5,a5,12
	.loc 1 259 8
	mv	a4,a5
	.loc 1 259 43
	lw	a5,-24(s0)
	sw	a5,0(a4)
	.loc 1 260 1
	nop
	lw	ra,44(sp)
	.cfi_restore 1
	lw	s0,40(sp)
	.cfi_restore 8
	.cfi_def_cfa 2, 48
	addi	sp,sp,48
	.cfi_def_cfa_offset 0
	jr	ra
	.cfi_endproc
.LFE11:
	.size	DMA_Channel_Update_SrcMemcfg, .-DMA_Channel_Update_SrcMemcfg
	.section	.text.DMA_Channel_Update_DstMemcfg,"ax",@progbits
	.align	1
	.globl	DMA_Channel_Update_DstMemcfg
	.type	DMA_Channel_Update_DstMemcfg, @function
DMA_Channel_Update_DstMemcfg:
.LFB12:
	.loc 1 273 1
	.cfi_startproc
	addi	sp,sp,-48
	.cfi_def_cfa_offset 48
	sw	ra,44(sp)
	sw	s0,40(sp)
	.cfi_offset 1, -4
	.cfi_offset 8, -8
	addi	s0,sp,48
	.cfi_def_cfa 8, 0
	mv	a5,a0
	sw	a1,-40(s0)
	sw	a2,-44(s0)
	sb	a5,-33(s0)
	.loc 1 276 58
	lbu	a5,-33(s0)
	slli	a5,a5,8
	mv	a4,a5
	.loc 1 276 14
	li	a5,1073790976
	addi	a5,a5,256
	add	a5,a4,a5
	sw	a5,-20(s0)
	.loc 1 282 35
	lw	a5,-20(s0)
	addi	a5,a5,4
	.loc 1 282 8
	mv	a4,a5
	.loc 1 282 43
	lw	a5,-40(s0)
	sw	a5,0(a4)
	.loc 1 283 44
	lw	a5,-20(s0)
	addi	a5,a5,12
	.loc 1 283 12
	lw	a5,0(a5)
	sw	a5,-24(s0)
	.loc 1 284 25
	lw	a4,-24(s0)
	li	a5,-4096
	and	a5,a4,a5
	.loc 1 284 12
	lw	a4,-44(s0)
	or	a5,a4,a5
	sw	a5,-24(s0)
	.loc 1 285 35
	lw	a5,-20(s0)
	addi	a5,a5,12
	.loc 1 285 8
	mv	a4,a5
	.loc 1 285 43
	lw	a5,-24(s0)
	sw	a5,0(a4)
	.loc 1 286 1
	nop
	lw	ra,44(sp)
	.cfi_restore 1
	lw	s0,40(sp)
	.cfi_restore 8
	.cfi_def_cfa 2, 48
	addi	sp,sp,48
	.cfi_def_cfa_offset 0
	jr	ra
	.cfi_endproc
.LFE12:
	.size	DMA_Channel_Update_DstMemcfg, .-DMA_Channel_Update_DstMemcfg
	.section	.text.DMA_Channel_TranferSize,"ax",@progbits
	.align	1
	.globl	DMA_Channel_TranferSize
	.type	DMA_Channel_TranferSize, @function
DMA_Channel_TranferSize:
.LFB13:
	.loc 1 297 1
	.cfi_startproc
	addi	sp,sp,-48
	.cfi_def_cfa_offset 48
	sw	ra,44(sp)
	sw	s0,40(sp)
	.cfi_offset 1, -4
	.cfi_offset 8, -8
	addi	s0,sp,48
	.cfi_def_cfa 8, 0
	mv	a5,a0
	sb	a5,-33(s0)
	.loc 1 299 58
	lbu	a5,-33(s0)
	slli	a5,a5,8
	mv	a4,a5
	.loc 1 299 14
	li	a5,1073790976
	addi	a5,a5,256
	add	a5,a4,a5
	sw	a5,-20(s0)
	.loc 1 304 46
	lw	a5,-20(s0)
	addi	a5,a5,12
	.loc 1 304 84
	lw	a4,0(a5)
	li	a5,4096
	addi	a5,a5,-1
	and	a5,a4,a5
	.loc 1 305 1
	mv	a0,a5
	lw	ra,44(sp)
	.cfi_restore 1
	lw	s0,40(sp)
	.cfi_restore 8
	.cfi_def_cfa 2, 48
	addi	sp,sp,48
	.cfi_def_cfa_offset 0
	jr	ra
	.cfi_endproc
.LFE13:
	.size	DMA_Channel_TranferSize, .-DMA_Channel_TranferSize
	.section	.text.DMA_Channel_Is_Busy,"ax",@progbits
	.align	1
	.globl	DMA_Channel_Is_Busy
	.type	DMA_Channel_Is_Busy, @function
DMA_Channel_Is_Busy:
.LFB14:
	.loc 1 316 1
	.cfi_startproc
	addi	sp,sp,-48
	.cfi_def_cfa_offset 48
	sw	ra,44(sp)
	sw	s0,40(sp)
	.cfi_offset 1, -4
	.cfi_offset 8, -8
	addi	s0,sp,48
	.cfi_def_cfa 8, 0
	mv	a5,a0
	sb	a5,-33(s0)
	.loc 1 318 58
	lbu	a5,-33(s0)
	slli	a5,a5,8
	mv	a4,a5
	.loc 1 318 14
	li	a5,1073790976
	addi	a5,a5,256
	add	a5,a4,a5
	sw	a5,-20(s0)
	.loc 1 323 46
	lw	a5,-20(s0)
	addi	a5,a5,16
	.loc 1 323 17
	lw	a5,0(a5)
	.loc 1 323 57
	andi	a5,a5,1
	.loc 1 323 88
	andi	a5,a5,1
	andi	a5,a5,0xff
	.loc 1 324 1
	mv	a0,a5
	lw	ra,44(sp)
	.cfi_restore 1
	lw	s0,40(sp)
	.cfi_restore 8
	.cfi_def_cfa 2, 48
	addi	sp,sp,48
	.cfi_def_cfa_offset 0
	jr	ra
	.cfi_endproc
.LFE14:
	.size	DMA_Channel_Is_Busy, .-DMA_Channel_Is_Busy
	.section	.text.DMA_Channel_Enable,"ax",@progbits
	.align	1
	.globl	DMA_Channel_Enable
	.type	DMA_Channel_Enable, @function
DMA_Channel_Enable:
.LFB15:
	.loc 1 336 1
	.cfi_startproc
	addi	sp,sp,-48
	.cfi_def_cfa_offset 48
	sw	ra,44(sp)
	sw	s0,40(sp)
	.cfi_offset 1, -4
	.cfi_offset 8, -8
	addi	s0,sp,48
	.cfi_def_cfa 8, 0
	mv	a5,a0
	sb	a5,-33(s0)
	.loc 1 339 58
	lbu	a5,-33(s0)
	slli	a5,a5,8
	mv	a4,a5
	.loc 1 339 14
	li	a5,1073790976
	addi	a5,a5,256
	add	a5,a4,a5
	sw	a5,-20(s0)
	.loc 1 344 44
	lw	a5,-20(s0)
	addi	a5,a5,16
	.loc 1 344 12
	lw	a5,0(a5)
	sw	a5,-24(s0)
	.loc 1 345 12
	lw	a5,-24(s0)
	ori	a5,a5,1
	sw	a5,-24(s0)
	.loc 1 346 35
	lw	a5,-20(s0)
	addi	a5,a5,16
	.loc 1 346 8
	mv	a4,a5
	.loc 1 346 44
	lw	a5,-24(s0)
	sw	a5,0(a4)
	.loc 1 347 1
	nop
	lw	ra,44(sp)
	.cfi_restore 1
	lw	s0,40(sp)
	.cfi_restore 8
	.cfi_def_cfa 2, 48
	addi	sp,sp,48
	.cfi_def_cfa_offset 0
	jr	ra
	.cfi_endproc
.LFE15:
	.size	DMA_Channel_Enable, .-DMA_Channel_Enable
	.section	.text.DMA_Channel_Disable,"ax",@progbits
	.align	1
	.globl	DMA_Channel_Disable
	.type	DMA_Channel_Disable, @function
DMA_Channel_Disable:
.LFB16:
	.loc 1 358 1
	.cfi_startproc
	addi	sp,sp,-48
	.cfi_def_cfa_offset 48
	sw	ra,44(sp)
	sw	s0,40(sp)
	.cfi_offset 1, -4
	.cfi_offset 8, -8
	addi	s0,sp,48
	.cfi_def_cfa 8, 0
	mv	a5,a0
	sb	a5,-33(s0)
	.loc 1 361 58
	lbu	a5,-33(s0)
	slli	a5,a5,8
	mv	a4,a5
	.loc 1 361 14
	li	a5,1073790976
	addi	a5,a5,256
	add	a5,a4,a5
	sw	a5,-20(s0)
	.loc 1 366 44
	lw	a5,-20(s0)
	addi	a5,a5,16
	.loc 1 366 12
	lw	a5,0(a5)
	sw	a5,-24(s0)
	.loc 1 367 12
	lw	a5,-24(s0)
	andi	a5,a5,-2
	sw	a5,-24(s0)
	.loc 1 368 35
	lw	a5,-20(s0)
	addi	a5,a5,16
	.loc 1 368 8
	mv	a4,a5
	.loc 1 368 44
	lw	a5,-24(s0)
	sw	a5,0(a4)
	.loc 1 369 1
	nop
	lw	ra,44(sp)
	.cfi_restore 1
	lw	s0,40(sp)
	.cfi_restore 8
	.cfi_def_cfa 2, 48
	addi	sp,sp,48
	.cfi_def_cfa_offset 0
	jr	ra
	.cfi_endproc
.LFE16:
	.size	DMA_Channel_Disable, .-DMA_Channel_Disable
	.section	.text.DMA_LLI_Init,"ax",@progbits
	.align	1
	.globl	DMA_LLI_Init
	.type	DMA_LLI_Init, @function
DMA_LLI_Init:
.LFB17:
	.loc 1 381 1
	.cfi_startproc
	addi	sp,sp,-48
	.cfi_def_cfa_offset 48
	sw	ra,44(sp)
	sw	s0,40(sp)
	.cfi_offset 1, -4
	.cfi_offset 8, -8
	addi	s0,sp,48
	.cfi_def_cfa 8, 0
	mv	a5,a0
	sw	a1,-40(s0)
	sb	a5,-33(s0)
	.loc 1 384 58
	lbu	a5,-33(s0)
	slli	a5,a5,8
	mv	a4,a5
	.loc 1 384 14
	li	a5,1073790976
	addi	a5,a5,256
	add	a5,a4,a5
	sw	a5,-20(s0)
	.loc 1 392 44
	lw	a5,-20(s0)
	addi	a5,a5,16
	.loc 1 392 12
	lw	a5,0(a5)
	sw	a5,-24(s0)
	.loc 1 393 25
	lw	a4,-24(s0)
	li	a5,-16384
	addi	a5,a5,2047
	and	a4,a4,a5
	.loc 1 393 74
	lw	a5,-40(s0)
	lbu	a5,0(a5)
	.loc 1 393 80
	slli	a5,a5,11
	.loc 1 393 12
	or	a5,a4,a5
	sw	a5,-24(s0)
	.loc 1 394 25
	lw	a5,-24(s0)
	andi	a4,a5,-1985
	.loc 1 394 73
	lw	a5,-40(s0)
	lbu	a5,2(a5)
	.loc 1 394 85
	slli	a5,a5,6
	.loc 1 394 12
	or	a5,a4,a5
	sw	a5,-24(s0)
	.loc 1 395 25
	lw	a5,-24(s0)
	andi	a4,a5,-63
	.loc 1 395 73
	lw	a5,-40(s0)
	lbu	a5,1(a5)
	.loc 1 395 85
	slli	a5,a5,1
	.loc 1 395 12
	or	a5,a4,a5
	sw	a5,-24(s0)
	.loc 1 396 35
	lw	a5,-20(s0)
	addi	a5,a5,16
	.loc 1 396 8
	mv	a4,a5
	.loc 1 396 44
	lw	a5,-24(s0)
	sw	a5,0(a4)
	.loc 1 397 1
	nop
	lw	ra,44(sp)
	.cfi_restore 1
	lw	s0,40(sp)
	.cfi_restore 8
	.cfi_def_cfa 2, 48
	addi	sp,sp,48
	.cfi_def_cfa_offset 0
	jr	ra
	.cfi_endproc
.LFE17:
	.size	DMA_LLI_Init, .-DMA_LLI_Init
	.section	.text.DMA_LLI_Update,"ax",@progbits
	.align	1
	.globl	DMA_LLI_Update
	.type	DMA_LLI_Update, @function
DMA_LLI_Update:
.LFB18:
	.loc 1 409 1
	.cfi_startproc
	addi	sp,sp,-48
	.cfi_def_cfa_offset 48
	sw	ra,44(sp)
	sw	s0,40(sp)
	.cfi_offset 1, -4
	.cfi_offset 8, -8
	addi	s0,sp,48
	.cfi_def_cfa 8, 0
	mv	a5,a0
	sw	a1,-40(s0)
	sb	a5,-33(s0)
	.loc 1 411 58
	lbu	a5,-33(s0)
	slli	a5,a5,8
	mv	a4,a5
	.loc 1 411 14
	li	a5,1073790976
	addi	a5,a5,256
	add	a5,a4,a5
	sw	a5,-20(s0)
	.loc 1 418 5
	lw	a5,-20(s0)
	lw	a4,-40(s0)
	li	a2,4
	mv	a1,a4
	mv	a0,a5
	call	BL602_MemCpy4
	.loc 1 419 1
	nop
	lw	ra,44(sp)
	.cfi_restore 1
	lw	s0,40(sp)
	.cfi_restore 8
	.cfi_def_cfa 2, 48
	addi	sp,sp,48
	.cfi_def_cfa_offset 0
	jr	ra
	.cfi_endproc
.LFE18:
	.size	DMA_LLI_Update, .-DMA_LLI_Update
	.section	.text.DMA_LLI_PpStruct_Init,"ax",@progbits
	.align	1
	.globl	DMA_LLI_PpStruct_Init
	.type	DMA_LLI_PpStruct_Init, @function
DMA_LLI_PpStruct_Init:
.LFB19:
	.loc 1 430 1
	.cfi_startproc
	addi	sp,sp,-32
	.cfi_def_cfa_offset 32
	sw	ra,28(sp)
	sw	s0,24(sp)
	.cfi_offset 1, -4
	.cfi_offset 8, -8
	addi	s0,sp,32
	.cfi_def_cfa 8, 0
	sw	a0,-20(s0)
	.loc 1 432 33
	lw	a5,-20(s0)
	lw	a3,4(a5)
	li	a4,-2147483648
	or	a4,a3,a4
	sw	a4,4(a5)
	.loc 1 433 30
	lw	a5,-20(s0)
	sb	zero,0(a5)
	.loc 1 435 19
	lw	a5,-20(s0)
	lw	a5,8(a5)
	.loc 1 435 32
	lbu	a4,0(a5)
	.loc 1 435 7
	li	a5,1
	bne	a4,a5,.L15
	.loc 1 436 37
	lw	a5,-20(s0)
	lbu	a5,1(a5)
	mv	a2,a5
	.loc 1 436 101
	lw	a5,-20(s0)
	lw	a4,16(a5)
	.loc 1 436 71
	lui	a5,%hi(PingPongListArra)
	addi	a3,a5,%lo(PingPongListArra)
	slli	a5,a2,5
	add	a5,a3,a5
	sw	a4,0(a5)
	.loc 1 437 37
	lw	a5,-20(s0)
	lbu	a5,1(a5)
	mv	a2,a5
	.loc 1 437 84
	lw	a5,-20(s0)
	lw	a4,12(a5)
	.loc 1 437 71
	lui	a5,%hi(PingPongListArra)
	addi	a3,a5,%lo(PingPongListArra)
	slli	a5,a2,5
	add	a5,a3,a5
	sw	a4,4(a5)
	.loc 1 439 37
	lw	a5,-20(s0)
	lbu	a5,1(a5)
	mv	a2,a5
	.loc 1 439 101
	lw	a5,-20(s0)
	lw	a4,20(a5)
	.loc 1 439 71
	lui	a5,%hi(PingPongListArra)
	addi	a3,a5,%lo(PingPongListArra)
	slli	a5,a2,5
	add	a5,a3,a5
	sw	a4,16(a5)
	.loc 1 440 37
	lw	a5,-20(s0)
	lbu	a5,1(a5)
	mv	a2,a5
	.loc 1 440 84
	lw	a5,-20(s0)
	lw	a4,12(a5)
	.loc 1 440 71
	lui	a5,%hi(PingPongListArra)
	addi	a3,a5,%lo(PingPongListArra)
	slli	a5,a2,5
	add	a5,a3,a5
	sw	a4,20(a5)
	j	.L16
.L15:
	.loc 1 442 24
	lw	a5,-20(s0)
	lw	a5,8(a5)
	.loc 1 442 37
	lbu	a4,0(a5)
	.loc 1 442 12
	li	a5,2
	bne	a4,a5,.L17
	.loc 1 443 37
	lw	a5,-20(s0)
	lbu	a5,1(a5)
	mv	a2,a5
	.loc 1 443 84
	lw	a5,-20(s0)
	lw	a4,12(a5)
	.loc 1 443 71
	lui	a5,%hi(PingPongListArra)
	addi	a3,a5,%lo(PingPongListArra)
	slli	a5,a2,5
	add	a5,a3,a5
	sw	a4,0(a5)
	.loc 1 444 37
	lw	a5,-20(s0)
	lbu	a5,1(a5)
	mv	a2,a5
	.loc 1 444 101
	lw	a5,-20(s0)
	lw	a4,16(a5)
	.loc 1 444 71
	lui	a5,%hi(PingPongListArra)
	addi	a3,a5,%lo(PingPongListArra)
	slli	a5,a2,5
	add	a5,a3,a5
	sw	a4,4(a5)
	.loc 1 446 37
	lw	a5,-20(s0)
	lbu	a5,1(a5)
	mv	a2,a5
	.loc 1 446 84
	lw	a5,-20(s0)
	lw	a4,12(a5)
	.loc 1 446 71
	lui	a5,%hi(PingPongListArra)
	addi	a3,a5,%lo(PingPongListArra)
	slli	a5,a2,5
	add	a5,a3,a5
	sw	a4,16(a5)
	.loc 1 447 37
	lw	a5,-20(s0)
	lbu	a5,1(a5)
	mv	a2,a5
	.loc 1 447 102
	lw	a5,-20(s0)
	lw	a4,20(a5)
	.loc 1 447 72
	lui	a5,%hi(PingPongListArra)
	addi	a3,a5,%lo(PingPongListArra)
	slli	a5,a2,5
	add	a5,a3,a5
	sw	a4,20(a5)
	j	.L16
.L17:
	.loc 1 449 16
	li	a5,1
	j	.L18
.L16:
	.loc 1 453 105
	lw	a5,-20(s0)
	lbu	a5,1(a5)
	.loc 1 453 76
	slli	a5,a5,5
	addi	a4,a5,16
	lui	a5,%hi(PingPongListArra)
	addi	a5,a5,%lo(PingPongListArra)
	add	a4,a4,a5
	.loc 1 453 33
	lw	a5,-20(s0)
	lbu	a5,1(a5)
	mv	a2,a5
	.loc 1 453 66
	mv	a3,a4
	.loc 1 453 64
	lui	a5,%hi(PingPongListArra)
	addi	a4,a5,%lo(PingPongListArra)
	slli	a5,a2,5
	add	a5,a4,a5
	sw	a3,8(a5)
	.loc 1 454 33
	lw	a5,-20(s0)
	lbu	a5,1(a5)
	mv	a3,a5
	.loc 1 454 64
	lui	a5,%hi(PingPongListArra)
	addi	a4,a5,%lo(PingPongListArra)
	slli	a5,a3,5
	add	a5,a4,a5
	lw	a4,-20(s0)
	lw	a4,4(a4)
	sw	a4,12(a5)
	.loc 1 456 19
	lw	a5,-20(s0)
	lbu	a4,24(a5)
	.loc 1 456 7
	li	a5,1
	bne	a4,a5,.L19
	.loc 1 461 37
	lw	a5,-20(s0)
	lbu	a5,1(a5)
	mv	a3,a5
	.loc 1 461 68
	lui	a5,%hi(PingPongListArra)
	addi	a4,a5,%lo(PingPongListArra)
	slli	a5,a3,5
	add	a5,a4,a5
	sw	zero,24(a5)
	j	.L20
.L19:
	.loc 1 463 109
	lw	a5,-20(s0)
	lbu	a5,1(a5)
	.loc 1 463 80
	slli	a4,a5,5
	lui	a5,%hi(PingPongListArra)
	addi	a5,a5,%lo(PingPongListArra)
	add	a4,a4,a5
	.loc 1 463 37
	lw	a5,-20(s0)
	lbu	a5,1(a5)
	mv	a2,a5
	.loc 1 463 70
	mv	a3,a4
	.loc 1 463 68
	lui	a5,%hi(PingPongListArra)
	addi	a4,a5,%lo(PingPongListArra)
	slli	a5,a2,5
	add	a5,a4,a5
	sw	a3,24(a5)
.L20:
	.loc 1 466 33
	lw	a5,-20(s0)
	lbu	a5,1(a5)
	mv	a3,a5
	.loc 1 466 64
	lui	a5,%hi(PingPongListArra)
	addi	a4,a5,%lo(PingPongListArra)
	slli	a5,a3,5
	add	a5,a4,a5
	lw	a4,-20(s0)
	lw	a4,4(a4)
	sw	a4,28(a5)
	.loc 1 468 5
	lw	a5,-20(s0)
	lbu	a4,1(a5)
	lw	a5,-20(s0)
	lw	a5,8(a5)
	mv	a1,a5
	mv	a0,a4
	call	DMA_LLI_Init
	.loc 1 470 5
	lw	a5,-20(s0)
	lbu	a3,1(a5)
	.loc 1 470 81
	lw	a5,-20(s0)
	lbu	a5,1(a5)
	.loc 1 470 52
	slli	a4,a5,5
	lui	a5,%hi(PingPongListArra)
	addi	a5,a5,%lo(PingPongListArra)
	add	a5,a4,a5
	.loc 1 470 5
	mv	a1,a5
	mv	a0,a3
	call	DMA_LLI_Update
	.loc 1 472 12
	li	a5,0
.L18:
	.loc 1 473 1
	mv	a0,a5
	lw	ra,28(sp)
	.cfi_restore 1
	lw	s0,24(sp)
	.cfi_restore 8
	.cfi_def_cfa 2, 32
	addi	sp,sp,32
	.cfi_def_cfa_offset 0
	jr	ra
	.cfi_endproc
.LFE19:
	.size	DMA_LLI_PpStruct_Init, .-DMA_LLI_PpStruct_Init
	.section	.text.DMA_LLI_PpStruct_Start,"ax",@progbits
	.align	1
	.globl	DMA_LLI_PpStruct_Start
	.type	DMA_LLI_PpStruct_Start, @function
DMA_LLI_PpStruct_Start:
.LFB20:
	.loc 1 484 60
	.cfi_startproc
	addi	sp,sp,-32
	.cfi_def_cfa_offset 32
	sw	ra,28(sp)
	sw	s0,24(sp)
	.cfi_offset 1, -4
	.cfi_offset 8, -8
	addi	s0,sp,32
	.cfi_def_cfa 8, 0
	sw	a0,-20(s0)
	.loc 1 485 19
	lw	a5,-20(s0)
	lbu	a4,24(a5)
	.loc 1 485 7
	li	a5,1
	bne	a4,a5,.L22
	.loc 1 486 9
	lw	a5,-20(s0)
	lbu	a3,1(a5)
	.loc 1 486 85
	lw	a5,-20(s0)
	lbu	a5,1(a5)
	.loc 1 486 56
	slli	a4,a5,5
	lui	a5,%hi(PingPongListArra)
	addi	a5,a5,%lo(PingPongListArra)
	add	a5,a4,a5
	.loc 1 486 9
	mv	a1,a5
	mv	a0,a3
	call	DMA_LLI_Update
.L22:
	.loc 1 489 5
	lw	a5,-20(s0)
	lbu	a5,1(a5)
	mv	a0,a5
	call	DMA_Channel_Enable
	.loc 1 490 1
	nop
	lw	ra,28(sp)
	.cfi_restore 1
	lw	s0,24(sp)
	.cfi_restore 8
	.cfi_def_cfa 2, 32
	addi	sp,sp,32
	.cfi_def_cfa_offset 0
	jr	ra
	.cfi_endproc
.LFE20:
	.size	DMA_LLI_PpStruct_Start, .-DMA_LLI_PpStruct_Start
	.section	.text.DMA_LLI_PpStruct_Stop,"ax",@progbits
	.align	1
	.globl	DMA_LLI_PpStruct_Stop
	.type	DMA_LLI_PpStruct_Stop, @function
DMA_LLI_PpStruct_Stop:
.LFB21:
	.loc 1 502 59
	.cfi_startproc
	addi	sp,sp,-32
	.cfi_def_cfa_offset 32
	sw	ra,28(sp)
	sw	s0,24(sp)
	.cfi_offset 1, -4
	.cfi_offset 8, -8
	addi	s0,sp,32
	.cfi_def_cfa 8, 0
	sw	a0,-20(s0)
	.loc 1 503 5
	lw	a5,-20(s0)
	lbu	a5,1(a5)
	mv	a0,a5
	call	DMA_Channel_Disable
	.loc 1 504 1
	nop
	lw	ra,28(sp)
	.cfi_restore 1
	lw	s0,24(sp)
	.cfi_restore 8
	.cfi_def_cfa 2, 32
	addi	sp,sp,32
	.cfi_def_cfa_offset 0
	jr	ra
	.cfi_endproc
.LFE21:
	.size	DMA_LLI_PpStruct_Stop, .-DMA_LLI_PpStruct_Stop
	.section	.text.DMA_LLI_PpStruct_Set_Transfer_Len,"ax",@progbits
	.align	1
	.globl	DMA_LLI_PpStruct_Set_Transfer_Len
	.type	DMA_LLI_PpStruct_Set_Transfer_Len, @function
DMA_LLI_PpStruct_Set_Transfer_Len:
.LFB22:
	.loc 1 516 132
	.cfi_startproc
	addi	sp,sp,-48
	.cfi_def_cfa_offset 48
	sw	ra,44(sp)
	sw	s0,40(sp)
	.cfi_offset 1, -4
	.cfi_offset 8, -8
	addi	s0,sp,48
	.cfi_def_cfa 8, 0
	sw	a0,-36(s0)
	mv	a5,a1
	mv	a4,a2
	sh	a5,-38(s0)
	mv	a5,a4
	sh	a5,-40(s0)
	.loc 1 519 7
	lhu	a4,-38(s0)
	li	a5,4096
	bgtu	a4,a5,.L25
	.loc 1 519 33 discriminator 1
	lhu	a4,-40(s0)
	li	a5,4096
	bleu	a4,a5,.L26
.L25:
	.loc 1 520 16
	li	a5,1
	j	.L28
.L26:
	.loc 1 523 54
	lw	a5,-36(s0)
	lbu	a5,1(a5)
	mv	a3,a5
	.loc 1 523 24
	lui	a5,%hi(PingPongListArra)
	addi	a4,a5,%lo(PingPongListArra)
	slli	a5,a3,5
	add	a5,a4,a5
	lw	a5,12(a5)
	sw	a5,-20(s0)
	.loc 1 524 37
	lhu	a5,-38(s0)
	mv	a4,a5
	li	a5,4096
	addi	a5,a5,-1
	and	a5,a4,a5
	slli	a4,a5,16
	srli	a4,a4,16
	li	a5,4096
	addi	a5,a5,-1
	and	a5,a4,a5
	lw	a3,-20(s0)
	li	a4,-4096
	and	a4,a3,a4
	or	a5,a4,a5
	sw	a5,-20(s0)
	.loc 1 525 33
	lw	a5,-36(s0)
	lbu	a5,1(a5)
	mv	a3,a5
	.loc 1 525 64
	lui	a5,%hi(PingPongListArra)
	addi	a4,a5,%lo(PingPongListArra)
	slli	a5,a3,5
	add	a5,a4,a5
	lw	a4,-20(s0)
	sw	a4,12(a5)
	.loc 1 527 54
	lw	a5,-36(s0)
	lbu	a5,1(a5)
	mv	a3,a5
	.loc 1 527 24
	lui	a5,%hi(PingPongListArra)
	addi	a4,a5,%lo(PingPongListArra)
	slli	a5,a3,5
	add	a5,a4,a5
	lw	a5,28(a5)
	sw	a5,-20(s0)
	.loc 1 528 37
	lhu	a5,-40(s0)
	mv	a4,a5
	li	a5,4096
	addi	a5,a5,-1
	and	a5,a4,a5
	slli	a4,a5,16
	srli	a4,a4,16
	li	a5,4096
	addi	a5,a5,-1
	and	a5,a4,a5
	lw	a3,-20(s0)
	li	a4,-4096
	and	a4,a3,a4
	or	a5,a4,a5
	sw	a5,-20(s0)
	.loc 1 529 33
	lw	a5,-36(s0)
	lbu	a5,1(a5)
	mv	a3,a5
	.loc 1 529 64
	lui	a5,%hi(PingPongListArra)
	addi	a4,a5,%lo(PingPongListArra)
	slli	a5,a3,5
	add	a5,a4,a5
	lw	a4,-20(s0)
	sw	a4,28(a5)
	.loc 1 531 5
	lw	a5,-36(s0)
	lbu	a4,1(a5)
	lw	a5,-36(s0)
	lw	a5,8(a5)
	mv	a1,a5
	mv	a0,a4
	call	DMA_LLI_Init
	.loc 1 532 5
	lw	a5,-36(s0)
	lbu	a3,1(a5)
	.loc 1 532 81
	lw	a5,-36(s0)
	lbu	a5,1(a5)
	.loc 1 532 52
	slli	a4,a5,5
	lui	a5,%hi(PingPongListArra)
	addi	a5,a5,%lo(PingPongListArra)
	add	a5,a4,a5
	.loc 1 532 5
	mv	a1,a5
	mv	a0,a3
	call	DMA_LLI_Update
	.loc 1 534 12
	li	a5,0
.L28:
	.loc 1 536 1
	mv	a0,a5
	lw	ra,44(sp)
	.cfi_restore 1
	lw	s0,40(sp)
	.cfi_restore 8
	.cfi_def_cfa 2, 48
	addi	sp,sp,48
	.cfi_def_cfa_offset 0
	jr	ra
	.cfi_endproc
.LFE22:
	.size	DMA_LLI_PpStruct_Set_Transfer_Len, .-DMA_LLI_PpStruct_Set_Transfer_Len
	.section	.text.DMA_LLI_PpBuf_Start_New_Transmit,"ax",@progbits
	.align	1
	.globl	DMA_LLI_PpBuf_Start_New_Transmit
	.type	DMA_LLI_PpBuf_Start_New_Transmit, @function
DMA_LLI_PpBuf_Start_New_Transmit:
.LFB23:
	.loc 1 550 1
	.cfi_startproc
	addi	sp,sp,-32
	.cfi_def_cfa_offset 32
	sw	ra,28(sp)
	sw	s0,24(sp)
	.cfi_offset 1, -4
	.cfi_offset 8, -8
	addi	s0,sp,32
	.cfi_def_cfa 8, 0
	sw	a0,-20(s0)
	.loc 1 551 5
	li	a0,31
	call	clic_disable_interrupt
	.loc 1 552 40
	lw	a5,-20(s0)
	lbu	a5,0(a5)
	.loc 1 552 31
	lw	a4,-20(s0)
	slli	a5,a5,2
	add	a5,a4,a5
	lw	a5,4(a5)
	.loc 1 552 7
	beq	a5,zero,.L30
	.loc 1 553 9
	lw	a5,-20(s0)
	lbu	a3,1(a5)
	.loc 1 553 85
	lw	a5,-20(s0)
	lbu	a5,0(a5)
	.loc 1 553 76
	lw	a4,-20(s0)
	slli	a5,a5,2
	add	a5,a4,a5
	lw	a5,4(a5)
	.loc 1 553 9
	mv	a1,a5
	mv	a0,a3
	call	DMA_LLI_Update
	.loc 1 554 9
	lw	a5,-20(s0)
	lbu	a5,1(a5)
	mv	a0,a5
	call	DMA_Channel_Enable
	.loc 1 555 40
	lw	a5,-20(s0)
	lbu	a5,0(a5)
	.loc 1 555 57
	seqz	a5,a5
	andi	a5,a5,0xff
	mv	a4,a5
	.loc 1 555 29
	lw	a5,-20(s0)
	sb	a4,0(a5)
.L30:
	.loc 1 557 5
	li	a0,31
	call	clic_enable_interrupt
	.loc 1 558 1
	nop
	lw	ra,28(sp)
	.cfi_restore 1
	lw	s0,24(sp)
	.cfi_restore 8
	.cfi_def_cfa 2, 32
	addi	sp,sp,32
	.cfi_def_cfa_offset 0
	jr	ra
	.cfi_endproc
.LFE23:
	.size	DMA_LLI_PpBuf_Start_New_Transmit, .-DMA_LLI_PpBuf_Start_New_Transmit
	.section	.text.DMA_LLI_PpBuf_Remove_Completed_List,"ax",@progbits
	.align	1
	.globl	DMA_LLI_PpBuf_Remove_Completed_List
	.type	DMA_LLI_PpBuf_Remove_Completed_List, @function
DMA_LLI_PpBuf_Remove_Completed_List:
.LFB24:
	.loc 1 569 1
	.cfi_startproc
	addi	sp,sp,-32
	.cfi_def_cfa_offset 32
	sw	ra,28(sp)
	sw	s0,24(sp)
	.cfi_offset 1, -4
	.cfi_offset 8, -8
	addi	s0,sp,32
	.cfi_def_cfa 8, 0
	sw	a0,-20(s0)
	.loc 1 570 5
	li	a0,31
	call	clic_disable_interrupt
	.loc 1 572 38
	lw	a5,-20(s0)
	lbu	a5,0(a5)
	.loc 1 572 29
	seqz	a5,a5
	andi	a5,a5,0xff
	.loc 1 572 51
	lw	a4,-20(s0)
	slli	a5,a5,2
	add	a5,a4,a5
	sw	zero,4(a5)
	.loc 1 573 5
	li	a0,31
	call	clic_enable_interrupt
	.loc 1 574 45
	lw	a5,-20(s0)
	lbu	a5,0(a5)
	.loc 1 574 36
	seqz	a5,a5
	andi	a5,a5,0xff
	.loc 1 574 35
	lw	a4,-20(s0)
	slli	a5,a5,2
	add	a5,a4,a5
	lw	a5,4(a5)
	.loc 1 575 1
	mv	a0,a5
	lw	ra,28(sp)
	.cfi_restore 1
	lw	s0,24(sp)
	.cfi_restore 8
	.cfi_def_cfa 2, 32
	addi	sp,sp,32
	.cfi_def_cfa_offset 0
	jr	ra
	.cfi_endproc
.LFE24:
	.size	DMA_LLI_PpBuf_Remove_Completed_List, .-DMA_LLI_PpBuf_Remove_Completed_List
	.section	.text.DMA_LLI_PpBuf_Append,"ax",@progbits
	.align	1
	.globl	DMA_LLI_PpBuf_Append
	.type	DMA_LLI_PpBuf_Append, @function
DMA_LLI_PpBuf_Append:
.LFB25:
	.loc 1 587 1
	.cfi_startproc
	addi	sp,sp,-48
	.cfi_def_cfa_offset 48
	sw	ra,44(sp)
	sw	s0,40(sp)
	.cfi_offset 1, -4
	.cfi_offset 8, -8
	addi	s0,sp,48
	.cfi_def_cfa 8, 0
	sw	a0,-36(s0)
	sw	a1,-40(s0)
	.loc 1 588 24
	sw	zero,-20(s0)
	.loc 1 589 5
	li	a0,31
	call	clic_disable_interrupt
	.loc 1 591 48
	lw	a5,-36(s0)
	lbu	a5,0(a5)
	.loc 1 591 14
	lw	a4,-36(s0)
	slli	a5,a5,2
	add	a5,a4,a5
	lw	a5,4(a5)
	sw	a5,-20(s0)
	.loc 1 592 7
	lw	a5,-20(s0)
	bne	a5,zero,.L36
	.loc 1 593 29
	lw	a5,-40(s0)
	sw	zero,8(a5)
	.loc 1 594 31
	lw	a5,-40(s0)
	lw	a3,12(a5)
	li	a4,-2147483648
	or	a4,a3,a4
	sw	a4,12(a5)
	.loc 1 595 41
	lw	a5,-36(s0)
	lbu	a5,0(a5)
	.loc 1 595 54
	lw	a4,-36(s0)
	slli	a5,a5,2
	add	a5,a4,a5
	lw	a4,-40(s0)
	sw	a4,4(a5)
	j	.L35
.L37:
	.loc 1 599 52
	lw	a5,-20(s0)
	lw	a5,8(a5)
	.loc 1 599 22
	sw	a5,-20(s0)
.L36:
	.loc 1 598 23
	lw	a5,-20(s0)
	lw	a5,8(a5)
	.loc 1 598 33
	bne	a5,zero,.L37
	.loc 1 601 29
	lw	a4,-40(s0)
	.loc 1 601 27
	lw	a5,-20(s0)
	sw	a4,8(a5)
	.loc 1 602 29
	lw	a5,-20(s0)
	lw	a3,12(a5)
	li	a4,-2147483648
	addi	a4,a4,-1
	and	a4,a3,a4
	sw	a4,12(a5)
	.loc 1 603 29
	lw	a5,-40(s0)
	sw	zero,8(a5)
	.loc 1 604 31
	lw	a5,-40(s0)
	lw	a3,12(a5)
	li	a4,-2147483648
	or	a4,a3,a4
	sw	a4,12(a5)
.L35:
	.loc 1 607 8
	lw	a5,-36(s0)
	lbu	a5,1(a5)
	mv	a0,a5
	call	DMA_Channel_Is_Busy
	mv	a5,a0
	.loc 1 607 7 discriminator 1
	bne	a5,zero,.L38
	.loc 1 610 45
	lw	a5,-36(s0)
	lbu	a5,0(a5)
	.loc 1 610 36
	seqz	a5,a5
	andi	a5,a5,0xff
	.loc 1 610 35
	lw	a4,-36(s0)
	slli	a5,a5,2
	add	a5,a4,a5
	lw	a5,4(a5)
	.loc 1 610 11
	bne	a5,zero,.L38
	.loc 1 612 13
	lw	a0,-36(s0)
	call	DMA_LLI_PpBuf_Start_New_Transmit
.L38:
	.loc 1 615 5
	li	a0,31
	call	clic_enable_interrupt
	.loc 1 616 1
	nop
	lw	ra,44(sp)
	.cfi_restore 1
	lw	s0,40(sp)
	.cfi_restore 8
	.cfi_def_cfa 2, 48
	addi	sp,sp,48
	.cfi_def_cfa_offset 0
	jr	ra
	.cfi_endproc
.LFE25:
	.size	DMA_LLI_PpBuf_Append, .-DMA_LLI_PpBuf_Append
	.section	.text.DMA_LLI_PpBuf_Destroy,"ax",@progbits
	.align	1
	.globl	DMA_LLI_PpBuf_Destroy
	.type	DMA_LLI_PpBuf_Destroy, @function
DMA_LLI_PpBuf_Destroy:
.LFB26:
	.loc 1 627 1
	.cfi_startproc
	addi	sp,sp,-32
	.cfi_def_cfa_offset 32
	sw	ra,28(sp)
	sw	s0,24(sp)
	.cfi_offset 1, -4
	.cfi_offset 8, -8
	addi	s0,sp,32
	.cfi_def_cfa 8, 0
	sw	a0,-20(s0)
	.loc 1 629 5
	lw	a5,-20(s0)
	lbu	a5,1(a5)
	mv	a0,a5
	call	DMA_Channel_Disable
	.loc 1 630 31
	lw	a5,-20(s0)
	lw	a5,4(a5)
	.loc 1 630 7
	beq	a5,zero,.L40
	.loc 1 630 53 discriminator 1
	lw	a5,-20(s0)
	lw	a5,12(a5)
	.loc 1 630 42 discriminator 1
	beq	a5,zero,.L40
	.loc 1 631 17
	lw	a5,-20(s0)
	lw	a5,12(a5)
	.loc 1 631 9
	lw	a4,-20(s0)
	lw	a4,4(a4)
	mv	a0,a4
	jalr	a5
.LVL0:
.L40:
	.loc 1 633 32
	lw	a5,-20(s0)
	sw	zero,4(a5)
	.loc 1 634 31
	lw	a5,-20(s0)
	lw	a5,8(a5)
	.loc 1 634 7
	beq	a5,zero,.L41
	.loc 1 634 53 discriminator 1
	lw	a5,-20(s0)
	lw	a5,12(a5)
	.loc 1 634 42 discriminator 1
	beq	a5,zero,.L41
	.loc 1 635 17
	lw	a5,-20(s0)
	lw	a5,12(a5)
	.loc 1 635 9
	lw	a4,-20(s0)
	lw	a4,8(a4)
	mv	a0,a4
	jalr	a5
.LVL1:
.L41:
	.loc 1 637 32
	lw	a5,-20(s0)
	sw	zero,8(a5)
	.loc 1 638 25
	lw	a5,-20(s0)
	sb	zero,0(a5)
	.loc 1 639 1
	nop
	lw	ra,28(sp)
	.cfi_restore 1
	lw	s0,24(sp)
	.cfi_restore 8
	.cfi_def_cfa 2, 32
	addi	sp,sp,32
	.cfi_def_cfa_offset 0
	jr	ra
	.cfi_endproc
.LFE26:
	.size	DMA_LLI_PpBuf_Destroy, .-DMA_LLI_PpBuf_Destroy
	.section	.text.DMA_IntMask,"ax",@progbits
	.align	1
	.globl	DMA_IntMask
	.type	DMA_IntMask, @function
DMA_IntMask:
.LFB27:
	.loc 1 653 1
	.cfi_startproc
	addi	sp,sp,-48
	.cfi_def_cfa_offset 48
	sw	ra,44(sp)
	sw	s0,40(sp)
	.cfi_offset 1, -4
	.cfi_offset 8, -8
	addi	s0,sp,48
	.cfi_def_cfa 8, 0
	mv	a5,a0
	mv	a3,a1
	mv	a4,a2
	sb	a5,-33(s0)
	mv	a5,a3
	sb	a5,-34(s0)
	mv	a5,a4
	sb	a5,-35(s0)
	.loc 1 656 58
	lbu	a5,-33(s0)
	slli	a5,a5,8
	mv	a4,a5
	.loc 1 656 14
	li	a5,1073790976
	addi	a5,a5,256
	add	a5,a4,a5
	sw	a5,-20(s0)
	.loc 1 662 5
	lbu	a5,-34(s0)
	li	a4,2
	beq	a5,a4,.L43
	li	a4,2
	bgt	a5,a4,.L54
	beq	a5,zero,.L45
	li	a4,1
	beq	a5,a4,.L46
	.loc 1 722 13
	j	.L54
.L45:
	.loc 1 665 15
	lbu	a5,-35(s0)
	bne	a5,zero,.L47
	.loc 1 668 59
	lw	a5,-20(s0)
	addi	a5,a5,16
	.loc 1 668 71
	lw	a4,0(a5)
	.loc 1 668 24
	li	a5,-32768
	addi	a5,a5,-1
	and	a5,a4,a5
	sw	a5,-24(s0)
	.loc 1 669 47
	lw	a5,-20(s0)
	addi	a5,a5,16
	.loc 1 669 20
	mv	a4,a5
	.loc 1 669 56
	lw	a5,-24(s0)
	sw	a5,0(a4)
	.loc 1 670 59
	lw	a5,-20(s0)
	addi	a5,a5,12
	.loc 1 670 30
	lw	a4,0(a5)
	.loc 1 670 24
	li	a5,-2147483648
	or	a5,a4,a5
	sw	a5,-24(s0)
	.loc 1 671 47
	lw	a5,-20(s0)
	addi	a5,a5,12
	.loc 1 671 20
	mv	a4,a5
	.loc 1 671 55
	lw	a5,-24(s0)
	sw	a5,0(a4)
	.loc 1 681 13
	j	.L49
.L47:
	.loc 1 676 59
	lw	a5,-20(s0)
	addi	a5,a5,16
	.loc 1 676 30
	lw	a4,0(a5)
	.loc 1 676 24
	li	a5,32768
	or	a5,a4,a5
	sw	a5,-24(s0)
	.loc 1 677 47
	lw	a5,-20(s0)
	addi	a5,a5,16
	.loc 1 677 20
	mv	a4,a5
	.loc 1 677 56
	lw	a5,-24(s0)
	sw	a5,0(a4)
	.loc 1 678 59
	lw	a5,-20(s0)
	addi	a5,a5,12
	.loc 1 678 70
	lw	a4,0(a5)
	.loc 1 678 24
	li	a5,-2147483648
	addi	a5,a5,-1
	and	a5,a4,a5
	sw	a5,-24(s0)
	.loc 1 679 47
	lw	a5,-20(s0)
	addi	a5,a5,12
	.loc 1 679 20
	mv	a4,a5
	.loc 1 679 55
	lw	a5,-24(s0)
	sw	a5,0(a4)
	.loc 1 681 13
	j	.L49
.L46:
	.loc 1 683 15
	lbu	a5,-35(s0)
	bne	a5,zero,.L50
	.loc 1 686 59
	lw	a5,-20(s0)
	addi	a5,a5,16
	.loc 1 686 71
	lw	a4,0(a5)
	.loc 1 686 24
	li	a5,-16384
	addi	a5,a5,-1
	and	a5,a4,a5
	sw	a5,-24(s0)
	.loc 1 687 47
	lw	a5,-20(s0)
	addi	a5,a5,16
	.loc 1 687 20
	mv	a4,a5
	.loc 1 687 56
	lw	a5,-24(s0)
	sw	a5,0(a4)
	.loc 1 695 13
	j	.L49
.L50:
	.loc 1 692 59
	lw	a5,-20(s0)
	addi	a5,a5,16
	.loc 1 692 30
	lw	a4,0(a5)
	.loc 1 692 24
	li	a5,16384
	or	a5,a4,a5
	sw	a5,-24(s0)
	.loc 1 693 47
	lw	a5,-20(s0)
	addi	a5,a5,16
	.loc 1 693 20
	mv	a4,a5
	.loc 1 693 56
	lw	a5,-24(s0)
	sw	a5,0(a4)
	.loc 1 695 13
	j	.L49
.L43:
	.loc 1 697 15
	lbu	a5,-35(s0)
	bne	a5,zero,.L52
	.loc 1 700 56
	lw	a5,-20(s0)
	addi	a5,a5,16
	.loc 1 700 24
	lw	a5,0(a5)
	sw	a5,-24(s0)
	.loc 1 701 24
	lw	a4,-24(s0)
	li	a5,-32768
	addi	a5,a5,-1
	and	a5,a4,a5
	sw	a5,-24(s0)
	.loc 1 702 24
	lw	a4,-24(s0)
	li	a5,-16384
	addi	a5,a5,-1
	and	a5,a4,a5
	sw	a5,-24(s0)
	.loc 1 703 47
	lw	a5,-20(s0)
	addi	a5,a5,16
	.loc 1 703 20
	mv	a4,a5
	.loc 1 703 56
	lw	a5,-24(s0)
	sw	a5,0(a4)
	.loc 1 704 56
	lw	a5,-20(s0)
	addi	a5,a5,12
	.loc 1 704 24
	lw	a5,0(a5)
	sw	a5,-24(s0)
	.loc 1 705 24
	lw	a4,-24(s0)
	li	a5,-2147483648
	or	a5,a4,a5
	sw	a5,-24(s0)
	.loc 1 706 47
	lw	a5,-20(s0)
	addi	a5,a5,12
	.loc 1 706 20
	mv	a4,a5
	.loc 1 706 55
	lw	a5,-24(s0)
	sw	a5,0(a4)
	.loc 1 719 13
	j	.L49
.L52:
	.loc 1 711 56
	lw	a5,-20(s0)
	addi	a5,a5,16
	.loc 1 711 24
	lw	a5,0(a5)
	sw	a5,-24(s0)
	.loc 1 712 24
	lw	a4,-24(s0)
	li	a5,32768
	or	a5,a4,a5
	sw	a5,-24(s0)
	.loc 1 713 24
	lw	a4,-24(s0)
	li	a5,16384
	or	a5,a4,a5
	sw	a5,-24(s0)
	.loc 1 714 47
	lw	a5,-20(s0)
	addi	a5,a5,16
	.loc 1 714 20
	mv	a4,a5
	.loc 1 714 56
	lw	a5,-24(s0)
	sw	a5,0(a4)
	.loc 1 715 56
	lw	a5,-20(s0)
	addi	a5,a5,12
	.loc 1 715 24
	lw	a5,0(a5)
	sw	a5,-24(s0)
	.loc 1 716 24
	lw	a4,-24(s0)
	li	a5,-2147483648
	addi	a5,a5,-1
	and	a5,a4,a5
	sw	a5,-24(s0)
	.loc 1 717 47
	lw	a5,-20(s0)
	addi	a5,a5,12
	.loc 1 717 20
	mv	a4,a5
	.loc 1 717 55
	lw	a5,-24(s0)
	sw	a5,0(a4)
	.loc 1 719 13
	j	.L49
.L54:
	.loc 1 722 13
	nop
.L49:
	.loc 1 724 1
	nop
	lw	ra,44(sp)
	.cfi_restore 1
	lw	s0,40(sp)
	.cfi_restore 8
	.cfi_def_cfa 2, 48
	addi	sp,sp,48
	.cfi_def_cfa_offset 0
	jr	ra
	.cfi_endproc
.LFE27:
	.size	DMA_IntMask, .-DMA_IntMask
	.section	.text.DMA_Int_Callback_Install,"ax",@progbits
	.align	1
	.globl	DMA_Int_Callback_Install
	.type	DMA_Int_Callback_Install, @function
DMA_Int_Callback_Install:
.LFB28:
	.loc 1 737 1
	.cfi_startproc
	addi	sp,sp,-32
	.cfi_def_cfa_offset 32
	sw	ra,28(sp)
	sw	s0,24(sp)
	.cfi_offset 1, -4
	.cfi_offset 8, -8
	addi	s0,sp,32
	.cfi_def_cfa 8, 0
	mv	a5,a0
	mv	a4,a1
	sw	a2,-24(s0)
	sb	a5,-17(s0)
	mv	a5,a4
	sb	a5,-18(s0)
	.loc 1 742 27
	lbu	a3,-17(s0)
	lbu	a5,-18(s0)
	.loc 1 742 37
	lui	a4,%hi(dmaIntCbfArra)
	addi	a4,a4,%lo(dmaIntCbfArra)
	slli	a3,a3,1
	add	a5,a3,a5
	slli	a5,a5,2
	add	a5,a4,a5
	lw	a4,-24(s0)
	sw	a4,0(a5)
	.loc 1 743 1
	nop
	lw	ra,28(sp)
	.cfi_restore 1
	lw	s0,24(sp)
	.cfi_restore 8
	.cfi_def_cfa 2, 32
	addi	sp,sp,32
	.cfi_def_cfa_offset 0
	jr	ra
	.cfi_endproc
.LFE28:
	.size	DMA_Int_Callback_Install, .-DMA_Int_Callback_Install
	.text
.Letext0:
	.file 2 "/home/chandu/sdk/bl602_iot_sdk/toolchain/compiler/lib/gcc/riscv32-unknown-elf/15.1.0/include/stdint-gcc.h"
	.file 3 "/home/chandu/sdk/bl602_iot_sdk/components/bl602/bl602_std/bl602_std/Device/Bouffalo/BL602/Peripherals/dma_reg.h"
	.file 4 "/home/chandu/sdk/bl602_iot_sdk/components/bl602/bl602_std/bl602_std/Device/Bouffalo/BL602/Peripherals/bl602.h"
	.file 5 "/home/chandu/sdk/bl602_iot_sdk/components/bl602/bl602_std/bl602_std/StdDriver/Inc/bl602_common.h"
	.file 6 "/home/chandu/sdk/bl602_iot_sdk/components/bl602/bl602_std/bl602_std/StdDriver/Inc/bl602_dma.h"
	.file 7 "/home/chandu/sdk/bl602_iot_sdk/components/bl602/bl602_std/bl602_std/RISCV/Core/Include/cmsis_compatible_gcc.h"
	.section	.note.GNU-stack,"",@progbits
