	.file	"bl602_hbn.c"
	.option nopic
	.attribute arch, "rv32i2p1_m2p0_f2p2_c2p0_zicsr2p0_zmmul1p0_zca1p0_zcf1p0"
	.attribute unaligned_access, 0
	.attribute stack_align, 16
	.text
.Ltext0:
	.cfi_sections	.debug_frame
	.file 0 "/home/chandu/sdk/bl602_iot_sdk/customer_app/suas_app_pqkem_gateway/build_out/bl602_std" "/home/chandu/sdk/bl602_iot_sdk/components/bl602/bl602_std/bl602_std/StdDriver/Src/bl602_hbn.c"
	.section	.bss.hbnInt0CbfArra,"aw",@nobits
	.align	2
	.type	hbnInt0CbfArra, @object
	.size	hbnInt0CbfArra, 12
hbnInt0CbfArra:
	.zero	12
	.section	.bss.hbnInt1CbfArra,"aw",@nobits
	.align	2
	.type	hbnInt1CbfArra, @object
	.size	hbnInt1CbfArra, 16
hbnInt1CbfArra:
	.zero	16
	.section	.tcm_code,"ax",@progbits
	.align	1
	.weak	HBN_Mode_Enter
	.type	HBN_Mode_Enter, @function
HBN_Mode_Enter:
.LFB8:
	.file 1 "/home/chandu/sdk/bl602_iot_sdk/components/bl602/bl602_std/bl602_std/StdDriver/Src/bl602_hbn.c"
	.loc 1 104 1
	.cfi_startproc
	addi	sp,sp,-80
	.cfi_def_cfa_offset 80
	sw	ra,76(sp)
	sw	s0,72(sp)
	sw	s2,68(sp)
	sw	s3,64(sp)
	sw	s4,60(sp)
	sw	s5,56(sp)
	sw	s6,52(sp)
	sw	s7,48(sp)
	sw	s8,44(sp)
	sw	s9,40(sp)
	sw	s10,36(sp)
	sw	s11,32(sp)
	.cfi_offset 1, -4
	.cfi_offset 8, -8
	.cfi_offset 18, -12
	.cfi_offset 19, -16
	.cfi_offset 20, -20
	.cfi_offset 21, -24
	.cfi_offset 22, -28
	.cfi_offset 23, -32
	.cfi_offset 24, -36
	.cfi_offset 25, -40
	.cfi_offset 26, -44
	.cfi_offset 27, -48
	addi	s0,sp,80
	.cfi_def_cfa 8, 0
	sw	a0,-68(s0)
	.loc 1 105 14
	sw	zero,-60(s0)
	.loc 1 105 23
	sw	zero,-64(s0)
	.loc 1 108 11
	lw	a5,-68(s0)
	lbu	a5,0(a5)
	.loc 1 108 7
	beq	a5,zero,.L2
	.loc 1 109 9
	li	a0,1
	call	HBN_32K_Sel
	j	.L3
.L2:
	.loc 1 111 9
	li	a0,0
	call	HBN_32K_Sel
	.loc 1 112 9
	call	HBN_Power_Off_Xtal_32K
.L3:
	.loc 1 116 5
	li	a0,0
	call	HBN_Hw_Pu_Pd_Cfg
	.loc 1 118 30
	lw	a5,-68(s0)
	lbu	a5,8(a5)
	.loc 1 118 5
	not	a5,a5
	andi	a5,a5,0xff
	mv	a0,a5
	call	HBN_Pin_WakeUp_Mask
	.loc 1 119 11
	lw	a5,-68(s0)
	lbu	a5,8(a5)
	.loc 1 119 7
	beq	a5,zero,.L4
	.loc 1 120 9
	li	a0,1
	call	HBN_Aon_Pad_IeSmt_Cfg
	.loc 1 121 9
	lw	a5,-68(s0)
	lbu	a5,9(a5)
	mv	a0,a5
	call	HBN_GPIO_INT_Enable
	j	.L5
.L4:
	.loc 1 123 9
	li	a0,0
	call	HBN_Aon_Pad_IeSmt_Cfg
.L5:
	.loc 1 127 5
	call	HBN_Clear_RTC_Counter
	.loc 1 128 11
	lw	a5,-68(s0)
	lw	a5,4(a5)
	.loc 1 128 7
	beq	a5,zero,.L6
	.loc 1 129 9
	addi	a4,s0,-64
	addi	a5,s0,-60
	mv	a1,a4
	mv	a0,a5
	call	HBN_Get_RTC_Timer_Val
	.loc 1 130 19
	lw	a5,-60(s0)
	mv	s2,a5
	li	s3,0
	.loc 1 130 21
	lw	a5,-64(s0)
	mv	s10,a5
	li	s11,0
	.loc 1 130 38
	slli	s5,s10,0
	li	s4,0
	.loc 1 130 12
	add	a4,s2,s4
	mv	a3,a4
	sltu	a3,a3,s2
	add	a5,s3,s5
	add	a3,a3,a5
	mv	a5,a3
	sw	a4,-56(s0)
	sw	a5,-52(s0)
	.loc 1 131 17
	lw	a5,-68(s0)
	lw	a5,4(a5)
	.loc 1 131 28
	slli	a5,a5,15
	mv	s6,a5
	li	s7,0
	.loc 1 131 12
	lw	a2,-56(s0)
	lw	a3,-52(s0)
	add	a4,a2,s6
	mv	a1,a4
	sltu	a1,a1,a2
	add	a5,a3,s7
	add	a3,a1,a5
	mv	a5,a3
	sw	a4,-56(s0)
	sw	a5,-52(s0)
	.loc 1 132 9
	lw	a4,-56(s0)
	.loc 1 132 66
	lw	a5,-52(s0)
	srli	s8,a5,0
	li	s9,0
	.loc 1 132 9
	mv	a5,s8
	li	a3,1
	mv	a2,a5
	mv	a1,a4
	li	a0,1
	call	HBN_Set_RTC_Timer
	.loc 1 133 9
	call	HBN_Enable_RTC_Counter
.L6:
	.loc 1 136 5
	lw	a5,-68(s0)
	lw	a5,12(a5)
	mv	a0,a5
	call	HBN_Power_Down_Flash
	.loc 1 137 5
	li	a0,1
	call	HBN_Set_Embedded_Flash_Pullup
	.loc 1 139 5
	li	a1,0
	li	a0,0
	call	GLB_Set_System_CLK
	.loc 1 141 5
	lw	a5,-68(s0)
	lbu	a4,8(a5)
	lw	a5,-68(s0)
	lbu	a3,17(a5)
	lw	a5,-68(s0)
	lbu	a5,16(a5)
	mv	a2,a5
	mv	a1,a3
	mv	a0,a4
	call	HBN_Enable
	.loc 1 142 1
	nop
	lw	ra,76(sp)
	.cfi_restore 1
	lw	s0,72(sp)
	.cfi_restore 8
	.cfi_def_cfa 2, 80
	lw	s2,68(sp)
	.cfi_restore 18
	lw	s3,64(sp)
	.cfi_restore 19
	lw	s4,60(sp)
	.cfi_restore 20
	lw	s5,56(sp)
	.cfi_restore 21
	lw	s6,52(sp)
	.cfi_restore 22
	lw	s7,48(sp)
	.cfi_restore 23
	lw	s8,44(sp)
	.cfi_restore 24
	lw	s9,40(sp)
	.cfi_restore 25
	lw	s10,36(sp)
	.cfi_restore 26
	lw	s11,32(sp)
	.cfi_restore 27
	addi	sp,sp,80
	.cfi_def_cfa_offset 0
	jr	ra
	.cfi_endproc
.LFE8:
	.size	HBN_Mode_Enter, .-HBN_Mode_Enter
	.align	1
	.weak	HBN_Power_Down_Flash
	.type	HBN_Power_Down_Flash, @function
HBN_Power_Down_Flash:
.LFB9:
	.loc 1 156 1
	.cfi_startproc
	addi	sp,sp,-128
	.cfi_def_cfa_offset 128
	sw	ra,124(sp)
	sw	s0,120(sp)
	.cfi_offset 1, -4
	.cfi_offset 8, -8
	addi	s0,sp,128
	.cfi_def_cfa 8, 0
	sw	a0,-116(s0)
	.loc 1 159 7
	lw	a5,-116(s0)
	bne	a5,zero,.L8
	.loc 1 160 9
	call	SFlash_Cache_Flush
	.loc 1 161 9
	addi	a5,s0,-100
	li	a2,84
	mv	a1,a5
	li	a5,587202560
	addi	a0,a5,12
	call	XIP_SFlash_Read_Via_Cache_Need_Lock
	.loc 1 162 9
	call	SFlash_Cache_Flush
	.loc 1 164 9
	li	a0,0
	call	SF_Ctrl_Set_Owner
	.loc 1 165 9
	addi	a5,s0,-100
	mv	a0,a5
	call	SFlash_Reset_Continue_Read
	j	.L9
.L8:
	.loc 1 167 9
	li	a0,0
	call	SF_Ctrl_Set_Owner
	.loc 1 168 9
	lw	a0,-116(s0)
	call	SFlash_Reset_Continue_Read
.L9:
	.loc 1 171 5
	call	SFlash_Powerdown
	.loc 1 172 1
	nop
	lw	ra,124(sp)
	.cfi_restore 1
	lw	s0,120(sp)
	.cfi_restore 8
	.cfi_def_cfa 2, 128
	addi	sp,sp,128
	.cfi_def_cfa_offset 0
	jr	ra
	.cfi_endproc
.LFE9:
	.size	HBN_Power_Down_Flash, .-HBN_Power_Down_Flash
	.align	1
	.weak	HBN_Enable
	.type	HBN_Enable, @function
HBN_Enable:
.LFB10:
	.loc 1 190 1
	.cfi_startproc
	addi	sp,sp,-48
	.cfi_def_cfa_offset 48
	sw	ra,44(sp)
	sw	s0,40(sp)
	.cfi_offset 1, -4
	.cfi_offset 8, -8
	addi	s0,sp,48
	.cfi_def_cfa 8, 0
	mv	a5,a0
	mv	a3,a1
	mv	a4,a2
	sb	a5,-33(s0)
	mv	a5,a3
	sb	a5,-34(s0)
	mv	a5,a4
	sb	a5,-35(s0)
	.loc 1 198 7
	li	a5,1073803264
	addi	a5,a5,52
	.loc 1 198 60
	li	a4,36
	sw	a4,0(a5)
	.loc 1 200 13
	li	a5,1073803264
	addi	a5,a5,20
	.loc 1 200 11
	lw	a5,0(a5)
	sw	a5,-20(s0)
	.loc 1 201 23
	lw	a5,-20(s0)
	andi	a4,a5,-257
	.loc 1 201 54
	lbu	a5,-33(s0)
	.loc 1 201 76
	slli	a5,a5,8
	.loc 1 201 11
	or	a5,a4,a5
	sw	a5,-20(s0)
	.loc 1 202 11
	lw	a4,-20(s0)
	li	a5,-65536
	addi	a5,a5,-1
	and	a5,a4,a5
	sw	a5,-20(s0)
	.loc 1 203 7
	li	a5,1073803264
	addi	a5,a5,20
	.loc 1 203 60
	lw	a4,-20(s0)
	sw	a4,0(a5)
	.loc 1 226 13
	li	a5,1073803264
	addi	a5,a5,48
	.loc 1 226 11
	lw	a5,0(a5)
	sw	a5,-20(s0)
	.loc 1 227 11
	lw	a5,-20(s0)
	andi	a5,a5,-4
	sw	a5,-20(s0)
	.loc 1 228 7
	li	a5,1073803264
	addi	a5,a5,48
	.loc 1 228 60
	lw	a4,-20(s0)
	sw	a4,0(a5)
	.loc 1 229 5
 #APP
# 229 "/home/chandu/sdk/bl602_iot_sdk/components/bl602/bl602_std/bl602_std/StdDriver/Src/bl602_hbn.c" 1
	nop
# 0 "" 2
	.loc 1 229 28
# 229 "/home/chandu/sdk/bl602_iot_sdk/components/bl602/bl602_std/bl602_std/StdDriver/Src/bl602_hbn.c" 1
	nop
# 0 "" 2
	.loc 1 229 51
# 229 "/home/chandu/sdk/bl602_iot_sdk/components/bl602/bl602_std/bl602_std/StdDriver/Src/bl602_hbn.c" 1
	nop
# 0 "" 2
	.loc 1 229 74
# 229 "/home/chandu/sdk/bl602_iot_sdk/components/bl602/bl602_std/bl602_std/StdDriver/Src/bl602_hbn.c" 1
	nop
# 0 "" 2
	.loc 1 232 7
 #NO_APP
	li	a5,1073803264
	addi	a5,a5,256
	.loc 1 232 61
	li	a4,1312968704
	addi	a4,a4,-1979
	sw	a4,0(a5)
	.loc 1 234 13
	li	a5,1073803264
	.loc 1 234 11
	lw	a5,0(a5)
	sw	a5,-20(s0)
	.loc 1 236 5
	lbu	a5,-35(s0)
	li	a4,3
	beq	a5,a4,.L11
	li	a4,3
	bgt	a5,a4,.L18
	li	a4,2
	beq	a5,a4,.L13
	li	a4,2
	bgt	a5,a4,.L18
	beq	a5,zero,.L14
	li	a4,1
	beq	a5,a4,.L15
	.loc 1 258 13
	j	.L18
.L14:
	.loc 1 238 19
	lw	a5,-20(s0)
	andi	a5,a5,-513
	sw	a5,-20(s0)
	.loc 1 239 19
	lw	a4,-20(s0)
	li	a5,-4096
	addi	a5,a5,2047
	and	a5,a4,a5
	sw	a5,-20(s0)
	.loc 1 240 13
	j	.L16
.L15:
	.loc 1 243 19
	lw	a5,-20(s0)
	ori	a5,a5,512
	sw	a5,-20(s0)
	.loc 1 244 19
	lw	a4,-20(s0)
	li	a5,-4096
	addi	a5,a5,2047
	and	a5,a4,a5
	sw	a5,-20(s0)
	.loc 1 245 13
	j	.L16
.L13:
	.loc 1 248 19
	lw	a5,-20(s0)
	ori	a5,a5,512
	sw	a5,-20(s0)
	.loc 1 249 19
	lw	a4,-20(s0)
	li	a5,4096
	addi	a5,a5,-2048
	or	a5,a4,a5
	sw	a5,-20(s0)
	.loc 1 250 13
	j	.L16
.L11:
	.loc 1 253 19
	lw	a5,-20(s0)
	ori	a5,a5,512
	sw	a5,-20(s0)
	.loc 1 254 19
	lw	a4,-20(s0)
	li	a5,4096
	addi	a5,a5,-2048
	or	a5,a4,a5
	sw	a5,-20(s0)
	.loc 1 255 13
	j	.L16
.L18:
	.loc 1 258 13
	nop
.L16:
	.loc 1 261 11
	lw	a4,-20(s0)
	li	a5,-33554432
	addi	a5,a5,-1
	and	a5,a4,a5
	sw	a5,-20(s0)
	.loc 1 262 7
	li	a5,1073803264
	.loc 1 262 59
	lw	a4,-20(s0)
	sw	a4,0(a5)
	.loc 1 265 13
	li	a5,1073803264
	.loc 1 265 11
	lw	a5,0(a5)
	sw	a5,-20(s0)
	.loc 1 266 11
	lw	a5,-20(s0)
	ori	a5,a5,128
	sw	a5,-20(s0)
	.loc 1 267 7
	li	a5,1073803264
	.loc 1 267 59
	lw	a4,-20(s0)
	sw	a4,0(a5)
.L17:
	.loc 1 270 9 discriminator 2
	li	a0,1000
	call	BL602_Delay_MS
	j	.L17
	.cfi_endproc
.LFE10:
	.size	HBN_Enable, .-HBN_Enable
	.align	1
	.weak	HBN_Reset
	.type	HBN_Reset, @function
HBN_Reset:
.LFB11:
	.loc 1 286 1
	.cfi_startproc
	addi	sp,sp,-32
	.cfi_def_cfa_offset 32
	sw	ra,28(sp)
	sw	s0,24(sp)
	.cfi_offset 1, -4
	.cfi_offset 8, -8
	addi	s0,sp,32
	.cfi_def_cfa 8, 0
	.loc 1 289 13
	li	a5,1073803264
	.loc 1 289 11
	lw	a5,0(a5)
	sw	a5,-20(s0)
	.loc 1 291 11
	lw	a4,-20(s0)
	li	a5,-4096
	addi	a5,a5,-1
	and	a5,a4,a5
	sw	a5,-20(s0)
	.loc 1 292 7
	li	a5,1073803264
	.loc 1 292 59
	lw	a4,-20(s0)
	sw	a4,0(a5)
	.loc 1 294 11
	lw	a4,-20(s0)
	li	a5,4096
	or	a5,a4,a5
	sw	a5,-20(s0)
	.loc 1 295 7
	li	a5,1073803264
	.loc 1 295 59
	lw	a4,-20(s0)
	sw	a4,0(a5)
	.loc 1 297 11
	lw	a4,-20(s0)
	li	a5,-4096
	addi	a5,a5,-1
	and	a5,a4,a5
	sw	a5,-20(s0)
	.loc 1 298 7
	li	a5,1073803264
	.loc 1 298 59
	lw	a4,-20(s0)
	sw	a4,0(a5)
	.loc 1 300 12
	li	a5,0
	.loc 1 301 1
	mv	a0,a5
	lw	ra,28(sp)
	.cfi_restore 1
	lw	s0,24(sp)
	.cfi_restore 8
	.cfi_def_cfa 2, 32
	addi	sp,sp,32
	.cfi_def_cfa_offset 0
	jr	ra
	.cfi_endproc
.LFE11:
	.size	HBN_Reset, .-HBN_Reset
	.section	.text.HBN_App_Reset,"ax",@progbits
	.align	1
	.globl	HBN_App_Reset
	.type	HBN_App_Reset, @function
HBN_App_Reset:
.LFB12:
	.loc 1 317 1
	.cfi_startproc
	addi	sp,sp,-80
	.cfi_def_cfa_offset 80
	sw	ra,76(sp)
	sw	s0,72(sp)
	.cfi_offset 1, -4
	.cfi_offset 8, -8
	addi	s0,sp,80
	.cfi_def_cfa 8, 0
	mv	a5,a0
	mv	a4,a3
	sb	a5,-65(s0)
	mv	a5,a1
	sb	a5,-66(s0)
	mv	a5,a2
	sb	a5,-67(s0)
	mv	a5,a4
	sb	a5,-68(s0)
	.loc 1 320 13
	li	a5,1073803264
	lw	a5,0(a5)
	.loc 1 320 11
	sw	a5,-64(s0)
	.loc 1 321 13
	li	a5,1073803264
	addi	a5,a5,4
	lw	a5,0(a5)
	.loc 1 321 11
	sw	a5,-60(s0)
	.loc 1 322 13
	li	a5,1073803264
	addi	a5,a5,8
	lw	a5,0(a5)
	.loc 1 322 11
	sw	a5,-56(s0)
	.loc 1 323 13
	li	a5,1073803264
	addi	a5,a5,20
	lw	a5,0(a5)
	.loc 1 323 11
	sw	a5,-52(s0)
	.loc 1 324 13
	li	a5,1073803264
	addi	a5,a5,28
	lw	a5,0(a5)
	.loc 1 324 11
	sw	a5,-48(s0)
	.loc 1 325 13
	li	a5,1073803264
	addi	a5,a5,32
	lw	a5,0(a5)
	.loc 1 325 11
	sw	a5,-44(s0)
	.loc 1 326 13
	li	a5,1073803264
	addi	a5,a5,36
	lw	a5,0(a5)
	.loc 1 326 11
	sw	a5,-40(s0)
	.loc 1 327 13
	li	a5,1073803264
	addi	a5,a5,40
	lw	a5,0(a5)
	.loc 1 327 11
	sw	a5,-36(s0)
	.loc 1 328 13
	li	a5,1073803264
	addi	a5,a5,52
	lw	a5,0(a5)
	.loc 1 328 11
	sw	a5,-32(s0)
	.loc 1 329 13
	li	a5,1073803264
	addi	a5,a5,256
	lw	a5,0(a5)
	.loc 1 329 11
	sw	a5,-28(s0)
	.loc 1 330 14
	li	a5,1073803264
	addi	a5,a5,260
	lw	a5,0(a5)
	.loc 1 330 12
	sw	a5,-24(s0)
	.loc 1 331 14
	li	a5,1073803264
	addi	a5,a5,264
	lw	a5,0(a5)
	.loc 1 331 12
	sw	a5,-20(s0)
	.loc 1 333 5
	call	HBN_Reset
	.loc 1 335 5
	li	a0,100
	call	BL602_Delay_US
	.loc 1 337 7
	li	a5,1073803264
	addi	a5,a5,4
	.loc 1 337 64
	lw	a4,-60(s0)
	.loc 1 337 59
	sw	a4,0(a5)
	.loc 1 338 7
	li	a5,1073803264
	addi	a5,a5,8
	.loc 1 338 64
	lw	a4,-56(s0)
	.loc 1 338 59
	sw	a4,0(a5)
	.loc 1 339 7
	li	a5,1073803264
	.loc 1 339 64
	lw	a4,-64(s0)
	.loc 1 339 59
	sw	a4,0(a5)
	.loc 1 341 7
	li	a5,1073803264
	addi	a5,a5,20
	.loc 1 341 65
	lw	a4,-52(s0)
	.loc 1 341 60
	sw	a4,0(a5)
	.loc 1 342 7
	li	a5,1073803264
	addi	a5,a5,28
	.loc 1 342 65
	lw	a4,-48(s0)
	.loc 1 342 60
	sw	a4,0(a5)
	.loc 1 343 7
	li	a5,1073803264
	addi	a5,a5,32
	.loc 1 343 65
	lw	a4,-44(s0)
	.loc 1 343 60
	sw	a4,0(a5)
	.loc 1 344 7
	li	a5,1073803264
	addi	a5,a5,36
	.loc 1 344 65
	lw	a4,-40(s0)
	.loc 1 344 60
	sw	a4,0(a5)
	.loc 1 345 7
	li	a5,1073803264
	addi	a5,a5,40
	.loc 1 345 65
	lw	a4,-36(s0)
	.loc 1 345 60
	sw	a4,0(a5)
	.loc 1 346 7
	li	a5,1073803264
	addi	a5,a5,52
	.loc 1 346 65
	lw	a4,-32(s0)
	.loc 1 346 60
	sw	a4,0(a5)
	.loc 1 347 7
	li	a5,1073803264
	addi	a5,a5,256
	.loc 1 347 66
	lw	a4,-28(s0)
	.loc 1 347 61
	sw	a4,0(a5)
	.loc 1 348 7
	li	a5,1073803264
	addi	a5,a5,260
	.loc 1 348 66
	lw	a4,-24(s0)
	.loc 1 348 61
	sw	a4,0(a5)
	.loc 1 349 7
	li	a5,1073803264
	addi	a5,a5,264
	.loc 1 349 66
	lw	a4,-20(s0)
	.loc 1 349 61
	sw	a4,0(a5)
	.loc 1 351 12
	li	a5,0
	.loc 1 352 1
	mv	a0,a5
	lw	ra,76(sp)
	.cfi_restore 1
	lw	s0,72(sp)
	.cfi_restore 8
	.cfi_def_cfa 2, 80
	addi	sp,sp,80
	.cfi_def_cfa_offset 0
	jr	ra
	.cfi_endproc
.LFE12:
	.size	HBN_App_Reset, .-HBN_App_Reset
	.section	.text.HBN_Disable,"ax",@progbits
	.align	1
	.globl	HBN_Disable
	.type	HBN_Disable, @function
HBN_Disable:
.LFB13:
	.loc 1 363 1
	.cfi_startproc
	addi	sp,sp,-32
	.cfi_def_cfa_offset 32
	sw	ra,28(sp)
	sw	s0,24(sp)
	.cfi_offset 1, -4
	.cfi_offset 8, -8
	addi	s0,sp,32
	.cfi_def_cfa 8, 0
	.loc 1 366 13
	li	a5,1073803264
	.loc 1 366 11
	lw	a5,0(a5)
	sw	a5,-20(s0)
	.loc 1 368 11
	lw	a5,-20(s0)
	andi	a5,a5,-129
	sw	a5,-20(s0)
	.loc 1 369 7
	li	a5,1073803264
	.loc 1 369 59
	lw	a4,-20(s0)
	sw	a4,0(a5)
	.loc 1 371 12
	li	a5,0
	.loc 1 372 1
	mv	a0,a5
	lw	ra,28(sp)
	.cfi_restore 1
	lw	s0,24(sp)
	.cfi_restore 8
	.cfi_def_cfa 2, 32
	addi	sp,sp,32
	.cfi_def_cfa_offset 0
	jr	ra
	.cfi_endproc
.LFE13:
	.size	HBN_Disable, .-HBN_Disable
	.section	.text.HBN_PIR_Enable,"ax",@progbits
	.align	1
	.globl	HBN_PIR_Enable
	.type	HBN_PIR_Enable, @function
HBN_PIR_Enable:
.LFB14:
	.loc 1 383 1
	.cfi_startproc
	addi	sp,sp,-32
	.cfi_def_cfa_offset 32
	sw	ra,28(sp)
	sw	s0,24(sp)
	.cfi_offset 1, -4
	.cfi_offset 8, -8
	addi	s0,sp,32
	.cfi_def_cfa 8, 0
	.loc 1 386 13
	li	a5,1073803264
	addi	a5,a5,32
	.loc 1 386 11
	lw	a5,0(a5)
	sw	a5,-20(s0)
	.loc 1 387 11
	lw	a5,-20(s0)
	ori	a5,a5,128
	sw	a5,-20(s0)
	.loc 1 388 7
	li	a5,1073803264
	addi	a5,a5,32
	.loc 1 388 60
	lw	a4,-20(s0)
	sw	a4,0(a5)
	.loc 1 390 12
	li	a5,0
	.loc 1 391 1
	mv	a0,a5
	lw	ra,28(sp)
	.cfi_restore 1
	lw	s0,24(sp)
	.cfi_restore 8
	.cfi_def_cfa 2, 32
	addi	sp,sp,32
	.cfi_def_cfa_offset 0
	jr	ra
	.cfi_endproc
.LFE14:
	.size	HBN_PIR_Enable, .-HBN_PIR_Enable
	.section	.text.HBN_PIR_Disable,"ax",@progbits
	.align	1
	.globl	HBN_PIR_Disable
	.type	HBN_PIR_Disable, @function
HBN_PIR_Disable:
.LFB15:
	.loc 1 402 1
	.cfi_startproc
	addi	sp,sp,-32
	.cfi_def_cfa_offset 32
	sw	ra,28(sp)
	sw	s0,24(sp)
	.cfi_offset 1, -4
	.cfi_offset 8, -8
	addi	s0,sp,32
	.cfi_def_cfa 8, 0
	.loc 1 405 13
	li	a5,1073803264
	addi	a5,a5,32
	.loc 1 405 11
	lw	a5,0(a5)
	sw	a5,-20(s0)
	.loc 1 406 11
	lw	a5,-20(s0)
	andi	a5,a5,-129
	sw	a5,-20(s0)
	.loc 1 407 7
	li	a5,1073803264
	addi	a5,a5,32
	.loc 1 407 60
	lw	a4,-20(s0)
	sw	a4,0(a5)
	.loc 1 409 12
	li	a5,0
	.loc 1 410 1
	mv	a0,a5
	lw	ra,28(sp)
	.cfi_restore 1
	lw	s0,24(sp)
	.cfi_restore 8
	.cfi_def_cfa 2, 32
	addi	sp,sp,32
	.cfi_def_cfa_offset 0
	jr	ra
	.cfi_endproc
.LFE15:
	.size	HBN_PIR_Disable, .-HBN_PIR_Disable
	.section	.text.HBN_PIR_INT_Config,"ax",@progbits
	.align	1
	.globl	HBN_PIR_INT_Config
	.type	HBN_PIR_INT_Config, @function
HBN_PIR_INT_Config:
.LFB16:
	.loc 1 421 1
	.cfi_startproc
	addi	sp,sp,-48
	.cfi_def_cfa_offset 48
	sw	ra,44(sp)
	sw	s0,40(sp)
	.cfi_offset 1, -4
	.cfi_offset 8, -8
	addi	s0,sp,48
	.cfi_def_cfa 8, 0
	sw	a0,-36(s0)
	.loc 1 423 14
	sw	zero,-20(s0)
	.loc 1 424 14
	sw	zero,-24(s0)
	.loc 1 425 14
	sw	zero,-28(s0)
	.loc 1 427 13
	li	a5,1073803264
	addi	a5,a5,32
	.loc 1 427 11
	lw	a5,0(a5)
	sw	a5,-32(s0)
	.loc 1 430 17
	lw	a5,-36(s0)
	lbu	a4,0(a5)
	.loc 1 430 7
	li	a5,1
	bne	a4,a5,.L30
	.loc 1 431 14
	sw	zero,-24(s0)
	j	.L31
.L30:
	.loc 1 433 14
	li	a5,1
	sw	a5,-24(s0)
.L31:
	.loc 1 437 17
	lw	a5,-36(s0)
	lbu	a4,1(a5)
	.loc 1 437 7
	li	a5,1
	bne	a4,a5,.L32
	.loc 1 438 14
	sw	zero,-20(s0)
	j	.L33
.L32:
	.loc 1 440 14
	li	a5,1
	sw	a5,-20(s0)
.L33:
	.loc 1 443 24
	lw	a5,-24(s0)
	slli	a5,a5,1
	.loc 1 443 12
	lw	a4,-20(s0)
	or	a5,a4,a5
	sw	a5,-28(s0)
	.loc 1 444 23
	lw	a5,-32(s0)
	andi	a4,a5,-49
	.loc 1 444 72
	lw	a5,-28(s0)
	slli	a5,a5,4
	.loc 1 444 11
	or	a5,a4,a5
	sw	a5,-32(s0)
	.loc 1 445 7
	li	a5,1073803264
	addi	a5,a5,32
	.loc 1 445 60
	lw	a4,-32(s0)
	sw	a4,0(a5)
	.loc 1 447 12
	li	a5,0
	.loc 1 448 1
	mv	a0,a5
	lw	ra,44(sp)
	.cfi_restore 1
	lw	s0,40(sp)
	.cfi_restore 8
	.cfi_def_cfa 2, 48
	addi	sp,sp,48
	.cfi_def_cfa_offset 0
	jr	ra
	.cfi_endproc
.LFE16:
	.size	HBN_PIR_INT_Config, .-HBN_PIR_INT_Config
	.section	.text.HBN_PIR_LPF_Sel,"ax",@progbits
	.align	1
	.globl	HBN_PIR_LPF_Sel
	.type	HBN_PIR_LPF_Sel, @function
HBN_PIR_LPF_Sel:
.LFB17:
	.loc 1 459 1
	.cfi_startproc
	addi	sp,sp,-48
	.cfi_def_cfa_offset 48
	sw	ra,44(sp)
	sw	s0,40(sp)
	.cfi_offset 1, -4
	.cfi_offset 8, -8
	addi	s0,sp,48
	.cfi_def_cfa 8, 0
	mv	a5,a0
	sb	a5,-33(s0)
	.loc 1 464 13
	li	a5,1073803264
	addi	a5,a5,32
	.loc 1 464 11
	lw	a5,0(a5)
	sw	a5,-20(s0)
	.loc 1 465 23
	lw	a5,-20(s0)
	andi	a4,a5,-5
	.loc 1 465 54
	lbu	a5,-33(s0)
	.loc 1 465 69
	slli	a5,a5,2
	.loc 1 465 11
	or	a5,a4,a5
	sw	a5,-20(s0)
	.loc 1 466 7
	li	a5,1073803264
	addi	a5,a5,32
	.loc 1 466 60
	lw	a4,-20(s0)
	sw	a4,0(a5)
	.loc 1 468 12
	li	a5,0
	.loc 1 469 1
	mv	a0,a5
	lw	ra,44(sp)
	.cfi_restore 1
	lw	s0,40(sp)
	.cfi_restore 8
	.cfi_def_cfa 2, 48
	addi	sp,sp,48
	.cfi_def_cfa_offset 0
	jr	ra
	.cfi_endproc
.LFE17:
	.size	HBN_PIR_LPF_Sel, .-HBN_PIR_LPF_Sel
	.section	.text.HBN_PIR_HPF_Sel,"ax",@progbits
	.align	1
	.globl	HBN_PIR_HPF_Sel
	.type	HBN_PIR_HPF_Sel, @function
HBN_PIR_HPF_Sel:
.LFB18:
	.loc 1 480 1
	.cfi_startproc
	addi	sp,sp,-48
	.cfi_def_cfa_offset 48
	sw	ra,44(sp)
	sw	s0,40(sp)
	.cfi_offset 1, -4
	.cfi_offset 8, -8
	addi	s0,sp,48
	.cfi_def_cfa 8, 0
	mv	a5,a0
	sb	a5,-33(s0)
	.loc 1 485 13
	li	a5,1073803264
	addi	a5,a5,32
	.loc 1 485 11
	lw	a5,0(a5)
	sw	a5,-20(s0)
	.loc 1 486 23
	lw	a5,-20(s0)
	andi	a4,a5,-4
	.loc 1 486 69
	lbu	a5,-33(s0)
	.loc 1 486 11
	or	a5,a4,a5
	sw	a5,-20(s0)
	.loc 1 487 7
	li	a5,1073803264
	addi	a5,a5,32
	.loc 1 487 60
	lw	a4,-20(s0)
	sw	a4,0(a5)
	.loc 1 489 12
	li	a5,0
	.loc 1 490 1
	mv	a0,a5
	lw	ra,44(sp)
	.cfi_restore 1
	lw	s0,40(sp)
	.cfi_restore 8
	.cfi_def_cfa 2, 48
	addi	sp,sp,48
	.cfi_def_cfa_offset 0
	jr	ra
	.cfi_endproc
.LFE18:
	.size	HBN_PIR_HPF_Sel, .-HBN_PIR_HPF_Sel
	.section	.text.HBN_Set_PIR_Threshold,"ax",@progbits
	.align	1
	.globl	HBN_Set_PIR_Threshold
	.type	HBN_Set_PIR_Threshold, @function
HBN_Set_PIR_Threshold:
.LFB19:
	.loc 1 501 1
	.cfi_startproc
	addi	sp,sp,-48
	.cfi_def_cfa_offset 48
	sw	ra,44(sp)
	sw	s0,40(sp)
	.cfi_offset 1, -4
	.cfi_offset 8, -8
	addi	s0,sp,48
	.cfi_def_cfa 8, 0
	mv	a5,a0
	sh	a5,-34(s0)
	.loc 1 506 13
	li	a5,1073803264
	addi	a5,a5,36
	.loc 1 506 11
	lw	a5,0(a5)
	sw	a5,-20(s0)
	.loc 1 507 23
	lw	a4,-20(s0)
	li	a5,-16384
	and	a4,a4,a5
	.loc 1 507 76
	lhu	a5,-34(s0)
	.loc 1 507 11
	or	a5,a4,a5
	sw	a5,-20(s0)
	.loc 1 508 7
	li	a5,1073803264
	addi	a5,a5,36
	.loc 1 508 60
	lw	a4,-20(s0)
	sw	a4,0(a5)
	.loc 1 510 12
	li	a5,0
	.loc 1 511 1
	mv	a0,a5
	lw	ra,44(sp)
	.cfi_restore 1
	lw	s0,40(sp)
	.cfi_restore 8
	.cfi_def_cfa 2, 48
	addi	sp,sp,48
	.cfi_def_cfa_offset 0
	jr	ra
	.cfi_endproc
.LFE19:
	.size	HBN_Set_PIR_Threshold, .-HBN_Set_PIR_Threshold
	.section	.text.HBN_Get_PIR_Threshold,"ax",@progbits
	.align	1
	.globl	HBN_Get_PIR_Threshold
	.type	HBN_Get_PIR_Threshold, @function
HBN_Get_PIR_Threshold:
.LFB20:
	.loc 1 522 1
	.cfi_startproc
	addi	sp,sp,-32
	.cfi_def_cfa_offset 32
	sw	ra,28(sp)
	sw	s0,24(sp)
	.cfi_offset 1, -4
	.cfi_offset 8, -8
	addi	s0,sp,32
	.cfi_def_cfa 8, 0
	.loc 1 525 13
	li	a5,1073803264
	addi	a5,a5,36
	.loc 1 525 11
	lw	a5,0(a5)
	sw	a5,-20(s0)
	.loc 1 527 51
	lw	a5,-20(s0)
	slli	a4,a5,16
	srli	a4,a4,16
	li	a5,16384
	addi	a5,a5,-1
	and	a5,a4,a5
	slli	a5,a5,16
	srli	a5,a5,16
	.loc 1 528 1
	mv	a0,a5
	lw	ra,28(sp)
	.cfi_restore 1
	lw	s0,24(sp)
	.cfi_restore 8
	.cfi_def_cfa 2, 32
	addi	sp,sp,32
	.cfi_def_cfa_offset 0
	jr	ra
	.cfi_endproc
.LFE20:
	.size	HBN_Get_PIR_Threshold, .-HBN_Get_PIR_Threshold
	.section	.text.HBN_Set_PIR_Interval,"ax",@progbits
	.align	1
	.globl	HBN_Set_PIR_Interval
	.type	HBN_Set_PIR_Interval, @function
HBN_Set_PIR_Interval:
.LFB21:
	.loc 1 539 1
	.cfi_startproc
	addi	sp,sp,-48
	.cfi_def_cfa_offset 48
	sw	ra,44(sp)
	sw	s0,40(sp)
	.cfi_offset 1, -4
	.cfi_offset 8, -8
	addi	s0,sp,48
	.cfi_def_cfa 8, 0
	mv	a5,a0
	sh	a5,-34(s0)
	.loc 1 544 13
	li	a5,1073803264
	addi	a5,a5,40
	.loc 1 544 11
	lw	a5,0(a5)
	sw	a5,-20(s0)
	.loc 1 545 23
	lw	a4,-20(s0)
	li	a5,-4096
	and	a4,a4,a5
	.loc 1 545 75
	lhu	a5,-34(s0)
	.loc 1 545 11
	or	a5,a4,a5
	sw	a5,-20(s0)
	.loc 1 546 7
	li	a5,1073803264
	addi	a5,a5,40
	.loc 1 546 60
	lw	a4,-20(s0)
	sw	a4,0(a5)
	.loc 1 548 12
	li	a5,0
	.loc 1 549 1
	mv	a0,a5
	lw	ra,44(sp)
	.cfi_restore 1
	lw	s0,40(sp)
	.cfi_restore 8
	.cfi_def_cfa 2, 48
	addi	sp,sp,48
	.cfi_def_cfa_offset 0
	jr	ra
	.cfi_endproc
.LFE21:
	.size	HBN_Set_PIR_Interval, .-HBN_Set_PIR_Interval
	.section	.text.HBN_Get_PIR_Interval,"ax",@progbits
	.align	1
	.globl	HBN_Get_PIR_Interval
	.type	HBN_Get_PIR_Interval, @function
HBN_Get_PIR_Interval:
.LFB22:
	.loc 1 560 1
	.cfi_startproc
	addi	sp,sp,-32
	.cfi_def_cfa_offset 32
	sw	ra,28(sp)
	sw	s0,24(sp)
	.cfi_offset 1, -4
	.cfi_offset 8, -8
	addi	s0,sp,32
	.cfi_def_cfa 8, 0
	.loc 1 563 13
	li	a5,1073803264
	addi	a5,a5,40
	.loc 1 563 11
	lw	a5,0(a5)
	sw	a5,-20(s0)
	.loc 1 565 51
	lw	a5,-20(s0)
	slli	a4,a5,16
	srli	a4,a4,16
	li	a5,4096
	addi	a5,a5,-1
	and	a5,a4,a5
	slli	a5,a5,16
	srli	a5,a5,16
	.loc 1 566 1
	mv	a0,a5
	lw	ra,28(sp)
	.cfi_restore 1
	lw	s0,24(sp)
	.cfi_restore 8
	.cfi_def_cfa 2, 32
	addi	sp,sp,32
	.cfi_def_cfa_offset 0
	jr	ra
	.cfi_endproc
.LFE22:
	.size	HBN_Get_PIR_Interval, .-HBN_Get_PIR_Interval
	.section	.text.HBN_Get_BOR_OUT_State,"ax",@progbits
	.align	1
	.globl	HBN_Get_BOR_OUT_State
	.type	HBN_Get_BOR_OUT_State, @function
HBN_Get_BOR_OUT_State:
.LFB23:
	.loc 1 577 1
	.cfi_startproc
	addi	sp,sp,-16
	.cfi_def_cfa_offset 16
	sw	ra,12(sp)
	sw	s0,8(sp)
	.cfi_offset 1, -4
	.cfi_offset 8, -8
	addi	s0,sp,16
	.cfi_def_cfa 8, 0
	.loc 1 578 17
	li	a5,1073803264
	addi	a5,a5,44
	lw	a5,0(a5)
	.loc 1 578 109
	andi	a5,a5,8
	.loc 1 578 113
	srli	a5,a5,3
	andi	a5,a5,1
	andi	a5,a5,0xff
	.loc 1 579 1
	mv	a0,a5
	lw	ra,12(sp)
	.cfi_restore 1
	lw	s0,8(sp)
	.cfi_restore 8
	.cfi_def_cfa 2, 16
	addi	sp,sp,16
	.cfi_def_cfa_offset 0
	jr	ra
	.cfi_endproc
.LFE23:
	.size	HBN_Get_BOR_OUT_State, .-HBN_Get_BOR_OUT_State
	.section	.text.HBN_Set_BOR_Config,"ax",@progbits
	.align	1
	.globl	HBN_Set_BOR_Config
	.type	HBN_Set_BOR_Config, @function
HBN_Set_BOR_Config:
.LFB24:
	.loc 1 592 1
	.cfi_startproc
	addi	sp,sp,-48
	.cfi_def_cfa_offset 48
	sw	ra,44(sp)
	sw	s0,40(sp)
	.cfi_offset 1, -4
	.cfi_offset 8, -8
	addi	s0,sp,48
	.cfi_def_cfa 8, 0
	mv	a5,a0
	mv	a3,a1
	mv	a4,a2
	sb	a5,-33(s0)
	mv	a5,a3
	sb	a5,-34(s0)
	mv	a5,a4
	sb	a5,-35(s0)
	.loc 1 598 13
	li	a5,1073803264
	addi	a5,a5,44
	.loc 1 598 11
	lw	a5,0(a5)
	sw	a5,-20(s0)
	.loc 1 599 7
	lbu	a5,-33(s0)
	beq	a5,zero,.L50
	.loc 1 600 15
	lw	a5,-20(s0)
	ori	a5,a5,4
	sw	a5,-20(s0)
	j	.L51
.L50:
	.loc 1 602 15
	lw	a5,-20(s0)
	andi	a5,a5,-5
	sw	a5,-20(s0)
.L51:
	.loc 1 604 23
	lw	a5,-20(s0)
	andi	a4,a5,-3
	.loc 1 604 54
	lbu	a5,-34(s0)
	.loc 1 604 75
	slli	a5,a5,1
	.loc 1 604 11
	or	a5,a4,a5
	sw	a5,-20(s0)
	.loc 1 605 23
	lw	a5,-20(s0)
	andi	a4,a5,-2
	.loc 1 605 70
	lbu	a5,-35(s0)
	.loc 1 605 11
	or	a5,a4,a5
	sw	a5,-20(s0)
	.loc 1 606 7
	li	a5,1073803264
	addi	a5,a5,44
	.loc 1 606 60
	lw	a4,-20(s0)
	sw	a4,0(a5)
	.loc 1 608 12
	li	a5,0
	.loc 1 609 1
	mv	a0,a5
	lw	ra,44(sp)
	.cfi_restore 1
	lw	s0,40(sp)
	.cfi_restore 8
	.cfi_def_cfa 2, 48
	addi	sp,sp,48
	.cfi_def_cfa_offset 0
	jr	ra
	.cfi_endproc
.LFE24:
	.size	HBN_Set_BOR_Config, .-HBN_Set_BOR_Config
	.section	.tcm_code
	.align	1
	.weak	HBN_Set_Ldo11_Aon_Vout
	.type	HBN_Set_Ldo11_Aon_Vout, @function
HBN_Set_Ldo11_Aon_Vout:
.LFB25:
	.loc 1 622 1
	.cfi_startproc
	addi	sp,sp,-48
	.cfi_def_cfa_offset 48
	sw	ra,44(sp)
	sw	s0,40(sp)
	.cfi_offset 1, -4
	.cfi_offset 8, -8
	addi	s0,sp,48
	.cfi_def_cfa 8, 0
	mv	a5,a0
	sb	a5,-33(s0)
	.loc 1 627 13
	li	a5,1073803264
	addi	a5,a5,48
	.loc 1 627 11
	lw	a5,0(a5)
	sw	a5,-20(s0)
	.loc 1 628 23
	lw	a4,-20(s0)
	li	a5,268435456
	addi	a5,a5,-1
	and	a4,a4,a5
	.loc 1 628 55
	lbu	a5,-33(s0)
	.loc 1 628 75
	slli	a5,a5,28
	.loc 1 628 11
	or	a5,a4,a5
	sw	a5,-20(s0)
	.loc 1 629 7
	li	a5,1073803264
	addi	a5,a5,48
	.loc 1 629 60
	lw	a4,-20(s0)
	sw	a4,0(a5)
	.loc 1 631 12
	li	a5,0
	.loc 1 632 1
	mv	a0,a5
	lw	ra,44(sp)
	.cfi_restore 1
	lw	s0,40(sp)
	.cfi_restore 8
	.cfi_def_cfa 2, 48
	addi	sp,sp,48
	.cfi_def_cfa_offset 0
	jr	ra
	.cfi_endproc
.LFE25:
	.size	HBN_Set_Ldo11_Aon_Vout, .-HBN_Set_Ldo11_Aon_Vout
	.align	1
	.weak	HBN_Set_Ldo11_Rt_Vout
	.type	HBN_Set_Ldo11_Rt_Vout, @function
HBN_Set_Ldo11_Rt_Vout:
.LFB26:
	.loc 1 646 1
	.cfi_startproc
	addi	sp,sp,-48
	.cfi_def_cfa_offset 48
	sw	ra,44(sp)
	sw	s0,40(sp)
	.cfi_offset 1, -4
	.cfi_offset 8, -8
	addi	s0,sp,48
	.cfi_def_cfa 8, 0
	mv	a5,a0
	sb	a5,-33(s0)
	.loc 1 651 13
	li	a5,1073803264
	addi	a5,a5,48
	.loc 1 651 11
	lw	a5,0(a5)
	sw	a5,-20(s0)
	.loc 1 652 23
	lw	a4,-20(s0)
	li	a5,-251658240
	addi	a5,a5,-1
	and	a4,a4,a5
	.loc 1 652 55
	lbu	a5,-33(s0)
	.loc 1 652 75
	slli	a5,a5,24
	.loc 1 652 11
	or	a5,a4,a5
	sw	a5,-20(s0)
	.loc 1 653 7
	li	a5,1073803264
	addi	a5,a5,48
	.loc 1 653 60
	lw	a4,-20(s0)
	sw	a4,0(a5)
	.loc 1 655 12
	li	a5,0
	.loc 1 656 1
	mv	a0,a5
	lw	ra,44(sp)
	.cfi_restore 1
	lw	s0,40(sp)
	.cfi_restore 8
	.cfi_def_cfa 2, 48
	addi	sp,sp,48
	.cfi_def_cfa_offset 0
	jr	ra
	.cfi_endproc
.LFE26:
	.size	HBN_Set_Ldo11_Rt_Vout, .-HBN_Set_Ldo11_Rt_Vout
	.align	1
	.weak	HBN_Set_Ldo11_Soc_Vout
	.type	HBN_Set_Ldo11_Soc_Vout, @function
HBN_Set_Ldo11_Soc_Vout:
.LFB27:
	.loc 1 670 1
	.cfi_startproc
	addi	sp,sp,-48
	.cfi_def_cfa_offset 48
	sw	ra,44(sp)
	sw	s0,40(sp)
	.cfi_offset 1, -4
	.cfi_offset 8, -8
	addi	s0,sp,48
	.cfi_def_cfa 8, 0
	mv	a5,a0
	sb	a5,-33(s0)
	.loc 1 675 13
	li	a5,1073803264
	addi	a5,a5,48
	.loc 1 675 11
	lw	a5,0(a5)
	sw	a5,-20(s0)
	.loc 1 676 23
	lw	a4,-20(s0)
	li	a5,-983040
	addi	a5,a5,-1
	and	a4,a4,a5
	.loc 1 676 55
	lbu	a5,-33(s0)
	.loc 1 676 75
	slli	a5,a5,16
	.loc 1 676 11
	or	a5,a4,a5
	sw	a5,-20(s0)
	.loc 1 677 7
	li	a5,1073803264
	addi	a5,a5,48
	.loc 1 677 60
	lw	a4,-20(s0)
	sw	a4,0(a5)
	.loc 1 679 12
	li	a5,0
	.loc 1 680 1
	mv	a0,a5
	lw	ra,44(sp)
	.cfi_restore 1
	lw	s0,40(sp)
	.cfi_restore 8
	.cfi_def_cfa 2, 48
	addi	sp,sp,48
	.cfi_def_cfa_offset 0
	jr	ra
	.cfi_endproc
.LFE27:
	.size	HBN_Set_Ldo11_Soc_Vout, .-HBN_Set_Ldo11_Soc_Vout
	.section	.text.HBN_Set_Ldo11_All_Vout,"ax",@progbits
	.align	1
	.globl	HBN_Set_Ldo11_All_Vout
	.type	HBN_Set_Ldo11_All_Vout, @function
HBN_Set_Ldo11_All_Vout:
.LFB28:
	.loc 1 692 1
	.cfi_startproc
	addi	sp,sp,-48
	.cfi_def_cfa_offset 48
	sw	ra,44(sp)
	sw	s0,40(sp)
	.cfi_offset 1, -4
	.cfi_offset 8, -8
	addi	s0,sp,48
	.cfi_def_cfa 8, 0
	mv	a5,a0
	sb	a5,-33(s0)
	.loc 1 697 13
	li	a5,1073803264
	addi	a5,a5,48
	.loc 1 697 11
	lw	a5,0(a5)
	sw	a5,-20(s0)
	.loc 1 698 23
	lw	a4,-20(s0)
	li	a5,268435456
	addi	a5,a5,-1
	and	a4,a4,a5
	.loc 1 698 55
	lbu	a5,-33(s0)
	.loc 1 698 75
	slli	a5,a5,28
	.loc 1 698 11
	or	a5,a4,a5
	sw	a5,-20(s0)
	.loc 1 699 23
	lw	a4,-20(s0)
	li	a5,-251658240
	addi	a5,a5,-1
	and	a4,a4,a5
	.loc 1 699 55
	lbu	a5,-33(s0)
	.loc 1 699 75
	slli	a5,a5,24
	.loc 1 699 11
	or	a5,a4,a5
	sw	a5,-20(s0)
	.loc 1 700 23
	lw	a4,-20(s0)
	li	a5,-983040
	addi	a5,a5,-1
	and	a4,a4,a5
	.loc 1 700 55
	lbu	a5,-33(s0)
	.loc 1 700 75
	slli	a5,a5,16
	.loc 1 700 11
	or	a5,a4,a5
	sw	a5,-20(s0)
	.loc 1 701 7
	li	a5,1073803264
	addi	a5,a5,48
	.loc 1 701 60
	lw	a4,-20(s0)
	sw	a4,0(a5)
	.loc 1 703 12
	li	a5,0
	.loc 1 704 1
	mv	a0,a5
	lw	ra,44(sp)
	.cfi_restore 1
	lw	s0,40(sp)
	.cfi_restore 8
	.cfi_def_cfa 2, 48
	addi	sp,sp,48
	.cfi_def_cfa_offset 0
	jr	ra
	.cfi_endproc
.LFE28:
	.size	HBN_Set_Ldo11_All_Vout, .-HBN_Set_Ldo11_All_Vout
	.section	.sclock_rlt_code,"ax",@progbits
	.align	1
	.weak	HBN_32K_Sel
	.type	HBN_32K_Sel, @function
HBN_32K_Sel:
.LFB29:
	.loc 1 717 1
	.cfi_startproc
	addi	sp,sp,-48
	.cfi_def_cfa_offset 48
	sw	ra,44(sp)
	sw	s0,40(sp)
	.cfi_offset 1, -4
	.cfi_offset 8, -8
	addi	s0,sp,48
	.cfi_def_cfa 8, 0
	mv	a5,a0
	sb	a5,-33(s0)
	.loc 1 723 5
	call	HBN_Trim_RC32K
	.loc 1 725 13
	li	a5,1073803264
	addi	a5,a5,48
	.loc 1 725 11
	lw	a5,0(a5)
	sw	a5,-20(s0)
	.loc 1 726 23
	lw	a5,-20(s0)
	andi	a4,a5,-25
	.loc 1 726 54
	lbu	a5,-33(s0)
	.loc 1 726 73
	slli	a5,a5,3
	.loc 1 726 11
	or	a5,a4,a5
	sw	a5,-20(s0)
	.loc 1 727 7
	li	a5,1073803264
	addi	a5,a5,48
	.loc 1 727 60
	lw	a4,-20(s0)
	sw	a4,0(a5)
	.loc 1 729 12
	li	a5,0
	.loc 1 730 1
	mv	a0,a5
	lw	ra,44(sp)
	.cfi_restore 1
	lw	s0,40(sp)
	.cfi_restore 8
	.cfi_def_cfa 2, 48
	addi	sp,sp,48
	.cfi_def_cfa_offset 0
	jr	ra
	.cfi_endproc
.LFE29:
	.size	HBN_32K_Sel, .-HBN_32K_Sel
	.section	.text.HBN_Set_UART_CLK_Sel,"ax",@progbits
	.align	1
	.globl	HBN_Set_UART_CLK_Sel
	.type	HBN_Set_UART_CLK_Sel, @function
HBN_Set_UART_CLK_Sel:
.LFB30:
	.loc 1 742 1
	.cfi_startproc
	addi	sp,sp,-48
	.cfi_def_cfa_offset 48
	sw	ra,44(sp)
	sw	s0,40(sp)
	.cfi_offset 1, -4
	.cfi_offset 8, -8
	addi	s0,sp,48
	.cfi_def_cfa 8, 0
	mv	a5,a0
	sb	a5,-33(s0)
	.loc 1 747 13
	li	a5,1073803264
	addi	a5,a5,48
	.loc 1 747 11
	lw	a5,0(a5)
	sw	a5,-20(s0)
	.loc 1 748 23
	lw	a5,-20(s0)
	andi	a4,a5,-5
	.loc 1 748 54
	lbu	a5,-33(s0)
	.loc 1 748 72
	slli	a5,a5,2
	.loc 1 748 11
	or	a5,a4,a5
	sw	a5,-20(s0)
	.loc 1 749 7
	li	a5,1073803264
	addi	a5,a5,48
	.loc 1 749 60
	lw	a4,-20(s0)
	sw	a4,0(a5)
	.loc 1 751 12
	li	a5,0
	.loc 1 752 1
	mv	a0,a5
	lw	ra,44(sp)
	.cfi_restore 1
	lw	s0,40(sp)
	.cfi_restore 8
	.cfi_def_cfa 2, 48
	addi	sp,sp,48
	.cfi_def_cfa_offset 0
	jr	ra
	.cfi_endproc
.LFE30:
	.size	HBN_Set_UART_CLK_Sel, .-HBN_Set_UART_CLK_Sel
	.section	.text.HBN_Set_XCLK_CLK_Sel,"ax",@progbits
	.align	1
	.globl	HBN_Set_XCLK_CLK_Sel
	.type	HBN_Set_XCLK_CLK_Sel, @function
HBN_Set_XCLK_CLK_Sel:
.LFB31:
	.loc 1 763 1
	.cfi_startproc
	addi	sp,sp,-48
	.cfi_def_cfa_offset 48
	sw	ra,44(sp)
	sw	s0,40(sp)
	.cfi_offset 1, -4
	.cfi_offset 8, -8
	addi	s0,sp,48
	.cfi_def_cfa 8, 0
	mv	a5,a0
	sb	a5,-33(s0)
	.loc 1 769 13
	li	a5,1073803264
	addi	a5,a5,48
	.loc 1 769 11
	lw	a5,0(a5)
	sw	a5,-24(s0)
	.loc 1 770 12
	lw	a5,-24(s0)
	andi	a5,a5,3
	sw	a5,-20(s0)
	.loc 1 771 5
	lbu	a5,-33(s0)
	beq	a5,zero,.L66
	li	a4,1
	beq	a5,a4,.L67
	.loc 1 779 13
	j	.L69
.L66:
	.loc 1 773 20
	lw	a5,-20(s0)
	andi	a5,a5,-2
	sw	a5,-20(s0)
	.loc 1 774 13
	j	.L69
.L67:
	.loc 1 776 20
	lw	a5,-20(s0)
	ori	a5,a5,1
	sw	a5,-20(s0)
	.loc 1 777 13
	nop
.L69:
	.loc 1 781 23
	lw	a5,-24(s0)
	andi	a5,a5,-4
	.loc 1 781 11
	lw	a4,-20(s0)
	or	a5,a4,a5
	sw	a5,-24(s0)
	.loc 1 782 7
	li	a5,1073803264
	addi	a5,a5,48
	.loc 1 782 60
	lw	a4,-24(s0)
	sw	a4,0(a5)
	.loc 1 783 6
 #APP
# 783 "/home/chandu/sdk/bl602_iot_sdk/components/bl602/bl602_std/bl602_std/StdDriver/Src/bl602_hbn.c" 1
	nop
# 0 "" 2
	.loc 1 783 29
# 783 "/home/chandu/sdk/bl602_iot_sdk/components/bl602/bl602_std/bl602_std/StdDriver/Src/bl602_hbn.c" 1
	nop
# 0 "" 2
	.loc 1 783 52
# 783 "/home/chandu/sdk/bl602_iot_sdk/components/bl602/bl602_std/bl602_std/StdDriver/Src/bl602_hbn.c" 1
	nop
# 0 "" 2
	.loc 1 783 75
# 783 "/home/chandu/sdk/bl602_iot_sdk/components/bl602/bl602_std/bl602_std/StdDriver/Src/bl602_hbn.c" 1
	nop
# 0 "" 2
	.loc 1 783 98
# 783 "/home/chandu/sdk/bl602_iot_sdk/components/bl602/bl602_std/bl602_std/StdDriver/Src/bl602_hbn.c" 1
	nop
# 0 "" 2
	.loc 1 783 121
# 783 "/home/chandu/sdk/bl602_iot_sdk/components/bl602/bl602_std/bl602_std/StdDriver/Src/bl602_hbn.c" 1
	nop
# 0 "" 2
	.loc 1 783 144
# 783 "/home/chandu/sdk/bl602_iot_sdk/components/bl602/bl602_std/bl602_std/StdDriver/Src/bl602_hbn.c" 1
	nop
# 0 "" 2
	.loc 1 783 167
# 783 "/home/chandu/sdk/bl602_iot_sdk/components/bl602/bl602_std/bl602_std/StdDriver/Src/bl602_hbn.c" 1
	nop
# 0 "" 2
	.loc 1 785 12
 #NO_APP
	li	a5,0
	.loc 1 786 1
	mv	a0,a5
	lw	ra,44(sp)
	.cfi_restore 1
	lw	s0,40(sp)
	.cfi_restore 8
	.cfi_def_cfa 2, 48
	addi	sp,sp,48
	.cfi_def_cfa_offset 0
	jr	ra
	.cfi_endproc
.LFE31:
	.size	HBN_Set_XCLK_CLK_Sel, .-HBN_Set_XCLK_CLK_Sel
	.section	.sclock_rlt_code
	.align	1
	.weak	HBN_Set_ROOT_CLK_Sel
	.type	HBN_Set_ROOT_CLK_Sel, @function
HBN_Set_ROOT_CLK_Sel:
.LFB32:
	.loc 1 799 1
	.cfi_startproc
	addi	sp,sp,-48
	.cfi_def_cfa_offset 48
	sw	ra,44(sp)
	sw	s0,40(sp)
	.cfi_offset 1, -4
	.cfi_offset 8, -8
	addi	s0,sp,48
	.cfi_def_cfa 8, 0
	mv	a5,a0
	sb	a5,-33(s0)
	.loc 1 805 13
	li	a5,1073803264
	addi	a5,a5,48
	.loc 1 805 11
	lw	a5,0(a5)
	sw	a5,-24(s0)
	.loc 1 806 12
	lw	a5,-24(s0)
	andi	a5,a5,3
	sw	a5,-20(s0)
	.loc 1 807 5
	lbu	a5,-33(s0)
	li	a4,2
	beq	a5,a4,.L72
	li	a4,2
	bgt	a5,a4,.L78
	beq	a5,zero,.L74
	li	a4,1
	beq	a5,a4,.L75
	.loc 1 818 13
	j	.L78
.L74:
	.loc 1 809 20
	sw	zero,-20(s0)
	.loc 1 810 13
	j	.L76
.L75:
	.loc 1 812 20
	li	a5,1
	sw	a5,-20(s0)
	.loc 1 813 13
	j	.L76
.L72:
	.loc 1 815 20
	lw	a5,-20(s0)
	ori	a5,a5,2
	sw	a5,-20(s0)
	.loc 1 816 13
	j	.L76
.L78:
	.loc 1 818 13
	nop
.L76:
	.loc 1 820 23
	lw	a5,-24(s0)
	andi	a5,a5,-4
	.loc 1 820 11
	lw	a4,-20(s0)
	or	a5,a4,a5
	sw	a5,-24(s0)
	.loc 1 821 7
	li	a5,1073803264
	addi	a5,a5,48
	.loc 1 821 60
	lw	a4,-24(s0)
	sw	a4,0(a5)
	.loc 1 822 6
 #APP
# 822 "/home/chandu/sdk/bl602_iot_sdk/components/bl602/bl602_std/bl602_std/StdDriver/Src/bl602_hbn.c" 1
	nop
# 0 "" 2
	.loc 1 822 29
# 822 "/home/chandu/sdk/bl602_iot_sdk/components/bl602/bl602_std/bl602_std/StdDriver/Src/bl602_hbn.c" 1
	nop
# 0 "" 2
	.loc 1 822 52
# 822 "/home/chandu/sdk/bl602_iot_sdk/components/bl602/bl602_std/bl602_std/StdDriver/Src/bl602_hbn.c" 1
	nop
# 0 "" 2
	.loc 1 822 75
# 822 "/home/chandu/sdk/bl602_iot_sdk/components/bl602/bl602_std/bl602_std/StdDriver/Src/bl602_hbn.c" 1
	nop
# 0 "" 2
	.loc 1 822 98
# 822 "/home/chandu/sdk/bl602_iot_sdk/components/bl602/bl602_std/bl602_std/StdDriver/Src/bl602_hbn.c" 1
	nop
# 0 "" 2
	.loc 1 822 121
# 822 "/home/chandu/sdk/bl602_iot_sdk/components/bl602/bl602_std/bl602_std/StdDriver/Src/bl602_hbn.c" 1
	nop
# 0 "" 2
	.loc 1 822 144
# 822 "/home/chandu/sdk/bl602_iot_sdk/components/bl602/bl602_std/bl602_std/StdDriver/Src/bl602_hbn.c" 1
	nop
# 0 "" 2
	.loc 1 822 167
# 822 "/home/chandu/sdk/bl602_iot_sdk/components/bl602/bl602_std/bl602_std/StdDriver/Src/bl602_hbn.c" 1
	nop
# 0 "" 2
	.loc 1 824 12
 #NO_APP
	li	a5,0
	.loc 1 825 1
	mv	a0,a5
	lw	ra,44(sp)
	.cfi_restore 1
	lw	s0,40(sp)
	.cfi_restore 8
	.cfi_def_cfa 2, 48
	addi	sp,sp,48
	.cfi_def_cfa_offset 0
	jr	ra
	.cfi_endproc
.LFE32:
	.size	HBN_Set_ROOT_CLK_Sel, .-HBN_Set_ROOT_CLK_Sel
	.section	.text.HBN_Set_HRAM_slp,"ax",@progbits
	.align	1
	.globl	HBN_Set_HRAM_slp
	.type	HBN_Set_HRAM_slp, @function
HBN_Set_HRAM_slp:
.LFB33:
	.loc 1 837 1
	.cfi_startproc
	addi	sp,sp,-32
	.cfi_def_cfa_offset 32
	sw	ra,28(sp)
	sw	s0,24(sp)
	.cfi_offset 1, -4
	.cfi_offset 8, -8
	addi	s0,sp,32
	.cfi_def_cfa 8, 0
	.loc 1 838 14
	sw	zero,-20(s0)
	.loc 1 840 13
	li	a5,1073803264
	addi	a5,a5,52
	.loc 1 840 11
	lw	a5,0(a5)
	sw	a5,-20(s0)
	.loc 1 841 11
	lw	a5,-20(s0)
	ori	a5,a5,128
	sw	a5,-20(s0)
	.loc 1 842 11
	lw	a5,-20(s0)
	andi	a5,a5,-65
	sw	a5,-20(s0)
	.loc 1 843 7
	li	a5,1073803264
	addi	a5,a5,52
	.loc 1 843 60
	lw	a4,-20(s0)
	sw	a4,0(a5)
	.loc 1 845 12
	li	a5,0
	.loc 1 846 1
	mv	a0,a5
	lw	ra,28(sp)
	.cfi_restore 1
	lw	s0,24(sp)
	.cfi_restore 8
	.cfi_def_cfa 2, 32
	addi	sp,sp,32
	.cfi_def_cfa_offset 0
	jr	ra
	.cfi_endproc
.LFE33:
	.size	HBN_Set_HRAM_slp, .-HBN_Set_HRAM_slp
	.section	.text.HBN_Set_HRAM_Ret,"ax",@progbits
	.align	1
	.globl	HBN_Set_HRAM_Ret
	.type	HBN_Set_HRAM_Ret, @function
HBN_Set_HRAM_Ret:
.LFB34:
	.loc 1 857 1
	.cfi_startproc
	addi	sp,sp,-32
	.cfi_def_cfa_offset 32
	sw	ra,28(sp)
	sw	s0,24(sp)
	.cfi_offset 1, -4
	.cfi_offset 8, -8
	addi	s0,sp,32
	.cfi_def_cfa 8, 0
	.loc 1 858 14
	sw	zero,-20(s0)
	.loc 1 860 13
	li	a5,1073803264
	addi	a5,a5,52
	.loc 1 860 11
	lw	a5,0(a5)
	sw	a5,-20(s0)
	.loc 1 861 11
	lw	a5,-20(s0)
	andi	a5,a5,-129
	sw	a5,-20(s0)
	.loc 1 862 11
	lw	a5,-20(s0)
	ori	a5,a5,64
	sw	a5,-20(s0)
	.loc 1 863 7
	li	a5,1073803264
	addi	a5,a5,52
	.loc 1 863 60
	lw	a4,-20(s0)
	sw	a4,0(a5)
	.loc 1 865 12
	li	a5,0
	.loc 1 866 1
	mv	a0,a5
	lw	ra,28(sp)
	.cfi_restore 1
	lw	s0,24(sp)
	.cfi_restore 8
	.cfi_def_cfa 2, 32
	addi	sp,sp,32
	.cfi_def_cfa_offset 0
	jr	ra
	.cfi_endproc
.LFE34:
	.size	HBN_Set_HRAM_Ret, .-HBN_Set_HRAM_Ret
	.section	.sclock_rlt_code
	.align	1
	.weak	HBN_Power_On_Xtal_32K
	.type	HBN_Power_On_Xtal_32K, @function
HBN_Power_On_Xtal_32K:
.LFB35:
	.loc 1 879 1
	.cfi_startproc
	addi	sp,sp,-32
	.cfi_def_cfa_offset 32
	sw	ra,28(sp)
	sw	s0,24(sp)
	.cfi_offset 1, -4
	.cfi_offset 8, -8
	addi	s0,sp,32
	.cfi_def_cfa 8, 0
	.loc 1 880 14
	sw	zero,-20(s0)
	.loc 1 882 13
	li	a5,1073803264
	addi	a5,a5,516
	.loc 1 882 11
	lw	a5,0(a5)
	sw	a5,-20(s0)
	.loc 1 883 11
	lw	a4,-20(s0)
	li	a5,524288
	or	a5,a4,a5
	sw	a5,-20(s0)
	.loc 1 884 11
	lw	a4,-20(s0)
	li	a5,262144
	or	a5,a4,a5
	sw	a5,-20(s0)
	.loc 1 885 7
	li	a5,1073803264
	addi	a5,a5,516
	.loc 1 885 61
	lw	a4,-20(s0)
	sw	a4,0(a5)
	.loc 1 888 5
	li	a0,1100
	call	BL602_Delay_US
	.loc 1 890 12
	li	a5,0
	.loc 1 891 1
	mv	a0,a5
	lw	ra,28(sp)
	.cfi_restore 1
	lw	s0,24(sp)
	.cfi_restore 8
	.cfi_def_cfa 2, 32
	addi	sp,sp,32
	.cfi_def_cfa_offset 0
	jr	ra
	.cfi_endproc
.LFE35:
	.size	HBN_Power_On_Xtal_32K, .-HBN_Power_On_Xtal_32K
	.align	1
	.weak	HBN_Power_Off_Xtal_32K
	.type	HBN_Power_Off_Xtal_32K, @function
HBN_Power_Off_Xtal_32K:
.LFB36:
	.loc 1 905 1
	.cfi_startproc
	addi	sp,sp,-32
	.cfi_def_cfa_offset 32
	sw	ra,28(sp)
	sw	s0,24(sp)
	.cfi_offset 1, -4
	.cfi_offset 8, -8
	addi	s0,sp,32
	.cfi_def_cfa 8, 0
	.loc 1 906 14
	sw	zero,-20(s0)
	.loc 1 908 13
	li	a5,1073803264
	addi	a5,a5,516
	.loc 1 908 11
	lw	a5,0(a5)
	sw	a5,-20(s0)
	.loc 1 909 11
	lw	a4,-20(s0)
	li	a5,-524288
	addi	a5,a5,-1
	and	a5,a4,a5
	sw	a5,-20(s0)
	.loc 1 910 11
	lw	a4,-20(s0)
	li	a5,-262144
	addi	a5,a5,-1
	and	a5,a4,a5
	sw	a5,-20(s0)
	.loc 1 911 7
	li	a5,1073803264
	addi	a5,a5,516
	.loc 1 911 61
	lw	a4,-20(s0)
	sw	a4,0(a5)
	.loc 1 913 12
	li	a5,0
	.loc 1 914 1
	mv	a0,a5
	lw	ra,28(sp)
	.cfi_restore 1
	lw	s0,24(sp)
	.cfi_restore 8
	.cfi_def_cfa 2, 32
	addi	sp,sp,32
	.cfi_def_cfa_offset 0
	jr	ra
	.cfi_endproc
.LFE36:
	.size	HBN_Power_Off_Xtal_32K, .-HBN_Power_Off_Xtal_32K
	.align	1
	.weak	HBN_Power_On_RC32K
	.type	HBN_Power_On_RC32K, @function
HBN_Power_On_RC32K:
.LFB37:
	.loc 1 928 1
	.cfi_startproc
	addi	sp,sp,-32
	.cfi_def_cfa_offset 32
	sw	ra,28(sp)
	sw	s0,24(sp)
	.cfi_offset 1, -4
	.cfi_offset 8, -8
	addi	s0,sp,32
	.cfi_def_cfa 8, 0
	.loc 1 929 14
	sw	zero,-20(s0)
	.loc 1 931 13
	li	a5,1073803264
	addi	a5,a5,512
	.loc 1 931 11
	lw	a5,0(a5)
	sw	a5,-20(s0)
	.loc 1 932 11
	lw	a5,-20(s0)
	andi	a5,a5,-33
	sw	a5,-20(s0)
	.loc 1 933 7
	li	a5,1073803264
	addi	a5,a5,512
	.loc 1 933 61
	lw	a4,-20(s0)
	sw	a4,0(a5)
	.loc 1 936 5
	li	a0,880
	call	BL602_Delay_US
	.loc 1 938 12
	li	a5,0
	.loc 1 939 1
	mv	a0,a5
	lw	ra,28(sp)
	.cfi_restore 1
	lw	s0,24(sp)
	.cfi_restore 8
	.cfi_def_cfa 2, 32
	addi	sp,sp,32
	.cfi_def_cfa_offset 0
	jr	ra
	.cfi_endproc
.LFE37:
	.size	HBN_Power_On_RC32K, .-HBN_Power_On_RC32K
	.align	1
	.weak	HBN_Power_Off_RC32K
	.type	HBN_Power_Off_RC32K, @function
HBN_Power_Off_RC32K:
.LFB38:
	.loc 1 953 1
	.cfi_startproc
	addi	sp,sp,-32
	.cfi_def_cfa_offset 32
	sw	ra,28(sp)
	sw	s0,24(sp)
	.cfi_offset 1, -4
	.cfi_offset 8, -8
	addi	s0,sp,32
	.cfi_def_cfa 8, 0
	.loc 1 954 14
	sw	zero,-20(s0)
	.loc 1 956 13
	li	a5,1073803264
	addi	a5,a5,512
	.loc 1 956 11
	lw	a5,0(a5)
	sw	a5,-20(s0)
	.loc 1 957 11
	lw	a5,-20(s0)
	ori	a5,a5,32
	sw	a5,-20(s0)
	.loc 1 958 7
	li	a5,1073803264
	addi	a5,a5,512
	.loc 1 958 61
	lw	a4,-20(s0)
	sw	a4,0(a5)
	.loc 1 960 12
	li	a5,0
	.loc 1 961 1
	mv	a0,a5
	lw	ra,28(sp)
	.cfi_restore 1
	lw	s0,24(sp)
	.cfi_restore 8
	.cfi_def_cfa 2, 32
	addi	sp,sp,32
	.cfi_def_cfa_offset 0
	jr	ra
	.cfi_endproc
.LFE38:
	.size	HBN_Power_Off_RC32K, .-HBN_Power_Off_RC32K
	.align	1
	.weak	HBN_Trim_RC32K
	.type	HBN_Trim_RC32K, @function
HBN_Trim_RC32K:
.LFB39:
	.loc 1 975 1
	.cfi_startproc
	addi	sp,sp,-32
	.cfi_def_cfa_offset 32
	sw	ra,28(sp)
	sw	s0,24(sp)
	sw	s1,20(sp)
	.cfi_offset 1, -4
	.cfi_offset 8, -8
	.cfi_offset 9, -12
	addi	s0,sp,32
	.cfi_def_cfa 8, 0
	.loc 1 977 13
	sw	zero,-20(s0)
	.loc 1 979 5
	addi	a5,s0,-24
	mv	a0,a5
	call	EF_Ctrl_Read_RC32K_Trim
	.loc 1 980 8
	lw	a4,-24(s0)
	li	a5,4096
	addi	a5,a5,-2048
	and	a5,a4,a5
	.loc 1 980 7
	beq	a5,zero,.L92
	.loc 1 981 16
	lw	a5,-24(s0)
	srli	a5,a5,10
	andi	a5,a5,1
	andi	a5,a5,0xff
	mv	s1,a5
	.loc 1 981 71
	lw	a5,-24(s0)
	andi	a5,a5,1023
	slli	a5,a5,16
	srli	a5,a5,16
	.loc 1 981 43
	li	a1,10
	mv	a0,a5
	call	EF_Ctrl_Get_Trim_Parity
	mv	a5,a0
	.loc 1 981 11 discriminator 1
	bne	s1,a5,.L92
	.loc 1 982 21
	li	a5,1073803264
	addi	a5,a5,512
	lw	a5,0(a5)
	.loc 1 982 19
	sw	a5,-20(s0)
	.loc 1 983 31
	lw	a4,-20(s0)
	li	a5,4194304
	addi	a5,a5,-1
	and	a4,a4,a5
	.loc 1 983 79
	lw	a5,-24(s0)
	andi	a5,a5,1023
	slli	a5,a5,16
	srli	a5,a5,16
	.loc 1 983 99
	slli	a5,a5,22
	.loc 1 983 61
	or	a5,a4,a5
	.loc 1 983 19
	sw	a5,-20(s0)
	.loc 1 984 31
	lw	a4,-20(s0)
	li	a5,524288
	or	a5,a4,a5
	.loc 1 984 19
	sw	a5,-20(s0)
	.loc 1 985 15
	li	a5,1073803264
	addi	a5,a5,512
	.loc 1 985 69
	lw	a4,-20(s0)
	sw	a4,0(a5)
	.loc 1 986 13
	li	a0,2
	call	BL602_Delay_US
	.loc 1 987 20
	li	a5,0
	j	.L94
.L92:
	.loc 1 991 12
	li	a5,1
.L94:
	.loc 1 992 1
	mv	a0,a5
	lw	ra,28(sp)
	.cfi_restore 1
	lw	s0,24(sp)
	.cfi_restore 8
	.cfi_def_cfa 2, 32
	lw	s1,20(sp)
	.cfi_restore 9
	addi	sp,sp,32
	.cfi_def_cfa_offset 0
	jr	ra
	.cfi_endproc
.LFE39:
	.size	HBN_Trim_RC32K, .-HBN_Trim_RC32K
	.section	.text.HBN_Get_Status_Flag,"ax",@progbits
	.align	1
	.globl	HBN_Get_Status_Flag
	.type	HBN_Get_Status_Flag, @function
HBN_Get_Status_Flag:
.LFB40:
	.loc 1 1004 1
	.cfi_startproc
	addi	sp,sp,-16
	.cfi_def_cfa_offset 16
	sw	ra,12(sp)
	sw	s0,8(sp)
	.cfi_offset 1, -4
	.cfi_offset 8, -8
	addi	s0,sp,16
	.cfi_def_cfa 8, 0
	.loc 1 1005 13
	li	a5,1073803264
	addi	a5,a5,256
	lw	a5,0(a5)
	.loc 1 1006 1
	mv	a0,a5
	lw	ra,12(sp)
	.cfi_restore 1
	lw	s0,8(sp)
	.cfi_restore 8
	.cfi_def_cfa 2, 16
	addi	sp,sp,16
	.cfi_def_cfa_offset 0
	jr	ra
	.cfi_endproc
.LFE40:
	.size	HBN_Get_Status_Flag, .-HBN_Get_Status_Flag
	.section	.text.HBN_Set_Status_Flag,"ax",@progbits
	.align	1
	.globl	HBN_Set_Status_Flag
	.type	HBN_Set_Status_Flag, @function
HBN_Set_Status_Flag:
.LFB41:
	.loc 1 1017 1
	.cfi_startproc
	addi	sp,sp,-32
	.cfi_def_cfa_offset 32
	sw	ra,28(sp)
	sw	s0,24(sp)
	.cfi_offset 1, -4
	.cfi_offset 8, -8
	addi	s0,sp,32
	.cfi_def_cfa 8, 0
	sw	a0,-20(s0)
	.loc 1 1018 7
	li	a5,1073803264
	addi	a5,a5,256
	.loc 1 1018 61
	lw	a4,-20(s0)
	sw	a4,0(a5)
	.loc 1 1020 12
	li	a5,0
	.loc 1 1021 1
	mv	a0,a5
	lw	ra,28(sp)
	.cfi_restore 1
	lw	s0,24(sp)
	.cfi_restore 8
	.cfi_def_cfa 2, 32
	addi	sp,sp,32
	.cfi_def_cfa_offset 0
	jr	ra
	.cfi_endproc
.LFE41:
	.size	HBN_Set_Status_Flag, .-HBN_Set_Status_Flag
	.section	.text.HBN_Get_Wakeup_Addr,"ax",@progbits
	.align	1
	.globl	HBN_Get_Wakeup_Addr
	.type	HBN_Get_Wakeup_Addr, @function
HBN_Get_Wakeup_Addr:
.LFB42:
	.loc 1 1032 1
	.cfi_startproc
	addi	sp,sp,-16
	.cfi_def_cfa_offset 16
	sw	ra,12(sp)
	sw	s0,8(sp)
	.cfi_offset 1, -4
	.cfi_offset 8, -8
	addi	s0,sp,16
	.cfi_def_cfa 8, 0
	.loc 1 1033 13
	li	a5,1073803264
	addi	a5,a5,260
	lw	a5,0(a5)
	.loc 1 1034 1
	mv	a0,a5
	lw	ra,12(sp)
	.cfi_restore 1
	lw	s0,8(sp)
	.cfi_restore 8
	.cfi_def_cfa 2, 16
	addi	sp,sp,16
	.cfi_def_cfa_offset 0
	jr	ra
	.cfi_endproc
.LFE42:
	.size	HBN_Get_Wakeup_Addr, .-HBN_Get_Wakeup_Addr
	.section	.text.HBN_Set_Wakeup_Addr,"ax",@progbits
	.align	1
	.globl	HBN_Set_Wakeup_Addr
	.type	HBN_Set_Wakeup_Addr, @function
HBN_Set_Wakeup_Addr:
.LFB43:
	.loc 1 1045 1
	.cfi_startproc
	addi	sp,sp,-32
	.cfi_def_cfa_offset 32
	sw	ra,28(sp)
	sw	s0,24(sp)
	.cfi_offset 1, -4
	.cfi_offset 8, -8
	addi	s0,sp,32
	.cfi_def_cfa 8, 0
	sw	a0,-20(s0)
	.loc 1 1046 7
	li	a5,1073803264
	addi	a5,a5,260
	.loc 1 1046 61
	lw	a4,-20(s0)
	sw	a4,0(a5)
	.loc 1 1048 12
	li	a5,0
	.loc 1 1049 1
	mv	a0,a5
	lw	ra,28(sp)
	.cfi_restore 1
	lw	s0,24(sp)
	.cfi_restore 8
	.cfi_def_cfa 2, 32
	addi	sp,sp,32
	.cfi_def_cfa_offset 0
	jr	ra
	.cfi_endproc
.LFE43:
	.size	HBN_Set_Wakeup_Addr, .-HBN_Set_Wakeup_Addr
	.section	.text.HBN_Clear_RTC_Counter,"ax",@progbits
	.align	1
	.globl	HBN_Clear_RTC_Counter
	.type	HBN_Clear_RTC_Counter, @function
HBN_Clear_RTC_Counter:
.LFB44:
	.loc 1 1060 1
	.cfi_startproc
	addi	sp,sp,-32
	.cfi_def_cfa_offset 32
	sw	ra,28(sp)
	sw	s0,24(sp)
	.cfi_offset 1, -4
	.cfi_offset 8, -8
	addi	s0,sp,32
	.cfi_def_cfa 8, 0
	.loc 1 1063 13
	li	a5,1073803264
	.loc 1 1063 11
	lw	a5,0(a5)
	sw	a5,-20(s0)
	.loc 1 1065 7
	li	a5,1073803264
	.loc 1 1065 67
	lw	a4,-20(s0)
	andi	a4,a4,-2
	.loc 1 1065 59
	sw	a4,0(a5)
	.loc 1 1067 12
	li	a5,0
	.loc 1 1068 1
	mv	a0,a5
	lw	ra,28(sp)
	.cfi_restore 1
	lw	s0,24(sp)
	.cfi_restore 8
	.cfi_def_cfa 2, 32
	addi	sp,sp,32
	.cfi_def_cfa_offset 0
	jr	ra
	.cfi_endproc
.LFE44:
	.size	HBN_Clear_RTC_Counter, .-HBN_Clear_RTC_Counter
	.section	.text.HBN_Enable_RTC_Counter,"ax",@progbits
	.align	1
	.globl	HBN_Enable_RTC_Counter
	.type	HBN_Enable_RTC_Counter, @function
HBN_Enable_RTC_Counter:
.LFB45:
	.loc 1 1079 1
	.cfi_startproc
	addi	sp,sp,-32
	.cfi_def_cfa_offset 32
	sw	ra,28(sp)
	sw	s0,24(sp)
	.cfi_offset 1, -4
	.cfi_offset 8, -8
	addi	s0,sp,32
	.cfi_def_cfa 8, 0
	.loc 1 1082 13
	li	a5,1073803264
	.loc 1 1082 11
	lw	a5,0(a5)
	sw	a5,-20(s0)
	.loc 1 1084 7
	li	a5,1073803264
	.loc 1 1084 67
	lw	a4,-20(s0)
	ori	a4,a4,1
	.loc 1 1084 59
	sw	a4,0(a5)
	.loc 1 1086 12
	li	a5,0
	.loc 1 1087 1
	mv	a0,a5
	lw	ra,28(sp)
	.cfi_restore 1
	lw	s0,24(sp)
	.cfi_restore 8
	.cfi_def_cfa 2, 32
	addi	sp,sp,32
	.cfi_def_cfa_offset 0
	jr	ra
	.cfi_endproc
.LFE45:
	.size	HBN_Enable_RTC_Counter, .-HBN_Enable_RTC_Counter
	.section	.text.HBN_Set_RTC_Timer,"ax",@progbits
	.align	1
	.globl	HBN_Set_RTC_Timer
	.type	HBN_Set_RTC_Timer, @function
HBN_Set_RTC_Timer:
.LFB46:
	.loc 1 1102 1
	.cfi_startproc
	addi	sp,sp,-48
	.cfi_def_cfa_offset 48
	sw	ra,44(sp)
	sw	s0,40(sp)
	.cfi_offset 1, -4
	.cfi_offset 8, -8
	addi	s0,sp,48
	.cfi_def_cfa 8, 0
	mv	a5,a0
	sw	a1,-40(s0)
	sw	a2,-44(s0)
	mv	a4,a3
	sb	a5,-33(s0)
	mv	a5,a4
	sb	a5,-34(s0)
	.loc 1 1108 7
	li	a5,1073803264
	addi	a5,a5,4
	.loc 1 1108 59
	lw	a4,-40(s0)
	sw	a4,0(a5)
	.loc 1 1109 7
	li	a5,1073803264
	addi	a5,a5,8
	.loc 1 1109 72
	lw	a4,-44(s0)
	andi	a4,a4,255
	.loc 1 1109 59
	sw	a4,0(a5)
	.loc 1 1111 13
	li	a5,1073803264
	.loc 1 1111 11
	lw	a5,0(a5)
	sw	a5,-20(s0)
	.loc 1 1113 23
	lw	a4,-20(s0)
	li	a5,-16777216
	addi	a5,a5,-1
	and	a4,a4,a5
	.loc 1 1113 55
	lbu	a5,-33(s0)
	.loc 1 1113 72
	slli	a5,a5,24
	.loc 1 1113 11
	or	a5,a4,a5
	sw	a5,-20(s0)
	.loc 1 1115 24
	lbu	a5,-34(s0)
	slli	a5,a5,1
	.loc 1 1115 12
	lw	a4,-20(s0)
	or	a5,a4,a5
	sw	a5,-20(s0)
	.loc 1 1116 7
	li	a5,1073803264
	.loc 1 1116 59
	lw	a4,-20(s0)
	sw	a4,0(a5)
	.loc 1 1118 12
	li	a5,0
	.loc 1 1119 1
	mv	a0,a5
	lw	ra,44(sp)
	.cfi_restore 1
	lw	s0,40(sp)
	.cfi_restore 8
	.cfi_def_cfa 2, 48
	addi	sp,sp,48
	.cfi_def_cfa_offset 0
	jr	ra
	.cfi_endproc
.LFE46:
	.size	HBN_Set_RTC_Timer, .-HBN_Set_RTC_Timer
	.section	.text.HBN_Get_RTC_Timer_Val,"ax",@progbits
	.align	1
	.globl	HBN_Get_RTC_Timer_Val
	.type	HBN_Get_RTC_Timer_Val, @function
HBN_Get_RTC_Timer_Val:
.LFB47:
	.loc 1 1131 1
	.cfi_startproc
	addi	sp,sp,-48
	.cfi_def_cfa_offset 48
	sw	ra,44(sp)
	sw	s0,40(sp)
	.cfi_offset 1, -4
	.cfi_offset 8, -8
	addi	s0,sp,48
	.cfi_def_cfa 8, 0
	sw	a0,-36(s0)
	sw	a1,-40(s0)
	.loc 1 1135 13
	li	a5,1073803264
	addi	a5,a5,16
	.loc 1 1135 11
	lw	a5,0(a5)
	sw	a5,-20(s0)
	.loc 1 1136 11
	lw	a4,-20(s0)
	li	a5,-2147483648
	or	a5,a4,a5
	sw	a5,-20(s0)
	.loc 1 1137 7
	li	a5,1073803264
	addi	a5,a5,16
	.loc 1 1137 60
	lw	a4,-20(s0)
	sw	a4,0(a5)
	.loc 1 1138 11
	lw	a4,-20(s0)
	li	a5,-2147483648
	addi	a5,a5,-1
	and	a5,a4,a5
	sw	a5,-20(s0)
	.loc 1 1139 7
	li	a5,1073803264
	addi	a5,a5,16
	.loc 1 1139 60
	lw	a4,-20(s0)
	sw	a4,0(a5)
	.loc 1 1142 14
	li	a5,1073803264
	addi	a5,a5,12
	lw	a4,0(a5)
	.loc 1 1142 12
	lw	a5,-36(s0)
	sw	a4,0(a5)
	.loc 1 1143 71
	li	a5,1073803264
	addi	a5,a5,16
	lw	a5,0(a5)
	andi	a4,a5,255
	.loc 1 1143 13
	lw	a5,-40(s0)
	sw	a4,0(a5)
	.loc 1 1145 12
	li	a5,0
	.loc 1 1146 1
	mv	a0,a5
	lw	ra,44(sp)
	.cfi_restore 1
	lw	s0,40(sp)
	.cfi_restore 8
	.cfi_def_cfa 2, 48
	addi	sp,sp,48
	.cfi_def_cfa_offset 0
	jr	ra
	.cfi_endproc
.LFE47:
	.size	HBN_Get_RTC_Timer_Val, .-HBN_Get_RTC_Timer_Val
	.section	.text.HBN_Clear_RTC_INT,"ax",@progbits
	.align	1
	.globl	HBN_Clear_RTC_INT
	.type	HBN_Clear_RTC_INT, @function
HBN_Clear_RTC_INT:
.LFB48:
	.loc 1 1157 1
	.cfi_startproc
	addi	sp,sp,-32
	.cfi_def_cfa_offset 32
	sw	ra,28(sp)
	sw	s0,24(sp)
	.cfi_offset 1, -4
	.cfi_offset 8, -8
	addi	s0,sp,32
	.cfi_def_cfa 8, 0
	.loc 1 1160 13
	li	a5,1073803264
	.loc 1 1160 11
	lw	a5,0(a5)
	sw	a5,-20(s0)
	.loc 1 1162 7
	li	a5,1073803264
	.loc 1 1162 67
	lw	a4,-20(s0)
	andi	a4,a4,-15
	.loc 1 1162 59
	sw	a4,0(a5)
	.loc 1 1164 12
	li	a5,0
	.loc 1 1165 1
	mv	a0,a5
	lw	ra,28(sp)
	.cfi_restore 1
	lw	s0,24(sp)
	.cfi_restore 8
	.cfi_def_cfa 2, 32
	addi	sp,sp,32
	.cfi_def_cfa_offset 0
	jr	ra
	.cfi_endproc
.LFE48:
	.size	HBN_Clear_RTC_INT, .-HBN_Clear_RTC_INT
	.section	.text.HBN_GPIO_INT_Enable,"ax",@progbits
	.align	1
	.globl	HBN_GPIO_INT_Enable
	.type	HBN_GPIO_INT_Enable, @function
HBN_GPIO_INT_Enable:
.LFB49:
	.loc 1 1176 1
	.cfi_startproc
	addi	sp,sp,-48
	.cfi_def_cfa_offset 48
	sw	ra,44(sp)
	sw	s0,40(sp)
	.cfi_offset 1, -4
	.cfi_offset 8, -8
	addi	s0,sp,48
	.cfi_def_cfa 8, 0
	mv	a5,a0
	sb	a5,-33(s0)
	.loc 1 1182 13
	li	a5,1073803264
	addi	a5,a5,20
	.loc 1 1182 11
	lw	a5,0(a5)
	sw	a5,-20(s0)
	.loc 1 1183 23
	lw	a5,-20(s0)
	andi	a4,a5,-8
	.loc 1 1183 81
	lbu	a5,-33(s0)
	.loc 1 1183 11
	or	a5,a4,a5
	sw	a5,-20(s0)
	.loc 1 1184 7
	li	a5,1073803264
	addi	a5,a5,20
	.loc 1 1184 60
	lw	a4,-20(s0)
	sw	a4,0(a5)
	.loc 1 1186 12
	li	a5,0
	.loc 1 1187 1
	mv	a0,a5
	lw	ra,44(sp)
	.cfi_restore 1
	lw	s0,40(sp)
	.cfi_restore 8
	.cfi_def_cfa 2, 48
	addi	sp,sp,48
	.cfi_def_cfa_offset 0
	jr	ra
	.cfi_endproc
.LFE49:
	.size	HBN_GPIO_INT_Enable, .-HBN_GPIO_INT_Enable
	.section	.text.HBN_GPIO_INT_Disable,"ax",@progbits
	.align	1
	.globl	HBN_GPIO_INT_Disable
	.type	HBN_GPIO_INT_Disable, @function
HBN_GPIO_INT_Disable:
.LFB50:
	.loc 1 1198 1
	.cfi_startproc
	addi	sp,sp,-32
	.cfi_def_cfa_offset 32
	sw	ra,28(sp)
	sw	s0,24(sp)
	.cfi_offset 1, -4
	.cfi_offset 8, -8
	addi	s0,sp,32
	.cfi_def_cfa 8, 0
	.loc 1 1201 13
	li	a5,1073803264
	addi	a5,a5,20
	.loc 1 1201 11
	lw	a5,0(a5)
	sw	a5,-20(s0)
	.loc 1 1202 11
	lw	a5,-20(s0)
	andi	a5,a5,-25
	sw	a5,-20(s0)
	.loc 1 1203 7
	li	a5,1073803264
	addi	a5,a5,20
	.loc 1 1203 60
	lw	a4,-20(s0)
	sw	a4,0(a5)
	.loc 1 1205 12
	li	a5,0
	.loc 1 1206 1
	mv	a0,a5
	lw	ra,28(sp)
	.cfi_restore 1
	lw	s0,24(sp)
	.cfi_restore 8
	.cfi_def_cfa 2, 32
	addi	sp,sp,32
	.cfi_def_cfa_offset 0
	jr	ra
	.cfi_endproc
.LFE50:
	.size	HBN_GPIO_INT_Disable, .-HBN_GPIO_INT_Disable
	.section	.text.HBN_Get_INT_State,"ax",@progbits
	.align	1
	.globl	HBN_Get_INT_State
	.type	HBN_Get_INT_State, @function
HBN_Get_INT_State:
.LFB51:
	.loc 1 1217 1
	.cfi_startproc
	addi	sp,sp,-48
	.cfi_def_cfa_offset 48
	sw	ra,44(sp)
	sw	s0,40(sp)
	.cfi_offset 1, -4
	.cfi_offset 8, -8
	addi	s0,sp,48
	.cfi_def_cfa 8, 0
	mv	a5,a0
	sb	a5,-33(s0)
	.loc 1 1222 13
	li	a5,1073803264
	addi	a5,a5,24
	.loc 1 1222 11
	lw	a5,0(a5)
	sw	a5,-20(s0)
	.loc 1 1224 17
	lbu	a5,-33(s0)
	li	a4,1
	sll	a5,a4,a5
	mv	a4,a5
	.loc 1 1224 14
	lw	a5,-20(s0)
	and	a5,a4,a5
	.loc 1 1224 7
	beq	a5,zero,.L118
	.loc 1 1225 16
	li	a5,1
	j	.L119
.L118:
	.loc 1 1227 16
	li	a5,0
.L119:
	.loc 1 1229 1
	mv	a0,a5
	lw	ra,44(sp)
	.cfi_restore 1
	lw	s0,40(sp)
	.cfi_restore 8
	.cfi_def_cfa 2, 48
	addi	sp,sp,48
	.cfi_def_cfa_offset 0
	jr	ra
	.cfi_endproc
.LFE51:
	.size	HBN_Get_INT_State, .-HBN_Get_INT_State
	.section	.text.HBN_Get_Pin_Wakeup_Mode,"ax",@progbits
	.align	1
	.globl	HBN_Get_Pin_Wakeup_Mode
	.type	HBN_Get_Pin_Wakeup_Mode, @function
HBN_Get_Pin_Wakeup_Mode:
.LFB52:
	.loc 1 1240 1
	.cfi_startproc
	addi	sp,sp,-16
	.cfi_def_cfa_offset 16
	sw	ra,12(sp)
	sw	s0,8(sp)
	.cfi_offset 1, -4
	.cfi_offset 8, -8
	addi	s0,sp,16
	.cfi_def_cfa 8, 0
	.loc 1 1241 17
	li	a5,1073803264
	addi	a5,a5,20
	lw	a5,0(a5)
	.loc 1 1241 100
	andi	a5,a5,0xff
	andi	a5,a5,7
	andi	a5,a5,0xff
	.loc 1 1242 1
	mv	a0,a5
	lw	ra,12(sp)
	.cfi_restore 1
	lw	s0,8(sp)
	.cfi_restore 8
	.cfi_def_cfa 2, 16
	addi	sp,sp,16
	.cfi_def_cfa_offset 0
	jr	ra
	.cfi_endproc
.LFE52:
	.size	HBN_Get_Pin_Wakeup_Mode, .-HBN_Get_Pin_Wakeup_Mode
	.section	.text.HBN_Clear_IRQ,"ax",@progbits
	.align	1
	.globl	HBN_Clear_IRQ
	.type	HBN_Clear_IRQ, @function
HBN_Clear_IRQ:
.LFB53:
	.loc 1 1253 1
	.cfi_startproc
	addi	sp,sp,-48
	.cfi_def_cfa_offset 48
	sw	ra,44(sp)
	sw	s0,40(sp)
	.cfi_offset 1, -4
	.cfi_offset 8, -8
	addi	s0,sp,48
	.cfi_def_cfa 8, 0
	mv	a5,a0
	sb	a5,-33(s0)
	.loc 1 1259 13
	li	a5,1073803264
	addi	a5,a5,28
	.loc 1 1259 11
	lw	a5,0(a5)
	sw	a5,-20(s0)
	.loc 1 1260 17
	lbu	a5,-33(s0)
	li	a4,1
	sll	a5,a4,a5
	mv	a4,a5
	.loc 1 1260 12
	lw	a5,-20(s0)
	or	a5,a5,a4
	sw	a5,-20(s0)
	.loc 1 1261 7
	li	a5,1073803264
	addi	a5,a5,28
	.loc 1 1261 60
	lw	a4,-20(s0)
	sw	a4,0(a5)
	.loc 1 1264 13
	li	a5,1073803264
	addi	a5,a5,28
	.loc 1 1264 11
	lw	a5,0(a5)
	sw	a5,-20(s0)
	.loc 1 1265 19
	lbu	a5,-33(s0)
	li	a4,1
	sll	a5,a4,a5
	.loc 1 1265 16
	not	a5,a5
	mv	a4,a5
	.loc 1 1265 12
	lw	a5,-20(s0)
	and	a5,a5,a4
	sw	a5,-20(s0)
	.loc 1 1266 7
	li	a5,1073803264
	addi	a5,a5,28
	.loc 1 1266 60
	lw	a4,-20(s0)
	sw	a4,0(a5)
	.loc 1 1268 12
	li	a5,0
	.loc 1 1269 1
	mv	a0,a5
	lw	ra,44(sp)
	.cfi_restore 1
	lw	s0,40(sp)
	.cfi_restore 8
	.cfi_def_cfa 2, 48
	addi	sp,sp,48
	.cfi_def_cfa_offset 0
	jr	ra
	.cfi_endproc
.LFE53:
	.size	HBN_Clear_IRQ, .-HBN_Clear_IRQ
	.section	.tcm_code
	.align	1
	.weak	HBN_Hw_Pu_Pd_Cfg
	.type	HBN_Hw_Pu_Pd_Cfg, @function
HBN_Hw_Pu_Pd_Cfg:
.LFB54:
	.loc 1 1282 1
	.cfi_startproc
	addi	sp,sp,-48
	.cfi_def_cfa_offset 48
	sw	ra,44(sp)
	sw	s0,40(sp)
	.cfi_offset 1, -4
	.cfi_offset 8, -8
	addi	s0,sp,48
	.cfi_def_cfa 8, 0
	mv	a5,a0
	sb	a5,-33(s0)
	.loc 1 1285 13
	li	a5,1073803264
	addi	a5,a5,20
	.loc 1 1285 11
	lw	a5,0(a5)
	sw	a5,-20(s0)
	.loc 1 1286 7
	lbu	a5,-33(s0)
	beq	a5,zero,.L125
	.loc 1 1287 15
	lw	a4,-20(s0)
	li	a5,65536
	or	a5,a4,a5
	sw	a5,-20(s0)
	j	.L126
.L125:
	.loc 1 1289 15
	lw	a4,-20(s0)
	li	a5,-65536
	addi	a5,a5,-1
	and	a5,a4,a5
	sw	a5,-20(s0)
.L126:
	.loc 1 1291 7
	li	a5,1073803264
	addi	a5,a5,20
	.loc 1 1291 60
	lw	a4,-20(s0)
	sw	a4,0(a5)
	.loc 1 1293 12
	li	a5,0
	.loc 1 1294 1
	mv	a0,a5
	lw	ra,44(sp)
	.cfi_restore 1
	lw	s0,40(sp)
	.cfi_restore 8
	.cfi_def_cfa 2, 48
	addi	sp,sp,48
	.cfi_def_cfa_offset 0
	jr	ra
	.cfi_endproc
.LFE54:
	.size	HBN_Hw_Pu_Pd_Cfg, .-HBN_Hw_Pu_Pd_Cfg
	.section	.text.HBN_Aon_Pad_IeSmt_Cfg,"ax",@progbits
	.align	1
	.globl	HBN_Aon_Pad_IeSmt_Cfg
	.type	HBN_Aon_Pad_IeSmt_Cfg, @function
HBN_Aon_Pad_IeSmt_Cfg:
.LFB55:
	.loc 1 1306 1
	.cfi_startproc
	addi	sp,sp,-48
	.cfi_def_cfa_offset 48
	sw	ra,44(sp)
	sw	s0,40(sp)
	.cfi_offset 1, -4
	.cfi_offset 8, -8
	addi	s0,sp,48
	.cfi_def_cfa 8, 0
	mv	a5,a0
	sb	a5,-33(s0)
	.loc 1 1309 13
	li	a5,1073803264
	addi	a5,a5,20
	.loc 1 1309 11
	lw	a5,0(a5)
	sw	a5,-20(s0)
	.loc 1 1310 23
	lw	a5,-20(s0)
	andi	a4,a5,-257
	.loc 1 1310 54
	lbu	a5,-33(s0)
	.loc 1 1310 72
	slli	a5,a5,8
	.loc 1 1310 11
	or	a5,a4,a5
	sw	a5,-20(s0)
	.loc 1 1311 7
	li	a5,1073803264
	addi	a5,a5,20
	.loc 1 1311 60
	lw	a4,-20(s0)
	sw	a4,0(a5)
	.loc 1 1313 12
	li	a5,0
	.loc 1 1314 1
	mv	a0,a5
	lw	ra,44(sp)
	.cfi_restore 1
	lw	s0,40(sp)
	.cfi_restore 8
	.cfi_def_cfa 2, 48
	addi	sp,sp,48
	.cfi_def_cfa_offset 0
	jr	ra
	.cfi_endproc
.LFE55:
	.size	HBN_Aon_Pad_IeSmt_Cfg, .-HBN_Aon_Pad_IeSmt_Cfg
	.section	.tcm_code
	.align	1
	.weak	HBN_Pin_WakeUp_Mask
	.type	HBN_Pin_WakeUp_Mask, @function
HBN_Pin_WakeUp_Mask:
.LFB56:
	.loc 1 1327 1
	.cfi_startproc
	addi	sp,sp,-48
	.cfi_def_cfa_offset 48
	sw	ra,44(sp)
	sw	s0,40(sp)
	.cfi_offset 1, -4
	.cfi_offset 8, -8
	addi	s0,sp,48
	.cfi_def_cfa 8, 0
	mv	a5,a0
	sb	a5,-33(s0)
	.loc 1 1330 13
	li	a5,1073803264
	addi	a5,a5,20
	.loc 1 1330 11
	lw	a5,0(a5)
	sw	a5,-20(s0)
	.loc 1 1331 23
	lw	a5,-20(s0)
	andi	a4,a5,-25
	.loc 1 1331 54
	lbu	a5,-33(s0)
	.loc 1 1331 73
	slli	a5,a5,3
	.loc 1 1331 11
	or	a5,a4,a5
	sw	a5,-20(s0)
	.loc 1 1332 7
	li	a5,1073803264
	addi	a5,a5,20
	.loc 1 1332 60
	lw	a4,-20(s0)
	sw	a4,0(a5)
	.loc 1 1334 12
	li	a5,0
	.loc 1 1335 1
	mv	a0,a5
	lw	ra,44(sp)
	.cfi_restore 1
	lw	s0,40(sp)
	.cfi_restore 8
	.cfi_def_cfa 2, 48
	addi	sp,sp,48
	.cfi_def_cfa_offset 0
	jr	ra
	.cfi_endproc
.LFE56:
	.size	HBN_Pin_WakeUp_Mask, .-HBN_Pin_WakeUp_Mask
	.section	.text.HBN_Enable_AComp0_IRQ,"ax",@progbits
	.align	1
	.globl	HBN_Enable_AComp0_IRQ
	.type	HBN_Enable_AComp0_IRQ, @function
HBN_Enable_AComp0_IRQ:
.LFB57:
	.loc 1 1347 1
	.cfi_startproc
	addi	sp,sp,-32
	.cfi_def_cfa_offset 32
	sw	ra,28(sp)
	sw	s0,24(sp)
	.cfi_offset 1, -4
	.cfi_offset 8, -8
	addi	s0,sp,32
	.cfi_def_cfa 8, 0
	.loc 1 1350 13
	li	a5,1073803264
	addi	a5,a5,20
	.loc 1 1350 11
	lw	a5,0(a5)
	sw	a5,-20(s0)
	.loc 1 1351 11
	lw	a4,-20(s0)
	li	a5,1048576
	or	a5,a4,a5
	sw	a5,-20(s0)
	.loc 1 1352 7
	li	a5,1073803264
	addi	a5,a5,20
	.loc 1 1352 60
	lw	a4,-20(s0)
	sw	a4,0(a5)
	.loc 1 1354 12
	li	a5,0
	.loc 1 1355 1
	mv	a0,a5
	lw	ra,28(sp)
	.cfi_restore 1
	lw	s0,24(sp)
	.cfi_restore 8
	.cfi_def_cfa 2, 32
	addi	sp,sp,32
	.cfi_def_cfa_offset 0
	jr	ra
	.cfi_endproc
.LFE57:
	.size	HBN_Enable_AComp0_IRQ, .-HBN_Enable_AComp0_IRQ
	.section	.text.HBN_Disable_AComp0_IRQ,"ax",@progbits
	.align	1
	.globl	HBN_Disable_AComp0_IRQ
	.type	HBN_Disable_AComp0_IRQ, @function
HBN_Disable_AComp0_IRQ:
.LFB58:
	.loc 1 1366 1
	.cfi_startproc
	addi	sp,sp,-32
	.cfi_def_cfa_offset 32
	sw	ra,28(sp)
	sw	s0,24(sp)
	.cfi_offset 1, -4
	.cfi_offset 8, -8
	addi	s0,sp,32
	.cfi_def_cfa 8, 0
	.loc 1 1369 13
	li	a5,1073803264
	addi	a5,a5,20
	.loc 1 1369 11
	lw	a5,0(a5)
	sw	a5,-20(s0)
	.loc 1 1370 11
	lw	a4,-20(s0)
	li	a5,-3145728
	addi	a5,a5,-1
	and	a5,a4,a5
	sw	a5,-20(s0)
	.loc 1 1371 7
	li	a5,1073803264
	addi	a5,a5,20
	.loc 1 1371 60
	lw	a4,-20(s0)
	sw	a4,0(a5)
	.loc 1 1373 12
	li	a5,0
	.loc 1 1374 1
	mv	a0,a5
	lw	ra,28(sp)
	.cfi_restore 1
	lw	s0,24(sp)
	.cfi_restore 8
	.cfi_def_cfa 2, 32
	addi	sp,sp,32
	.cfi_def_cfa_offset 0
	jr	ra
	.cfi_endproc
.LFE58:
	.size	HBN_Disable_AComp0_IRQ, .-HBN_Disable_AComp0_IRQ
	.section	.text.HBN_Enable_AComp1_IRQ,"ax",@progbits
	.align	1
	.globl	HBN_Enable_AComp1_IRQ
	.type	HBN_Enable_AComp1_IRQ, @function
HBN_Enable_AComp1_IRQ:
.LFB59:
	.loc 1 1385 1
	.cfi_startproc
	addi	sp,sp,-32
	.cfi_def_cfa_offset 32
	sw	ra,28(sp)
	sw	s0,24(sp)
	.cfi_offset 1, -4
	.cfi_offset 8, -8
	addi	s0,sp,32
	.cfi_def_cfa 8, 0
	.loc 1 1388 13
	li	a5,1073803264
	addi	a5,a5,20
	.loc 1 1388 11
	lw	a5,0(a5)
	sw	a5,-20(s0)
	.loc 1 1389 11
	lw	a4,-20(s0)
	li	a5,4194304
	or	a5,a4,a5
	sw	a5,-20(s0)
	.loc 1 1390 7
	li	a5,1073803264
	addi	a5,a5,20
	.loc 1 1390 60
	lw	a4,-20(s0)
	sw	a4,0(a5)
	.loc 1 1392 12
	li	a5,0
	.loc 1 1393 1
	mv	a0,a5
	lw	ra,28(sp)
	.cfi_restore 1
	lw	s0,24(sp)
	.cfi_restore 8
	.cfi_def_cfa 2, 32
	addi	sp,sp,32
	.cfi_def_cfa_offset 0
	jr	ra
	.cfi_endproc
.LFE59:
	.size	HBN_Enable_AComp1_IRQ, .-HBN_Enable_AComp1_IRQ
	.section	.text.HBN_Disable_AComp1_IRQ,"ax",@progbits
	.align	1
	.globl	HBN_Disable_AComp1_IRQ
	.type	HBN_Disable_AComp1_IRQ, @function
HBN_Disable_AComp1_IRQ:
.LFB60:
	.loc 1 1404 1
	.cfi_startproc
	addi	sp,sp,-32
	.cfi_def_cfa_offset 32
	sw	ra,28(sp)
	sw	s0,24(sp)
	.cfi_offset 1, -4
	.cfi_offset 8, -8
	addi	s0,sp,32
	.cfi_def_cfa 8, 0
	.loc 1 1407 13
	li	a5,1073803264
	addi	a5,a5,20
	.loc 1 1407 11
	lw	a5,0(a5)
	sw	a5,-20(s0)
	.loc 1 1408 11
	lw	a4,-20(s0)
	li	a5,-12582912
	addi	a5,a5,-1
	and	a5,a4,a5
	sw	a5,-20(s0)
	.loc 1 1409 7
	li	a5,1073803264
	addi	a5,a5,20
	.loc 1 1409 60
	lw	a4,-20(s0)
	sw	a4,0(a5)
	.loc 1 1411 12
	li	a5,0
	.loc 1 1412 1
	mv	a0,a5
	lw	ra,28(sp)
	.cfi_restore 1
	lw	s0,24(sp)
	.cfi_restore 8
	.cfi_def_cfa 2, 32
	addi	sp,sp,32
	.cfi_def_cfa_offset 0
	jr	ra
	.cfi_endproc
.LFE60:
	.size	HBN_Disable_AComp1_IRQ, .-HBN_Disable_AComp1_IRQ
	.section	.text.HBN_Enable_BOR_IRQ,"ax",@progbits
	.align	1
	.globl	HBN_Enable_BOR_IRQ
	.type	HBN_Enable_BOR_IRQ, @function
HBN_Enable_BOR_IRQ:
.LFB61:
	.loc 1 1423 1
	.cfi_startproc
	addi	sp,sp,-32
	.cfi_def_cfa_offset 32
	sw	ra,28(sp)
	sw	s0,24(sp)
	.cfi_offset 1, -4
	.cfi_offset 8, -8
	addi	s0,sp,32
	.cfi_def_cfa 8, 0
	.loc 1 1426 13
	li	a5,1073803264
	addi	a5,a5,20
	.loc 1 1426 11
	lw	a5,0(a5)
	sw	a5,-20(s0)
	.loc 1 1427 11
	lw	a4,-20(s0)
	li	a5,262144
	or	a5,a4,a5
	sw	a5,-20(s0)
	.loc 1 1428 7
	li	a5,1073803264
	addi	a5,a5,20
	.loc 1 1428 60
	lw	a4,-20(s0)
	sw	a4,0(a5)
	.loc 1 1430 12
	li	a5,0
	.loc 1 1431 1
	mv	a0,a5
	lw	ra,28(sp)
	.cfi_restore 1
	lw	s0,24(sp)
	.cfi_restore 8
	.cfi_def_cfa 2, 32
	addi	sp,sp,32
	.cfi_def_cfa_offset 0
	jr	ra
	.cfi_endproc
.LFE61:
	.size	HBN_Enable_BOR_IRQ, .-HBN_Enable_BOR_IRQ
	.section	.text.HBN_Disable_BOR_IRQ,"ax",@progbits
	.align	1
	.globl	HBN_Disable_BOR_IRQ
	.type	HBN_Disable_BOR_IRQ, @function
HBN_Disable_BOR_IRQ:
.LFB62:
	.loc 1 1442 1
	.cfi_startproc
	addi	sp,sp,-32
	.cfi_def_cfa_offset 32
	sw	ra,28(sp)
	sw	s0,24(sp)
	.cfi_offset 1, -4
	.cfi_offset 8, -8
	addi	s0,sp,32
	.cfi_def_cfa 8, 0
	.loc 1 1445 13
	li	a5,1073803264
	addi	a5,a5,20
	.loc 1 1445 11
	lw	a5,0(a5)
	sw	a5,-20(s0)
	.loc 1 1446 11
	lw	a4,-20(s0)
	li	a5,-262144
	addi	a5,a5,-1
	and	a5,a4,a5
	sw	a5,-20(s0)
	.loc 1 1447 7
	li	a5,1073803264
	addi	a5,a5,20
	.loc 1 1447 60
	lw	a4,-20(s0)
	sw	a4,0(a5)
	.loc 1 1449 12
	li	a5,0
	.loc 1 1450 1
	mv	a0,a5
	lw	ra,28(sp)
	.cfi_restore 1
	lw	s0,24(sp)
	.cfi_restore 8
	.cfi_def_cfa 2, 32
	addi	sp,sp,32
	.cfi_def_cfa_offset 0
	jr	ra
	.cfi_endproc
.LFE62:
	.size	HBN_Disable_BOR_IRQ, .-HBN_Disable_BOR_IRQ
	.section	.text.HBN_Out0_Callback_Install,"ax",@progbits
	.align	1
	.globl	HBN_Out0_Callback_Install
	.type	HBN_Out0_Callback_Install, @function
HBN_Out0_Callback_Install:
.LFB63:
	.loc 1 1462 1
	.cfi_startproc
	addi	sp,sp,-32
	.cfi_def_cfa_offset 32
	sw	ra,28(sp)
	sw	s0,24(sp)
	.cfi_offset 1, -4
	.cfi_offset 8, -8
	addi	s0,sp,32
	.cfi_def_cfa 8, 0
	mv	a5,a0
	sw	a1,-24(s0)
	sb	a5,-17(s0)
	.loc 1 1466 19
	lbu	a5,-17(s0)
	.loc 1 1466 29
	lui	a4,%hi(hbnInt0CbfArra)
	addi	a4,a4,%lo(hbnInt0CbfArra)
	slli	a5,a5,2
	add	a5,a4,a5
	lw	a4,-24(s0)
	sw	a4,0(a5)
	.loc 1 1468 12
	li	a5,0
	.loc 1 1469 1
	mv	a0,a5
	lw	ra,28(sp)
	.cfi_restore 1
	lw	s0,24(sp)
	.cfi_restore 8
	.cfi_def_cfa 2, 32
	addi	sp,sp,32
	.cfi_def_cfa_offset 0
	jr	ra
	.cfi_endproc
.LFE63:
	.size	HBN_Out0_Callback_Install, .-HBN_Out0_Callback_Install
	.section	.text.HBN_Out1_Callback_Install,"ax",@progbits
	.align	1
	.globl	HBN_Out1_Callback_Install
	.type	HBN_Out1_Callback_Install, @function
HBN_Out1_Callback_Install:
.LFB64:
	.loc 1 1481 1
	.cfi_startproc
	addi	sp,sp,-32
	.cfi_def_cfa_offset 32
	sw	ra,28(sp)
	sw	s0,24(sp)
	.cfi_offset 1, -4
	.cfi_offset 8, -8
	addi	s0,sp,32
	.cfi_def_cfa 8, 0
	mv	a5,a0
	sw	a1,-24(s0)
	sb	a5,-17(s0)
	.loc 1 1485 19
	lbu	a5,-17(s0)
	.loc 1 1485 29
	lui	a4,%hi(hbnInt1CbfArra)
	addi	a4,a4,%lo(hbnInt1CbfArra)
	slli	a5,a5,2
	add	a5,a4,a5
	lw	a4,-24(s0)
	sw	a4,0(a5)
	.loc 1 1487 12
	li	a5,0
	.loc 1 1488 1
	mv	a0,a5
	lw	ra,28(sp)
	.cfi_restore 1
	lw	s0,24(sp)
	.cfi_restore 8
	.cfi_def_cfa 2, 32
	addi	sp,sp,32
	.cfi_def_cfa_offset 0
	jr	ra
	.cfi_endproc
.LFE64:
	.size	HBN_Out1_Callback_Install, .-HBN_Out1_Callback_Install
	.section	.tcm_code
	.align	1
	.weak	HBN_GPIO7_Dbg_Pull_Cfg
	.type	HBN_GPIO7_Dbg_Pull_Cfg, @function
HBN_GPIO7_Dbg_Pull_Cfg:
.LFB65:
	.loc 1 1504 1
	.cfi_startproc
	addi	sp,sp,-48
	.cfi_def_cfa_offset 48
	sw	ra,44(sp)
	sw	s0,40(sp)
	.cfi_offset 1, -4
	.cfi_offset 8, -8
	addi	s0,sp,48
	.cfi_def_cfa 8, 0
	mv	a5,a0
	mv	a4,a3
	sb	a5,-33(s0)
	mv	a5,a1
	sb	a5,-34(s0)
	mv	a5,a2
	sb	a5,-35(s0)
	mv	a5,a4
	sb	a5,-36(s0)
	.loc 1 1509 13
	li	a5,1073803264
	addi	a5,a5,20
	.loc 1 1509 11
	lw	a5,0(a5)
	sw	a5,-20(s0)
	.loc 1 1510 23
	lw	a4,-20(s0)
	li	a5,-134217728
	addi	a5,a5,-1
	and	a4,a4,a5
	.loc 1 1510 55
	lbu	a5,-35(s0)
	.loc 1 1510 72
	slli	a5,a5,27
	.loc 1 1510 11
	or	a5,a4,a5
	sw	a5,-20(s0)
	.loc 1 1511 23
	lw	a4,-20(s0)
	li	a5,-117440512
	addi	a5,a5,-1
	and	a4,a4,a5
	.loc 1 1511 55
	lbu	a5,-36(s0)
	.loc 1 1511 73
	slli	a5,a5,24
	.loc 1 1511 11
	or	a5,a4,a5
	sw	a5,-20(s0)
	.loc 1 1512 23
	lw	a4,-20(s0)
	li	a5,-65536
	addi	a5,a5,-1
	and	a4,a4,a5
	.loc 1 1512 55
	lbu	a5,-33(s0)
	.loc 1 1512 73
	slli	a5,a5,16
	.loc 1 1512 11
	or	a5,a4,a5
	sw	a5,-20(s0)
	.loc 1 1513 23
	lw	a5,-20(s0)
	andi	a4,a5,-257
	.loc 1 1513 54
	lbu	a5,-34(s0)
	.loc 1 1513 73
	slli	a5,a5,8
	.loc 1 1513 11
	or	a5,a4,a5
	sw	a5,-20(s0)
	.loc 1 1514 7
	li	a5,1073803264
	addi	a5,a5,20
	.loc 1 1514 60
	lw	a4,-20(s0)
	sw	a4,0(a5)
	.loc 1 1516 12
	li	a5,0
	.loc 1 1517 1
	mv	a0,a5
	lw	ra,44(sp)
	.cfi_restore 1
	lw	s0,40(sp)
	.cfi_restore 8
	.cfi_def_cfa 2, 48
	addi	sp,sp,48
	.cfi_def_cfa_offset 0
	jr	ra
	.cfi_endproc
.LFE65:
	.size	HBN_GPIO7_Dbg_Pull_Cfg, .-HBN_GPIO7_Dbg_Pull_Cfg
	.align	1
	.weak	HBN_Set_Embedded_Flash_Pullup
	.type	HBN_Set_Embedded_Flash_Pullup, @function
HBN_Set_Embedded_Flash_Pullup:
.LFB66:
	.loc 1 1531 1
	.cfi_startproc
	addi	sp,sp,-48
	.cfi_def_cfa_offset 48
	sw	ra,44(sp)
	sw	s0,40(sp)
	.cfi_offset 1, -4
	.cfi_offset 8, -8
	addi	s0,sp,48
	.cfi_def_cfa 8, 0
	mv	a5,a0
	sb	a5,-33(s0)
	.loc 1 1532 14
	sw	zero,-20(s0)
	.loc 1 1534 13
	li	a5,1073803264
	addi	a5,a5,268
	.loc 1 1534 11
	lw	a5,0(a5)
	sw	a5,-20(s0)
	.loc 1 1536 13
	lbu	a5,-33(s0)
	seqz	a5,a5
	andi	a5,a5,0xff
	.loc 1 1536 11
	sb	a5,-33(s0)
	.loc 1 1537 20
	lw	a5,-20(s0)
	andi	a4,a5,-2
	.loc 1 1537 40
	lbu	a5,-33(s0)
	andi	a5,a5,1
	.loc 1 1537 11
	or	a5,a4,a5
	sw	a5,-20(s0)
	.loc 1 1539 7
	li	a5,1073803264
	addi	a5,a5,268
	.loc 1 1539 61
	lw	a4,-20(s0)
	sw	a4,0(a5)
	.loc 1 1541 12
	li	a5,0
	.loc 1 1542 1
	mv	a0,a5
	lw	ra,44(sp)
	.cfi_restore 1
	lw	s0,40(sp)
	.cfi_restore 8
	.cfi_def_cfa 2, 48
	addi	sp,sp,48
	.cfi_def_cfa_offset 0
	jr	ra
	.cfi_endproc
.LFE66:
	.size	HBN_Set_Embedded_Flash_Pullup, .-HBN_Set_Embedded_Flash_Pullup
	.section	.text.HBN_Set_BOR_Cfg,"ax",@progbits
	.align	1
	.globl	HBN_Set_BOR_Cfg
	.type	HBN_Set_BOR_Cfg, @function
HBN_Set_BOR_Cfg:
.LFB67:
	.loc 1 1554 1
	.cfi_startproc
	addi	sp,sp,-48
	.cfi_def_cfa_offset 48
	sw	ra,44(sp)
	sw	s0,40(sp)
	.cfi_offset 1, -4
	.cfi_offset 8, -8
	addi	s0,sp,48
	.cfi_def_cfa 8, 0
	sw	a0,-36(s0)
	.loc 1 1555 14
	sw	zero,-20(s0)
	.loc 1 1557 11
	lw	a5,-36(s0)
	lbu	a5,1(a5)
	.loc 1 1557 7
	beq	a5,zero,.L153
	.loc 1 1558 9
	call	HBN_Enable_BOR_IRQ
	j	.L154
.L153:
	.loc 1 1560 9
	call	HBN_Disable_BOR_IRQ
.L154:
	.loc 1 1563 13
	li	a5,1073803264
	addi	a5,a5,44
	.loc 1 1563 11
	lw	a5,0(a5)
	sw	a5,-20(s0)
	.loc 1 1565 23
	lw	a5,-20(s0)
	andi	a4,a5,-3
	.loc 1 1565 68
	lw	a5,-36(s0)
	lbu	a5,2(a5)
	.loc 1 1565 83
	slli	a5,a5,1
	.loc 1 1565 11
	or	a5,a4,a5
	sw	a5,-20(s0)
	.loc 1 1566 11
	lw	a5,-36(s0)
	lbu	a5,3(a5)
	.loc 1 1566 7
	beq	a5,zero,.L155
	.loc 1 1567 15
	lw	a5,-20(s0)
	ori	a5,a5,1
	sw	a5,-20(s0)
	j	.L156
.L155:
	.loc 1 1569 15
	lw	a5,-20(s0)
	andi	a5,a5,-2
	sw	a5,-20(s0)
.L156:
	.loc 1 1572 11
	lw	a5,-36(s0)
	lbu	a5,0(a5)
	.loc 1 1572 7
	beq	a5,zero,.L157
	.loc 1 1573 15
	lw	a5,-20(s0)
	ori	a5,a5,4
	sw	a5,-20(s0)
	j	.L158
.L157:
	.loc 1 1575 15
	lw	a5,-20(s0)
	andi	a5,a5,-5
	sw	a5,-20(s0)
.L158:
	.loc 1 1578 7
	li	a5,1073803264
	addi	a5,a5,44
	.loc 1 1578 60
	lw	a4,-20(s0)
	sw	a4,0(a5)
	.loc 1 1580 12
	li	a5,0
	.loc 1 1581 1
	mv	a0,a5
	lw	ra,44(sp)
	.cfi_restore 1
	lw	s0,40(sp)
	.cfi_restore 8
	.cfi_def_cfa 2, 48
	addi	sp,sp,48
	.cfi_def_cfa_offset 0
	jr	ra
	.cfi_endproc
.LFE67:
	.size	HBN_Set_BOR_Cfg, .-HBN_Set_BOR_Cfg
	.text
.Letext0:
	.file 2 "/home/chandu/sdk/bl602_iot_sdk/toolchain/compiler/lib/gcc/riscv32-unknown-elf/15.1.0/include/stdint-gcc.h"
	.file 3 "/home/chandu/sdk/bl602_iot_sdk/components/bl602/bl602_std/bl602_std/StdDriver/Inc/bl602_common.h"
	.file 4 "/home/chandu/sdk/bl602_iot_sdk/components/bl602/bl602_std/bl602_std/StdDriver/Inc/bl602_ef_ctrl.h"
	.file 5 "/home/chandu/sdk/bl602_iot_sdk/components/bl602/bl602_std/bl602_std/StdDriver/Inc/bl602_sf_ctrl.h"
	.file 6 "/home/chandu/sdk/bl602_iot_sdk/components/bl602/bl602_std/bl602_std/StdDriver/Inc/bl602_sflash.h"
	.file 7 "/home/chandu/sdk/bl602_iot_sdk/components/bl602/bl602_std/bl602_std/StdDriver/Inc/bl602_hbn.h"
	.file 8 "/home/chandu/sdk/bl602_iot_sdk/components/bl602/bl602_std/bl602_std/StdDriver/Inc/bl602_glb.h"
	.file 9 "/home/chandu/sdk/bl602_iot_sdk/components/bl602/bl602_std/bl602_std/StdDriver/Inc/bl602_xip_sflash.h"
	.section	.note.GNU-stack,"",@progbits
