	.file	"bl602_mfg_flash.c"
	.option nopic
	.attribute arch, "rv32i2p1_m2p0_f2p2_c2p0_zicsr2p0_zmmul1p0_zca1p0_zcf1p0"
	.attribute unaligned_access, 0
	.attribute stack_align, 16
	.text
.Ltext0:
	.cfi_sections	.debug_frame
	.file 0 "/home/chandu/sdk/bl602_iot_sdk/customer_app/suas_app_pqkem_gateway/build_out/bl602_std" "/home/chandu/sdk/bl602_iot_sdk/components/bl602/bl602_std/bl602_std/StdDriver/Src/bl602_mfg_flash.c"
	.section	.bss.rf_para,"aw",@nobits
	.align	2
	.type	rf_para, @object
	.size	rf_para, 24
rf_para:
	.zero	24
	.section	.sbss.rf_para_addr,"aw",@nobits
	.align	2
	.type	rf_para_addr, @object
	.size	rf_para_addr, 4
rf_para_addr:
	.zero	4
	.section	.sbss.pFlashCfg,"aw",@nobits
	.align	2
	.type	pFlashCfg, @object
	.size	pFlashCfg, 4
pFlashCfg:
	.zero	4
	.globl	ptTableStuff
	.section	.bss.ptTableStuff,"aw",@nobits
	.align	2
	.type	ptTableStuff, @object
	.size	ptTableStuff, 1192
ptTableStuff:
	.zero	1192
	.globl	ptEntry
	.section	.bss.ptEntry,"aw",@nobits
	.align	2
	.type	ptEntry, @object
	.size	ptEntry, 36
ptEntry:
	.zero	36
	.section	.text.main,"ax",@progbits
	.align	1
	.globl	main
	.type	main, @function
main:
.LFB8:
	.file 1 "/home/chandu/sdk/bl602_iot_sdk/components/bl602/bl602_std/bl602_std/StdDriver/Src/bl602_mfg_flash.c"
	.loc 1 26 1
	.cfi_startproc
	addi	sp,sp,-16
	.cfi_def_cfa_offset 16
	sw	ra,12(sp)
	sw	s0,8(sp)
	.cfi_offset 1, -4
	.cfi_offset 8, -8
	addi	s0,sp,16
	.cfi_def_cfa 8, 0
	.loc 1 28 1
	nop
	lw	ra,12(sp)
	.cfi_restore 1
	lw	s0,8(sp)
	.cfi_restore 8
	.cfi_def_cfa 2, 16
	addi	sp,sp,16
	.cfi_def_cfa_offset 0
	jr	ra
	.cfi_endproc
.LFE8:
	.size	main, .-main
	.section	.text.PtTable_Flash_Read,"ax",@progbits
	.align	1
	.type	PtTable_Flash_Read, @function
PtTable_Flash_Read:
.LFB9:
	.loc 1 31 1
	.cfi_startproc
	addi	sp,sp,-32
	.cfi_def_cfa_offset 32
	sw	ra,28(sp)
	sw	s0,24(sp)
	.cfi_offset 1, -4
	.cfi_offset 8, -8
	addi	s0,sp,32
	.cfi_def_cfa 8, 0
	sw	a0,-20(s0)
	sw	a1,-24(s0)
	sw	a2,-28(s0)
	.loc 1 32 5
	lui	a5,%hi(pFlashCfg)
	lw	a5,%lo(pFlashCfg)(a5)
	lw	a3,-28(s0)
	lw	a2,-24(s0)
	lw	a1,-20(s0)
	mv	a0,a5
	call	XIP_SFlash_Read_Need_Lock
	.loc 1 33 12
	li	a5,0
	.loc 1 34 1
	mv	a0,a5
	lw	ra,28(sp)
	.cfi_restore 1
	lw	s0,24(sp)
	.cfi_restore 8
	.cfi_def_cfa 2, 32
	addi	sp,sp,32
	.cfi_def_cfa_offset 0
	jr	ra
	.cfi_endproc
.LFE9:
	.size	PtTable_Flash_Read, .-PtTable_Flash_Read
	.section	.rodata
	.align	2
.LC0:
	.string	"No valid PT\r\n"
	.align	2
.LC1:
	.string	"rf_para"
	.align	2
.LC2:
	.string	"RF para flash address=%08x\r\n"
	.align	2
.LC3:
	.string	"Not found rf_para\r\n"
	.section	.text.mfg_flash_init,"ax",@progbits
	.align	1
	.globl	mfg_flash_init
	.type	mfg_flash_init, @function
mfg_flash_init:
.LFB10:
	.loc 1 37 1
	.cfi_startproc
	addi	sp,sp,-48
	.cfi_def_cfa_offset 48
	sw	ra,44(sp)
	sw	s0,40(sp)
	.cfi_offset 1, -4
	.cfi_offset 8, -8
	addi	s0,sp,48
	.cfi_def_cfa 8, 0
	sw	a0,-36(s0)
	.loc 1 41 14
	lui	a5,%hi(pFlashCfg)
	lw	a4,-36(s0)
	sw	a4,%lo(pFlashCfg)(a5)
	.loc 1 42 17
	lui	a5,%hi(pFlashCfg)
	lw	a5,%lo(pFlashCfg)(a5)
	.loc 1 42 7
	beq	a5,zero,.L5
	.loc 1 43 9
	lui	a5,%hi(PtTable_Flash_Read)
	addi	a2,a5,%lo(PtTable_Flash_Read)
	li	a1,0
	li	a0,0
	call	PtTable_Set_Flash_Operation
	.loc 1 44 18
	lui	a5,%hi(ptTableStuff)
	addi	a0,a5,%lo(ptTableStuff)
	call	PtTable_Get_Active_Partition_Need_Lock
	mv	a5,a0
	sb	a5,-17(s0)
	.loc 1 45 11
	lbu	a4,-17(s0)
	li	a5,2
	bne	a4,a5,.L6
	.loc 1 46 13
	lui	a5,%hi(.LC0)
	addi	a0,a5,%lo(.LC0)
	call	printf
	.loc 1 47 20
	li	a5,-1
	j	.L7
.L6:
	.loc 1 49 61
	lbu	a4,-17(s0)
	.loc 1 49 13
	li	a5,596
	mul	a4,a4,a5
	lui	a5,%hi(ptTableStuff)
	addi	a5,a5,%lo(ptTableStuff)
	add	a4,a4,a5
	lui	a5,%hi(ptEntry)
	addi	a2,a5,%lo(ptEntry)
	lui	a5,%hi(.LC1)
	addi	a1,a5,%lo(.LC1)
	mv	a0,a4
	call	PtTable_Get_Active_Entries_By_Name
	mv	a5,a0
	sb	a5,-18(s0)
	.loc 1 50 11
	lbu	a5,-18(s0)
	bne	a5,zero,.L8
	.loc 1 51 41
	lui	a5,%hi(ptEntry)
	addi	a5,a5,%lo(ptEntry)
	lw	a4,12(a5)
	.loc 1 51 25
	lui	a5,%hi(rf_para_addr)
	sw	a4,%lo(rf_para_addr)(a5)
	.loc 1 52 13
	lui	a5,%hi(rf_para_addr)
	lw	a5,%lo(rf_para_addr)(a5)
	mv	a1,a5
	lui	a5,%hi(.LC2)
	addi	a0,a5,%lo(.LC2)
	call	printf
	.loc 1 53 20
	li	a5,0
	j	.L7
.L8:
	.loc 1 55 13
	lui	a5,%hi(.LC3)
	addi	a0,a5,%lo(.LC3)
	call	printf
	.loc 1 56 20
	li	a5,-1
	j	.L7
.L5:
	.loc 1 59 12
	li	a5,-1
.L7:
	.loc 1 60 1
	mv	a0,a5
	lw	ra,44(sp)
	.cfi_restore 1
	lw	s0,40(sp)
	.cfi_restore 8
	.cfi_def_cfa 2, 48
	addi	sp,sp,48
	.cfi_def_cfa_offset 0
	jr	ra
	.cfi_endproc
.LFE10:
	.size	mfg_flash_init, .-mfg_flash_init
	.section	.rodata
	.align	2
.LC4:
	.string	"mfg_flash_write\r\n"
	.align	2
.LC5:
	.string	"Flash erase error\r\n"
	.align	2
.LC6:
	.string	"Flash write error\r\n"
	.section	.text.mfg_flash_program,"ax",@progbits
	.align	1
	.type	mfg_flash_program, @function
mfg_flash_program:
.LFB11:
	.loc 1 63 1
	.cfi_startproc
	addi	sp,sp,-32
	.cfi_def_cfa_offset 32
	sw	ra,28(sp)
	sw	s0,24(sp)
	.cfi_offset 1, -4
	.cfi_offset 8, -8
	addi	s0,sp,32
	.cfi_def_cfa 8, 0
	.loc 1 66 5
	lui	a5,%hi(.LC4)
	addi	a0,a5,%lo(.LC4)
	call	printf
.LBB14:
.LBB15:
	.file 2 "/home/chandu/sdk/bl602_iot_sdk/components/bl602/bl602_std/bl602_std/RISCV/Core/Include/cmsis_compatible_gcc.h"
	.loc 2 94 3
 #APP
# 94 "/home/chandu/sdk/bl602_iot_sdk/components/bl602/bl602_std/bl602_std/RISCV/Core/Include/cmsis_compatible_gcc.h" 1
	csrci mstatus, 8
# 0 "" 2
	.loc 2 95 1
 #NO_APP
	nop
.LBE15:
.LBE14:
	.loc 1 69 10
	lui	a5,%hi(pFlashCfg)
	lw	a4,%lo(pFlashCfg)(a5)
	lui	a5,%hi(rf_para_addr)
	lw	a3,%lo(rf_para_addr)(a5)
	lui	a5,%hi(rf_para_addr)
	lw	a5,%lo(rf_para_addr)(a5)
	.loc 1 69 72
	addi	a5,a5,15
	.loc 1 69 10
	mv	a2,a5
	mv	a1,a3
	mv	a0,a4
	call	XIP_SFlash_Erase_Need_Lock
	mv	a5,a0
	sb	a5,-17(s0)
.LBB16:
.LBB17:
	.loc 2 89 3
 #APP
# 89 "/home/chandu/sdk/bl602_iot_sdk/components/bl602/bl602_std/bl602_std/RISCV/Core/Include/cmsis_compatible_gcc.h" 1
	csrsi mstatus, 8
# 0 "" 2
	.loc 2 90 1
 #NO_APP
	nop
.LBE17:
.LBE16:
	.loc 1 71 8
	lbu	a5,-17(s0)
	beq	a5,zero,.L10
	.loc 1 72 10
	lui	a5,%hi(.LC5)
	addi	a0,a5,%lo(.LC5)
	call	printf
	.loc 1 73 17
	li	a5,-1
	j	.L11
.L10:
.LBB18:
.LBB19:
	.loc 2 94 3
 #APP
# 94 "/home/chandu/sdk/bl602_iot_sdk/components/bl602/bl602_std/bl602_std/RISCV/Core/Include/cmsis_compatible_gcc.h" 1
	csrci mstatus, 8
# 0 "" 2
	.loc 2 95 1
 #NO_APP
	nop
.LBE19:
.LBE18:
	.loc 1 77 10
	lui	a5,%hi(pFlashCfg)
	lw	a4,%lo(pFlashCfg)(a5)
	lui	a5,%hi(rf_para_addr)
	lw	a1,%lo(rf_para_addr)(a5)
	li	a3,24
	lui	a5,%hi(rf_para)
	addi	a2,a5,%lo(rf_para)
	mv	a0,a4
	call	XIP_SFlash_Write_Need_Lock
	mv	a5,a0
	sb	a5,-17(s0)
.LBB20:
.LBB21:
	.loc 2 89 3
 #APP
# 89 "/home/chandu/sdk/bl602_iot_sdk/components/bl602/bl602_std/bl602_std/RISCV/Core/Include/cmsis_compatible_gcc.h" 1
	csrsi mstatus, 8
# 0 "" 2
	.loc 2 90 1
 #NO_APP
	nop
.LBE21:
.LBE20:
	.loc 1 79 8
	lbu	a5,-17(s0)
	beq	a5,zero,.L12
	.loc 1 80 10
	lui	a5,%hi(.LC6)
	addi	a0,a5,%lo(.LC6)
	call	printf
	.loc 1 81 17
	li	a5,-1
	j	.L11
.L12:
	.loc 1 84 13
	li	a5,0
.L11:
	.loc 1 85 1
	mv	a0,a5
	lw	ra,28(sp)
	.cfi_restore 1
	lw	s0,24(sp)
	.cfi_restore 8
	.cfi_def_cfa 2, 32
	addi	sp,sp,32
	.cfi_def_cfa_offset 0
	jr	ra
	.cfi_endproc
.LFE11:
	.size	mfg_flash_program, .-mfg_flash_program
	.section	.rodata
	.align	2
.LC7:
	.string	"mfg_flash_read\r\n"
	.section	.text.mfg_flash_read,"ax",@progbits
	.align	1
	.type	mfg_flash_read, @function
mfg_flash_read:
.LFB12:
	.loc 1 88 1
	.cfi_startproc
	addi	sp,sp,-32
	.cfi_def_cfa_offset 32
	sw	ra,28(sp)
	sw	s0,24(sp)
	.cfi_offset 1, -4
	.cfi_offset 8, -8
	addi	s0,sp,32
	.cfi_def_cfa 8, 0
	.loc 1 91 5
	lui	a5,%hi(.LC7)
	addi	a0,a5,%lo(.LC7)
	call	printf
.LBB22:
.LBB23:
	.loc 2 94 3
 #APP
# 94 "/home/chandu/sdk/bl602_iot_sdk/components/bl602/bl602_std/bl602_std/RISCV/Core/Include/cmsis_compatible_gcc.h" 1
	csrci mstatus, 8
# 0 "" 2
	.loc 2 95 1
 #NO_APP
	nop
.LBE23:
.LBE22:
	.loc 1 94 10
	lui	a5,%hi(pFlashCfg)
	lw	a4,%lo(pFlashCfg)(a5)
	lui	a5,%hi(rf_para_addr)
	lw	a1,%lo(rf_para_addr)(a5)
	li	a3,24
	lui	a5,%hi(rf_para)
	addi	a2,a5,%lo(rf_para)
	mv	a0,a4
	call	XIP_SFlash_Read_Need_Lock
	mv	a5,a0
	sb	a5,-17(s0)
.LBB24:
.LBB25:
	.loc 2 89 3
 #APP
# 89 "/home/chandu/sdk/bl602_iot_sdk/components/bl602/bl602_std/bl602_std/RISCV/Core/Include/cmsis_compatible_gcc.h" 1
	csrsi mstatus, 8
# 0 "" 2
	.loc 2 90 1
 #NO_APP
	nop
.LBE25:
.LBE24:
	.loc 1 96 8
	lbu	a5,-17(s0)
	beq	a5,zero,.L14
	.loc 1 97 10
	lui	a5,%hi(.LC6)
	addi	a0,a5,%lo(.LC6)
	call	printf
	.loc 1 98 17
	li	a5,-1
	j	.L15
.L14:
	.loc 1 101 13
	li	a5,0
.L15:
	.loc 1 102 1
	mv	a0,a5
	lw	ra,28(sp)
	.cfi_restore 1
	lw	s0,24(sp)
	.cfi_restore 8
	.cfi_def_cfa 2, 32
	addi	sp,sp,32
	.cfi_def_cfa_offset 0
	jr	ra
	.cfi_endproc
.LFE12:
	.size	mfg_flash_read, .-mfg_flash_read
	.section	.text.mfg_flash_write_xtal_capcode_pre,"ax",@progbits
	.align	1
	.globl	mfg_flash_write_xtal_capcode_pre
	.type	mfg_flash_write_xtal_capcode_pre, @function
mfg_flash_write_xtal_capcode_pre:
.LFB13:
	.loc 1 105 1
	.cfi_startproc
	addi	sp,sp,-32
	.cfi_def_cfa_offset 32
	sw	ra,28(sp)
	sw	s0,24(sp)
	.cfi_offset 1, -4
	.cfi_offset 8, -8
	addi	s0,sp,32
	.cfi_def_cfa 8, 0
	mv	a5,a0
	mv	a4,a1
	sb	a5,-17(s0)
	mv	a5,a4
	sb	a5,-18(s0)
	.loc 1 106 18
	lui	a5,%hi(rf_para)
	addi	a5,a5,%lo(rf_para)
	li	a4,65
	sw	a4,0(a5)
	.loc 1 107 26
	lui	a5,%hi(rf_para)
	addi	a5,a5,%lo(rf_para)
	li	a4,90
	sb	a4,4(a5)
	.loc 1 108 20
	lui	a5,%hi(rf_para)
	addi	a5,a5,%lo(rf_para)
	lbu	a4,-17(s0)
	sb	a4,5(a5)
	.loc 1 109 19
	li	a1,16
	lui	a5,%hi(rf_para+4)
	addi	a0,a5,%lo(rf_para+4)
	call	BFLB_Soft_CRC32
	mv	a4,a0
	.loc 1 109 18 discriminator 1
	lui	a5,%hi(rf_para)
	addi	a5,a5,%lo(rf_para)
	sw	a4,20(a5)
	.loc 1 111 7
	lbu	a5,-18(s0)
	beq	a5,zero,.L17
	.loc 1 112 16
	call	mfg_flash_program
	mv	a5,a0
	j	.L18
.L17:
	.loc 1 114 16
	li	a5,0
.L18:
	.loc 1 116 1
	mv	a0,a5
	lw	ra,28(sp)
	.cfi_restore 1
	lw	s0,24(sp)
	.cfi_restore 8
	.cfi_def_cfa 2, 32
	addi	sp,sp,32
	.cfi_def_cfa_offset 0
	jr	ra
	.cfi_endproc
.LFE13:
	.size	mfg_flash_write_xtal_capcode_pre, .-mfg_flash_write_xtal_capcode_pre
	.section	.text.mfg_flash_write_xtal_capcode,"ax",@progbits
	.align	1
	.globl	mfg_flash_write_xtal_capcode
	.type	mfg_flash_write_xtal_capcode, @function
mfg_flash_write_xtal_capcode:
.LFB14:
	.loc 1 119 1
	.cfi_startproc
	addi	sp,sp,-16
	.cfi_def_cfa_offset 16
	sw	ra,12(sp)
	sw	s0,8(sp)
	.cfi_offset 1, -4
	.cfi_offset 8, -8
	addi	s0,sp,16
	.cfi_def_cfa 8, 0
	.loc 1 120 5
	call	mfg_flash_program
	.loc 1 121 1
	nop
	lw	ra,12(sp)
	.cfi_restore 1
	lw	s0,8(sp)
	.cfi_restore 8
	.cfi_def_cfa 2, 16
	addi	sp,sp,16
	.cfi_def_cfa_offset 0
	jr	ra
	.cfi_endproc
.LFE14:
	.size	mfg_flash_write_xtal_capcode, .-mfg_flash_write_xtal_capcode
	.section	.text.mfg_flash_read_xtal_capcode,"ax",@progbits
	.align	1
	.globl	mfg_flash_read_xtal_capcode
	.type	mfg_flash_read_xtal_capcode, @function
mfg_flash_read_xtal_capcode:
.LFB15:
	.loc 1 124 1
	.cfi_startproc
	addi	sp,sp,-32
	.cfi_def_cfa_offset 32
	sw	ra,28(sp)
	sw	s0,24(sp)
	sw	s1,20(sp)
	.cfi_offset 1, -4
	.cfi_offset 8, -8
	.cfi_offset 9, -12
	addi	s0,sp,32
	.cfi_def_cfa 8, 0
	sw	a0,-20(s0)
	mv	a5,a1
	sb	a5,-21(s0)
	.loc 1 125 7
	lbu	a5,-21(s0)
	beq	a5,zero,.L21
	.loc 1 125 22 discriminator 1
	call	mfg_flash_read
	mv	a5,a0
	.loc 1 125 19 discriminator 2
	beq	a5,zero,.L21
	.loc 1 126 16
	li	a5,-1
	j	.L22
.L21:
	.loc 1 128 15
	lui	a5,%hi(rf_para)
	addi	a5,a5,%lo(rf_para)
	lw	a4,0(a5)
	.loc 1 128 7
	li	a5,65
	bne	a4,a5,.L23
	.loc 1 129 19
	lui	a5,%hi(rf_para)
	addi	a5,a5,%lo(rf_para)
	lw	s1,20(a5)
	.loc 1 129 28
	li	a1,16
	lui	a5,%hi(rf_para+4)
	addi	a0,a5,%lo(rf_para+4)
	call	BFLB_Soft_CRC32
	mv	a5,a0
	.loc 1 129 11 discriminator 1
	bne	s1,a5,.L23
	.loc 1 130 23
	lui	a5,%hi(rf_para)
	addi	a5,a5,%lo(rf_para)
	lbu	a4,4(a5)
	.loc 1 130 15
	li	a5,90
	bne	a4,a5,.L23
	.loc 1 131 33
	lui	a5,%hi(rf_para)
	addi	a5,a5,%lo(rf_para)
	lbu	a4,5(a5)
	.loc 1 131 25
	lw	a5,-20(s0)
	sb	a4,0(a5)
	.loc 1 132 24
	li	a5,0
	j	.L22
.L23:
	.loc 1 136 12
	li	a5,-1
.L22:
	.loc 1 137 1
	mv	a0,a5
	lw	ra,28(sp)
	.cfi_restore 1
	lw	s0,24(sp)
	.cfi_restore 8
	.cfi_def_cfa 2, 32
	lw	s1,20(sp)
	.cfi_restore 9
	addi	sp,sp,32
	.cfi_def_cfa_offset 0
	jr	ra
	.cfi_endproc
.LFE15:
	.size	mfg_flash_read_xtal_capcode, .-mfg_flash_read_xtal_capcode
	.section	.text.mfg_flash_write_poweroffset_pre,"ax",@progbits
	.align	1
	.globl	mfg_flash_write_poweroffset_pre
	.type	mfg_flash_write_poweroffset_pre, @function
mfg_flash_write_poweroffset_pre:
.LFB16:
	.loc 1 140 1
	.cfi_startproc
	addi	sp,sp,-32
	.cfi_def_cfa_offset 32
	sw	ra,28(sp)
	sw	s0,24(sp)
	.cfi_offset 1, -4
	.cfi_offset 8, -8
	addi	s0,sp,32
	.cfi_def_cfa 8, 0
	sw	a0,-20(s0)
	mv	a5,a1
	sb	a5,-21(s0)
	.loc 1 141 18
	lui	a5,%hi(rf_para)
	addi	a5,a5,%lo(rf_para)
	li	a4,65
	sw	a4,0(a5)
	.loc 1 142 30
	lui	a5,%hi(rf_para)
	addi	a5,a5,%lo(rf_para)
	li	a4,90
	sb	a4,6(a5)
	.loc 1 143 37
	lw	a5,-20(s0)
	lb	a4,0(a5)
	.loc 1 143 27
	lui	a5,%hi(rf_para)
	addi	a5,a5,%lo(rf_para)
	sb	a4,7(a5)
	.loc 1 144 27
	lw	a5,-20(s0)
	lb	a4,6(a5)
	lui	a5,%hi(rf_para)
	addi	a5,a5,%lo(rf_para)
	sb	a4,8(a5)
	.loc 1 145 27
	lw	a5,-20(s0)
	lb	a4,12(a5)
	lui	a5,%hi(rf_para)
	addi	a5,a5,%lo(rf_para)
	sb	a4,9(a5)
	.loc 1 146 19
	li	a1,16
	lui	a5,%hi(rf_para+4)
	addi	a0,a5,%lo(rf_para+4)
	call	BFLB_Soft_CRC32
	mv	a4,a0
	.loc 1 146 18 discriminator 1
	lui	a5,%hi(rf_para)
	addi	a5,a5,%lo(rf_para)
	sw	a4,20(a5)
	.loc 1 148 7
	lbu	a5,-21(s0)
	beq	a5,zero,.L25
	.loc 1 149 16
	call	mfg_flash_program
	mv	a5,a0
	j	.L26
.L25:
	.loc 1 151 16
	li	a5,0
.L26:
	.loc 1 153 1
	mv	a0,a5
	lw	ra,28(sp)
	.cfi_restore 1
	lw	s0,24(sp)
	.cfi_restore 8
	.cfi_def_cfa 2, 32
	addi	sp,sp,32
	.cfi_def_cfa_offset 0
	jr	ra
	.cfi_endproc
.LFE16:
	.size	mfg_flash_write_poweroffset_pre, .-mfg_flash_write_poweroffset_pre
	.section	.text.mfg_flash_write_poweroffset,"ax",@progbits
	.align	1
	.globl	mfg_flash_write_poweroffset
	.type	mfg_flash_write_poweroffset, @function
mfg_flash_write_poweroffset:
.LFB17:
	.loc 1 156 1
	.cfi_startproc
	addi	sp,sp,-16
	.cfi_def_cfa_offset 16
	sw	ra,12(sp)
	sw	s0,8(sp)
	.cfi_offset 1, -4
	.cfi_offset 8, -8
	addi	s0,sp,16
	.cfi_def_cfa 8, 0
	.loc 1 157 5
	call	mfg_flash_program
	.loc 1 158 1
	nop
	lw	ra,12(sp)
	.cfi_restore 1
	lw	s0,8(sp)
	.cfi_restore 8
	.cfi_def_cfa 2, 16
	addi	sp,sp,16
	.cfi_def_cfa_offset 0
	jr	ra
	.cfi_endproc
.LFE17:
	.size	mfg_flash_write_poweroffset, .-mfg_flash_write_poweroffset
	.section	.text.mfg_flash_read_poweroffset,"ax",@progbits
	.align	1
	.globl	mfg_flash_read_poweroffset
	.type	mfg_flash_read_poweroffset, @function
mfg_flash_read_poweroffset:
.LFB18:
	.loc 1 161 1
	.cfi_startproc
	addi	sp,sp,-48
	.cfi_def_cfa_offset 48
	sw	ra,44(sp)
	sw	s0,40(sp)
	sw	s1,36(sp)
	.cfi_offset 1, -4
	.cfi_offset 8, -8
	.cfi_offset 9, -12
	addi	s0,sp,48
	.cfi_def_cfa 8, 0
	sw	a0,-36(s0)
	mv	a5,a1
	sb	a5,-37(s0)
	.loc 1 163 13
	sw	zero,-20(s0)
	.loc 1 165 7
	lbu	a5,-37(s0)
	beq	a5,zero,.L29
	.loc 1 165 22 discriminator 1
	call	mfg_flash_read
	mv	a5,a0
	.loc 1 165 19 discriminator 2
	beq	a5,zero,.L29
	.loc 1 166 16
	li	a5,-1
	j	.L32
.L29:
	.loc 1 168 15
	lui	a5,%hi(rf_para)
	addi	a5,a5,%lo(rf_para)
	lw	a4,0(a5)
	.loc 1 168 7
	li	a5,65
	bne	a4,a5,.L31
	.loc 1 169 19
	lui	a5,%hi(rf_para)
	addi	a5,a5,%lo(rf_para)
	lw	s1,20(a5)
	.loc 1 169 28
	li	a1,16
	lui	a5,%hi(rf_para+4)
	addi	a0,a5,%lo(rf_para+4)
	call	BFLB_Soft_CRC32
	mv	a5,a0
	.loc 1 169 11 discriminator 1
	bne	s1,a5,.L31
	.loc 1 170 23
	lui	a5,%hi(rf_para)
	addi	a5,a5,%lo(rf_para)
	lbu	a4,6(a5)
	.loc 1 170 15
	li	a5,90
	bne	a4,a5,.L31
	.loc 1 171 17
	li	a2,14
	li	a1,0
	lw	a0,-36(s0)
	call	memset
	.loc 1 172 52
	lui	a5,%hi(rf_para)
	addi	a5,a5,%lo(rf_para)
	lb	a5,7(a5)
	.loc 1 172 32
	sb	a5,-24(s0)
	.loc 1 173 52
	lui	a5,%hi(rf_para)
	addi	a5,a5,%lo(rf_para)
	lb	a5,8(a5)
	.loc 1 173 32
	sb	a5,-23(s0)
	.loc 1 174 52
	lui	a5,%hi(rf_para)
	addi	a5,a5,%lo(rf_para)
	lb	a5,9(a5)
	.loc 1 174 32
	sb	a5,-22(s0)
	.loc 1 176 42
	lb	a4,-24(s0)
	.loc 1 176 29
	lw	a5,-36(s0)
	sb	a4,0(a5)
	.loc 1 178 35
	lb	a5,-23(s0)
	mv	a4,a5
	.loc 1 178 51
	lb	a5,-24(s0)
	.loc 1 178 38
	sub	a4,a4,a5
	.loc 1 178 55
	li	a5,100
	mul	a5,a4,a5
	.loc 1 178 21
	li	a4,715829248
	addi	a4,a4,-1365
	mulh	a4,a5,a4
	srai	a5,a5,31
	sub	a5,a4,a5
	sw	a5,-20(s0)
	.loc 1 179 35
	lw	a5,-20(s0)
	addi	a5,a5,50
	.loc 1 179 39
	li	a4,1374388224
	addi	a4,a4,1311
	mulh	a4,a5,a4
	srai	a4,a4,5
	srai	a5,a5,31
	sub	a5,a4,a5
	.loc 1 179 43
	andi	a4,a5,0xff
	.loc 1 179 56
	lb	a5,-24(s0)
	andi	a5,a5,0xff
	.loc 1 179 43
	add	a5,a4,a5
	andi	a4,a5,0xff
	.loc 1 179 26
	lw	a5,-36(s0)
	addi	a5,a5,1
	.loc 1 179 43
	slli	a4,a4,24
	srai	a4,a4,24
	.loc 1 179 29
	sb	a4,0(a5)
	.loc 1 180 37
	lw	a5,-20(s0)
	addi	a5,a5,25
	.loc 1 180 41
	li	a4,1374388224
	addi	a4,a4,1311
	mulh	a4,a5,a4
	srai	a4,a4,4
	srai	a5,a5,31
	sub	a5,a4,a5
	.loc 1 180 45
	andi	a4,a5,0xff
	.loc 1 180 58
	lb	a5,-24(s0)
	andi	a5,a5,0xff
	.loc 1 180 45
	add	a5,a4,a5
	andi	a4,a5,0xff
	.loc 1 180 26
	lw	a5,-36(s0)
	addi	a5,a5,2
	.loc 1 180 45
	slli	a4,a4,24
	srai	a4,a4,24
	.loc 1 180 29
	sb	a4,0(a5)
	.loc 1 181 35
	lw	a4,-20(s0)
	mv	a5,a4
	slli	a5,a5,1
	add	a5,a5,a4
	.loc 1 181 37
	addi	a5,a5,50
	.loc 1 181 41
	li	a4,1374388224
	addi	a4,a4,1311
	mulh	a4,a5,a4
	srai	a4,a4,5
	srai	a5,a5,31
	sub	a5,a4,a5
	.loc 1 181 45
	andi	a4,a5,0xff
	.loc 1 181 58
	lb	a5,-24(s0)
	andi	a5,a5,0xff
	.loc 1 181 45
	add	a5,a4,a5
	andi	a4,a5,0xff
	.loc 1 181 26
	lw	a5,-36(s0)
	addi	a5,a5,3
	.loc 1 181 45
	slli	a4,a4,24
	srai	a4,a4,24
	.loc 1 181 29
	sb	a4,0(a5)
	.loc 1 182 35
	lw	a5,-20(s0)
	slli	a5,a5,2
	.loc 1 182 37
	addi	a5,a5,50
	.loc 1 182 41
	li	a4,1374388224
	addi	a4,a4,1311
	mulh	a4,a5,a4
	srai	a4,a4,5
	srai	a5,a5,31
	sub	a5,a4,a5
	.loc 1 182 45
	andi	a4,a5,0xff
	.loc 1 182 58
	lb	a5,-24(s0)
	andi	a5,a5,0xff
	.loc 1 182 45
	add	a5,a4,a5
	andi	a4,a5,0xff
	.loc 1 182 26
	lw	a5,-36(s0)
	addi	a5,a5,4
	.loc 1 182 45
	slli	a4,a4,24
	srai	a4,a4,24
	.loc 1 182 29
	sb	a4,0(a5)
	.loc 1 183 35
	lw	a4,-20(s0)
	mv	a5,a4
	slli	a5,a5,2
	add	a5,a5,a4
	.loc 1 183 37
	addi	a5,a5,50
	.loc 1 183 41
	li	a4,1374388224
	addi	a4,a4,1311
	mulh	a4,a5,a4
	srai	a4,a4,5
	srai	a5,a5,31
	sub	a5,a4,a5
	.loc 1 183 45
	andi	a4,a5,0xff
	.loc 1 183 58
	lb	a5,-24(s0)
	andi	a5,a5,0xff
	.loc 1 183 45
	add	a5,a4,a5
	andi	a4,a5,0xff
	.loc 1 183 26
	lw	a5,-36(s0)
	addi	a5,a5,5
	.loc 1 183 45
	slli	a4,a4,24
	srai	a4,a4,24
	.loc 1 183 29
	sb	a4,0(a5)
	.loc 1 185 26
	lw	a5,-36(s0)
	addi	a5,a5,6
	.loc 1 185 42
	lb	a4,-23(s0)
	.loc 1 185 29
	sb	a4,0(a5)
	.loc 1 187 35
	lb	a5,-22(s0)
	mv	a4,a5
	.loc 1 187 51
	lb	a5,-23(s0)
	.loc 1 187 38
	sub	a4,a4,a5
	.loc 1 187 55
	li	a5,100
	mul	a5,a4,a5
	.loc 1 187 21
	li	a4,715829248
	addi	a4,a4,-1365
	mulh	a4,a5,a4
	srai	a5,a5,31
	sub	a5,a4,a5
	sw	a5,-20(s0)
	.loc 1 188 35
	lw	a5,-20(s0)
	addi	a5,a5,50
	.loc 1 188 39
	li	a4,1374388224
	addi	a4,a4,1311
	mulh	a4,a5,a4
	srai	a4,a4,5
	srai	a5,a5,31
	sub	a5,a4,a5
	.loc 1 188 43
	andi	a4,a5,0xff
	.loc 1 188 56
	lb	a5,-23(s0)
	andi	a5,a5,0xff
	.loc 1 188 43
	add	a5,a4,a5
	andi	a4,a5,0xff
	.loc 1 188 26
	lw	a5,-36(s0)
	addi	a5,a5,7
	.loc 1 188 43
	slli	a4,a4,24
	srai	a4,a4,24
	.loc 1 188 29
	sb	a4,0(a5)
	.loc 1 189 37
	lw	a5,-20(s0)
	addi	a5,a5,25
	.loc 1 189 41
	li	a4,1374388224
	addi	a4,a4,1311
	mulh	a4,a5,a4
	srai	a4,a4,4
	srai	a5,a5,31
	sub	a5,a4,a5
	.loc 1 189 45
	andi	a4,a5,0xff
	.loc 1 189 58
	lb	a5,-23(s0)
	andi	a5,a5,0xff
	.loc 1 189 45
	add	a5,a4,a5
	andi	a4,a5,0xff
	.loc 1 189 26
	lw	a5,-36(s0)
	addi	a5,a5,8
	.loc 1 189 45
	slli	a4,a4,24
	srai	a4,a4,24
	.loc 1 189 29
	sb	a4,0(a5)
	.loc 1 190 35
	lw	a4,-20(s0)
	mv	a5,a4
	slli	a5,a5,1
	add	a5,a5,a4
	.loc 1 190 37
	addi	a5,a5,50
	.loc 1 190 41
	li	a4,1374388224
	addi	a4,a4,1311
	mulh	a4,a5,a4
	srai	a4,a4,5
	srai	a5,a5,31
	sub	a5,a4,a5
	.loc 1 190 45
	andi	a4,a5,0xff
	.loc 1 190 58
	lb	a5,-23(s0)
	andi	a5,a5,0xff
	.loc 1 190 45
	add	a5,a4,a5
	andi	a4,a5,0xff
	.loc 1 190 26
	lw	a5,-36(s0)
	addi	a5,a5,9
	.loc 1 190 45
	slli	a4,a4,24
	srai	a4,a4,24
	.loc 1 190 29
	sb	a4,0(a5)
	.loc 1 191 36
	lw	a5,-20(s0)
	slli	a5,a5,2
	.loc 1 191 38
	addi	a5,a5,50
	.loc 1 191 42
	li	a4,1374388224
	addi	a4,a4,1311
	mulh	a4,a5,a4
	srai	a4,a4,5
	srai	a5,a5,31
	sub	a5,a4,a5
	.loc 1 191 46
	andi	a4,a5,0xff
	.loc 1 191 59
	lb	a5,-23(s0)
	andi	a5,a5,0xff
	.loc 1 191 46
	add	a5,a4,a5
	andi	a4,a5,0xff
	.loc 1 191 26
	lw	a5,-36(s0)
	addi	a5,a5,10
	.loc 1 191 46
	slli	a4,a4,24
	srai	a4,a4,24
	.loc 1 191 30
	sb	a4,0(a5)
	.loc 1 192 36
	lw	a4,-20(s0)
	mv	a5,a4
	slli	a5,a5,2
	add	a5,a5,a4
	.loc 1 192 38
	addi	a5,a5,50
	.loc 1 192 42
	li	a4,1374388224
	addi	a4,a4,1311
	mulh	a4,a5,a4
	srai	a4,a4,5
	srai	a5,a5,31
	sub	a5,a4,a5
	.loc 1 192 46
	andi	a4,a5,0xff
	.loc 1 192 59
	lb	a5,-23(s0)
	andi	a5,a5,0xff
	.loc 1 192 46
	add	a5,a4,a5
	andi	a4,a5,0xff
	.loc 1 192 26
	lw	a5,-36(s0)
	addi	a5,a5,11
	.loc 1 192 46
	slli	a4,a4,24
	srai	a4,a4,24
	.loc 1 192 30
	sb	a4,0(a5)
	.loc 1 194 26
	lw	a5,-36(s0)
	addi	a5,a5,12
	.loc 1 194 43
	lb	a4,-22(s0)
	.loc 1 194 30
	sb	a4,0(a5)
	.loc 1 196 36
	lw	a4,-20(s0)
	mv	a5,a4
	slli	a5,a5,3
	sub	a5,a5,a4
	.loc 1 196 38
	addi	a5,a5,50
	.loc 1 196 42
	li	a4,1374388224
	addi	a4,a4,1311
	mulh	a4,a5,a4
	srai	a4,a4,5
	srai	a5,a5,31
	sub	a5,a4,a5
	.loc 1 196 46
	andi	a4,a5,0xff
	.loc 1 196 59
	lb	a5,-23(s0)
	andi	a5,a5,0xff
	.loc 1 196 46
	add	a5,a4,a5
	andi	a4,a5,0xff
	.loc 1 196 26
	lw	a5,-36(s0)
	addi	a5,a5,13
	.loc 1 196 46
	slli	a4,a4,24
	srai	a4,a4,24
	.loc 1 196 30
	sb	a4,0(a5)
	.loc 1 197 24
	li	a5,0
	j	.L32
.L31:
	.loc 1 201 12
	li	a5,-1
.L32:
	.loc 1 202 1
	mv	a0,a5
	lw	ra,44(sp)
	.cfi_restore 1
	lw	s0,40(sp)
	.cfi_restore 8
	.cfi_def_cfa 2, 48
	lw	s1,36(sp)
	.cfi_restore 9
	addi	sp,sp,48
	.cfi_def_cfa_offset 0
	jr	ra
	.cfi_endproc
.LFE18:
	.size	mfg_flash_read_poweroffset, .-mfg_flash_read_poweroffset
	.section	.text.mfg_flash_write_macaddr_pre,"ax",@progbits
	.align	1
	.globl	mfg_flash_write_macaddr_pre
	.type	mfg_flash_write_macaddr_pre, @function
mfg_flash_write_macaddr_pre:
.LFB19:
	.loc 1 205 1
	.cfi_startproc
	addi	sp,sp,-32
	.cfi_def_cfa_offset 32
	sw	ra,28(sp)
	sw	s0,24(sp)
	.cfi_offset 1, -4
	.cfi_offset 8, -8
	addi	s0,sp,32
	.cfi_def_cfa 8, 0
	sw	a0,-20(s0)
	mv	a5,a1
	sb	a5,-21(s0)
	.loc 1 206 18
	lui	a5,%hi(rf_para)
	addi	a5,a5,%lo(rf_para)
	li	a4,65
	sw	a4,0(a5)
	.loc 1 207 22
	lui	a5,%hi(rf_para)
	addi	a5,a5,%lo(rf_para)
	li	a4,90
	sb	a4,10(a5)
	.loc 1 208 5
	li	a2,6
	lw	a1,-20(s0)
	lui	a5,%hi(rf_para+11)
	addi	a0,a5,%lo(rf_para+11)
	call	memcpy
	.loc 1 209 19
	li	a1,16
	lui	a5,%hi(rf_para+4)
	addi	a0,a5,%lo(rf_para+4)
	call	BFLB_Soft_CRC32
	mv	a4,a0
	.loc 1 209 18 discriminator 1
	lui	a5,%hi(rf_para)
	addi	a5,a5,%lo(rf_para)
	sw	a4,20(a5)
	.loc 1 211 7
	lbu	a5,-21(s0)
	beq	a5,zero,.L34
	.loc 1 212 16
	call	mfg_flash_program
	mv	a5,a0
	j	.L35
.L34:
	.loc 1 214 16
	li	a5,0
.L35:
	.loc 1 216 1
	mv	a0,a5
	lw	ra,28(sp)
	.cfi_restore 1
	lw	s0,24(sp)
	.cfi_restore 8
	.cfi_def_cfa 2, 32
	addi	sp,sp,32
	.cfi_def_cfa_offset 0
	jr	ra
	.cfi_endproc
.LFE19:
	.size	mfg_flash_write_macaddr_pre, .-mfg_flash_write_macaddr_pre
	.section	.text.mfg_flash_write_macaddr,"ax",@progbits
	.align	1
	.globl	mfg_flash_write_macaddr
	.type	mfg_flash_write_macaddr, @function
mfg_flash_write_macaddr:
.LFB20:
	.loc 1 219 1
	.cfi_startproc
	addi	sp,sp,-16
	.cfi_def_cfa_offset 16
	sw	ra,12(sp)
	sw	s0,8(sp)
	.cfi_offset 1, -4
	.cfi_offset 8, -8
	addi	s0,sp,16
	.cfi_def_cfa 8, 0
	.loc 1 220 5
	call	mfg_flash_program
	.loc 1 221 1
	nop
	lw	ra,12(sp)
	.cfi_restore 1
	lw	s0,8(sp)
	.cfi_restore 8
	.cfi_def_cfa 2, 16
	addi	sp,sp,16
	.cfi_def_cfa_offset 0
	jr	ra
	.cfi_endproc
.LFE20:
	.size	mfg_flash_write_macaddr, .-mfg_flash_write_macaddr
	.section	.rodata
	.align	2
.LC8:
	.string	"mfg_flash_read fail\r\n"
	.section	.text.mfg_flash_read_macaddr,"ax",@progbits
	.align	1
	.globl	mfg_flash_read_macaddr
	.type	mfg_flash_read_macaddr, @function
mfg_flash_read_macaddr:
.LFB21:
	.loc 1 224 1
	.cfi_startproc
	addi	sp,sp,-32
	.cfi_def_cfa_offset 32
	sw	ra,28(sp)
	sw	s0,24(sp)
	sw	s1,20(sp)
	.cfi_offset 1, -4
	.cfi_offset 8, -8
	.cfi_offset 9, -12
	addi	s0,sp,32
	.cfi_def_cfa 8, 0
	sw	a0,-20(s0)
	mv	a5,a1
	sb	a5,-21(s0)
	.loc 1 225 7
	lbu	a5,-21(s0)
	beq	a5,zero,.L38
	.loc 1 225 22 discriminator 1
	call	mfg_flash_read
	mv	a5,a0
	.loc 1 225 19 discriminator 2
	beq	a5,zero,.L38
	.loc 1 226 9
	lui	a5,%hi(.LC8)
	addi	a0,a5,%lo(.LC8)
	call	printf
	.loc 1 227 16
	li	a5,-1
	j	.L39
.L38:
	.loc 1 229 15
	lui	a5,%hi(rf_para)
	addi	a5,a5,%lo(rf_para)
	lw	a4,0(a5)
	.loc 1 229 7
	li	a5,65
	bne	a4,a5,.L40
	.loc 1 230 19
	lui	a5,%hi(rf_para)
	addi	a5,a5,%lo(rf_para)
	lw	s1,20(a5)
	.loc 1 230 28
	li	a1,16
	lui	a5,%hi(rf_para+4)
	addi	a0,a5,%lo(rf_para+4)
	call	BFLB_Soft_CRC32
	mv	a5,a0
	.loc 1 230 11 discriminator 1
	bne	s1,a5,.L40
	.loc 1 231 23
	lui	a5,%hi(rf_para)
	addi	a5,a5,%lo(rf_para)
	lbu	a4,10(a5)
	.loc 1 231 15
	li	a5,90
	bne	a4,a5,.L40
	.loc 1 232 17
	li	a2,6
	lui	a5,%hi(rf_para+11)
	addi	a1,a5,%lo(rf_para+11)
	lw	a0,-20(s0)
	call	memcpy
	.loc 1 233 24
	li	a5,0
	j	.L39
.L40:
	.loc 1 237 12
	li	a5,-1
.L39:
	.loc 1 238 1
	mv	a0,a5
	lw	ra,28(sp)
	.cfi_restore 1
	lw	s0,24(sp)
	.cfi_restore 8
	.cfi_def_cfa 2, 32
	lw	s1,20(sp)
	.cfi_restore 9
	addi	sp,sp,32
	.cfi_def_cfa_offset 0
	jr	ra
	.cfi_endproc
.LFE21:
	.size	mfg_flash_read_macaddr, .-mfg_flash_read_macaddr
	.text
.Letext0:
	.file 3 "/home/chandu/sdk/bl602_iot_sdk/toolchain/compiler/lib/gcc/riscv32-unknown-elf/15.1.0/include/stdint-gcc.h"
	.file 4 "/home/chandu/sdk/bl602_iot_sdk/toolchain/compiler/lib/gcc/riscv32-unknown-elf/15.1.0/include/stddef.h"
	.file 5 "/home/chandu/sdk/bl602_iot_sdk/components/bl602/bl602_std/bl602_std/StdDriver/Inc/bl602_common.h"
	.file 6 "/home/chandu/sdk/bl602_iot_sdk/components/bl602/bl602_std/bl602_std/StdDriver/Inc/bl602_sflash.h"
	.file 7 "/home/chandu/sdk/bl602_iot_sdk/components/bl602/bl602_std/bl602_std/StdDriver/Inc/bl602_mfg_flash.h"
	.file 8 "/home/chandu/sdk/bl602_iot_sdk/components/bl602/bl602_std/bl602_std/Common/partition/partition.h"
	.file 9 "/home/chandu/sdk/bl602_iot_sdk/toolchain/compiler/riscv32-unknown-elf/include/string.h"
	.file 10 "/home/chandu/sdk/bl602_iot_sdk/components/bl602/bl602_std/bl602_std/Common/soft_crc/softcrc.h"
	.file 11 "/home/chandu/sdk/bl602_iot_sdk/components/bl602/bl602_std/bl602_std/StdDriver/Inc/bl602_xip_sflash.h"
	.file 12 "/home/chandu/sdk/bl602_iot_sdk/toolchain/compiler/riscv32-unknown-elf/include/stdio.h"
	.section	.note.GNU-stack,"",@progbits
