	.file	"sscanf.c"
	.option nopic
	.attribute arch, "rv32i2p1_m2p0_f2p2_c2p0_zicsr2p0_zmmul1p0_zca1p0_zcf1p0"
	.attribute unaligned_access, 0
	.attribute stack_align, 16
	.text
.Ltext0:
	.cfi_sections	.debug_frame
	.file 0 "/home/chandu/sdk/bl602_iot_sdk/customer_app/suas_app_pqkem_gateway/build_out/bl602" "/home/chandu/sdk/bl602_iot_sdk/components/bl602/bl602/evb/src/sscanf.c"
	.section	.text.sscanf,"ax",@progbits
	.align	1
	.globl	sscanf
	.type	sscanf, @function
sscanf:
.LFB3:
	.file 1 "/home/chandu/sdk/bl602_iot_sdk/components/bl602/bl602/evb/src/sscanf.c"
	.loc 1 42 1
	.cfi_startproc
	addi	sp,sp,-80
	.cfi_def_cfa_offset 80
	sw	ra,44(sp)
	sw	s0,40(sp)
	.cfi_offset 1, -36
	.cfi_offset 8, -40
	addi	s0,sp,48
	.cfi_def_cfa 8, 32
	sw	a0,-36(s0)
	sw	a1,-40(s0)
	sw	a2,8(s0)
	sw	a3,12(s0)
	sw	a4,16(s0)
	sw	a5,20(s0)
	sw	a6,24(s0)
	sw	a7,28(s0)
	.loc 1 46 4
	addi	a5,s0,32
	sw	a5,-44(s0)
	lw	a5,-44(s0)
	addi	a5,a5,-24
	sw	a5,-24(s0)
	.loc 1 47 10
	lw	a5,-24(s0)
	mv	a2,a5
	lw	a1,-40(s0)
	lw	a0,-36(s0)
	call	vsscanf
	sw	a0,-20(s0)
	.loc 1 50 12
	lw	a5,-20(s0)
	.loc 1 51 1
	mv	a0,a5
	lw	ra,44(sp)
	.cfi_restore 1
	lw	s0,40(sp)
	.cfi_restore 8
	.cfi_def_cfa 2, 80
	addi	sp,sp,80
	.cfi_def_cfa_offset 0
	jr	ra
	.cfi_endproc
.LFE3:
	.size	sscanf, .-sscanf
	.text
.Letext0:
	.file 2 "/home/chandu/sdk/bl602_iot_sdk/toolchain/compiler/lib/gcc/riscv32-unknown-elf/15.1.0/include/stdarg.h"
	.file 3 "/home/chandu/sdk/bl602_iot_sdk/toolchain/compiler/riscv32-unknown-elf/include/stdio.h"
	.section	.note.GNU-stack,"",@progbits
