	.file	"coap_prng.c"
	.option nopic
	.attribute arch, "rv32i2p1_m2p0_f2p2_c2p0_zicsr2p0_zmmul1p0_zca1p0_zcf1p0"
	.attribute unaligned_access, 0
	.attribute stack_align, 16
	.text
.Ltext0:
	.cfi_sections	.debug_frame
	.section	.text.coap_prng_init,"ax",@progbits
	.align	1
	.globl	coap_prng_init
	.type	coap_prng_init, @function
coap_prng_init:
.LVL0:
.LFB51:
.LM1:
	.cfi_startproc
.LM2:
.LM3:
.LM4:
.LM5:
	ret
	.cfi_endproc
.LFE51:
	.size	coap_prng_init, .-coap_prng_init
	.section	.text.coap_prng_init_lkd,"ax",@progbits
	.align	1
	.globl	coap_prng_init_lkd
	.type	coap_prng_init_lkd, @function
coap_prng_init_lkd:
.LFB56:
	.cfi_startproc
.LM6:
	ret
	.cfi_endproc
.LFE56:
	.size	coap_prng_init_lkd, .-coap_prng_init_lkd
	.section	.text.coap_prng_lkd,"ax",@progbits
	.align	1
	.globl	coap_prng_lkd
	.type	coap_prng_lkd, @function
coap_prng_lkd:
.LVL1:
.LFB54:
.LM7:
	.cfi_startproc
.LM8:
.LM9:
.LM10:
	addi	sp,sp,-32
	.cfi_def_cfa_offset 32
	sw	s0,24(sp)
	sw	s1,20(sp)
	sw	s2,16(sp)
	sw	ra,28(sp)
	.cfi_offset 8, -8
	.cfi_offset 9, -12
	.cfi_offset 18, -16
	.cfi_offset 1, -4
.LM11:
	mv	s0,a1
	add	s1,a0,a1
.LM12:
	call	bl_rand
.LVL2:
.LM13:
	mv	a5,a0
.LM14:
.LM15:
	li	s2,4
.LVL3:
.L4:
.LM16:
	sw	a5,12(sp)
	sub	a0,s1,s0
.LVL4:
.LM17:
	bgtu	s0,s2,.L5
.LM18:
	mv	a2,s0
	addi	a1,sp,12
	call	memcpy
.LVL5:
.LM19:
.LM20:
	lw	ra,28(sp)
	.cfi_remember_state
	.cfi_restore 1
	lw	s0,24(sp)
	.cfi_restore 8
.LVL6:
.LM21:
	lw	s1,20(sp)
	.cfi_restore 9
.LM22:
	lw	s2,16(sp)
	.cfi_restore 18
	li	a0,1
	addi	sp,sp,32
	.cfi_def_cfa_offset 0
	jr	ra
.LVL7:
.L5:
	.cfi_restore_state
.LM23:
	li	a2,4
	addi	a1,sp,12
	call	memcpy
.LVL8:
.LM24:
.LM25:
	call	bl_rand
.LVL9:
.LM26:
	addi	s0,s0,-4
.LVL10:
.LM27:
.LM28:
.LM29:
	mv	a5,a0
	j	.L4
	.cfi_endproc
.LFE54:
	.size	coap_prng_lkd, .-coap_prng_lkd
	.section	.text.coap_prng,"ax",@progbits
	.align	1
	.globl	coap_prng
	.type	coap_prng, @function
coap_prng:
.LVL11:
.LFB52:
.LM30:
	.cfi_startproc
.LM31:
.LM32:
.LM33:
.LM34:
	tail	coap_prng_lkd
.LVL12:
.LM35:
	.cfi_endproc
.LFE52:
	.size	coap_prng, .-coap_prng
	.text
.Letext0:
	.section	.note.GNU-stack,"",@progbits
