	.file	"coap_debug.c"
	.option nopic
	.attribute arch, "rv32i2p1_m2p0_f2p2_c2p0_zicsr2p0_zmmul1p0_zca1p0_zcf1p0"
	.attribute unaligned_access, 0
	.attribute stack_align, 16
	.text
.Ltext0:
	.cfi_sections	.debug_frame
	.section	.rodata.print_readable.str1.4,"aMS",@progbits,1
	.align	2
.LC1:
	.string	"data || len == 0"
	.align	2
.LC2:
	.string	"/home/chandu/sdk/bl602_iot_sdk/components/3rdparty/libcoap/src/coap_debug.c"
	.align	2
.LC0:
	.string	"0123456789ABCDEF"
	.section	.text.print_readable,"ax",@progbits
	.align	1
	.type	print_readable, @function
print_readable:
.LVL0:
.LFB60:
.LM1:
	.cfi_startproc
.LM2:
	addi	sp,sp,-64
	.cfi_def_cfa_offset 64
	sw	s2,48(sp)
	.cfi_offset 18, -16
	mv	s2,a1
.LM3:
	lui	a1,%hi(.LC0)
.LVL1:
.LM4:
	sw	s0,56(sp)
	sw	s1,52(sp)
	.cfi_offset 8, -8
	.cfi_offset 9, -12
	mv	s0,a2
	mv	s1,a0
.LM5:
.LM6:
	li	a2,17
.LVL2:
.LM7:
	addi	a1,a1,%lo(.LC0)
	addi	a0,sp,28
.LVL3:
.LM8:
	sw	a3,12(sp)
	sw	a4,8(sp)
	sw	ra,60(sp)
	.cfi_offset 1, -4
.LM9:
	call	memcpy
.LVL4:
.LM10:
.LM11:
.LM12:
	lw	a4,8(sp)
	lw	a3,12(sp)
	bne	s1,zero,.L2
.LM13:
	bne	s2,zero,.L3
.L2:
.LM14:
	lui	a1,%hi(_ctype_+1)
	add	s2,s1,s2
.LVL5:
.LM15:
	li	a0,0
.LM16:
	li	a7,92
.LM17:
	li	t1,120
.LM18:
	addi	a1,a1,%lo(_ctype_+1)
.LVL6:
.L4:
.LM19:
	bne	s1,s2,.L8
.L6:
.LM20:
.LM21:
	sb	zero,0(s0)
.LM22:
.LM23:
	lw	ra,60(sp)
	.cfi_remember_state
	.cfi_restore 1
	lw	s0,56(sp)
	.cfi_restore 8
.LVL7:
.LM24:
	lw	s1,52(sp)
	.cfi_restore 9
.LVL8:
.LM25:
	lw	s2,48(sp)
	.cfi_restore 18
	addi	sp,sp,64
	.cfi_def_cfa_offset 0
.LVL9:
.LM26:
	jr	ra
.LVL10:
.L3:
	.cfi_restore_state
.LM27:
	lui	a3,%hi(.LC1)
	lui	a2,%hi(__func__.1)
	lui	a0,%hi(.LC2)
	addi	a3,a3,%lo(.LC1)
	addi	a2,a2,%lo(__func__.1)
	li	a1,196
	addi	a0,a0,%lo(.LC2)
	call	__assert_func
.LVL11:
.L8:
.LM28:
.LM29:
	bne	a4,zero,.L5
.LM30:
	lbu	a6,0(s1)
.LM31:
	add	a5,a6,a1
.LM32:
	lbu	a5,0(a5)
	andi	a5,a5,151
	beq	a5,zero,.L5
.LM33:
.LM34:
	addi	a2,a0,1
.LM35:
	bgeu	a2,a3,.L6
.LM36:
.LVL12:
.LM37:
	sb	a6,0(s0)
.LM38:
.LVL13:
.LM39:
	addi	s0,s0,1
.LVL14:
.L7:
.LM40:
	addi	s1,s1,1
.LVL15:
.LM41:
.LM42:
	mv	a0,a2
	j	.L4
.LVL16:
.L5:
.LM43:
.LM44:
	addi	a2,a0,4
.LM45:
	bgeu	a2,a3,.L6
.LM46:
.LVL17:
.LM47:
	sb	a7,0(s0)
.LM48:
.LVL18:
.LM49:
	sb	t1,1(s0)
.LM50:
.LVL19:
.LM51:
	lbu	a5,0(s1)
.LM52:
	addi	a0,sp,16
.LVL20:
.LM53:
	addi	s0,s0,4
.LVL21:
.LM54:
	srli	a5,a5,4
.LM55:
	addi	a5,a5,32
	add	a5,a5,a0
.LM56:
	lbu	a5,-20(a5)
	sb	a5,-2(s0)
.LM57:
.LVL22:
.LM58:
	lbu	a5,0(s1)
	andi	a5,a5,15
.LM59:
	addi	a5,a5,32
	add	a5,a5,a0
.LM60:
	lbu	a5,-20(a5)
	sb	a5,-1(s0)
.LM61:
.LVL23:
.LM62:
	j	.L7
	.cfi_endproc
.LFE60:
	.size	print_readable, .-print_readable
	.section	.rodata.msg_code_string.str1.4,"aMS",@progbits,1
	.align	2
.LC3:
	.string	"%u.%02u"
	.section	.text.msg_code_string,"ax",@progbits
	.align	1
	.type	msg_code_string, @function
msg_code_string:
.LVL24:
.LFB64:
.LM63:
	.cfi_startproc
.LM64:
.LM65:
.LM66:
.LM67:
.LM68:
	li	a5,7
	bgtu	a0,a5,.L14
.LM69:
.LM70:
	lui	a5,%hi(methods.11)
	slli	a0,a0,2
.LVL25:
.LM71:
	addi	a5,a5,%lo(methods.11)
	add	a5,a5,a0
.L20:
.LM72:
	lw	a0,0(a5)
.LM73:
	ret
.LVL26:
.L14:
.LM74:
.LM75:
	addi	a4,a0,-224
.LM76:
	slli	a5,a4,16
	srli	a5,a5,16
	li	a1,5
	bgtu	a5,a1,.L16
.LM77:
.LM78:
	lui	a5,%hi(signals.10)
	slli	a4,a4,2
	addi	a5,a5,%lo(signals.10)
	add	a5,a5,a4
	j	.L20
.L16:
.LVL27:
.LBB37:
.LBI37:
.LM79:
.LBB38:
.LM80:
.LBE38:
.LBE37:
.LM81:
	addi	sp,sp,-16
	.cfi_def_cfa_offset 16
	sw	s0,8(sp)
.LBB42:
.LBB39:
.LM82:
	lui	a2,%hi(.LC3)
	.cfi_offset 8, -8
	lui	s0,%hi(buf.9)
	andi	a4,a0,31
	srli	a3,a0,5
	addi	a2,a2,%lo(.LC3)
	addi	a0,s0,%lo(buf.9)
.LVL28:
.LM83:
.LBE39:
.LBE42:
.LM84:
	sw	ra,12(sp)
	.cfi_offset 1, -4
.LBB43:
.LBB40:
.LM85:
	call	snprintf
.LVL29:
.LM86:
.LM87:
.LBE40:
.LBE43:
.LM88:
	lw	ra,12(sp)
	.cfi_restore 1
.LBB44:
.LBB41:
.LM89:
	addi	a0,s0,%lo(buf.9)
.LBE41:
.LBE44:
.LM90:
	lw	s0,8(sp)
	.cfi_restore 8
	addi	sp,sp,16
	.cfi_def_cfa_offset 0
	jr	ra
	.cfi_endproc
.LFE64:
	.size	msg_code_string, .-msg_code_string
	.section	.rodata.coap_package_name.str1.4,"aMS",@progbits,1
	.align	2
.LC4:
	.string	"libcoap"
	.section	.text.coap_package_name,"ax",@progbits
	.align	1
	.globl	coap_package_name
	.type	coap_package_name, @function
coap_package_name:
.LFB51:
.LM91:
	.cfi_startproc
.LM92:
.LM93:
	lui	a0,%hi(.LC4)
	addi	a0,a0,%lo(.LC4)
	ret
	.cfi_endproc
.LFE51:
	.size	coap_package_name, .-coap_package_name
	.section	.rodata.coap_package_version.str1.4,"aMS",@progbits,1
	.align	2
.LC5:
	.string	"libcoap 4.3.5"
	.section	.text.coap_package_version,"ax",@progbits
	.align	1
	.globl	coap_package_version
	.type	coap_package_version, @function
coap_package_version:
.LFB52:
.LM94:
	.cfi_startproc
.LM95:
.LM96:
	lui	a0,%hi(.LC5)
	addi	a0,a0,%lo(.LC5)
	ret
	.cfi_endproc
.LFE52:
	.size	coap_package_version, .-coap_package_version
	.section	.text.coap_package_build,"ax",@progbits
	.align	1
	.globl	coap_package_build
	.type	coap_package_build, @function
coap_package_build:
.LFB81:
	.cfi_startproc
.LM97:
	lui	a0,%hi(.LC5)
	addi	a0,a0,%lo(.LC5)
	ret
	.cfi_endproc
.LFE81:
	.size	coap_package_build, .-coap_package_build
	.section	.text.coap_set_show_pdu_output,"ax",@progbits
	.align	1
	.globl	coap_set_show_pdu_output
	.type	coap_set_show_pdu_output, @function
coap_set_show_pdu_output:
.LVL30:
.LFB54:
.LM98:
	.cfi_startproc
.LM99:
.LM100:
	lui	a5,%hi(use_fprintf_for_show_pdu)
	sw	a0,%lo(use_fprintf_for_show_pdu)(a5)
.LM101:
	ret
	.cfi_endproc
.LFE54:
	.size	coap_set_show_pdu_output, .-coap_set_show_pdu_output
	.section	.text.coap_enable_pdu_data_output,"ax",@progbits
	.align	1
	.globl	coap_enable_pdu_data_output
	.type	coap_enable_pdu_data_output, @function
coap_enable_pdu_data_output:
.LVL31:
.LFB55:
.LM102:
	.cfi_startproc
.LM103:
.LM104:
	lui	a5,%hi(enable_data_for_show_pdu)
	sw	a0,%lo(enable_data_for_show_pdu)(a5)
.LM105:
	ret
	.cfi_endproc
.LFE55:
	.size	coap_enable_pdu_data_output, .-coap_enable_pdu_data_output
	.section	.text.coap_get_log_level,"ax",@progbits
	.align	1
	.globl	coap_get_log_level
	.type	coap_get_log_level, @function
coap_get_log_level:
.LFB56:
.LM106:
	.cfi_startproc
.LM107:
.LM108:
	lui	a5,%hi(maxlog)
	lbu	a0,%lo(maxlog)(a5)
	ret
	.cfi_endproc
.LFE56:
	.size	coap_get_log_level, .-coap_get_log_level
	.section	.text.coap_set_log_level,"ax",@progbits
	.align	1
	.globl	coap_set_log_level
	.type	coap_set_log_level, @function
coap_set_log_level:
.LVL32:
.LFB57:
.LM109:
	.cfi_startproc
.LM110:
.LM111:
.LM112:
	li	a4,8
	mv	a5,a0
	bleu	a0,a4,.L28
	mv	a5,a4
.L28:
.LM113:
	lui	a4,%hi(maxlog)
	sb	a5,%lo(maxlog)(a4)
.LM114:
	ret
	.cfi_endproc
.LFE57:
	.size	coap_set_log_level, .-coap_set_log_level
	.section	.rodata.coap_log_level_desc.str1.4,"aMS",@progbits,1
	.align	2
.LC6:
	.string	"%4d"
	.section	.text.coap_log_level_desc,"ax",@progbits
	.align	1
	.globl	coap_log_level_desc
	.type	coap_log_level_desc, @function
coap_log_level_desc:
.LVL33:
.LFB58:
.LM115:
	.cfi_startproc
.LM116:
.LM117:
.LM118:
	li	a5,16
	bleu	a0,a5,.L30
.LM119:
	addi	sp,sp,-16
	.cfi_def_cfa_offset 16
	sw	s0,8(sp)
.LBB47:
.LBB48:
.LM120:
	lui	a2,%hi(.LC6)
	.cfi_offset 8, -8
	lui	s0,%hi(bad.16)
	mv	a3,a0
.LVL34:
.LM121:
.LBE48:
.LBI47:
.LM122:
.LBB49:
.LM123:
	addi	a2,a2,%lo(.LC6)
	addi	a0,s0,%lo(bad.16)
.LVL35:
.LM124:
	li	a1,8
.LBE49:
.LBE47:
.LM125:
	sw	ra,12(sp)
	.cfi_offset 1, -4
.LBB52:
.LBB50:
.LM126:
	call	snprintf
.LVL36:
.LM127:
.LM128:
.LBE50:
.LBE52:
.LM129:
	lw	ra,12(sp)
	.cfi_restore 1
.LBB53:
.LBB51:
.LM130:
	addi	a0,s0,%lo(bad.16)
.LBE51:
.LBE53:
.LM131:
	lw	s0,8(sp)
	.cfi_restore 8
	addi	sp,sp,16
	.cfi_def_cfa_offset 0
	jr	ra
.LVL37:
.L30:
.LM132:
.LM133:
	lui	a5,%hi(loglevels)
	slli	a0,a0,2
.LVL38:
.LM134:
	addi	a5,a5,%lo(loglevels)
	add	a5,a5,a0
	lw	a0,0(a5)
.LM135:
	ret
	.cfi_endproc
.LFE58:
	.size	coap_log_level_desc, .-coap_log_level_desc
	.section	.rodata.coap_print_ip_addr.str1.4,"aMS",@progbits,1
	.align	2
.LC7:
	.string	"buf"
	.align	2
.LC8:
	.string	"len"
	.section	.text.coap_print_ip_addr,"ax",@progbits
	.align	1
	.globl	coap_print_ip_addr
	.type	coap_print_ip_addr, @function
coap_print_ip_addr:
.LVL39:
.LFB62:
.LM136:
	.cfi_startproc
.LM137:
.LM138:
	addi	sp,sp,-16
	.cfi_def_cfa_offset 16
	sw	ra,12(sp)
	sw	s0,8(sp)
	.cfi_offset 1, -4
	.cfi_offset 8, -8
.LM139:
	bne	a1,zero,.L37
.LM140:
	lui	a3,%hi(.LC7)
	lui	a2,%hi(__func__.15)
.LVL40:
.LM141:
	addi	a3,a3,%lo(.LC7)
	addi	a2,a2,%lo(__func__.15)
	li	a1,525
.LVL41:
.L41:
.LBB56:
.LBB57:
.LM142:
	lui	a0,%hi(.LC2)
.LVL42:
.LM143:
	addi	a0,a0,%lo(.LC2)
	call	__assert_func
.LVL43:
.L37:
.LM144:
.LBE57:
.LBE56:
.LM145:
.LM146:
	bne	a2,zero,.L38
.LBB59:
.LBI56:
.LM147:
.LVL44:
.LBB58:
.LM148:
	lui	a3,%hi(.LC8)
	lui	a2,%hi(__func__.15)
.LVL45:
.LM149:
	addi	a3,a3,%lo(.LC8)
	addi	a2,a2,%lo(__func__.15)
	li	a1,526
.LVL46:
.LM150:
	j	.L41
.LVL47:
.L38:
.LM151:
.LBE58:
.LBE59:
.LM152:
	sb	zero,0(a1)
.LM153:
	li	a5,15
	mv	s0,a1
.LM154:
.LM155:
.LM156:
.LM157:
	bleu	a2,a5,.L39
.LVL48:
.LM158:
.LM159:
	addi	a0,a0,4
.LVL49:
.LM160:
	call	ip4addr_ntoa
.LVL50:
.LM161:
	mv	a1,a0
.LM162:
	li	a2,16
	mv	a0,s0
	call	memcpy
.LVL51:
.LM163:
.LM164:
.L39:
.LM165:
	lw	ra,12(sp)
	.cfi_restore 1
	mv	a0,s0
	lw	s0,8(sp)
	.cfi_restore 8
.LVL52:
.LM166:
	addi	sp,sp,16
	.cfi_def_cfa_offset 0
	jr	ra
	.cfi_endproc
.LFE62:
	.size	coap_print_ip_addr, .-coap_print_ip_addr
	.section	.rodata.coap_print_addr.str1.4,"aMS",@progbits,1
	.align	2
.LC9:
	.string	"[%s]:%d"
	.section	.text.coap_print_addr,"ax",@progbits
	.align	1
	.globl	coap_print_addr
	.type	coap_print_addr, @function
coap_print_addr:
.LVL53:
.LFB61:
.LM167:
	.cfi_startproc
.LM168:
.LM169:
.LM170:
	addi	sp,sp,-64
	.cfi_def_cfa_offset 64
	sw	s0,56(sp)
	sw	s2,48(sp)
	.cfi_offset 8, -8
	.cfi_offset 18, -16
	mv	s0,a1
	mv	s2,a2
.LM171:
	mv	a1,sp
.LVL54:
.LM172:
	li	a2,46
.LVL55:
.LM173:
	sw	ra,60(sp)
	sw	s1,52(sp)
	.cfi_offset 1, -4
	.cfi_offset 9, -12
.LM174:
	mv	s1,a0
.LM175:
	call	coap_print_ip_addr
.LVL56:
.LM176:
	lhu	a4,0(s1)
	lui	a2,%hi(.LC9)
	mv	a3,a0
	mv	a1,s2
	addi	a2,a2,%lo(.LC9)
	mv	a0,s0
	call	snprintf
.LVL57:
.LM177:
.LM178:
	mv	a0,s0
	call	strlen
.LVL58:
.LM179:
	lw	ra,60(sp)
	.cfi_restore 1
	lw	s0,56(sp)
	.cfi_restore 8
.LVL59:
.LM180:
	lw	s1,52(sp)
	.cfi_restore 9
.LVL60:
.LM181:
	lw	s2,48(sp)
	.cfi_restore 18
.LVL61:
.LM182:
	addi	sp,sp,64
	.cfi_def_cfa_offset 0
	jr	ra
	.cfi_endproc
.LFE61:
	.size	coap_print_addr, .-coap_print_addr
	.section	.rodata.coap_string_tls_version.str1.4,"aMS",@progbits,1
	.align	2
.LC10:
	.string	"TLS Library: None"
	.align	2
.LC11:
	.string	"TLS Library: TinyDTLS - runtime %lu.%lu.%lu, libcoap built for %lu.%lu.%lu"
	.align	2
.LC12:
	.string	"-dev"
	.align	2
.LC13:
	.string	""
	.align	2
.LC14:
	.string	"-beta"
	.align	2
.LC15:
	.string	"TLS Library: OpenSSL - runtime %lu.%lu.%lu%s%s, libcoap built for %lu.%lu.%lu%s%s"
	.align	2
.LC16:
	.string	"TLS Library: GnuTLS - runtime %lu.%lu.%lu, libcoap built for %lu.%lu.%lu"
	.align	2
.LC17:
	.string	"TLS Library: Mbed TLS - runtime %lu.%lu.%lu, libcoap built for %lu.%lu.%lu"
	.align	2
.LC18:
	.string	"TLS Library: wolfSSL - runtime %lu.%lu.%lu, libcoap built for %lu.%lu.%lu"
	.align	2
.LC19:
	.string	"Library type %d unknown"
	.section	.text.coap_string_tls_version,"ax",@progbits
	.align	1
	.globl	coap_string_tls_version
	.type	coap_string_tls_version, @function
coap_string_tls_version:
.LVL62:
.LFB70:
.LM183:
	.cfi_startproc
.LM184:
.LM185:
	addi	sp,sp,-96
	.cfi_def_cfa_offset 96
	sw	s2,80(sp)
	sw	s3,76(sp)
	sw	ra,92(sp)
	sw	s0,88(sp)
	sw	s1,84(sp)
	.cfi_offset 18, -16
	.cfi_offset 19, -20
	.cfi_offset 1, -4
	.cfi_offset 8, -8
	.cfi_offset 9, -12
.LM186:
	mv	s2,a0
	mv	s3,a1
.LM187:
	call	coap_get_tls_library_version
.LVL63:
.LM188:
.LM189:
.LM190:
.LM191:
.LM192:
.LM193:
	lbu	a3,8(a0)
.LM194:
	li	a5,5
	bgtu	a3,a5,.L45
	lui	a5,%hi(.L47)
	addi	a5,a5,%lo(.L47)
	slli	a3,a3,2
	add	a3,a3,a5
	lw	a5,0(a3)
	mv	s0,a0
	jr	a5
	.section	.rodata.coap_string_tls_version,"a",@progbits
	.align	2
	.align	2
.L47:
	.word	.L52
	.word	.L51
	.word	.L50
	.word	.L49
	.word	.L48
	.word	.L46
	.section	.text.coap_string_tls_version
.L52:
.LM195:
	lui	a2,%hi(.LC10)
	addi	a2,a2,%lo(.LC10)
	mv	a1,s3
	mv	a0,s2
.LVL64:
.LM196:
	call	snprintf
.LVL65:
.LM197:
.L53:
.LM198:
.LM199:
	lw	ra,92(sp)
	.cfi_remember_state
	.cfi_restore 1
	lw	s0,88(sp)
	.cfi_restore 8
	lw	s1,84(sp)
	.cfi_restore 9
	lw	s3,76(sp)
	.cfi_restore 19
.LVL66:
.LM200:
	mv	a0,s2
	lw	s2,80(sp)
	.cfi_restore 18
.LVL67:
.LM201:
	addi	sp,sp,96
	.cfi_def_cfa_offset 0
	jr	ra
.LVL68:
.L51:
	.cfi_restore_state
.LM202:
.LM203:
	lw	a2,16(a0)
.LM204:
	lw	a5,0(a0)
	lw	a3,4(a0)
.LM205:
	lw	a1,20(a0)
.LM206:
	srli	a7,a2,8
.LM207:
	srli	a6,a2,16
.LM208:
	andi	a2,a2,255
.LM209:
	srli	a4,a5,8
.LM210:
	srli	a0,a5,16
.LM211:
	slli	a1,a1,16
.LM212:
	slli	a3,a3,16
.LM213:
	sw	a2,0(sp)
	lui	a2,%hi(.LC11)
	andi	a7,a7,0xff
	add	a6,a1,a6
	andi	a5,a5,0xff
	andi	a4,a4,0xff
	add	a3,a3,a0
	addi	a2,a2,%lo(.LC11)
.L79:
.LM214:
	mv	a1,s3
	mv	a0,s2
	call	snprintf
.LVL69:
.LM215:
	j	.L53
.L50:
.LM216:
.LM217:
	lw	a5,0(a0)
	andi	a5,a5,15
.LM218:
	beq	a5,zero,.L54
	li	a4,15
	bne	a5,a4,.L58
.LM219:
	lui	a1,%hi(.LC13)
	addi	a1,a1,%lo(.LC13)
.L77:
.LM220:
	addi	a0,sp,48
	call	strcpy
.LVL70:
.LM221:
.L59:
.LM222:
.LM223:
	lw	a5,0(s0)
	lw	a4,4(s0)
.LM224:
	li	a3,0
.LM225:
	srli	a2,a5,4
	andi	a2,a2,255
	beq	a2,zero,.L60
.LM226:
	slli	a4,a4,28
	srli	a5,a5,4
	add	a5,a4,a5
.LM227:
	addi	a3,a5,96
.L60:
.LM228:
	lw	a5,16(s0)
.LM229:
	sb	a3,40(sp)
.LM230:
.LM231:
	sb	zero,41(sp)
.LM232:
.LM233:
	andi	a5,a5,15
	addi	s1,sp,56
.LM234:
	beq	a5,zero,.L62
	li	a4,15
	bne	a5,a4,.L66
.LM235:
	lui	a1,%hi(.LC13)
	addi	a1,a1,%lo(.LC13)
.L78:
.LM236:
	mv	a0,s1
	call	strcpy
.LVL71:
.LM237:
.L67:
.LM238:
.LM239:
	lw	a2,16(s0)
	lw	a0,20(s0)
.LM240:
	li	a5,0
.LM241:
	srli	a4,a2,4
	andi	a4,a4,255
	beq	a4,zero,.L68
.LM242:
	slli	a4,a0,28
	srli	a5,a2,4
	add	a5,a4,a5
.LM243:
	addi	a5,a5,96
.L68:
.LM244:
	addi	a6,sp,44
.LM245:
	lw	a1,0(s0)
	lw	a3,4(s0)
.LM246:
	sw	a6,12(sp)
.LM247:
	srli	a6,a2,12
.LM248:
	andi	a6,a6,0xff
	sw	a6,8(sp)
.LM249:
	slli	a0,a0,4
.LM250:
	srli	a6,a2,20
.LM251:
	srli	a2,a2,28
	add	a2,a0,a2
.LM252:
	sb	a5,44(sp)
.LM253:
.LM254:
	srli	a4,a1,20
.LM255:
	srli	a5,a1,12
.LM256:
	andi	a6,a6,0xff
.LM257:
	srli	a1,a1,28
.LM258:
	sw	a2,0(sp)
.LM259:
	slli	a3,a3,4
.LM260:
	lui	a2,%hi(.LC15)
	sw	a6,4(sp)
	add	a3,a3,a1
	sw	s1,16(sp)
	addi	a7,sp,48
	addi	a6,sp,40
	andi	a5,a5,0xff
	andi	a4,a4,0xff
	addi	a2,a2,%lo(.LC15)
	mv	a1,s3
	mv	a0,s2
.LM261:
	sb	zero,45(sp)
.LM262:
	call	snprintf
.LVL72:
.LM263:
	j	.L53
.L54:
.LM264:
	lui	a1,%hi(.LC12)
	addi	a1,a1,%lo(.LC12)
	j	.L77
.L58:
.LM265:
	lui	a1,%hi(.LC14)
	addi	a1,a1,%lo(.LC14)
	addi	a0,sp,48
	call	strcpy
.LVL73:
.LM266:
.LM267:
	lbu	a5,0(s0)
.LM268:
	sb	zero,54(sp)
.LM269:
	andi	a5,a5,15
.LM270:
	addi	a5,a5,48
.LM271:
	sb	a5,53(sp)
.LM272:
.LM273:
	j	.L59
.L62:
.LM274:
	lui	a1,%hi(.LC12)
	addi	a1,a1,%lo(.LC12)
	j	.L78
.L66:
.LM275:
	lui	a1,%hi(.LC14)
	addi	a1,a1,%lo(.LC14)
	mv	a0,s1
	call	strcpy
.LVL74:
.LM276:
.LM277:
	lbu	a5,16(s0)
.LM278:
	sb	zero,62(sp)
.LM279:
	andi	a5,a5,15
.LM280:
	addi	a5,a5,48
.LM281:
	sb	a5,61(sp)
.LM282:
.LM283:
	j	.L67
.L49:
.LM284:
.LM285:
	lw	a2,16(a0)
.LM286:
	lw	a5,0(a0)
	lw	a3,4(a0)
.LM287:
	lw	a1,20(a0)
.LM288:
	srli	a7,a2,8
.LM289:
	srli	a6,a2,16
.LM290:
	andi	a2,a2,255
.LM291:
	srli	a4,a5,8
.LM292:
	srli	a0,a5,16
.LM293:
	slli	a1,a1,16
.LM294:
	slli	a3,a3,16
.LM295:
	sw	a2,0(sp)
	lui	a2,%hi(.LC16)
	andi	a7,a7,0xff
	add	a6,a1,a6
	andi	a5,a5,0xff
	andi	a4,a4,0xff
	add	a3,a3,a0
	addi	a2,a2,%lo(.LC16)
	j	.L79
.L48:
.LM296:
.LM297:
	lw	a2,16(a0)
.LM298:
	lw	a1,0(a0)
	lw	a3,4(a0)
.LM299:
	lw	a0,20(a0)
.LM300:
	srli	a7,a2,16
.LM301:
	srli	a6,a2,24
.LM302:
	srli	a2,a2,8
.LM303:
	andi	a2,a2,0xff
.LM304:
	srli	a5,a1,8
.LM305:
	srli	a4,a1,16
.LM306:
	slli	a0,a0,8
.LM307:
	slli	a3,a3,8
	srli	a1,a1,24
.LM308:
	sw	a2,0(sp)
	lui	a2,%hi(.LC17)
	andi	a7,a7,0xff
	add	a6,a0,a6
	andi	a5,a5,0xff
	andi	a4,a4,0xff
	add	a3,a3,a1
	addi	a2,a2,%lo(.LC17)
	j	.L79
.L46:
.LM309:
.LM310:
	lw	a2,16(a0)
	lw	a6,20(a0)
.LM311:
	lw	a5,0(a0)
	lw	a3,4(a0)
.LM312:
	slli	a4,a6,20
	srli	a7,a2,12
	add	a7,a4,a7
.LM313:
	li	a4,4096
	addi	a4,a4,-1
.LM314:
	slli	a0,a3,20
.LM315:
	srli	t1,a2,24
.LM316:
	srli	a1,a5,12
.LM317:
	and	a2,a2,a4
.LM318:
	add	a1,a0,a1
.LM319:
	slli	a6,a6,8
.LM320:
	srli	a0,a5,24
	slli	a3,a3,8
.LM321:
	sw	a2,0(sp)
	lui	a2,%hi(.LC18)
	and	a7,a7,a4
	and	a5,a5,a4
	add	a6,a6,t1
	and	a4,a1,a4
	add	a3,a3,a0
	addi	a2,a2,%lo(.LC18)
	j	.L79
.LVL75:
.L45:
.LM322:
	lui	a2,%hi(.LC19)
	addi	a2,a2,%lo(.LC19)
	mv	a1,s3
	mv	a0,s2
.LVL76:
.LM323:
	call	snprintf
.LVL77:
.LM324:
	j	.L53
	.cfi_endproc
.LFE70:
	.size	coap_string_tls_version, .-coap_string_tls_version
	.section	.rodata.coap_string_tls_support.str1.4,"aMS",@progbits,1
	.align	2
.LC20:
	.string	"no "
	.align	2
.LC21:
	.string	"No "
	.align	2
.LC22:
	.string	"Have "
	.align	2
.LC23:
	.string	"(No DTLS or TLS support)"
	.align	2
.LC24:
	.string	"(%sDTLS and %sTLS support; %sPSK, %sPKI, %sPKCS11, %sRPK and %sCID support)\n(%sOSCORE)\n(%sWebSockets)"
	.section	.text.coap_string_tls_support,"ax",@progbits
	.align	1
	.globl	coap_string_tls_support
	.type	coap_string_tls_support, @function
coap_string_tls_support:
.LVL78:
.LFB71:
.LM325:
	.cfi_startproc
.LM326:
.LM327:
	addi	sp,sp,-80
	.cfi_def_cfa_offset 80
	sw	a1,28(sp)
	sw	ra,76(sp)
	sw	s0,72(sp)
	sw	s1,68(sp)
	sw	s2,64(sp)
	sw	s3,60(sp)
	sw	s4,56(sp)
	sw	s5,52(sp)
	sw	s6,48(sp)
	sw	s7,44(sp)
	sw	s8,40(sp)
	.cfi_offset 1, -4
	.cfi_offset 8, -8
	.cfi_offset 9, -12
	.cfi_offset 18, -16
	.cfi_offset 19, -20
	.cfi_offset 20, -24
	.cfi_offset 21, -28
	.cfi_offset 22, -32
	.cfi_offset 23, -36
	.cfi_offset 24, -40
.LM328:
	mv	s1,a0
.LM329:
	call	coap_tls_is_supported
.LVL79:
.LM330:
	mv	s0,a0
.LVL80:
.LM331:
.LM332:
	call	coap_dtls_is_supported
.LVL81:
	mv	s2,a0
.LVL82:
.LM333:
.LM334:
	call	coap_dtls_psk_is_supported
.LVL83:
.LM335:
	mv	s3,a0
.LVL84:
.LM336:
.LM337:
	call	coap_dtls_pki_is_supported
.LVL85:
.LM338:
	mv	s4,a0
.LVL86:
.LM339:
.LM340:
	call	coap_dtls_pkcs11_is_supported
.LVL87:
.LM341:
	mv	s5,a0
.LVL88:
.LM342:
.LM343:
	call	coap_dtls_rpk_is_supported
.LVL89:
.LM344:
	mv	s6,a0
.LVL90:
.LM345:
.LM346:
	call	coap_dtls_cid_is_supported
.LVL91:
.LM347:
	mv	s7,a0
.LVL92:
.LM348:
.LM349:
	call	coap_oscore_is_supported
.LVL93:
.LM350:
	mv	s8,a0
.LVL94:
.LM351:
.LM352:
	call	coap_ws_is_supported
.LVL95:
.LM353:
.LM354:
	lw	a1,28(sp)
	bne	s2,zero,.L81
.LM355:
	bne	s0,zero,.L91
.LM356:
	lui	a2,%hi(.LC23)
	addi	a2,a2,%lo(.LC23)
	mv	a0,s1
.LVL96:
.LM357:
	call	snprintf
.LVL97:
.LM358:
.L83:
.LM359:
	lw	ra,76(sp)
	.cfi_remember_state
	.cfi_restore 1
	lw	s0,72(sp)
	.cfi_restore 8
.LVL98:
.LM360:
	lw	s2,64(sp)
	.cfi_restore 18
.LVL99:
.LM361:
	lw	s3,60(sp)
	.cfi_restore 19
.LVL100:
.LM362:
	lw	s4,56(sp)
	.cfi_restore 20
.LVL101:
.LM363:
	lw	s5,52(sp)
	.cfi_restore 21
.LVL102:
.LM364:
	lw	s6,48(sp)
	.cfi_restore 22
.LVL103:
.LM365:
	lw	s7,44(sp)
	.cfi_restore 23
.LVL104:
.LM366:
	lw	s8,40(sp)
	.cfi_restore 24
.LVL105:
.LM367:
	mv	a0,s1
	lw	s1,68(sp)
	.cfi_restore 9
.LVL106:
.LM368:
	addi	sp,sp,80
	.cfi_def_cfa_offset 0
.LVL107:
.LM369:
	jr	ra
.LVL108:
.L81:
	.cfi_restore_state
.LM370:
	lui	a3,%hi(.LC13)
.LM371:
	addi	a3,a3,%lo(.LC13)
.LM372:
	mv	a4,a3
.LM373:
	bne	s0,zero,.L82
.LM374:
	lui	a4,%hi(.LC20)
	addi	a4,a4,%lo(.LC20)
	j	.L82
.L91:
.LM375:
	lui	a3,%hi(.LC21)
.LM376:
	lui	a4,%hi(.LC13)
.LM377:
	addi	a3,a3,%lo(.LC21)
.LM378:
	addi	a4,a4,%lo(.LC13)
.L82:
.LM379:
	beq	s3,zero,.L93
.LM380:
	lui	a5,%hi(.LC13)
	addi	a5,a5,%lo(.LC13)
.L84:
.LM381:
	beq	s4,zero,.L94
.LM382:
	lui	a6,%hi(.LC13)
	addi	a6,a6,%lo(.LC13)
.L85:
.LM383:
	beq	s5,zero,.L95
.LM384:
	lui	a7,%hi(.LC13)
	addi	a7,a7,%lo(.LC13)
.L86:
.LM385:
	beq	s6,zero,.L96
.LM386:
	lui	a2,%hi(.LC13)
	addi	a2,a2,%lo(.LC13)
.L87:
.LM387:
	beq	s7,zero,.L97
.LM388:
	lui	t1,%hi(.LC13)
	addi	t1,t1,%lo(.LC13)
.L88:
.LM389:
	beq	s8,zero,.L98
.LM390:
	lui	t3,%hi(.LC22)
	addi	t3,t3,%lo(.LC22)
.L89:
.LM391:
	beq	a0,zero,.L99
.LM392:
	lui	a0,%hi(.LC22)
.LVL109:
.LM393:
	addi	a0,a0,%lo(.LC22)
.L90:
.LM394:
	sw	a2,0(sp)
	lui	a2,%hi(.LC24)
	sw	a0,12(sp)
	sw	t3,8(sp)
	sw	t1,4(sp)
	addi	a2,a2,%lo(.LC24)
	mv	a0,s1
	call	snprintf
.LVL110:
.LM395:
.LM396:
	j	.L83
.LVL111:
.L93:
.LM397:
	lui	a5,%hi(.LC20)
	addi	a5,a5,%lo(.LC20)
	j	.L84
.L94:
.LM398:
	lui	a6,%hi(.LC20)
	addi	a6,a6,%lo(.LC20)
	j	.L85
.L95:
.LM399:
	lui	a7,%hi(.LC20)
	addi	a7,a7,%lo(.LC20)
	j	.L86
.L96:
.LM400:
	lui	a2,%hi(.LC20)
	addi	a2,a2,%lo(.LC20)
	j	.L87
.L97:
.LM401:
	lui	t1,%hi(.LC20)
	addi	t1,t1,%lo(.LC20)
	j	.L88
.L98:
.LM402:
	lui	t3,%hi(.LC21)
	addi	t3,t3,%lo(.LC21)
	j	.L89
.L99:
.LM403:
	lui	a0,%hi(.LC21)
.LVL112:
.LM404:
	addi	a0,a0,%lo(.LC21)
	j	.L90
	.cfi_endproc
.LFE71:
	.size	coap_string_tls_support, .-coap_string_tls_support
	.section	.text.coap_set_log_handler,"ax",@progbits
	.align	1
	.globl	coap_set_log_handler
	.type	coap_set_log_handler, @function
coap_set_log_handler:
.LVL113:
.LFB72:
.LM405:
	.cfi_startproc
.LM406:
.LM407:
	lui	a5,%hi(log_handler)
	sw	a0,%lo(log_handler)(a5)
.LM408:
	ret
	.cfi_endproc
.LFE72:
	.size	coap_set_log_handler, .-coap_set_log_handler
	.section	.rodata.coap_log_impl.str1.4,"aMS",@progbits,1
	.align	2
.LC25:
	.string	"%u.%03u"
	.align	2
.LC26:
	.string	"%.*s "
	.align	2
.LC27:
	.string	"%s "
	.section	.text.coap_log_impl,"ax",@progbits
	.align	1
	.globl	coap_log_impl
	.type	coap_log_impl, @function
coap_log_impl:
.LVL114:
.LFB73:
.LM409:
	.cfi_startproc
.LM410:
.LM411:
	addi	sp,sp,-112
	.cfi_def_cfa_offset 112
	sw	s1,68(sp)
	.cfi_offset 9, -44
.LM412:
	lui	s1,%hi(log_handler)
.LM413:
	sw	a5,100(sp)
.LM414:
	lw	a5,%lo(log_handler)(s1)
.LM415:
	sw	s0,72(sp)
	sw	s4,56(sp)
	sw	s5,52(sp)
	sw	ra,76(sp)
	sw	s2,64(sp)
	sw	s3,60(sp)
	.cfi_offset 8, -40
	.cfi_offset 20, -56
	.cfi_offset 21, -60
	.cfi_offset 1, -36
	.cfi_offset 18, -48
	.cfi_offset 19, -52
.LM416:
	sw	a2,88(sp)
	sw	a3,92(sp)
	sw	a4,96(sp)
	sw	a6,104(sp)
	sw	a7,108(sp)
	mv	s4,a0
	mv	s5,a1
	addi	s0,sp,88
.LM417:
	beq	a5,zero,.L103
.LBB74:
.LM418:
.LM419:
.LM420:
	sw	s0,16(sp)
.LM421:
	mv	a3,s0
	lui	s0,%hi(message.0)
	mv	a2,a1
	addi	a0,s0,%lo(message.0)
.LVL115:
.LM422:
	li	a1,128
.LVL116:
.LM423:
	call	vsnprintf
.LVL117:
.LM424:
.LM425:
	lw	a5,%lo(log_handler)(s1)
	addi	a1,s0,%lo(message.0)
	mv	a0,s4
	jalr	a5
.LVL118:
.L102:
.LBE74:
.LM426:
	lw	ra,76(sp)
	.cfi_remember_state
	.cfi_restore 1
	lw	s0,72(sp)
	.cfi_restore 8
	lw	s1,68(sp)
	.cfi_restore 9
	lw	s2,64(sp)
	.cfi_restore 18
	lw	s3,60(sp)
	.cfi_restore 19
	lw	s4,56(sp)
	.cfi_restore 20
.LVL119:
.LM427:
	lw	s5,52(sp)
	.cfi_restore 21
.LVL120:
.LM428:
	addi	sp,sp,112
	.cfi_def_cfa_offset 0
	jr	ra
.LVL121:
.L103:
	.cfi_restore_state
.LBB75:
.LM429:
.LM430:
.LM431:
.LM432:
.LM433:
.LM434:
.LM435:
	lui	a5,%hi(_impure_ptr)
.LM436:
	li	a4,2
.LM437:
	lw	a5,%lo(_impure_ptr)(a5)
.LM438:
	bgtu	a0,a4,.L105
.LM439:
	lw	s3,12(a5)
.LVL122:
.L106:
.LM440:
.LBB76:
.LBI76:
.LM441:
.LBB77:
.LM442:
.LM443:
	call	sys_now
.LVL123:
.LM444:
.LBE77:
.LBE76:
.LBB79:
.LBB80:
.LBB81:
.LBB82:
.LM445:
	li	s1,1000
	mulhu	a1,a0,s1
.LBE82:
.LBE81:
.LBE80:
.LBE79:
.LBB88:
.LBB78:
.LM446:
	mv	s2,a0
.LVL124:
.LM447:
.LBE78:
.LBE88:
.LM448:
.LBB89:
.LBI79:
.LM449:
.LBB87:
.LM450:
.LBB84:
.LBI84:
.LM451:
.LBB85:
.LM452:
.LM453:
.LBE85:
.LBE84:
.LBB86:
.LBI81:
.LM454:
.LBB83:
.LM455:
.LM456:
.LBE83:
.LBE86:
.LM457:
	li	a2,999424
	addi	a2,a2,576
	li	a3,0
	mul	a0,a0,s1
.LVL125:
.LM458:
	call	__umoddi3
.LVL126:
.LM459:
	li	a2,1000
	li	a3,0
	call	__udivdi3
.LVL127:
.LM460:
	divu	a3,s2,s1
	lui	a2,%hi(.LC25)
.LM461:
	mv	a4,a0
.LM462:
	li	a1,32
	addi	a2,a2,%lo(.LC25)
	addi	a0,sp,16
.LVL128:
.LM463:
	call	snprintf
.LVL129:
.LM464:
	mv	a1,a0
.LVL130:
.LM465:
.LBE87:
.LBE89:
.LM466:
.LM467:
	beq	a0,zero,.L107
.LM468:
.LM469:
	lui	a0,%hi(.LC26)
.LVL131:
.LM470:
	addi	a2,sp,16
	addi	a0,a0,%lo(.LC26)
	call	printf
.LVL132:
.L107:
.LM471:
.LM472:
.LM473:
	mv	a0,s4
	call	coap_log_level_desc
.LVL133:
	mv	a1,a0
.LM474:
	lui	a0,%hi(.LC27)
	addi	a0,a0,%lo(.LC27)
	call	printf
.LVL134:
.LM475:
.LM476:
.LM477:
	mv	a2,s0
	mv	a1,s5
	mv	a0,s3
.LM478:
	sw	s0,12(sp)
.LM479:
	call	vfprintf
.LVL135:
.LM480:
.LM481:
.LM482:
.LBE75:
.LM483:
	j	.L102
.LVL136:
.L105:
.LBB90:
.LM484:
	lw	s3,8(a5)
	j	.L106
.LBE90:
	.cfi_endproc
.LFE73:
	.size	coap_log_impl, .-coap_log_impl
	.section	.rodata.coap_show_pdu.str1.4,"aMS",@progbits,1
	.align	2
.LC28:
	.string	","
	.align	2
.LC29:
	.string	"Bad-CSM-Option"
	.align	2
.LC30:
	.string	"Custody"
	.align	2
.LC31:
	.string	"v:%d t:%s c:%s i:%04x {"
	.align	2
.LC32:
	.string	"WebSocket: type != CON\n"
	.align	2
.LC33:
	.string	"v:WebSocket c:%s {"
	.align	2
.LC34:
	.string	"Reliable: type != CON\n"
	.align	2
.LC35:
	.string	"v:Reliable c:%s {"
	.align	2
.LC36:
	.string	"%02x"
	.align	2
.LC37:
	.string	"}"
	.align	2
.LC38:
	.string	" ["
	.align	2
.LC39:
	.string	"%u"
	.align	2
.LC40:
	.string	"%s"
	.align	2
.LC41:
	.string	"%d"
	.align	2
.LC42:
	.string	"%u/%c/BERT(%zu)"
	.align	2
.LC43:
	.string	"%u/%c/BERT"
	.align	2
.LC44:
	.string	"%u/%c/%u"
	.align	2
.LC45:
	.string	"grp"
	.align	2
.LC46:
	.string	"%spIV=0x"
	.align	2
.LC47:
	.string	"%skc=0x"
	.align	2
.LC48:
	.string	"%skid=0x"
	.align	2
.LC49:
	.string	"0x"
	.align	2
.LC50:
	.string	" %s:%.*s"
	.align	2
.LC51:
	.string	" ]"
	.align	2
.LC52:
	.string	" :: "
	.align	2
.LC53:
	.string	"data length %zu (data suppressed)\n"
	.align	2
.LC54:
	.string	"binary data length %zu\n"
	.align	2
.LC55:
	.string	"<<"
	.align	2
.LC56:
	.string	">>"
	.align	2
.LC57:
	.string	"\n"
	.align	2
.LC58:
	.string	"%c "
	.section	.text.coap_show_pdu,"ax",@progbits
	.align	1
	.globl	coap_show_pdu
	.type	coap_show_pdu, @function
coap_show_pdu:
.LVL137:
.LFB68:
.LM485:
	.cfi_startproc
.LM486:
.LM487:
.LM488:
.LM489:
.LM490:
.LM491:
.LM492:
.LM493:
.LM494:
.LM495:
.LM496:
.LM497:
.LM498:
.LM499:
.LM500:
.LBB112:
.LBI112:
.LM501:
.LBB113:
.LM502:
.LBE113:
.LBE112:
.LM503:
	addi	sp,sp,-128
	.cfi_def_cfa_offset 128
	sw	s7,92(sp)
	.cfi_offset 23, -36
.LBB115:
.LBB114:
.LM504:
	lui	s7,%hi(maxlog)
	lbu	a5,%lo(maxlog)(s7)
.LBE114:
.LBE115:
.LM505:
	sw	ra,124(sp)
	sw	s0,120(sp)
	sw	s1,116(sp)
	sw	s2,112(sp)
	sw	s3,108(sp)
	sw	s4,104(sp)
	sw	s5,100(sp)
	sw	s6,96(sp)
	sw	s8,88(sp)
	sw	s9,84(sp)
	sw	s10,80(sp)
	sw	s11,76(sp)
	.cfi_offset 1, -4
	.cfi_offset 8, -8
	.cfi_offset 9, -12
	.cfi_offset 18, -16
	.cfi_offset 19, -20
	.cfi_offset 20, -24
	.cfi_offset 21, -28
	.cfi_offset 22, -32
	.cfi_offset 24, -40
	.cfi_offset 25, -44
	.cfi_offset 26, -48
	.cfi_offset 27, -52
.LM506:
	bgtu	a0,a5,.L112
.LM507:
	lw	a4,76(a1)
	sw	a0,12(sp)
.LM508:
.LM509:
	lbu	a3,0(a1)
	mv	s3,a1
	lui	s2,%hi(outbuf.14)
.LM510:
	beq	a4,zero,.L114
.LM511:
	lbu	a4,0(a4)
.LM512:
	li	a0,1
.LVL138:
.LM513:
	addi	a2,a4,-1
.LM514:
	andi	a2,a2,0xff
	bgtu	a2,a0,.L115
.L114:
.LM515:
.LVL139:
.LBB116:
.LBI116:
.LM516:
.LBB117:
.LM517:
.LM518:
.LM519:
	li	a2,4
.LM520:
	lui	a4,%hi(types.12)
.LBE117:
.LBE116:
.LM521:
	mv	a5,a3
.LBB120:
.LBB118:
.LM522:
	bleu	a3,a2,.L116
	mv	a5,a2
.L116:
	slli	a5,a5,16
	srli	a5,a5,16
.LM523:
	addi	a4,a4,%lo(types.12)
	slli	a5,a5,2
	add	a5,a4,a5
	lw	a4,0(a5)
.LBE118:
.LBE120:
.LM524:
	lbu	a0,1(s3)
.LBB121:
.LBB119:
.LM525:
	sw	a4,8(sp)
.LVL140:
.LM526:
.LBE119:
.LBE121:
.LM527:
	call	msg_code_string
.LVL141:
.LM528:
	lw	a6,4(s3)
	lw	a4,8(sp)
	lui	a2,%hi(.LC31)
	mv	a5,a0
	li	a3,1
	addi	a2,a2,%lo(.LC31)
	li	a1,128
	addi	a0,s2,%lo(outbuf.14)
	call	snprintf
.LVL142:
.L117:
.LM529:
	lui	s0,%hi(outbuf.14)
.LM530:
	lui	s4,%hi(.LC36)
.LM531:
	li	s1,0
	addi	s0,s0,%lo(outbuf.14)
.LM532:
	li	s8,128
.LM533:
	addi	s4,s4,%lo(.LC36)
.LVL143:
.L120:
.LM534:
	lw	a5,24(s3)
.LM535:
	addi	a0,s2,%lo(outbuf.14)
.LM536:
	bgtu	a5,s1,.L122
.LM537:
.LM538:
	call	strlen
.LVL144:
.LM539:
.LM540:
	li	s1,128
.LVL145:
.LM541:
	lui	a2,%hi(.LC37)
	sub	a1,s1,a0
	addi	a2,a2,%lo(.LC37)
	add	a0,s0,a0
.LVL146:
.LM542:
	call	snprintf
.LVL147:
.LM543:
	li	a2,0
	addi	a1,sp,40
	mv	a0,s3
	call	coap_option_iterator_init
.LVL148:
.LM544:
.LM545:
	mv	a0,s0
	call	strlen
.LVL149:
.LM546:
	lui	a2,%hi(.LC38)
	sub	a1,s1,a0
	addi	a2,a2,%lo(.LC38)
	add	a0,s0,a0
.LVL150:
.LM547:
	call	snprintf
.LVL151:
.LM548:
.LM549:
	lui	a5,%hi(.LC28)
	addi	a5,a5,%lo(.LC28)
	sw	a5,20(sp)
.LBB122:
.LBB123:
.LM550:
	lui	a5,%hi(.LC39)
.LBE123:
.LBE122:
.LM551:
	lui	s1,%hi(buf.13)
.LBB130:
.LBB124:
.LM552:
	addi	a5,a5,%lo(.LC39)
.LBE124:
.LBE130:
.LM553:
	li	s8,0
.LM554:
	li	s4,-1
.LM555:
	li	s9,0
.LM556:
	li	s11,0
.LM557:
	addi	s5,s1,%lo(buf.13)
.LBB131:
.LBB125:
.LM558:
	sw	a5,24(sp)
.LVL152:
.L123:
.LM559:
.LBE125:
.LBE131:
.LM560:
.LM561:
	addi	a0,sp,40
	call	coap_option_next
.LVL153:
	sw	a0,8(sp)
.LVL154:
.LM562:
	bne	a0,zero,.L186
.LM563:
.LM564:
	addi	a0,s2,%lo(outbuf.14)
.LVL155:
.LM565:
	call	strlen
.LVL156:
.LM566:
.LM567:
	li	s5,128
.LM568:
	lui	a2,%hi(.LC51)
	sub	a1,s5,a0
	addi	a2,a2,%lo(.LC51)
	add	a0,s0,a0
.LVL157:
.LM569:
	call	snprintf
.LVL158:
.LM570:
.LM571:
	addi	a2,sp,36
	addi	a1,sp,32
	mv	a0,s3
	call	coap_get_data
.LVL159:
	lui	s1,%hi(use_fprintf_for_show_pdu)
.LM572:
	beq	a0,zero,.L188
.LM573:
.LM574:
	lui	a5,%hi(enable_data_for_show_pdu)
.LM575:
	lw	a5,%lo(enable_data_for_show_pdu)(a5)
	lui	s3,%hi(.LC52)
.LVL160:
.LM576:
	mv	a0,s0
.LM577:
	bne	a5,zero,.L189
.LM578:
.LM579:
	call	strlen
.LVL161:
.LM580:
	sub	a1,s5,a0
	addi	a2,s3,%lo(.LC52)
	add	a0,s0,a0
.LVL162:
.LM581:
	call	snprintf
.LVL163:
.LM582:
.LM583:
	mv	a0,s0
	call	strlen
.LVL164:
.LM584:
	lw	a3,32(sp)
	lui	a2,%hi(.LC53)
	sub	a1,s5,a0
	addi	a2,a2,%lo(.LC53)
	add	a0,s0,a0
.LVL165:
.LM585:
	call	snprintf
.LVL166:
.L312:
.LM586:
.LM587:
.LM588:
	lw	a5,%lo(use_fprintf_for_show_pdu)(s1)
	beq	a5,zero,.L190
.LM589:
.LM590:
	lui	a0,%hi(.LC40)
	addi	a1,s2,%lo(outbuf.14)
	addi	a0,a0,%lo(.LC40)
	call	printf
.LVL167:
.LM591:
.L112:
.LM592:
	lw	ra,124(sp)
	.cfi_remember_state
	.cfi_restore 1
	lw	s0,120(sp)
	.cfi_restore 8
	lw	s1,116(sp)
	.cfi_restore 9
	lw	s2,112(sp)
	.cfi_restore 18
	lw	s3,108(sp)
	.cfi_restore 19
	lw	s4,104(sp)
	.cfi_restore 20
	lw	s5,100(sp)
	.cfi_restore 21
	lw	s6,96(sp)
	.cfi_restore 22
	lw	s7,92(sp)
	.cfi_restore 23
	lw	s8,88(sp)
	.cfi_restore 24
	lw	s9,84(sp)
	.cfi_restore 25
	lw	s10,80(sp)
	.cfi_restore 26
	lw	s11,76(sp)
	.cfi_restore 27
	addi	sp,sp,128
	.cfi_def_cfa_offset 0
	jr	ra
.LVL168:
.L115:
	.cfi_restore_state
.LM593:
.LM594:
	addi	a4,a4,-5
.LM595:
	snez	a5,a5
.LM596:
	snez	a3,a3
.LM597:
	andi	a4,a4,0xff
.LM598:
	and	a5,a5,a3
.LM599:
	bgtu	a4,a0,.L118
.LM600:
.LM601:
.LM602:
.LM603:
	beq	a5,zero,.L119
.LM604:
	lui	a1,%hi(.LC32)
.LVL169:
.LM605:
	addi	a1,a1,%lo(.LC32)
	call	coap_log_impl
.LVL170:
.L119:
.LM606:
.LM607:
	lbu	a0,1(s3)
	call	msg_code_string
.LVL171:
.LM608:
	lui	a2,%hi(.LC33)
.LM609:
	mv	a3,a0
.LM610:
	addi	a2,a2,%lo(.LC33)
.L301:
.LM611:
	li	a1,128
	addi	a0,s2,%lo(outbuf.14)
	call	snprintf
.LVL172:
	j	.L117
.LVL173:
.L118:
.LM612:
.LM613:
.LM614:
.LM615:
	beq	a5,zero,.L121
.LM616:
	lui	a1,%hi(.LC34)
.LVL174:
.LM617:
	addi	a1,a1,%lo(.LC34)
	call	coap_log_impl
.LVL175:
.L121:
.LM618:
.LM619:
	lbu	a0,1(s3)
	call	msg_code_string
.LVL176:
.LM620:
	lui	a2,%hi(.LC35)
.LM621:
	mv	a3,a0
.LM622:
	addi	a2,a2,%lo(.LC35)
	j	.L301
.LVL177:
.L122:
.LM623:
.LM624:
	call	strlen
.LVL178:
.LM625:
.LM626:
	lw	a5,28(s3)
.LM627:
	sub	a1,s8,a0
	mv	a2,s4
.LM628:
	add	a5,a5,s1
.LM629:
	lbu	a3,0(a5)
	add	a0,s0,a0
.LVL179:
.LM630:
	addi	s1,s1,1
.LVL180:
.LM631:
	call	snprintf
.LVL181:
.LM632:
	j	.L120
.LVL182:
.L186:
.LM633:
.LM634:
	sb	zero,0(s5)
.LM635:
.LM636:
	beq	s9,zero,.L124
.LM637:
.LM638:
	addi	a0,s2,%lo(outbuf.14)
.LVL183:
.LM639:
	call	strlen
.LVL184:
.LM640:
	lw	a2,20(sp)
	li	a1,128
	sub	a1,a1,a0
	add	a0,s0,a0
.LVL185:
.LM641:
	call	snprintf
.LVL186:
.L124:
.LM642:
.LM643:
	lbu	a3,1(s3)
.LM644:
	li	a5,225
	bne	a3,a5,.L125
.LM645:
	lhu	a5,44(sp)
	andi	a5,a5,-5
.L311:
.LM646:
	li	a4,2
.LM647:
	li	s11,0
.LVL187:
.LM648:
	bne	a5,a4,.L126
.L307:
.LM649:
.LM650:
	lw	a0,8(sp)
	call	coap_opt_value
.LVL188:
	mv	s9,a0
.LM651:
	lw	a0,8(sp)
	call	coap_opt_length
.LVL189:
	mv	a1,a0
.LM652:
	mv	a0,s9
	call	coap_decode_var_bytes
.LVL190:
.LM653:
	lui	a2,%hi(.LC39)
.LM654:
	mv	a3,a0
.LM655:
	addi	a2,a2,%lo(.LC39)
	j	.L304
.LVL191:
.L125:
.LM656:
.LM657:
	addi	a5,a3,30
.LM658:
	andi	a5,a5,0xff
	li	a4,1
	bleu	a5,a4,.L212
.LM659:
.LM660:
	li	a2,228
.LM661:
	lhu	a5,44(sp)
.LM662:
	bne	a3,a2,.L127
.LM663:
	li	a4,2
	beq	a5,a4,.L128
	li	a4,4
	beq	a5,a4,.L307
.L212:
.LM664:
	li	s11,0
.LVL192:
.LM665:
	j	.L126
.LVL193:
.L128:
.LM666:
.LM667:
	lw	a0,8(sp)
	call	coap_opt_value
.LVL194:
	mv	s9,a0
.LM668:
	lw	a0,8(sp)
	call	coap_opt_length
.LVL195:
	mv	a1,a0
.LM669:
	li	a4,0
.L308:
.LM670:
	li	a3,128
	addi	a2,s1,%lo(buf.13)
	mv	a0,s9
	call	print_readable
.LVL196:
	j	.L303
.L127:
.LM671:
.LM672:
	li	a2,229
	beq	a3,a2,.L311
.LM673:
	li	a3,28
	bgtu	a5,a3,.L131
	li	a3,11
	bgtu	a5,a3,.L132
	li	a2,9
	beq	a5,a2,.L133
	bgtu	a5,a2,.L134
	li	a3,4
	beq	a5,a3,.L135
	bgtu	a5,a3,.L136
	beq	a5,a4,.L135
	addi	a4,a5,-3
.L302:
	snez	a4,a4
	j	.L145
.L132:
	addi	a3,a5,-12
	sll	a4,a4,a3
	li	a3,65536
	addi	a3,a3,20
	and	a3,a4,a3
	bne	a3,zero,.L138
	li	s9,36864
	addi	s9,s9,-1920
	and	s9,a4,s9
	bne	s9,zero,.L139
	andi	a4,a4,33
	beq	a4,zero,.L141
.LM674:
.LM675:
	lw	a0,8(sp)
	call	coap_opt_value
.LVL197:
	mv	s4,a0
.LVL198:
.LM676:
	lw	a0,8(sp)
	call	coap_opt_length
.LVL199:
	mv	a1,a0
.LM677:
	mv	a0,s4
	call	coap_decode_var_bytes
.LVL200:
	lui	a5,%hi(formats.8)
	addi	a5,a5,%lo(formats.8)
	mv	s4,a0
.LVL201:
.LM678:
.LBB132:
.LBI132:
.LM679:
.LBB133:
.LM680:
.LM681:
.LM682:
.LM683:
.LM684:
	mv	a4,a5
	li	a3,31
.LVL202:
.L147:
.LM685:
.LM686:
	lw	a2,0(a5)
	bne	s4,a2,.L146
.LM687:
.LM688:
	slli	s9,s9,3
.LVL203:
.LM689:
	add	a4,a4,s9
	lw	a3,4(a4)
	lui	a2,%hi(.LC40)
	addi	a2,a2,%lo(.LC40)
.LVL204:
.L304:
.LM690:
	li	a1,128
	addi	a0,s1,%lo(buf.13)
	call	snprintf
.LVL205:
.L303:
.LM691:
	mv	s11,a0
.LVL206:
.L126:
.LM692:
.LBE133:
.LBE132:
.LM693:
.LM694:
	addi	a0,s2,%lo(outbuf.14)
	call	strlen
.LVL207:
.LM695:
.LM696:
	lbu	a4,1(s3)
.LM697:
	li	s9,128
.LBB135:
.LBB126:
.LM698:
	li	a5,225
.LBE126:
.LBE135:
.LM699:
	lhu	a3,44(sp)
.LVL208:
.LBB136:
.LBI122:
.LM700:
.LBB127:
.LM701:
.LM702:
.LM703:
.LM704:
.LM705:
.LM706:
.LM707:
.LM708:
.LM709:
.LBE127:
.LBE136:
.LM710:
	add	s6,s0,a0
.LM711:
	sub	s9,s9,a0
.LBB137:
.LBB128:
.LM712:
	bne	a4,a5,.L176
.LVL209:
.LM713:
.LM714:
.LM715:
	li	a5,2
	beq	a3,a5,.L218
.LM716:
.LVL210:
.LM717:
.LM718:
.LM719:
	li	a4,4
.LVL211:
.LM720:
	beq	a3,a4,.L219
.LM721:
.LVL212:
.LM722:
.LM723:
.LM724:
	li	a4,6
	bne	a3,a4,.L178
.LVL213:
.L177:
.LM725:
.LM726:
	lui	a4,%hi(options_csm.7)
	slli	a5,a5,3
	addi	a4,a4,%lo(options_csm.7)
.L305:
.LM727:
	add	a5,a4,a5
	lw	a3,4(a5)
.LVL214:
.L179:
.LM728:
.LBE128:
.LBE137:
.LM729:
	lui	a2,%hi(.LC50)
	mv	a1,s9
	addi	a5,s1,%lo(buf.13)
	mv	a4,s11
	addi	a2,a2,%lo(.LC50)
	mv	a0,s6
	call	snprintf
.LVL215:
	li	s9,1
	j	.L123
.LVL216:
.L136:
.LM730:
	addi	a3,a5,-6
	slli	a3,a3,16
	srli	a3,a3,16
	bleu	a3,a4,.L138
.L142:
	addi	a4,a5,-8
	j	.L302
.L131:
	li	a3,252
	beq	a5,a3,.L135
	bgtu	a5,a3,.L143
	li	a4,31
	beq	a5,a4,.L139
	li	a4,60
	beq	a5,a4,.L138
.LM731:
	li	a3,39
.LM732:
	li	a4,1
	bgtu	a5,a3,.L145
	j	.L141
.L143:
	li	a3,258
	beq	a5,a3,.L135
	li	a3,292
	beq	a5,a3,.L135
.L145:
.LM733:
	lw	a0,8(sp)
	sw	a4,16(sp)
.LVL217:
.LM734:
.LM735:
	call	coap_opt_value
.LVL218:
.LM736:
	mv	s9,a0
.LM737:
	lw	a0,8(sp)
	call	coap_opt_length
.LVL219:
.LM738:
	lw	a4,16(sp)
.LM739:
	mv	a1,a0
	j	.L308
.LVL220:
.L146:
.LBB138:
.LBB134:
.LM740:
	addi	s9,s9,1
.LVL221:
.LM741:
	addi	a5,a5,8
	bne	s9,a3,.L147
.LM742:
.LM743:
	lui	a2,%hi(.LC41)
	mv	a3,s4
	addi	a2,a2,%lo(.LC41)
	j	.L304
.LVL222:
.L139:
.LM744:
.LBE134:
.LBE138:
.LM745:
.LM746:
	lw	a0,8(sp)
	call	coap_opt_length
.LVL223:
.LM747:
	beq	a0,zero,.L148
.LM748:
	lw	a0,8(sp)
	call	coap_opt_length
.LVL224:
.LM749:
	beq	a0,zero,.L148
.LM750:
	lw	a0,8(sp)
	call	coap_opt_value
.LVL225:
.LM751:
	beq	a0,zero,.L148
.LM752:
	lw	a0,8(sp)
	call	coap_opt_value
.LVL226:
	mv	s9,a0
.LM753:
	lw	a0,8(sp)
	call	coap_opt_length
.LVL227:
.LM754:
	add	s9,s9,a0
.LM755:
	lbu	a5,-1(s9)
	li	a4,7
	andi	a5,a5,7
	bne	a5,a4,.L148
.LM756:
.LM757:
	addi	a2,sp,36
	addi	a1,sp,32
	mv	a0,s3
	call	coap_get_data
.LVL228:
.LM758:
	beq	a0,zero,.L149
.LM759:
.LM760:
	lw	a0,8(sp)
	call	coap_opt_block_num
.LVL229:
	mv	s10,a0
.LM761:
	lw	a0,8(sp)
	call	coap_opt_length
.LVL230:
.LM762:
	bne	a0,zero,.L150
.L152:
.LM763:
	li	a4,95
.L151:
.LM764:
	lw	a5,32(sp)
	lui	a2,%hi(.LC42)
	mv	a3,s10
	addi	a2,a2,%lo(.LC42)
.L309:
.LM765:
	li	a1,128
	addi	a0,s1,%lo(buf.13)
	call	snprintf
.LVL231:
	j	.L303
.L150:
.LM766:
	lw	a0,8(sp)
	call	coap_opt_length
.LVL232:
.LM767:
	beq	a0,zero,.L152
.LM768:
	lw	a0,8(sp)
	call	coap_opt_value
.LVL233:
.LM769:
	beq	a0,zero,.L152
.LM770:
	lw	a0,8(sp)
	call	coap_opt_value
.LVL234:
	mv	s9,a0
.LM771:
	lw	a0,8(sp)
	call	coap_opt_length
.LVL235:
.LM772:
	add	s9,s9,a0
.LM773:
	lbu	a5,-1(s9)
	andi	a5,a5,8
	beq	a5,zero,.L152
.LM774:
	li	a4,77
	j	.L151
.L149:
.LM775:
.LM776:
	lw	a0,8(sp)
	call	coap_opt_block_num
.LVL236:
	mv	s10,a0
.LM777:
	lw	a0,8(sp)
	call	coap_opt_length
.LVL237:
.LM778:
	bne	a0,zero,.L153
.L155:
.LM779:
	li	a4,95
.L154:
.LM780:
	lui	a2,%hi(.LC43)
	mv	a3,s10
	addi	a2,a2,%lo(.LC43)
	li	a1,128
	addi	a0,s1,%lo(buf.13)
	call	snprintf
.LVL238:
	j	.L303
.L153:
.LM781:
	lw	a0,8(sp)
	call	coap_opt_length
.LVL239:
.LM782:
	beq	a0,zero,.L155
.LM783:
	lw	a0,8(sp)
	call	coap_opt_value
.LVL240:
.LM784:
	beq	a0,zero,.L155
.LM785:
	lw	a0,8(sp)
	call	coap_opt_value
.LVL241:
	mv	s9,a0
.LM786:
	lw	a0,8(sp)
	call	coap_opt_length
.LVL242:
.LM787:
	add	s9,s9,a0
.LM788:
	lbu	a5,-1(s9)
	andi	a5,a5,8
	beq	a5,zero,.L155
.LM789:
	li	a4,77
	j	.L154
.L148:
.LM790:
.LM791:
	lw	a0,8(sp)
	call	coap_opt_block_num
.LVL243:
	mv	s10,a0
.LM792:
	lw	a0,8(sp)
	call	coap_opt_length
.LVL244:
.LM793:
	bne	a0,zero,.L156
.L158:
.LM794:
	li	s9,95
.L157:
.LM795:
	lw	a0,8(sp)
	call	coap_opt_length
.LVL245:
.LM796:
	bne	a0,zero,.L159
.L161:
.LM797:
	li	a5,16
.L160:
.LM798:
	lui	a2,%hi(.LC44)
	mv	a4,s9
	mv	a3,s10
	addi	a2,a2,%lo(.LC44)
	j	.L309
.L156:
.LM799:
	lw	a0,8(sp)
	call	coap_opt_length
.LVL246:
.LM800:
	beq	a0,zero,.L158
.LM801:
	lw	a0,8(sp)
	call	coap_opt_value
.LVL247:
.LM802:
	beq	a0,zero,.L158
.LM803:
	lw	a0,8(sp)
	call	coap_opt_value
.LVL248:
	mv	s9,a0
.LM804:
	lw	a0,8(sp)
	call	coap_opt_length
.LVL249:
.LM805:
	add	s9,s9,a0
.LM806:
	lbu	a5,-1(s9)
	andi	a5,a5,8
	beq	a5,zero,.L158
.LM807:
	li	s9,77
	j	.L157
.L159:
.LM808:
	lw	a0,8(sp)
	call	coap_opt_length
.LVL250:
.LM809:
	beq	a0,zero,.L161
.LM810:
	lw	a0,8(sp)
	call	coap_opt_value
.LVL251:
.LM811:
	beq	a0,zero,.L161
.LM812:
	lw	a0,8(sp)
	call	coap_opt_value
.LVL252:
	mv	s6,a0
.LM813:
	lw	a0,8(sp)
	call	coap_opt_length
.LVL253:
.LM814:
	add	a0,s6,a0
.LM815:
	lbu	a4,-1(a0)
.LM816:
	li	a5,1
.LM817:
	andi	a4,a4,7
	addi	a4,a4,4
.LM818:
	sll	a5,a5,a4
	j	.L160
.L133:
.LM819:
.LM820:
	lw	a0,8(sp)
	call	coap_opt_length
.LVL254:
.LM821:
	sb	zero,0(s5)
.LM822:
	mv	s9,a0
.LVL255:
.LM823:
.LM824:
.LM825:
	bne	a0,zero,.L162
.LVL256:
.L165:
.LDL1:
.LM826:
.LM827:
	addi	a0,s1,%lo(buf.13)
	call	strlen
.LVL257:
	mv	s11,a0
.LVL258:
.LM828:
.LM829:
.LM830:
	li	s8,1
.LM831:
	j	.L126
.LVL259:
.L162:
.LBB139:
.LM832:
.LM833:
.LM834:
.LM835:
	lw	a0,8(sp)
.LVL260:
.LM836:
	call	coap_opt_value
.LVL261:
.LM837:
	lbu	a5,0(a0)
.LM838:
	mv	s10,a0
.LVL262:
.LM839:
.LM840:
	andi	a5,a5,32
	beq	a5,zero,.L163
.LM841:
	lui	a2,%hi(.LC45)
	addi	a2,a2,%lo(.LC45)
	li	a1,128
	mv	a0,s5
.LVL263:
.LM842:
	call	snprintf
.LVL264:
.L163:
.LM843:
	lbu	s8,0(s10)
.LVL265:
.LM844:
	andi	s8,s8,7
.LM845:
	beq	s8,zero,.L214
.LM846:
.LVL266:
.LM847:
.LM848:
	addi	a5,s9,-1
.LM849:
	bltu	a5,s8,.L165
.LM850:
.LM851:
	addi	a0,s1,%lo(buf.13)
	call	strlen
.LVL267:
	mv	a5,a0
.LVL268:
.LM852:
.LM853:
	li	a1,128
.LM854:
	add	a0,s5,a0
.LVL269:
.LM855:
	sub	a1,a1,a5
.LM856:
	beq	a5,zero,.L215
.LM857:
	lui	a3,%hi(.LC28)
	addi	a3,a3,%lo(.LC28)
.L166:
.LM858:
	lui	a2,%hi(.LC46)
	addi	a2,a2,%lo(.LC46)
	call	snprintf
.LVL270:
.LM859:
.LM860:
.LM861:
	lui	a4,%hi(.LC36)
	addi	a5,a4,%lo(.LC36)
.LM862:
	li	s6,0
.LM863:
	li	s11,128
.LM864:
	sw	a5,8(sp)
.LVL271:
.L167:
.LM865:
.LM866:
	lui	a5,%hi(buf.13)
	addi	a0,a5,%lo(buf.13)
	call	strlen
.LVL272:
.LM867:
.LM868:
	addi	s6,s6,1
.LVL273:
.LM869:
	add	a4,s10,s6
.LM870:
	lbu	a3,0(a4)
	lw	a2,8(sp)
	sub	a1,s11,a0
	add	a0,s5,a0
.LVL274:
.LM871:
	call	snprintf
.LVL275:
.LM872:
.LM873:
	bltu	s6,s8,.L167
.LM874:
.LM875:
	addi	s6,s8,1
.LVL276:
.L164:
.LM876:
.LM877:
	lbu	a4,0(s10)
	andi	a4,a4,16
	beq	a4,zero,.L168
.LM878:
.LM879:
	bgeu	s6,s9,.L165
.LM880:
.LM881:
	add	s8,s10,s6
.LM882:
	lbu	s11,0(s8)
.LVL277:
.LM883:
.LM884:
	addi	a4,s9,-1
	sub	a4,a4,s6
.LM885:
	bltu	a4,s11,.L165
.LM886:
.LM887:
	addi	a5,s6,1
.LM888:
	addi	a0,s1,%lo(buf.13)
.LM889:
	sw	a5,8(sp)
.LVL278:
.LM890:
.LM891:
	call	strlen
.LVL279:
.LM892:
	mv	a5,a0
.LVL280:
.LM893:
.LM894:
	li	a1,128
.LM895:
	add	a0,s5,a0
.LVL281:
.LM896:
	sub	a1,a1,a5
.LM897:
	beq	a5,zero,.L216
.LM898:
	lui	a3,%hi(.LC28)
	addi	a3,a3,%lo(.LC28)
.L169:
.LM899:
	lui	a2,%hi(.LC47)
	addi	a2,a2,%lo(.LC47)
	call	snprintf
.LVL282:
.LM900:
.LM901:
	mv	s6,s8
.LM902:
	addi	a5,s1,%lo(buf.13)
.LM903:
	lui	s8,%hi(.LC36)
.LM904:
	li	a4,0
.LM905:
	sw	a5,16(sp)
.LM906:
	addi	s8,s8,%lo(.LC36)
.LVL283:
.L170:
.LM907:
	bltu	a4,s11,.L171
.LM908:
.LM909:
	lw	a5,8(sp)
	add	s6,s11,a5
.LVL284:
.L168:
.LM910:
.LM911:
.LM912:
	lbu	a4,0(s10)
	srli	a4,a4,3
	andi	a4,a4,1
.LM913:
	beq	a4,zero,.L165
	bgeu	s6,s9,.L165
.LM914:
.LM915:
	addi	a0,s1,%lo(buf.13)
	call	strlen
.LVL285:
	mv	a4,a0
.LM916:
	li	a1,128
.LM917:
	sub	s9,s9,s6
.LVL286:
.LM918:
.LM919:
.LM920:
	add	a0,s5,a0
.LVL287:
.LM921:
	sub	a1,a1,a4
.LM922:
	beq	a4,zero,.L217
.LM923:
	lui	a3,%hi(.LC28)
	addi	a3,a3,%lo(.LC28)
.L172:
.LM924:
	lui	a2,%hi(.LC48)
	addi	a2,a2,%lo(.LC48)
	call	snprintf
.LVL288:
.LM925:
.LM926:
.LM927:
	lui	a3,%hi(.LC36)
	addi	a5,a3,%lo(.LC36)
.LM928:
	li	s8,0
.LM929:
	li	s11,128
.LM930:
	sw	a5,8(sp)
.LVL289:
.L173:
.LM931:
.LM932:
	lui	a5,%hi(buf.13)
	addi	a0,a5,%lo(buf.13)
	call	strlen
.LVL290:
.LM933:
.LM934:
	add	a3,s6,s8
	add	a3,s10,a3
.LM935:
	lbu	a3,0(a3)
	lw	a2,8(sp)
	sub	a1,s11,a0
.LM936:
	addi	s8,s8,1
.LVL291:
.LM937:
	add	a0,s5,a0
.LVL292:
.LM938:
	call	snprintf
.LVL293:
.LM939:
.LM940:
	bne	s9,s8,.L173
	j	.L165
.LVL294:
.L215:
.LM941:
	lui	a3,%hi(.LC13)
	addi	a3,a3,%lo(.LC13)
	j	.L166
.LVL295:
.L214:
.LM942:
	li	s6,1
	j	.L164
.LVL296:
.L216:
.LM943:
	lui	a3,%hi(.LC13)
	addi	a3,a3,%lo(.LC13)
	j	.L169
.LVL297:
.L171:
.LM944:
	lw	a0,16(sp)
	sw	a4,28(sp)
.LM945:
	addi	s6,s6,1
.LM946:
.LM947:
	call	strlen
.LVL298:
.LM948:
	lbu	a3,0(s6)
	li	a5,128
	sub	a1,a5,a0
	mv	a2,s8
	add	a0,s5,a0
.LVL299:
.LM949:
	call	snprintf
.LVL300:
.LM950:
	lw	a4,28(sp)
	addi	a4,a4,1
	j	.L170
.LVL301:
.L217:
.LM951:
	lui	a3,%hi(.LC13)
	addi	a3,a3,%lo(.LC13)
	j	.L172
.LVL302:
.L138:
.LM952:
.LBE139:
.LM953:
.LM954:
	lw	a0,8(sp)
	call	coap_opt_length
.LVL303:
.LM955:
	beq	a0,zero,.L126
	j	.L307
.L135:
.LM956:
.LM957:
	lw	a0,8(sp)
.LM958:
	lui	s9,%hi(.LC36)
.LM959:
	li	s10,0
.LM960:
	call	coap_opt_length
.LVL304:
	mv	s6,a0
.LVL305:
.LM961:
.LM962:
	lw	a0,8(sp)
.LVL306:
.LM963:
	li	s11,128
.LVL307:
.LM964:
	addi	s9,s9,%lo(.LC36)
.LM965:
	call	coap_opt_value
.LVL308:
.LM966:
	lui	a2,%hi(.LC49)
.LM967:
	sw	a0,8(sp)
.LVL309:
.LM968:
	addi	a2,a2,%lo(.LC49)
	li	a1,128
	addi	a0,s1,%lo(buf.13)
.LVL310:
.LM969:
	call	snprintf
.LVL311:
.LM970:
.L174:
.LM971:
	bne	s10,s6,.L175
.LM972:
.LM973:
	addi	a0,s1,%lo(buf.13)
	call	strlen
.LVL312:
	j	.L303
.L175:
.LM974:
.LM975:
	lui	a5,%hi(buf.13)
	addi	a0,a5,%lo(buf.13)
	call	strlen
.LVL313:
.LM976:
.LM977:
	lw	a5,8(sp)
.LM978:
	sub	a1,s11,a0
	mv	a2,s9
.LM979:
	add	a4,a5,s10
.LM980:
	lbu	a3,0(a4)
	add	a0,s5,a0
.LVL314:
.LM981:
	addi	s10,s10,1
.LVL315:
.LM982:
	call	snprintf
.LVL316:
.LM983:
	j	.L174
.LVL317:
.L134:
.LM984:
	bne	a5,a3,.L142
.L141:
	li	a4,285212672
	addi	a5,a5,-11
	addi	a4,a4,529
	srl	a4,a4,a5
	andi	a4,a4,1
	xori	a4,a4,1
	j	.L145
.LVL318:
.L218:
.LBB140:
.LBB129:
.LM985:
	li	a5,0
	j	.L177
.LVL319:
.L219:
.LM986:
	li	a5,1
	j	.L177
.LVL320:
.L176:
.LM987:
.LM988:
	addi	a2,a4,30
.LM989:
	andi	a2,a2,0xff
	li	a5,1
	bgtu	a2,a5,.L180
.LVL321:
.LM990:
.LM991:
.LM992:
	li	a5,2
	beq	a3,a5,.L220
.LVL322:
.L178:
.LM993:
	lw	a2,24(sp)
	lui	s10,%hi(buf.2)
	li	a1,6
	addi	a0,s10,%lo(buf.2)
	call	snprintf
.LVL323:
.LM994:
.LM995:
	addi	a3,s10,%lo(buf.2)
	j	.L179
.LVL324:
.L180:
.LM996:
.LM997:
	li	a2,228
	bne	a4,a2,.L181
.LVL325:
.LM998:
.LM999:
.LM1000:
	li	a4,2
.LVL326:
.LM1001:
	beq	a3,a4,.L221
.LM1002:
.LVL327:
.LM1003:
.LM1004:
.LM1005:
	li	a4,4
	bne	a3,a4,.L178
.LVL328:
.L182:
.LM1006:
.LM1007:
	lui	a4,%hi(options_release.5)
	slli	a5,a5,3
	addi	a4,a4,%lo(options_release.5)
	j	.L305
.LVL329:
.L221:
.LM1008:
	li	a5,0
	j	.L182
.LVL330:
.L181:
.LM1009:
.LM1010:
	li	a5,229
	bne	a4,a5,.L183
.LVL331:
.LM1011:
.LM1012:
.LM1013:
	li	a5,2
	bne	a3,a5,.L178
.LM1014:
	lui	a3,%hi(.LC29)
.LVL332:
.LM1015:
	addi	a3,a3,%lo(.LC29)
	j	.L179
.LVL333:
.L183:
.LM1016:
	lui	a4,%hi(options.3)
.LVL334:
.LM1017:
	addi	a4,a4,%lo(options.3)
.LM1018:
	li	a5,0
	mv	a2,a4
.LM1019:
	li	a1,26
.LVL335:
.L185:
.LM1020:
.LM1021:
	lhu	a0,0(a4)
	bne	a0,a3,.L184
.LM1022:
.LM1023:
	slli	a5,a5,3
.LVL336:
.LM1024:
	add	a2,a2,a5
	lw	a3,4(a2)
.LVL337:
.LM1025:
	j	.L179
.LVL338:
.L184:
.LM1026:
	addi	a5,a5,1
.LVL339:
.LM1027:
	addi	a4,a4,8
	bne	a5,a1,.L185
	j	.L178
.LVL340:
.L220:
.LM1028:
	lui	a3,%hi(.LC30)
.LVL341:
.LM1029:
	addi	a3,a3,%lo(.LC30)
	j	.L179
.LVL342:
.L190:
.LM1030:
.LBE129:
.LBE140:
.LM1031:
.LM1032:
.LBB141:
.LBI141:
.LM1033:
.LBB142:
.LM1034:
.LBE142:
.LBE141:
.LM1035:
	lbu	a5,%lo(maxlog)(s7)
	lw	a4,12(sp)
	bltu	a5,a4,.L112
.LM1036:
	lw	a0,12(sp)
	lui	a1,%hi(.LC40)
	addi	a2,s2,%lo(outbuf.14)
	addi	a1,a1,%lo(.LC40)
	call	coap_log_impl
.LVL343:
	j	.L112
.LVL344:
.L189:
.LM1037:
.LM1038:
	call	strlen
.LVL345:
.LM1039:
	addi	a2,s3,%lo(.LC52)
	sub	a1,s5,a0
	add	a0,s0,a0
.LVL346:
.LM1040:
	call	snprintf
.LVL347:
.LM1041:
.LBB143:
.LBI143:
.LM1042:
.LBB144:
.LM1043:
.LM1044:
	addi	a5,s4,-40
.LM1045:
	addi	a4,s4,1
.LM1046:
	sltiu	a5,a5,2
.LM1047:
	sltiu	a4,a4,2
.LM1048:
	seqz	a5,a5
.LM1049:
	seqz	a4,a4
.LM1050:
	and	a5,a5,a4
.LBE144:
.LBE143:
.LM1051:
	lw	s3,36(sp)
.LBB146:
.LBB145:
.LM1052:
	beq	a5,zero,.L227
	addi	s4,s4,-50
.LVL348:
.LM1053:
	bne	s4,zero,.L192
.LVL349:
.L227:
.LM1054:
.LBE145:
.LBE146:
.LM1055:
	lbu	a5,0(s3)
.LM1056:
	lui	a4,%hi(_ctype_+1)
	addi	a4,a4,%lo(_ctype_+1)
	add	a5,a5,a4
.LM1057:
	lbu	a5,0(a5)
	andi	a5,a5,151
.LM1058:
	beq	a5,zero,.L192
	beq	s8,zero,.L194
.L192:
.LBB147:
.LM1059:
.LM1060:
	addi	a0,s2,%lo(outbuf.14)
.LM1061:
	lw	s9,32(sp)
.LVL350:
.LM1062:
.LM1063:
.LM1064:
	call	strlen
.LVL351:
.LM1065:
	lw	a3,32(sp)
	lui	a2,%hi(.LC54)
	li	a1,128
	sub	a1,a1,a0
	addi	a2,a2,%lo(.LC54)
	add	a0,s0,a0
.LVL352:
.LM1066:
	call	snprintf
.LVL353:
.LM1067:
.LM1068:
.LM1069:
	lw	a5,%lo(use_fprintf_for_show_pdu)(s1)
	beq	a5,zero,.L196
.LM1070:
.LM1071:
	lui	a0,%hi(.LC40)
	mv	a1,s0
	addi	a0,a0,%lo(.LC40)
	call	printf
.LVL354:
.LM1072:
.L197:
.LM1073:
.LM1074:
.LM1075:
.LM1076:
	lui	s5,%hi(.LC55)
	addi	a2,s5,%lo(.LC55)
	li	a1,128
	mv	a0,s0
.LM1077:
	lui	s4,%hi(.LC36)
.LM1078:
	sb	zero,0(s0)
.LM1079:
.LM1080:
	li	s10,128
.LM1081:
	call	snprintf
.LVL355:
.LM1082:
.LM1083:
	addi	s4,s4,%lo(.LC36)
.LVL356:
.L198:
.LM1084:
.LM1085:
	lw	a5,32(sp)
.LM1086:
	addi	a0,s2,%lo(outbuf.14)
.LM1087:
	addi	a4,a5,-1
	sw	a4,32(sp)
.LM1088:
	bne	a5,zero,.L199
.LM1089:
.LM1090:
	call	strlen
.LVL357:
.LM1091:
.LM1092:
	li	s8,128
.LVL358:
.LM1093:
	lui	s4,%hi(.LC56)
	sub	a1,s8,a0
	addi	a2,s4,%lo(.LC56)
	add	a0,s0,a0
.LVL359:
.LM1094:
	call	snprintf
.LVL360:
.LM1095:
.LM1096:
	mv	a0,s0
.LM1097:
	sw	s9,32(sp)
.LM1098:
.LM1099:
	sw	s3,36(sp)
.LM1100:
.LM1101:
	call	strlen
.LVL361:
.LM1102:
.LM1103:
	li	a5,127
	bne	a0,a5,.L200
.LM1104:
	li	a0,126
.LVL362:
.L200:
.LM1105:
	lui	a2,%hi(.LC57)
	sub	a1,s8,a0
	addi	a2,a2,%lo(.LC57)
	add	a0,s0,a0
.LVL363:
.LM1106:
	call	snprintf
.LVL364:
.LM1107:
.LM1108:
.LM1109:
	lw	a5,%lo(use_fprintf_for_show_pdu)(s1)
	beq	a5,zero,.L201
.LM1110:
.LM1111:
	lui	a0,%hi(.LC40)
	mv	a1,s0
	addi	a0,a0,%lo(.LC40)
	call	printf
.LVL365:
.LM1112:
.L202:
.LM1113:
.LM1114:
.LM1115:
.LM1116:
	addi	a2,s5,%lo(.LC55)
	li	a1,128
	mv	a0,s0
.LM1117:
	lui	s3,%hi(_ctype_+1)
.LM1118:
	lui	s5,%hi(.LC58)
.LM1119:
	sb	zero,0(s0)
.LM1120:
.LM1121:
	li	s9,128
.LVL366:
.LM1122:
	call	snprintf
.LVL367:
.LM1123:
.LM1124:
	addi	s3,s3,%lo(_ctype_+1)
.LM1125:
	addi	s5,s5,%lo(.LC58)
.LVL368:
.L203:
.LM1126:
.LM1127:
	lw	a5,32(sp)
.LM1128:
	addi	a0,s2,%lo(outbuf.14)
.LM1129:
	addi	a4,a5,-1
	sw	a4,32(sp)
.LM1130:
	bne	a5,zero,.L205
.LM1131:
.LM1132:
	call	strlen
.LVL369:
.LM1133:
	li	a1,128
	sub	a1,a1,a0
	addi	a2,s4,%lo(.LC56)
	add	a0,s0,a0
.LVL370:
.LM1134:
	call	snprintf
.LVL371:
.L188:
.LM1135:
.LBE147:
.LM1136:
.LM1137:
	addi	a0,s2,%lo(outbuf.14)
	call	strlen
.LVL372:
.LM1138:
.LM1139:
	li	a5,127
	bne	a0,a5,.L208
.LM1140:
	li	a0,126
.LVL373:
.L208:
.LM1141:
	lui	a2,%hi(.LC57)
	li	a1,128
	sub	a1,a1,a0
	addi	a2,a2,%lo(.LC57)
	add	a0,s0,a0
.LVL374:
.LM1142:
	call	snprintf
.LVL375:
.LM1143:
.LM1144:
	j	.L312
.LVL376:
.L196:
.LBB152:
.LM1145:
.LM1146:
.LBB148:
.LBI148:
.LM1147:
.LBB149:
.LM1148:
.LBE149:
.LBE148:
.LM1149:
	lbu	a5,%lo(maxlog)(s7)
	lw	a4,12(sp)
	bltu	a5,a4,.L197
.LM1150:
	lui	a1,%hi(.LC40)
	mv	a2,s0
	addi	a1,a1,%lo(.LC40)
	mv	a0,a4
	call	coap_log_impl
.LVL377:
	j	.L197
.LVL378:
.L199:
.LM1151:
.LM1152:
	call	strlen
.LVL379:
.LM1153:
.LM1154:
	lw	a5,36(sp)
.LM1155:
	sub	a1,s10,a0
	mv	a2,s4
.LM1156:
	addi	a4,a5,1
	sw	a4,36(sp)
.LM1157:
	lbu	a3,0(a5)
	add	a0,s0,a0
.LVL380:
.LM1158:
	call	snprintf
.LVL381:
	j	.L198
.LVL382:
.L201:
.LM1159:
.LM1160:
.LBB150:
.LBI150:
.LM1161:
.LBB151:
.LM1162:
.LBE151:
.LBE150:
.LM1163:
	lbu	a5,%lo(maxlog)(s7)
	lw	a4,12(sp)
	bltu	a5,a4,.L202
.LM1164:
	lui	a1,%hi(.LC40)
	mv	a2,s0
	addi	a1,a1,%lo(.LC40)
	mv	a0,a4
	call	coap_log_impl
.LVL383:
	j	.L202
.LVL384:
.L205:
.LM1165:
.LM1166:
	call	strlen
.LVL385:
.LM1167:
	lw	a5,36(sp)
.LM1168:
	mv	a1,a0
.LVL386:
.LM1169:
.LM1170:
	sub	a1,s9,a1
.LM1171:
	lbu	a3,0(a5)
.LM1172:
	add	a0,s0,a0
.LVL387:
.LM1173:
	add	a5,a3,s3
.LM1174:
	lbu	a5,0(a5)
	andi	a5,a5,151
	bne	a5,zero,.L204
	li	a3,46
.L204:
.LM1175:
	mv	a2,s5
	call	snprintf
.LVL388:
.LM1176:
.LM1177:
	lw	a5,36(sp)
	addi	a5,a5,1
	sw	a5,36(sp)
	j	.L203
.LVL389:
.L194:
.LM1178:
.LBE152:
.LBB153:
.LM1179:
.LM1180:
.LM1181:
	addi	a0,s2,%lo(outbuf.14)
	call	strlen
.LVL390:
.LM1182:
.LM1183:
.LM1184:
	addi	a5,a0,-127
	li	a3,1
	bleu	a5,a3,.L188
.LM1185:
.LM1186:
	add	a5,s0,a0
	li	a4,39
.LM1187:
	add	s3,a0,a3
.LVL391:
.LM1188:
	sb	a4,0(a5)
.LM1189:
.LM1190:
	add	a2,s0,s3
	sb	zero,0(a2)
.LM1191:
.LVL392:
.LM1192:
.LM1193:
	addi	a4,a0,-126
	li	a5,127
	bleu	a4,a3,.L207
.LM1194:
.LM1195:
	sub	a3,a5,a0
.LVL393:
.LM1196:
	lw	a1,32(sp)
	lw	a0,36(sp)
	li	a4,0
	call	print_readable
.LVL394:
.LM1197:
	add	a5,s3,a0
.L207:
.LVL395:
.LM1198:
.LM1199:
	li	a4,122
	bgtu	a5,a4,.L188
.LM1200:
.LVL396:
.LM1201:
	add	a5,s0,a5
.LVL397:
.LM1202:
	li	a4,39
	sb	a4,0(a5)
.LM1203:
.LM1204:
	sb	zero,1(a5)
	j	.L188
.LBE153:
	.cfi_endproc
.LFE68:
	.size	coap_show_pdu, .-coap_show_pdu
	.section	.rodata.coap_show_tls_version.str1.4,"aMS",@progbits,1
	.align	2
.LC59:
	.string	"%s\n"
	.section	.text.coap_show_tls_version,"ax",@progbits
	.align	1
	.globl	coap_show_tls_version
	.type	coap_show_tls_version, @function
coap_show_tls_version:
.LVL398:
.LFB69:
.LM1205:
	.cfi_startproc
.LM1206:
.LM1207:
.LM1208:
	addi	sp,sp,-144
	.cfi_def_cfa_offset 144
	sw	s0,136(sp)
.LM1209:
	li	a1,128
	.cfi_offset 8, -8
.LM1210:
	mv	s0,a0
.LM1211:
	mv	a0,sp
.LVL399:
.LM1212:
	sw	ra,140(sp)
	.cfi_offset 1, -4
.LM1213:
	call	coap_string_tls_version
.LVL400:
.LM1214:
.LM1215:
.LBB154:
.LBI154:
.LM1216:
.LBB155:
.LM1217:
.LM1218:
	lui	a5,%hi(maxlog)
.LBE155:
.LBE154:
.LM1219:
	lbu	a5,%lo(maxlog)(a5)
	bltu	a5,s0,.L313
.LM1220:
	lui	a1,%hi(.LC59)
	mv	a2,sp
	addi	a1,a1,%lo(.LC59)
	mv	a0,s0
	call	coap_log_impl
.LVL401:
.LM1221:
.L313:
.LM1222:
	lw	ra,140(sp)
	.cfi_restore 1
	lw	s0,136(sp)
	.cfi_restore 8
.LVL402:
.LM1223:
	addi	sp,sp,144
	.cfi_def_cfa_offset 0
	jr	ra
	.cfi_endproc
.LFE69:
	.size	coap_show_tls_version, .-coap_show_tls_version
	.section	.rodata.coap_debug_set_packet_loss.str1.4,"aMS",@progbits,1
	.align	2
.LC60:
	.string	"packet loss level set to %d%%\n"
	.section	.text.coap_debug_set_packet_loss,"ax",@progbits
	.align	1
	.globl	coap_debug_set_packet_loss
	.type	coap_debug_set_packet_loss, @function
coap_debug_set_packet_loss:
.LVL403:
.LFB74:
.LM1224:
	.cfi_startproc
.LM1225:
.LM1226:
	addi	sp,sp,-48
	.cfi_def_cfa_offset 48
.LM1227:
	li	a2,10
	addi	a1,sp,12
.LM1228:
	sw	s0,40(sp)
	sw	ra,44(sp)
	sw	s1,36(sp)
	sw	s2,32(sp)
	sw	s3,28(sp)
	sw	s4,24(sp)
	sw	s5,20(sp)
	.cfi_offset 8, -8
	.cfi_offset 1, -4
	.cfi_offset 9, -12
	.cfi_offset 18, -16
	.cfi_offset 19, -20
	.cfi_offset 20, -24
	.cfi_offset 21, -28
.LM1229:
	mv	s0,a0
.LVL404:
.LM1230:
.LM1231:
	sw	zero,12(sp)
.LM1232:
.LM1233:
	call	strtol
.LVL405:
.LM1234:
.LM1235:
	lw	a5,12(sp)
.LM1236:
	blt	a0,zero,.L323
	bne	a5,s0,.L317
.LVL406:
.L323:
.LM1237:
	li	a0,0
.LVL407:
.L316:
.LM1238:
	lw	ra,44(sp)
	.cfi_remember_state
	.cfi_restore 1
	lw	s0,40(sp)
	.cfi_restore 8
	lw	s1,36(sp)
	.cfi_restore 9
	lw	s2,32(sp)
	.cfi_restore 18
	lw	s3,28(sp)
	.cfi_restore 19
	lw	s4,24(sp)
	.cfi_restore 20
	lw	s5,20(sp)
	.cfi_restore 21
	addi	sp,sp,48
	.cfi_def_cfa_offset 0
	jr	ra
.LVL408:
.L317:
	.cfi_restore_state
.LM1239:
.LM1240:
	lbu	a3,0(a5)
	li	a4,37
	bne	a3,a4,.L320
.LM1241:
.LM1242:
	li	a4,100
	mv	a2,a0
	ble	a0,a4,.L321
.LM1243:
	mv	a2,a4
.L321:
.LVL409:
.LM1244:
.LM1245:
	slli	a5,a2,16
.LM1246:
	div	a5,a5,a4
.LM1247:
	lui	a4,%hi(packet_loss_level)
	sh	a5,%lo(packet_loss_level)(a4)
.LM1248:
.LM1249:
.LBB156:
.LBI156:
.LM1250:
.LBB157:
.LM1251:
.LM1252:
	lui	a5,%hi(maxlog)
.LBE157:
.LBE156:
.LM1253:
	lbu	a4,%lo(maxlog)(a5)
	li	a5,6
	bleu	a4,a5,.L322
.LM1254:
	lui	a1,%hi(.LC60)
	addi	a1,a1,%lo(.LC60)
	li	a0,7
	call	coap_log_impl
.LVL410:
.L322:
.LM1255:
.LM1256:
	lui	a5,%hi(send_packet_count)
	sw	zero,%lo(send_packet_count)(a5)
.LM1257:
.LM1258:
	li	a0,1
	j	.L316
.LVL411:
.L320:
.LM1259:
.LM1260:
	beq	a0,zero,.L323
	lui	s0,%hi(packet_loss_intervals)
.LVL412:
.LM1261:
	addi	s0,s0,%lo(packet_loss_intervals)
.LM1262:
	li	s1,0
.LM1263:
	li	s4,45
.LM1264:
	li	s3,10
.LM1265:
	li	s5,44
.LVL413:
.L327:
.LM1266:
.LM1267:
	sw	a0,0(s0)
.LM1268:
.LM1269:
	lbu	a4,0(a5)
	bne	a4,s4,.L324
.LM1270:
.LM1271:
	addi	s2,a5,1
.LVL414:
.LM1272:
.LM1273:
	li	a2,10
	addi	a1,sp,12
	mv	a0,s2
.LVL415:
.LM1274:
	call	strtol
.LVL416:
.LM1275:
.LM1276:
	lw	a5,12(sp)
.LM1277:
	ble	a0,zero,.L323
	beq	a5,s2,.L323
.LVL417:
.L324:
.LM1278:
.LM1279:
	sw	a0,4(s0)
.LM1280:
	lbu	a4,0(a5)
.LM1281:
	addi	s1,s1,1
.LVL418:
.LM1282:
.LM1283:
	bne	a4,zero,.L325
.LM1284:
.LM1285:
	li	a5,10
	beq	s1,a5,.L323
.LM1286:
.LM1287:
	lui	a5,%hi(num_packet_loss_intervals)
	sw	s1,%lo(num_packet_loss_intervals)(a5)
	j	.L322
.L325:
.LM1288:
.LM1289:
	bne	a4,s5,.L323
.LM1290:
.LM1291:
	addi	s2,a5,1
.LVL419:
.LM1292:
.LM1293:
	li	a2,10
	addi	a1,sp,12
	mv	a0,s2
.LVL420:
.LM1294:
	call	strtol
.LVL421:
.LM1295:
.LM1296:
	lw	a5,12(sp)
.LM1297:
	ble	a0,zero,.L323
	beq	a5,s2,.L323
.LM1298:
	addi	s0,s0,8
	bne	s1,s3,.L327
	j	.L323
	.cfi_endproc
.LFE74:
	.size	coap_debug_set_packet_loss, .-coap_debug_set_packet_loss
	.section	.rodata.coap_debug_send_packet.str1.4,"aMS",@progbits,1
	.align	2
.LC61:
	.string	"Packet %u dropped\n"
	.section	.text.coap_debug_send_packet,"ax",@progbits
	.align	1
	.globl	coap_debug_send_packet
	.type	coap_debug_send_packet, @function
coap_debug_send_packet:
.LFB75:
.LM1299:
	.cfi_startproc
.LM1300:
.LM1301:
	addi	sp,sp,-32
	.cfi_def_cfa_offset 32
	sw	s0,24(sp)
	.cfi_offset 8, -8
.LM1302:
	lui	s0,%hi(send_packet_count)
	lw	a2,%lo(send_packet_count)(s0)
.LM1303:
	lui	a5,%hi(num_packet_loss_intervals)
	lw	a3,%lo(num_packet_loss_intervals)(a5)
.LM1304:
	addi	a2,a2,1
.LM1305:
	sw	ra,28(sp)
	sw	s1,20(sp)
	.cfi_offset 1, -4
	.cfi_offset 9, -12
.LM1306:
	sw	a2,%lo(send_packet_count)(s0)
.LM1307:
.LM1308:
	ble	a3,zero,.L335
	lui	a5,%hi(packet_loss_intervals)
	addi	a5,a5,%lo(packet_loss_intervals)
.LBB158:
.LM1309:
	li	a4,0
.L338:
.LVL422:
.LM1310:
.LM1311:
	lw	a1,0(a5)
	blt	a2,a1,.L336
.LM1312:
	lw	a1,4(a5)
	bgt	a2,a1,.L336
.LM1313:
.LM1314:
.LBB159:
.LBI159:
.LM1315:
.LBB160:
.LM1316:
.LM1317:
	lui	a5,%hi(maxlog)
.LBE160:
.LBE159:
.LM1318:
	lbu	a4,%lo(maxlog)(a5)
.LVL423:
.LM1319:
	li	a5,6
	bleu	a4,a5,.L337
.LVL424:
.L346:
.LM1320:
.LBE158:
.LBB161:
.LM1321:
	lui	a1,%hi(.LC61)
	addi	a1,a1,%lo(.LC61)
	li	a0,7
	call	coap_log_impl
.LVL425:
.LM1322:
.LM1323:
.L337:
.LBE161:
.LBB164:
.LM1324:
	li	a0,0
	j	.L334
.LVL426:
.L336:
.LM1325:
	addi	a4,a4,1
.LVL427:
.LM1326:
	addi	a5,a5,8
	bne	a3,a4,.L338
.LVL428:
.L335:
.LM1327:
.LBE164:
.LM1328:
.LM1329:
	lui	s1,%hi(packet_loss_level)
.LM1330:
	lhu	a5,%lo(packet_loss_level)(s1)
	bne	a5,zero,.L339
.L343:
.LM1331:
	li	a0,1
.L334:
.LM1332:
	lw	ra,28(sp)
	.cfi_remember_state
	.cfi_restore 1
	lw	s0,24(sp)
	.cfi_restore 8
	lw	s1,20(sp)
	.cfi_restore 9
	addi	sp,sp,32
	.cfi_def_cfa_offset 0
	jr	ra
.L339:
	.cfi_restore_state
.LBB165:
.LM1333:
.LM1334:
	li	a1,2
	addi	a0,sp,14
.LM1335:
	sh	zero,14(sp)
.LM1336:
	call	coap_prng_lkd
.LVL429:
.LM1337:
.LM1338:
	lhu	a4,14(sp)
	lhu	a5,%lo(packet_loss_level)(s1)
	bgeu	a4,a5,.L343
.LM1339:
.LM1340:
.LBB162:
.LBI162:
.LM1341:
.LBB163:
.LM1342:
.LM1343:
	lui	a5,%hi(maxlog)
.LBE163:
.LBE162:
.LM1344:
	lbu	a4,%lo(maxlog)(a5)
	li	a5,6
	bleu	a4,a5,.L337
.LM1345:
	lw	a2,%lo(send_packet_count)(s0)
	j	.L346
.LBE165:
	.cfi_endproc
.LFE75:
	.size	coap_debug_send_packet, .-coap_debug_send_packet
	.section	.text.coap_debug_reset,"ax",@progbits
	.align	1
	.globl	coap_debug_reset
	.type	coap_debug_reset, @function
coap_debug_reset:
.LFB76:
.LM1346:
	.cfi_startproc
.LM1347:
.LM1348:
	lui	a5,%hi(log_handler)
.LM1349:
	addi	sp,sp,-16
	.cfi_def_cfa_offset 16
.LM1350:
	li	a4,4
.LM1351:
	sw	zero,%lo(log_handler)(a5)
.LM1352:
.LM1353:
	lui	a0,%hi(packet_loss_intervals)
.LM1354:
	lui	a5,%hi(maxlog)
	sb	a4,%lo(maxlog)(a5)
.LM1355:
.LM1356:
	li	a2,80
.LM1357:
	lui	a5,%hi(use_fprintf_for_show_pdu)
	li	a4,1
.LM1358:
	li	a1,0
	addi	a0,a0,%lo(packet_loss_intervals)
.LM1359:
	sw	ra,12(sp)
	.cfi_offset 1, -4
.LM1360:
	sw	a4,%lo(use_fprintf_for_show_pdu)(a5)
.LM1361:
	call	memset
.LVL430:
.LM1362:
.LM1363:
	lui	a5,%hi(num_packet_loss_intervals)
.LM1364:
	lw	ra,12(sp)
	.cfi_restore 1
.LM1365:
	sw	zero,%lo(num_packet_loss_intervals)(a5)
.LM1366:
.LM1367:
	lui	a5,%hi(packet_loss_level)
	sh	zero,%lo(packet_loss_level)(a5)
.LM1368:
.LM1369:
	lui	a5,%hi(send_packet_count)
	sw	zero,%lo(send_packet_count)(a5)
.LM1370:
	addi	sp,sp,16
	.cfi_def_cfa_offset 0
	jr	ra
	.cfi_endproc
.LFE76:
	.size	coap_debug_reset, .-coap_debug_reset
	.section	.bss.message.0,"aw",@nobits
	.align	2
	.type	message.0, @object
	.size	message.0, 128
message.0:
	.zero	128
	.section	.rodata.__func__.1,"a"
	.align	2
	.type	__func__.1, @object
	.size	__func__.1, 15
__func__.1:
	.string	"print_readable"
	.section	.sbss.buf.2,"aw",@nobits
	.align	2
	.type	buf.2, @object
	.size	buf.2, 6
buf.2:
	.zero	6
	.section	.rodata.str1.4,"aMS",@progbits,1
	.align	2
.LC62:
	.string	"If-Match"
	.align	2
.LC63:
	.string	"Uri-Host"
	.align	2
.LC64:
	.string	"ETag"
	.align	2
.LC65:
	.string	"If-None-Match"
	.align	2
.LC66:
	.string	"Observe"
	.align	2
.LC67:
	.string	"Uri-Port"
	.align	2
.LC68:
	.string	"Location-Path"
	.align	2
.LC69:
	.string	"Oscore"
	.align	2
.LC70:
	.string	"Uri-Path"
	.align	2
.LC71:
	.string	"Content-Format"
	.align	2
.LC72:
	.string	"Max-Age"
	.align	2
.LC73:
	.string	"Uri-Query"
	.align	2
.LC74:
	.string	"Hop-Limit"
	.align	2
.LC75:
	.string	"Accept"
	.align	2
.LC76:
	.string	"Location-Query"
	.align	2
.LC77:
	.string	"Block2"
	.align	2
.LC78:
	.string	"Block1"
	.align	2
.LC79:
	.string	"Size2"
	.align	2
.LC80:
	.string	"Proxy-Uri"
	.align	2
.LC81:
	.string	"Proxy-Scheme"
	.align	2
.LC82:
	.string	"Size1"
	.align	2
.LC83:
	.string	"Echo"
	.align	2
.LC84:
	.string	"No-Response"
	.align	2
.LC85:
	.string	"Request-Tag"
	.align	2
.LC86:
	.string	"Q-Block1"
	.align	2
.LC87:
	.string	"Q-Block2"
	.section	.rodata.options.3,"a"
	.align	2
	.type	options.3, @object
	.size	options.3, 208
options.3:
	.half	1
	.zero	2
	.word	.LC62
	.half	3
	.zero	2
	.word	.LC63
	.half	4
	.zero	2
	.word	.LC64
	.half	5
	.zero	2
	.word	.LC65
	.half	6
	.zero	2
	.word	.LC66
	.half	7
	.zero	2
	.word	.LC67
	.half	8
	.zero	2
	.word	.LC68
	.half	9
	.zero	2
	.word	.LC69
	.half	11
	.zero	2
	.word	.LC70
	.half	12
	.zero	2
	.word	.LC71
	.half	14
	.zero	2
	.word	.LC72
	.half	15
	.zero	2
	.word	.LC73
	.half	16
	.zero	2
	.word	.LC74
	.half	17
	.zero	2
	.word	.LC75
	.half	20
	.zero	2
	.word	.LC76
	.half	23
	.zero	2
	.word	.LC77
	.half	27
	.zero	2
	.word	.LC78
	.half	28
	.zero	2
	.word	.LC79
	.half	35
	.zero	2
	.word	.LC80
	.half	39
	.zero	2
	.word	.LC81
	.half	60
	.zero	2
	.word	.LC82
	.half	252
	.zero	2
	.word	.LC83
	.half	258
	.zero	2
	.word	.LC84
	.half	292
	.zero	2
	.word	.LC85
	.half	19
	.zero	2
	.word	.LC86
	.half	31
	.zero	2
	.word	.LC87
	.section	.rodata.str1.4
	.align	2
.LC88:
	.string	"Alternative-Address"
	.align	2
.LC89:
	.string	"Hold-Off"
	.section	.rodata.options_release.5,"a"
	.align	2
	.type	options_release.5, @object
	.size	options_release.5, 16
options_release.5:
	.half	2
	.zero	2
	.word	.LC88
	.half	4
	.zero	2
	.word	.LC89
	.section	.rodata.str1.4
	.align	2
.LC90:
	.string	"Max-Message-Size"
	.align	2
.LC91:
	.string	"Block-Wise-Transfer"
	.align	2
.LC92:
	.string	"Extended-Token-Length"
	.section	.rodata.options_csm.7,"a"
	.align	2
	.type	options_csm.7, @object
	.size	options_csm.7, 24
options_csm.7:
	.half	2
	.zero	2
	.word	.LC90
	.half	4
	.zero	2
	.word	.LC91
	.half	6
	.zero	2
	.word	.LC92
	.section	.rodata.str1.4
	.align	2
.LC93:
	.string	"text/plain"
	.align	2
.LC94:
	.string	"application/link-format"
	.align	2
.LC95:
	.string	"application/xml"
	.align	2
.LC96:
	.string	"application/octet-stream"
	.align	2
.LC97:
	.string	"application/rdf+xml"
	.align	2
.LC98:
	.string	"application/exi"
	.align	2
.LC99:
	.string	"application/json"
	.align	2
.LC100:
	.string	"application/cbor"
	.align	2
.LC101:
	.string	"application/cwt"
	.align	2
.LC102:
	.string	"application/coap-group+json"
	.align	2
.LC103:
	.string	"application/cose; cose-type=\"cose-sign\""
	.align	2
.LC104:
	.string	"application/cose; cose-type=\"cose-sign1\""
	.align	2
.LC105:
	.string	"application/cose; cose-type=\"cose-encrypt\""
	.align	2
.LC106:
	.string	"application/cose; cose-type=\"cose-encrypt0\""
	.align	2
.LC107:
	.string	"application/cose; cose-type=\"cose-mac\""
	.align	2
.LC108:
	.string	"application/cose; cose-type=\"cose-mac0\""
	.align	2
.LC109:
	.string	"application/cose-key"
	.align	2
.LC110:
	.string	"application/cose-key-set"
	.align	2
.LC111:
	.string	"application/senml+json"
	.align	2
.LC112:
	.string	"application/sensml+json"
	.align	2
.LC113:
	.string	"application/senml+cbor"
	.align	2
.LC114:
	.string	"application/sensml+cbor"
	.align	2
.LC115:
	.string	"application/senml-exi"
	.align	2
.LC116:
	.string	"application/sensml-exi"
	.align	2
.LC117:
	.string	"application/senml+xml"
	.align	2
.LC118:
	.string	"application/sensml+xml"
	.align	2
.LC119:
	.string	"application/dots+cbor"
	.align	2
.LC120:
	.string	"application/ace+cbor"
	.align	2
.LC121:
	.string	"application/missing-blocks+cbor-seq"
	.align	2
.LC122:
	.string	"application/oscore"
	.align	2
.LC123:
	.string	"application/dcaf+cbor"
	.section	.rodata.formats.8,"a"
	.align	2
	.type	formats.8, @object
	.size	formats.8, 248
formats.8:
	.word	0
	.word	.LC93
	.word	40
	.word	.LC94
	.word	41
	.word	.LC95
	.word	42
	.word	.LC96
	.word	43
	.word	.LC97
	.word	47
	.word	.LC98
	.word	50
	.word	.LC99
	.word	60
	.word	.LC100
	.word	61
	.word	.LC101
	.word	256
	.word	.LC102
	.word	98
	.word	.LC103
	.word	18
	.word	.LC104
	.word	96
	.word	.LC105
	.word	16
	.word	.LC106
	.word	97
	.word	.LC107
	.word	17
	.word	.LC108
	.word	101
	.word	.LC109
	.word	102
	.word	.LC110
	.word	110
	.word	.LC111
	.word	111
	.word	.LC112
	.word	112
	.word	.LC113
	.word	113
	.word	.LC114
	.word	114
	.word	.LC115
	.word	115
	.word	.LC116
	.word	310
	.word	.LC117
	.word	311
	.word	.LC118
	.word	271
	.word	.LC119
	.word	19
	.word	.LC120
	.word	272
	.word	.LC121
	.word	10001
	.word	.LC122
	.word	75
	.word	.LC123
	.section	.sbss.buf.9,"aw",@nobits
	.align	2
	.type	buf.9, @object
	.size	buf.9, 5
buf.9:
	.zero	5
	.section	.rodata.str1.4
	.align	2
.LC124:
	.string	"7.00"
	.align	2
.LC125:
	.string	"CSM"
	.align	2
.LC126:
	.string	"Ping"
	.align	2
.LC127:
	.string	"Pong"
	.align	2
.LC128:
	.string	"Release"
	.align	2
.LC129:
	.string	"Abort"
	.section	.rodata.signals.10,"a"
	.align	2
	.type	signals.10, @object
	.size	signals.10, 24
signals.10:
	.word	.LC124
	.word	.LC125
	.word	.LC126
	.word	.LC127
	.word	.LC128
	.word	.LC129
	.section	.rodata.str1.4
	.align	2
.LC130:
	.string	"0.00"
	.align	2
.LC131:
	.string	"GET"
	.align	2
.LC132:
	.string	"POST"
	.align	2
.LC133:
	.string	"PUT"
	.align	2
.LC134:
	.string	"DELETE"
	.align	2
.LC135:
	.string	"FETCH"
	.align	2
.LC136:
	.string	"PATCH"
	.align	2
.LC137:
	.string	"iPATCH"
	.section	.rodata.methods.11,"a"
	.align	2
	.type	methods.11, @object
	.size	methods.11, 32
methods.11:
	.word	.LC130
	.word	.LC131
	.word	.LC132
	.word	.LC133
	.word	.LC134
	.word	.LC135
	.word	.LC136
	.word	.LC137
	.section	.rodata.str1.4
	.align	2
.LC138:
	.string	"CON"
	.align	2
.LC139:
	.string	"NON"
	.align	2
.LC140:
	.string	"ACK"
	.align	2
.LC141:
	.string	"RST"
	.align	2
.LC142:
	.string	"???"
	.section	.rodata.types.12,"a"
	.align	2
	.type	types.12, @object
	.size	types.12, 20
types.12:
	.word	.LC138
	.word	.LC139
	.word	.LC140
	.word	.LC141
	.word	.LC142
	.section	.bss.buf.13,"aw",@nobits
	.align	2
	.type	buf.13, @object
	.size	buf.13, 128
buf.13:
	.zero	128
	.section	.bss.outbuf.14,"aw",@nobits
	.align	2
	.type	outbuf.14, @object
	.size	outbuf.14, 128
outbuf.14:
	.zero	128
	.section	.rodata.__func__.15,"a"
	.align	2
	.type	__func__.15, @object
	.size	__func__.15, 19
__func__.15:
	.string	"coap_print_ip_addr"
	.section	.sbss.bad.16,"aw",@nobits
	.align	2
	.type	bad.16, @object
	.size	bad.16, 8
bad.16:
	.zero	8
	.section	.sbss.send_packet_count,"aw",@nobits
	.align	2
	.type	send_packet_count, @object
	.size	send_packet_count, 4
send_packet_count:
	.zero	4
	.section	.sbss.packet_loss_level,"aw",@nobits
	.align	1
	.type	packet_loss_level, @object
	.size	packet_loss_level, 2
packet_loss_level:
	.zero	2
	.section	.sbss.num_packet_loss_intervals,"aw",@nobits
	.align	2
	.type	num_packet_loss_intervals, @object
	.size	num_packet_loss_intervals, 4
num_packet_loss_intervals:
	.zero	4
	.section	.bss.packet_loss_intervals,"aw",@nobits
	.align	2
	.type	packet_loss_intervals, @object
	.size	packet_loss_intervals, 80
packet_loss_intervals:
	.zero	80
	.section	.sbss.log_handler,"aw",@nobits
	.align	2
	.type	log_handler, @object
	.size	log_handler, 4
log_handler:
	.zero	4
	.section	.rodata.str1.4
	.align	2
.LC143:
	.string	"EMRG"
	.align	2
.LC144:
	.string	"ALRT"
	.align	2
.LC145:
	.string	"CRIT"
	.align	2
.LC146:
	.string	"ERR "
	.align	2
.LC147:
	.string	"WARN"
	.align	2
.LC148:
	.string	"NOTE"
	.align	2
.LC149:
	.string	"INFO"
	.align	2
.LC150:
	.string	"DEBG"
	.align	2
.LC151:
	.string	"OSC "
	.align	2
.LC152:
	.string	"Emrg"
	.align	2
.LC153:
	.string	"Alrt"
	.align	2
.LC154:
	.string	"Crit"
	.align	2
.LC155:
	.string	"Err "
	.align	2
.LC156:
	.string	"Warn"
	.align	2
.LC157:
	.string	"Note"
	.align	2
.LC158:
	.string	"Info"
	.align	2
.LC159:
	.string	"Debg"
	.section	.rodata.loglevels,"a"
	.align	2
	.type	loglevels, @object
	.size	loglevels, 68
loglevels:
	.word	.LC143
	.word	.LC144
	.word	.LC145
	.word	.LC146
	.word	.LC147
	.word	.LC148
	.word	.LC149
	.word	.LC150
	.word	.LC151
	.word	.LC152
	.word	.LC153
	.word	.LC154
	.word	.LC155
	.word	.LC156
	.word	.LC157
	.word	.LC158
	.word	.LC159
	.section	.sdata.enable_data_for_show_pdu,"aw"
	.align	2
	.type	enable_data_for_show_pdu, @object
	.size	enable_data_for_show_pdu, 4
enable_data_for_show_pdu:
	.word	1
	.section	.sdata.use_fprintf_for_show_pdu,"aw"
	.align	2
	.type	use_fprintf_for_show_pdu, @object
	.size	use_fprintf_for_show_pdu, 4
use_fprintf_for_show_pdu:
	.word	1
	.section	.sdata.maxlog,"aw"
	.type	maxlog, @object
	.size	maxlog, 1
maxlog:
	.byte	4
	.text
.Letext0:
	.section	.note.GNU-stack,"",@progbits
