	.file	"coap_resource.c"
	.option nopic
	.attribute arch, "rv32i2p1_m2p0_f2p2_c2p0_zicsr2p0_zmmul1p0_zca1p0_zcf1p0"
	.attribute unaligned_access, 0
	.attribute stack_align, 16
	.text
.Ltext0:
	.cfi_sections	.debug_frame
	.section	.rodata.coap_find_observer_cache_key.str1.4,"aMS",@progbits,1
	.align	2
.LC0:
	.string	"resource"
	.align	2
.LC1:
	.string	"/home/chandu/sdk/bl602_iot_sdk/components/3rdparty/libcoap/src/coap_resource.c"
	.align	2
.LC2:
	.string	"session"
	.section	.text.coap_find_observer_cache_key,"ax",@progbits
	.align	1
	.type	coap_find_observer_cache_key, @function
coap_find_observer_cache_key:
.LVL0:
.LFB77:
.LM1:
	.cfi_startproc
.LM2:
.LM3:
.LM4:
	addi	sp,sp,-16
	.cfi_def_cfa_offset 16
	sw	ra,12(sp)
	sw	s0,8(sp)
	sw	s1,4(sp)
	sw	s2,0(sp)
	.cfi_offset 1, -4
	.cfi_offset 8, -8
	.cfi_offset 9, -12
	.cfi_offset 18, -16
.LM5:
	bne	a0,zero,.L2
.LM6:
	lui	a3,%hi(.LC0)
	lui	a2,%hi(__func__.3)
.LVL1:
.LM7:
	addi	a3,a3,%lo(.LC0)
	addi	a2,a2,%lo(__func__.3)
	li	a1,787
.LVL2:
.L10:
.LM8:
	lui	a0,%hi(.LC1)
.LVL3:
.LM9:
	addi	a0,a0,%lo(.LC1)
	call	__assert_func
.LVL4:
.L2:
.LM10:
	mv	s1,a1
.LM11:
.LM12:
	bne	a1,zero,.L3
.LVL5:
.LM13:
	lui	a3,%hi(.LC2)
	lui	a2,%hi(__func__.3)
.LVL6:
.LM14:
	addi	a3,a3,%lo(.LC2)
	addi	a2,a2,%lo(__func__.3)
	li	a1,788
	j	.L10
.LVL7:
.L3:
.LM15:
	lw	s0,72(a0)
	mv	s2,a2
.LM16:
.LVL8:
.L4:
.LM17:
	beq	s0,zero,.L1
.LM18:
.LM19:
	lw	a5,4(s0)
	beq	a5,s1,.L5
.L6:
.LM20:
	lw	s0,0(s0)
.LVL9:
.LM21:
	j	.L4
.L5:
.LM22:
	lw	a1,12(s0)
	li	a2,32
	mv	a0,s2
	call	memcmp
.LVL10:
.LM23:
	bne	a0,zero,.L6
.L1:
.LM24:
	lw	ra,12(sp)
	.cfi_restore 1
	mv	a0,s0
	lw	s0,8(sp)
	.cfi_restore 8
.LVL11:
.LM25:
	lw	s1,4(sp)
	.cfi_restore 9
.LVL12:
.LM26:
	lw	s2,0(sp)
	.cfi_restore 18
.LVL13:
.LM27:
	addi	sp,sp,16
	.cfi_def_cfa_offset 0
	jr	ra
	.cfi_endproc
.LFE77:
	.size	coap_find_observer_cache_key, .-coap_find_observer_cache_key
	.section	.rodata.match.str1.4,"aMS",@progbits,1
	.align	2
.LC3:
	.string	"text"
	.section	.text.match,"ax",@progbits
	.align	1
	.type	match, @function
match:
.LVL14:
.LFB51:
.LM28:
	.cfi_startproc
.LM29:
.LM30:
	addi	sp,sp,-32
	.cfi_def_cfa_offset 32
	sw	ra,28(sp)
	sw	s0,24(sp)
	sw	s1,20(sp)
	sw	s2,16(sp)
	sw	s3,12(sp)
	sw	s4,8(sp)
	sw	s5,4(sp)
	sw	s6,0(sp)
	.cfi_offset 1, -4
	.cfi_offset 8, -8
	.cfi_offset 9, -12
	.cfi_offset 18, -16
	.cfi_offset 19, -20
	.cfi_offset 20, -24
	.cfi_offset 21, -28
	.cfi_offset 22, -32
.LM31:
	bne	a0,zero,.L12
.LM32:
	lui	a3,%hi(.LC3)
.LVL15:
.LM33:
	lui	a2,%hi(__func__.12)
.LVL16:
.LM34:
	lui	a0,%hi(.LC1)
.LVL17:
.LM35:
	addi	a3,a3,%lo(.LC3)
	addi	a2,a2,%lo(__func__.12)
	li	a1,70
.LVL18:
.LM36:
	addi	a0,a0,%lo(.LC1)
	call	__assert_func
.LVL19:
.L12:
.LM37:
	mv	s3,a2
.LM38:
.LM39:
.LM40:
	lw	s0,0(a0)
.LM41:
	lw	a2,0(a1)
.LVL20:
.LM42:
	mv	s5,a1
.LM43:
	bgeu	s0,a2,.L13
.LVL21:
.L15:
.LM44:
	li	s1,0
.L14:
.LM45:
	lw	ra,28(sp)
	.cfi_remember_state
	.cfi_restore 1
	lw	s0,24(sp)
	.cfi_restore 8
	lw	s2,16(sp)
	.cfi_restore 18
	lw	s3,12(sp)
	.cfi_restore 19
	lw	s4,8(sp)
	.cfi_restore 20
	lw	s5,4(sp)
	.cfi_restore 21
.LVL22:
.LM46:
	lw	s6,0(sp)
	.cfi_restore 22
	mv	a0,s1
	lw	s1,20(sp)
	.cfi_restore 9
	addi	sp,sp,32
	.cfi_def_cfa_offset 0
	jr	ra
.LVL23:
.L13:
	.cfi_restore_state
.LM47:
	lw	a1,4(a1)
.LVL24:
.LM48:
	beq	a1,zero,.L15
	mv	s1,a3
.LM49:
.LM50:
	beq	a3,zero,.L16
.LVL25:
.LBB47:
.LM51:
.LM52:
	lw	s4,4(a0)
.LVL26:
.LM53:
.LM54:
.L17:
.LM55:
	beq	s0,zero,.L15
.LBB48:
.LM56:
.LM57:
.LVL27:
.LM58:
.LM59:
	mv	a2,s0
	li	a1,32
	mv	a0,s4
	call	memchr
.LVL28:
	mv	s2,a0
.LVL29:
.LM60:
.LM61:
	li	s6,0
.LM62:
	beq	a0,zero,.L18
.LM63:
.LM64:
	sub	a5,a0,s4
.LVL30:
.LM65:
	addi	s0,s0,-1
.LVL31:
.LM66:
	sub	s6,s0,a5
.LVL32:
.LM67:
.LM68:
	addi	s2,a0,1
.LVL33:
.LM69:
	mv	s0,a5
.LVL34:
.L18:
.LM70:
.LM71:
	lw	a2,0(s5)
.LM72:
	bne	s3,zero,.L19
.LM73:
	beq	s0,a2,.L19
.L20:
.LM74:
	mv	s0,s6
.LVL35:
.LM75:
	mv	s4,s2
.LVL36:
.LM76:
	j	.L17
.LVL37:
.L19:
.LM77:
	lw	a1,4(s5)
	mv	a0,s4
	call	memcmp
.LVL38:
.LM78:
	bne	a0,zero,.L20
	j	.L14
.LVL39:
.L16:
.LM79:
.LBE48:
.LBE47:
.LM80:
.LM81:
	beq	s0,a2,.L24
	andi	s3,s3,1
.LVL40:
.LM82:
	beq	s3,zero,.L15
.L24:
.LM83:
	lw	a0,4(a0)
.LVL41:
.LM84:
	call	memcmp
.LVL42:
.LM85:
	seqz	s1,a0
.LVL43:
.LM86:
	j	.L14
	.cfi_endproc
.LFE51:
	.size	match, .-match
	.section	.rodata.coap_resource_init.str1.4,"aMS",@progbits,1
	.align	2
.LC4:
	.string	"coap_resource_init: no memory left\n"
	.section	.text.coap_resource_init,"ax",@progbits
	.align	1
	.globl	coap_resource_init
	.type	coap_resource_init, @function
coap_resource_init:
.LVL44:
.LFB54:
.LM87:
	.cfi_startproc
.LM88:
.LM89:
.LM90:
	lui	a5,%hi(memp_pools)
	addi	a5,a5,%lo(memp_pools)
	lw	a5,88(a5)
.LM91:
	addi	sp,sp,-16
	.cfi_def_cfa_offset 16
	sw	ra,12(sp)
	sw	s0,8(sp)
	sw	s1,4(sp)
	sw	s2,0(sp)
	.cfi_offset 1, -4
	.cfi_offset 8, -8
	.cfi_offset 9, -12
	.cfi_offset 18, -16
.LM92:
	lhu	a3,4(a5)
	li	a4,103
	bleu	a3,a4,.L36
	mv	s0,a0
.LM93:
	li	a0,22
.LVL45:
.LM94:
	mv	s2,a1
	call	memp_malloc
.LVL46:
.LM95:
	mv	s1,a0
.LVL47:
.LM96:
.LM97:
	bne	a0,zero,.L37
.LVL48:
.L38:
.LM98:
.LM99:
.LM100:
	call	coap_get_log_level
.LVL49:
.LM101:
	li	a5,6
	bleu	a0,a5,.L45
.LM102:
	lui	a1,%hi(.LC4)
	addi	a1,a1,%lo(.LC4)
	li	a0,7
	call	coap_log_impl
.LVL50:
.L45:
.LM103:
	li	s1,0
.LM104:
.LM105:
.LM106:
	j	.L35
.LVL51:
.L36:
.LM107:
	lw	a4,0(a5)
.LVL52:
.LBB49:
.LBI49:
.LM108:
.LBB50:
.LM109:
.LM110:
	lhu	a5,0(a4)
	addi	a5,a5,1
	sh	a5,0(a4)
.LM111:
.LVL53:
.LM112:
.LBE50:
.LBE49:
.LM113:
	j	.L38
.LVL54:
.L37:
.LM114:
	li	a2,104
	li	a1,0
	call	memset
.LVL55:
.LM115:
.LM116:
	li	a5,1
	sw	a5,4(s1)
.LM117:
.LM118:
	and	a5,s2,a5
.LM119:
	bne	a5,zero,.L39
.LM120:
.LM121:
	beq	s0,zero,.L40
.LM122:
.LM123:
	lw	a1,0(s0)
	lw	a0,4(s0)
.L56:
.LM124:
	call	coap_new_str_const
.LVL56:
	mv	s0,a0
.LVL57:
.LM125:
.LM126:
	beq	a0,zero,.L43
.L42:
.LVL58:
.LM127:
.LM128:
	sw	s0,76(s1)
.L43:
.LM129:
.LM130:
	li	a5,2
.LM131:
	sw	s2,80(s1)
.LM132:
.LM133:
	sw	a5,84(s1)
.LVL59:
.L35:
.LM134:
	lw	ra,12(sp)
	.cfi_remember_state
	.cfi_restore 1
	lw	s0,8(sp)
	.cfi_restore 8
	lw	s2,0(sp)
	.cfi_restore 18
	mv	a0,s1
	lw	s1,4(sp)
	.cfi_restore 9
	addi	sp,sp,16
	.cfi_def_cfa_offset 0
	jr	ra
.LVL60:
.L39:
	.cfi_restore_state
.LM135:
.LM136:
	bne	s0,zero,.L42
.L40:
.LM137:
.LM138:
	lui	a5,%hi(null_path_value)
	addi	a5,a5,%lo(null_path_value)
	lw	a1,0(a5)
	lw	a0,4(a5)
	j	.L56
	.cfi_endproc
.LFE54:
	.size	coap_resource_init, .-coap_resource_init
	.section	.rodata.coap_resource_unknown_init2.str1.4,"aMS",@progbits,1
	.align	2
.LC5:
	.string	"coap_resource_unknown_init2: no memory left\n"
	.section	.text.coap_resource_unknown_init2,"ax",@progbits
	.align	1
	.globl	coap_resource_unknown_init2
	.type	coap_resource_unknown_init2, @function
coap_resource_unknown_init2:
.LVL61:
.LFB55:
.LM139:
	.cfi_startproc
.LM140:
.LM141:
.LM142:
	lui	a5,%hi(memp_pools)
	addi	a5,a5,%lo(memp_pools)
	lw	a5,88(a5)
.LM143:
	addi	sp,sp,-16
	.cfi_def_cfa_offset 16
	sw	ra,12(sp)
	sw	s0,8(sp)
	sw	s1,4(sp)
	sw	s2,0(sp)
	.cfi_offset 1, -4
	.cfi_offset 8, -8
	.cfi_offset 9, -12
	.cfi_offset 18, -16
.LM144:
	lhu	a3,4(a5)
	li	a4,103
	bleu	a3,a4,.L58
	mv	s1,a0
.LM145:
	li	a0,22
.LVL62:
.LM146:
	mv	s2,a1
	call	memp_malloc
.LVL63:
.LM147:
	mv	s0,a0
.LVL64:
.LM148:
.LM149:
	bne	a0,zero,.L59
.LVL65:
.L60:
.LM150:
.LM151:
.LM152:
	call	coap_get_log_level
.LVL66:
.LM153:
	li	a5,6
	bleu	a0,a5,.L62
.LM154:
	lui	a1,%hi(.LC5)
	addi	a1,a1,%lo(.LC5)
	li	a0,7
	call	coap_log_impl
.LVL67:
.L62:
.LM155:
	li	s0,0
.LM156:
.LM157:
.LM158:
	j	.L57
.LVL68:
.L58:
.LM159:
	lw	a4,0(a5)
.LVL69:
.LBB57:
.LBI57:
.LM160:
.LBB58:
.LM161:
.LM162:
	lhu	a5,0(a4)
	addi	a5,a5,1
	sh	a5,0(a4)
.LM163:
.LVL70:
.LM164:
.LBE58:
.LBE57:
.LM165:
	j	.L60
.LVL71:
.L59:
.LM166:
	li	a2,104
	li	a1,0
	call	memset
.LVL72:
.LM167:
.LM168:
	li	a5,1
	sw	a5,4(s0)
.LM169:
.LM170:
	lhu	a5,0(s0)
.LM171:
	lui	a0,%hi(coap_unknown_resource_uri)
	li	a1,11
.LM172:
	ori	a5,a5,16
	sh	a5,0(s0)
.LM173:
.LM174:
	addi	a0,a0,%lo(coap_unknown_resource_uri)
	call	coap_new_str_const
.LVL73:
.LM175:
	andi	a5,s2,-2
.LM176:
	sw	a0,76(s0)
.LM177:
.LM178:
	sw	a5,80(s0)
.LM179:
.LVL74:
.LBB59:
.LBI59:
.LM180:
.LM181:
.LBB60:
.LBI60:
.LM182:
.LBB61:
.LM183:
.LM184:
.LM185:
.LM186:
	sw	s1,16(s0)
.LVL75:
.L57:
.LM187:
.LBE61:
.LBE60:
.LBE59:
.LM188:
	lw	ra,12(sp)
	.cfi_restore 1
	mv	a0,s0
	lw	s0,8(sp)
	.cfi_restore 8
	lw	s1,4(sp)
	.cfi_restore 9
	lw	s2,0(sp)
	.cfi_restore 18
	addi	sp,sp,16
	.cfi_def_cfa_offset 0
	jr	ra
	.cfi_endproc
.LFE55:
	.size	coap_resource_unknown_init2, .-coap_resource_unknown_init2
	.section	.text.coap_resource_unknown_init,"ax",@progbits
	.align	1
	.globl	coap_resource_unknown_init
	.type	coap_resource_unknown_init, @function
coap_resource_unknown_init:
.LVL76:
.LFB56:
.LM189:
	.cfi_startproc
.LM190:
.LM191:
	li	a1,0
	tail	coap_resource_unknown_init2
.LVL77:
.LM192:
	.cfi_endproc
.LFE56:
	.size	coap_resource_unknown_init, .-coap_resource_unknown_init
	.section	.rodata.coap_resource_proxy_uri_init2.str1.4,"aMS",@progbits,1
	.align	2
.LC6:
	.string	"coap_resource_proxy_uri_init: unable to add host name\n"
	.align	2
.LC7:
	.string	"coap_resource_proxy_uri_init2: no memory left\n"
	.section	.text.coap_resource_proxy_uri_init2,"ax",@progbits
	.align	1
	.globl	coap_resource_proxy_uri_init2
	.type	coap_resource_proxy_uri_init2, @function
coap_resource_proxy_uri_init2:
.LVL78:
.LFB57:
.LM193:
	.cfi_startproc
.LM194:
.LM195:
.LM196:
	addi	sp,sp,-48
	.cfi_def_cfa_offset 48
	sw	s3,28(sp)
	.cfi_offset 19, -20
.LM197:
	lui	s3,%hi(memp_pools)
	addi	s3,s3,%lo(memp_pools)
	lw	a5,88(s3)
.LM198:
	sw	s7,12(sp)
	sw	ra,44(sp)
	sw	s0,40(sp)
	sw	s1,36(sp)
	sw	s2,32(sp)
	sw	s4,24(sp)
	sw	s5,20(sp)
	sw	s6,16(sp)
	.cfi_offset 23, -36
	.cfi_offset 1, -4
	.cfi_offset 8, -8
	.cfi_offset 9, -12
	.cfi_offset 18, -16
	.cfi_offset 20, -24
	.cfi_offset 21, -28
	.cfi_offset 22, -32
.LM199:
	mv	s7,a3
.LM200:
	lhu	a3,4(a5)
.LVL79:
.LM201:
	li	a4,103
	bleu	a3,a4,.L66
	mv	s2,a0
.LM202:
	li	a0,22
.LVL80:
.LM203:
	mv	s1,a1
	mv	s6,a2
	call	memp_malloc
.LVL81:
.LM204:
	mv	s0,a0
.LVL82:
.LM205:
.LM206:
	bne	a0,zero,.L67
.LVL83:
.L68:
.LM207:
.LM208:
.LM209:
	call	coap_get_log_level
.LVL84:
.LM210:
	li	a5,6
	bleu	a0,a5,.L79
.LM211:
	lui	a1,%hi(.LC7)
	addi	a1,a1,%lo(.LC7)
	li	a0,7
	call	coap_log_impl
.LVL85:
.L79:
.LBB62:
.LM212:
	li	s0,0
.LBE62:
.LM213:
.LM214:
.LM215:
	j	.L65
.LVL86:
.L66:
.LM216:
	lw	a4,0(a5)
.LVL87:
.LBB65:
.LBI65:
.LM217:
.LBB66:
.LM218:
.LM219:
	lhu	a5,0(a4)
	addi	a5,a5,1
	sh	a5,0(a4)
.LM220:
.LVL88:
.LM221:
.LBE66:
.LBE65:
.LM222:
	j	.L68
.LVL89:
.L67:
.LBB67:
.LM223:
.LM224:
	li	a2,104
	li	a1,0
	call	memset
.LVL90:
.LM225:
.LM226:
	li	a5,1
	sw	a5,4(s0)
.LM227:
.LM228:
	lhu	a5,0(s0)
.LM229:
	lui	a0,%hi(coap_proxy_resource_uri)
	li	a1,13
.LM230:
	ori	a5,a5,32
	sh	a5,0(s0)
.LM231:
.LM232:
	addi	a0,a0,%lo(coap_proxy_resource_uri)
	call	coap_new_str_const
.LVL91:
.LM233:
	sw	a0,76(s0)
.LM234:
.LVL92:
.LM235:
.LM236:
.LM237:
	sw	s2,8(s0)
.LM238:
.LVL93:
.LM239:
.LM240:
.LM241:
	sw	s2,12(s0)
.LM242:
.LVL94:
.LM243:
.LM244:
.LM245:
	sw	s2,16(s0)
.LM246:
.LVL95:
.LM247:
.LM248:
.LM249:
	sw	s2,20(s0)
.LM250:
.LVL96:
.LM251:
.LM252:
.LM253:
	sw	s2,24(s0)
.LM254:
.LVL97:
.LM255:
.LM256:
.LM257:
	sw	s2,28(s0)
.LM258:
.LVL98:
.LM259:
.LM260:
.LM261:
	sw	s2,32(s0)
.LM262:
.LVL99:
.LM263:
.LM264:
.LM265:
	beq	s1,zero,.L70
.LM266:
.LM267:
	lw	a4,100(s3)
.LM268:
	slli	a5,s1,2
.LM269:
	lhu	a3,4(a4)
.LM270:
	bgtu	a5,a3,.L71
.LM271:
	li	a0,25
	call	memp_malloc
.LVL100:
.LM272:
	sw	a0,96(s0)
.LM273:
.LM274:
	li	s2,0
.LVL101:
.LM275:
	bne	a0,zero,.L72
.LVL102:
.L70:
.LM276:
.LM277:
	andi	a5,s7,-2
.LM278:
	sw	a5,80(s0)
.LVL103:
.L65:
.LM279:
.LBE67:
.LM280:
	lw	ra,44(sp)
	.cfi_remember_state
	.cfi_restore 1
	mv	a0,s0
	lw	s0,40(sp)
	.cfi_restore 8
	lw	s1,36(sp)
	.cfi_restore 9
	lw	s2,32(sp)
	.cfi_restore 18
	lw	s3,28(sp)
	.cfi_restore 19
	lw	s4,24(sp)
	.cfi_restore 20
	lw	s5,20(sp)
	.cfi_restore 21
	lw	s6,16(sp)
	.cfi_restore 22
	lw	s7,12(sp)
	.cfi_restore 23
.LVL104:
.LM281:
	addi	sp,sp,48
	.cfi_def_cfa_offset 0
	jr	ra
.LVL105:
.L71:
	.cfi_restore_state
.LBB68:
.LM282:
	lw	a4,0(a4)
.LVL106:
.LBB63:
.LBI63:
.LM283:
.LBB64:
.LM284:
.LM285:
	lhu	a5,0(a4)
	addi	a5,a5,1
	sh	a5,0(a4)
.LM286:
.LVL107:
.LM287:
.LBE64:
.LBE63:
.LM288:
	sw	zero,96(s0)
.LM289:
	j	.L70
.LVL108:
.L74:
.LM290:
	addi	s2,s2,1
.LVL109:
.LM291:
	beq	s1,s2,.L77
.LVL110:
.L72:
.LM292:
	slli	s3,s2,2
.LM293:
	add	a5,s6,s3
	lw	a5,0(a5)
	mv	a0,a5
	mv	s5,a5
	call	strlen
.LVL111:
.LM294:
	lw	s4,96(s0)
.LM295:
	mv	a1,a0
	mv	a0,s5
	call	coap_new_str_const
.LVL112:
.LM296:
	add	s4,s4,s3
.LM297:
	sw	a0,0(s4)
.LM298:
.LM299:
	lw	a5,96(s0)
	add	a5,a5,s3
.LM300:
	lw	a5,0(a5)
	bne	a5,zero,.L74
.LM301:
.LM302:
.LM303:
	call	coap_get_log_level
.LVL113:
.LM304:
	li	a5,2
	bleu	a0,a5,.L75
.LM305:
	lui	a1,%hi(.LC6)
	addi	a1,a1,%lo(.LC6)
	li	a0,3
	call	coap_log_impl
.LVL114:
.L75:
.LM306:
.LM307:
.LM308:
	bne	s2,zero,.L76
.LM309:
	lw	a1,96(s0)
	li	a0,25
	call	memp_free
.LVL115:
.LM310:
.LM311:
	sw	zero,96(s0)
.L76:
.LM312:
	mv	s1,s2
.LVL116:
.L77:
.LM313:
.LM314:
	sw	s1,92(s0)
	j	.L70
.LBE68:
	.cfi_endproc
.LFE57:
	.size	coap_resource_proxy_uri_init2, .-coap_resource_proxy_uri_init2
	.section	.text.coap_resource_proxy_uri_init,"ax",@progbits
	.align	1
	.globl	coap_resource_proxy_uri_init
	.type	coap_resource_proxy_uri_init, @function
coap_resource_proxy_uri_init:
.LVL117:
.LFB58:
.LM315:
	.cfi_startproc
.LM316:
.LM317:
	li	a3,0
	tail	coap_resource_proxy_uri_init2
.LVL118:
.LM318:
	.cfi_endproc
.LFE58:
	.size	coap_resource_proxy_uri_init, .-coap_resource_proxy_uri_init
	.section	.rodata.coap_resource_reverse_proxy_init.str1.4,"aMS",@progbits,1
	.align	2
.LC8:
	.string	"coap_resource_rev_proxy_init: no memory left\n"
	.section	.text.coap_resource_reverse_proxy_init,"ax",@progbits
	.align	1
	.globl	coap_resource_reverse_proxy_init
	.type	coap_resource_reverse_proxy_init, @function
coap_resource_reverse_proxy_init:
.LVL119:
.LFB59:
.LM319:
	.cfi_startproc
.LM320:
.LM321:
.LM322:
	lui	a5,%hi(memp_pools)
	addi	a5,a5,%lo(memp_pools)
	lw	a5,88(a5)
.LM323:
	addi	sp,sp,-16
	.cfi_def_cfa_offset 16
	sw	ra,12(sp)
	sw	s0,8(sp)
	sw	s1,4(sp)
	sw	s2,0(sp)
	.cfi_offset 1, -4
	.cfi_offset 8, -8
	.cfi_offset 9, -12
	.cfi_offset 18, -16
.LM324:
	lhu	a3,4(a5)
	li	a4,103
	bleu	a3,a4,.L86
	mv	s1,a0
.LM325:
	li	a0,22
.LVL120:
.LM326:
	mv	s2,a1
	call	memp_malloc
.LVL121:
.LM327:
	mv	s0,a0
.LVL122:
.LM328:
.LM329:
	bne	a0,zero,.L87
.LVL123:
.L88:
.LM330:
.LM331:
.LM332:
	call	coap_get_log_level
.LVL124:
.LM333:
	li	a5,6
	bleu	a0,a5,.L90
.LM334:
	lui	a1,%hi(.LC8)
	addi	a1,a1,%lo(.LC8)
	li	a0,7
	call	coap_log_impl
.LVL125:
.L90:
.LM335:
	li	s0,0
.LM336:
.LM337:
.LM338:
	j	.L85
.LVL126:
.L86:
.LM339:
	lw	a4,0(a5)
.LVL127:
.LBB99:
.LBI99:
.LM340:
.LBB100:
.LM341:
.LM342:
	lhu	a5,0(a4)
	addi	a5,a5,1
	sh	a5,0(a4)
.LM343:
.LVL128:
.LM344:
.LBE100:
.LBE99:
.LM345:
	j	.L88
.LVL129:
.L87:
.LM346:
	li	a2,104
	li	a1,0
	call	memset
.LVL130:
.LM347:
.LM348:
	li	a5,1
	sw	a5,4(s0)
.LM349:
.LM350:
.LM351:
	lbu	a5,0(s0)
.LM352:
	lui	a0,%hi(coap_rev_proxy_resource_uri)
	li	a1,13
.LM353:
	ori	a5,a5,80
	sb	a5,0(s0)
.LM354:
.LM355:
	addi	a0,a0,%lo(coap_rev_proxy_resource_uri)
	call	coap_new_str_const
.LVL131:
.LM356:
	li	a4,4096
.LM357:
	andi	a5,s2,-2
.LM358:
	addi	a4,a4,-2048
	or	a5,a5,a4
.LM359:
	sw	a0,76(s0)
.LM360:
.LM361:
.LM362:
	sw	a5,80(s0)
.LM363:
.LVL132:
.LBB101:
.LBI101:
.LM364:
.LM365:
.LBB102:
.LBI102:
.LM366:
.LBB103:
.LM367:
.LM368:
.LM369:
.LM370:
	sw	s1,16(s0)
.LVL133:
.LM371:
.LBE103:
.LBE102:
.LBE101:
.LM372:
.LBB104:
.LBI104:
.LM373:
.LM374:
.LBB105:
.LBI105:
.LM375:
.LBB106:
.LM376:
.LM377:
.LM378:
.LM379:
	sw	s1,8(s0)
.LVL134:
.LM380:
.LBE106:
.LBE105:
.LBE104:
.LM381:
.LBB107:
.LBI107:
.LM382:
.LM383:
.LBB108:
.LBI108:
.LM384:
.LBB109:
.LM385:
.LM386:
.LM387:
.LM388:
	sw	s1,12(s0)
.LVL135:
.LM389:
.LBE109:
.LBE108:
.LBE107:
.LM390:
.LBB110:
.LBI110:
.LM391:
.LM392:
.LBB111:
.LBI111:
.LM393:
.LBB112:
.LM394:
.LM395:
.LM396:
.LM397:
	sw	s1,20(s0)
.LVL136:
.LM398:
.LBE112:
.LBE111:
.LBE110:
.LM399:
.LBB113:
.LBI113:
.LM400:
.LM401:
.LBB114:
.LBI114:
.LM402:
.LBB115:
.LM403:
.LM404:
.LM405:
.LM406:
	sw	s1,24(s0)
.LVL137:
.LM407:
.LBE115:
.LBE114:
.LBE113:
.LM408:
.LBB116:
.LBI116:
.LM409:
.LM410:
.LBB117:
.LBI117:
.LM411:
.LBB118:
.LM412:
.LM413:
.LM414:
.LM415:
	sw	s1,28(s0)
.LVL138:
.LM416:
.LBE118:
.LBE117:
.LBE116:
.LM417:
.LBB119:
.LBI119:
.LM418:
.LM419:
.LBB120:
.LBI120:
.LM420:
.LBB121:
.LM421:
.LM422:
.LM423:
.LM424:
	sw	s1,32(s0)
.LVL139:
.L85:
.LM425:
.LBE121:
.LBE120:
.LBE119:
.LM426:
	lw	ra,12(sp)
	.cfi_restore 1
	mv	a0,s0
	lw	s0,8(sp)
	.cfi_restore 8
	lw	s1,4(sp)
	.cfi_restore 9
	lw	s2,0(sp)
	.cfi_restore 18
	addi	sp,sp,16
	.cfi_def_cfa_offset 0
	jr	ra
	.cfi_endproc
.LFE59:
	.size	coap_resource_reverse_proxy_init, .-coap_resource_reverse_proxy_init
	.section	.rodata.coap_add_attr.str1.4,"aMS",@progbits,1
	.align	2
.LC9:
	.string	"coap_add_attr: no memory left\n"
	.section	.text.coap_add_attr,"ax",@progbits
	.align	1
	.globl	coap_add_attr
	.type	coap_add_attr, @function
coap_add_attr:
.LVL140:
.LFB60:
.LM427:
	.cfi_startproc
.LM428:
.LM429:
.LM430:
	addi	sp,sp,-32
	.cfi_def_cfa_offset 32
	sw	ra,28(sp)
	sw	s0,24(sp)
	sw	s1,20(sp)
	sw	s2,16(sp)
	sw	s3,12(sp)
	sw	s4,8(sp)
	.cfi_offset 1, -4
	.cfi_offset 8, -8
	.cfi_offset 9, -12
	.cfi_offset 18, -16
	.cfi_offset 19, -20
	.cfi_offset 20, -24
.LM431:
	beq	a1,zero,.L95
	beq	a0,zero,.L95
.LM432:
	lui	a5,%hi(memp_pools)
	addi	a5,a5,%lo(memp_pools)
	lw	a5,92(a5)
	mv	s4,a3
.LM433:
	li	a4,15
	lhu	a3,4(a5)
.LVL141:
.LM434:
	mv	s3,a0
.LM435:
.LM436:
	bleu	a3,a4,.L96
.LM437:
	li	a0,23
.LVL142:
.LM438:
	mv	s2,a1
	mv	s1,a2
	call	memp_malloc
.LVL143:
.LM439:
	mv	s0,a0
.LVL144:
.LM440:
.LM441:
	bne	a0,zero,.L97
.LVL145:
.L98:
.LM442:
.LM443:
.LM444:
	call	coap_get_log_level
.LVL146:
.LM445:
	li	a5,6
	bleu	a0,a5,.L95
.LM446:
	lui	a1,%hi(.LC9)
	addi	a1,a1,%lo(.LC9)
	li	a0,7
	call	coap_log_impl
.LVL147:
.L95:
.LM447:
	li	s0,0
	j	.L92
.LVL148:
.L96:
.LM448:
	lw	a4,0(a5)
.LVL149:
.LBB122:
.LBI122:
.LM449:
.LBB123:
.LM450:
.LM451:
	lhu	a5,0(a4)
	addi	a5,a5,1
	sh	a5,0(a4)
.LM452:
.LVL150:
.LM453:
.LBE123:
.LBE122:
.LM454:
	j	.L98
.LVL151:
.L97:
.LM455:
.LM456:
	andi	a5,s4,1
.LM457:
	bne	a5,zero,.L99
.LM458:
.LM459:
	lw	a1,0(s2)
	lw	a0,4(s2)
	call	coap_new_str_const
.LVL152:
	mv	s2,a0
.LVL153:
.L99:
.LM460:
.LM461:
	sw	s2,4(s0)
.LM462:
.LM463:
	beq	s1,zero,.L100
.LM464:
.LM465:
	andi	a5,s4,2
.LM466:
	bne	a5,zero,.L100
.LM467:
.LM468:
	lw	a1,0(s1)
	lw	a0,4(s1)
	call	coap_new_str_const
.LVL154:
	mv	s1,a0
.LVL155:
.L100:
.LM469:
.LM470:
	sw	s1,8(s0)
.LM471:
.LM472:
	sw	s4,12(s0)
.LM473:
.LM474:
.LM475:
	lw	a5,68(s3)
.LM476:
	sw	a5,0(s0)
.LM477:
.LM478:
	sw	s0,68(s3)
.LM479:
.LVL156:
.L92:
.LM480:
	lw	ra,28(sp)
	.cfi_restore 1
	mv	a0,s0
	lw	s0,24(sp)
	.cfi_restore 8
	lw	s1,20(sp)
	.cfi_restore 9
	lw	s2,16(sp)
	.cfi_restore 18
	lw	s3,12(sp)
	.cfi_restore 19
	lw	s4,8(sp)
	.cfi_restore 20
	addi	sp,sp,32
	.cfi_def_cfa_offset 0
	jr	ra
	.cfi_endproc
.LFE60:
	.size	coap_add_attr, .-coap_add_attr
	.section	.text.coap_find_attr,"ax",@progbits
	.align	1
	.globl	coap_find_attr
	.type	coap_find_attr, @function
coap_find_attr:
.LVL157:
.LFB61:
.LM481:
	.cfi_startproc
.LM482:
.LM483:
.LM484:
	addi	sp,sp,-16
	.cfi_def_cfa_offset 16
	sw	ra,12(sp)
	sw	s0,8(sp)
	sw	s1,4(sp)
	.cfi_offset 1, -4
	.cfi_offset 8, -8
	.cfi_offset 9, -12
.LM485:
	beq	a1,zero,.L115
	bne	a0,zero,.L108
.LVL158:
.L115:
.LM486:
	li	s0,0
.L107:
.LM487:
	lw	ra,12(sp)
	.cfi_remember_state
	.cfi_restore 1
	mv	a0,s0
	lw	s0,8(sp)
	.cfi_restore 8
	lw	s1,4(sp)
	.cfi_restore 9
	addi	sp,sp,16
	.cfi_def_cfa_offset 0
	jr	ra
.LVL159:
.L108:
	.cfi_restore_state
.LM488:
	lw	s0,68(a0)
	mv	s1,a1
.LM489:
.LVL160:
.L111:
.LM490:
	beq	s0,zero,.L115
.LM491:
.LM492:
	lw	a5,4(s0)
.LM493:
	lw	a4,0(s1)
.LM494:
	lw	a2,0(a5)
	beq	a2,a4,.L112
.L113:
.LM495:
	lw	s0,0(s0)
.LVL161:
.LM496:
	j	.L111
.L112:
.LM497:
	lw	a1,4(s1)
	lw	a0,4(a5)
	call	memcmp
.LVL162:
.LM498:
	bne	a0,zero,.L113
	j	.L107
	.cfi_endproc
.LFE61:
	.size	coap_find_attr, .-coap_find_attr
	.section	.text.coap_attr_get_value,"ax",@progbits
	.align	1
	.globl	coap_attr_get_value
	.type	coap_attr_get_value, @function
coap_attr_get_value:
.LVL163:
.LFB62:
.LM499:
	.cfi_startproc
.LM500:
.LM501:
	beq	a0,zero,.L121
.LM502:
.LM503:
	lw	a0,8(a0)
.LVL164:
.L121:
.LM504:
	ret
	.cfi_endproc
.LFE62:
	.size	coap_attr_get_value, .-coap_attr_get_value
	.section	.text.coap_delete_attr,"ax",@progbits
	.align	1
	.globl	coap_delete_attr
	.type	coap_delete_attr, @function
coap_delete_attr:
.LVL165:
.LFB63:
.LM505:
	.cfi_startproc
.LM506:
.LM507:
	beq	a0,zero,.L125
.LM508:
	addi	sp,sp,-16
	.cfi_def_cfa_offset 16
	sw	s0,8(sp)
	sw	ra,12(sp)
	.cfi_offset 8, -8
	.cfi_offset 1, -4
	mv	s0,a0
.LVL166:
.LBB126:
.LBI126:
.LM509:
.LBB127:
.LM510:
	lw	a0,4(a0)
.LVL167:
.LM511:
	call	coap_delete_str_const
.LVL168:
.LM512:
.LM513:
	lw	a0,8(s0)
.LM514:
	beq	a0,zero,.L127
.LM515:
	call	coap_delete_str_const
.LVL169:
.L127:
.LM516:
	mv	a1,s0
.LBE127:
.LBE126:
.LM517:
	lw	s0,8(sp)
	.cfi_restore 8
.LVL170:
.LM518:
	lw	ra,12(sp)
	.cfi_restore 1
.LBB130:
.LBB128:
.LM519:
	li	a0,23
.LBE128:
.LBE130:
.LM520:
	addi	sp,sp,16
	.cfi_def_cfa_offset 0
.LBB131:
.LBB129:
.LM521:
	tail	memp_free
.LVL171:
.L125:
.LM522:
	ret
.LBE129:
.LBE131:
	.cfi_endproc
.LFE63:
	.size	coap_delete_attr, .-coap_delete_attr
	.section	.rodata.coap_resource_release_lkd.str1.4,"aMS",@progbits,1
	.align	2
.LC10:
	.string	"resource->ref"
	.section	.text.coap_resource_release_lkd,"ax",@progbits
	.align	1
	.globl	coap_resource_release_lkd
	.type	coap_resource_release_lkd, @function
coap_resource_release_lkd:
.LVL172:
.LFB65:
.LM523:
	.cfi_startproc
.LM524:
.LM525:
	addi	sp,sp,-16
	.cfi_def_cfa_offset 16
	sw	ra,12(sp)
	sw	s0,8(sp)
	sw	s1,4(sp)
	.cfi_offset 1, -4
	.cfi_offset 8, -8
	.cfi_offset 9, -12
.LM526:
	lw	s0,4(a0)
.LM527:
	bne	s0,zero,.L135
.LM528:
	lui	a3,%hi(.LC10)
	lui	a2,%hi(__func__.11)
	lui	a0,%hi(.LC1)
.LVL173:
.LM529:
	addi	a3,a3,%lo(.LC10)
	addi	a2,a2,%lo(__func__.11)
	li	a1,526
	addi	a0,a0,%lo(.LC1)
	call	__assert_func
.LVL174:
.L135:
.LM530:
	addi	s0,s0,-1
	sw	s0,4(a0)
	mv	s1,a0
.LM531:
.LM532:
.LM533:
	bne	s0,zero,.L134
.LVL175:
.LBB135:
.LBI135:
.LM534:
.LBB136:
.LM535:
.LM536:
	lw	a5,92(a0)
	beq	a5,zero,.L137
.LM537:
	lw	a5,96(a0)
	bne	a5,zero,.L138
.L137:
.LM538:
.LBE136:
.LBE135:
.LM539:
	lw	s0,8(sp)
	.cfi_remember_state
	.cfi_restore 8
	lw	ra,12(sp)
	.cfi_restore 1
.LBB141:
.LBB138:
.LM540:
	mv	a1,s1
.LBE138:
.LBE141:
.LM541:
	lw	s1,4(sp)
	.cfi_restore 9
.LVL176:
.LBB142:
.LBB139:
.LM542:
	li	a0,22
.LBE139:
.LBE142:
.LM543:
	addi	sp,sp,16
	.cfi_def_cfa_offset 0
.LBB143:
.LBB140:
.LM544:
	tail	memp_free
.LVL177:
.L139:
	.cfi_restore_state
.LBB137:
.LM545:
	slli	a5,s0,2
	add	a1,a1,a5
	lw	a0,0(a1)
.LM546:
	addi	s0,s0,1
.LVL178:
.LM547:
	call	coap_delete_str_const
.LVL179:
.LM548:
.L138:
.LM549:
	lw	a5,92(s1)
.LM550:
	lw	a1,96(s1)
.LM551:
	bltu	s0,a5,.L139
.LM552:
	li	a0,25
	call	memp_free
.LVL180:
	j	.L137
.LVL181:
.L134:
.LM553:
.LBE137:
.LBE140:
.LBE143:
.LM554:
	lw	ra,12(sp)
	.cfi_restore 1
	lw	s0,8(sp)
	.cfi_restore 8
	lw	s1,4(sp)
	.cfi_restore 9
.LVL182:
.LM555:
	addi	sp,sp,16
	.cfi_def_cfa_offset 0
	jr	ra
	.cfi_endproc
.LFE65:
	.size	coap_resource_release_lkd, .-coap_resource_release_lkd
	.section	.text.coap_get_resource_from_uri_path_lkd,"ax",@progbits
	.align	1
	.globl	coap_get_resource_from_uri_path_lkd
	.type	coap_get_resource_from_uri_path_lkd, @function
coap_get_resource_from_uri_path_lkd:
.LVL183:
.LFB72:
.LM556:
	.cfi_startproc
.LM557:
.LM558:
.LM559:
.LM560:
.LM561:
.LM562:
.LM563:
	addi	sp,sp,-32
	.cfi_def_cfa_offset 32
	sw	ra,28(sp)
	sw	s0,24(sp)
	sw	s1,20(sp)
	sw	s2,16(sp)
	sw	s3,12(sp)
	.cfi_offset 1, -4
	.cfi_offset 8, -8
	.cfi_offset 9, -12
	.cfi_offset 18, -16
	.cfi_offset 19, -20
.LM564:
	lw	a6,12(a0)
.LM565:
	bne	a6,zero,.L146
.LVL184:
.L163:
.LM566:
	li	s0,0
.L145:
.LM567:
	lw	ra,28(sp)
	.cfi_remember_state
	.cfi_restore 1
	mv	a0,s0
	lw	s0,24(sp)
	.cfi_restore 8
	lw	s1,20(sp)
	.cfi_restore 9
	lw	s2,16(sp)
	.cfi_restore 18
	lw	s3,12(sp)
	.cfi_restore 19
	addi	sp,sp,32
	.cfi_def_cfa_offset 0
	jr	ra
.LVL185:
.L146:
	.cfi_restore_state
.LBB144:
.LM568:
.LM569:
.LM570:
.LBB145:
.LM571:
.LM572:
.LM573:
	lw	t3,0(a1)
.LM574:
	li	a4,-1640529920
.LM575:
	lw	a5,4(a1)
.LVL186:
.LM576:
.LM577:
.LM578:
.LM579:
.LM580:
	addi	a4,a4,-1607
.LM581:
	li	t5,-17973248
.LM582:
	mv	a2,t3
.LM583:
	mv	t1,a4
.LM584:
	addi	t5,t5,-273
.LM585:
	li	t4,11
.LVL187:
.L148:
.LM586:
	bgtu	a2,t4,.L149
.LM587:
.LM588:
	addi	a2,a2,-1
.LVL188:
.LM589:
	li	a7,10
.LM590:
	add	a3,t5,t3
.LVL189:
.LM591:
.LM592:
	bgtu	a2,a7,.L150
	lui	a7,%hi(.L152)
	slli	a2,a2,2
.LVL190:
.LM593:
	addi	a7,a7,%lo(.L152)
	add	a2,a2,a7
	lw	a2,0(a2)
	jr	a2
	.section	.rodata.coap_get_resource_from_uri_path_lkd,"a",@progbits
	.align	2
	.align	2
.L152:
	.word	.L162
	.word	.L161
	.word	.L160
	.word	.L159
	.word	.L158
	.word	.L157
	.word	.L156
	.word	.L155
	.word	.L154
	.word	.L153
	.word	.L151
	.section	.text.coap_get_resource_from_uri_path_lkd
.LVL191:
.L149:
.LM594:
.LM595:
	lbu	a7,1(a5)
.LM596:
	lbu	a3,0(a5)
.LM597:
	addi	a2,a2,-12
.LVL192:
.LM598:
	slli	a7,a7,8
	add	a3,a3,t1
	add	a7,a7,a3
.LM599:
	lbu	a3,2(a5)
.LM600:
	lbu	t1,7(a5)
.LVL193:
.LM601:
	addi	a5,a5,12
.LVL194:
.LM602:
	slli	a3,a3,16
	add	a7,a7,a3
.LM603:
	lbu	a3,-9(a5)
.LM604:
	slli	t1,t1,24
.LM605:
	slli	a3,a3,24
.LM606:
	add	t6,a3,a7
.LVL195:
.LM607:
.LM608:
	lbu	a3,-8(a5)
.LM609:
	lbu	a7,-7(a5)
	add	a4,a3,a4
.LVL196:
.LM610:
	lbu	a3,-6(a5)
.LM611:
	slli	a7,a7,8
	add	a4,a7,a4
.LM612:
	slli	a3,a3,16
	add	a4,a4,a3
.LM613:
	add	t1,t1,a4
.LVL197:
.LM614:
.LM615:
	lbu	a3,-3(a5)
.LM616:
	lbu	a4,-4(a5)
.LM617:
	slli	a3,a3,8
	add	a4,a4,t5
	add	a3,a3,a4
.LM618:
	lbu	a4,-2(a5)
.LM619:
	slli	a4,a4,16
	add	a3,a3,a4
.LM620:
	lbu	a4,-1(a5)
.LM621:
	slli	a4,a4,24
.LM622:
	add	a4,a4,a3
.LVL198:
.LM623:
.LM624:
.LM625:
	sub	a3,t6,t1
.LVL199:
.LM626:
.LM627:
	sub	a3,a3,a4
.LVL200:
.LM628:
.LM629:
	srli	a7,a4,13
.LM630:
	xor	a7,a7,a3
.LVL201:
.LM631:
.LM632:
	sub	t1,t1,a4
.LVL202:
.LM633:
.LM634:
	sub	a3,t1,a7
.LVL203:
.LM635:
.LM636:
	slli	t1,a7,8
.LM637:
	xor	t1,t1,a3
.LVL204:
.LM638:
.LM639:
	sub	a4,a4,a7
.LVL205:
.LM640:
.LM641:
	sub	a4,a4,t1
.LVL206:
.LM642:
.LM643:
	srli	a3,t1,13
.LM644:
	xor	a3,a3,a4
.LVL207:
.LM645:
.LM646:
	sub	a7,a7,t1
.LVL208:
.LM647:
.LM648:
	sub	a4,a7,a3
.LVL209:
.LM649:
.LM650:
	srli	a7,a3,12
.LM651:
	xor	a7,a7,a4
.LVL210:
.LM652:
.LM653:
	sub	t1,t1,a3
.LVL211:
.LM654:
.LM655:
	sub	t1,t1,a7
.LVL212:
.LM656:
.LM657:
	slli	a4,a7,16
.LM658:
	xor	a4,a4,t1
.LVL213:
.LM659:
.LM660:
	sub	a3,a3,a7
.LVL214:
.LM661:
.LM662:
	sub	t1,a3,a4
.LVL215:
.LM663:
.LM664:
	srli	a3,a4,5
.LM665:
	xor	a3,a3,t1
.LVL216:
.LM666:
.LM667:
	sub	a7,a7,a4
.LVL217:
.LM668:
.LM669:
	sub	a7,a7,a3
.LVL218:
.LM670:
.LM671:
	srli	t1,a3,3
.LM672:
	xor	t1,t1,a7
.LVL219:
.LM673:
.LM674:
	sub	a4,a4,a3
.LVL220:
.LM675:
.LM676:
	sub	a7,a4,t1
.LVL221:
.LM677:
.LM678:
	slli	a4,t1,10
.LM679:
	xor	a4,a4,a7
.LVL222:
.LM680:
.LM681:
	sub	a3,a3,t1
.LVL223:
.LM682:
.LM683:
	sub	a3,a3,a4
.LVL224:
.LM684:
.LM685:
	srli	t5,a4,15
.LM686:
	xor	t5,t5,a3
.LVL225:
.LM687:
.LM688:
.LM689:
	j	.L148
.LVL226:
.L151:
.LM690:
.LM691:
	lbu	a2,10(a5)
.LM692:
	slli	a2,a2,24
.LM693:
	add	a3,a3,a2
.LVL227:
.L153:
.LM694:
.LM695:
.LM696:
	lbu	a2,9(a5)
.LM697:
	slli	a2,a2,16
.LM698:
	add	a3,a3,a2
.LVL228:
.L154:
.LM699:
.LM700:
.LM701:
	lbu	a2,8(a5)
.LM702:
	slli	a2,a2,8
.LM703:
	add	a3,a3,a2
.LVL229:
.L155:
.LM704:
.LM705:
.LM706:
	lbu	a2,7(a5)
.LM707:
	slli	a2,a2,24
.LM708:
	add	a4,a4,a2
.LVL230:
.L156:
.LM709:
.LM710:
.LM711:
	lbu	a2,6(a5)
.LM712:
	slli	a2,a2,16
.LM713:
	add	a4,a4,a2
.LVL231:
.L157:
.LM714:
.LM715:
.LM716:
	lbu	a2,5(a5)
.LM717:
	slli	a2,a2,8
.LM718:
	add	a4,a4,a2
.LVL232:
.L158:
.LM719:
.LM720:
.LM721:
	lbu	a2,4(a5)
.LM722:
	add	a4,a4,a2
.LVL233:
.L159:
.LM723:
.LM724:
.LM725:
	lbu	a2,3(a5)
.LM726:
	slli	a2,a2,24
.LM727:
	add	t1,t1,a2
.LVL234:
.L160:
.LM728:
.LM729:
.LM730:
	lbu	a2,2(a5)
.LM731:
	slli	a2,a2,16
.LM732:
	add	t1,t1,a2
.LVL235:
.L161:
.LM733:
.LM734:
.LM735:
	lbu	a2,1(a5)
.LM736:
	slli	a2,a2,8
.LM737:
	add	t1,t1,a2
.LVL236:
.L162:
.LM738:
.LM739:
.LM740:
	lbu	a5,0(a5)
.LVL237:
.LM741:
	add	t1,t1,a5
.LVL238:
.L150:
.LM742:
.LM743:
.LM744:
.LM745:
.LM746:
.LM747:
	add	a5,a3,a4
	sub	a5,t1,a5
.LVL239:
.LM748:
.LM749:
	srli	a2,a3,13
.LM750:
	xor	a2,a2,a5
.LVL240:
.LM751:
.LM752:
	sub	a4,a4,a3
.LVL241:
.LM753:
.LM754:
	slli	a5,a2,8
.LM755:
	sub	a4,a4,a2
.LVL242:
.LM756:
.LM757:
	xor	a4,a5,a4
.LVL243:
.LM758:
.LM759:
	sub	a3,a3,a2
.LVL244:
.LM760:
.LM761:
	sub	a3,a3,a4
.LVL245:
.LM762:
.LM763:
	srli	a5,a4,13
.LM764:
	xor	a5,a5,a3
.LVL246:
.LM765:
.LM766:
	sub	a2,a2,a4
.LVL247:
.LM767:
.LM768:
	sub	a2,a2,a5
.LVL248:
.LM769:
.LM770:
	srli	a3,a5,12
.LM771:
	xor	a3,a3,a2
.LVL249:
.LM772:
.LM773:
	sub	a4,a4,a5
.LVL250:
.LM774:
.LM775:
	sub	a2,a4,a3
.LVL251:
.LM776:
.LM777:
	slli	a4,a3,16
.LM778:
	xor	a4,a4,a2
.LVL252:
.LM779:
.LM780:
	sub	a5,a5,a3
.LVL253:
.LM781:
.LM782:
	sub	a2,a5,a4
.LVL254:
.LM783:
.LM784:
	srli	a5,a4,5
.LM785:
	xor	a5,a5,a2
.LVL255:
.LM786:
.LM787:
	sub	a3,a3,a4
.LVL256:
.LM788:
.LM789:
	srli	a2,a5,3
.LM790:
	sub	a3,a3,a5
.LVL257:
.LM791:
.LM792:
	xor	a3,a2,a3
.LVL258:
.LM793:
.LM794:
	sub	a4,a4,a5
.LVL259:
.LM795:
.LM796:
	sub	a4,a4,a3
.LVL260:
.LM797:
.LM798:
	slli	s1,a3,10
.LM799:
	xor	s1,s1,a4
.LVL261:
.LM800:
.LBE145:
.LBB146:
.LM801:
	lw	a4,36(a6)
.LBE146:
.LBB147:
.LM802:
	sub	a5,a5,a3
.LVL262:
.LM803:
.LM804:
	sub	a5,a5,s1
.LVL263:
.LM805:
.LM806:
	srli	s1,s1,15
.LVL264:
.LM807:
	xor	s1,s1,a5
.LVL265:
.LM808:
.LBE147:
.LM809:
.LM810:
.LM811:
.LM812:
.LM813:
.LBB148:
.LM814:
.LM815:
.LM816:
.LM817:
.LM818:
.LM819:
.LM820:
.LM821:
	lw	a5,4(a4)
.LM822:
	li	a2,12
	lw	a3,0(a4)
.LVL266:
.LM823:
	addi	a5,a5,-1
.LM824:
	and	a5,a5,s1
.LVL267:
.LM825:
	mul	a5,a5,a2
.LVL268:
.LM826:
	add	a5,a3,a5
	lw	s0,0(a5)
.LM827:
	beq	s0,zero,.L163
.LM828:
	lw	a5,20(a4)
	mv	s2,a1
	mv	s3,a0
.LM829:
.LM830:
.LVL269:
.L175:
.LM831:
	sub	s0,s0,a5
.LM832:
.LVL270:
.LM833:
.LM834:
.LM835:
	lw	a5,64(s0)
	beq	a5,s1,.L164
.L166:
.LM836:
.LM837:
	lw	s0,52(s0)
.LVL271:
.LM838:
	beq	s0,zero,.L163
.LM839:
.LM840:
.LM841:
	lw	a5,12(s3)
.LM842:
	lw	a5,36(a5)
.LM843:
	lw	a5,20(a5)
	j	.L175
.LVL272:
.L164:
.LM844:
	lw	a5,0(s2)
.LM845:
	lw	a2,60(s0)
	bne	a2,a5,.L166
.LM846:
.LM847:
	lw	a1,4(s2)
	lw	a0,56(s0)
	call	memcmp
.LVL273:
.LM848:
	bne	a0,zero,.L166
	j	.L145
.LBE148:
.LBE144:
	.cfi_endproc
.LFE72:
	.size	coap_get_resource_from_uri_path_lkd, .-coap_get_resource_from_uri_path_lkd
	.section	.text.coap_get_resource_from_uri_path,"ax",@progbits
	.align	1
	.globl	coap_get_resource_from_uri_path
	.type	coap_get_resource_from_uri_path, @function
coap_get_resource_from_uri_path:
.LVL274:
.LFB71:
.LM849:
	.cfi_startproc
.LM850:
.LM851:
.LM852:
.LM853:
	tail	coap_get_resource_from_uri_path_lkd
.LVL275:
.LM854:
	.cfi_endproc
.LFE71:
	.size	coap_get_resource_from_uri_path, .-coap_get_resource_from_uri_path
	.section	.rodata.coap_print_link.str1.4,"aMS",@progbits,1
	.align	2
.LC11:
	.string	";obs"
	.section	.text.coap_print_link,"ax",@progbits
	.align	1
	.globl	coap_print_link
	.type	coap_print_link, @function
coap_print_link:
.LVL276:
.LFB73:
.LM855:
	.cfi_startproc
.LM856:
.LM857:
.LM858:
	lw	a4,0(a2)
.LM859:
	lw	t1,0(a3)
.LM860:
	sw	zero,0(a2)
.LM861:
	add	a4,a1,a4
.LVL277:
.LM862:
.LM863:
.LM864:
.LM865:
.LM866:
.LM867:
.LM868:
	bgeu	a1,a4,.L178
.LM869:
.LM870:
	lw	a5,0(a3)
.LM871:
	bne	a5,zero,.L179
.LM872:
.LM873:
	li	a6,60
.LM874:
	addi	a5,a1,1
.LVL278:
.LM875:
	sb	a6,0(a1)
.L180:
.LM876:
.LM877:
.LM878:
	lw	a6,0(a2)
	addi	a6,a6,1
	sw	a6,0(a2)
.LM879:
.LM880:
.LM881:
	bgeu	a5,a4,.L183
.LM882:
.LM883:
	lw	a6,0(a3)
.LM884:
	bne	a6,zero,.L182
.LM885:
.LVL279:
.LM886:
	li	a6,47
	sb	a6,0(a5)
.LM887:
	addi	a5,a5,1
.LVL280:
.L183:
.LM888:
.LM889:
.LM890:
	lw	a6,0(a2)
.LBB149:
.LM891:
	li	a7,0
.LBE149:
.LM892:
	addi	a6,a6,1
.LM893:
.LBB150:
.LM894:
.LM895:
.LVL281:
.L184:
.LM896:
.LBE150:
.LM897:
	sw	a6,0(a2)
.LVL282:
.LBB151:
.LM898:
.LM899:
	lw	t3,76(a0)
.LM900:
	lw	a6,0(t3)
	bgtu	a6,a7,.L188
.LM901:
.LBE151:
.LM902:
.LM903:
.LM904:
	bgeu	a5,a4,.L191
.LM905:
.LM906:
	lw	a6,0(a3)
.LM907:
	bne	a6,zero,.L190
.LM908:
.LVL283:
.LM909:
	li	a6,62
	sb	a6,0(a5)
.LM910:
	addi	a5,a5,1
.LVL284:
.L191:
.LM911:
.LM912:
.LM913:
	lw	a6,0(a2)
.LM914:
	li	t4,59
.LM915:
	addi	a6,a6,1
	sw	a6,0(a2)
.LM916:
.LM917:
.LM918:
	lw	a6,68(a0)
.LVL285:
.L192:
.LM919:
	bne	a6,zero,.L210
.LM920:
.LM921:
	lhu	a0,0(a0)
.LVL286:
.LM922:
	andi	a0,a0,4
	beq	a0,zero,.L211
.LBB152:
.LM923:
	li	a7,4
.LVL287:
.L215:
.LM924:
.LM925:
	bgeu	a5,a4,.L214
.LM926:
.LM927:
	lw	a0,0(a3)
.LM928:
	bne	a0,zero,.L213
.LM929:
.LVL288:
.LM930:
	lui	a0,%hi(.LC11)
	addi	a0,a0,%lo(.LC11)
	add	a0,a6,a0
	lbu	a0,0(a0)
.LM931:
	addi	a5,a5,1
.LVL289:
.LM932:
	sb	a0,-1(a5)
.L214:
.LM933:
.LM934:
.LM935:
	lw	a0,0(a2)
.LM936:
	addi	a6,a6,1
.LVL290:
.LM937:
	addi	a0,a0,1
	sw	a0,0(a2)
.LM938:
.LM939:
.LVL291:
.LM940:
	bne	a6,a7,.L215
.LVL292:
.L211:
.LM941:
.LBE152:
.LM942:
.LM943:
.LM944:
	sub	a0,a5,a1
.LVL293:
.LM945:
.LM946:
	li	a5,268435456
.LVL294:
.LM947:
	bgeu	a0,a5,.L217
.LM948:
.LVL295:
.LM949:
.LM950:
	lw	a5,0(a3)
	sub	t1,t1,a5
.LVL296:
.LM951:
	lw	a5,0(a2)
.LM952:
	add	t1,t1,a0
.LM953:
	bgeu	t1,a5,.L177
.LM954:
.LM955:
	li	a5,1073741824
	or	a0,a0,a5
.LVL297:
.LM956:
	ret
.LVL298:
.L179:
.LM957:
.LM958:
	addi	a5,a5,-1
	sw	a5,0(a3)
.L178:
.LM959:
	mv	a5,a1
	j	.L180
.LVL299:
.L182:
.LM960:
.LM961:
	addi	a6,a6,-1
	sw	a6,0(a3)
	j	.L183
.LVL300:
.L188:
.LBB153:
.LM962:
.LM963:
	bgeu	a5,a4,.L187
.LM964:
.LM965:
	lw	a6,0(a3)
.LM966:
	bne	a6,zero,.L186
.LM967:
.LVL301:
.LM968:
	lw	a6,4(t3)
.LM969:
	addi	a5,a5,1
.LVL302:
.LM970:
	add	a6,a6,a7
	lbu	a6,0(a6)
.LM971:
	sb	a6,-1(a5)
.L187:
.LM972:
.LM973:
.LM974:
	lw	a6,0(a2)
.LM975:
	addi	a7,a7,1
.LVL303:
.LM976:
	addi	a6,a6,1
.LM977:
.LM978:
.LVL304:
.LM979:
	j	.L184
.L186:
.LM980:
.LM981:
	addi	a6,a6,-1
	sw	a6,0(a3)
	j	.L187
.L190:
.LM982:
.LBE153:
.LM983:
.LM984:
	addi	a6,a6,-1
	sw	a6,0(a3)
	j	.L191
.LVL305:
.L210:
.LM985:
.LM986:
	bgeu	a5,a4,.L195
.LM987:
.LM988:
	lw	a7,0(a3)
.LM989:
	bne	a7,zero,.L194
.LM990:
.LVL306:
.LM991:
	sb	t4,0(a5)
.LM992:
	addi	a5,a5,1
.LVL307:
.L195:
.LM993:
.LM994:
.LM995:
	lw	a7,0(a2)
.LBB154:
.LM996:
	li	t3,0
.LBE154:
.LM997:
	addi	a7,a7,1
.LM998:
.LBB155:
.LM999:
.LM1000:
.LVL308:
.L196:
.LM1001:
.LBE155:
.LM1002:
	sw	a7,0(a2)
.LVL309:
.LBB156:
.LM1003:
.LM1004:
	lw	t5,4(a6)
.LM1005:
	lw	a7,0(t5)
	bgtu	a7,t3,.L200
.LM1006:
.LBE156:
.LM1007:
.LM1008:
.LM1009:
	lw	a7,8(a6)
.LM1010:
	beq	a7,zero,.L201
.LM1011:
	lw	a7,4(a7)
	beq	a7,zero,.L201
.LM1012:
.LM1013:
	bgeu	a5,a4,.L204
.LM1014:
.LM1015:
	lw	a7,0(a3)
.LM1016:
	bne	a7,zero,.L203
.LM1017:
.LVL310:
.LM1018:
	li	a7,61
	sb	a7,0(a5)
.LM1019:
	addi	a5,a5,1
.LVL311:
.L204:
.LM1020:
.LM1021:
.LM1022:
	lw	a7,0(a2)
.LBB157:
.LM1023:
	li	t3,0
.LVL312:
.LM1024:
.LBE157:
.LM1025:
	addi	a7,a7,1
.LM1026:
.LBB158:
.LM1027:
.LM1028:
.LVL313:
.L205:
.LM1029:
.LBE158:
.LM1030:
	sw	a7,0(a2)
.LVL314:
.LBB159:
.LM1031:
.LM1032:
	lw	t5,8(a6)
.LM1033:
	lw	a7,0(t5)
	bgtu	a7,t3,.L209
.LVL315:
.L201:
.LM1034:
.LBE159:
.LM1035:
.LM1036:
	lw	a6,0(a6)
.LVL316:
.LM1037:
	j	.L192
.LVL317:
.L194:
.LM1038:
.LM1039:
	addi	a7,a7,-1
	sw	a7,0(a3)
	j	.L195
.LVL318:
.L200:
.LBB160:
.LM1040:
.LM1041:
	bgeu	a5,a4,.L199
.LM1042:
.LM1043:
	lw	a7,0(a3)
.LM1044:
	bne	a7,zero,.L198
.LM1045:
.LVL319:
.LM1046:
	lw	a7,4(t5)
.LM1047:
	addi	a5,a5,1
.LVL320:
.LM1048:
	add	a7,a7,t3
	lbu	a7,0(a7)
.LM1049:
	sb	a7,-1(a5)
.L199:
.LM1050:
.LM1051:
.LM1052:
	lw	a7,0(a2)
.LM1053:
	addi	t3,t3,1
.LVL321:
.LM1054:
	addi	a7,a7,1
.LM1055:
.LM1056:
.LVL322:
.LM1057:
	j	.L196
.L198:
.LM1058:
.LM1059:
	addi	a7,a7,-1
	sw	a7,0(a3)
	j	.L199
.L203:
.LM1060:
.LBE160:
.LM1061:
.LM1062:
	addi	a7,a7,-1
	sw	a7,0(a3)
	j	.L204
.LVL323:
.L209:
.LBB161:
.LM1063:
.LM1064:
	bgeu	a5,a4,.L208
.LM1065:
.LM1066:
	lw	a7,0(a3)
.LM1067:
	bne	a7,zero,.L207
.LM1068:
.LVL324:
.LM1069:
	lw	a7,4(t5)
.LM1070:
	addi	a5,a5,1
.LVL325:
.LM1071:
	add	a7,a7,t3
	lbu	a7,0(a7)
.LM1072:
	sb	a7,-1(a5)
.L208:
.LM1073:
.LM1074:
.LM1075:
	lw	a7,0(a2)
.LM1076:
	addi	t3,t3,1
.LVL326:
.LM1077:
	addi	a7,a7,1
.LM1078:
.LM1079:
.LVL327:
.LM1080:
	j	.L205
.L207:
.LM1081:
.LM1082:
	addi	a7,a7,-1
	sw	a7,0(a3)
	j	.L208
.LVL328:
.L213:
.LM1083:
.LBE161:
.LBB162:
.LM1084:
.LM1085:
	addi	a0,a0,-1
	sw	a0,0(a3)
	j	.L214
.LVL329:
.L217:
.LM1086:
.LBE162:
.LM1087:
	li	a0,-2147483648
.LVL330:
.L177:
.LM1088:
	ret
	.cfi_endproc
.LFE73:
	.size	coap_print_link, .-coap_print_link
	.section	.rodata.coap_print_wellknown_lkd.str1.4,"aMS",@progbits,1
	.align	2
.LC12:
	.string	"href"
	.align	2
.LC13:
	.string	"(resource_param.length + 1) <= query_filter->length"
	.align	2
.LC14:
	.string	".well-known/core"
	.section	.text.coap_print_wellknown_lkd,"ax",@progbits
	.align	1
	.globl	coap_print_wellknown_lkd
	.type	coap_print_wellknown_lkd, @function
coap_print_wellknown_lkd:
.LVL331:
.LFB53:
.LM1089:
	.cfi_startproc
.LM1090:
.LM1091:
.LM1092:
	addi	sp,sp,-128
	.cfi_def_cfa_offset 128
	sw	s2,112(sp)
	sw	s6,96(sp)
	sw	s11,76(sp)
	sw	ra,124(sp)
	sw	s0,120(sp)
	sw	s1,116(sp)
	sw	s3,108(sp)
	sw	s4,104(sp)
	sw	s5,100(sp)
	sw	s7,92(sp)
	sw	s8,88(sp)
	sw	s9,84(sp)
	sw	s10,80(sp)
	.cfi_offset 18, -16
	.cfi_offset 22, -32
	.cfi_offset 27, -52
	.cfi_offset 1, -4
	.cfi_offset 8, -8
	.cfi_offset 9, -12
	.cfi_offset 19, -20
	.cfi_offset 20, -24
	.cfi_offset 21, -28
	.cfi_offset 23, -36
	.cfi_offset 24, -40
	.cfi_offset 25, -44
	.cfi_offset 26, -48
.LM1093:
	sw	a2,16(sp)
	sw	a3,28(sp)
.LM1094:
	sw	a3,24(sp)
.LM1095:
	sw	zero,44(sp)
.LM1096:
	lw	s5,0(a2)
.LM1097:
	mv	s2,a0
	mv	s6,a1
.LVL332:
.LM1098:
.LM1099:
.LM1100:
.LM1101:
.LM1102:
.LM1103:
.LM1104:
.LM1105:
.LM1106:
.LM1107:
.LM1108:
.LM1109:
	mv	s11,a4
.LM1110:
	beq	a4,zero,.L258
.LM1111:
.LM1112:
	lw	s4,4(a4)
.LM1113:
	lw	a5,0(a4)
.LM1114:
	li	s1,0
.LM1115:
	sw	s4,44(sp)
.LM1116:
.LM1117:
	li	a4,61
.LVL333:
.L230:
.LM1118:
	beq	a5,s1,.L261
.LM1119:
	addi	s3,s1,1
.LM1120:
	add	a3,s4,s3
.LM1121:
	lbu	a3,-1(a3)
	bne	a3,a4,.L260
.LM1122:
.LM1123:
	bleu	a5,s1,.L261
.LBB163:
.LM1124:
.LM1125:
.LM1126:
	li	a4,4
.LBE163:
.LM1127:
	li	s10,0
.LBB164:
.LM1128:
	bne	s1,a4,.L231
.LM1129:
	lui	a1,%hi(.LC12)
.LVL334:
.LM1130:
	mv	a2,s1
.LVL335:
.LM1131:
	addi	a1,a1,%lo(.LC12)
	mv	a0,s4
.LVL336:
.LM1132:
	call	memcmp
.LVL337:
.LM1133:
	seqz	s10,a0
.L231:
.LVL338:
.LM1134:
.LM1135:
	lui	s0,%hi(_rt_attributes.14)
	addi	s0,s0,%lo(_rt_attributes.14)
.LVL339:
.L232:
.LM1136:
.LM1137:
	lw	a1,4(s0)
.LM1138:
	beq	a1,zero,.L234
.LM1139:
.LM1140:
	lw	a4,0(s0)
	bne	a4,s1,.L233
.LM1141:
	mv	a2,s1
	mv	a0,s4
	call	memcmp
.LVL340:
.LM1142:
	bne	a0,zero,.L233
.LM1143:
.LM1144:
	ori	s10,s10,4
.LVL341:
.LM1145:
.L234:
.LM1146:
.LM1147:
.LM1148:
	lw	a3,0(s11)
.LM1149:
	bleu	s3,a3,.L236
.LM1150:
	lui	a3,%hi(.LC13)
	lui	a2,%hi(__func__.13)
	lui	a0,%hi(.LC1)
	addi	a3,a3,%lo(.LC13)
	addi	a2,a2,%lo(__func__.13)
	li	a1,174
	addi	a0,a0,%lo(.LC1)
	call	__assert_func
.LVL342:
.L260:
.LM1151:
.LBE164:
	mv	s1,s3
.LVL343:
.LM1152:
	j	.L230
.LVL344:
.L233:
.LBB165:
.LM1153:
	addi	s0,s0,8
.LVL345:
.LM1154:
	j	.L232
.LVL346:
.L236:
.LM1155:
	lw	s11,4(s11)
.LVL347:
.LM1156:
	sub	a3,a3,s1
.LM1157:
	li	a2,47
.LM1158:
	add	s11,s11,s3
.LM1159:
.LM1160:
	lbu	a1,0(s11)
.LM1161:
	addi	s8,a3,-1
.LVL348:
.LM1162:
.LM1163:
	bne	a1,a2,.L237
.LM1164:
	andi	a2,s10,1
.LM1165:
	beq	a2,zero,.L237
.LM1166:
.LM1167:
	addi	s11,s11,1
.LVL349:
.LM1168:
.LM1169:
	addi	s8,a3,-2
.LVL350:
.L237:
.LM1170:
.LM1171:
	beq	s8,zero,.L229
.LM1172:
	addi	a3,s8,-1
	add	a2,s11,a3
.LM1173:
	lbu	a1,0(a2)
	li	a2,42
	bne	a1,a2,.L229
.LM1174:
.LVL351:
.LM1175:
.LM1176:
	ori	s10,s10,2
.LVL352:
.LM1177:
	mv	s8,a3
.LVL353:
.L229:
.LM1178:
.LBE165:
.LM1179:
	lw	s2,12(s2)
.LVL354:
.LM1180:
	add	s5,s6,s5
.LVL355:
.LM1181:
.LM1182:
.LM1183:
	li	s4,0
.LM1184:
	beq	s2,zero,.L238
.LM1185:
	lw	s4,44(s2)
.L238:
.LBB166:
.LM1186:
	srli	a3,s10,1
	andi	a5,a3,1
	srli	a3,s10,2
	sw	a5,8(sp)
	andi	a5,a3,1
.LBE166:
.LM1187:
	lui	a3,%hi(.LC14)
.LBB167:
.LM1188:
	sw	a5,12(sp)
.LBE167:
.LM1189:
	li	s7,268435456
.LM1190:
	addi	a5,a3,%lo(.LC14)
.LBB168:
.LM1191:
	mv	s0,s6
	li	s9,0
	li	s3,0
.LBE168:
.LM1192:
	sw	a5,20(sp)
.LM1193:
	addi	s7,s7,-1
.LVL356:
.L255:
.LM1194:
	bne	s2,zero,.L256
.LVL357:
.L253:
.LM1195:
.LM1196:
	lw	a5,16(sp)
.LM1197:
	sub	a0,s0,s6
.LM1198:
	sw	s3,0(a5)
.LM1199:
.LVL358:
.LM1200:
.LM1201:
	li	a5,268435456
	bgeu	a0,a5,.L265
.LM1202:
.LVL359:
.LM1203:
.LM1204:
	lw	a5,28(sp)
	lw	a4,24(sp)
	sub	a5,a4,a5
	add	a5,a5,a0
.LM1205:
	bgeu	a5,s3,.L228
.LM1206:
.LM1207:
	li	a5,1073741824
	or	a0,a0,a5
.LVL360:
.L228:
.LM1208:
	lw	ra,124(sp)
	.cfi_remember_state
	.cfi_restore 1
	lw	s0,120(sp)
	.cfi_restore 8
.LVL361:
.LM1209:
	lw	s1,116(sp)
	.cfi_restore 9
	lw	s2,112(sp)
	.cfi_restore 18
.LVL362:
.LM1210:
	lw	s3,108(sp)
	.cfi_restore 19
.LVL363:
.LM1211:
	lw	s4,104(sp)
	.cfi_restore 20
.LVL364:
.LM1212:
	lw	s5,100(sp)
	.cfi_restore 21
	lw	s6,96(sp)
	.cfi_restore 22
.LVL365:
.LM1213:
	lw	s7,92(sp)
	.cfi_restore 23
	lw	s8,88(sp)
	.cfi_restore 24
	lw	s9,84(sp)
	.cfi_restore 25
	lw	s10,80(sp)
	.cfi_restore 26
.LVL366:
.LM1214:
	lw	s11,76(sp)
	.cfi_restore 27
	addi	sp,sp,128
	.cfi_def_cfa_offset 0
.LVL367:
.LM1215:
	jr	ra
.LVL368:
.L258:
	.cfi_restore_state
.LM1216:
	li	s8,0
.LM1217:
	li	s1,0
.LVL369:
.L291:
.LM1218:
	li	s10,0
	j	.L229
.LVL370:
.L261:
.LM1219:
	li	s11,0
.LVL371:
.LM1220:
	li	s8,0
	j	.L291
.LVL372:
.L256:
.LM1221:
.LM1222:
	lw	a3,76(s2)
.LM1223:
	li	a5,16
	lw	a2,0(a3)
	beq	a2,a5,.L239
.L242:
.LM1224:
.LM1225:
	bne	s1,zero,.L240
.L248:
.LM1226:
.LM1227:
	beq	s9,zero,.L249
.LM1228:
.LM1229:
	bgeu	s0,s5,.L252
.LM1230:
.LM1231:
	lw	a3,28(sp)
.LM1232:
	bne	a3,zero,.L251
.LM1233:
.LVL373:
.LM1234:
	li	a3,44
	sb	a3,0(s0)
.LM1235:
	addi	s0,s0,1
.LVL374:
.L252:
.LM1236:
.LM1237:
.LM1238:
	addi	s3,s3,1
.LVL375:
.L249:
.LM1239:
.LM1240:
.LM1241:
	sub	a3,s5,s0
.LM1242:
	sw	a3,36(sp)
.LM1243:
.LM1244:
	addi	a2,sp,36
	addi	a3,sp,28
	mv	a1,s0
	mv	a0,s2
	call	coap_print_link
.LVL376:
.LM1245:
.LM1246:
	blt	a0,zero,.L253
.LM1247:
.LM1248:
	lw	a3,36(sp)
.LM1249:
	and	a0,a0,s7
.LVL377:
.LM1250:
	add	s0,s0,a0
.LVL378:
.LM1251:
.LM1252:
	add	s3,s3,a3
.LVL379:
.LM1253:
	li	s9,1
	j	.L245
.LVL380:
.L239:
.LM1254:
	lw	a0,4(a3)
.LM1255:
	beq	a0,zero,.L242
.LM1256:
	lw	a1,20(sp)
	li	a2,16
	call	memcmp
.LVL381:
.LM1257:
	bne	a0,zero,.L242
.LVL382:
.L245:
.LM1258:
.LM1259:
	li	a3,0
.LM1260:
	beq	s4,zero,.L254
.LM1261:
	lw	a3,44(s4)
.LVL383:
.L254:
.LM1262:
	mv	s2,s4
	mv	s4,a3
.LVL384:
.LM1263:
	j	.L255
.LVL385:
.L240:
.LM1264:
.LM1265:
	andi	a3,s10,1
.LM1266:
	beq	a3,zero,.L244
.LM1267:
.LM1268:
	lw	a3,12(sp)
	lw	a2,8(sp)
	lw	a0,76(s2)
	sw	s8,48(sp)
	sw	s11,52(sp)
	addi	a1,sp,48
.L292:
.LBB169:
.LM1269:
	call	match
.LVL386:
.LM1270:
	bne	a0,zero,.L248
	j	.L245
.L244:
.LM1271:
.LM1272:
.LM1273:
.LM1274:
	addi	a1,sp,40
	mv	a0,s2
	sw	s1,40(sp)
	call	coap_find_attr
.LVL387:
.LM1275:
.LM1276:
	beq	a0,zero,.L245
.LM1277:
	lw	a2,8(a0)
.LM1278:
	beq	a2,zero,.L245
.LM1279:
.LM1280:
	lw	a3,0(a2)
	lw	a2,4(a2)
.LM1281:
	li	a1,34
.LM1282:
	sw	a3,56(sp)
.LM1283:
	lbu	a0,0(a2)
.LVL388:
.LM1284:
	sw	a2,60(sp)
.LVL389:
.LM1285:
.LM1286:
	bne	a0,a1,.L247
.LM1287:
.LM1288:
	addi	a2,a2,1
.LM1289:
	addi	a3,a3,-2
.LVL390:
.LM1290:
.LM1291:
	sw	a2,60(sp)
.L247:
.LM1292:
.LM1293:
	sw	a3,56(sp)
	lw	a2,8(sp)
	lw	a3,12(sp)
.LVL391:
.LM1294:
	sw	s8,48(sp)
	sw	s11,52(sp)
	addi	a1,sp,48
	addi	a0,sp,56
.LVL392:
.LM1295:
	j	.L292
.LVL393:
.L251:
.LM1296:
.LBE169:
.LM1297:
.LM1298:
	addi	a3,a3,-1
	sw	a3,28(sp)
	j	.L252
.LVL394:
.L265:
.LM1299:
	li	a0,-2147483648
.LVL395:
.LM1300:
	j	.L228
	.cfi_endproc
.LFE53:
	.size	coap_print_wellknown_lkd, .-coap_print_wellknown_lkd
	.section	.text.coap_print_wellknown,"ax",@progbits
	.align	1
	.globl	coap_print_wellknown
	.type	coap_print_wellknown, @function
coap_print_wellknown:
.LVL396:
.LFB52:
.LM1301:
	.cfi_startproc
.LM1302:
.LM1303:
.LM1304:
.LM1305:
	tail	coap_print_wellknown_lkd
.LVL397:
.LM1306:
	.cfi_endproc
.LFE52:
	.size	coap_print_wellknown, .-coap_print_wellknown
	.section	.rodata.coap_register_request_handler.str1.4,"aMS",@progbits,1
	.align	2
.LC15:
	.string	"method > 0 && (size_t)(method-1) < sizeof(resource->handler)/sizeof(coap_method_handler_t)"
	.section	.text.coap_register_request_handler,"ax",@progbits
	.align	1
	.globl	coap_register_request_handler
	.type	coap_register_request_handler, @function
coap_register_request_handler:
.LVL398:
.LFB75:
.LM1307:
	.cfi_startproc
.LM1308:
.LM1309:
	addi	sp,sp,-16
	.cfi_def_cfa_offset 16
	sw	ra,12(sp)
	.cfi_offset 1, -4
.LM1310:
	bne	a0,zero,.L295
.LM1311:
	lui	a3,%hi(.LC0)
	lui	a2,%hi(__func__.6)
.LVL399:
.LM1312:
	addi	a3,a3,%lo(.LC0)
	addi	a2,a2,%lo(__func__.6)
	li	a1,759
.LVL400:
.L298:
.LBB172:
.LBB173:
.LM1313:
	lui	a0,%hi(.LC1)
.LVL401:
.LM1314:
	addi	a0,a0,%lo(.LC1)
	call	__assert_func
.LVL402:
.L295:
.LM1315:
.LBE173:
.LBE172:
.LM1316:
.LM1317:
	addi	a1,a1,-1
.LVL403:
.LM1318:
	andi	a4,a1,0xff
	li	a5,6
	bleu	a4,a5,.L296
.LBB175:
.LBI172:
.LM1319:
.LVL404:
.LBB174:
.LM1320:
	lui	a3,%hi(.LC15)
	lui	a2,%hi(__func__.6)
.LVL405:
.LM1321:
	addi	a3,a3,%lo(.LC15)
	addi	a2,a2,%lo(__func__.6)
	li	a1,760
	j	.L298
.LVL406:
.L296:
.LM1322:
.LBE174:
.LBE175:
.LM1323:
.LM1324:
	slli	a1,a1,2
	add	a0,a0,a1
.LVL407:
.LM1325:
	sw	a2,8(a0)
.LM1326:
	lw	ra,12(sp)
	.cfi_restore 1
	addi	sp,sp,16
	.cfi_def_cfa_offset 0
	jr	ra
	.cfi_endproc
.LFE75:
	.size	coap_register_request_handler, .-coap_register_request_handler
	.section	.text.coap_register_handler,"ax",@progbits
	.align	1
	.globl	coap_register_handler
	.type	coap_register_handler, @function
coap_register_handler:
.LVL408:
.LFB74:
.LM1327:
	.cfi_startproc
.LM1328:
	tail	coap_register_request_handler
.LVL409:
.LM1329:
	.cfi_endproc
.LFE74:
	.size	coap_register_handler, .-coap_register_handler
	.section	.text.coap_find_observer,"ax",@progbits
	.align	1
	.globl	coap_find_observer
	.type	coap_find_observer, @function
coap_find_observer:
.LVL410:
.LFB76:
.LM1330:
	.cfi_startproc
.LM1331:
.LM1332:
.LM1333:
	addi	sp,sp,-16
	.cfi_def_cfa_offset 16
	sw	ra,12(sp)
	sw	s0,8(sp)
	sw	s1,4(sp)
	sw	s2,0(sp)
	.cfi_offset 1, -4
	.cfi_offset 8, -8
	.cfi_offset 9, -12
	.cfi_offset 18, -16
.LM1334:
	bne	a0,zero,.L301
.LM1335:
	lui	a3,%hi(.LC0)
	lui	a2,%hi(__func__.5)
.LVL411:
.LM1336:
	addi	a3,a3,%lo(.LC0)
	addi	a2,a2,%lo(__func__.5)
	li	a1,770
.LVL412:
.L323:
.LM1337:
	lui	a0,%hi(.LC1)
.LVL413:
.LM1338:
	addi	a0,a0,%lo(.LC1)
	call	__assert_func
.LVL414:
.L301:
.LM1339:
	mv	s2,a1
.LM1340:
.LM1341:
	bne	a1,zero,.L302
.LM1342:
	lui	a3,%hi(.LC2)
	lui	a2,%hi(__func__.5)
.LVL415:
.LM1343:
	addi	a3,a3,%lo(.LC2)
	addi	a2,a2,%lo(__func__.5)
	li	a1,771
.LVL416:
.LM1344:
	j	.L323
.LVL417:
.L302:
.LM1345:
	lw	s0,72(a0)
	mv	s1,a2
.LM1346:
.LVL418:
.L303:
.LM1347:
	beq	s0,zero,.L300
.LM1348:
.LM1349:
	lw	a5,4(s0)
	beq	a5,s2,.L304
.L306:
.LM1350:
	lw	s0,0(s0)
.LVL419:
.LM1351:
	j	.L303
.L304:
.LM1352:
	beq	s1,zero,.L300
.LM1353:
	lw	a5,16(s0)
.LM1354:
	lw	a2,0(s1)
.LM1355:
	lw	a4,24(a5)
	bne	a2,a4,.L306
.LM1356:
	beq	a2,zero,.L300
.LM1357:
	lw	a0,4(s1)
.LM1358:
	beq	a0,zero,.L306
.LM1359:
	lw	a1,28(a5)
.LM1360:
	beq	a1,zero,.L306
.LM1361:
	call	memcmp
.LVL420:
.LM1362:
	bne	a0,zero,.L306
.L300:
.LM1363:
	lw	ra,12(sp)
	.cfi_restore 1
	mv	a0,s0
	lw	s0,8(sp)
	.cfi_restore 8
.LVL421:
.LM1364:
	lw	s1,4(sp)
	.cfi_restore 9
.LVL422:
.LM1365:
	lw	s2,0(sp)
	.cfi_restore 18
.LVL423:
.LM1366:
	addi	sp,sp,16
	.cfi_def_cfa_offset 0
	jr	ra
	.cfi_endproc
.LFE76:
	.size	coap_find_observer, .-coap_find_observer
	.section	.text.coap_touch_observer,"ax",@progbits
	.align	1
	.globl	coap_touch_observer
	.type	coap_touch_observer, @function
coap_touch_observer:
.LVL424:
.LFB79:
.LM1367:
	.cfi_startproc
.LM1368:
.LM1369:
.LM1370:
.LM1371:
	lw	a0,12(a0)
.LVL425:
.LM1372:
	beq	a0,zero,.L338
.LM1373:
	addi	sp,sp,-32
	.cfi_def_cfa_offset 32
	sw	ra,28(sp)
	sw	s0,24(sp)
	.cfi_offset 1, -4
	.cfi_offset 8, -8
.LM1374:
	lw	s0,44(a0)
.LVL426:
.L326:
.LM1375:
	bne	a0,zero,.L329
.LM1376:
	lw	ra,28(sp)
	.cfi_remember_state
	.cfi_restore 1
	lw	s0,24(sp)
	.cfi_restore 8
.LVL427:
.LM1377:
	addi	sp,sp,32
	.cfi_def_cfa_offset 0
	jr	ra
.LVL428:
.L329:
	.cfi_restore_state
.LM1378:
.LM1379:
	sw	a2,12(sp)
	sw	a1,8(sp)
	call	coap_find_observer
.LVL429:
.LM1380:
.LM1381:
	lw	a1,8(sp)
	lw	a2,12(sp)
	beq	a0,zero,.L327
.LM1382:
.LM1383:
	sb	zero,9(a0)
.L327:
.LM1384:
.LVL430:
.LM1385:
	li	a5,0
.LM1386:
	beq	s0,zero,.L328
.LM1387:
	lw	a5,44(s0)
.LVL431:
.L328:
.LM1388:
	mv	a0,s0
.LVL432:
.LM1389:
	mv	s0,a5
.LVL433:
.LM1390:
	j	.L326
.LVL434:
.L338:
	.cfi_def_cfa_offset 0
	.cfi_restore 1
	.cfi_restore 8
.LM1391:
	ret
	.cfi_endproc
.LFE79:
	.size	coap_touch_observer, .-coap_touch_observer
	.section	.rodata.coap_delete_observer_internal.str1.4,"aMS",@progbits,1
	.align	2
.LC16:
	.string	""
	.align	2
.LC17:
	.string	"?"
	.align	2
.LC18:
	.string	"%02x"
	.align	2
.LC19:
	.string	"removed subscription '/%*.*s%s%*.*s' (%p) with token '%s' key 0x%02x%02x%02x%02x\n"
	.align	2
.LC20:
	.string	"session->ref_subscriptions > 0"
	.section	.text.coap_delete_observer_internal,"ax",@progbits
	.align	1
	.globl	coap_delete_observer_internal
	.type	coap_delete_observer_internal, @function
coap_delete_observer_internal:
.LVL435:
.LFB80:
.LM1392:
	.cfi_startproc
.LM1393:
.LM1394:
	beq	a2,zero,.L369
.LM1395:
	addi	sp,sp,-96
	.cfi_def_cfa_offset 96
	sw	s0,88(sp)
	sw	s1,84(sp)
	sw	s2,80(sp)
	sw	ra,92(sp)
	sw	s3,76(sp)
	sw	s4,72(sp)
	sw	s5,68(sp)
	sw	s6,64(sp)
	.cfi_offset 8, -8
	.cfi_offset 9, -12
	.cfi_offset 18, -16
	.cfi_offset 1, -4
	.cfi_offset 19, -20
	.cfi_offset 20, -24
	.cfi_offset 21, -28
	.cfi_offset 22, -32
	mv	s0,a2
	mv	s1,a1
	mv	s2,a0
.LVL436:
.LBB181:
.LBI181:
.LM1396:
.LBB182:
.LM1397:
.LM1398:
	call	coap_get_log_level
.LVL437:
.LM1399:
	li	a5,6
	bleu	a0,a5,.L344
.LBB183:
.LM1400:
.LBB184:
.LM1401:
	lui	s4,%hi(.LC18)
.LBE184:
.LM1402:
	sw	zero,44(sp)
	sw	zero,48(sp)
	sw	zero,52(sp)
	sw	zero,56(sp)
	sb	zero,60(sp)
.LM1403:
.LM1404:
.LM1405:
.LM1406:
.LVL438:
.LM1407:
	li	s3,0
.LBB185:
.LM1408:
	addi	s5,sp,44
.LM1409:
	li	s6,17
.LM1410:
	addi	s4,s4,%lo(.LC18)
.LVL439:
.L345:
.LM1411:
.LBE185:
.LM1412:
.LM1413:
	lw	a0,16(s0)
.LM1414:
	lw	a5,24(a0)
	bltu	s3,a5,.L346
.LM1415:
.LM1416:
	call	coap_get_uri_path
.LVL440:
	mv	s4,a0
.LVL441:
.LM1417:
.LM1418:
	lw	a0,16(s0)
.LVL442:
.LM1419:
	call	coap_get_query
.LVL443:
	mv	s3,a0
.LVL444:
.LM1420:
.LM1421:
.LM1422:
	call	coap_get_log_level
.LVL445:
.LM1423:
	li	a5,6
	bleu	a0,a5,.L347
.LM1424:
	beq	s4,zero,.L355
.LM1425:
	lw	a3,0(s4)
.LM1426:
	lw	a4,4(s4)
.L348:
.LM1427:
	beq	s3,zero,.L356
.LM1428:
	lw	a7,0(s3)
.LM1429:
	lw	a1,4(s3)
.LM1430:
	lui	a5,%hi(.LC17)
	addi	a5,a5,%lo(.LC17)
.L349:
.LM1431:
	lw	a2,12(s0)
.LM1432:
	mv	a6,a7
	lbu	a0,3(a2)
	sw	a0,24(sp)
	lbu	a0,2(a2)
	sw	a0,20(sp)
	lbu	a0,1(a2)
	sw	a0,16(sp)
	lbu	a2,0(a2)
	sw	a1,0(sp)
	lui	a1,%hi(.LC19)
	sw	a2,12(sp)
	addi	a2,sp,44
	sw	a2,8(sp)
	sw	s0,4(sp)
	mv	a2,a3
	addi	a1,a1,%lo(.LC19)
	li	a0,7
	call	coap_log_impl
.LVL446:
.L347:
.LM1433:
.LM1434:
	mv	a0,s4
	call	coap_delete_string
.LVL447:
.LM1435:
	mv	a0,s3
	call	coap_delete_string
.LVL448:
.L344:
.LM1436:
.LBE183:
.LM1437:
.LM1438:
	lw	a4,180(s1)
.LM1439:
	lw	a5,76(a4)
.LM1440:
	beq	a5,zero,.L350
.LM1441:
	lw	a2,80(a4)
	mv	a1,s0
	mv	a0,s1
	jalr	a5
.LVL449:
.L350:
.LM1442:
.LM1443:
	lw	a5,72(s2)
.LM1444:
	beq	a5,zero,.L341
.LM1445:
.LBB188:
.LM1446:
.LM1447:
.LM1448:
	bne	s0,a5,.L352
.LM1449:
	lw	a5,0(s0)
.LM1450:
.LM1451:
	sw	a5,72(s2)
.L353:
.LM1452:
.LBE188:
.LM1453:
.LM1454:
.LM1455:
	lw	a5,92(s1)
.LM1456:
	bne	a5,zero,.L354
.LM1457:
	lui	a3,%hi(.LC20)
	lui	a2,%hi(__func__.2)
	lui	a0,%hi(.LC1)
	addi	a3,a3,%lo(.LC20)
	addi	a2,a2,%lo(__func__.2)
	li	a1,1045
	addi	a0,a0,%lo(.LC1)
	call	__assert_func
.LVL450:
.L346:
.LBB189:
.LBB186:
.LM1458:
.LM1459:
	mv	a0,s5
	call	strlen
.LVL451:
.LM1460:
.LM1461:
	lw	a5,16(s0)
.LM1462:
	sub	a1,s6,a0
	mv	a2,s4
.LM1463:
	lw	a5,28(a5)
.LM1464:
	add	a0,s5,a0
.LVL452:
.LM1465:
	add	a5,a5,s3
.LM1466:
	lbu	a3,0(a5)
.LBE186:
.LM1467:
	addi	s3,s3,1
.LVL453:
.LBB187:
.LM1468:
	call	snprintf
.LVL454:
.LBE187:
.LM1469:
	j	.L345
.LVL455:
.L355:
.LM1470:
	lui	a4,%hi(.LC16)
.LM1471:
	li	a3,0
.LM1472:
	addi	a4,a4,%lo(.LC16)
	j	.L348
.L356:
.LM1473:
	lui	a5,%hi(.LC16)
	addi	a5,a5,%lo(.LC16)
.LM1474:
	li	a7,0
.LM1475:
	mv	a1,a5
	j	.L349
.LVL456:
.L352:
.LM1476:
.LBE189:
.LBB190:
.LM1477:
	mv	a4,a5
.LM1478:
	lw	a5,0(a5)
.LVL457:
.LM1479:
	beq	a5,zero,.L353
.LM1480:
	bne	s0,a5,.L352
.LM1481:
.LM1482:
.LM1483:
	lw	a5,0(s0)
.LM1484:
	sw	a5,0(a4)
	j	.L353
.LVL458:
.L354:
.LM1485:
.LBE190:
.LM1486:
.LM1487:
	addi	a5,a5,-1
	sw	a5,92(s1)
.LM1488:
	mv	a0,s1
	call	coap_session_release_lkd
.LVL459:
.LM1489:
	lw	a0,16(s0)
	call	coap_delete_pdu_lkd
.LVL460:
.LM1490:
	lw	a0,12(s0)
	call	coap_delete_cache_key
.LVL461:
.LM1491:
	mv	a1,s0
.LBE182:
.LBE181:
.LM1492:
	lw	s0,88(sp)
	.cfi_remember_state
	.cfi_restore 8
.LVL462:
.LM1493:
	lw	ra,92(sp)
	.cfi_restore 1
	lw	s1,84(sp)
	.cfi_restore 9
.LVL463:
.LM1494:
	lw	s2,80(sp)
	.cfi_restore 18
.LVL464:
.LM1495:
	lw	s3,76(sp)
	.cfi_restore 19
	lw	s4,72(sp)
	.cfi_restore 20
	lw	s5,68(sp)
	.cfi_restore 21
	lw	s6,64(sp)
	.cfi_restore 22
.LBB193:
.LBB191:
.LM1496:
	li	a0,21
.LBE191:
.LBE193:
.LM1497:
	addi	sp,sp,96
	.cfi_def_cfa_offset 0
.LBB194:
.LBB192:
.LM1498:
	tail	memp_free
.LVL465:
.L341:
	.cfi_restore_state
.LM1499:
.LBE192:
.LBE194:
.LM1500:
	lw	ra,92(sp)
	.cfi_restore 1
	lw	s0,88(sp)
	.cfi_restore 8
.LVL466:
.LM1501:
	lw	s1,84(sp)
	.cfi_restore 9
.LVL467:
.LM1502:
	lw	s2,80(sp)
	.cfi_restore 18
.LVL468:
.LM1503:
	lw	s3,76(sp)
	.cfi_restore 19
	lw	s4,72(sp)
	.cfi_restore 20
	lw	s5,68(sp)
	.cfi_restore 21
	lw	s6,64(sp)
	.cfi_restore 22
	addi	sp,sp,96
	.cfi_def_cfa_offset 0
	jr	ra
.LVL469:
.L369:
.LM1504:
	ret
	.cfi_endproc
.LFE80:
	.size	coap_delete_observer_internal, .-coap_delete_observer_internal
	.section	.text.coap_delete_observer,"ax",@progbits
	.align	1
	.globl	coap_delete_observer
	.type	coap_delete_observer, @function
coap_delete_observer:
.LVL470:
.LFB81:
.LM1505:
	.cfi_startproc
.LM1506:
.LM1507:
.LM1508:
	addi	sp,sp,-32
	.cfi_def_cfa_offset 32
	sw	s0,24(sp)
	sw	ra,28(sp)
	.cfi_offset 8, -8
	.cfi_offset 1, -4
.LM1509:
	mv	s0,a0
	sw	a1,12(sp)
.LM1510:
	call	coap_find_observer
.LVL471:
.LM1511:
	mv	a2,a0
.LVL472:
.LM1512:
.LM1513:
	beq	a0,zero,.L373
.LM1514:
	lw	a1,12(sp)
	sw	a0,8(sp)
	mv	a0,s0
.LVL473:
.LM1515:
	call	coap_delete_observer_internal
.LVL474:
.LM1516:
	lw	a2,8(sp)
.LVL475:
.L373:
.LM1517:
.LM1518:
	lw	ra,28(sp)
	.cfi_restore 1
	lw	s0,24(sp)
	.cfi_restore 8
.LVL476:
.LM1519:
	snez	a0,a2
	addi	sp,sp,32
	.cfi_def_cfa_offset 0
.LVL477:
.LM1520:
	jr	ra
	.cfi_endproc
.LFE81:
	.size	coap_delete_observer, .-coap_delete_observer
	.section	.rodata.coap_add_observer.str1.4,"aMS",@progbits,1
	.align	2
.LC21:
	.string	"create new subscription %p key 0x%02x%02x%02x%02x\n"
	.section	.text.coap_add_observer,"ax",@progbits
	.align	1
	.globl	coap_add_observer
	.type	coap_add_observer, @function
coap_add_observer:
.LVL478:
.LFB78:
.LM1521:
	.cfi_startproc
.LM1522:
.LM1523:
.LM1524:
.LM1525:
.LM1526:
.LM1527:
	addi	sp,sp,-64
	.cfi_def_cfa_offset 64
	sw	ra,60(sp)
	sw	s0,56(sp)
	sw	s1,52(sp)
	sw	s2,48(sp)
	sw	s3,44(sp)
	sw	s4,40(sp)
	sw	s5,36(sp)
	sw	s6,32(sp)
	sw	s7,28(sp)
	.cfi_offset 1, -4
	.cfi_offset 8, -8
	.cfi_offset 9, -12
	.cfi_offset 18, -16
	.cfi_offset 19, -20
	.cfi_offset 20, -24
	.cfi_offset 21, -28
	.cfi_offset 22, -32
	.cfi_offset 23, -36
.LM1528:
	bne	a1,zero,.L379
.LM1529:
	lui	a3,%hi(.LC2)
.LVL479:
.LM1530:
	lui	a2,%hi(__func__.4)
.LVL480:
.LM1531:
	lui	a0,%hi(.LC1)
.LVL481:
.LM1532:
	addi	a3,a3,%lo(.LC2)
	addi	a2,a2,%lo(__func__.4)
	li	a1,813
.LVL482:
.LM1533:
	addi	a0,a0,%lo(.LC1)
	call	__assert_func
.LVL483:
.L379:
.LM1534:
	mv	s3,a0
	mv	s1,a1
	mv	s7,a2
	mv	s4,a3
.LM1535:
.LM1536:
	call	coap_find_observer
.LVL484:
.LM1537:
	mv	s5,a0
.LVL485:
.LM1538:
.LM1539:
	bne	a0,zero,.L378
.LM1540:
.LM1541:
	lui	s6,%hi(cache_ignore_options)
	li	a4,2
	addi	a3,s6,%lo(cache_ignore_options)
	li	a2,1
	mv	a1,s4
	mv	a0,s1
.LVL486:
.LM1542:
	call	coap_cache_derive_key_w_ignore
.LVL487:
	mv	s2,a0
.LVL488:
.LM1543:
.LM1544:
	beq	a0,zero,.L382
.LM1545:
.LM1546:
	mv	a2,a0
	mv	a1,s1
	mv	a0,s3
.LVL489:
.LM1547:
	call	coap_find_observer_cache_key
.LVL490:
.LM1548:
.LM1549:
	beq	a0,zero,.L382
.LM1550:
.LM1551:
	lw	a2,16(a0)
.LM1552:
	mv	a1,s1
	mv	a0,s3
.LVL491:
.LM1553:
	addi	a2,a2,24
	call	coap_delete_observer
.LVL492:
.LM1554:
.LM1555:
.L382:
.LM1556:
.LM1557:
	lui	a5,%hi(memp_pools)
	addi	a5,a5,%lo(memp_pools)
	lw	a5,84(a5)
.LM1558:
	li	a4,19
	lhu	a3,4(a5)
	bleu	a3,a4,.L384
.LM1559:
	li	a0,21
	call	memp_malloc
.LVL493:
	mv	s0,a0
.LVL494:
.LM1560:
.LM1561:
	bne	a0,zero,.L406
.LVL495:
.L385:
.LM1562:
	mv	a0,s2
	call	coap_delete_cache_key
.LVL496:
.LM1563:
.L378:
.LM1564:
	lw	ra,60(sp)
	.cfi_remember_state
	.cfi_restore 1
	lw	s0,56(sp)
	.cfi_restore 8
	lw	s1,52(sp)
	.cfi_restore 9
.LVL497:
.LM1565:
	lw	s2,48(sp)
	.cfi_restore 18
	lw	s3,44(sp)
	.cfi_restore 19
.LVL498:
.LM1566:
	lw	s4,40(sp)
	.cfi_restore 20
.LVL499:
.LM1567:
	lw	s6,32(sp)
	.cfi_restore 22
	lw	s7,28(sp)
	.cfi_restore 23
.LVL500:
.LM1568:
	mv	a0,s5
	lw	s5,36(sp)
	.cfi_restore 21
	addi	sp,sp,64
	.cfi_def_cfa_offset 0
	jr	ra
.LVL501:
.L384:
	.cfi_restore_state
.LM1569:
	lw	a4,0(a5)
.LVL502:
.LBB195:
.LBI195:
.LM1570:
.LBB196:
.LM1571:
.LM1572:
	lhu	a5,0(a4)
	addi	a5,a5,1
	sh	a5,0(a4)
.LM1573:
.LVL503:
.LM1574:
.LBE196:
.LBE195:
.LM1575:
	j	.L385
.LVL504:
.L406:
.LM1576:
	call	coap_subscription_init
.LVL505:
.LM1577:
.LM1578:
	lw	a3,4(s7)
	lw	a2,0(s7)
	li	a4,0
	mv	a1,s1
	mv	a0,s4
	call	coap_pdu_duplicate_lkd
.LVL506:
.LM1579:
	sw	a0,16(s0)
.LM1580:
.LM1581:
	bne	a0,zero,.L388
.LM1582:
	mv	a0,s2
.L408:
.LM1583:
	call	coap_delete_cache_key
.LVL507:
.LM1584:
	mv	a1,s0
	li	a0,21
	call	memp_free
.LVL508:
.LM1585:
.LM1586:
	j	.L378
.L388:
.LM1587:
.LM1588:
	addi	a2,sp,4
	mv	a1,sp
	mv	a0,s4
	call	coap_get_data
.LVL509:
.LM1589:
	beq	a0,zero,.L389
.LM1590:
.LM1591:
	lw	a5,16(s0)
.LM1592:
	lw	a2,4(sp)
	lw	a1,0(sp)
.LM1593:
	sw	zero,40(a5)
.LM1594:
	lw	a0,16(s0)
	call	coap_add_data
.LVL510:
.L389:
.LM1595:
.LM1596:
	bne	s2,zero,.L390
.LM1597:
.LM1598:
	li	a4,2
	addi	a3,s6,%lo(cache_ignore_options)
	li	a2,1
	mv	a1,s4
	mv	a0,s1
	call	coap_cache_derive_key_w_ignore
.LVL511:
	mv	s2,a0
.LVL512:
.LM1599:
.LM1600:
	bne	a0,zero,.L390
.LM1601:
	lw	a0,16(s0)
.LVL513:
.LM1602:
	call	coap_delete_pdu_lkd
.LVL514:
.LM1603:
	li	a0,0
	j	.L408
.LVL515:
.L390:
.LM1604:
.LM1605:
	sw	s2,12(s0)
.LM1606:
.LM1607:
	mv	a0,s1
	call	coap_session_reference_lkd
.LVL516:
.LM1608:
	sw	a0,4(s0)
.LM1609:
.LM1610:
	lw	a5,92(s1)
	addi	a5,a5,1
	sw	a5,92(s1)
.LM1611:
.LM1612:
.LM1613:
	lw	a5,72(s3)
.LM1614:
	sw	a5,0(s0)
.LM1615:
.LM1616:
	sw	s0,72(s3)
.LM1617:
.LM1618:
.LM1619:
.LM1620:
	call	coap_get_log_level
.LVL517:
.LM1621:
	li	a5,6
	bleu	a0,a5,.L391
.LM1622:
.LM1623:
	lw	a3,12(s0)
.LM1624:
	lui	a1,%hi(.LC21)
	mv	a2,s0
	lbu	a6,3(a3)
	lbu	a5,2(a3)
	lbu	a4,1(a3)
	lbu	a3,0(a3)
	addi	a1,a1,%lo(.LC21)
	li	a0,7
	call	coap_log_impl
.LVL518:
.L391:
.LM1625:
.LM1626:
.LM1627:
	lw	a5,180(s1)
.LM1628:
	lw	a5,72(a5)
	beq	a5,zero,.L393
.LM1629:
	lbu	a4,0(s1)
	li	a5,1
	bne	a4,a5,.L393
.LM1630:
	addi	a0,s1,72
	call	coap_is_af_unix
.LVL519:
.LM1631:
	bne	a0,zero,.L393
.LBB197:
.LM1632:
.LM1633:
.LVL520:
.LM1634:
.LM1635:
	lw	a5,16(s0)
.LM1636:
	lbu	a2,9(s4)
.LM1637:
	lw	a1,44(s4)
.LM1638:
	lw	a0,44(a5)
.LM1639:
	sub	a1,a1,a2
	sub	a0,a0,a2
	call	memcpy
.LVL521:
.LM1640:
.LM1641:
	lw	a3,16(s0)
.LM1642:
	lbu	a4,9(s4)
.LM1643:
	lbu	a2,0(s1)
.LM1644:
	lw	a5,44(a3)
.LM1645:
	li	a6,0
	mv	a1,s0
.LM1646:
	sub	a5,a5,a4
.LM1647:
	sw	a5,12(sp)
.LM1648:
.LM1649:
	lw	a5,36(a3)
.LM1650:
	lw	a3,176(s1)
	mv	a0,s1
.LM1651:
	add	a5,a5,a4
.LM1652:
	sw	a5,8(sp)
.LM1653:
.LM1654:
	lw	a5,180(s1)
.LM1655:
	addi	a4,s1,64
	addi	a3,a3,88
	lw	t1,72(a5)
	lw	a7,80(a5)
	addi	a5,sp,8
	jalr	t1
.LVL522:
.L393:
.LM1656:
.LBE197:
.LM1657:
.LM1658:
	lw	a0,88(s3)
.LM1659:
	lw	a5,88(a0)
.LM1660:
	bne	a5,zero,.L395
.L396:
.LM1661:
	mv	s5,s0
	j	.L378
.L395:
.LM1662:
	lw	a3,80(a0)
	lw	a2,84(s3)
	lw	a1,76(s3)
	jalr	a5
.LVL523:
	j	.L396
	.cfi_endproc
.LFE78:
	.size	coap_add_observer, .-coap_add_observer
	.section	.rodata.coap_notify_observers.str1.4,"aMS",@progbits,1
	.align	2
.LC22:
	.string	"coap_check_notify: pdu init failed, resource stays partially dirty\n"
	.align	2
.LC23:
	.string	"coap_check_notify: cannot add token, resource stays partially dirty\n"
	.align	2
.LC24:
	.string	"h"
	.align	2
.LC25:
	.string	"Observe PDU presented to app.\n"
	.align	2
.LC26:
	.string	"call custom handler for resource '%*.*s' (4)\n"
	.align	2
.LC27:
	.string	"handle_request: Invalid PDU response code (%d.%02d)\n"
	.align	2
.LC28:
	.string	"*  %s: coap_check_notify: sending failed, resource stays partially dirty\n"
	.section	.text.coap_notify_observers,"ax",@progbits
	.align	1
	.type	coap_notify_observers, @function
coap_notify_observers:
.LVL524:
.LFB84:
.LM1663:
	.cfi_startproc
.LM1664:
.LM1665:
.LM1666:
.LM1667:
.LM1668:
.LM1669:
.LM1670:
.LM1671:
.LM1672:
.LM1673:
.LM1674:
	addi	sp,sp,-96
	.cfi_def_cfa_offset 96
	sw	s0,88(sp)
	sw	ra,92(sp)
	sw	s1,84(sp)
	sw	s2,80(sp)
	sw	s3,76(sp)
	sw	s4,72(sp)
	sw	s5,68(sp)
	sw	s6,64(sp)
	sw	s7,60(sp)
	sw	s8,56(sp)
	sw	s9,52(sp)
	sw	s10,48(sp)
	sw	s11,44(sp)
	.cfi_offset 8, -8
	.cfi_offset 1, -4
	.cfi_offset 9, -12
	.cfi_offset 18, -16
	.cfi_offset 19, -20
	.cfi_offset 20, -24
	.cfi_offset 21, -28
	.cfi_offset 22, -32
	.cfi_offset 23, -36
	.cfi_offset 24, -40
	.cfi_offset 25, -44
	.cfi_offset 26, -48
	.cfi_offset 27, -52
.LM1675:
	lhu	a5,0(a1)
.LM1676:
	mv	s0,a1
.LM1677:
	andi	a4,a5,4
	beq	a4,zero,.L410
.LM1678:
	andi	a4,a5,3
	beq	a4,zero,.L410
.LM1679:
.LM1680:
	andi	a5,a5,128
	bne	a5,zero,.L409
.LBB208:
.LBB209:
.LM1681:
	lw	a5,4(a1)
.LBE209:
.LBE208:
.LM1682:
	lw	s1,72(a1)
	mv	s6,a0
.LBB212:
.LBB210:
.LM1683:
	addi	a5,a5,1
	sw	a5,4(a1)
.LBE210:
.LBE212:
.LM1684:
	lbu	a5,0(a1)
	mv	s7,a2
.LM1685:
.LM1686:
.LVL525:
.LBB213:
.LBI208:
.LM1687:
.LBB211:
.LM1688:
.LM1689:
.LBE211:
.LBE213:
.LM1690:
.LBB214:
.LM1691:
	li	s3,1
.LBE214:
.LM1692:
	andi	a5,a5,125
	ori	a5,a5,-128
	sb	a5,0(a1)
.LM1693:
.LVL526:
.LBB222:
.LM1694:
	lui	a5,%hi(.LC23)
	addi	a5,a5,%lo(.LC23)
.LM1695:
	li	s4,6
.LM1696:
	li	s9,4
.LM1697:
	sw	a5,12(sp)
.LVL527:
.L412:
.LM1698:
.LBE222:
.LM1699:
	beq	s1,zero,.L443
.LBB223:
.LM1700:
	lhu	a5,0(s0)
.LBE223:
.LM1701:
	lw	s10,0(s1)
.LVL528:
.LBB224:
.LM1702:
.LM1703:
.LM1704:
.LM1705:
.LM1706:
	andi	a5,a5,1
	beq	a5,zero,.L444
.L413:
.LM1707:
.LM1708:
	lw	a5,4(s1)
.LM1709:
	lw	s5,16(s1)
.LM1710:
	mv	a0,a5
.LM1711:
	mv	s11,a5
.LVL529:
.LM1712:
.LM1713:
	call	coap_session_reference_lkd
.LVL530:
.LM1714:
	mv	a0,s5
	call	coap_pdu_reference_lkd
.LVL531:
.LM1715:
.LM1716:
	lw	a5,4(s1)
.LM1717:
	lbu	a4,190(a5)
	lhu	a5,318(a5)
	bltu	a4,a5,.L415
.LM1718:
	lw	a5,80(s0)
	andi	a5,a5,2
.LM1719:
	bne	a5,zero,.L416
.LM1720:
	lbu	a5,8(s1)
	bgtu	a5,s9,.L416
.L415:
.LM1721:
.LVL532:
.LBB215:
.LBI215:
.LM1722:
.LBB216:
.LM1723:
.LM1724:
	call	sys_now
.LVL533:
.LM1725:
.LBE216:
.LBE215:
.LM1726:
.LM1727:
	lw	a4,4(s1)
.LM1728:
	lw	a5,200(a4)
.LM1729:
	beq	a5,zero,.L417
.LM1730:
	lw	a3,68(a5)
	bne	a3,zero,.L417
.LM1731:
	lw	a5,72(a5)
.LM1732:
	beq	a5,zero,.L417
.LM1733:
	addi	a5,a5,2000
.LM1734:
	bgtu	a5,a0,.L416
.L417:
.LM1735:
.LM1736:
	mv	a0,a4
.LVL534:
.LM1737:
	sb	zero,10(s1)
.LM1738:
.LM1739:
	call	coap_session_max_pdu_size_lkd
.LVL535:
	mv	a3,a0
.LM1740:
	li	a2,0
	li	a1,0
	li	a0,0
	call	coap_pdu_init
.LVL536:
	mv	s2,a0
.LVL537:
.LM1741:
.LM1742:
	bne	a0,zero,.L418
.LM1743:
.LM1744:
.LM1745:
	call	coap_get_log_level
.LVL538:
.LM1746:
	bleu	a0,s4,.L419
.LM1747:
	lui	a1,%hi(.LC22)
	addi	a1,a1,%lo(.LC22)
	li	a0,7
	call	coap_log_impl
.LVL539:
.L419:
.LM1748:
.LM1749:
	lhu	a5,0(s0)
	ori	a5,a5,2
	sh	a5,0(s0)
.LM1750:
.LM1751:
.LM1752:
	sb	s3,10(s1)
	j	.L441
.LVL540:
.L444:
.LM1753:
	lbu	a5,10(s1)
	bne	a5,zero,.L413
.LM1754:
.LM1755:
	sb	s3,204(s6)
.LM1756:
.LVL541:
.L414:
.LM1757:
	mv	s1,s10
	j	.L412
.LVL542:
.L418:
.LM1758:
.LM1759:
	lw	a5,16(s1)
.LM1760:
	lw	a2,28(a5)
	lw	a1,24(a5)
	call	coap_add_token
.LVL543:
.LM1761:
	bne	a0,zero,.L420
.LM1762:
.LM1763:
.LM1764:
	call	coap_get_log_level
.LVL544:
.LM1765:
	bleu	a0,s4,.L421
.LM1766:
	lw	a1,12(sp)
	li	a0,7
	call	coap_log_impl
.LVL545:
.L421:
.LM1767:
.LM1768:
	mv	a0,s2
	call	coap_delete_pdu_lkd
.LVL546:
.LM1769:
	j	.L419
.L420:
.LM1770:
.LM1771:
	lw	a0,4(s1)
	call	coap_new_message_id_lkd
.LVL547:
.LM1772:
	sw	a0,4(s2)
.LM1773:
	lw	a5,16(s1)
.LM1774:
	sw	a0,4(a5)
.LM1775:
.LM1776:
	lw	a5,4(s1)
.LM1777:
	lbu	a4,0(a5)
.LM1778:
	li	a5,0
.LM1779:
	addi	a4,a4,-1
.LM1780:
	andi	a4,a4,0xff
	bgtu	a4,s3,.L422
.LM1781:
	lw	a4,80(s0)
.LM1782:
	andi	a3,a4,2
.LM1783:
	bne	a3,zero,.L422
.LM1784:
	andi	a4,a4,4
.LM1785:
	li	a5,1
.LM1786:
	bne	a4,zero,.L422
.LM1787:
	lbu	a5,8(s1)
	sltiu	a5,a5,5
.L422:
.LM1788:
	sb	a5,0(s2)
.LM1789:
	beq	s7,s3,.L423
	li	a5,2
	beq	s7,a5,.L424
.LM1790:
.LM1791:
.LM1792:
	li	a5,-32768
	addi	a5,a5,1025
	sh	a5,0(s2)
.LM1793:
	j	.L433
.L423:
.LM1794:
.LM1795:
	lw	a2,84(s0)
	li	a1,4
	addi	a0,sp,16
	call	coap_encode_var_safe
.LVL548:
	mv	a2,a0
.LM1796:
	addi	a3,sp,16
	li	a1,6
	mv	a0,s2
	call	coap_add_option_internal
.LVL549:
.LM1797:
.LM1798:
	lw	a1,16(s1)
	lw	a0,4(s1)
	addi	a3,sp,20
	li	a2,23
	call	coap_get_block_b
.LVL550:
.LM1799:
	beq	a0,zero,.L426
.LM1800:
.LM1801:
	lw	a2,24(sp)
.LM1802:
	li	a1,4
	addi	a0,sp,16
.LM1803:
	srli	a2,a2,4
.LM1804:
	andi	a2,a2,7
	call	coap_encode_var_safe
.LVL551:
	mv	a2,a0
.LM1805:
	addi	a3,sp,16
	li	a1,23
	mv	a0,s2
	call	coap_add_option_internal
.LVL552:
.L426:
.LM1806:
.LM1807:
	lw	a0,16(s1)
.LM1808:
	lbu	a5,1(a0)
.LM1809:
	addi	a5,a5,-1
	slli	a5,a5,2
	add	a5,s0,a5
	lw	s8,8(a5)
.LVL553:
.LM1810:
.LM1811:
	bne	s8,zero,.L427
.LM1812:
	lui	a3,%hi(.LC24)
	lui	a2,%hi(__func__.8)
	lui	a0,%hi(.LC1)
	addi	a3,a3,%lo(.LC24)
	addi	a2,a2,%lo(__func__.8)
	li	a1,1238
	addi	a0,a0,%lo(.LC1)
	call	__assert_func
.LVL554:
.L427:
.LM1813:
.LM1814:
	call	coap_get_query
.LVL555:
	sw	a0,8(sp)
.LVL556:
.LM1815:
.LM1816:
.LM1817:
	call	coap_get_log_level
.LVL557:
.LM1818:
	bleu	a0,s4,.L428
.LM1819:
	lui	a1,%hi(.LC25)
	addi	a1,a1,%lo(.LC25)
	li	a0,7
	call	coap_log_impl
.LVL558:
.L428:
.LM1820:
.LM1821:
	lw	a1,16(s1)
	li	a0,7
	call	coap_show_pdu
.LVL559:
.LM1822:
.LM1823:
.LM1824:
	call	coap_get_log_level
.LVL560:
.LM1825:
	bleu	a0,s4,.L429
.LM1826:
.LM1827:
	lw	a5,76(s0)
.LM1828:
	lui	a1,%hi(.LC26)
	addi	a1,a1,%lo(.LC26)
	lw	a3,0(a5)
	lw	a4,4(a5)
	li	a0,7
	mv	a2,a3
	call	coap_log_impl
.LVL561:
.L429:
.LM1829:
.LM1830:
	lw	a1,4(s1)
	lw	a3,8(sp)
	lw	a2,16(s1)
	mv	a0,s0
	mv	a4,s2
	jalr	s8
.LVL562:
.LM1831:
.LM1832:
	mv	a1,s2
	mv	a0,s11
	call	coap_check_code_class
.LVL563:
.LM1833:
	bne	a0,zero,.L430
.LM1834:
.LM1835:
.LM1836:
	call	coap_get_log_level
.LVL564:
.LM1837:
	li	a5,3
	bleu	a0,a5,.L431
.LM1838:
.LM1839:
	lbu	a2,1(s2)
.LM1840:
	lui	a1,%hi(.LC27)
	addi	a1,a1,%lo(.LC27)
	andi	a3,a2,31
	li	a0,4
	srli	a2,a2,5
	call	coap_log_impl
.LVL565:
.L431:
.LM1841:
.LM1842:
	lw	a0,8(sp)
	call	coap_delete_string
.LVL566:
.LM1843:
	mv	a0,s2
	call	coap_delete_pdu_lkd
.LVL567:
.LM1844:
	mv	a0,s11
	call	coap_session_release_lkd
.LVL568:
.LM1845:
.LBB217:
.LBI217:
.LM1846:
.LBB218:
.LM1847:
	mv	a0,s5
	call	coap_delete_pdu_lkd
.LVL569:
.LM1848:
.LBE218:
.LBE217:
.LM1849:
.LM1850:
	lhu	a5,0(s0)
.LM1851:
	mv	a0,s0
.LM1852:
	andi	a5,a5,-129
	sh	a5,0(s0)
.LVL570:
.LM1853:
	call	coap_resource_release_lkd
.LVL571:
.LM1854:
.L409:
.LM1855:
.LBE224:
.LM1856:
	lw	ra,92(sp)
	.cfi_remember_state
	.cfi_restore 1
	lw	s0,88(sp)
	.cfi_restore 8
.LVL572:
.LM1857:
	lw	s1,84(sp)
	.cfi_restore 9
	lw	s2,80(sp)
	.cfi_restore 18
	lw	s3,76(sp)
	.cfi_restore 19
	lw	s4,72(sp)
	.cfi_restore 20
	lw	s5,68(sp)
	.cfi_restore 21
	lw	s6,64(sp)
	.cfi_restore 22
	lw	s7,60(sp)
	.cfi_restore 23
	lw	s8,56(sp)
	.cfi_restore 24
	lw	s9,52(sp)
	.cfi_restore 25
	lw	s10,48(sp)
	.cfi_restore 26
	lw	s11,44(sp)
	.cfi_restore 27
	addi	sp,sp,96
	.cfi_def_cfa_offset 0
	jr	ra
.LVL573:
.L430:
	.cfi_restore_state
.LBB225:
.LM1858:
	lw	a4,8(sp)
	mv	a3,s0
	mv	a2,s2
	mv	a1,s5
	mv	a0,s11
	call	coap_check_code_lg_xmit
.LVL574:
.LM1859:
	lw	a0,8(sp)
.LM1860:
	li	s8,2
.LVL575:
.LM1861:
	call	coap_delete_string
.LVL576:
.LM1862:
.LM1863:
	lbu	a5,1(s2)
.LM1864:
	srli	a5,a5,5
	beq	a5,s8,.L433
.LM1865:
	li	a1,6
	mv	a0,s2
	call	coap_remove_option
.LVL577:
.LM1866:
.LM1867:
	lbu	a5,1(s2)
.LM1868:
	srli	a5,a5,5
	bleu	a5,s8,.L433
.LM1869:
	addi	a2,s5,24
	mv	a1,s11
	mv	a0,s0
	call	coap_delete_observer
.LVL578:
.LM1870:
.LM1871:
.LM1872:
.L435:
.LM1873:
	li	s1,0
.L439:
.LM1874:
.LM1875:
	li	a2,0
	mv	a1,s2
	mv	a0,s11
	call	coap_send_internal
.LVL579:
.LM1876:
.LM1877:
	addi	a0,a0,1
.LVL580:
.LM1878:
	bne	a0,zero,.L441
	beq	s1,zero,.L441
.LM1879:
.LM1880:
.LM1881:
	call	coap_get_log_level
.LVL581:
.LM1882:
	bleu	a0,s4,.L442
.LM1883:
	mv	a0,s11
	call	coap_session_str
.LVL582:
.LM1884:
	lui	a1,%hi(.LC28)
.LM1885:
	mv	a2,a0
.LM1886:
	addi	a1,a1,%lo(.LC28)
	li	a0,7
	call	coap_log_impl
.LVL583:
.L442:
.LM1887:
.LM1888:
.LM1889:
	sb	s3,10(s1)
.LM1890:
.LM1891:
	lhu	a5,0(s0)
	ori	a5,a5,2
	sh	a5,0(s0)
.LVL584:
.L441:
.LM1892:
	mv	a0,s11
	call	coap_session_release_lkd
.LVL585:
.LM1893:
.LBB219:
.LBI219:
.LM1894:
.LBB220:
.LM1895:
	mv	a0,s5
	call	coap_delete_pdu_lkd
.LVL586:
.LM1896:
	j	.L414
.LVL587:
.L424:
.LM1897:
.LBE220:
.LBE219:
.LM1898:
.LM1899:
.LM1900:
	li	a5,-24576
	addi	a5,a5,769
.LM1901:
	li	a2,30
	li	a1,4
.LM1902:
	sh	a5,0(s2)
.LM1903:
.LM1904:
	addi	a0,sp,16
	call	coap_encode_var_safe
.LVL588:
	mv	a2,a0
.LM1905:
	addi	a3,sp,16
	li	a1,14
	mv	a0,s2
	call	coap_add_option_internal
.LVL589:
.LM1906:
.L433:
.LM1907:
.LBB221:
.LM1908:
.LM1909:
.LM1910:
	lw	a5,72(s0)
.LVL590:
.L436:
.LM1911:
	beq	a5,zero,.L435
.LM1912:
.LM1913:
	beq	s1,a5,.L437
.LM1914:
	lw	a5,0(a5)
.LVL591:
.LM1915:
	j	.L436
.LVL592:
.L437:
.LM1916:
.LM1917:
.LBE221:
.LM1918:
.LM1919:
.LM1920:
	lbu	a5,0(s2)
.LVL593:
.LM1921:
	beq	a5,zero,.L440
.LM1922:
	lw	a4,80(s0)
	li	a5,0
	andi	a4,a4,4
.LM1923:
	bne	a4,zero,.L440
.LM1924:
.LM1925:
	lbu	a5,8(s1)
	addi	a5,a5,1
	andi	a5,a5,0xff
.L440:
.LM1926:
	sb	a5,8(s1)
	j	.L439
.LVL594:
.L416:
.LDL1:
.LM1927:
.LM1928:
	sb	s3,204(s6)
	j	.L419
.LVL595:
.L443:
.LM1929:
.LBE225:
.LM1930:
	mv	a0,s0
	call	coap_resource_release_lkd
.LVL596:
.LM1931:
.LM1932:
	lhu	a5,0(s0)
	andi	a5,a5,-129
	sh	a5,0(s0)
.LVL597:
.L410:
.LM1933:
.LM1934:
	lhu	a5,0(s0)
	andi	a5,a5,-2
	sh	a5,0(s0)
	j	.L409
	.cfi_endproc
.LFE84:
	.size	coap_notify_observers, .-coap_notify_observers
	.section	.text.coap_delete_observer_request,"ax",@progbits
	.align	1
	.globl	coap_delete_observer_request
	.type	coap_delete_observer_request, @function
coap_delete_observer_request:
.LVL598:
.LFB82:
.LM1935:
	.cfi_startproc
.LM1936:
.LM1937:
.LM1938:
.LM1939:
	addi	sp,sp,-32
	.cfi_def_cfa_offset 32
	sw	s0,24(sp)
	sw	s1,20(sp)
	sw	s2,16(sp)
	sw	ra,28(sp)
	sw	s3,12(sp)
	.cfi_offset 8, -8
	.cfi_offset 9, -12
	.cfi_offset 18, -16
	.cfi_offset 1, -4
	.cfi_offset 19, -20
.LM1940:
	mv	s2,a0
	mv	s1,a1
	mv	s0,a3
.LM1941:
	call	coap_find_observer
.LVL599:
.LM1942:
.LM1943:
	bne	a0,zero,.L477
.LBB226:
.LM1944:
.LM1945:
.LM1946:
	lui	a3,%hi(cache_ignore_options)
	mv	a1,s0
	li	a4,2
	addi	a3,a3,%lo(cache_ignore_options)
	li	a2,1
	mv	a0,s1
.LVL600:
.LM1947:
	call	coap_cache_derive_key_w_ignore
.LVL601:
	mv	s3,a0
.LVL602:
.LM1948:
.LBE226:
.LM1949:
	li	s0,0
.LVL603:
.LBB227:
.LM1950:
	beq	a0,zero,.L476
.LM1951:
.LM1952:
	mv	a2,a0
	mv	a1,s1
	mv	a0,s2
.LVL604:
.LM1953:
	call	coap_find_observer_cache_key
.LVL605:
.LM1954:
.LM1955:
	beq	a0,zero,.L479
.LM1956:
.LM1957:
	lw	a2,16(a0)
.LM1958:
	mv	a1,s1
	mv	a0,s2
.LVL606:
.LM1959:
	addi	a2,a2,24
	call	coap_delete_observer
.LVL607:
	mv	s0,a0
.L479:
.LVL608:
.LM1960:
	mv	a0,s3
	call	coap_delete_cache_key
.LVL609:
.L476:
.LM1961:
.LBE227:
.LM1962:
	lw	ra,28(sp)
	.cfi_remember_state
	.cfi_restore 1
	mv	a0,s0
	lw	s0,24(sp)
	.cfi_restore 8
	lw	s1,20(sp)
	.cfi_restore 9
.LVL610:
.LM1963:
	lw	s2,16(sp)
	.cfi_restore 18
.LVL611:
.LM1964:
	lw	s3,12(sp)
	.cfi_restore 19
	addi	sp,sp,32
	.cfi_def_cfa_offset 0
	jr	ra
.LVL612:
.L477:
	.cfi_restore_state
.LM1965:
	mv	a2,a0
.LM1966:
	mv	a1,s1
	mv	a0,s2
.LVL613:
.LM1967:
	call	coap_delete_observer_internal
.LVL614:
.LM1968:
.LM1969:
	li	s0,1
.LVL615:
.LM1970:
	j	.L476
	.cfi_endproc
.LFE82:
	.size	coap_delete_observer_request, .-coap_delete_observer_request
	.section	.rodata.coap_delete_observers.str1.4,"aMS",@progbits,1
	.align	2
.LC29:
	.string	"resource->subscribers"
	.section	.text.coap_delete_observers,"ax",@progbits
	.align	1
	.globl	coap_delete_observers
	.type	coap_delete_observers, @function
coap_delete_observers:
.LVL616:
.LFB83:
.LM1971:
	.cfi_startproc
.LM1972:
.LM1973:
.LM1974:
	addi	sp,sp,-32
	.cfi_def_cfa_offset 32
	sw	ra,28(sp)
	sw	s0,24(sp)
	sw	s1,20(sp)
	sw	s2,16(sp)
	sw	s3,12(sp)
	sw	s4,8(sp)
	sw	s5,4(sp)
	.cfi_offset 1, -4
	.cfi_offset 8, -8
	.cfi_offset 9, -12
	.cfi_offset 18, -16
	.cfi_offset 19, -20
	.cfi_offset 20, -24
	.cfi_offset 21, -28
.LM1975:
	lw	s1,12(a0)
.LVL617:
.LM1976:
	beq	s1,zero,.L485
.LM1977:
	lw	s3,44(s1)
	mv	s4,a1
	mv	s2,a0
.LVL618:
.L487:
.LM1978:
	bne	s1,zero,.L498
.LVL619:
.L485:
.LM1979:
	lw	ra,28(sp)
	.cfi_remember_state
	.cfi_restore 1
	lw	s0,24(sp)
	.cfi_restore 8
	lw	s1,20(sp)
	.cfi_restore 9
.LVL620:
.LM1980:
	lw	s2,16(sp)
	.cfi_restore 18
	lw	s3,12(sp)
	.cfi_restore 19
	lw	s4,8(sp)
	.cfi_restore 20
	lw	s5,4(sp)
	.cfi_restore 21
	addi	sp,sp,32
	.cfi_def_cfa_offset 0
	jr	ra
.LVL621:
.L498:
	.cfi_restore_state
.LBB228:
.LM1981:
.LM1982:
.LM1983:
	lw	s0,72(s1)
.LVL622:
.L488:
.LM1984:
	beq	s0,zero,.L494
.LM1985:
	lw	a5,4(s0)
.LM1986:
	lw	s5,0(s0)
.LVL623:
.LM1987:
.LM1988:
	bne	a5,s4,.L496
.LM1989:
.LM1990:
	lw	a5,76(s2)
.LM1991:
	beq	a5,zero,.L489
.LM1992:
	lw	a2,80(s2)
	mv	a1,s0
	mv	a0,s4
	jalr	a5
.LVL624:
.L489:
.LM1993:
.LM1994:
	lw	a5,72(s1)
.LM1995:
	bne	a5,zero,.L490
.LM1996:
	lui	a3,%hi(.LC29)
	lui	a2,%hi(__func__.1)
	lui	a0,%hi(.LC1)
	addi	a3,a3,%lo(.LC29)
	addi	a2,a2,%lo(__func__.1)
	li	a1,1109
	addi	a0,a0,%lo(.LC1)
	call	__assert_func
.LVL625:
.L490:
.LM1997:
.LBB229:
.LM1998:
.LM1999:
.LM2000:
	bne	a5,s0,.L491
.LM2001:
.LM2002:
	lw	a5,0(s0)
.LM2003:
	sw	a5,72(s1)
.L492:
.LM2004:
.LBE229:
.LM2005:
.LM2006:
	mv	a0,s4
	call	coap_session_release_lkd
.LVL626:
.LM2007:
	lw	a0,16(s0)
	call	coap_delete_pdu_lkd
.LVL627:
.LM2008:
	lw	a0,12(s0)
	call	coap_delete_cache_key
.LVL628:
.LM2009:
	mv	a1,s0
	li	a0,21
	call	memp_free
.LVL629:
.L496:
.LM2010:
.LBE228:
.LM2011:
	mv	s0,s5
.LVL630:
.LM2012:
	j	.L488
.LVL631:
.L491:
.LBB231:
.LBB230:
.LM2013:
	mv	a4,a5
.LM2014:
	lw	a5,0(a5)
.LVL632:
.LM2015:
	beq	a5,zero,.L492
.LM2016:
	bne	a5,s0,.L491
.LM2017:
.LM2018:
.LM2019:
	lw	a5,0(s0)
.LM2020:
	sw	a5,0(a4)
	j	.L492
.LVL633:
.L494:
.LM2021:
.LBE230:
.LBE231:
.LM2022:
.LM2023:
	li	a5,0
.LM2024:
	beq	s3,zero,.L497
.LM2025:
	lw	a5,44(s3)
.LVL634:
.L497:
.LM2026:
	mv	s1,s3
	mv	s3,a5
.LVL635:
.LM2027:
	j	.L487
	.cfi_endproc
.LFE83:
	.size	coap_delete_observers, .-coap_delete_observers
	.section	.text.coap_resource_set_mode,"ax",@progbits
	.align	1
	.globl	coap_resource_set_mode
	.type	coap_resource_set_mode, @function
coap_resource_set_mode:
.LVL636:
.LFB88:
.LM2028:
	.cfi_startproc
.LM2029:
.LM2030:
	lw	a5,80(a0)
.LM2031:
	andi	a1,a1,2
.LVL637:
.LM2032:
	andi	a5,a5,-3
.LM2033:
	or	a5,a5,a1
.LM2034:
	sw	a5,80(a0)
.LM2035:
	ret
	.cfi_endproc
.LFE88:
	.size	coap_resource_set_mode, .-coap_resource_set_mode
	.section	.text.coap_resource_set_userdata,"ax",@progbits
	.align	1
	.globl	coap_resource_set_userdata
	.type	coap_resource_set_userdata, @function
coap_resource_set_userdata:
.LVL638:
.LFB89:
.LM2036:
	.cfi_startproc
.LM2037:
.LM2038:
	sw	a1,100(a0)
.LM2039:
	ret
	.cfi_endproc
.LFE89:
	.size	coap_resource_set_userdata, .-coap_resource_set_userdata
	.section	.text.coap_resource_get_userdata,"ax",@progbits
	.align	1
	.globl	coap_resource_get_userdata
	.type	coap_resource_get_userdata, @function
coap_resource_get_userdata:
.LVL639:
.LFB90:
.LM2040:
	.cfi_startproc
.LM2041:
.LM2042:
	lw	a0,100(a0)
.LVL640:
.LM2043:
	ret
	.cfi_endproc
.LFE90:
	.size	coap_resource_get_userdata, .-coap_resource_get_userdata
	.section	.text.coap_resource_release_userdata_handler,"ax",@progbits
	.align	1
	.globl	coap_resource_release_userdata_handler
	.type	coap_resource_release_userdata_handler, @function
coap_resource_release_userdata_handler:
.LVL641:
.LFB91:
.LM2044:
	.cfi_startproc
.LM2045:
.LM2046:
	sw	a1,24(a0)
.LM2047:
	ret
	.cfi_endproc
.LFE91:
	.size	coap_resource_release_userdata_handler, .-coap_resource_release_userdata_handler
	.section	.rodata.coap_resource_set_get_observable.str1.4,"aMS",@progbits,1
	.align	2
.LC30:
	.string	"coap_resource_set_get_observable: Not supported for Unknown or Proxy URIs\n"
	.section	.text.coap_resource_set_get_observable,"ax",@progbits
	.align	1
	.globl	coap_resource_set_get_observable
	.type	coap_resource_set_get_observable, @function
coap_resource_set_get_observable:
.LVL642:
.LFB92:
.LM2048:
	.cfi_startproc
.LM2049:
.LM2050:
	addi	sp,sp,-16
	.cfi_def_cfa_offset 16
	sw	s0,8(sp)
	sw	ra,12(sp)
	.cfi_offset 8, -8
	.cfi_offset 1, -4
.LM2051:
	lhu	a5,0(a0)
.LM2052:
	mv	s0,a0
	snez	a1,a1
.LVL643:
.LM2053:
	andi	a5,a5,48
	beq	a5,zero,.L520
.LM2054:
.LM2055:
.LM2056:
	call	coap_get_log_level
.LVL644:
.LM2057:
	li	a5,6
	bleu	a0,a5,.L519
.LM2058:
	lui	a1,%hi(.LC30)
	addi	a1,a1,%lo(.LC30)
	li	a0,7
	call	coap_log_impl
.LVL645:
.L519:
.LM2059:
.LM2060:
.LM2061:
	li	a1,0
.L520:
	lhu	a5,0(s0)
	slli	a1,a1,2
	andi	a5,a5,-5
	or	a5,a5,a1
	sh	a5,0(s0)
.LM2062:
	lw	ra,12(sp)
	.cfi_restore 1
	lw	s0,8(sp)
	.cfi_restore 8
.LVL646:
.LM2063:
	addi	sp,sp,16
	.cfi_def_cfa_offset 0
	jr	ra
	.cfi_endproc
.LFE92:
	.size	coap_resource_set_get_observable, .-coap_resource_set_get_observable
	.section	.text.coap_resource_get_uri_path,"ax",@progbits
	.align	1
	.globl	coap_resource_get_uri_path
	.type	coap_resource_get_uri_path, @function
coap_resource_get_uri_path:
.LVL647:
.LFB93:
.LM2064:
	.cfi_startproc
.LM2065:
.LM2066:
	beq	a0,zero,.L524
.LM2067:
.LM2068:
	lw	a0,76(a0)
.LVL648:
.L524:
.LM2069:
	ret
	.cfi_endproc
.LFE93:
	.size	coap_resource_get_uri_path, .-coap_resource_get_uri_path
	.section	.text.coap_check_notify_lkd,"ax",@progbits
	.align	1
	.globl	coap_check_notify_lkd
	.type	coap_check_notify_lkd, @function
coap_check_notify_lkd:
.LVL649:
.LFB95:
.LM2070:
	.cfi_startproc
.LM2071:
.LM2072:
.LM2073:
.LM2074:
	lbu	a5,204(a0)
	beq	a5,zero,.L539
.LVL650:
.LBB236:
.LBI236:
.LM2075:
.LBB237:
.LM2076:
.LM2077:
	lw	a1,12(a0)
.LM2078:
	sb	zero,204(a0)
.LM2079:
.LM2080:
.LVL651:
.LM2081:
	beq	a1,zero,.L539
.LBE237:
.LBE236:
.LM2082:
	addi	sp,sp,-32
	.cfi_def_cfa_offset 32
	sw	ra,28(sp)
	sw	s0,24(sp)
	.cfi_offset 1, -4
	.cfi_offset 8, -8
.LBB240:
.LBB238:
.LM2083:
	lw	s0,44(a1)
.LVL652:
.L531:
.LM2084:
	bne	a1,zero,.L533
.LM2085:
.LBE238:
.LBE240:
.LM2086:
	lw	ra,28(sp)
	.cfi_remember_state
	.cfi_restore 1
	lw	s0,24(sp)
	.cfi_restore 8
.LVL653:
.LM2087:
	addi	sp,sp,32
	.cfi_def_cfa_offset 0
	jr	ra
.LVL654:
.L533:
	.cfi_restore_state
.LBB241:
.LBB239:
.LM2088:
	li	a2,1
	sw	a0,12(sp)
	call	coap_notify_observers
.LVL655:
.LM2089:
.LM2090:
	lw	a0,12(sp)
.LM2091:
	li	a5,0
.LM2092:
	beq	s0,zero,.L532
.LM2093:
	lw	a5,44(s0)
.LVL656:
.L532:
.LM2094:
	mv	a1,s0
	mv	s0,a5
.LVL657:
.LM2095:
	j	.L531
.LVL658:
.L539:
	.cfi_def_cfa_offset 0
	.cfi_restore 1
	.cfi_restore 8
.LM2096:
	ret
.LBE239:
.LBE241:
	.cfi_endproc
.LFE95:
	.size	coap_check_notify_lkd, .-coap_check_notify_lkd
	.section	.rodata.coap_resource_notify_observers_lkd.str1.4,"aMS",@progbits,1
	.align	2
.LC31:
	.string	"r->context"
	.section	.text.coap_resource_notify_observers_lkd,"ax",@progbits
	.align	1
	.globl	coap_resource_notify_observers_lkd
	.type	coap_resource_notify_observers_lkd, @function
coap_resource_notify_observers_lkd:
.LVL659:
.LFB87:
.LM2097:
	.cfi_startproc
.LM2098:
.LM2099:
.LM2100:
.LM2101:
	lhu	a5,0(a0)
.LM2102:
	andi	a4,a5,4
	beq	a4,zero,.L547
.LM2103:
.LM2104:
	lw	a4,72(a0)
	beq	a4,zero,.L547
.LM2105:
	addi	sp,sp,-16
	.cfi_def_cfa_offset 16
	sw	s0,8(sp)
	sw	ra,12(sp)
	sw	s1,4(sp)
	.cfi_offset 8, -8
	.cfi_offset 1, -4
	.cfi_offset 9, -12
.LBB244:
.LBB245:
.LM2106:
	lw	a2,84(a0)
.LM2107:
	ori	a5,a5,1
	mv	s0,a0
.LVL660:
.LM2108:
.LBE245:
.LBI244:
.LM2109:
.LBB246:
.LM2110:
.LM2111:
	addi	a2,a2,1
.LM2112:
	slli	a2,a2,8
	srli	a2,a2,8
.LM2113:
	sh	a5,0(a0)
.LM2114:
.LM2115:
	sw	a2,84(a0)
.LM2116:
.LM2117:
	lw	a0,88(a0)
.LVL661:
.LM2118:
	bne	a0,zero,.L544
.LM2119:
	lui	a3,%hi(.LC31)
	lui	a2,%hi(__func__.0)
	lui	a0,%hi(.LC1)
	addi	a3,a3,%lo(.LC31)
	addi	a2,a2,%lo(__func__.0)
	li	a1,1398
.LVL662:
.LM2120:
	addi	a0,a0,%lo(.LC1)
	call	__assert_func
.LVL663:
.L544:
.LM2121:
.LM2122:
	lw	a4,88(a0)
.LM2123:
	beq	a4,zero,.L545
.LM2124:
.LM2125:
	lw	a5,84(a0)
	remu	a5,a2,a5
.LM2126:
	bne	a5,zero,.L545
.LM2127:
	lw	a3,80(a0)
	lw	a1,76(s0)
.LVL664:
.LM2128:
	jalr	a4
.LVL665:
.L545:
.LM2129:
.LM2130:
	lw	a5,88(s0)
.LM2131:
	li	s1,1
	sb	s1,204(a5)
.LM2132:
	lw	a0,88(s0)
	call	coap_check_notify_lkd
.LVL666:
.LM2133:
.LM2134:
.LBE246:
.LBE244:
.LM2135:
	lw	ra,12(sp)
	.cfi_restore 1
	lw	s0,8(sp)
	.cfi_restore 8
.LVL667:
.LBB248:
.LBB247:
.LM2136:
	mv	a0,s1
.LBE247:
.LBE248:
.LM2137:
	lw	s1,4(sp)
	.cfi_restore 9
	addi	sp,sp,16
	.cfi_def_cfa_offset 0
	jr	ra
.LVL668:
.L547:
.LM2138:
	li	a0,0
.LVL669:
.LM2139:
	ret
	.cfi_endproc
.LFE87:
	.size	coap_resource_notify_observers_lkd, .-coap_resource_notify_observers_lkd
	.section	.text.coap_resource_set_dirty,"ax",@progbits
	.align	1
	.globl	coap_resource_set_dirty
	.type	coap_resource_set_dirty, @function
coap_resource_set_dirty:
.LVL670:
.LFB85:
.LM2140:
	.cfi_startproc
.LM2141:
.LM2142:
.LM2143:
.LM2144:
	tail	coap_resource_notify_observers_lkd
.LVL671:
.LM2145:
	.cfi_endproc
.LFE85:
	.size	coap_resource_set_dirty, .-coap_resource_set_dirty
	.section	.text.coap_free_resource,"ax",@progbits
	.align	1
	.type	coap_free_resource, @function
coap_free_resource:
.LVL672:
.LFB64:
.LM2146:
	.cfi_startproc
.LM2147:
.LM2148:
.LM2149:
.LM2150:
	addi	sp,sp,-32
	.cfi_def_cfa_offset 32
	sw	ra,28(sp)
	sw	s0,24(sp)
	sw	s1,20(sp)
	.cfi_offset 1, -4
	.cfi_offset 8, -8
	.cfi_offset 9, -12
.LM2151:
	bne	a0,zero,.L557
.LM2152:
	lui	a3,%hi(.LC0)
	lui	a2,%hi(__func__.9)
	lui	a0,%hi(.LC1)
.LVL673:
.LM2153:
	addi	a3,a3,%lo(.LC0)
	addi	a2,a2,%lo(__func__.9)
	li	a1,495
.LVL674:
.LM2154:
	addi	a0,a0,%lo(.LC1)
	call	__assert_func
.LVL675:
.L557:
.LM2155:
	lw	a5,88(a0)
	mv	s0,a0
.LM2156:
.LM2157:
	lbu	a5,205(a5)
	bne	a5,zero,.L558
.LVL676:
.LM2158:
	sw	a1,12(sp)
.LM2159:
	li	a1,0
.LVL677:
.LM2160:
	call	coap_resource_notify_observers_lkd
.LVL678:
.LM2161:
	lw	a2,12(sp)
	lw	a0,88(s0)
	mv	a1,s0
	call	coap_notify_observers
.LVL679:
.L558:
.LM2162:
.LM2163:
	lw	a0,88(s0)
.LM2164:
	lw	a5,96(a0)
.LM2165:
	beq	a5,zero,.L559
.LM2166:
	lw	a2,80(a0)
	lw	a1,76(s0)
	jalr	a5
.LVL680:
.L559:
.LM2167:
.LM2168:
	lw	a5,88(s0)
	lw	a5,24(a5)
.LM2169:
	beq	a5,zero,.L560
.LM2170:
	lw	a0,100(s0)
.LM2171:
	beq	a0,zero,.L560
.LM2172:
	jalr	a5
.LVL681:
.L560:
.LM2173:
.LM2174:
	lw	a0,68(s0)
.L562:
.LVL682:
.LM2175:
	beq	a0,zero,.L561
.LM2176:
	lw	s1,0(a0)
.LVL683:
.LM2177:
	call	coap_delete_attr
.LVL684:
.LM2178:
.LM2179:
	mv	a0,s1
	j	.L562
.LVL685:
.L561:
.LM2180:
	lw	a0,76(s0)
.LVL686:
.LM2181:
	call	coap_delete_str_const
.LVL687:
.LM2182:
.LM2183:
	lw	a2,72(s0)
.L564:
.LVL688:
.LM2184:
	beq	a2,zero,.L563
.LM2185:
	lw	a1,4(a2)
.LM2186:
	lw	s1,0(a2)
.LVL689:
.LM2187:
	mv	a0,s0
	call	coap_delete_observer_internal
.LVL690:
.LM2188:
.LM2189:
	mv	a2,s1
	j	.L564
.LVL691:
.L563:
.LM2190:
	mv	a0,s0
.LM2191:
	lw	s0,24(sp)
	.cfi_restore 8
.LVL692:
.LM2192:
	lw	ra,28(sp)
	.cfi_restore 1
	lw	s1,20(sp)
	.cfi_restore 9
	addi	sp,sp,32
	.cfi_def_cfa_offset 0
.LM2193:
	tail	coap_resource_release_lkd
.LVL693:
.LM2194:
	.cfi_endproc
.LFE64:
	.size	coap_free_resource, .-coap_free_resource
	.section	.rodata.coap_delete_resource_lkd.str1.4,"aMS",@progbits,1
	.align	2
.LC32:
	.string	"context->dynamic_cur"
	.section	.text.coap_delete_resource_lkd,"ax",@progbits
	.align	1
	.globl	coap_delete_resource_lkd
	.type	coap_delete_resource_lkd, @function
coap_delete_resource_lkd:
.LVL694:
.LFB69:
.LM2195:
	.cfi_startproc
.LM2196:
.LM2197:
.LM2198:
	beq	a1,zero,.L592
.LM2199:
	addi	sp,sp,-16
	.cfi_def_cfa_offset 16
	sw	s0,8(sp)
	sw	s1,4(sp)
	sw	ra,12(sp)
	.cfi_offset 8, -8
	.cfi_offset 9, -12
	.cfi_offset 1, -4
.LM2200:
	lhu	a5,0(a1)
	mv	s0,a1
	mv	s1,a0
.LM2201:
.LM2202:
.LM2203:
.LM2204:
	andi	a4,a5,16
	beq	a4,zero,.L577
.LM2205:
.LM2206:
	beq	a0,zero,.L579
.LM2207:
	lw	a5,16(a0)
	bne	a5,a1,.L580
.LM2208:
.LM2209:
	sw	zero,16(a0)
.LVL695:
.L580:
.LBB249:
.LM2210:
.LBE249:
.LM2211:
.LM2212:
.LM2213:
.LM2214:
	lw	a5,0(s0)
	srli	a5,a5,8
.LM2215:
	andi	a5,a5,1
	beq	a5,zero,.L579
	beq	s1,zero,.L579
.LM2216:
.LM2217:
	lw	a5,220(s1)
.LM2218:
	bne	a5,zero,.L591
.LM2219:
	lui	a3,%hi(.LC32)
	lui	a2,%hi(__func__.7)
	lui	a0,%hi(.LC1)
	addi	a3,a3,%lo(.LC32)
	addi	a2,a2,%lo(__func__.7)
	li	a1,630
	addi	a0,a0,%lo(.LC1)
	call	__assert_func
.LVL696:
.L577:
.LM2220:
.LM2221:
	andi	a5,a5,32
	beq	a5,zero,.L581
.LM2222:
.LM2223:
	beq	a0,zero,.L579
.LM2224:
	lw	a5,20(a0)
	bne	a5,a1,.L580
.LM2225:
.LM2226:
	sw	zero,20(a0)
	j	.L580
.L581:
.LM2227:
.LM2228:
	beq	a0,zero,.L579
.LM2229:
.LBB255:
.LM2230:
.LVL697:
.LM2231:
.LM2232:
	lw	a5,12(a0)
.LM2233:
	lw	a4,40(a1)
.LM2234:
	lw	a5,36(a5)
.LM2235:
	bne	a4,zero,.L583
.LM2236:
	lw	a3,44(a1)
	bne	a3,zero,.L583
.LM2237:
.LM2238:
	lw	a0,0(a5)
	call	free
.LVL698:
.LM2239:
.LM2240:
	lw	a5,12(s1)
.LM2241:
	lw	a0,36(a5)
	call	free
.LVL699:
.LM2242:
.LM2243:
	sw	zero,12(s1)
.LM2244:
	j	.L580
.L583:
.LBB250:
.LM2245:
	lw	a2,16(a5)
.LBE250:
.LM2246:
	addi	a3,s0,36
.LBB254:
.LM2247:
.LM2248:
.LM2249:
	bne	a2,a3,.L584
.LM2250:
.LM2251:
	lw	a2,20(a5)
	add	a4,a4,a2
.LM2252:
	sw	a4,16(a5)
.L584:
.LM2253:
.LM2254:
	lw	a5,40(s0)
.LM2255:
	lw	a4,44(s0)
.LM2256:
	beq	a5,zero,.L585
.LM2257:
.LM2258:
	lw	a2,12(s1)
.LM2259:
	lw	a2,36(a2)
.LM2260:
	lw	a2,20(a2)
	add	a5,a5,a2
	sw	a4,8(a5)
.L586:
.LM2261:
.LM2262:
.LM2263:
	lw	a5,44(s0)
.LM2264:
	beq	a5,zero,.L587
.LM2265:
.LM2266:
	lw	a2,12(s1)
.LM2267:
	lw	a4,40(s0)
.LM2268:
	lw	a2,36(a2)
.LM2269:
	lw	a2,20(a2)
	add	a5,a5,a2
	sw	a4,4(a5)
.L587:
.LM2270:
.LM2271:
.LM2272:
	lw	a5,12(s1)
.LM2273:
	lw	a2,64(s0)
.LM2274:
	lw	a4,36(a5)
.LVL700:
.LM2275:
.LM2276:
.LBB251:
.LM2277:
.LBE251:
.LM2278:
	lw	a5,4(a4)
.LBB252:
.LM2279:
	lw	a4,0(a4)
.LVL701:
.LM2280:
.LBE252:
.LM2281:
	addi	a5,a5,-1
.LVL702:
.LM2282:
	and	a5,a5,a2
.LVL703:
.LBB253:
.LM2283:
	li	a2,12
	mul	a5,a5,a2
.LVL704:
.LM2284:
	add	a5,a4,a5
.LVL705:
.LM2285:
.LM2286:
	lw	a4,4(a5)
	addi	a4,a4,-1
	sw	a4,4(a5)
.LVL706:
.LM2287:
.LM2288:
	lw	a4,0(a5)
	bne	a4,a3,.L588
.LM2289:
	lw	a4,52(s0)
.LM2290:
.LM2291:
	sw	a4,0(a5)
.L588:
.LM2292:
.LM2293:
	lw	a5,48(s0)
.LVL707:
.LM2294:
	beq	a5,zero,.L589
.LM2295:
	lw	a4,52(s0)
.LM2296:
.LM2297:
	sw	a4,16(a5)
.L589:
.LM2298:
.LM2299:
	lw	a5,52(s0)
.LM2300:
	beq	a5,zero,.L590
.LM2301:
.LM2302:
	lw	a4,48(s0)
.LM2303:
	sw	a4,12(a5)
.L590:
.LBE253:
.LM2304:
.LM2305:
.LM2306:
	lw	a5,12(s1)
	lw	a4,36(a5)
.LM2307:
	lw	a5,12(a4)
	addi	a5,a5,-1
	sw	a5,12(a4)
	j	.L580
.LVL708:
.L585:
.LM2308:
.LM2309:
.LM2310:
	sw	a4,12(s1)
	j	.L586
.LVL709:
.L591:
.LM2311:
.LBE254:
.LBE255:
.LM2312:
.LM2313:
	addi	a5,a5,-1
	sw	a5,220(s1)
.L579:
.LM2314:
	mv	a0,s0
	li	a1,0
	call	coap_free_resource
.LVL710:
.LM2315:
.LM2316:
	lw	ra,12(sp)
	.cfi_restore 1
	lw	s0,8(sp)
	.cfi_restore 8
.LVL711:
.LM2317:
	lw	s1,4(sp)
	.cfi_restore 9
.LVL712:
.LM2318:
	li	a0,1
.LM2319:
	addi	sp,sp,16
	.cfi_def_cfa_offset 0
	jr	ra
.LVL713:
.L592:
.LM2320:
	li	a0,0
.LVL714:
.LM2321:
	ret
	.cfi_endproc
.LFE69:
	.size	coap_delete_resource_lkd, .-coap_delete_resource_lkd
	.section	.text.coap_delete_resource,"ax",@progbits
	.align	1
	.globl	coap_delete_resource
	.type	coap_delete_resource, @function
coap_delete_resource:
.LVL715:
.LFB68:
.LM2322:
	.cfi_startproc
.LM2323:
.LM2324:
.LM2325:
	beq	a1,zero,.L619
.LM2326:
.LVL716:
.LM2327:
.LM2328:
.LM2329:
	lw	a0,88(a1)
	tail	coap_delete_resource_lkd
.LVL717:
.L619:
.LM2330:
	li	a0,0
.LVL718:
.LM2331:
	ret
	.cfi_endproc
.LFE68:
	.size	coap_delete_resource, .-coap_delete_resource
	.section	.rodata.coap_add_resource_lkd.str1.4,"aMS",@progbits,1
	.align	2
.LC33:
	.string	"coap_add_resource: Duplicate uri_path '%*.*s', old resource deleted\n"
	.align	2
.LC34:
	.string	"resource->context == NULL"
	.section	.text.coap_add_resource_lkd,"ax",@progbits
	.align	1
	.globl	coap_add_resource_lkd
	.type	coap_add_resource_lkd, @function
coap_add_resource_lkd:
.LVL719:
.LFB67:
.LM2332:
	.cfi_startproc
.LM2333:
.LM2334:
.LM2335:
.LM2336:
	addi	sp,sp,-32
	.cfi_def_cfa_offset 32
	sw	s0,24(sp)
	sw	s1,20(sp)
	sw	ra,28(sp)
	sw	s2,16(sp)
	sw	s3,12(sp)
	sw	s4,8(sp)
	.cfi_offset 8, -8
	.cfi_offset 9, -12
	.cfi_offset 1, -4
	.cfi_offset 18, -16
	.cfi_offset 19, -20
	.cfi_offset 20, -24
.LM2337:
	lhu	a5,0(a1)
.LM2338:
	mv	s1,a0
	mv	s0,a1
.LM2339:
	andi	a4,a5,16
	beq	a4,zero,.L621
.LM2340:
.LM2341:
	lw	a0,16(a0)
.LVL720:
.LM2342:
	beq	a0,zero,.L622
.LM2343:
	li	a1,0
.LVL721:
.LM2344:
	call	coap_free_resource
.LVL722:
.L622:
.LM2345:
.LM2346:
	sw	s0,16(s1)
.L623:
.LBB256:
.LBB257:
.LBB258:
.LBB259:
.LBB260:
.LM2347:
.LM2348:
.LBE260:
.LM2349:
.LBE259:
.LM2350:
.LM2351:
.LM2352:
.LBE258:
.LM2353:
.LM2354:
.LM2355:
.LBE257:
.LM2356:
.LBE256:
.LM2357:
.LM2358:
	lw	a5,88(s0)
	beq	a5,zero,.L659
.LM2359:
	lui	a3,%hi(.LC34)
	lui	a2,%hi(__func__.10)
	lui	a0,%hi(.LC1)
	addi	a3,a3,%lo(.LC34)
	addi	a2,a2,%lo(__func__.10)
	li	a1,586
	addi	a0,a0,%lo(.LC1)
	call	__assert_func
.LVL723:
.L621:
.LM2360:
.LM2361:
	andi	a5,a5,32
	beq	a5,zero,.L624
.LM2362:
.LM2363:
	lw	a0,20(a0)
.LM2364:
	beq	a0,zero,.L625
.LM2365:
	li	a1,0
	call	coap_free_resource
.LVL724:
.L625:
.LM2366:
.LM2367:
	sw	s0,20(s1)
	j	.L623
.L624:
.LBB272:
.LM2368:
.LM2369:
	lw	a1,76(a1)
	call	coap_get_resource_from_uri_path_lkd
.LVL725:
	mv	s2,a0
.LVL726:
.LM2370:
.LM2371:
	beq	a0,zero,.L626
.LM2372:
.LM2373:
.LM2374:
	call	coap_get_log_level
.LVL727:
.LM2375:
	li	a5,3
	bleu	a0,a5,.L627
.LM2376:
.LM2377:
	lw	a5,76(s0)
.LM2378:
	lui	a1,%hi(.LC33)
	addi	a1,a1,%lo(.LC33)
	lw	a3,0(a5)
	lw	a4,4(a5)
	li	a0,4
	mv	a2,a3
	call	coap_log_impl
.LVL728:
.L627:
.LM2379:
.LM2380:
	mv	a1,s2
	mv	a0,s1
	call	coap_delete_resource_lkd
.LVL729:
.L626:
.LM2381:
.LBB271:
.LM2382:
.LM2383:
.LM2384:
.LBB268:
.LM2385:
.LM2386:
.LM2387:
	lw	a1,76(s0)
.LM2388:
	li	a4,-1640529920
	addi	a4,a4,-1607
.LM2389:
	lw	a7,0(a1)
.LM2390:
	lw	a5,4(a1)
.LVL730:
.LM2391:
.LM2392:
.LM2393:
.LM2394:
.LM2395:
	li	a3,-17973248
.LM2396:
	mv	a2,a7
.LM2397:
	mv	a6,a4
.LM2398:
	addi	a3,a3,-273
.LM2399:
	li	t1,11
.LVL731:
.L628:
.LM2400:
	bgtu	a2,t1,.L629
.LM2401:
.LM2402:
	addi	a2,a2,-1
.LVL732:
.LM2403:
	li	a0,10
.LM2404:
	add	a3,a3,a7
.LVL733:
.LM2405:
.LM2406:
	bgtu	a2,a0,.L630
	lui	a0,%hi(.L632)
	slli	a2,a2,2
.LVL734:
.LM2407:
	addi	a0,a0,%lo(.L632)
	add	a2,a2,a0
	lw	a2,0(a2)
	jr	a2
	.section	.rodata.coap_add_resource_lkd,"a",@progbits
	.align	2
	.align	2
.L632:
	.word	.L642
	.word	.L641
	.word	.L640
	.word	.L639
	.word	.L638
	.word	.L637
	.word	.L636
	.word	.L635
	.word	.L634
	.word	.L633
	.word	.L631
	.section	.text.coap_add_resource_lkd
.LVL735:
.L629:
.LM2408:
.LM2409:
	lbu	t3,0(a5)
.LM2410:
	lbu	a0,1(a5)
.LM2411:
	addi	a2,a2,-12
.LVL736:
.LM2412:
	add	a6,t3,a6
.LVL737:
.LM2413:
	slli	a0,a0,8
	add	a0,a0,a6
.LM2414:
	lbu	a6,2(a5)
.LM2415:
	lbu	t3,3(a5)
.LM2416:
	addi	a5,a5,12
.LVL738:
.LM2417:
	slli	a6,a6,16
	add	a0,a0,a6
.LM2418:
	slli	t3,t3,24
.LM2419:
	lbu	a6,-8(a5)
.LM2420:
	add	t3,t3,a0
.LVL739:
.LM2421:
.LM2422:
	lbu	a0,-7(a5)
	add	a4,a6,a4
.LVL740:
.LM2423:
	lbu	a6,-5(a5)
.LM2424:
	slli	a0,a0,8
	add	a4,a0,a4
.LM2425:
	lbu	a0,-6(a5)
.LM2426:
	slli	a6,a6,24
.LM2427:
	slli	a0,a0,16
	add	a4,a4,a0
.LM2428:
	add	a6,a6,a4
.LVL741:
.LM2429:
.LM2430:
	lbu	a0,-4(a5)
.LM2431:
	lbu	a4,-3(a5)
	add	a3,a0,a3
.LVL742:
.LM2432:
	slli	a4,a4,8
	add	a3,a4,a3
.LM2433:
	lbu	a4,-2(a5)
.LM2434:
	slli	a4,a4,16
	add	a3,a3,a4
.LM2435:
	lbu	a4,-1(a5)
.LM2436:
	slli	a4,a4,24
.LM2437:
	add	a4,a4,a3
.LVL743:
.LM2438:
.LM2439:
.LM2440:
	sub	a3,t3,a6
.LVL744:
.LM2441:
.LM2442:
	sub	a3,a3,a4
.LVL745:
.LM2443:
.LM2444:
	srli	a0,a4,13
.LM2445:
	xor	a0,a0,a3
.LVL746:
.LM2446:
.LM2447:
	sub	a6,a6,a4
.LVL747:
.LM2448:
.LM2449:
	sub	a3,a6,a0
.LVL748:
.LM2450:
.LM2451:
	slli	a6,a0,8
.LM2452:
	xor	a6,a6,a3
.LVL749:
.LM2453:
.LM2454:
	sub	a4,a4,a0
.LVL750:
.LM2455:
.LM2456:
	sub	a4,a4,a6
.LVL751:
.LM2457:
.LM2458:
	srli	a3,a6,13
.LM2459:
	xor	a3,a3,a4
.LVL752:
.LM2460:
.LM2461:
	sub	a0,a0,a6
.LVL753:
.LM2462:
.LM2463:
	sub	a4,a0,a3
.LVL754:
.LM2464:
.LM2465:
	srli	a0,a3,12
.LM2466:
	xor	a0,a0,a4
.LVL755:
.LM2467:
.LM2468:
	sub	a6,a6,a3
.LVL756:
.LM2469:
.LM2470:
	sub	a6,a6,a0
.LVL757:
.LM2471:
.LM2472:
	slli	a4,a0,16
.LM2473:
	xor	a4,a4,a6
.LVL758:
.LM2474:
.LM2475:
	sub	a3,a3,a0
.LVL759:
.LM2476:
.LM2477:
	sub	a6,a3,a4
.LVL760:
.LM2478:
.LM2479:
	srli	a3,a4,5
.LM2480:
	xor	a3,a3,a6
.LVL761:
.LM2481:
.LM2482:
	sub	a0,a0,a4
.LVL762:
.LM2483:
.LM2484:
	sub	a0,a0,a3
.LVL763:
.LM2485:
.LM2486:
	srli	a6,a3,3
.LM2487:
	xor	a6,a6,a0
.LVL764:
.LM2488:
.LM2489:
	sub	a4,a4,a3
.LVL765:
.LM2490:
.LM2491:
	sub	a0,a4,a6
.LVL766:
.LM2492:
.LM2493:
	slli	a4,a6,10
.LM2494:
	xor	a4,a4,a0
.LVL767:
.LM2495:
.LM2496:
	sub	a3,a3,a6
.LVL768:
.LM2497:
.LM2498:
	sub	a3,a3,a4
.LVL769:
.LM2499:
.LM2500:
	srli	a0,a4,15
.LM2501:
	xor	a3,a0,a3
.LVL770:
.LM2502:
.LM2503:
.LM2504:
	j	.L628
.LVL771:
.L631:
.LM2505:
.LM2506:
	lbu	a2,10(a5)
.LM2507:
	slli	a2,a2,24
.LM2508:
	add	a3,a3,a2
.LVL772:
.L633:
.LM2509:
.LM2510:
.LM2511:
	lbu	a2,9(a5)
.LM2512:
	slli	a2,a2,16
.LM2513:
	add	a3,a3,a2
.LVL773:
.L634:
.LM2514:
.LM2515:
.LM2516:
	lbu	a2,8(a5)
.LM2517:
	slli	a2,a2,8
.LM2518:
	add	a3,a3,a2
.LVL774:
.L635:
.LM2519:
.LM2520:
.LM2521:
	lbu	a2,7(a5)
.LM2522:
	slli	a2,a2,24
.LM2523:
	add	a4,a4,a2
.LVL775:
.L636:
.LM2524:
.LM2525:
.LM2526:
	lbu	a2,6(a5)
.LM2527:
	slli	a2,a2,16
.LM2528:
	add	a4,a4,a2
.LVL776:
.L637:
.LM2529:
.LM2530:
.LM2531:
	lbu	a2,5(a5)
.LM2532:
	slli	a2,a2,8
.LM2533:
	add	a4,a4,a2
.LVL777:
.L638:
.LM2534:
.LM2535:
.LM2536:
	lbu	a2,4(a5)
.LM2537:
	add	a4,a4,a2
.LVL778:
.L639:
.LM2538:
.LM2539:
.LM2540:
	lbu	a2,3(a5)
.LM2541:
	slli	a2,a2,24
.LM2542:
	add	a6,a6,a2
.LVL779:
.L640:
.LM2543:
.LM2544:
.LM2545:
	lbu	a2,2(a5)
.LM2546:
	slli	a2,a2,16
.LM2547:
	add	a6,a6,a2
.LVL780:
.L641:
.LM2548:
.LM2549:
.LM2550:
	lbu	a2,1(a5)
.LM2551:
	slli	a2,a2,8
.LM2552:
	add	a6,a6,a2
.LVL781:
.L642:
.LM2553:
.LM2554:
.LM2555:
	lbu	a5,0(a5)
.LVL782:
.LM2556:
	add	a6,a6,a5
.LVL783:
.L630:
.LM2557:
.LM2558:
.LM2559:
.LM2560:
.LM2561:
.LM2562:
	add	a5,a3,a4
	sub	a5,a6,a5
.LVL784:
.LM2563:
.LM2564:
	srli	a2,a3,13
.LM2565:
	xor	a2,a2,a5
.LVL785:
.LM2566:
.LM2567:
	sub	a4,a4,a3
.LVL786:
.LM2568:
.LM2569:
	slli	a5,a2,8
.LM2570:
	sub	a4,a4,a2
.LVL787:
.LM2571:
.LM2572:
	xor	a4,a5,a4
.LVL788:
.LM2573:
.LM2574:
	sub	a3,a3,a2
.LVL789:
.LM2575:
.LM2576:
	sub	a3,a3,a4
.LVL790:
.LM2577:
.LM2578:
	srli	a5,a4,13
.LM2579:
	xor	a5,a5,a3
.LVL791:
.LM2580:
.LM2581:
	sub	a2,a2,a4
.LVL792:
.LM2582:
.LM2583:
	sub	a2,a2,a5
.LVL793:
.LM2584:
.LM2585:
	srli	a3,a5,12
.LM2586:
	xor	a3,a3,a2
.LVL794:
.LM2587:
.LM2588:
	sub	a4,a4,a5
.LVL795:
.LM2589:
.LM2590:
	sub	a2,a4,a3
.LVL796:
.LM2591:
.LM2592:
	slli	a4,a3,16
.LM2593:
	xor	a4,a4,a2
.LVL797:
.LM2594:
.LM2595:
	sub	a5,a5,a3
.LVL798:
.LM2596:
.LM2597:
	sub	a2,a5,a4
.LVL799:
.LM2598:
.LM2599:
	srli	a5,a4,5
.LM2600:
	xor	a5,a5,a2
.LVL800:
.LM2601:
.LM2602:
	sub	a3,a3,a4
.LVL801:
.LM2603:
.LM2604:
	sub	a3,a3,a5
.LVL802:
.LM2605:
.LM2606:
	srli	a2,a5,3
.LM2607:
	xor	a3,a2,a3
.LVL803:
.LM2608:
.LM2609:
	sub	a4,a4,a5
.LVL804:
.LM2610:
.LM2611:
	sub	a4,a4,a3
.LVL805:
.LM2612:
.LM2613:
	slli	s2,a3,10
.LVL806:
.LM2614:
	xor	s2,s2,a4
.LVL807:
.LM2615:
.LM2616:
	sub	a5,a5,a3
.LVL808:
.LM2617:
.LM2618:
	sub	a5,a5,s2
.LVL809:
.LM2619:
.LM2620:
	srli	s2,s2,15
.LVL810:
.LM2621:
	xor	s2,s2,a5
.LVL811:
.LM2622:
.LBE268:
.LM2623:
.LM2624:
.LM2625:
.LM2626:
.LM2627:
	sw	s2,64(s0)
.LM2628:
.LM2629:
	lw	a5,4(a1)
	addi	s3,s0,36
.LM2630:
	sw	a5,56(s0)
.LM2631:
.LM2632:
	lw	a5,0(a1)
.LM2633:
	sw	a5,60(s0)
.LM2634:
.LM2635:
	lw	a5,12(s1)
.LM2636:
	bne	a5,zero,.L643
.LM2637:
.LM2638:
	sw	zero,44(s0)
.LM2639:
.LM2640:
	sw	zero,40(s0)
.LM2641:
.LM2642:
.LM2643:
	li	a0,44
	call	malloc
.LVL812:
.LM2644:
	sw	a0,36(s0)
.LM2645:
.LM2646:
	bne	a0,zero,.L644
.LVL813:
.L645:
.LM2647:
	li	a0,-1
	call	exit
.LVL814:
.L644:
.LM2648:
	li	a2,44
	li	a1,0
	call	memset
.LVL815:
.LM2649:
.LM2650:
	lw	a5,36(s0)
.LM2651:
	li	a4,32
.LM2652:
	li	a0,384
.LM2653:
	sw	s3,16(a5)
.LM2654:
.LM2655:
	lw	a5,36(s0)
.LM2656:
	sw	a4,4(a5)
.LM2657:
.LM2658:
	lw	a5,36(s0)
.LM2659:
	li	a4,5
	sw	a4,8(a5)
.LM2660:
.LM2661:
	lw	a5,36(s0)
.LM2662:
	li	a4,36
	sw	a4,20(a5)
.LM2663:
.LM2664:
	lw	s4,36(s0)
.LM2665:
	call	malloc
.LVL816:
.LM2666:
	li	a5,-1609490432
.LM2667:
	sw	a0,0(s4)
.LM2668:
.LM2669:
	lw	a4,36(s0)
.LM2670:
	addi	a5,a5,-31
	sw	a5,40(a4)
.LM2671:
.LM2672:
	lw	a5,36(s0)
	lw	a0,0(a5)
.LM2673:
	beq	a0,zero,.L645
.LM2674:
	li	a2,384
	li	a1,0
	call	memset
.LVL817:
.LM2675:
.LM2676:
.LM2677:
.LM2678:
	sw	s0,12(s1)
.L646:
.LM2679:
.LM2680:
.LBB269:
.LM2681:
.LM2682:
.LM2683:
	lw	a5,12(s1)
.LBB263:
.LM2684:
	li	a3,12
.LBE263:
.LM2685:
	lw	a4,36(a5)
.LM2686:
	lw	a5,12(a4)
	addi	a5,a5,1
	sw	a5,12(a4)
.LM2687:
.LM2688:
.LM2689:
	lw	a5,12(s1)
	lw	a5,36(a5)
.LVL818:
.LM2690:
.LM2691:
.LBB264:
.LM2692:
.LBE264:
.LM2693:
	lw	a4,4(a5)
.LBB265:
.LM2694:
	lw	a5,0(a5)
.LVL819:
.LM2695:
.LBE265:
.LM2696:
	addi	a4,a4,-1
.LVL820:
.LM2697:
	and	a4,a4,s2
.LVL821:
.LBB266:
.LM2698:
	mul	a4,a4,a3
.LVL822:
.LM2699:
	add	a5,a5,a4
.LVL823:
.LM2700:
.LM2701:
	lw	a4,4(a5)
	addi	a4,a4,1
	sw	a4,4(a5)
.LVL824:
.LM2702:
.LM2703:
	lw	a4,0(a5)
.LM2704:
	sw	zero,48(s0)
.LM2705:
	sw	a4,52(s0)
.LM2706:
.LM2707:
.LM2708:
	lw	a4,0(a5)
.LM2709:
	beq	a4,zero,.L647
.LM2710:
.LM2711:
	sw	s3,12(a4)
.L647:
.LM2712:
.LM2713:
	lw	a4,8(a5)
	li	a3,10
.LM2714:
	sw	s3,0(a5)
.LM2715:
.LM2716:
	addi	a4,a4,1
	mul	a4,a4,a3
.LM2717:
	lw	a5,4(a5)
.LVL825:
.LM2718:
	bltu	a5,a4,.L623
.LM2719:
	lw	a5,36(s0)
.LM2720:
	lw	s2,36(a5)
.LVL826:
.LM2721:
	bne	s2,zero,.L623
.LM2722:
.LBB261:
.LM2723:
.LM2724:
.LM2725:
.LM2726:
.LM2727:
.LM2728:
	lw	a0,4(a5)
	li	s4,24
.LM2729:
	mul	a0,a0,s4
	call	malloc
.LVL827:
	mv	s3,a0
.LVL828:
.LM2730:
.LM2731:
	beq	a0,zero,.L645
.LM2732:
.LM2733:
	lw	a5,36(s0)
.LM2734:
	li	a1,0
.LM2735:
	lw	a2,4(a5)
.LM2736:
	mul	a2,a2,s4
	call	memset
.LVL829:
.LM2737:
.LM2738:
	lw	a4,36(s0)
.LM2739:
	li	a6,12
.LM2740:
	lw	a5,4(a4)
.LM2741:
	lw	a3,12(a4)
.LM2742:
	lw	a2,8(a4)
.LM2743:
	slli	a5,a5,1
.LM2744:
	addi	a5,a5,-1
.LM2745:
	and	a5,a5,a3
.LM2746:
	addi	a2,a2,1
.LM2747:
	srl	a3,a3,a2
.LM2748:
	snez	a5,a5
.LM2749:
	add	a5,a5,a3
.LM2750:
	sw	a5,24(a4)
.LM2751:
.LM2752:
	lw	a5,36(s0)
.LM2753:
	li	a3,0
.LM2754:
	sw	zero,28(a5)
.LM2755:
.LVL830:
.L650:
.LM2756:
.LM2757:
	lw	a5,36(s0)
.LM2758:
	lw	a0,0(a5)
.LM2759:
	lw	a5,4(a5)
	bgtu	a5,a3,.L657
.LM2760:
	call	free
.LVL831:
.LM2761:
.LM2762:
	lw	a4,36(s0)
.LM2763:
	lw	a5,4(a4)
	slli	a5,a5,1
	sw	a5,4(a4)
.LM2764:
.LM2765:
	lw	a4,36(s0)
.LM2766:
	lw	a5,8(a4)
	addi	a5,a5,1
	sw	a5,8(a4)
.LM2767:
.LM2768:
	lw	a5,36(s0)
.LM2769:
	sw	s3,0(a5)
.LM2770:
.LM2771:
	lw	a5,36(s0)
.LM2772:
	lw	a4,12(a5)
.LM2773:
	lw	a3,28(a5)
.LM2774:
	srli	a4,a4,1
.LM2775:
	bleu	a3,a4,.L658
.LM2776:
	lw	s2,32(a5)
	addi	s2,s2,1
.L658:
.LM2777:
	sw	s2,32(a5)
.LM2778:
.LM2779:
	lw	a5,36(s0)
.LM2780:
	li	a4,1
	lw	a3,32(a5)
	bleu	a3,a4,.L623
.LM2781:
.LM2782:
	sw	a4,36(a5)
	j	.L623
.LVL832:
.L643:
.LM2783:
.LBE261:
.LBE266:
.LBE269:
.LM2784:
.LM2785:
	lw	a5,36(a5)
.LM2786:
	sw	zero,44(s0)
.LM2787:
	sw	a5,36(s0)
.LM2788:
.LM2789:
.LM2790:
.LM2791:
	lw	a5,12(s1)
	lw	a4,36(a5)
.LVL833:
.LM2792:
	lw	a5,16(a4)
	lw	a4,20(a4)
	sub	a5,a5,a4
.LM2793:
	sw	a5,40(s0)
.LM2794:
.LM2795:
	lw	a5,12(s1)
.LM2796:
	lw	a5,36(a5)
	lw	a5,16(a5)
.LM2797:
	sw	s0,8(a5)
.LM2798:
.LM2799:
	lw	a5,12(s1)
	lw	a5,36(a5)
.LM2800:
	sw	s3,16(a5)
	j	.L646
.LVL834:
.L657:
.LBB270:
.LBB267:
.LBB262:
.LM2801:
.LM2802:
	mul	a5,a3,a6
	add	a0,a0,a5
	lw	a4,0(a0)
.LVL835:
.LM2803:
.L651:
.LM2804:
	bne	a4,zero,.L656
.LM2805:
	addi	a3,a3,1
.LVL836:
.LM2806:
	j	.L650
.LVL837:
.L656:
.LM2807:
	lw	a2,36(s0)
.LM2808:
.LM2809:
	lw	a1,28(a4)
.LM2810:
	lw	a0,16(a4)
.LVL838:
.LM2811:
.LM2812:
.LM2813:
.LM2814:
.LM2815:
	lw	a5,4(a2)
	slli	a5,a5,1
.LM2816:
	addi	a5,a5,-1
.LM2817:
	and	a5,a5,a1
.LM2818:
	mul	a5,a5,a6
.LM2819:
	add	a5,s3,a5
.LVL839:
.LM2820:
.LM2821:
	lw	a1,4(a5)
.LVL840:
.LM2822:
	addi	a1,a1,1
.LM2823:
	sw	a1,4(a5)
.LVL841:
.LM2824:
	lw	a7,24(a2)
	bleu	a1,a7,.L653
.LM2825:
.LM2826:
	lw	a1,28(a2)
	addi	a1,a1,1
	sw	a1,28(a2)
.LM2827:
.LM2828:
	lw	a1,36(s0)
.LM2829:
	lw	a2,8(a5)
.LM2830:
	lw	a7,4(a5)
.LM2831:
	lw	a1,24(a1)
	mul	a1,a2,a1
.LM2832:
	bleu	a7,a1,.L653
.LM2833:
.LM2834:
	addi	a2,a2,1
	sw	a2,8(a5)
.L653:
.LM2835:
.LM2836:
	sw	zero,12(a4)
.LM2837:
.LM2838:
	lw	a2,0(a5)
.LM2839:
	sw	a2,16(a4)
.LM2840:
.LM2841:
	beq	a2,zero,.L655
.LM2842:
.LM2843:
	sw	a4,12(a2)
.L655:
.LM2844:
.LM2845:
	sw	a4,0(a5)
.LM2846:
.LVL842:
.LM2847:
	mv	a4,a0
	j	.L651
.LVL843:
.L659:
.LM2848:
.LBE262:
.LBE267:
.LBE270:
.LBE271:
.LBE272:
.LM2849:
.LM2850:
	sw	s1,88(s0)
.LM2851:
	lw	ra,28(sp)
	.cfi_restore 1
	lw	s0,24(sp)
	.cfi_restore 8
.LVL844:
.LM2852:
	lw	s1,20(sp)
	.cfi_restore 9
.LVL845:
.LM2853:
	lw	s2,16(sp)
	.cfi_restore 18
	lw	s3,12(sp)
	.cfi_restore 19
	lw	s4,8(sp)
	.cfi_restore 20
	addi	sp,sp,32
	.cfi_def_cfa_offset 0
	jr	ra
	.cfi_endproc
.LFE67:
	.size	coap_add_resource_lkd, .-coap_add_resource_lkd
	.section	.text.coap_add_resource,"ax",@progbits
	.align	1
	.globl	coap_add_resource
	.type	coap_add_resource, @function
coap_add_resource:
.LVL846:
.LFB66:
.LM2854:
	.cfi_startproc
.LM2855:
.LM2856:
	tail	coap_add_resource_lkd
.LVL847:
.LM2857:
	.cfi_endproc
.LFE66:
	.size	coap_add_resource, .-coap_add_resource
	.section	.text.coap_delete_all_resources,"ax",@progbits
	.align	1
	.globl	coap_delete_all_resources
	.type	coap_delete_all_resources, @function
coap_delete_all_resources:
.LVL848:
.LFB70:
.LM2858:
	.cfi_startproc
.LM2859:
.LM2860:
.LM2861:
.LM2862:
	addi	sp,sp,-32
	.cfi_def_cfa_offset 32
	sw	s1,20(sp)
	sw	ra,28(sp)
	sw	s0,24(sp)
	sw	s2,16(sp)
	sw	s3,12(sp)
	.cfi_offset 9, -12
	.cfi_offset 1, -4
	.cfi_offset 8, -8
	.cfi_offset 18, -16
	.cfi_offset 19, -20
.LM2863:
	lw	s0,12(a0)
.LVL849:
.LM2864:
	mv	s1,a0
.LM2865:
	beq	s0,zero,.L684
.LM2866:
	lw	s2,44(s0)
.LBB273:
.LBB274:
.LBB275:
.LM2867:
	li	s3,12
.LVL850:
.L685:
.LM2868:
.LBE275:
.LBE274:
.LBE273:
.LM2869:
	bne	s0,zero,.L696
.LVL851:
.L684:
.LM2870:
.LM2871:
	lw	a0,16(s1)
.LM2872:
	sw	zero,12(s1)
.LM2873:
.LM2874:
	beq	a0,zero,.L697
.LM2875:
	li	a1,2
	call	coap_free_resource
.LVL852:
.LM2876:
.LM2877:
	sw	zero,16(s1)
.L697:
.LM2878:
.LM2879:
	lw	a0,20(s1)
.LM2880:
	beq	a0,zero,.L683
.LM2881:
	li	a1,2
	call	coap_free_resource
.LVL853:
.LM2882:
.LM2883:
	sw	zero,20(s1)
.L683:
.LM2884:
	lw	ra,28(sp)
	.cfi_remember_state
	.cfi_restore 1
	lw	s0,24(sp)
	.cfi_restore 8
	lw	s1,20(sp)
	.cfi_restore 9
.LVL854:
.LM2885:
	lw	s2,16(sp)
	.cfi_restore 18
	lw	s3,12(sp)
	.cfi_restore 19
	addi	sp,sp,32
	.cfi_def_cfa_offset 0
	jr	ra
.LVL855:
.L696:
	.cfi_restore_state
.LM2886:
.LBB281:
.LM2887:
.LM2888:
.LM2889:
	lw	a5,12(s1)
.LM2890:
	lw	a4,40(s0)
.LM2891:
	lw	a5,36(a5)
.LM2892:
	bne	a4,zero,.L686
.LM2893:
	lw	a3,44(s0)
	bne	a3,zero,.L686
.LM2894:
.LM2895:
	lw	a0,0(a5)
	call	free
.LVL856:
.LM2896:
.LM2897:
	lw	a5,12(s1)
.LM2898:
	lw	a0,36(a5)
	call	free
.LVL857:
.LM2899:
.LM2900:
	sw	zero,12(s1)
.L687:
.LM2901:
.LBE281:
.LM2902:
.LM2903:
	li	a1,2
	mv	a0,s0
	call	coap_free_resource
.LVL858:
.LM2904:
.LM2905:
	li	a5,0
.LM2906:
	beq	s2,zero,.L695
.LM2907:
	lw	a5,44(s2)
.LVL859:
.L695:
.LM2908:
	mv	s0,s2
.LVL860:
.LM2909:
	mv	s2,a5
.LVL861:
.LM2910:
	j	.L685
.LVL862:
.L686:
.LBB282:
.LBB279:
.LM2911:
	lw	a2,16(a5)
.LBE279:
.LM2912:
	addi	a3,s0,36
.LBB280:
.LM2913:
.LM2914:
.LM2915:
	bne	a2,a3,.L688
.LM2916:
.LM2917:
	lw	a2,20(a5)
	add	a4,a4,a2
.LM2918:
	sw	a4,16(a5)
.L688:
.LM2919:
.LM2920:
	lw	a5,40(s0)
.LM2921:
	lw	a4,44(s0)
.LM2922:
	beq	a5,zero,.L689
.LM2923:
.LM2924:
	lw	a2,12(s1)
.LM2925:
	lw	a2,36(a2)
.LM2926:
	lw	a2,20(a2)
	add	a5,a5,a2
	sw	a4,8(a5)
.L690:
.LM2927:
.LM2928:
.LM2929:
	lw	a5,44(s0)
.LM2930:
	beq	a5,zero,.L691
.LM2931:
.LM2932:
	lw	a2,12(s1)
.LM2933:
	lw	a4,40(s0)
.LM2934:
	lw	a2,36(a2)
.LM2935:
	lw	a2,20(a2)
	add	a5,a5,a2
	sw	a4,4(a5)
.L691:
.LM2936:
.LM2937:
.LM2938:
	lw	a5,12(s1)
.LM2939:
	lw	a2,64(s0)
.LM2940:
	lw	a4,36(a5)
.LVL863:
.LM2941:
.LM2942:
.LBB276:
.LM2943:
.LBE276:
.LM2944:
	lw	a5,4(a4)
.LBB277:
.LM2945:
	lw	a4,0(a4)
.LVL864:
.LM2946:
.LBE277:
.LM2947:
	addi	a5,a5,-1
.LVL865:
.LM2948:
	and	a5,a5,a2
.LVL866:
.LBB278:
.LM2949:
	mul	a5,a5,s3
.LVL867:
.LM2950:
	add	a5,a4,a5
.LVL868:
.LM2951:
.LM2952:
	lw	a4,4(a5)
	addi	a4,a4,-1
	sw	a4,4(a5)
.LVL869:
.LM2953:
.LM2954:
	lw	a4,0(a5)
	bne	a4,a3,.L692
.LM2955:
	lw	a4,52(s0)
.LM2956:
.LM2957:
	sw	a4,0(a5)
.L692:
.LM2958:
.LM2959:
	lw	a5,48(s0)
.LVL870:
.LM2960:
	beq	a5,zero,.L693
.LM2961:
	lw	a4,52(s0)
.LM2962:
.LM2963:
	sw	a4,16(a5)
.L693:
.LM2964:
.LM2965:
	lw	a5,52(s0)
.LM2966:
	beq	a5,zero,.L694
.LM2967:
.LM2968:
	lw	a4,48(s0)
.LM2969:
	sw	a4,12(a5)
.L694:
.LBE278:
.LM2970:
.LM2971:
.LM2972:
	lw	a5,12(s1)
	lw	a4,36(a5)
.LM2973:
	lw	a5,12(a4)
	addi	a5,a5,-1
	sw	a5,12(a4)
	j	.L687
.LVL871:
.L689:
.LM2974:
.LM2975:
.LM2976:
	sw	a4,12(s1)
	j	.L690
.LBE280:
.LBE282:
	.cfi_endproc
.LFE70:
	.size	coap_delete_all_resources, .-coap_delete_all_resources
	.section	.text.coap_resource_notify_observers,"ax",@progbits
	.align	1
	.globl	coap_resource_notify_observers
	.type	coap_resource_notify_observers, @function
coap_resource_notify_observers:
.LFB107:
	.cfi_startproc
.LM2977:
	tail	coap_resource_notify_observers_lkd
	.cfi_endproc
.LFE107:
	.size	coap_resource_notify_observers, .-coap_resource_notify_observers
	.section	.text.coap_check_notify,"ax",@progbits
	.align	1
	.globl	coap_check_notify
	.type	coap_check_notify, @function
coap_check_notify:
.LVL872:
.LFB94:
.LM2978:
	.cfi_startproc
.LM2979:
.LM2980:
	tail	coap_check_notify_lkd
.LVL873:
.LM2981:
	.cfi_endproc
.LFE94:
	.size	coap_check_notify, .-coap_check_notify
	.section	.text.coap_persist_set_observe_num,"ax",@progbits
	.align	1
	.globl	coap_persist_set_observe_num
	.type	coap_persist_set_observe_num, @function
coap_persist_set_observe_num:
.LVL874:
.LFB96:
.LM2982:
	.cfi_startproc
.LM2983:
.LM2984:
	beq	a0,zero,.L721
.LM2985:
.LM2986:
	slli	a1,a1,8
.LVL875:
.LM2987:
	srli	a1,a1,8
.LM2988:
	sw	a1,84(a0)
.L721:
.LM2989:
	ret
	.cfi_endproc
.LFE96:
	.size	coap_persist_set_observe_num, .-coap_persist_set_observe_num
	.section	.text.coap_handle_failed_notify,"ax",@progbits
	.align	1
	.globl	coap_handle_failed_notify
	.type	coap_handle_failed_notify, @function
coap_handle_failed_notify:
.LVL876:
.LFB98:
.LM2990:
	.cfi_startproc
.LM2991:
.LM2992:
.LM2993:
	addi	sp,sp,-32
	.cfi_def_cfa_offset 32
	sw	ra,28(sp)
	sw	s0,24(sp)
	sw	s1,20(sp)
	sw	s2,16(sp)
	sw	s3,12(sp)
	sw	s4,8(sp)
	sw	s5,4(sp)
	sw	s6,0(sp)
	.cfi_offset 1, -4
	.cfi_offset 8, -8
	.cfi_offset 9, -12
	.cfi_offset 18, -16
	.cfi_offset 19, -20
	.cfi_offset 20, -24
	.cfi_offset 21, -28
	.cfi_offset 22, -32
.LM2994:
	lw	s1,12(a0)
.LVL877:
.LM2995:
	beq	s1,zero,.L726
.LM2996:
	lw	s3,44(s1)
	mv	s2,a2
	mv	s4,a1
	mv	s6,a0
.LVL878:
.L728:
.LM2997:
	bne	s1,zero,.L738
.LVL879:
.L726:
.LM2998:
	lw	ra,28(sp)
	.cfi_remember_state
	.cfi_restore 1
	lw	s0,24(sp)
	.cfi_restore 8
	lw	s1,20(sp)
	.cfi_restore 9
.LVL880:
.LM2999:
	lw	s2,16(sp)
	.cfi_restore 18
	lw	s3,12(sp)
	.cfi_restore 19
	lw	s4,8(sp)
	.cfi_restore 20
	lw	s5,4(sp)
	.cfi_restore 21
	lw	s6,0(sp)
	.cfi_restore 22
	addi	sp,sp,32
	.cfi_def_cfa_offset 0
	jr	ra
.LVL881:
.L738:
	.cfi_restore_state
.LM3000:
.LBB285:
.LBI285:
.LM3001:
.LBB286:
.LM3002:
.LM3003:
.LM3004:
	lw	s0,72(s1)
.LVL882:
.L729:
.LM3005:
	beq	s0,zero,.L735
.LM3006:
	lw	a5,4(s0)
.LM3007:
	lw	s5,0(s0)
.LVL883:
.LM3008:
.LM3009:
	bne	s4,a5,.L730
.LM3010:
	lw	a5,16(s0)
.LM3011:
	lw	a2,0(s2)
.LM3012:
	lw	a4,24(a5)
	bne	a2,a4,.L730
.LM3013:
	bne	a2,zero,.L731
.L734:
.LM3014:
.LM3015:
	lbu	a5,9(s0)
	addi	a5,a5,1
	andi	a5,a5,0xff
	sb	a5,9(s0)
.LM3016:
.LM3017:
	beq	a5,zero,.L735
.LM3018:
	lw	a2,16(s0)
	lw	a1,4(s0)
	mv	a0,s6
	addi	a2,a2,24
	call	coap_cancel_all_messages
.LVL884:
.LM3019:
	mv	a2,s2
	mv	a1,s4
	mv	a0,s1
	call	coap_delete_observer
.LVL885:
.L735:
.LM3020:
.LBE286:
.LBE285:
.LM3021:
.LM3022:
	li	a5,0
.LM3023:
	beq	s3,zero,.L737
.LM3024:
	lw	a5,44(s3)
.LVL886:
.L737:
.LM3025:
	mv	s1,s3
	mv	s3,a5
.LVL887:
.LM3026:
	j	.L728
.LVL888:
.L731:
.LBB288:
.LBB287:
.LM3027:
	lw	a0,4(s2)
.LM3028:
	beq	a0,zero,.L730
.LM3029:
	lw	a1,28(a5)
.LM3030:
	beq	a1,zero,.L730
.LM3031:
	call	memcmp
.LVL889:
.LM3032:
	beq	a0,zero,.L734
.L730:
.LM3033:
.LBE287:
.LBE288:
.LM3034:
	mv	s0,s5
.LVL890:
.LM3035:
	j	.L729
	.cfi_endproc
.LFE98:
	.size	coap_handle_failed_notify, .-coap_handle_failed_notify
	.section	.text.coap_resource_reference_lkd,"ax",@progbits
	.align	1
	.globl	coap_resource_reference_lkd
	.type	coap_resource_reference_lkd, @function
coap_resource_reference_lkd:
.LVL891:
.LFB99:
.LM3036:
	.cfi_startproc
.LM3037:
.LM3038:
	lw	a5,4(a0)
	addi	a5,a5,1
	sw	a5,4(a0)
.LM3039:
	ret
	.cfi_endproc
.LFE99:
	.size	coap_resource_reference_lkd, .-coap_resource_reference_lkd
	.section	.rodata.__func__.0,"a"
	.align	2
	.type	__func__.0, @object
	.size	__func__.0, 35
__func__.0:
	.string	"coap_resource_notify_observers_lkd"
	.section	.rodata.__func__.1,"a"
	.align	2
	.type	__func__.1, @object
	.size	__func__.1, 22
__func__.1:
	.string	"coap_delete_observers"
	.section	.rodata.__func__.2,"a"
	.align	2
	.type	__func__.2, @object
	.size	__func__.2, 30
__func__.2:
	.string	"coap_delete_observer_internal"
	.section	.rodata.__func__.3,"a"
	.align	2
	.type	__func__.3, @object
	.size	__func__.3, 29
__func__.3:
	.string	"coap_find_observer_cache_key"
	.section	.rodata.__func__.4,"a"
	.align	2
	.type	__func__.4, @object
	.size	__func__.4, 18
__func__.4:
	.string	"coap_add_observer"
	.section	.rodata.__func__.5,"a"
	.align	2
	.type	__func__.5, @object
	.size	__func__.5, 19
__func__.5:
	.string	"coap_find_observer"
	.section	.rodata.__func__.6,"a"
	.align	2
	.type	__func__.6, @object
	.size	__func__.6, 30
__func__.6:
	.string	"coap_register_request_handler"
	.section	.rodata.__func__.7,"a"
	.align	2
	.type	__func__.7, @object
	.size	__func__.7, 25
__func__.7:
	.string	"coap_delete_resource_lkd"
	.section	.rodata.__func__.8,"a"
	.align	2
	.type	__func__.8, @object
	.size	__func__.8, 22
__func__.8:
	.string	"coap_notify_observers"
	.section	.rodata.__func__.9,"a"
	.align	2
	.type	__func__.9, @object
	.size	__func__.9, 19
__func__.9:
	.string	"coap_free_resource"
	.section	.rodata.__func__.10,"a"
	.align	2
	.type	__func__.10, @object
	.size	__func__.10, 22
__func__.10:
	.string	"coap_add_resource_lkd"
	.section	.rodata.__func__.11,"a"
	.align	2
	.type	__func__.11, @object
	.size	__func__.11, 26
__func__.11:
	.string	"coap_resource_release_lkd"
	.section	.srodata.__func__.12,"a"
	.align	2
	.type	__func__.12, @object
	.size	__func__.12, 6
__func__.12:
	.string	"match"
	.section	.rodata.__func__.13,"a"
	.align	2
	.type	__func__.13, @object
	.size	__func__.13, 25
__func__.13:
	.string	"coap_print_wellknown_lkd"
	.section	.rodata.str1.4,"aMS",@progbits,1
	.align	2
.LC35:
	.string	"rt"
	.align	2
.LC36:
	.string	"if"
	.align	2
.LC37:
	.string	"rel"
	.section	.rodata._rt_attributes.14,"a"
	.align	2
	.type	_rt_attributes.14, @object
	.size	_rt_attributes.14, 32
_rt_attributes.14:
	.word	2
	.word	.LC35
	.word	2
	.word	.LC36
	.word	3
	.word	.LC37
	.word	0
	.word	0
	.section	.srodata.cache_ignore_options,"a"
	.align	2
	.type	cache_ignore_options, @object
	.size	cache_ignore_options, 4
cache_ignore_options:
	.half	4
	.half	9
	.section	.rodata.coap_rev_proxy_resource_uri,"a"
	.align	2
	.type	coap_rev_proxy_resource_uri, @object
	.size	coap_rev_proxy_resource_uri, 14
coap_rev_proxy_resource_uri:
	.string	"- Rev Proxy -"
	.section	.rodata.coap_proxy_resource_uri,"a"
	.align	2
	.type	coap_proxy_resource_uri, @object
	.size	coap_proxy_resource_uri, 14
coap_proxy_resource_uri:
	.string	"- Proxy URI -"
	.section	.rodata.coap_unknown_resource_uri,"a"
	.align	2
	.type	coap_unknown_resource_uri, @object
	.size	coap_unknown_resource_uri, 12
coap_unknown_resource_uri:
	.string	"- Unknown -"
	.section	.sdata.null_path_value,"aw"
	.align	2
	.type	null_path_value, @object
	.size	null_path_value, 8
null_path_value:
	.word	0
	.word	.LC16
	.text
.Letext0:
	.section	.note.GNU-stack,"",@progbits
