	.file	"bl_msg_tx.c"
	.option nopic
	.attribute arch, "rv32i2p1_m2p0_f2p2_c2p0_zicsr2p0_zmmul1p0_zca1p0_zcf1p0"
	.attribute unaligned_access, 0
	.attribute stack_align, 16
	.text
.Ltext0:
	.cfi_sections	.debug_frame
	.file 0 "/home/chandu/sdk/bl602_iot_sdk/customer_app/suas_app_pqkem_gateway/build_out/bl602_wifidrv" "/home/chandu/sdk/bl602_iot_sdk/components/bl602/bl602_wifidrv/bl60x_wifi_driver/bl_msg_tx.c"
	.section	.srodata.mac_addr_bcst,"a"
	.align	2
	.type	mac_addr_bcst, @object
	.size	mac_addr_bcst, 6
mac_addr_bcst:
	.base64	"////////"
	.section	.srodata.mac_addr_zero,"a"
	.align	2
	.type	mac_addr_zero, @object
	.size	mac_addr_zero, 6
mac_addr_zero:
	.zero	6
	.section	.rodata.bl_channels_24_JP,"a"
	.align	2
	.type	bl_channels_24_JP, @object
	.size	bl_channels_24_JP, 728
bl_channels_24_JP:
	.byte	0
	.zero	1
	.half	2412
	.half	1
	.zero	10
	.word	16
	.zero	32
	.byte	0
	.zero	1
	.half	2417
	.half	2
	.zero	10
	.word	16
	.zero	32
	.byte	0
	.zero	1
	.half	2422
	.half	3
	.zero	10
	.word	16
	.zero	32
	.byte	0
	.zero	1
	.half	2427
	.half	4
	.zero	10
	.word	16
	.zero	32
	.byte	0
	.zero	1
	.half	2432
	.half	5
	.zero	10
	.word	16
	.zero	32
	.byte	0
	.zero	1
	.half	2437
	.half	6
	.zero	10
	.word	16
	.zero	32
	.byte	0
	.zero	1
	.half	2442
	.half	7
	.zero	10
	.word	16
	.zero	32
	.byte	0
	.zero	1
	.half	2447
	.half	8
	.zero	10
	.word	16
	.zero	32
	.byte	0
	.zero	1
	.half	2452
	.half	9
	.zero	10
	.word	16
	.zero	32
	.byte	0
	.zero	1
	.half	2457
	.half	10
	.zero	10
	.word	16
	.zero	32
	.byte	0
	.zero	1
	.half	2462
	.half	11
	.zero	10
	.word	16
	.zero	32
	.byte	0
	.zero	1
	.half	2467
	.half	12
	.zero	10
	.word	16
	.zero	32
	.byte	0
	.zero	1
	.half	2472
	.half	13
	.zero	10
	.word	16
	.zero	32
	.byte	0
	.zero	1
	.half	2484
	.half	14
	.zero	10
	.word	16
	.zero	32
	.section	.rodata.bl_channels_24_CN,"a"
	.align	2
	.type	bl_channels_24_CN, @object
	.size	bl_channels_24_CN, 676
bl_channels_24_CN:
	.byte	0
	.zero	1
	.half	2412
	.half	1
	.zero	10
	.word	16
	.zero	32
	.byte	0
	.zero	1
	.half	2417
	.half	2
	.zero	10
	.word	16
	.zero	32
	.byte	0
	.zero	1
	.half	2422
	.half	3
	.zero	10
	.word	16
	.zero	32
	.byte	0
	.zero	1
	.half	2427
	.half	4
	.zero	10
	.word	16
	.zero	32
	.byte	0
	.zero	1
	.half	2432
	.half	5
	.zero	10
	.word	16
	.zero	32
	.byte	0
	.zero	1
	.half	2437
	.half	6
	.zero	10
	.word	16
	.zero	32
	.byte	0
	.zero	1
	.half	2442
	.half	7
	.zero	10
	.word	16
	.zero	32
	.byte	0
	.zero	1
	.half	2447
	.half	8
	.zero	10
	.word	16
	.zero	32
	.byte	0
	.zero	1
	.half	2452
	.half	9
	.zero	10
	.word	16
	.zero	32
	.byte	0
	.zero	1
	.half	2457
	.half	10
	.zero	10
	.word	16
	.zero	32
	.byte	0
	.zero	1
	.half	2462
	.half	11
	.zero	10
	.word	16
	.zero	32
	.byte	0
	.zero	1
	.half	2467
	.half	12
	.zero	10
	.word	16
	.zero	32
	.byte	0
	.zero	1
	.half	2472
	.half	13
	.zero	10
	.word	16
	.zero	32
	.section	.rodata.bl_channels_24_US,"a"
	.align	2
	.type	bl_channels_24_US, @object
	.size	bl_channels_24_US, 572
bl_channels_24_US:
	.byte	0
	.zero	1
	.half	2412
	.half	1
	.zero	10
	.word	16
	.zero	32
	.byte	0
	.zero	1
	.half	2417
	.half	2
	.zero	10
	.word	16
	.zero	32
	.byte	0
	.zero	1
	.half	2422
	.half	3
	.zero	10
	.word	16
	.zero	32
	.byte	0
	.zero	1
	.half	2427
	.half	4
	.zero	10
	.word	16
	.zero	32
	.byte	0
	.zero	1
	.half	2432
	.half	5
	.zero	10
	.word	16
	.zero	32
	.byte	0
	.zero	1
	.half	2437
	.half	6
	.zero	10
	.word	16
	.zero	32
	.byte	0
	.zero	1
	.half	2442
	.half	7
	.zero	10
	.word	16
	.zero	32
	.byte	0
	.zero	1
	.half	2447
	.half	8
	.zero	10
	.word	16
	.zero	32
	.byte	0
	.zero	1
	.half	2452
	.half	9
	.zero	10
	.word	16
	.zero	32
	.byte	0
	.zero	1
	.half	2457
	.half	10
	.zero	10
	.word	16
	.zero	32
	.byte	0
	.zero	1
	.half	2462
	.half	11
	.zero	10
	.word	16
	.zero	32
	.section	.rodata.bl_channels_24_ER,"a"
	.align	2
	.type	bl_channels_24_ER, @object
	.size	bl_channels_24_ER, 676
bl_channels_24_ER:
	.byte	0
	.zero	1
	.half	2412
	.half	1
	.zero	10
	.word	16
	.zero	32
	.byte	0
	.zero	1
	.half	2417
	.half	2
	.zero	10
	.word	16
	.zero	32
	.byte	0
	.zero	1
	.half	2422
	.half	3
	.zero	10
	.word	16
	.zero	32
	.byte	0
	.zero	1
	.half	2427
	.half	4
	.zero	10
	.word	16
	.zero	32
	.byte	0
	.zero	1
	.half	2432
	.half	5
	.zero	10
	.word	16
	.zero	32
	.byte	0
	.zero	1
	.half	2437
	.half	6
	.zero	10
	.word	16
	.zero	32
	.byte	0
	.zero	1
	.half	2442
	.half	7
	.zero	10
	.word	16
	.zero	32
	.byte	0
	.zero	1
	.half	2447
	.half	8
	.zero	10
	.word	16
	.zero	32
	.byte	0
	.zero	1
	.half	2452
	.half	9
	.zero	10
	.word	16
	.zero	32
	.byte	0
	.zero	1
	.half	2457
	.half	10
	.zero	10
	.word	16
	.zero	32
	.byte	0
	.zero	1
	.half	2462
	.half	11
	.zero	10
	.word	16
	.zero	32
	.byte	0
	.zero	1
	.half	2467
	.half	12
	.zero	10
	.word	16
	.zero	32
	.byte	0
	.zero	1
	.half	2472
	.half	13
	.zero	10
	.word	16
	.zero	32
	.section	.rodata
	.align	2
.LC0:
	.string	"CN"
	.align	2
.LC1:
	.string	"JP"
	.align	2
.LC2:
	.string	"US"
	.align	2
.LC3:
	.string	"EU"
	.section	.rodata.country_list,"a"
	.align	2
	.type	country_list, @object
	.size	country_list, 48
country_list:
	.word	.LC0
	.word	13
	.word	bl_channels_24_CN
	.word	.LC1
	.word	14
	.word	bl_channels_24_JP
	.word	.LC2
	.word	11
	.word	bl_channels_24_US
	.word	.LC3
	.word	13
	.word	bl_channels_24_ER
	.section	.sbss.channel_num_default,"aw",@nobits
	.align	2
	.type	channel_num_default, @object
	.size	channel_num_default, 4
channel_num_default:
	.zero	4
	.section	.sbss.channels_default,"aw",@nobits
	.align	2
	.type	channels_default, @object
	.size	channels_default, 4
channels_default:
	.zero	4
	.section	.text.cfg80211_get_channel_list,"ax",@progbits
	.align	1
	.type	cfg80211_get_channel_list, @function
cfg80211_get_channel_list:
.LFB33:
	.file 1 "/home/chandu/sdk/bl602_iot_sdk/components/bl602/bl602_wifidrv/bl60x_wifi_driver/bl_msg_tx.c"
	.loc 1 196 1
	.cfi_startproc
	addi	sp,sp,-48
	.cfi_def_cfa_offset 48
	sw	ra,44(sp)
	sw	s0,40(sp)
	.cfi_offset 1, -4
	.cfi_offset 8, -8
	addi	s0,sp,48
	.cfi_def_cfa 8, 0
	sw	a0,-36(s0)
	sw	a1,-40(s0)
	sw	a2,-44(s0)
	.loc 1 199 12
	sw	zero,-20(s0)
	.loc 1 199 5
	j	.L2
.L7:
	.loc 1 200 40
	lui	a5,%hi(country_list)
	addi	a3,a5,%lo(country_list)
	lw	a4,-20(s0)
	mv	a5,a4
	slli	a5,a5,1
	add	a5,a5,a4
	slli	a5,a5,2
	add	a5,a3,a5
	lw	a5,0(a5)
	.loc 1 200 18
	lw	a1,-36(s0)
	mv	a0,a5
	call	strcmp
	mv	a5,a0
	.loc 1 200 12 discriminator 1
	bne	a5,zero,.L3
	.loc 1 201 16
	lw	a5,-40(s0)
	beq	a5,zero,.L4
	.loc 1 202 47
	lui	a5,%hi(country_list)
	addi	a3,a5,%lo(country_list)
	lw	a4,-20(s0)
	mv	a5,a4
	slli	a5,a5,1
	add	a5,a5,a4
	slli	a5,a5,2
	add	a5,a3,a5
	lw	a4,4(a5)
	.loc 1 202 30
	lw	a5,-40(s0)
	sw	a4,0(a5)
.L4:
	.loc 1 204 16
	lw	a5,-44(s0)
	beq	a5,zero,.L5
	.loc 1 205 44
	lui	a5,%hi(country_list)
	addi	a3,a5,%lo(country_list)
	lw	a4,-20(s0)
	mv	a5,a4
	slli	a5,a5,1
	add	a5,a5,a4
	slli	a5,a5,2
	add	a5,a3,a5
	lw	a4,8(a5)
	.loc 1 205 27
	lw	a5,-44(s0)
	sw	a4,0(a5)
.L5:
	.loc 1 207 20
	li	a5,0
	j	.L6
.L3:
	.loc 1 199 68 discriminator 2
	lw	a5,-20(s0)
	addi	a5,a5,1
	sw	a5,-20(s0)
.L2:
	.loc 1 199 19 discriminator 1
	lw	a4,-20(s0)
	li	a5,3
	bleu	a4,a5,.L7
	.loc 1 211 12
	li	a5,-1
.L6:
	.loc 1 212 1
	mv	a0,a5
	lw	ra,44(sp)
	.cfi_restore 1
	lw	s0,40(sp)
	.cfi_restore 8
	.cfi_def_cfa 2, 48
	addi	sp,sp,48
	.cfi_def_cfa_offset 0
	jr	ra
	.cfi_endproc
.LFE33:
	.size	cfg80211_get_channel_list, .-cfg80211_get_channel_list
	.section	.rodata
	.align	2
.LC4:
	.string	"[WF] %s NOT found, using JP instead, num of channel %d\r\n"
	.align	2
.LC5:
	.string	"[WF] country code %s used, num of channel %d\r\n"
	.section	.text.bl_msg_update_channel_cfg,"ax",@progbits
	.align	1
	.globl	bl_msg_update_channel_cfg
	.type	bl_msg_update_channel_cfg, @function
bl_msg_update_channel_cfg:
.LFB34:
	.loc 1 215 1
	.cfi_startproc
	addi	sp,sp,-32
	.cfi_def_cfa_offset 32
	sw	ra,28(sp)
	sw	s0,24(sp)
	.cfi_offset 1, -4
	.cfi_offset 8, -8
	addi	s0,sp,32
	.cfi_def_cfa 8, 0
	sw	a0,-20(s0)
	.loc 1 216 9
	lui	a5,%hi(channels_default)
	addi	a2,a5,%lo(channels_default)
	lui	a5,%hi(channel_num_default)
	addi	a1,a5,%lo(channel_num_default)
	lw	a0,-20(s0)
	call	cfg80211_get_channel_list
	mv	a5,a0
	.loc 1 216 8 discriminator 1
	beq	a5,zero,.L9
	.loc 1 218 29
	lui	a5,%hi(channel_num_default)
	li	a4,14
	sw	a4,%lo(channel_num_default)(a5)
	.loc 1 219 26
	lui	a5,%hi(channels_default)
	lui	a4,%hi(bl_channels_24_JP)
	addi	a4,a4,%lo(bl_channels_24_JP)
	sw	a4,%lo(channels_default)(a5)
	.loc 1 220 9
	lui	a5,%hi(channel_num_default)
	lw	a5,%lo(channel_num_default)(a5)
	mv	a2,a5
	lw	a1,-20(s0)
	lui	a5,%hi(.LC4)
	addi	a0,a5,%lo(.LC4)
	call	printf
	.loc 1 225 1
	j	.L11
.L9:
	.loc 1 222 9
	lui	a5,%hi(channel_num_default)
	lw	a5,%lo(channel_num_default)(a5)
	mv	a2,a5
	lw	a1,-20(s0)
	lui	a5,%hi(.LC5)
	addi	a0,a5,%lo(.LC5)
	call	printf
.L11:
	.loc 1 225 1
	nop
	lw	ra,28(sp)
	.cfi_restore 1
	lw	s0,24(sp)
	.cfi_restore 8
	.cfi_def_cfa 2, 32
	addi	sp,sp,32
	.cfi_def_cfa_offset 0
	jr	ra
	.cfi_endproc
.LFE34:
	.size	bl_msg_update_channel_cfg, .-bl_msg_update_channel_cfg
	.section	.text.bl_msg_get_channel_nums,"ax",@progbits
	.align	1
	.globl	bl_msg_get_channel_nums
	.type	bl_msg_get_channel_nums, @function
bl_msg_get_channel_nums:
.LFB35:
	.loc 1 228 1
	.cfi_startproc
	addi	sp,sp,-16
	.cfi_def_cfa_offset 16
	sw	ra,12(sp)
	sw	s0,8(sp)
	.cfi_offset 1, -4
	.cfi_offset 8, -8
	addi	s0,sp,16
	.cfi_def_cfa 8, 0
	.loc 1 229 12
	lui	a5,%hi(channel_num_default)
	lw	a5,%lo(channel_num_default)(a5)
	.loc 1 230 1
	mv	a0,a5
	lw	ra,12(sp)
	.cfi_restore 1
	lw	s0,8(sp)
	.cfi_restore 8
	.cfi_def_cfa 2, 16
	addi	sp,sp,16
	.cfi_def_cfa_offset 0
	jr	ra
	.cfi_endproc
.LFE35:
	.size	bl_msg_get_channel_nums, .-bl_msg_get_channel_nums
	.section	.text.phy_channel_to_freq,"ax",@progbits
	.align	1
	.type	phy_channel_to_freq, @function
phy_channel_to_freq:
.LFB36:
	.loc 1 233 1
	.cfi_startproc
	addi	sp,sp,-48
	.cfi_def_cfa_offset 48
	sw	ra,44(sp)
	sw	s0,40(sp)
	.cfi_offset 1, -4
	.cfi_offset 8, -8
	addi	s0,sp,48
	.cfi_def_cfa 8, 0
	mv	a5,a0
	sw	a1,-40(s0)
	sb	a5,-33(s0)
	.loc 1 234 14
	li	a5,-1
	sh	a5,-18(s0)
	.loc 1 239 12
	lbu	a5,-33(s0)
	bne	a5,zero,.L15
	.loc 1 242 16
	lw	a5,-40(s0)
	ble	a5,zero,.L16
	.loc 1 242 31 discriminator 1
	lw	a4,-40(s0)
	li	a5,14
	bgt	a4,a5,.L16
	.loc 1 246 16
	lw	a4,-40(s0)
	li	a5,14
	bne	a4,a5,.L17
	.loc 1 247 22
	li	a5,4096
	addi	a5,a5,-1612
	sh	a5,-18(s0)
	j	.L16
.L17:
	.loc 1 249 29
	lw	a5,-40(s0)
	slli	a5,a5,16
	srli	a5,a5,16
	mv	a4,a5
	mv	a5,a4
	slli	a5,a5,2
	add	a5,a5,a4
	slli	a4,a5,16
	srli	a4,a4,16
	.loc 1 249 22
	li	a5,4096
	addi	a5,a5,-1689
	add	a5,a4,a5
	sh	a5,-18(s0)
	j	.L16
.L15:
	.loc 1 252 17
	lbu	a4,-33(s0)
	li	a5,1
	bne	a4,a5,.L16
	.loc 1 255 16
	lw	a5,-40(s0)
	ble	a5,zero,.L16
	.loc 1 255 31 discriminator 1
	lw	a4,-40(s0)
	li	a5,165
	bgt	a4,a5,.L16
	.loc 1 259 25
	lw	a5,-40(s0)
	slli	a5,a5,16
	srli	a5,a5,16
	mv	a4,a5
	mv	a5,a4
	slli	a5,a5,2
	add	a5,a5,a4
	slli	a4,a5,16
	srli	a4,a4,16
	.loc 1 259 18
	li	a5,4096
	addi	a5,a5,904
	add	a5,a4,a5
	sh	a5,-18(s0)
.L16:
	.loc 1 263 12
	lhu	a5,-18(s0)
	.loc 1 264 1
	mv	a0,a5
	lw	ra,44(sp)
	.cfi_restore 1
	lw	s0,40(sp)
	.cfi_restore 8
	.cfi_def_cfa 2, 48
	addi	sp,sp,48
	.cfi_def_cfa_offset 0
	jr	ra
	.cfi_endproc
.LFE36:
	.size	phy_channel_to_freq, .-phy_channel_to_freq
	.section	.rodata
	.align	2
.LC6:
	.string	"%s: msg allocation failed\n"
	.section	.text.bl_msg_zalloc,"ax",@progbits
	.align	1
	.type	bl_msg_zalloc, @function
bl_msg_zalloc:
.LFB37:
	.loc 1 279 1
	.cfi_startproc
	addi	sp,sp,-48
	.cfi_def_cfa_offset 48
	sw	ra,44(sp)
	sw	s0,40(sp)
	.cfi_offset 1, -4
	.cfi_offset 8, -8
	addi	s0,sp,48
	.cfi_def_cfa 8, 0
	mv	a5,a0
	mv	a4,a3
	sh	a5,-34(s0)
	mv	a5,a1
	sh	a5,-36(s0)
	mv	a5,a2
	sh	a5,-38(s0)
	mv	a5,a4
	sh	a5,-40(s0)
	.loc 1 282 30
	lhu	a5,-40(s0)
	.loc 1 282 67
	addi	a5,a5,8
	.loc 1 282 30
	mv	a0,a5
	call	pvPortMalloc
	sw	a0,-20(s0)
	.loc 1 283 8
	lw	a5,-20(s0)
	bne	a5,zero,.L20
	.loc 1 284 9
	lui	a5,%hi(__func__.1)
	addi	a1,a5,%lo(__func__.1)
	lui	a5,%hi(.LC6)
	addi	a0,a5,%lo(.LC6)
	call	printf
	.loc 1 285 15
	li	a5,0
	j	.L21
.L20:
	.loc 1 287 5
	lhu	a5,-40(s0)
	.loc 1 287 44
	addi	a5,a5,8
	.loc 1 287 5
	mv	a2,a5
	li	a1,0
	lw	a0,-20(s0)
	call	memset
	.loc 1 289 13
	lw	a5,-20(s0)
	lhu	a4,-34(s0)
	sh	a4,0(a5)
	.loc 1 290 18
	lw	a5,-20(s0)
	lhu	a4,-36(s0)
	sh	a4,2(a5)
	.loc 1 291 17
	lw	a5,-20(s0)
	lhu	a4,-38(s0)
	sh	a4,4(a5)
	.loc 1 292 20
	lw	a5,-20(s0)
	lhu	a4,-40(s0)
	sh	a4,6(a5)
	.loc 1 294 12
	lw	a5,-20(s0)
	addi	a5,a5,8
.L21:
	.loc 1 295 1
	mv	a0,a5
	lw	ra,44(sp)
	.cfi_restore 1
	lw	s0,40(sp)
	.cfi_restore 8
	.cfi_def_cfa 2, 48
	addi	sp,sp,48
	.cfi_def_cfa_offset 0
	jr	ra
	.cfi_endproc
.LFE37:
	.size	bl_msg_zalloc, .-bl_msg_zalloc
	.section	.text.is_non_blocking_msg,"ax",@progbits
	.align	1
	.type	is_non_blocking_msg, @function
is_non_blocking_msg:
.LFB38:
	.loc 1 297 48
	.cfi_startproc
	addi	sp,sp,-32
	.cfi_def_cfa_offset 32
	sw	ra,28(sp)
	sw	s0,24(sp)
	.cfi_offset 1, -4
	.cfi_offset 8, -8
	addi	s0,sp,32
	.cfi_def_cfa 8, 0
	sw	a0,-20(s0)
	.loc 1 300 42
	lw	a4,-20(s0)
	li	a5,65
	beq	a4,a5,.L23
	.loc 1 298 39
	lw	a4,-20(s0)
	li	a5,4096
	addi	a5,a5,1040
	beq	a4,a5,.L23
	.loc 1 298 69 discriminator 1
	lw	a4,-20(s0)
	li	a5,80
	beq	a4,a5,.L23
	.loc 1 299 41
	lw	a4,-20(s0)
	li	a5,4096
	addi	a5,a5,1036
	beq	a4,a5,.L23
	.loc 1 299 71 discriminator 1
	lw	a4,-20(s0)
	li	a5,8192
	addi	a5,a5,1032
	beq	a4,a5,.L23
	.loc 1 300 42 discriminator 2
	lw	a4,-20(s0)
	li	a5,8192
	addi	a5,a5,1036
	bne	a4,a5,.L24
.L23:
	.loc 1 300 42 is_stmt 0 discriminator 1
	li	a5,1
	.loc 1 300 42
	j	.L25
.L24:
	.loc 1 300 42 discriminator 3
	li	a5,0
.L25:
	.loc 1 300 42 discriminator 5
	andi	a5,a5,1
	andi	a5,a5,0xff
	.loc 1 301 1 is_stmt 1
	mv	a0,a5
	lw	ra,28(sp)
	.cfi_restore 1
	lw	s0,24(sp)
	.cfi_restore 8
	.cfi_def_cfa 2, 32
	addi	sp,sp,32
	.cfi_def_cfa_offset 0
	jr	ra
	.cfi_endproc
.LFE38:
	.size	is_non_blocking_msg, .-is_non_blocking_msg
	.section	.text.test_bit,"ax",@progbits
	.align	1
	.type	test_bit, @function
test_bit:
.LFB39:
	.loc 1 311 1
	.cfi_startproc
	addi	sp,sp,-32
	.cfi_def_cfa_offset 32
	sw	ra,28(sp)
	sw	s0,24(sp)
	.cfi_offset 1, -4
	.cfi_offset 8, -8
	addi	s0,sp,32
	.cfi_def_cfa 8, 0
	sw	a0,-20(s0)
	sw	a1,-24(s0)
	.loc 1 312 30
	lw	a5,-20(s0)
	srai	a4,a5,31
	andi	a4,a4,31
	add	a5,a4,a5
	srai	a5,a5,5
	.loc 1 312 23
	slli	a5,a5,2
	lw	a4,-24(s0)
	add	a5,a4,a5
	lw	a4,0(a5)
	.loc 1 312 44
	lw	a5,-20(s0)
	andi	a5,a5,31
	.loc 1 312 37
	srl	a5,a4,a5
	.loc 1 312 16
	andi	a5,a5,1
	.loc 1 313 1
	mv	a0,a5
	lw	ra,28(sp)
	.cfi_restore 1
	lw	s0,24(sp)
	.cfi_restore 8
	.cfi_def_cfa 2, 32
	addi	sp,sp,32
	.cfi_def_cfa_offset 0
	jr	ra
	.cfi_endproc
.LFE39:
	.size	test_bit, .-test_bit
	.section	.rodata
	.align	2
.LC7:
	.string	"%s: bypassing (RWNX_DEV_RESTARTING set) 0x%02x\n"
	.align	2
.LC8:
	.string	"%s: bypassing (restart must have failed)\r\n"
	.align	2
.LC9:
	.string	"%s: failed to allocate mem for cmd, size is %d\r\n"
	.section	.text.bl_send_msg,"ax",@progbits
	.align	1
	.type	bl_send_msg, @function
bl_send_msg:
.LFB40:
	.loc 1 317 1
	.cfi_startproc
	addi	sp,sp,-64
	.cfi_def_cfa_offset 64
	sw	ra,60(sp)
	sw	s0,56(sp)
	.cfi_offset 1, -4
	.cfi_offset 8, -8
	addi	s0,sp,64
	.cfi_def_cfa 8, 0
	sw	a0,-36(s0)
	sw	a1,-40(s0)
	sw	a2,-44(s0)
	mv	a5,a3
	sw	a4,-52(s0)
	sh	a5,-46(s0)
	.loc 1 325 9
	lw	a5,-40(s0)
	addi	a5,a5,-8
	sw	a5,-24(s0)
	.loc 1 327 37
	lw	a4,-36(s0)
	li	a5,4096
	addi	a5,a5,-544
	add	a5,a4,a5
	.loc 1 327 10
	mv	a1,a5
	li	a0,2
	call	test_bit
	mv	a5,a0
	.loc 1 327 8 discriminator 1
	bne	a5,zero,.L30
	.loc 1 327 56 discriminator 2
	lhu	a4,-46(s0)
	li	a5,1
	beq	a4,a5,.L30
	.loc 1 328 31
	lhu	a4,-46(s0)
	li	a5,5
	beq	a4,a5,.L30
	.loc 1 328 58 discriminator 1
	lhu	a4,-46(s0)
	li	a5,3
	beq	a4,a5,.L30
	.loc 1 329 31
	lhu	a4,-46(s0)
	li	a5,35
	beq	a4,a5,.L30
	.loc 1 329 59 discriminator 1
	lhu	a4,-46(s0)
	li	a5,4096
	addi	a5,a5,1025
	beq	a4,a5,.L30
	.loc 1 330 32
	lhu	a4,-46(s0)
	li	a5,50
	beq	a4,a5,.L30
	.loc 1 330 63 discriminator 1
	lhu	a4,-46(s0)
	li	a5,4096
	addi	a5,a5,1027
	beq	a4,a5,.L30
	.loc 1 332 9
	lhu	a5,-46(s0)
	mv	a2,a5
	lui	a5,%hi(__func__.2)
	addi	a1,a5,%lo(__func__.2)
	lui	a5,%hi(.LC7)
	addi	a0,a5,%lo(.LC7)
	call	printf
	.loc 1 333 9
	lw	a0,-24(s0)
	call	vPortFree
	.loc 1 335 16
	li	a5,-16
	j	.L31
.L30:
	.loc 1 336 22
	lw	a5,-36(s0)
	lw	a5,52(a5)
	.loc 1 336 15
	bne	a5,zero,.L32
	.loc 1 337 9
	lui	a5,%hi(__func__.2)
	addi	a1,a5,%lo(__func__.2)
	lui	a5,%hi(.LC8)
	addi	a0,a5,%lo(.LC8)
	call	printf
	.loc 1 338 9
	lw	a0,-24(s0)
	call	vPortFree
	.loc 1 340 16
	li	a5,-16
	j	.L31
.L32:
	.loc 1 343 39
	lw	a5,-24(s0)
	lhu	a5,0(a5)
	.loc 1 343 16
	mv	a0,a5
	call	is_non_blocking_msg
	mv	a5,a0
	sb	a5,-25(s0)
	.loc 1 345 11
	li	a0,64
	call	pvPortMalloc
	sw	a0,-32(s0)
	.loc 1 346 8
	lw	a5,-32(s0)
	bne	a5,zero,.L33
	.loc 1 347 9
	lw	a0,-24(s0)
	call	vPortFree
	.loc 1 348 9
	li	a2,64
	lui	a5,%hi(__func__.2)
	addi	a1,a5,%lo(__func__.2)
	lui	a5,%hi(.LC9)
	addi	a0,a5,%lo(.LC9)
	call	printf
	.loc 1 349 16
	li	a5,-12
	j	.L31
.L33:
	.loc 1 351 5
	li	a2,64
	li	a1,0
	lw	a0,-32(s0)
	call	memset
	.loc 1 352 17
	lw	a5,-32(s0)
	li	a4,4
	sw	a4,60(a5)
	.loc 1 353 18
	lw	a5,-24(s0)
	lhu	a4,0(a5)
	.loc 1 353 13
	lw	a5,-32(s0)
	sh	a4,8(a5)
	.loc 1 354 16
	lw	a5,-32(s0)
	lhu	a4,-46(s0)
	sh	a4,10(a5)
	.loc 1 355 18
	lw	a5,-32(s0)
	lw	a4,-24(s0)
	sw	a4,12(a5)
	.loc 1 356 18
	lw	a5,-32(s0)
	lw	a4,-52(s0)
	sw	a4,16(a5)
	.loc 1 357 8
	lbu	a5,-25(s0)
	beq	a5,zero,.L34
	.loc 1 358 20
	lw	a5,-32(s0)
	li	a4,1
	sh	a4,24(a5)
.L34:
	.loc 1 359 8
	lw	a5,-44(s0)
	beq	a5,zero,.L35
	.loc 1 360 12
	lw	a5,-32(s0)
	lhu	a5,24(a5)
	.loc 1 360 20
	ori	a5,a5,2
	slli	a4,a5,16
	srli	a4,a4,16
	lw	a5,-32(s0)
	sh	a4,24(a5)
.L35:
	.loc 1 361 25
	lw	a5,-36(s0)
	lw	a5,32(a5)
	.loc 1 361 11
	lw	a4,-36(s0)
	addi	a4,a4,4
	lw	a1,-32(s0)
	mv	a0,a4
	jalr	a5
.LVL0:
	sw	a0,-20(s0)
	.loc 1 363 9
	lbu	a5,-25(s0)
	xori	a5,a5,1
	andi	a5,a5,0xff
	.loc 1 363 8
	beq	a5,zero,.L36
	.loc 1 364 9
	lw	a0,-32(s0)
	call	vPortFree
	j	.L37
.L36:
	.loc 1 366 18
	lw	a5,-32(s0)
	lw	a5,60(a5)
	.loc 1 366 13
	sw	a5,-20(s0)
.L37:
	.loc 1 370 12
	lw	a5,-20(s0)
.L31:
	.loc 1 371 1
	mv	a0,a5
	lw	ra,60(sp)
	.cfi_restore 1
	lw	s0,56(sp)
	.cfi_restore 8
	.cfi_def_cfa 2, 64
	addi	sp,sp,64
	.cfi_def_cfa_offset 0
	jr	ra
	.cfi_endproc
.LFE40:
	.size	bl_send_msg, .-bl_send_msg
	.section	.text.bl_send_reset,"ax",@progbits
	.align	1
	.globl	bl_send_reset
	.type	bl_send_reset, @function
bl_send_reset:
.LFB41:
	.loc 1 374 1
	.cfi_startproc
	addi	sp,sp,-48
	.cfi_def_cfa_offset 48
	sw	ra,44(sp)
	sw	s0,40(sp)
	.cfi_offset 1, -4
	.cfi_offset 8, -8
	addi	s0,sp,48
	.cfi_def_cfa 8, 0
	sw	a0,-36(s0)
	.loc 1 380 18
	li	a3,0
	li	a2,100
	li	a1,0
	li	a0,0
	call	bl_msg_zalloc
	sw	a0,-20(s0)
	.loc 1 381 8
	lw	a5,-20(s0)
	bne	a5,zero,.L39
	.loc 1 382 16
	li	a5,-12
	j	.L40
.L39:
	.loc 1 384 12
	li	a4,0
	li	a3,1
	li	a2,1
	lw	a1,-20(s0)
	lw	a0,-36(s0)
	call	bl_send_msg
	mv	a5,a0
.L40:
	.loc 1 385 1
	mv	a0,a5
	lw	ra,44(sp)
	.cfi_restore 1
	lw	s0,40(sp)
	.cfi_restore 8
	.cfi_def_cfa 2, 48
	addi	sp,sp,48
	.cfi_def_cfa_offset 0
	jr	ra
	.cfi_endproc
.LFE41:
	.size	bl_send_reset, .-bl_send_reset
	.section	.text.bl_send_monitor_enable,"ax",@progbits
	.align	1
	.globl	bl_send_monitor_enable
	.type	bl_send_monitor_enable, @function
bl_send_monitor_enable:
.LFB42:
	.loc 1 388 1
	.cfi_startproc
	addi	sp,sp,-48
	.cfi_def_cfa_offset 48
	sw	ra,44(sp)
	sw	s0,40(sp)
	.cfi_offset 1, -4
	.cfi_offset 8, -8
	addi	s0,sp,48
	.cfi_def_cfa 8, 0
	sw	a0,-36(s0)
	sw	a1,-40(s0)
	.loc 1 393 11
	li	a3,4
	li	a2,100
	li	a1,0
	li	a0,92
	call	bl_msg_zalloc
	sw	a0,-20(s0)
	.loc 1 394 8
	lw	a5,-20(s0)
	bne	a5,zero,.L42
	.loc 1 395 16
	li	a5,-12
	j	.L43
.L42:
	.loc 1 397 17
	lw	a5,-20(s0)
	li	a4,1
	sw	a4,0(a5)
	.loc 1 399 12
	lw	a4,-40(s0)
	li	a3,93
	li	a2,1
	lw	a1,-20(s0)
	lw	a0,-36(s0)
	call	bl_send_msg
	mv	a5,a0
.L43:
	.loc 1 400 1
	mv	a0,a5
	lw	ra,44(sp)
	.cfi_restore 1
	lw	s0,40(sp)
	.cfi_restore 8
	.cfi_def_cfa 2, 48
	addi	sp,sp,48
	.cfi_def_cfa_offset 0
	jr	ra
	.cfi_endproc
.LFE42:
	.size	bl_send_monitor_enable, .-bl_send_monitor_enable
	.section	.text.bl_send_monitor_channel_set,"ax",@progbits
	.align	1
	.globl	bl_send_monitor_channel_set
	.type	bl_send_monitor_channel_set, @function
bl_send_monitor_channel_set:
.LFB43:
	.loc 1 404 1
	.cfi_startproc
	addi	sp,sp,-48
	.cfi_def_cfa_offset 48
	sw	ra,44(sp)
	sw	s0,40(sp)
	.cfi_offset 1, -4
	.cfi_offset 8, -8
	addi	s0,sp,48
	.cfi_def_cfa 8, 0
	sw	a0,-36(s0)
	sw	a1,-40(s0)
	sw	a2,-44(s0)
	sw	a3,-48(s0)
	.loc 1 409 11
	li	a3,12
	li	a2,100
	li	a1,0
	li	a0,94
	call	bl_msg_zalloc
	sw	a0,-20(s0)
	.loc 1 410 8
	lw	a5,-20(s0)
	bne	a5,zero,.L45
	.loc 1 411 16
	li	a5,-12
	j	.L46
.L45:
	.loc 1 414 17
	lw	a1,-44(s0)
	li	a0,0
	call	phy_channel_to_freq
	mv	a5,a0
	.loc 1 414 17 is_stmt 0 discriminator 1
	mv	a4,a5
	.loc 1 414 15 is_stmt 1 discriminator 1
	lw	a5,-20(s0)
	sw	a4,0(a5)
	.loc 1 415 8
	lw	a5,-48(s0)
	beq	a5,zero,.L47
	.loc 1 416 24
	lw	a5,-20(s0)
	li	a4,1
	sw	a4,4(a5)
	.loc 1 417 12
	lw	a4,-48(s0)
	li	a5,1
	bne	a4,a5,.L48
	.loc 1 418 30
	lw	a5,-20(s0)
	sw	zero,8(a5)
	j	.L49
.L48:
	.loc 1 420 30
	lw	a5,-20(s0)
	li	a4,1
	sw	a4,8(a5)
	j	.L49
.L47:
	.loc 1 423 24
	lw	a5,-20(s0)
	sw	zero,4(a5)
	.loc 1 424 26
	lw	a5,-20(s0)
	sw	zero,8(a5)
.L49:
	.loc 1 427 12
	lw	a4,-40(s0)
	li	a3,95
	li	a2,1
	lw	a1,-20(s0)
	lw	a0,-36(s0)
	call	bl_send_msg
	mv	a5,a0
.L46:
	.loc 1 428 1
	mv	a0,a5
	lw	ra,44(sp)
	.cfi_restore 1
	lw	s0,40(sp)
	.cfi_restore 8
	.cfi_def_cfa 2, 48
	addi	sp,sp,48
	.cfi_def_cfa_offset 0
	jr	ra
	.cfi_endproc
.LFE43:
	.size	bl_send_monitor_channel_set, .-bl_send_monitor_channel_set
	.section	.text.bl_send_version_req,"ax",@progbits
	.align	1
	.globl	bl_send_version_req
	.type	bl_send_version_req, @function
bl_send_version_req:
.LFB44:
	.loc 1 431 1
	.cfi_startproc
	addi	sp,sp,-48
	.cfi_def_cfa_offset 48
	sw	ra,44(sp)
	sw	s0,40(sp)
	.cfi_offset 1, -4
	.cfi_offset 8, -8
	addi	s0,sp,48
	.cfi_def_cfa 8, 0
	sw	a0,-36(s0)
	sw	a1,-40(s0)
	.loc 1 438 18
	li	a3,0
	li	a2,100
	li	a1,0
	li	a0,4
	call	bl_msg_zalloc
	sw	a0,-20(s0)
	.loc 1 439 8
	lw	a5,-20(s0)
	bne	a5,zero,.L51
	.loc 1 441 16
	li	a5,-12
	j	.L52
.L51:
	.loc 1 443 11
	lw	a4,-40(s0)
	li	a3,5
	li	a2,1
	lw	a1,-20(s0)
	lw	a0,-36(s0)
	call	bl_send_msg
	sw	a0,-24(s0)
	.loc 1 445 12
	lw	a5,-24(s0)
.L52:
	.loc 1 446 1
	mv	a0,a5
	lw	ra,44(sp)
	.cfi_restore 1
	lw	s0,40(sp)
	.cfi_restore 8
	.cfi_def_cfa 2, 48
	addi	sp,sp,48
	.cfi_def_cfa_offset 0
	jr	ra
	.cfi_endproc
.LFE44:
	.size	bl_send_version_req, .-bl_send_version_req
	.section	.rodata
	.align	2
.LC10:
	.string	"[ME] HT supp %d, VHT supp %d\r\n"
	.section	.text.bl_send_me_config_req,"ax",@progbits
	.align	1
	.globl	bl_send_me_config_req
	.type	bl_send_me_config_req, @function
bl_send_me_config_req:
.LFB45:
	.loc 1 449 1
	.cfi_startproc
	addi	sp,sp,-48
	.cfi_def_cfa_offset 48
	sw	ra,44(sp)
	sw	s0,40(sp)
	.cfi_offset 1, -4
	.cfi_offset 8, -8
	addi	s0,sp,48
	.cfi_def_cfa 8, 0
	sw	a0,-36(s0)
	.loc 1 451 14
	lw	a4,-36(s0)
	li	a5,4096
	addi	a5,a5,-502
	add	a5,a4,a5
	sw	a5,-24(s0)
	.loc 1 457 11
	li	a3,52
	li	a2,100
	li	a1,5
	li	a5,4096
	addi	a0,a5,1024
	call	bl_msg_zalloc
	sw	a0,-28(s0)
	.loc 1 459 8
	lw	a5,-28(s0)
	bne	a5,zero,.L54
	.loc 1 461 16
	li	a5,-12
	j	.L55
.L54:
	.loc 1 465 5
	li	a2,0
	li	a1,1
	lui	a5,%hi(.LC10)
	addi	a0,a5,%lo(.LC10)
	call	printf
	.loc 1 467 18
	lw	a5,-28(s0)
	li	a4,1
	sb	a4,46(a5)
	.loc 1 468 19
	lw	a5,-28(s0)
	sb	zero,47(a5)
	.loc 1 469 46
	lw	a4,-36(s0)
	li	a5,4096
	add	a5,a4,a5
	lhu	a4,-508(a5)
	.loc 1 469 30
	lw	a5,-28(s0)
	sh	a4,0(a5)
	.loc 1 470 45
	lw	a4,-36(s0)
	li	a5,4096
	add	a5,a4,a5
	lbu	a5,-505(a5)
	slli	a4,a5,24
	srai	a4,a4,24
	.loc 1 471 52
	lw	a3,-36(s0)
	li	a5,4096
	add	a5,a3,a5
	lbu	a5,-504(a5)
	.loc 1 470 59
	slli	a5,a5,24
	srai	a5,a5,24
	slli	a5,a5,2
	slli	a5,a5,24
	srai	a5,a5,24
	or	a5,a4,a5
	slli	a5,a5,24
	srai	a5,a5,24
	andi	a4,a5,0xff
	.loc 1 470 30
	lw	a5,-28(s0)
	sb	a4,2(a5)
	.loc 1 473 12
	sw	zero,-20(s0)
	.loc 1 473 5
	j	.L56
.L57:
	.loc 1 474 41
	lw	a5,-20(s0)
	lw	a4,-24(s0)
	add	a5,a4,a5
	lbu	a4,0(a5)
	.loc 1 474 33
	lw	a3,-28(s0)
	lw	a5,-20(s0)
	add	a5,a3,a5
	sb	a4,3(a5)
	.loc 1 473 49 discriminator 3
	lw	a5,-20(s0)
	addi	a5,a5,1
	sw	a5,-20(s0)
.L56:
	.loc 1 473 19 discriminator 1
	lw	a4,-20(s0)
	li	a5,15
	bleu	a4,a5,.L57
	.loc 1 476 34
	lw	a5,-28(s0)
	sh	zero,20(a5)
	.loc 1 477 37
	lw	a5,-28(s0)
	sw	zero,24(a5)
	.loc 1 478 27
	lw	a5,-28(s0)
	sb	zero,28(a5)
	.loc 1 489 23
	lw	a4,-36(s0)
	li	a5,4096
	add	a5,a4,a5
	lw	a5,-516(a5)
	.loc 1 489 35
	lbu	a4,56(a5)
	.loc 1 489 16
	lw	a5,-28(s0)
	sb	a4,48(a5)
	.loc 1 490 24
	lw	a4,-36(s0)
	li	a5,4096
	add	a5,a4,a5
	lw	a5,-516(a5)
	.loc 1 490 36
	lw	a5,60(a5)
	.loc 1 490 17
	slli	a4,a5,16
	srli	a4,a4,16
	lw	a5,-28(s0)
	sh	a4,44(a5)
	.loc 1 493 11
	li	a4,0
	li	a5,4096
	addi	a3,a5,1025
	li	a2,1
	lw	a1,-28(s0)
	lw	a0,-36(s0)
	call	bl_send_msg
	sw	a0,-32(s0)
	.loc 1 495 12
	lw	a5,-32(s0)
.L55:
	.loc 1 496 1
	mv	a0,a5
	lw	ra,44(sp)
	.cfi_restore 1
	lw	s0,40(sp)
	.cfi_restore 8
	.cfi_def_cfa 2, 48
	addi	sp,sp,48
	.cfi_def_cfa_offset 0
	jr	ra
	.cfi_endproc
.LFE45:
	.size	bl_send_me_config_req, .-bl_send_me_config_req
	.section	.text.passive_scan_flag,"ax",@progbits
	.align	1
	.type	passive_scan_flag, @function
passive_scan_flag:
.LFB46:
	.loc 1 498 50
	.cfi_startproc
	addi	sp,sp,-32
	.cfi_def_cfa_offset 32
	sw	ra,28(sp)
	sw	s0,24(sp)
	.cfi_offset 1, -4
	.cfi_offset 8, -8
	addi	s0,sp,32
	.cfi_def_cfa 8, 0
	sw	a0,-20(s0)
	.loc 1 499 15
	lw	a5,-20(s0)
	andi	a5,a5,10
	.loc 1 499 8
	beq	a5,zero,.L59
	.loc 1 500 16
	li	a5,1
	j	.L60
.L59:
	.loc 1 501 12
	li	a5,0
.L60:
	.loc 1 502 1
	mv	a0,a5
	lw	ra,28(sp)
	.cfi_restore 1
	lw	s0,24(sp)
	.cfi_restore 8
	.cfi_def_cfa 2, 32
	addi	sp,sp,32
	.cfi_def_cfa_offset 0
	jr	ra
	.cfi_endproc
.LFE46:
	.size	passive_scan_flag, .-passive_scan_flag
	.section	.text.bl_send_me_chan_config_req,"ax",@progbits
	.align	1
	.globl	bl_send_me_chan_config_req
	.type	bl_send_me_chan_config_req, @function
bl_send_me_chan_config_req:
.LFB47:
	.loc 1 505 1
	.cfi_startproc
	addi	sp,sp,-48
	.cfi_def_cfa_offset 48
	sw	ra,44(sp)
	sw	s0,40(sp)
	.cfi_offset 1, -4
	.cfi_offset 8, -8
	addi	s0,sp,48
	.cfi_def_cfa 8, 0
	sw	a0,-36(s0)
	.loc 1 512 11
	li	a3,254
	li	a2,100
	li	a1,5
	li	a5,4096
	addi	a0,a5,1026
	call	bl_msg_zalloc
	sw	a0,-24(s0)
	.loc 1 514 8
	lw	a5,-24(s0)
	bne	a5,zero,.L62
	.loc 1 515 16
	li	a5,-12
	j	.L63
.L62:
	.loc 1 517 22
	lw	a5,-24(s0)
	sb	zero,252(a5)
	.loc 1 518 12
	sw	zero,-20(s0)
	.loc 1 518 5
	j	.L64
.L68:
	.loc 1 519 25
	lw	a5,-24(s0)
	lbu	a5,252(a5)
	mv	a3,a5
	.loc 1 519 46
	lw	a4,-24(s0)
	mv	a5,a3
	slli	a5,a5,1
	add	a5,a5,a3
	slli	a5,a5,1
	add	a5,a4,a5
	sb	zero,3(a5)
	.loc 1 520 29
	lui	a5,%hi(channels_default)
	lw	a4,%lo(channels_default)(a5)
	lw	a3,-20(s0)
	li	a5,52
	mul	a5,a3,a5
	add	a5,a4,a5
	.loc 1 520 32
	lw	a5,8(a5)
	.loc 1 520 39
	andi	a5,a5,1
	.loc 1 520 12
	beq	a5,zero,.L65
	.loc 1 521 29
	lw	a5,-24(s0)
	lbu	a5,252(a5)
	.loc 1 521 43
	mv	a3,a5
	lw	a4,-24(s0)
	mv	a5,a3
	slli	a5,a5,1
	add	a5,a5,a3
	slli	a5,a5,1
	add	a5,a4,a5
	lbu	a5,3(a5)
	.loc 1 521 29
	lw	a4,-24(s0)
	lbu	a4,252(a4)
	.loc 1 521 43
	mv	a2,a4
	.loc 1 521 50
	ori	a5,a5,2
	andi	a4,a5,0xff
	lw	a3,-24(s0)
	mv	a5,a2
	slli	a5,a5,1
	add	a5,a5,a2
	slli	a5,a5,1
	add	a5,a3,a5
	sb	a4,3(a5)
.L65:
	.loc 1 522 83
	lui	a5,%hi(channels_default)
	lw	a4,%lo(channels_default)(a5)
	lw	a3,-20(s0)
	li	a5,52
	mul	a5,a3,a5
	add	a5,a4,a5
	.loc 1 522 86
	lw	a5,8(a5)
	.loc 1 522 49
	mv	a0,a5
	call	passive_scan_flag
	mv	a5,a0
	mv	a1,a5
	.loc 1 522 25 discriminator 1
	lw	a5,-24(s0)
	lbu	a5,252(a5)
	.loc 1 522 39 discriminator 1
	mv	a3,a5
	lw	a4,-24(s0)
	mv	a5,a3
	slli	a5,a5,1
	add	a5,a5,a3
	slli	a5,a5,1
	add	a5,a4,a5
	lbu	a5,3(a5)
	.loc 1 522 25 discriminator 1
	lw	a4,-24(s0)
	lbu	a4,252(a4)
	.loc 1 522 39 discriminator 1
	mv	a2,a4
	.loc 1 522 46 discriminator 1
	or	a5,a1,a5
	andi	a4,a5,0xff
	lw	a3,-24(s0)
	mv	a5,a2
	slli	a5,a5,1
	add	a5,a5,a2
	slli	a5,a5,1
	add	a5,a3,a5
	sb	a4,3(a5)
	.loc 1 523 25
	lw	a5,-24(s0)
	lbu	a5,252(a5)
	mv	a3,a5
	.loc 1 523 45
	lw	a4,-24(s0)
	mv	a5,a3
	slli	a5,a5,1
	add	a5,a5,a3
	slli	a5,a5,1
	add	a5,a4,a5
	sb	zero,2(a5)
	.loc 1 524 63
	lui	a5,%hi(channels_default)
	lw	a4,%lo(channels_default)(a5)
	lw	a3,-20(s0)
	li	a5,52
	mul	a5,a3,a5
	add	a5,a4,a5
	.loc 1 524 25
	lw	a4,-24(s0)
	lbu	a4,252(a4)
	mv	a2,a4
	.loc 1 524 66
	lhu	a4,2(a5)
	.loc 1 524 45
	lw	a3,-24(s0)
	mv	a5,a2
	slli	a5,a5,1
	add	a5,a5,a2
	slli	a5,a5,1
	add	a5,a3,a5
	sh	a4,0(a5)
	.loc 1 525 67
	lui	a5,%hi(channels_default)
	lw	a4,%lo(channels_default)(a5)
	lw	a3,-20(s0)
	li	a5,52
	mul	a5,a3,a5
	add	a5,a4,a5
	.loc 1 525 70
	lw	a4,16(a5)
	.loc 1 525 25
	lw	a5,-24(s0)
	lbu	a5,252(a5)
	mv	a2,a5
	.loc 1 525 49
	slli	a4,a4,24
	srai	a4,a4,24
	lw	a3,-24(s0)
	mv	a5,a2
	slli	a5,a5,1
	add	a5,a5,a2
	slli	a5,a5,1
	add	a5,a3,a5
	sb	a4,4(a5)
	.loc 1 526 12
	lw	a5,-24(s0)
	lbu	a5,252(a5)
	.loc 1 526 25
	addi	a5,a5,1
	andi	a4,a5,0xff
	lw	a5,-24(s0)
	sb	a4,252(a5)
	.loc 1 527 16
	lw	a5,-24(s0)
	lbu	a4,252(a5)
	.loc 1 527 12
	li	a5,14
	beq	a4,a5,.L69
	.loc 1 518 43 discriminator 2
	lw	a5,-20(s0)
	addi	a5,a5,1
	sw	a5,-20(s0)
.L64:
	.loc 1 518 19 discriminator 1
	lui	a5,%hi(channel_num_default)
	lw	a5,%lo(channel_num_default)(a5)
	lw	a4,-20(s0)
	blt	a4,a5,.L68
	j	.L67
.L69:
	.loc 1 528 13
	nop
.L67:
	.loc 1 531 21
	lw	a5,-24(s0)
	sb	zero,253(a5)
	.loc 1 533 12
	li	a4,0
	li	a5,4096
	addi	a3,a5,1027
	li	a2,1
	lw	a1,-24(s0)
	lw	a0,-36(s0)
	call	bl_send_msg
	mv	a5,a0
.L63:
	.loc 1 534 1
	mv	a0,a5
	lw	ra,44(sp)
	.cfi_restore 1
	lw	s0,40(sp)
	.cfi_restore 8
	.cfi_def_cfa 2, 48
	addi	sp,sp,48
	.cfi_def_cfa_offset 0
	jr	ra
	.cfi_endproc
.LFE47:
	.size	bl_send_me_chan_config_req, .-bl_send_me_chan_config_req
	.section	.text.bl_send_me_rate_config_req,"ax",@progbits
	.align	1
	.globl	bl_send_me_rate_config_req
	.type	bl_send_me_rate_config_req, @function
bl_send_me_rate_config_req:
.LFB48:
	.loc 1 537 1
	.cfi_startproc
	addi	sp,sp,-48
	.cfi_def_cfa_offset 48
	sw	ra,44(sp)
	sw	s0,40(sp)
	.cfi_offset 1, -4
	.cfi_offset 8, -8
	addi	s0,sp,48
	.cfi_def_cfa 8, 0
	sw	a0,-36(s0)
	mv	a5,a1
	mv	a4,a2
	sb	a5,-37(s0)
	mv	a5,a4
	sh	a5,-40(s0)
	.loc 1 543 11
	li	a3,4
	li	a2,100
	li	a1,5
	li	a5,4096
	addi	a0,a5,1040
	call	bl_msg_zalloc
	sw	a0,-20(s0)
	.loc 1 544 8
	lw	a5,-20(s0)
	bne	a5,zero,.L71
	.loc 1 545 16
	li	a5,-12
	j	.L72
.L71:
	.loc 1 547 18
	lw	a5,-20(s0)
	lbu	a4,-37(s0)
	sb	a4,0(a5)
	.loc 1 548 25
	lw	a5,-20(s0)
	lhu	a4,-40(s0)
	sh	a4,2(a5)
	.loc 1 550 12
	li	a4,0
	li	a3,0
	li	a2,0
	lw	a1,-20(s0)
	lw	a0,-36(s0)
	call	bl_send_msg
	mv	a5,a0
.L72:
	.loc 1 551 1
	mv	a0,a5
	lw	ra,44(sp)
	.cfi_restore 1
	lw	s0,40(sp)
	.cfi_restore 8
	.cfi_def_cfa 2, 48
	addi	sp,sp,48
	.cfi_def_cfa_offset 0
	jr	ra
	.cfi_endproc
.LFE48:
	.size	bl_send_me_rate_config_req, .-bl_send_me_rate_config_req
	.section	.text.bl_send_start,"ax",@progbits
	.align	1
	.globl	bl_send_start
	.type	bl_send_start, @function
bl_send_start:
.LFB49:
	.loc 1 554 1
	.cfi_startproc
	addi	sp,sp,-48
	.cfi_def_cfa_offset 48
	sw	ra,44(sp)
	sw	s0,40(sp)
	.cfi_offset 1, -4
	.cfi_offset 8, -8
	addi	s0,sp,48
	.cfi_def_cfa 8, 0
	sw	a0,-36(s0)
	.loc 1 560 23
	li	a3,72
	li	a2,100
	li	a1,0
	li	a0,2
	call	bl_msg_zalloc
	sw	a0,-20(s0)
	.loc 1 562 8
	lw	a5,-20(s0)
	bne	a5,zero,.L74
	.loc 1 563 16
	li	a5,-12
	j	.L75
.L74:
	.loc 1 567 37
	lw	a4,-36(s0)
	li	a5,4096
	add	a5,a4,a5
	li	a4,1
	sw	a4,-468(a5)
	.loc 1 569 12
	lw	a3,-20(s0)
	.loc 1 569 39
	lw	a4,-36(s0)
	li	a5,4096
	addi	a5,a5,-468
	add	a5,a4,a5
	.loc 1 569 5
	li	a2,64
	mv	a1,a5
	mv	a0,a3
	call	memcpy
	.loc 1 570 50
	lw	a4,-36(s0)
	li	a5,4096
	add	a5,a4,a5
	lw	a5,-516(a5)
	.loc 1 570 62
	lw	a5,16(a5)
	.loc 1 570 38
	mv	a4,a5
	.loc 1 570 36
	lw	a5,-20(s0)
	sw	a4,64(a5)
	.loc 1 571 52
	lw	a4,-36(s0)
	li	a5,4096
	add	a5,a4,a5
	lw	a5,-516(a5)
	.loc 1 571 64
	lw	a5,52(a5)
	.loc 1 571 40
	slli	a4,a5,16
	srli	a4,a4,16
	.loc 1 571 38
	lw	a5,-20(s0)
	sh	a4,68(a5)
	.loc 1 574 12
	li	a4,0
	li	a3,3
	li	a2,1
	lw	a1,-20(s0)
	lw	a0,-36(s0)
	call	bl_send_msg
	mv	a5,a0
.L75:
	.loc 1 575 1
	mv	a0,a5
	lw	ra,44(sp)
	.cfi_restore 1
	lw	s0,40(sp)
	.cfi_restore 8
	.cfi_def_cfa 2, 48
	addi	sp,sp,48
	.cfi_def_cfa_offset 0
	jr	ra
	.cfi_endproc
.LFE49:
	.size	bl_send_start, .-bl_send_start
	.section	.text.bl_send_add_if,"ax",@progbits
	.align	1
	.globl	bl_send_add_if
	.type	bl_send_add_if, @function
bl_send_add_if:
.LFB50:
	.loc 1 579 1
	.cfi_startproc
	addi	sp,sp,-48
	.cfi_def_cfa_offset 48
	sw	ra,44(sp)
	sw	s0,40(sp)
	.cfi_offset 1, -4
	.cfi_offset 8, -8
	addi	s0,sp,48
	.cfi_def_cfa 8, 0
	sw	a0,-36(s0)
	sw	a1,-40(s0)
	mv	a5,a2
	sw	a4,-48(s0)
	sb	a5,-41(s0)
	mv	a5,a3
	sb	a5,-42(s0)
	.loc 1 585 24
	li	a3,8
	li	a2,100
	li	a1,0
	li	a0,6
	call	bl_msg_zalloc
	sw	a0,-20(s0)
	.loc 1 587 8
	lw	a5,-20(s0)
	bne	a5,zero,.L77
	.loc 1 588 16
	li	a5,-12
	j	.L78
.L77:
	.loc 1 591 12
	lw	a5,-20(s0)
	addi	a5,a5,1
	.loc 1 591 5
	li	a2,6
	lw	a1,-40(s0)
	mv	a0,a5
	call	memcpy
	.loc 1 592 5
	lbu	a5,-41(s0)
	li	a4,9
	beq	a5,a4,.L79
	li	a4,9
	bgt	a5,a4,.L80
	li	a4,8
	beq	a5,a4,.L81
	li	a4,8
	bgt	a5,a4,.L80
	li	a4,7
	beq	a5,a4,.L82
	li	a4,7
	bgt	a5,a4,.L80
	li	a4,4
	beq	a5,a4,.L83
	li	a4,4
	bgt	a5,a4,.L80
	li	a4,3
	beq	a5,a4,.L84
	li	a4,3
	bgt	a5,a4,.L80
	li	a4,1
	beq	a5,a4,.L85
	li	a4,2
	beq	a5,a4,.L86
	j	.L80
.L81:
	.loc 1 594 31
	lw	a5,-20(s0)
	li	a4,1
	sb	a4,7(a5)
.L86:
	.loc 1 598 32
	lw	a5,-20(s0)
	sb	zero,0(a5)
	.loc 1 599 9
	j	.L87
.L85:
	.loc 1 602 32
	lw	a5,-20(s0)
	li	a4,1
	sb	a4,0(a5)
	.loc 1 603 9
	j	.L87
.L79:
	.loc 1 606 31
	lw	a5,-20(s0)
	li	a4,1
	sb	a4,7(a5)
.L84:
	.loc 1 610 32
	lw	a5,-20(s0)
	li	a4,2
	sb	a4,0(a5)
	.loc 1 611 9
	j	.L87
.L82:
	.loc 1 613 32
	lw	a5,-20(s0)
	li	a4,3
	sb	a4,0(a5)
	.loc 1 614 9
	j	.L87
.L83:
	.loc 1 616 16
	li	a5,-1
	j	.L78
.L80:
	.loc 1 618 32
	lw	a5,-20(s0)
	sb	zero,0(a5)
	.loc 1 619 9
	nop
.L87:
	.loc 1 623 12
	lw	a4,-48(s0)
	li	a3,7
	li	a2,1
	lw	a1,-20(s0)
	lw	a0,-36(s0)
	call	bl_send_msg
	mv	a5,a0
.L78:
	.loc 1 624 1
	mv	a0,a5
	lw	ra,44(sp)
	.cfi_restore 1
	lw	s0,40(sp)
	.cfi_restore 8
	.cfi_def_cfa 2, 48
	addi	sp,sp,48
	.cfi_def_cfa_offset 0
	jr	ra
	.cfi_endproc
.LFE50:
	.size	bl_send_add_if, .-bl_send_add_if
	.section	.text.bl_send_remove_if,"ax",@progbits
	.align	1
	.globl	bl_send_remove_if
	.type	bl_send_remove_if, @function
bl_send_remove_if:
.LFB51:
	.loc 1 627 1
	.cfi_startproc
	addi	sp,sp,-48
	.cfi_def_cfa_offset 48
	sw	ra,44(sp)
	sw	s0,40(sp)
	.cfi_offset 1, -4
	.cfi_offset 8, -8
	addi	s0,sp,48
	.cfi_def_cfa 8, 0
	sw	a0,-36(s0)
	mv	a5,a1
	sb	a5,-37(s0)
	.loc 1 632 27
	li	a3,1
	li	a2,100
	li	a1,0
	li	a0,8
	call	bl_msg_zalloc
	sw	a0,-20(s0)
	.loc 1 633 8
	lw	a5,-20(s0)
	bne	a5,zero,.L89
	.loc 1 634 16
	li	a5,-12
	j	.L90
.L89:
	.loc 1 636 35
	lw	a5,-20(s0)
	lbu	a4,-37(s0)
	sb	a4,0(a5)
	.loc 1 638 12
	li	a4,0
	li	a3,9
	li	a2,1
	lw	a1,-20(s0)
	lw	a0,-36(s0)
	call	bl_send_msg
	mv	a5,a0
.L90:
	.loc 1 639 1
	mv	a0,a5
	lw	ra,44(sp)
	.cfi_restore 1
	lw	s0,40(sp)
	.cfi_restore 8
	.cfi_def_cfa 2, 48
	addi	sp,sp,48
	.cfi_def_cfa_offset 0
	jr	ra
	.cfi_endproc
.LFE51:
	.size	bl_send_remove_if, .-bl_send_remove_if
	.section	.text.bl_send_scanu_req,"ax",@progbits
	.align	1
	.globl	bl_send_scanu_req
	.type	bl_send_scanu_req, @function
bl_send_scanu_req:
.LFB52:
	.loc 1 642 1
	.cfi_startproc
	addi	sp,sp,-48
	.cfi_def_cfa_offset 48
	sw	ra,44(sp)
	sw	s0,40(sp)
	.cfi_offset 1, -4
	.cfi_offset 8, -8
	addi	s0,sp,48
	.cfi_def_cfa 8, 0
	sw	a0,-36(s0)
	.loc 1 645 13
	sb	zero,-21(s0)
	.loc 1 650 11
	li	a3,340
	li	a2,100
	li	a1,4
	li	a0,4096
	call	bl_msg_zalloc
	sw	a0,-28(s0)
	.loc 1 652 8
	lw	a5,-28(s0)
	bne	a5,zero,.L92
	.loc 1 653 16
	li	a5,-12
	j	.L93
.L92:
	.loc 1 657 25
	lw	a4,-36(s0)
	li	a5,4096
	add	a5,a4,a5
	lw	a5,-484(a5)
	.loc 1 657 18
	andi	a4,a5,0xff
	lw	a5,-28(s0)
	sb	a4,334(a5)
	.loc 1 658 19
	lui	a5,%hi(channel_num_default)
	lw	a5,%lo(channel_num_default)(a5)
	andi	a4,a5,0xff
	lw	a5,-28(s0)
	sb	a4,335(a5)
	.loc 1 659 19
	lw	a5,-28(s0)
	sb	zero,336(a5)
	.loc 1 660 16
	lw	a5,-28(s0)
	lui	a4,%hi(mac_addr_bcst)
	addi	a4,a4,%lo(mac_addr_bcst)
	lw	a3,0(a4)
	sw	a3,320(a5)
	lhu	a4,4(a4)
	sh	a4,324(a5)
	.loc 1 661 17
	lw	a5,-28(s0)
	li	a4,1
	sb	a4,337(a5)
	.loc 1 663 12
	lw	a5,-28(s0)
	lbu	a5,336(a5)
	.loc 1 663 8
	bne	a5,zero,.L94
	.loc 1 664 20
	lbu	a5,-21(s0)
	ori	a5,a5,1
	sb	a5,-21(s0)
.L94:
	.loc 1 676 21
	lw	a5,-28(s0)
	sh	zero,332(a5)
	.loc 1 677 18
	lw	a5,-28(s0)
	sw	zero,328(a5)
	.loc 1 679 12
	sw	zero,-20(s0)
	.loc 1 679 5
	j	.L95
.L96:
.LBB4:
	.loc 1 680 48
	lui	a5,%hi(channels_default)
	lw	a4,%lo(channels_default)(a5)
	.loc 1 680 66
	lw	a3,-20(s0)
	li	a5,52
	mul	a5,a3,a5
	.loc 1 680 41
	add	a5,a4,a5
	sw	a5,-32(s0)
	.loc 1 682 33
	lw	a5,-32(s0)
	lbu	a3,0(a5)
	.loc 1 682 27
	lw	a2,-28(s0)
	lw	a4,-20(s0)
	mv	a5,a4
	slli	a5,a5,1
	add	a5,a5,a4
	slli	a5,a5,1
	add	a5,a2,a5
	sb	a3,2(a5)
	.loc 1 683 33
	lw	a5,-32(s0)
	lhu	a3,2(a5)
	.loc 1 683 27
	lw	a2,-28(s0)
	lw	a4,-20(s0)
	mv	a5,a4
	slli	a5,a5,1
	add	a5,a5,a4
	slli	a5,a5,1
	add	a5,a2,a5
	sh	a3,0(a5)
	.loc 1 684 65
	lw	a5,-32(s0)
	lw	a5,8(a5)
	.loc 1 684 43
	mv	a0,a5
	call	passive_scan_flag
	mv	a5,a0
	mv	a4,a5
	.loc 1 684 28 discriminator 1
	lbu	a5,-21(s0)
	or	a5,a4,a5
	andi	a3,a5,0xff
	lw	a2,-28(s0)
	lw	a4,-20(s0)
	mv	a5,a4
	slli	a5,a5,1
	add	a5,a5,a4
	slli	a5,a5,1
	add	a5,a2,a5
	sb	a3,3(a5)
	.loc 1 685 37
	lw	a5,-32(s0)
	lw	a5,20(a5)
	.loc 1 685 31
	slli	a3,a5,24
	srai	a3,a3,24
	lw	a2,-28(s0)
	lw	a4,-20(s0)
	mv	a5,a4
	slli	a5,a5,1
	add	a5,a5,a4
	slli	a5,a5,1
	add	a5,a2,a5
	sb	a3,4(a5)
.LBE4:
	.loc 1 679 37 discriminator 3
	lw	a5,-20(s0)
	addi	a5,a5,1
	sw	a5,-20(s0)
.L95:
	.loc 1 679 24 discriminator 1
	lw	a5,-28(s0)
	lbu	a5,335(a5)
	mv	a4,a5
	.loc 1 679 19 discriminator 1
	lw	a5,-20(s0)
	blt	a5,a4,.L96
	.loc 1 689 12
	li	a4,0
	li	a3,0
	li	a2,0
	lw	a1,-28(s0)
	lw	a0,-36(s0)
	call	bl_send_msg
	mv	a5,a0
.L93:
	.loc 1 690 1
	mv	a0,a5
	lw	ra,44(sp)
	.cfi_restore 1
	lw	s0,40(sp)
	.cfi_restore 8
	.cfi_def_cfa 2, 48
	addi	sp,sp,48
	.cfi_def_cfa_offset 0
	jr	ra
	.cfi_endproc
.LFE52:
	.size	bl_send_scanu_req, .-bl_send_scanu_req
	.section	.text.bl_send_scanu_raw_send,"ax",@progbits
	.align	1
	.globl	bl_send_scanu_raw_send
	.type	bl_send_scanu_raw_send, @function
bl_send_scanu_raw_send:
.LFB53:
	.loc 1 693 1
	.cfi_startproc
	addi	sp,sp,-48
	.cfi_def_cfa_offset 48
	sw	ra,44(sp)
	sw	s0,40(sp)
	.cfi_offset 1, -4
	.cfi_offset 8, -8
	addi	s0,sp,48
	.cfi_def_cfa 8, 0
	sw	a0,-36(s0)
	sw	a1,-40(s0)
	sw	a2,-44(s0)
	.loc 1 700 11
	li	a3,8
	li	a2,100
	li	a1,4
	li	a5,4096
	addi	a0,a5,5
	call	bl_msg_zalloc
	sw	a0,-20(s0)
	.loc 1 701 8
	lw	a5,-20(s0)
	bne	a5,zero,.L98
	.loc 1 702 16
	li	a5,-12
	j	.L100
.L98:
	.loc 1 706 14
	lw	a5,-20(s0)
	lw	a4,-40(s0)
	sw	a4,0(a5)
	.loc 1 707 14
	lw	a4,-44(s0)
	lw	a5,-20(s0)
	sw	a4,4(a5)
	.loc 1 710 12
	addi	a5,s0,-24
	mv	a4,a5
	li	a5,4096
	addi	a3,a5,6
	li	a2,1
	lw	a1,-20(s0)
	lw	a0,-36(s0)
	call	bl_send_msg
	mv	a5,a0
.L100:
	.loc 1 711 1
	mv	a0,a5
	lw	ra,44(sp)
	.cfi_restore 1
	lw	s0,40(sp)
	.cfi_restore 8
	.cfi_def_cfa 2, 48
	addi	sp,sp,48
	.cfi_def_cfa_offset 0
	jr	ra
	.cfi_endproc
.LFE53:
	.size	bl_send_scanu_raw_send, .-bl_send_scanu_raw_send
	.section	.text.use_pairwise_key,"ax",@progbits
	.align	1
	.type	use_pairwise_key, @function
use_pairwise_key:
.LFB54:
	.loc 1 714 1
	.cfi_startproc
	addi	sp,sp,-32
	.cfi_def_cfa_offset 32
	sw	ra,28(sp)
	sw	s0,24(sp)
	.cfi_offset 1, -4
	.cfi_offset 8, -8
	addi	s0,sp,32
	.cfi_def_cfa 8, 0
	sw	a0,-20(s0)
	.loc 1 715 16
	lw	a5,-20(s0)
	lw	a4,4(a5)
	.loc 1 715 8
	li	a5,1028096
	addi	a5,a5,-1023
	beq	a4,a5,.L102
	.loc 1 716 16
	lw	a5,-20(s0)
	lw	a4,4(a5)
	.loc 1 715 46 discriminator 1
	li	a5,1028096
	addi	a5,a5,-1019
	bne	a4,a5,.L103
.L102:
	.loc 1 717 16
	li	a5,0
	j	.L104
.L103:
	.loc 1 719 12
	li	a5,1
.L104:
	.loc 1 720 1
	mv	a0,a5
	lw	ra,28(sp)
	.cfi_restore 1
	lw	s0,24(sp)
	.cfi_restore 8
	.cfi_def_cfa 2, 32
	addi	sp,sp,32
	.cfi_def_cfa_offset 0
	jr	ra
	.cfi_endproc
.LFE54:
	.size	use_pairwise_key, .-use_pairwise_key
	.section	.rodata
	.align	2
.LC11:
	.string	"%s:%d\r\n"
	.section	.text.bl_send_sm_connect_req,"ax",@progbits
	.align	1
	.globl	bl_send_sm_connect_req
	.type	bl_send_sm_connect_req, @function
bl_send_sm_connect_req:
.LFB55:
	.loc 1 723 1
	.cfi_startproc
	addi	sp,sp,-48
	.cfi_def_cfa_offset 48
	sw	ra,44(sp)
	sw	s0,40(sp)
	.cfi_offset 1, -4
	.cfi_offset 8, -8
	addi	s0,sp,48
	.cfi_def_cfa 8, 0
	sw	a0,-36(s0)
	sw	a1,-40(s0)
	sw	a2,-44(s0)
	.loc 1 726 11
	sw	zero,-24(s0)
	.loc 1 731 11
	li	a3,452
	li	a2,100
	li	a1,6
	li	a5,8192
	addi	a0,a5,-2048
	call	bl_msg_zalloc
	sw	a0,-28(s0)
	.loc 1 733 8
	lw	a5,-28(s0)
	bne	a5,zero,.L106
	.loc 1 734 16
	li	a5,-12
	j	.L107
.L106:
	.loc 1 737 20
	lw	a5,-40(s0)
	lw	a5,96(a5)
	.loc 1 737 8
	beq	a5,zero,.L108
	.loc 1 738 39
	lw	a5,-40(s0)
	lw	a4,100(a5)
	.loc 1 737 40 discriminator 1
	li	a5,1028096
	addi	a5,a5,-1023
	beq	a4,a5,.L109
	.loc 1 739 39
	lw	a5,-40(s0)
	lw	a4,100(a5)
	.loc 1 738 58
	li	a5,1028096
	addi	a5,a5,-1022
	beq	a4,a5,.L109
	.loc 1 740 39
	lw	a5,-40(s0)
	lw	a4,100(a5)
	.loc 1 739 58
	li	a5,1028096
	addi	a5,a5,-1019
	bne	a4,a5,.L108
.L109:
	.loc 1 741 15
	lw	a5,-24(s0)
	ori	a5,a5,4
	sw	a5,-24(s0)
.L108:
	.loc 1 743 20
	lw	a5,-40(s0)
	lbu	a5,132(a5)
	.loc 1 743 8
	beq	a5,zero,.L110
	.loc 1 744 15
	lw	a5,-24(s0)
	ori	a5,a5,1
	sw	a5,-24(s0)
.L110:
	.loc 1 746 20
	lw	a5,-40(s0)
	lbu	a5,136(a5)
	.loc 1 746 8
	beq	a5,zero,.L111
	.loc 1 747 15
	lw	a5,-24(s0)
	ori	a5,a5,2
	sw	a5,-24(s0)
.L111:
	.loc 1 749 9
	lw	a5,-40(s0)
	addi	a5,a5,88
	mv	a0,a5
	call	use_pairwise_key
	mv	a5,a0
	.loc 1 749 8 discriminator 1
	beq	a5,zero,.L112
	.loc 1 750 15
	lw	a5,-24(s0)
	ori	a5,a5,8
	sw	a5,-24(s0)
.L112:
	.loc 1 752 12
	lw	a5,-40(s0)
	lbu	a4,85(a5)
	.loc 1 752 8
	li	a5,1
	bne	a4,a5,.L113
	.loc 1 753 15
	lw	a5,-24(s0)
	ori	a5,a5,16
	sw	a5,-24(s0)
.L113:
	.loc 1 755 20
	lw	a5,-40(s0)
	lhu	a5,134(a5)
	.loc 1 755 8
	beq	a5,zero,.L114
	.loc 1 756 47
	lw	a5,-40(s0)
	lhu	a4,134(a5)
	.loc 1 756 34
	lw	a5,-28(s0)
	sh	a4,52(a5)
	j	.L115
.L114:
	.loc 1 758 34
	lw	a5,-28(s0)
	li	a4,-28672
	addi	a4,a4,-1906
	sh	a4,52(a5)
.L115:
	.loc 1 760 12
	lw	a5,-40(s0)
	lw	a5,56(a5)
	.loc 1 760 8
	beq	a5,zero,.L116
	.loc 1 760 38 discriminator 1
	lw	a5,-40(s0)
	lw	a5,56(a5)
	.loc 1 760 26 discriminator 1
	lbu	a4,0(a5)
	.loc 1 760 64 discriminator 1
	lui	a5,%hi(mac_addr_bcst)
	addi	a5,a5,%lo(mac_addr_bcst)
	.loc 1 760 56 discriminator 1
	lbu	a5,0(a5)
	.loc 1 760 20 discriminator 1
	bne	a4,a5,.L117
	.loc 1 760 109 discriminator 3
	lw	a5,-40(s0)
	lw	a5,56(a5)
	.loc 1 760 119 discriminator 3
	addi	a5,a5,1
	.loc 1 760 97 discriminator 3
	lbu	a4,0(a5)
	.loc 1 760 158 discriminator 3
	lui	a5,%hi(mac_addr_bcst+1)
	addi	a5,a5,%lo(mac_addr_bcst+1)
	.loc 1 760 127 discriminator 3
	lbu	a5,0(a5)
	.loc 1 760 93 discriminator 3
	bne	a4,a5,.L117
	.loc 1 760 180 discriminator 5
	lw	a5,-40(s0)
	lw	a5,56(a5)
	.loc 1 760 190 discriminator 5
	addi	a5,a5,2
	.loc 1 760 168 discriminator 5
	lbu	a4,0(a5)
	.loc 1 760 229 discriminator 5
	lui	a5,%hi(mac_addr_bcst+2)
	addi	a5,a5,%lo(mac_addr_bcst+2)
	.loc 1 760 198 discriminator 5
	lbu	a5,0(a5)
	.loc 1 760 164 discriminator 5
	bne	a4,a5,.L117
	.loc 1 760 251 discriminator 7
	lw	a5,-40(s0)
	lw	a5,56(a5)
	.loc 1 760 261 discriminator 7
	addi	a5,a5,3
	.loc 1 760 239 discriminator 7
	lbu	a4,0(a5)
	.loc 1 760 300 discriminator 7
	lui	a5,%hi(mac_addr_bcst+3)
	addi	a5,a5,%lo(mac_addr_bcst+3)
	.loc 1 760 269 discriminator 7
	lbu	a5,0(a5)
	.loc 1 760 235 discriminator 7
	bne	a4,a5,.L117
	.loc 1 760 322 discriminator 9
	lw	a5,-40(s0)
	lw	a5,56(a5)
	.loc 1 760 332 discriminator 9
	addi	a5,a5,4
	.loc 1 760 310 discriminator 9
	lbu	a4,0(a5)
	.loc 1 760 371 discriminator 9
	lui	a5,%hi(mac_addr_bcst+4)
	addi	a5,a5,%lo(mac_addr_bcst+4)
	.loc 1 760 340 discriminator 9
	lbu	a5,0(a5)
	.loc 1 760 306 discriminator 9
	bne	a4,a5,.L117
	.loc 1 760 393 discriminator 11
	lw	a5,-40(s0)
	lw	a5,56(a5)
	.loc 1 760 403 discriminator 11
	addi	a5,a5,5
	.loc 1 760 381 discriminator 11
	lbu	a4,0(a5)
	.loc 1 760 442 discriminator 11
	lui	a5,%hi(mac_addr_bcst+5)
	addi	a5,a5,%lo(mac_addr_bcst+5)
	.loc 1 760 411 discriminator 11
	lbu	a5,0(a5)
	.loc 1 760 23 discriminator 11
	beq	a4,a5,.L116
.L117:
	.loc 1 760 467 discriminator 12
	lw	a5,-40(s0)
	lw	a5,56(a5)
	.loc 1 760 455 discriminator 12
	lbu	a4,0(a5)
	.loc 1 760 493 discriminator 12
	lui	a5,%hi(mac_addr_zero)
	addi	a5,a5,%lo(mac_addr_zero)
	.loc 1 760 485 discriminator 12
	lbu	a5,0(a5)
	.loc 1 760 449 discriminator 12
	bne	a4,a5,.L118
	.loc 1 760 538 discriminator 13
	lw	a5,-40(s0)
	lw	a5,56(a5)
	.loc 1 760 548 discriminator 13
	addi	a5,a5,1
	.loc 1 760 526 discriminator 13
	lbu	a4,0(a5)
	.loc 1 760 587 discriminator 13
	lui	a5,%hi(mac_addr_zero+1)
	addi	a5,a5,%lo(mac_addr_zero+1)
	.loc 1 760 556 discriminator 13
	lbu	a5,0(a5)
	.loc 1 760 522 discriminator 13
	bne	a4,a5,.L118
	.loc 1 760 609 discriminator 14
	lw	a5,-40(s0)
	lw	a5,56(a5)
	.loc 1 760 619 discriminator 14
	addi	a5,a5,2
	.loc 1 760 597 discriminator 14
	lbu	a4,0(a5)
	.loc 1 760 658 discriminator 14
	lui	a5,%hi(mac_addr_zero+2)
	addi	a5,a5,%lo(mac_addr_zero+2)
	.loc 1 760 627 discriminator 14
	lbu	a5,0(a5)
	.loc 1 760 593 discriminator 14
	bne	a4,a5,.L118
	.loc 1 760 680 discriminator 15
	lw	a5,-40(s0)
	lw	a5,56(a5)
	.loc 1 760 690 discriminator 15
	addi	a5,a5,3
	.loc 1 760 668 discriminator 15
	lbu	a4,0(a5)
	.loc 1 760 729 discriminator 15
	lui	a5,%hi(mac_addr_zero+3)
	addi	a5,a5,%lo(mac_addr_zero+3)
	.loc 1 760 698 discriminator 15
	lbu	a5,0(a5)
	.loc 1 760 664 discriminator 15
	bne	a4,a5,.L118
	.loc 1 760 751 discriminator 16
	lw	a5,-40(s0)
	lw	a5,56(a5)
	.loc 1 760 761 discriminator 16
	addi	a5,a5,4
	.loc 1 760 739 discriminator 16
	lbu	a4,0(a5)
	.loc 1 760 800 discriminator 16
	lui	a5,%hi(mac_addr_zero+4)
	addi	a5,a5,%lo(mac_addr_zero+4)
	.loc 1 760 769 discriminator 16
	lbu	a5,0(a5)
	.loc 1 760 735 discriminator 16
	bne	a4,a5,.L118
	.loc 1 760 822 discriminator 17
	lw	a5,-40(s0)
	lw	a5,56(a5)
	.loc 1 760 832 discriminator 17
	addi	a5,a5,5
	.loc 1 760 810 discriminator 17
	lbu	a4,0(a5)
	.loc 1 760 871 discriminator 17
	lui	a5,%hi(mac_addr_zero+5)
	addi	a5,a5,%lo(mac_addr_zero+5)
	.loc 1 760 840 discriminator 17
	lbu	a5,0(a5)
	.loc 1 760 452 discriminator 17
	beq	a4,a5,.L116
.L118:
	.loc 1 761 15
	sw	zero,-20(s0)
	.loc 1 761 9
	j	.L119
.L120:
	.loc 1 762 38
	lw	a5,-40(s0)
	lw	a4,56(a5)
	.loc 1 762 45
	lw	a5,-20(s0)
	add	a5,a4,a5
	lbu	a4,0(a5)
	.loc 1 762 33
	lw	a3,-28(s0)
	lw	a5,-20(s0)
	add	a5,a3,a5
	sb	a4,34(a5)
	.loc 1 761 23 discriminator 3
	lw	a5,-20(s0)
	addi	a5,a5,1
	sw	a5,-20(s0)
.L119:
	.loc 1 761 19 discriminator 1
	lw	a4,-20(s0)
	li	a5,5
	ble	a4,a5,.L120
	.loc 1 760 8
	j	.L121
.L116:
	.loc 1 765 20
	lw	a5,-28(s0)
	lui	a4,%hi(mac_addr_bcst)
	addi	a4,a4,%lo(mac_addr_bcst)
	lhu	a3,0(a4)
	sh	a3,34(a5)
	lhu	a3,2(a4)
	sh	a3,36(a5)
	lhu	a4,4(a4)
	sh	a4,38(a5)
.L121:
	.loc 1 766 25
	lw	a4,-36(s0)
	li	a5,4096
	add	a5,a4,a5
	lw	a5,-484(a5)
	.loc 1 766 18
	andi	a4,a5,0xff
	lw	a5,-28(s0)
	sb	a4,61(a5)
	.loc 1 767 21
	lw	a5,-40(s0)
	lhu	a5,2(a5)
	.loc 1 767 8
	beq	a5,zero,.L122
	.loc 1 768 38
	lw	a5,-40(s0)
	lbu	a4,0(a5)
	.loc 1 768 24
	lw	a5,-28(s0)
	sb	a4,42(a5)
	.loc 1 769 38
	lw	a5,-40(s0)
	lhu	a4,2(a5)
	.loc 1 769 24
	lw	a5,-28(s0)
	sh	a4,40(a5)
	.loc 1 770 57
	lw	a5,-40(s0)
	lw	a5,8(a5)
	.loc 1 770 27
	mv	a0,a5
	call	passive_scan_flag
	mv	a5,a0
	mv	a4,a5
	.loc 1 770 25 discriminator 1
	lw	a5,-28(s0)
	sb	a4,43(a5)
	j	.L123
.L122:
	.loc 1 772 24
	lw	a5,-28(s0)
	li	a4,-1
	sh	a4,40(a5)
.L123:
	.loc 1 774 12
	sw	zero,-20(s0)
	.loc 1 774 5
	j	.L124
.L125:
	.loc 1 775 33
	lw	a5,-40(s0)
	lw	a4,64(a5)
	.loc 1 775 39
	lw	a5,-20(s0)
	add	a5,a4,a5
	lbu	a4,0(a5)
	.loc 1 775 28
	lw	a3,-28(s0)
	lw	a5,-20(s0)
	add	a5,a3,a5
	sb	a4,1(a5)
	.loc 1 774 37 discriminator 3
	lw	a5,-20(s0)
	addi	a5,a5,1
	sw	a5,-20(s0)
.L124:
	.loc 1 774 24 discriminator 1
	lw	a5,-40(s0)
	lw	a4,68(a5)
	.loc 1 774 19 discriminator 1
	lw	a5,-20(s0)
	bgtu	a4,a5,.L125
	.loc 1 776 27
	lw	a5,-40(s0)
	lw	a5,68(a5)
	.loc 1 776 22
	andi	a4,a5,0xff
	lw	a5,-28(s0)
	sb	a4,0(a5)
	.loc 1 777 16
	lw	a5,-28(s0)
	lw	a4,-24(s0)
	sw	a4,48(a5)
.LBB5:
	.loc 1 778 38
	lw	a5,-40(s0)
	lw	a5,80(a5)
	.loc 1 778 32
	sltiu	a5,a5,257
	seqz	a5,a5
	andi	a5,a5,0xff
	.loc 1 778 16
	sw	a5,-32(s0)
	.loc 1 778 74
	lw	a5,-32(s0)
	beq	a5,zero,.L126
	.loc 1 778 90 discriminator 1
	li	a2,778
	lui	a5,%hi(__func__.0)
	addi	a1,a5,%lo(__func__.0)
	lui	a5,%hi(.LC11)
	addi	a0,a5,%lo(.LC11)
	call	printf
.L126:
	.loc 1 778 126 discriminator 4
	lw	a5,-32(s0)
.LBE5:
	.loc 1 778 8 discriminator 4
	beq	a5,zero,.L127
	.loc 1 779 16
	li	a5,-22
	j	.L107
.L127:
	.loc 1 780 12
	lw	a5,-40(s0)
	lw	a5,80(a5)
	.loc 1 780 8
	beq	a5,zero,.L128
	.loc 1 781 19
	lw	a5,-28(s0)
	addi	a4,a5,64
	.loc 1 781 32
	lw	a5,-40(s0)
	lw	a3,76(a5)
	.loc 1 781 9
	lw	a5,-40(s0)
	lw	a5,80(a5)
	mv	a2,a5
	mv	a1,a3
	mv	a0,a4
	call	memcpy
.L128:
	.loc 1 782 22
	lw	a5,-40(s0)
	lw	a5,80(a5)
	.loc 1 782 17
	slli	a4,a5,16
	srli	a4,a4,16
	lw	a5,-28(s0)
	sh	a4,54(a5)
	.loc 1 783 41
	lui	a5,%hi(bl_mod_params)
	addi	a5,a5,%lo(bl_mod_params)
	lw	a5,44(a5)
	.loc 1 783 26
	slli	a4,a5,16
	srli	a4,a4,16
	lw	a5,-28(s0)
	sh	a4,56(a5)
	.loc 1 784 41
	lui	a5,%hi(bl_mod_params)
	addi	a5,a5,%lo(bl_mod_params)
	lbu	a5,48(a5)
	.loc 1 784 5
	snez	a5,a5
	andi	a5,a5,0xff
	xori	a5,a5,1
	andi	a5,a5,0xff
	andi	a5,a5,1
	andi	a4,a5,0xff
	.loc 1 784 25
	lw	a5,-28(s0)
	sb	a4,58(a5)
	.loc 1 787 12
	lw	a5,-40(s0)
	lbu	a4,72(a5)
	.loc 1 787 8
	li	a5,8
	bne	a4,a5,.L129
	.loc 1 788 24
	lw	a5,-28(s0)
	sb	zero,59(a5)
	j	.L130
.L129:
	.loc 1 790 29
	lw	a5,-40(s0)
	lbu	a4,72(a5)
	.loc 1 790 24
	lw	a5,-28(s0)
	sb	a4,59(a5)
.L130:
	.loc 1 793 38
	lui	a5,%hi(bl_mod_params)
	addi	a5,a5,%lo(bl_mod_params)
	lw	a5,68(a5)
	.loc 1 793 23
	andi	a4,a5,0xff
	lw	a5,-28(s0)
	sb	a4,60(a5)
	.loc 1 794 32
	lw	a5,-28(s0)
	li	a4,1
	sb	a4,320(a5)
	.loc 1 795 12
	lw	a5,-40(s0)
	lbu	a5,156(a5)
	.loc 1 795 8
	beq	a5,zero,.L131
	.loc 1 796 19
	lw	a5,-28(s0)
	addi	a4,a5,321
	.loc 1 796 32
	lw	a5,-40(s0)
	lw	a3,148(a5)
	.loc 1 796 42
	lw	a5,-40(s0)
	lbu	a5,156(a5)
	.loc 1 796 9
	mv	a2,a5
	mv	a1,a3
	mv	a0,a4
	call	memcpy
.L131:
	.loc 1 798 12
	lw	a5,-40(s0)
	lbu	a5,157(a5)
	.loc 1 798 8
	beq	a5,zero,.L132
	.loc 1 799 19
	lw	a5,-28(s0)
	addi	a4,a5,385
	.loc 1 799 36
	lw	a5,-40(s0)
	lw	a3,152(a5)
	.loc 1 799 46
	lw	a5,-40(s0)
	lbu	a5,157(a5)
	.loc 1 799 9
	mv	a2,a5
	mv	a1,a3
	mv	a0,a4
	call	memcpy
.L132:
	.loc 1 803 12
	lw	a4,-44(s0)
	li	a5,8192
	addi	a3,a5,-2047
	li	a2,1
	lw	a1,-28(s0)
	lw	a0,-36(s0)
	call	bl_send_msg
	mv	a5,a0
.L107:
	.loc 1 804 1
	mv	a0,a5
	lw	ra,44(sp)
	.cfi_restore 1
	lw	s0,40(sp)
	.cfi_restore 8
	.cfi_def_cfa 2, 48
	addi	sp,sp,48
	.cfi_def_cfa_offset 0
	jr	ra
	.cfi_endproc
.LFE55:
	.size	bl_send_sm_connect_req, .-bl_send_sm_connect_req
	.section	.text.bl_send_sm_disconnect_req,"ax",@progbits
	.align	1
	.globl	bl_send_sm_disconnect_req
	.type	bl_send_sm_disconnect_req, @function
bl_send_sm_disconnect_req:
.LFB56:
	.loc 1 807 1
	.cfi_startproc
	addi	sp,sp,-48
	.cfi_def_cfa_offset 48
	sw	ra,44(sp)
	sw	s0,40(sp)
	.cfi_offset 1, -4
	.cfi_offset 8, -8
	addi	s0,sp,48
	.cfi_def_cfa 8, 0
	sw	a0,-36(s0)
	mv	a5,a1
	sh	a5,-38(s0)
	.loc 1 813 11
	li	a3,4
	li	a2,100
	li	a1,6
	li	a5,8192
	addi	a0,a5,-2045
	call	bl_msg_zalloc
	sw	a0,-20(s0)
	.loc 1 814 8
	lw	a5,-20(s0)
	bne	a5,zero,.L134
	.loc 1 815 16
	li	a5,-12
	j	.L135
.L134:
	.loc 1 819 22
	lw	a5,-20(s0)
	lhu	a4,-38(s0)
	sh	a4,0(a5)
	.loc 1 820 25
	lw	a4,-36(s0)
	li	a5,4096
	add	a5,a4,a5
	lw	a5,-484(a5)
	.loc 1 820 18
	andi	a4,a5,0xff
	lw	a5,-20(s0)
	sb	a4,2(a5)
	.loc 1 824 12
	li	a4,0
	li	a5,8192
	addi	a3,a5,-2044
	li	a2,1
	lw	a1,-20(s0)
	lw	a0,-36(s0)
	call	bl_send_msg
	mv	a5,a0
.L135:
	.loc 1 825 1
	mv	a0,a5
	lw	ra,44(sp)
	.cfi_restore 1
	lw	s0,40(sp)
	.cfi_restore 8
	.cfi_def_cfa 2, 48
	addi	sp,sp,48
	.cfi_def_cfa_offset 0
	jr	ra
	.cfi_endproc
.LFE56:
	.size	bl_send_sm_disconnect_req, .-bl_send_sm_disconnect_req
	.section	.text.bl_send_mm_powersaving_req,"ax",@progbits
	.align	1
	.globl	bl_send_mm_powersaving_req
	.type	bl_send_mm_powersaving_req, @function
bl_send_mm_powersaving_req:
.LFB57:
	.loc 1 828 1
	.cfi_startproc
	addi	sp,sp,-48
	.cfi_def_cfa_offset 48
	sw	ra,44(sp)
	sw	s0,40(sp)
	.cfi_offset 1, -4
	.cfi_offset 8, -8
	addi	s0,sp,48
	.cfi_def_cfa 8, 0
	sw	a0,-36(s0)
	sw	a1,-40(s0)
	.loc 1 834 11
	li	a3,1
	li	a2,100
	li	a1,0
	li	a0,49
	call	bl_msg_zalloc
	sw	a0,-20(s0)
	.loc 1 835 8
	lw	a5,-20(s0)
	bne	a5,zero,.L137
	.loc 1 836 16
	li	a5,-12
	j	.L138
.L137:
	.loc 1 840 20
	lw	a5,-40(s0)
	andi	a4,a5,0xff
	lw	a5,-20(s0)
	sb	a4,0(a5)
	.loc 1 843 12
	li	a4,0
	li	a3,50
	li	a2,1
	lw	a1,-20(s0)
	lw	a0,-36(s0)
	call	bl_send_msg
	mv	a5,a0
.L138:
	.loc 1 844 1
	mv	a0,a5
	lw	ra,44(sp)
	.cfi_restore 1
	lw	s0,40(sp)
	.cfi_restore 8
	.cfi_def_cfa 2, 48
	addi	sp,sp,48
	.cfi_def_cfa_offset 0
	jr	ra
	.cfi_endproc
.LFE57:
	.size	bl_send_mm_powersaving_req, .-bl_send_mm_powersaving_req
	.section	.text.bl_send_mm_denoise_req,"ax",@progbits
	.align	1
	.globl	bl_send_mm_denoise_req
	.type	bl_send_mm_denoise_req, @function
bl_send_mm_denoise_req:
.LFB58:
	.loc 1 847 1
	.cfi_startproc
	addi	sp,sp,-48
	.cfi_def_cfa_offset 48
	sw	ra,44(sp)
	sw	s0,40(sp)
	.cfi_offset 1, -4
	.cfi_offset 8, -8
	addi	s0,sp,48
	.cfi_def_cfa 8, 0
	sw	a0,-36(s0)
	sw	a1,-40(s0)
	.loc 1 853 11
	li	a3,1
	li	a2,100
	li	a1,0
	li	a0,48
	call	bl_msg_zalloc
	sw	a0,-20(s0)
	.loc 1 854 8
	lw	a5,-20(s0)
	bne	a5,zero,.L140
	.loc 1 855 16
	li	a5,-12
	j	.L141
.L140:
	.loc 1 859 23
	lw	a5,-40(s0)
	andi	a4,a5,0xff
	lw	a5,-20(s0)
	sb	a4,0(a5)
	.loc 1 862 12
	li	a4,0
	li	a3,50
	li	a2,1
	lw	a1,-20(s0)
	lw	a0,-36(s0)
	call	bl_send_msg
	mv	a5,a0
.L141:
	.loc 1 863 1
	mv	a0,a5
	lw	ra,44(sp)
	.cfi_restore 1
	lw	s0,40(sp)
	.cfi_restore 8
	.cfi_def_cfa 2, 48
	addi	sp,sp,48
	.cfi_def_cfa_offset 0
	jr	ra
	.cfi_endproc
.LFE58:
	.size	bl_send_mm_denoise_req, .-bl_send_mm_denoise_req
	.section	.text.bl_send_apm_start_req,"ax",@progbits
	.align	1
	.globl	bl_send_apm_start_req
	.type	bl_send_apm_start_req, @function
bl_send_apm_start_req:
.LFB59:
	.loc 1 866 1
	.cfi_startproc
	addi	sp,sp,-64
	.cfi_def_cfa_offset 64
	sw	ra,60(sp)
	sw	s0,56(sp)
	sw	s1,52(sp)
	.cfi_offset 1, -4
	.cfi_offset 8, -8
	.cfi_offset 9, -12
	addi	s0,sp,64
	.cfi_def_cfa 8, 0
	sw	a0,-36(s0)
	sw	a1,-40(s0)
	sw	a2,-44(s0)
	sw	a3,-48(s0)
	sw	a4,-52(s0)
	mv	a4,a6
	sb	a5,-53(s0)
	mv	a5,a4
	sb	a5,-54(s0)
	.loc 1 868 13
	li	a5,-1769242624
	addi	a5,a5,1154
	sw	a5,-32(s0)
	li	a5,1816666112
	addi	a5,a5,1042
	sw	a5,-28(s0)
	li	a5,1613766656
	addi	a5,a5,-2036
	sw	a5,-24(s0)
	.loc 1 874 11
	li	a3,168
	li	a2,100
	li	a1,7
	li	a5,8192
	addi	a0,a5,-1024
	call	bl_msg_zalloc
	sw	a0,-20(s0)
	.loc 1 875 8
	lw	a5,-20(s0)
	bne	a5,zero,.L143
	.loc 1 876 16
	li	a5,-12
	j	.L147
.L143:
	.loc 1 879 20
	lw	a5,-20(s0)
	sb	zero,16(a5)
	.loc 1 880 51
	lw	a5,-20(s0)
	lbu	a5,16(a5)
	.loc 1 880 22
	lw	a1,-52(s0)
	mv	a0,a5
	call	phy_channel_to_freq
	mv	a5,a0
	mv	a4,a5
	.loc 1 880 20 discriminator 1
	lw	a5,-20(s0)
	sh	a4,14(a5)
	.loc 1 881 21
	lw	a5,-20(s0)
	sb	zero,17(a5)
	.loc 1 882 24
	lw	a5,-20(s0)
	sb	zero,18(a5)
	.loc 1 885 34
	lw	a5,-20(s0)
	lhu	a5,14(a5)
	mv	a4,a5
	.loc 1 885 23
	lw	a5,-20(s0)
	sw	a4,20(a5)
	.loc 1 886 23
	lw	a5,-20(s0)
	sw	zero,24(a5)
	.loc 1 887 19
	lw	a5,-20(s0)
	sb	zero,28(a5)
	.loc 1 888 22
	lw	a5,-20(s0)
	lbu	a4,-54(s0)
	sb	a4,29(a5)
	.loc 1 889 19
	lw	a5,-20(s0)
	sw	zero,32(a5)
	.loc 1 890 18
	lw	a5,-20(s0)
	sh	zero,36(a5)
	.loc 1 891 18
	lw	a5,-20(s0)
	sh	zero,38(a5)
	.loc 1 892 18
	lw	a5,-20(s0)
	li	a4,100
	sh	a4,40(a5)
	.loc 1 893 16
	lw	a5,-20(s0)
	li	a4,8
	sw	a4,44(a5)
	.loc 1 895 30
	lw	a5,-20(s0)
	li	a4,-28672
	addi	a4,a4,-376
	sh	a4,48(a5)
	.loc 1 896 18
	lw	a5,-20(s0)
	li	a4,6
	sb	a4,50(a5)
	.loc 1 897 18
	lw	a5,-20(s0)
	lbu	a4,-53(s0)
	sb	a4,51(a5)
	.loc 1 916 9
	lw	a0,-48(s0)
	call	strlen
	mv	a5,a0
	.loc 1 916 8 discriminator 1
	beq	a5,zero,.L145
	.loc 1 917 26
	lw	a5,-20(s0)
	li	a4,1
	sb	a4,102(a5)
	j	.L146
.L145:
	.loc 1 919 26
	lw	a5,-20(s0)
	sb	zero,102(a5)
.L146:
	.loc 1 921 26
	lw	a5,-20(s0)
	li	a4,1
	sb	a4,52(a5)
	.loc 1 922 21
	lw	a5,-20(s0)
	addi	s1,a5,69
	.loc 1 922 5
	lw	a0,-44(s0)
	call	strlen
	mv	a5,a0
	.loc 1 922 5 is_stmt 0 discriminator 1
	mv	a2,a5
	lw	a1,-44(s0)
	mv	a0,s1
	call	memcpy
	.loc 1 923 15 is_stmt 1
	lw	a5,-20(s0)
	addi	s1,a5,103
	.loc 1 923 5
	lw	a0,-48(s0)
	call	strlen
	mv	a5,a0
	.loc 1 923 5 is_stmt 0 discriminator 1
	mv	a2,a5
	lw	a1,-48(s0)
	mv	a0,s1
	call	memcpy
	.loc 1 924 24 is_stmt 1
	lw	a0,-44(s0)
	call	strlen
	mv	a5,a0
	.loc 1 924 22 discriminator 1
	andi	a4,a5,0xff
	lw	a5,-20(s0)
	sb	a4,68(a5)
	.loc 1 925 26
	lw	a5,-20(s0)
	li	a4,12
	sb	a4,53(a5)
	.loc 1 926 25
	lw	a5,-20(s0)
	addi	a4,a5,54
	.loc 1 926 52
	lw	a5,-20(s0)
	lbu	a5,53(a5)
	.loc 1 926 5
	mv	a3,a5
	addi	a5,s0,-32
	mv	a2,a3
	mv	a1,a5
	mv	a0,a4
	call	memcpy
	.loc 1 927 24
	lw	a5,-20(s0)
	li	a4,1
	sb	a4,66(a5)
	.loc 1 928 24
	lw	a5,-20(s0)
	li	a4,1
	sb	a4,67(a5)
	.loc 1 932 12
	lw	a4,-40(s0)
	li	a5,8192
	addi	a3,a5,-1023
	li	a2,1
	lw	a1,-20(s0)
	lw	a0,-36(s0)
	call	bl_send_msg
	mv	a5,a0
.L147:
	.loc 1 933 1
	mv	a0,a5
	lw	ra,60(sp)
	.cfi_restore 1
	lw	s0,56(sp)
	.cfi_restore 8
	.cfi_def_cfa 2, 64
	lw	s1,52(sp)
	.cfi_restore 9
	addi	sp,sp,64
	.cfi_def_cfa_offset 0
	jr	ra
	.cfi_endproc
.LFE59:
	.size	bl_send_apm_start_req, .-bl_send_apm_start_req
	.section	.text.bl_send_apm_stop_req,"ax",@progbits
	.align	1
	.globl	bl_send_apm_stop_req
	.type	bl_send_apm_stop_req, @function
bl_send_apm_stop_req:
.LFB60:
	.loc 1 936 1
	.cfi_startproc
	addi	sp,sp,-48
	.cfi_def_cfa_offset 48
	sw	ra,44(sp)
	sw	s0,40(sp)
	.cfi_offset 1, -4
	.cfi_offset 8, -8
	addi	s0,sp,48
	.cfi_def_cfa 8, 0
	sw	a0,-36(s0)
	mv	a5,a1
	sb	a5,-37(s0)
	.loc 1 942 11
	li	a3,1
	li	a2,100
	li	a1,7
	li	a5,8192
	addi	a0,a5,-1022
	call	bl_msg_zalloc
	sw	a0,-20(s0)
	.loc 1 943 8
	lw	a5,-20(s0)
	bne	a5,zero,.L149
	.loc 1 944 16
	li	a5,-12
	j	.L150
.L149:
	.loc 1 948 18
	lw	a5,-20(s0)
	lbu	a4,-37(s0)
	sb	a4,0(a5)
	.loc 1 951 12
	li	a4,0
	li	a5,8192
	addi	a3,a5,-1021
	li	a2,1
	lw	a1,-20(s0)
	lw	a0,-36(s0)
	call	bl_send_msg
	mv	a5,a0
.L150:
	.loc 1 952 1
	mv	a0,a5
	lw	ra,44(sp)
	.cfi_restore 1
	lw	s0,40(sp)
	.cfi_restore 8
	.cfi_def_cfa 2, 48
	addi	sp,sp,48
	.cfi_def_cfa_offset 0
	jr	ra
	.cfi_endproc
.LFE60:
	.size	bl_send_apm_stop_req, .-bl_send_apm_stop_req
	.section	.text.bl_send_apm_sta_del_req,"ax",@progbits
	.align	1
	.globl	bl_send_apm_sta_del_req
	.type	bl_send_apm_sta_del_req, @function
bl_send_apm_sta_del_req:
.LFB61:
	.loc 1 955 1
	.cfi_startproc
	addi	sp,sp,-48
	.cfi_def_cfa_offset 48
	sw	ra,44(sp)
	sw	s0,40(sp)
	.cfi_offset 1, -4
	.cfi_offset 8, -8
	addi	s0,sp,48
	.cfi_def_cfa 8, 0
	sw	a0,-36(s0)
	sw	a1,-40(s0)
	mv	a5,a2
	mv	a4,a3
	sb	a5,-41(s0)
	mv	a5,a4
	sb	a5,-42(s0)
	.loc 1 961 11
	li	a3,2
	li	a2,100
	li	a1,7
	li	a5,8192
	addi	a0,a5,-1013
	call	bl_msg_zalloc
	sw	a0,-20(s0)
	.loc 1 962 8
	lw	a5,-20(s0)
	bne	a5,zero,.L152
	.loc 1 963 16
	li	a5,-12
	j	.L153
.L152:
	.loc 1 967 18
	lw	a5,-20(s0)
	lbu	a4,-42(s0)
	sb	a4,0(a5)
	.loc 1 968 18
	lw	a5,-20(s0)
	lbu	a4,-41(s0)
	sb	a4,1(a5)
	.loc 1 971 12
	lw	a4,-40(s0)
	li	a5,8192
	addi	a3,a5,-1012
	li	a2,1
	lw	a1,-20(s0)
	lw	a0,-36(s0)
	call	bl_send_msg
	mv	a5,a0
.L153:
	.loc 1 972 1
	mv	a0,a5
	lw	ra,44(sp)
	.cfi_restore 1
	lw	s0,40(sp)
	.cfi_restore 8
	.cfi_def_cfa 2, 48
	addi	sp,sp,48
	.cfi_def_cfa_offset 0
	jr	ra
	.cfi_endproc
.LFE61:
	.size	bl_send_apm_sta_del_req, .-bl_send_apm_sta_del_req
	.section	.text.bl_send_apm_conf_max_sta_req,"ax",@progbits
	.align	1
	.globl	bl_send_apm_conf_max_sta_req
	.type	bl_send_apm_conf_max_sta_req, @function
bl_send_apm_conf_max_sta_req:
.LFB62:
	.loc 1 975 1
	.cfi_startproc
	addi	sp,sp,-48
	.cfi_def_cfa_offset 48
	sw	ra,44(sp)
	sw	s0,40(sp)
	.cfi_offset 1, -4
	.cfi_offset 8, -8
	addi	s0,sp,48
	.cfi_def_cfa 8, 0
	sw	a0,-36(s0)
	mv	a5,a1
	sb	a5,-37(s0)
	.loc 1 979 11
	li	a3,1
	li	a2,100
	li	a1,7
	li	a5,8192
	addi	a0,a5,-1011
	call	bl_msg_zalloc
	sw	a0,-20(s0)
	.loc 1 980 8
	lw	a5,-20(s0)
	bne	a5,zero,.L155
	.loc 1 981 16
	li	a5,-12
	j	.L156
.L155:
	.loc 1 985 28
	lw	a5,-20(s0)
	lbu	a4,-37(s0)
	sb	a4,0(a5)
	.loc 1 988 12
	li	a4,0
	li	a5,8192
	addi	a3,a5,-1010
	li	a2,1
	lw	a1,-20(s0)
	lw	a0,-36(s0)
	call	bl_send_msg
	mv	a5,a0
.L156:
	.loc 1 989 1
	mv	a0,a5
	lw	ra,44(sp)
	.cfi_restore 1
	lw	s0,40(sp)
	.cfi_restore 8
	.cfi_def_cfa 2, 48
	addi	sp,sp,48
	.cfi_def_cfa_offset 0
	jr	ra
	.cfi_endproc
.LFE62:
	.size	bl_send_apm_conf_max_sta_req, .-bl_send_apm_conf_max_sta_req
	.section	.rodata
	.align	2
.LC12:
	.string	"bl_msg_tx.c"
	.align	2
.LC13:
	.string	"\033[35mASSERT\033[0m"
	.align	2
.LC14:
	.string	"[%10u][%s: %s:%4d] ASSERT: %s:%d\r\n"
	.section	.text.bl_send_cfg_task_req,"ax",@progbits
	.align	1
	.globl	bl_send_cfg_task_req
	.type	bl_send_cfg_task_req, @function
bl_send_cfg_task_req:
.LFB63:
	.loc 1 992 1
	.cfi_startproc
	addi	sp,sp,-64
	.cfi_def_cfa_offset 64
	sw	ra,60(sp)
	sw	s0,56(sp)
	.cfi_offset 1, -4
	.cfi_offset 8, -8
	addi	s0,sp,64
	.cfi_def_cfa 8, 0
	sw	a0,-36(s0)
	sw	a1,-40(s0)
	sw	a2,-44(s0)
	sw	a3,-48(s0)
	sw	a4,-52(s0)
	sw	a5,-56(s0)
	sw	a6,-60(s0)
	.loc 1 998 11
	li	a3,36
	li	a2,100
	li	a1,12
	li	a0,12288
	call	bl_msg_zalloc
	sw	a0,-20(s0)
	.loc 1 999 8
	lw	a5,-20(s0)
	bne	a5,zero,.L158
	.loc 1 1000 16
	li	a5,-12
	j	.L159
.L158:
	.loc 1 1004 14
	lw	a5,-20(s0)
	lw	a4,-40(s0)
	sw	a4,0(a5)
	.loc 1 1005 16
	lw	a5,-20(s0)
	lw	a5,0(a5)
	.loc 1 1005 5
	li	a4,3
	beq	a5,a4,.L160
	li	a4,3
	bgtu	a5,a4,.L170
	li	a4,2
	beq	a5,a4,.L171
	li	a4,2
	bgtu	a5,a4,.L170
	beq	a5,zero,.L163
	li	a4,1
	beq	a5,a4,.L172
	j	.L170
.L163:
	.loc 1 1008 32
	lw	a5,-20(s0)
	lw	a4,-44(s0)
	sw	a4,4(a5)
	.loc 1 1009 35
	lw	a5,-20(s0)
	lw	a4,-48(s0)
	sw	a4,8(a5)
	.loc 1 1010 32
	lw	a5,-20(s0)
	lw	a4,-52(s0)
	sw	a4,12(a5)
	.loc 1 1012 30
	lw	a5,-20(s0)
	addi	a5,a5,20
	.loc 1 1011 36
	lw	a4,-52(s0)
	slli	a4,a4,16
	srli	a4,a4,16
	lw	a3,-56(s0)
	mv	a2,a4
	li	a1,8
	mv	a0,a5
	call	utils_tlv_bl_pack_auto
	mv	a5,a0
	.loc 1 1011 36 is_stmt 0 discriminator 1
	mv	a4,a5
	.loc 1 1011 34 is_stmt 1 discriminator 1
	lw	a5,-20(s0)
	sw	a4,16(a5)
	.loc 1 1018 9
	j	.L165
.L160:
	.loc 1 1031 32
	lw	a5,-20(s0)
	lw	a4,-44(s0)
	sw	a4,4(a5)
	.loc 1 1032 35
	lw	a5,-20(s0)
	lw	a4,-48(s0)
	sw	a4,8(a5)
	.loc 1 1033 34
	lw	a5,-20(s0)
	sw	zero,16(a5)
	.loc 1 1035 9
	j	.L165
.L170:
.LBB6:
.LBB7:
	.file 2 "/home/chandu/sdk/bl602_iot_sdk/components/freertos/portable/GCC/RISC-V/portmacro.h"
	.loc 2 181 31
	lui	a5,%hi(TrapNetCounter)
	lw	a5,%lo(TrapNetCounter)(a5)
	snez	a5,a5
	andi	a5,a5,0xff
.LBE7:
.LBE6:
	.loc 1 1039 37 discriminator 2
	beq	a5,zero,.L167
	.loc 1 1039 118 discriminator 3
	call	xTaskGetTickCountFromISR
	mv	a1,a0
	j	.L168
.L167:
	.loc 1 1039 147 discriminator 4
	call	xTaskGetTickCount
	mv	a1,a0
.L168:
	.loc 1 1039 37 discriminator 8
	li	a6,1039
	lui	a5,%hi(.LC12)
	addi	a5,a5,%lo(.LC12)
	li	a4,1039
	lui	a3,%hi(.LC12)
	addi	a3,a3,%lo(.LC12)
	lui	a2,%hi(.LC13)
	addi	a2,a2,%lo(.LC13)
	lui	a0,%hi(.LC14)
	addi	a0,a0,%lo(.LC14)
	call	bl_printk
.L169:
	.loc 1 1039 260
	nop
	j	.L169
.L171:
	.loc 1 1028 9
	nop
	j	.L165
.L172:
	.loc 1 1023 9
	nop
.L165:
	.loc 1 1044 12
	li	a4,0
	li	a5,12288
	addi	a3,a5,1
	li	a2,1
	lw	a1,-20(s0)
	lw	a0,-36(s0)
	call	bl_send_msg
	mv	a5,a0
.L159:
	.loc 1 1045 1
	mv	a0,a5
	lw	ra,60(sp)
	.cfi_restore 1
	lw	s0,56(sp)
	.cfi_restore 8
	.cfi_def_cfa 2, 64
	addi	sp,sp,64
	.cfi_def_cfa_offset 0
	jr	ra
	.cfi_endproc
.LFE63:
	.size	bl_send_cfg_task_req, .-bl_send_cfg_task_req
	.section	.text.bl_send_channel_set_req,"ax",@progbits
	.align	1
	.globl	bl_send_channel_set_req
	.type	bl_send_channel_set_req, @function
bl_send_channel_set_req:
.LFB64:
	.loc 1 1048 1
	.cfi_startproc
	addi	sp,sp,-48
	.cfi_def_cfa_offset 48
	sw	ra,44(sp)
	sw	s0,40(sp)
	.cfi_offset 1, -4
	.cfi_offset 8, -8
	addi	s0,sp,48
	.cfi_def_cfa 8, 0
	sw	a0,-36(s0)
	sw	a1,-40(s0)
	.loc 1 1055 13
	li	a3,10
	li	a2,100
	li	a1,0
	li	a0,16
	call	bl_msg_zalloc
	sw	a0,-20(s0)
	.loc 1 1056 8
	lw	a5,-20(s0)
	bne	a5,zero,.L174
	.loc 1 1057 16
	li	a5,-12
	j	.L176
.L174:
	.loc 1 1059 5
	addi	a5,s0,-24
	li	a2,2
	li	a1,0
	mv	a0,a5
	call	memset
	.loc 1 1061 17
	lw	a5,-20(s0)
	sb	zero,0(a5)
	.loc 1 1062 17
	lw	a5,-20(s0)
	sb	zero,1(a5)
	.loc 1 1063 51
	lw	a5,-20(s0)
	lbu	a5,0(a5)
	.loc 1 1063 26
	lw	a1,-40(s0)
	mv	a0,a5
	call	phy_channel_to_freq
	mv	a5,a0
	mv	a4,a5
	.loc 1 1063 24 discriminator 1
	lw	a5,-20(s0)
	sh	a4,2(a5)
	.loc 1 1064 52
	lw	a5,-20(s0)
	lbu	a5,0(a5)
	.loc 1 1064 27
	lw	a1,-40(s0)
	mv	a0,a5
	call	phy_channel_to_freq
	mv	a5,a0
	mv	a4,a5
	.loc 1 1064 25 discriminator 1
	lw	a5,-20(s0)
	sh	a4,4(a5)
	.loc 1 1065 52
	lw	a5,-20(s0)
	lbu	a5,0(a5)
	.loc 1 1065 27
	lw	a1,-40(s0)
	mv	a0,a5
	call	phy_channel_to_freq
	mv	a5,a0
	mv	a4,a5
	.loc 1 1065 25 discriminator 1
	lw	a5,-20(s0)
	sh	a4,6(a5)
	.loc 1 1066 18
	lw	a5,-20(s0)
	sb	zero,8(a5)
	.loc 1 1067 21
	lw	a5,-20(s0)
	li	a4,15
	sb	a4,9(a5)
	.loc 1 1069 12
	addi	a5,s0,-24
	mv	a4,a5
	li	a3,17
	li	a2,1
	lw	a1,-20(s0)
	lw	a0,-36(s0)
	call	bl_send_msg
	mv	a5,a0
.L176:
	.loc 1 1070 1
	mv	a0,a5
	lw	ra,44(sp)
	.cfi_restore 1
	lw	s0,40(sp)
	.cfi_restore 8
	.cfi_def_cfa 2, 48
	addi	sp,sp,48
	.cfi_def_cfa_offset 0
	jr	ra
	.cfi_endproc
.LFE64:
	.size	bl_send_channel_set_req, .-bl_send_channel_set_req
	.section	.rodata.__func__.2,"a"
	.align	2
	.type	__func__.2, @object
	.size	__func__.2, 12
__func__.2:
	.string	"bl_send_msg"
	.section	.rodata.__func__.1,"a"
	.align	2
	.type	__func__.1, @object
	.size	__func__.1, 14
__func__.1:
	.string	"bl_msg_zalloc"
	.section	.rodata.__func__.0,"a"
	.align	2
	.type	__func__.0, @object
	.size	__func__.0, 23
__func__.0:
	.string	"bl_send_sm_connect_req"
	.text
.Letext0:
	.file 3 "/home/chandu/sdk/bl602_iot_sdk/toolchain/compiler/lib/gcc/riscv32-unknown-elf/15.1.0/include/stddef.h"
	.file 4 "/home/chandu/sdk/bl602_iot_sdk/toolchain/compiler/lib/gcc/riscv32-unknown-elf/15.1.0/include/stdint-gcc.h"
	.file 5 "/home/chandu/sdk/bl602_iot_sdk/components/freertos/include/FreeRTOS.h"
	.file 6 "/home/chandu/sdk/bl602_iot_sdk/components/bl602/bl602_wifidrv/bl60x_wifi_driver/lmac_types.h"
	.file 7 "/home/chandu/sdk/bl602_iot_sdk/components/bl602/bl602_wifidrv/bl60x_wifi_driver/lmac_mac.h"
	.file 8 "/home/chandu/sdk/bl602_iot_sdk/components/bl602/bl602_wifidrv/bl60x_wifi_driver/ipc_shared.h"
	.file 9 "/home/chandu/sdk/bl602_iot_sdk/components/bl602/bl602_wifidrv/bl60x_wifi_driver/ipc_host.h"
	.file 10 "/home/chandu/sdk/bl602_iot_sdk/components/bl602/bl602_wifidrv/bl60x_wifi_driver/list.h"
	.file 11 "/home/chandu/sdk/bl602_iot_sdk/components/bl602/bl602_wifidrv/bl60x_wifi_driver/lmac_msg.h"
	.file 12 "/home/chandu/sdk/bl602_iot_sdk/components/utils/include/utils_tlv_bl.h"
	.file 13 "/home/chandu/sdk/bl602_iot_sdk/components/freertos/include/queue.h"
	.file 14 "/home/chandu/sdk/bl602_iot_sdk/components/freertos/include/semphr.h"
	.file 15 "/home/chandu/sdk/bl602_iot_sdk/components/bl602/bl602_wifidrv/bl60x_wifi_driver/os_hal.h"
	.file 16 "/home/chandu/sdk/bl602_iot_sdk/components/bl602/bl602_wifidrv/bl60x_wifi_driver/bl_cmds.h"
	.file 17 "/home/chandu/sdk/bl602_iot_sdk/components/bl602/bl602_wifidrv/bl60x_wifi_driver/bl_defs.h"
	.file 18 "/home/chandu/sdk/bl602_iot_sdk/components/bl602/bl602_wifidrv/bl60x_wifi_driver/ieee80211.h"
	.file 19 "/home/chandu/sdk/bl602_iot_sdk/components/bl602/bl602_wifidrv/bl60x_wifi_driver/nl80211.h"
	.file 20 "/home/chandu/sdk/bl602_iot_sdk/components/bl602/bl602_wifidrv/bl60x_wifi_driver/cfg80211.h"
	.file 21 "/home/chandu/sdk/bl602_iot_sdk/components/bl602/bl602_wifidrv/bl60x_wifi_driver/bl_mod_params.h"
	.file 22 "/home/chandu/sdk/bl602_iot_sdk/components/bl602/bl602_wifidrv/bl60x_wifi_driver/bl_utils.h"
	.file 23 "/home/chandu/sdk/bl602_iot_sdk/components/freertos/include/task.h"
	.file 24 "/home/chandu/sdk/bl602_iot_sdk/toolchain/compiler/riscv32-unknown-elf/include/string.h"
	.file 25 "/home/chandu/sdk/bl602_iot_sdk/components/freertos/include/portable.h"
	.file 26 "/home/chandu/sdk/bl602_iot_sdk/components/utils/include/utils_log.h"
	.file 27 "/home/chandu/sdk/bl602_iot_sdk/toolchain/compiler/riscv32-unknown-elf/include/stdio.h"
	.section	.note.GNU-stack,"",@progbits
