	.file	"bl_rx.c"
	.option nopic
	.attribute arch, "rv32i2p1_m2p0_f2p2_c2p0_zicsr2p0_zmmul1p0_zca1p0_zcf1p0"
	.attribute unaligned_access, 0
	.attribute stack_align, 16
	.text
.Ltext0:
	.cfi_sections	.debug_frame
	.file 0 "/home/chandu/sdk/bl602_iot_sdk/customer_app/suas_app_pqkem_gateway/build_out/bl602_wifidrv" "/home/chandu/sdk/bl602_iot_sdk/components/bl602/bl602_wifidrv/bl60x_wifi_driver/bl_rx.c"
	.section	.text.ieee80211_is_beacon,"ax",@progbits
	.align	1
	.type	ieee80211_is_beacon, @function
ieee80211_is_beacon:
.LFB26:
	.file 1 "/home/chandu/sdk/bl602_iot_sdk/components/bl602/bl602_wifidrv/bl60x_wifi_driver/ieee80211.h"
	.loc 1 460 1
	.cfi_startproc
	addi	sp,sp,-32
	.cfi_def_cfa_offset 32
	sw	ra,28(sp)
	sw	s0,24(sp)
	.cfi_offset 1, -4
	.cfi_offset 8, -8
	addi	s0,sp,32
	.cfi_def_cfa 8, 0
	mv	a5,a0
	sh	a5,-18(s0)
	.loc 1 461 16
	lhu	a5,-18(s0)
	andi	a5,a5,252
	.loc 1 461 37
	addi	a5,a5,-128
	seqz	a5,a5
	andi	a5,a5,0xff
	.loc 1 463 1
	mv	a0,a5
	lw	ra,28(sp)
	.cfi_restore 1
	lw	s0,24(sp)
	.cfi_restore 8
	.cfi_def_cfa 2, 32
	addi	sp,sp,32
	.cfi_def_cfa_offset 0
	jr	ra
	.cfi_endproc
.LFE26:
	.size	ieee80211_is_beacon, .-ieee80211_is_beacon
	.section	.text.ieee80211_is_probe_resp,"ax",@progbits
	.align	1
	.type	ieee80211_is_probe_resp, @function
ieee80211_is_probe_resp:
.LFB30:
	.loc 1 500 1
	.cfi_startproc
	addi	sp,sp,-32
	.cfi_def_cfa_offset 32
	sw	ra,28(sp)
	sw	s0,24(sp)
	.cfi_offset 1, -4
	.cfi_offset 8, -8
	addi	s0,sp,32
	.cfi_def_cfa 8, 0
	mv	a5,a0
	sh	a5,-18(s0)
	.loc 1 501 20
	lhu	a5,-18(s0)
	andi	a5,a5,252
	.loc 1 501 41
	addi	a5,a5,-80
	seqz	a5,a5
	andi	a5,a5,0xff
	.loc 1 503 1
	mv	a0,a5
	lw	ra,28(sp)
	.cfi_restore 1
	lw	s0,24(sp)
	.cfi_restore 8
	.cfi_def_cfa 2, 32
	addi	sp,sp,32
	.cfi_def_cfa_offset 0
	jr	ra
	.cfi_endproc
.LFE30:
	.size	ieee80211_is_probe_resp, .-ieee80211_is_probe_resp
	.section	.sbss.cb_sm_connect_ind,"aw",@nobits
	.align	2
	.type	cb_sm_connect_ind, @object
	.size	cb_sm_connect_ind, 4
cb_sm_connect_ind:
	.zero	4
	.section	.sbss.cb_sm_connect_ind_env,"aw",@nobits
	.align	2
	.type	cb_sm_connect_ind_env, @object
	.size	cb_sm_connect_ind_env, 4
cb_sm_connect_ind_env:
	.zero	4
	.section	.sbss.cb_sm_disconnect_ind,"aw",@nobits
	.align	2
	.type	cb_sm_disconnect_ind, @object
	.size	cb_sm_disconnect_ind, 4
cb_sm_disconnect_ind:
	.zero	4
	.section	.sbss.cb_sm_disconnect_ind_env,"aw",@nobits
	.align	2
	.type	cb_sm_disconnect_ind_env, @object
	.size	cb_sm_disconnect_ind_env, 4
cb_sm_disconnect_ind_env:
	.zero	4
	.section	.sbss.cb_beacon_ind,"aw",@nobits
	.align	2
	.type	cb_beacon_ind, @object
	.size	cb_beacon_ind, 4
cb_beacon_ind:
	.zero	4
	.section	.sbss.cb_beacon_ind_env,"aw",@nobits
	.align	2
	.type	cb_beacon_ind_env, @object
	.size	cb_beacon_ind_env, 4
cb_beacon_ind_env:
	.zero	4
	.section	.sbss.cb_probe_resp_ind,"aw",@nobits
	.align	2
	.type	cb_probe_resp_ind, @object
	.size	cb_probe_resp_ind, 4
cb_probe_resp_ind:
	.zero	4
	.section	.sbss.cb_probe_resp_ind_env,"aw",@nobits
	.align	2
	.type	cb_probe_resp_ind_env, @object
	.size	cb_probe_resp_ind_env, 4
cb_probe_resp_ind_env:
	.zero	4
	.section	.sbss.cb_pkt,"aw",@nobits
	.align	2
	.type	cb_pkt, @object
	.size	cb_pkt, 4
cb_pkt:
	.zero	4
	.section	.sbss.cb_pkt_env,"aw",@nobits
	.align	2
	.type	cb_pkt_env, @object
	.size	cb_pkt_env, 4
cb_pkt_env:
	.zero	4
	.section	.sbss.cb_rssi,"aw",@nobits
	.align	2
	.type	cb_rssi, @object
	.size	cb_rssi, 4
cb_rssi:
	.zero	4
	.section	.sbss.cb_rssi_env,"aw",@nobits
	.align	2
	.type	cb_rssi_env, @object
	.size	cb_rssi_env, 4
cb_rssi_env:
	.zero	4
	.section	.sbss.cb_event,"aw",@nobits
	.align	2
	.type	cb_event, @object
	.size	cb_event, 4
cb_event:
	.zero	4
	.section	.sbss.cb_event_env,"aw",@nobits
	.align	2
	.type	cb_event_env, @object
	.size	cb_event_env, 4
cb_event_env:
	.zero	4
	.section	.rodata
	.align	2
.LC0:
	.string	"sm connect ind ok"
	.align	2
.LC1:
	.string	"tx auth frame alloc failure"
	.align	2
.LC2:
	.string	"Authentication failure"
	.align	2
.LC3:
	.string	"Auth response but auth algo failure"
	.align	2
.LC4:
	.string	"tx assoc frame alloc failure"
	.align	2
.LC5:
	.string	"Association failure"
	.align	2
.LC6:
	.string	"deauth by AP but state error"
	.align	2
.LC7:
	.string	"deauth by AP when connecting"
	.align	2
.LC8:
	.string	"Passwd error, 4-way handshake timeout"
	.align	2
.LC9:
	.string	"Passwd error, tx deauth frame transmit failure"
	.align	2
.LC10:
	.string	"Passwd error, tx deauth frame allocate failure"
	.align	2
.LC11:
	.string	"tx auth or associate frame transmit failure"
	.align	2
.LC12:
	.string	"SSID error, scan no bssid and channel"
	.align	2
.LC13:
	.string	"create channel context failure when join network"
	.align	2
.LC14:
	.string	"join network failure"
	.align	2
.LC15:
	.string	"add sta failure"
	.section	.rodata.reason_list,"a"
	.align	2
	.type	reason_list, @object
	.size	reason_list, 128
reason_list:
	.half	0
	.zero	2
	.word	.LC0
	.half	1
	.zero	2
	.word	.LC1
	.half	2
	.zero	2
	.word	.LC2
	.half	3
	.zero	2
	.word	.LC3
	.half	4
	.zero	2
	.word	.LC4
	.half	5
	.zero	2
	.word	.LC5
	.half	6
	.zero	2
	.word	.LC6
	.half	7
	.zero	2
	.word	.LC7
	.half	8
	.zero	2
	.word	.LC8
	.half	9
	.zero	2
	.word	.LC9
	.half	10
	.zero	2
	.word	.LC10
	.half	11
	.zero	2
	.word	.LC11
	.half	12
	.zero	2
	.word	.LC12
	.half	13
	.zero	2
	.word	.LC13
	.half	14
	.zero	2
	.word	.LC14
	.half	15
	.zero	2
	.word	.LC15
	.section	.text.bl_rx_sm_connect_ind_cb_register,"ax",@progbits
	.align	1
	.globl	bl_rx_sm_connect_ind_cb_register
	.type	bl_rx_sm_connect_ind_cb_register, @function
bl_rx_sm_connect_ind_cb_register:
.LFB34:
	.file 2 "/home/chandu/sdk/bl602_iot_sdk/components/bl602/bl602_wifidrv/bl60x_wifi_driver/bl_rx.c"
	.loc 2 85 1
	.cfi_startproc
	addi	sp,sp,-32
	.cfi_def_cfa_offset 32
	sw	ra,28(sp)
	sw	s0,24(sp)
	.cfi_offset 1, -4
	.cfi_offset 8, -8
	addi	s0,sp,32
	.cfi_def_cfa 8, 0
	sw	a0,-20(s0)
	sw	a1,-24(s0)
	.loc 2 86 23
	lui	a5,%hi(cb_sm_connect_ind)
	lw	a4,-24(s0)
	sw	a4,%lo(cb_sm_connect_ind)(a5)
	.loc 2 87 27
	lui	a5,%hi(cb_sm_connect_ind_env)
	lw	a4,-20(s0)
	sw	a4,%lo(cb_sm_connect_ind_env)(a5)
	.loc 2 89 12
	li	a5,0
	.loc 2 90 1
	mv	a0,a5
	lw	ra,28(sp)
	.cfi_restore 1
	lw	s0,24(sp)
	.cfi_restore 8
	.cfi_def_cfa 2, 32
	addi	sp,sp,32
	.cfi_def_cfa_offset 0
	jr	ra
	.cfi_endproc
.LFE34:
	.size	bl_rx_sm_connect_ind_cb_register, .-bl_rx_sm_connect_ind_cb_register
	.section	.text.bl_rx_sm_connect_ind_cb_unregister,"ax",@progbits
	.align	1
	.globl	bl_rx_sm_connect_ind_cb_unregister
	.type	bl_rx_sm_connect_ind_cb_unregister, @function
bl_rx_sm_connect_ind_cb_unregister:
.LFB35:
	.loc 2 94 1
	.cfi_startproc
	addi	sp,sp,-32
	.cfi_def_cfa_offset 32
	sw	ra,28(sp)
	sw	s0,24(sp)
	.cfi_offset 1, -4
	.cfi_offset 8, -8
	addi	s0,sp,32
	.cfi_def_cfa 8, 0
	sw	a0,-20(s0)
	sw	a1,-24(s0)
	.loc 2 95 23
	lui	a5,%hi(cb_sm_connect_ind)
	sw	zero,%lo(cb_sm_connect_ind)(a5)
	.loc 2 96 27
	lui	a5,%hi(cb_sm_connect_ind_env)
	sw	zero,%lo(cb_sm_connect_ind_env)(a5)
	.loc 2 98 12
	li	a5,0
	.loc 2 99 1
	mv	a0,a5
	lw	ra,28(sp)
	.cfi_restore 1
	lw	s0,24(sp)
	.cfi_restore 8
	.cfi_def_cfa 2, 32
	addi	sp,sp,32
	.cfi_def_cfa_offset 0
	jr	ra
	.cfi_endproc
.LFE35:
	.size	bl_rx_sm_connect_ind_cb_unregister, .-bl_rx_sm_connect_ind_cb_unregister
	.section	.text.bl_rx_sm_disconnect_ind_cb_register,"ax",@progbits
	.align	1
	.globl	bl_rx_sm_disconnect_ind_cb_register
	.type	bl_rx_sm_disconnect_ind_cb_register, @function
bl_rx_sm_disconnect_ind_cb_register:
.LFB36:
	.loc 2 102 1
	.cfi_startproc
	addi	sp,sp,-32
	.cfi_def_cfa_offset 32
	sw	ra,28(sp)
	sw	s0,24(sp)
	.cfi_offset 1, -4
	.cfi_offset 8, -8
	addi	s0,sp,32
	.cfi_def_cfa 8, 0
	sw	a0,-20(s0)
	sw	a1,-24(s0)
	.loc 2 103 26
	lui	a5,%hi(cb_sm_disconnect_ind)
	lw	a4,-24(s0)
	sw	a4,%lo(cb_sm_disconnect_ind)(a5)
	.loc 2 104 30
	lui	a5,%hi(cb_sm_disconnect_ind_env)
	lw	a4,-20(s0)
	sw	a4,%lo(cb_sm_disconnect_ind_env)(a5)
	.loc 2 106 12
	li	a5,0
	.loc 2 107 1
	mv	a0,a5
	lw	ra,28(sp)
	.cfi_restore 1
	lw	s0,24(sp)
	.cfi_restore 8
	.cfi_def_cfa 2, 32
	addi	sp,sp,32
	.cfi_def_cfa_offset 0
	jr	ra
	.cfi_endproc
.LFE36:
	.size	bl_rx_sm_disconnect_ind_cb_register, .-bl_rx_sm_disconnect_ind_cb_register
	.section	.text.bl_rx_sm_disconnect_ind_cb_unregister,"ax",@progbits
	.align	1
	.globl	bl_rx_sm_disconnect_ind_cb_unregister
	.type	bl_rx_sm_disconnect_ind_cb_unregister, @function
bl_rx_sm_disconnect_ind_cb_unregister:
.LFB37:
	.loc 2 111 1
	.cfi_startproc
	addi	sp,sp,-32
	.cfi_def_cfa_offset 32
	sw	ra,28(sp)
	sw	s0,24(sp)
	.cfi_offset 1, -4
	.cfi_offset 8, -8
	addi	s0,sp,32
	.cfi_def_cfa 8, 0
	sw	a0,-20(s0)
	sw	a1,-24(s0)
	.loc 2 112 26
	lui	a5,%hi(cb_sm_disconnect_ind)
	sw	zero,%lo(cb_sm_disconnect_ind)(a5)
	.loc 2 113 30
	lui	a5,%hi(cb_sm_disconnect_ind_env)
	sw	zero,%lo(cb_sm_disconnect_ind_env)(a5)
	.loc 2 115 12
	li	a5,0
	.loc 2 116 1
	mv	a0,a5
	lw	ra,28(sp)
	.cfi_restore 1
	lw	s0,24(sp)
	.cfi_restore 8
	.cfi_def_cfa 2, 32
	addi	sp,sp,32
	.cfi_def_cfa_offset 0
	jr	ra
	.cfi_endproc
.LFE37:
	.size	bl_rx_sm_disconnect_ind_cb_unregister, .-bl_rx_sm_disconnect_ind_cb_unregister
	.section	.text.bl_rx_beacon_ind_cb_register,"ax",@progbits
	.align	1
	.globl	bl_rx_beacon_ind_cb_register
	.type	bl_rx_beacon_ind_cb_register, @function
bl_rx_beacon_ind_cb_register:
.LFB38:
	.loc 2 119 1
	.cfi_startproc
	addi	sp,sp,-32
	.cfi_def_cfa_offset 32
	sw	ra,28(sp)
	sw	s0,24(sp)
	.cfi_offset 1, -4
	.cfi_offset 8, -8
	addi	s0,sp,32
	.cfi_def_cfa 8, 0
	sw	a0,-20(s0)
	sw	a1,-24(s0)
	.loc 2 120 19
	lui	a5,%hi(cb_beacon_ind)
	lw	a4,-24(s0)
	sw	a4,%lo(cb_beacon_ind)(a5)
	.loc 2 121 23
	lui	a5,%hi(cb_beacon_ind_env)
	lw	a4,-20(s0)
	sw	a4,%lo(cb_beacon_ind_env)(a5)
	.loc 2 123 12
	li	a5,0
	.loc 2 124 1
	mv	a0,a5
	lw	ra,28(sp)
	.cfi_restore 1
	lw	s0,24(sp)
	.cfi_restore 8
	.cfi_def_cfa 2, 32
	addi	sp,sp,32
	.cfi_def_cfa_offset 0
	jr	ra
	.cfi_endproc
.LFE38:
	.size	bl_rx_beacon_ind_cb_register, .-bl_rx_beacon_ind_cb_register
	.section	.text.bl_rx_beacon_ind_cb_unregister,"ax",@progbits
	.align	1
	.globl	bl_rx_beacon_ind_cb_unregister
	.type	bl_rx_beacon_ind_cb_unregister, @function
bl_rx_beacon_ind_cb_unregister:
.LFB39:
	.loc 2 128 1
	.cfi_startproc
	addi	sp,sp,-32
	.cfi_def_cfa_offset 32
	sw	ra,28(sp)
	sw	s0,24(sp)
	.cfi_offset 1, -4
	.cfi_offset 8, -8
	addi	s0,sp,32
	.cfi_def_cfa 8, 0
	sw	a0,-20(s0)
	sw	a1,-24(s0)
	.loc 2 129 19
	lui	a5,%hi(cb_beacon_ind)
	sw	zero,%lo(cb_beacon_ind)(a5)
	.loc 2 130 23
	lui	a5,%hi(cb_beacon_ind_env)
	sw	zero,%lo(cb_beacon_ind_env)(a5)
	.loc 2 132 12
	li	a5,0
	.loc 2 133 1
	mv	a0,a5
	lw	ra,28(sp)
	.cfi_restore 1
	lw	s0,24(sp)
	.cfi_restore 8
	.cfi_def_cfa 2, 32
	addi	sp,sp,32
	.cfi_def_cfa_offset 0
	jr	ra
	.cfi_endproc
.LFE39:
	.size	bl_rx_beacon_ind_cb_unregister, .-bl_rx_beacon_ind_cb_unregister
	.section	.text.bl_rx_probe_resp_ind_cb_register,"ax",@progbits
	.align	1
	.globl	bl_rx_probe_resp_ind_cb_register
	.type	bl_rx_probe_resp_ind_cb_register, @function
bl_rx_probe_resp_ind_cb_register:
.LFB40:
	.loc 2 136 1
	.cfi_startproc
	addi	sp,sp,-32
	.cfi_def_cfa_offset 32
	sw	ra,28(sp)
	sw	s0,24(sp)
	.cfi_offset 1, -4
	.cfi_offset 8, -8
	addi	s0,sp,32
	.cfi_def_cfa 8, 0
	sw	a0,-20(s0)
	sw	a1,-24(s0)
	.loc 2 137 23
	lui	a5,%hi(cb_probe_resp_ind)
	lw	a4,-24(s0)
	sw	a4,%lo(cb_probe_resp_ind)(a5)
	.loc 2 138 27
	lui	a5,%hi(cb_probe_resp_ind_env)
	lw	a4,-20(s0)
	sw	a4,%lo(cb_probe_resp_ind_env)(a5)
	.loc 2 140 12
	li	a5,0
	.loc 2 141 1
	mv	a0,a5
	lw	ra,28(sp)
	.cfi_restore 1
	lw	s0,24(sp)
	.cfi_restore 8
	.cfi_def_cfa 2, 32
	addi	sp,sp,32
	.cfi_def_cfa_offset 0
	jr	ra
	.cfi_endproc
.LFE40:
	.size	bl_rx_probe_resp_ind_cb_register, .-bl_rx_probe_resp_ind_cb_register
	.section	.text.bl_rx_probe_resp_ind_cb_unregister,"ax",@progbits
	.align	1
	.globl	bl_rx_probe_resp_ind_cb_unregister
	.type	bl_rx_probe_resp_ind_cb_unregister, @function
bl_rx_probe_resp_ind_cb_unregister:
.LFB41:
	.loc 2 145 1
	.cfi_startproc
	addi	sp,sp,-32
	.cfi_def_cfa_offset 32
	sw	ra,28(sp)
	sw	s0,24(sp)
	.cfi_offset 1, -4
	.cfi_offset 8, -8
	addi	s0,sp,32
	.cfi_def_cfa 8, 0
	sw	a0,-20(s0)
	sw	a1,-24(s0)
	.loc 2 146 23
	lui	a5,%hi(cb_probe_resp_ind)
	sw	zero,%lo(cb_probe_resp_ind)(a5)
	.loc 2 147 27
	lui	a5,%hi(cb_probe_resp_ind_env)
	sw	zero,%lo(cb_probe_resp_ind_env)(a5)
	.loc 2 149 12
	li	a5,0
	.loc 2 150 1
	mv	a0,a5
	lw	ra,28(sp)
	.cfi_restore 1
	lw	s0,24(sp)
	.cfi_restore 8
	.cfi_def_cfa 2, 32
	addi	sp,sp,32
	.cfi_def_cfa_offset 0
	jr	ra
	.cfi_endproc
.LFE41:
	.size	bl_rx_probe_resp_ind_cb_unregister, .-bl_rx_probe_resp_ind_cb_unregister
	.section	.text.bl_rx_pkt_cb_register,"ax",@progbits
	.align	1
	.globl	bl_rx_pkt_cb_register
	.type	bl_rx_pkt_cb_register, @function
bl_rx_pkt_cb_register:
.LFB42:
	.loc 2 154 1
	.cfi_startproc
	addi	sp,sp,-32
	.cfi_def_cfa_offset 32
	sw	ra,28(sp)
	sw	s0,24(sp)
	.cfi_offset 1, -4
	.cfi_offset 8, -8
	addi	s0,sp,32
	.cfi_def_cfa 8, 0
	sw	a0,-20(s0)
	sw	a1,-24(s0)
	.loc 2 155 12
	lui	a5,%hi(cb_pkt)
	lw	a4,-24(s0)
	sw	a4,%lo(cb_pkt)(a5)
	.loc 2 156 16
	lui	a5,%hi(cb_pkt_env)
	lw	a4,-20(s0)
	sw	a4,%lo(cb_pkt_env)(a5)
	.loc 2 158 12
	li	a5,0
	.loc 2 159 1
	mv	a0,a5
	lw	ra,28(sp)
	.cfi_restore 1
	lw	s0,24(sp)
	.cfi_restore 8
	.cfi_def_cfa 2, 32
	addi	sp,sp,32
	.cfi_def_cfa_offset 0
	jr	ra
	.cfi_endproc
.LFE42:
	.size	bl_rx_pkt_cb_register, .-bl_rx_pkt_cb_register
	.section	.text.bl_rx_pkt_cb_unregister,"ax",@progbits
	.align	1
	.globl	bl_rx_pkt_cb_unregister
	.type	bl_rx_pkt_cb_unregister, @function
bl_rx_pkt_cb_unregister:
.LFB43:
	.loc 2 163 1
	.cfi_startproc
	addi	sp,sp,-32
	.cfi_def_cfa_offset 32
	sw	ra,28(sp)
	sw	s0,24(sp)
	.cfi_offset 1, -4
	.cfi_offset 8, -8
	addi	s0,sp,32
	.cfi_def_cfa 8, 0
	sw	a0,-20(s0)
	.loc 2 164 12
	lui	a5,%hi(cb_pkt)
	sw	zero,%lo(cb_pkt)(a5)
	.loc 2 165 16
	lui	a5,%hi(cb_pkt_env)
	sw	zero,%lo(cb_pkt_env)(a5)
	.loc 2 167 12
	li	a5,0
	.loc 2 168 1
	mv	a0,a5
	lw	ra,28(sp)
	.cfi_restore 1
	lw	s0,24(sp)
	.cfi_restore 8
	.cfi_def_cfa 2, 32
	addi	sp,sp,32
	.cfi_def_cfa_offset 0
	jr	ra
	.cfi_endproc
.LFE43:
	.size	bl_rx_pkt_cb_unregister, .-bl_rx_pkt_cb_unregister
	.section	.text.bl_rx_rssi_cb_register,"ax",@progbits
	.align	1
	.globl	bl_rx_rssi_cb_register
	.type	bl_rx_rssi_cb_register, @function
bl_rx_rssi_cb_register:
.LFB44:
	.loc 2 172 1
	.cfi_startproc
	addi	sp,sp,-32
	.cfi_def_cfa_offset 32
	sw	ra,28(sp)
	sw	s0,24(sp)
	.cfi_offset 1, -4
	.cfi_offset 8, -8
	addi	s0,sp,32
	.cfi_def_cfa 8, 0
	sw	a0,-20(s0)
	sw	a1,-24(s0)
	.loc 2 173 13
	lui	a5,%hi(cb_rssi)
	lw	a4,-24(s0)
	sw	a4,%lo(cb_rssi)(a5)
	.loc 2 174 17
	lui	a5,%hi(cb_rssi_env)
	lw	a4,-20(s0)
	sw	a4,%lo(cb_rssi_env)(a5)
	.loc 2 176 12
	li	a5,0
	.loc 2 177 1
	mv	a0,a5
	lw	ra,28(sp)
	.cfi_restore 1
	lw	s0,24(sp)
	.cfi_restore 8
	.cfi_def_cfa 2, 32
	addi	sp,sp,32
	.cfi_def_cfa_offset 0
	jr	ra
	.cfi_endproc
.LFE44:
	.size	bl_rx_rssi_cb_register, .-bl_rx_rssi_cb_register
	.section	.text.bl_rx_rssi_cb_unregister,"ax",@progbits
	.align	1
	.globl	bl_rx_rssi_cb_unregister
	.type	bl_rx_rssi_cb_unregister, @function
bl_rx_rssi_cb_unregister:
.LFB45:
	.loc 2 180 1
	.cfi_startproc
	addi	sp,sp,-32
	.cfi_def_cfa_offset 32
	sw	ra,28(sp)
	sw	s0,24(sp)
	.cfi_offset 1, -4
	.cfi_offset 8, -8
	addi	s0,sp,32
	.cfi_def_cfa 8, 0
	sw	a0,-20(s0)
	sw	a1,-24(s0)
	.loc 2 181 13
	lui	a5,%hi(cb_rssi)
	sw	zero,%lo(cb_rssi)(a5)
	.loc 2 182 17
	lui	a5,%hi(cb_rssi_env)
	sw	zero,%lo(cb_rssi_env)(a5)
	.loc 2 184 12
	li	a5,0
	.loc 2 185 1
	mv	a0,a5
	lw	ra,28(sp)
	.cfi_restore 1
	lw	s0,24(sp)
	.cfi_restore 8
	.cfi_def_cfa 2, 32
	addi	sp,sp,32
	.cfi_def_cfa_offset 0
	jr	ra
	.cfi_endproc
.LFE45:
	.size	bl_rx_rssi_cb_unregister, .-bl_rx_rssi_cb_unregister
	.section	.text.bl_rx_event_register,"ax",@progbits
	.align	1
	.globl	bl_rx_event_register
	.type	bl_rx_event_register, @function
bl_rx_event_register:
.LFB46:
	.loc 2 189 1
	.cfi_startproc
	addi	sp,sp,-32
	.cfi_def_cfa_offset 32
	sw	ra,28(sp)
	sw	s0,24(sp)
	.cfi_offset 1, -4
	.cfi_offset 8, -8
	addi	s0,sp,32
	.cfi_def_cfa 8, 0
	sw	a0,-20(s0)
	sw	a1,-24(s0)
	.loc 2 190 14
	lui	a5,%hi(cb_event)
	lw	a4,-24(s0)
	sw	a4,%lo(cb_event)(a5)
	.loc 2 191 18
	lui	a5,%hi(cb_event_env)
	lw	a4,-20(s0)
	sw	a4,%lo(cb_event_env)(a5)
	.loc 2 193 12
	li	a5,0
	.loc 2 194 1
	mv	a0,a5
	lw	ra,28(sp)
	.cfi_restore 1
	lw	s0,24(sp)
	.cfi_restore 8
	.cfi_def_cfa 2, 32
	addi	sp,sp,32
	.cfi_def_cfa_offset 0
	jr	ra
	.cfi_endproc
.LFE46:
	.size	bl_rx_event_register, .-bl_rx_event_register
	.section	.text.bl_rx_event_unregister,"ax",@progbits
	.align	1
	.globl	bl_rx_event_unregister
	.type	bl_rx_event_unregister, @function
bl_rx_event_unregister:
.LFB47:
	.loc 2 197 1
	.cfi_startproc
	addi	sp,sp,-32
	.cfi_def_cfa_offset 32
	sw	ra,28(sp)
	sw	s0,24(sp)
	.cfi_offset 1, -4
	.cfi_offset 8, -8
	addi	s0,sp,32
	.cfi_def_cfa 8, 0
	sw	a0,-20(s0)
	.loc 2 198 14
	lui	a5,%hi(cb_event)
	sw	zero,%lo(cb_event)(a5)
	.loc 2 199 18
	lui	a5,%hi(cb_event_env)
	sw	zero,%lo(cb_event_env)(a5)
	.loc 2 201 12
	li	a5,0
	.loc 2 202 1
	mv	a0,a5
	lw	ra,28(sp)
	.cfi_restore 1
	lw	s0,24(sp)
	.cfi_restore 8
	.cfi_def_cfa 2, 32
	addi	sp,sp,32
	.cfi_def_cfa_offset 0
	jr	ra
	.cfi_endproc
.LFE47:
	.size	bl_rx_event_unregister, .-bl_rx_event_unregister
	.section	.text.notify_event_channel_switch,"ax",@progbits
	.align	1
	.type	notify_event_channel_switch, @function
notify_event_channel_switch:
.LFB48:
	.loc 2 205 1
	.cfi_startproc
	addi	sp,sp,-48
	.cfi_def_cfa_offset 48
	sw	ra,44(sp)
	sw	s0,40(sp)
	.cfi_offset 1, -4
	.cfi_offset 8, -8
	addi	s0,sp,48
	.cfi_def_cfa 8, 0
	sw	a0,-36(s0)
	.loc 2 210 11
	addi	a5,s0,-32
	sw	a5,-20(s0)
	.loc 2 211 9
	lw	a5,-20(s0)
	addi	a5,a5,4
	sw	a5,-24(s0)
	.loc 2 212 5
	li	a2,4
	li	a1,0
	lw	a0,-20(s0)
	call	memset
	.loc 2 213 5
	li	a2,4
	li	a1,0
	lw	a0,-24(s0)
	call	memset
	.loc 2 215 15
	lw	a5,-20(s0)
	lbu	a4,0(a5)
	andi	a4,a4,0
	sb	a4,0(a5)
	lbu	a4,1(a5)
	andi	a4,a4,0
	sb	a4,1(a5)
	lbu	a4,2(a5)
	andi	a4,a4,0
	sb	a4,2(a5)
	lbu	a4,3(a5)
	andi	a4,a4,0
	sb	a4,3(a5)
	.loc 2 216 18
	lw	a5,-24(s0)
	lw	a4,-36(s0)
	andi	a4,a4,255
	lbu	a3,0(a5)
	andi	a3,a3,0
	or	a4,a3,a4
	sb	a4,0(a5)
	lw	a4,-36(s0)
	srli	a4,a4,8
	andi	a4,a4,255
	lbu	a3,1(a5)
	andi	a3,a3,0
	or	a4,a3,a4
	sb	a4,1(a5)
	lw	a4,-36(s0)
	srli	a4,a4,16
	andi	a4,a4,255
	lbu	a3,2(a5)
	andi	a3,a3,0
	or	a4,a3,a4
	sb	a4,2(a5)
	lw	a4,-36(s0)
	srli	a4,a4,24
	lbu	a3,3(a5)
	andi	a3,a3,0
	or	a4,a3,a4
	sb	a4,3(a5)
	.loc 2 219 9
	lui	a5,%hi(cb_event)
	lw	a5,%lo(cb_event)(a5)
	.loc 2 219 8
	beq	a5,zero,.L35
	.loc 2 220 9
	lui	a5,%hi(cb_event)
	lw	a5,%lo(cb_event)(a5)
	lui	a4,%hi(cb_event_env)
	lw	a4,%lo(cb_event_env)(a4)
	lw	a1,-20(s0)
	mv	a0,a4
	jalr	a5
.LVL0:
.L35:
	.loc 2 222 1
	nop
	lw	ra,44(sp)
	.cfi_restore 1
	lw	s0,40(sp)
	.cfi_restore 8
	.cfi_def_cfa 2, 48
	addi	sp,sp,48
	.cfi_def_cfa_offset 0
	jr	ra
	.cfi_endproc
.LFE48:
	.size	notify_event_channel_switch, .-notify_event_channel_switch
	.section	.text.notify_event_scan_done,"ax",@progbits
	.align	1
	.type	notify_event_scan_done, @function
notify_event_scan_done:
.LFB49:
	.loc 2 225 1
	.cfi_startproc
	addi	sp,sp,-48
	.cfi_def_cfa_offset 48
	sw	ra,44(sp)
	sw	s0,40(sp)
	.cfi_offset 1, -4
	.cfi_offset 8, -8
	addi	s0,sp,48
	.cfi_def_cfa 8, 0
	sw	a0,-36(s0)
	.loc 2 230 11
	addi	a5,s0,-32
	sw	a5,-20(s0)
	.loc 2 231 9
	lw	a5,-20(s0)
	addi	a5,a5,4
	sw	a5,-24(s0)
	.loc 2 232 5
	li	a2,4
	li	a1,0
	lw	a0,-20(s0)
	call	memset
	.loc 2 233 5
	li	a2,4
	li	a1,0
	lw	a0,-24(s0)
	call	memset
	.loc 2 235 31
	lw	a5,-36(s0)
	beq	a5,zero,.L37
	.loc 2 235 31 is_stmt 0 discriminator 1
	li	a4,2
	j	.L38
.L37:
	.loc 2 235 31 discriminator 2
	li	a4,1
.L38:
	.loc 2 235 15 is_stmt 1 discriminator 4
	lw	a5,-20(s0)
	andi	a3,a4,255
	lbu	a2,0(a5)
	andi	a2,a2,0
	or	a3,a2,a3
	sb	a3,0(a5)
	srli	a3,a4,8
	andi	a3,a3,255
	lbu	a2,1(a5)
	andi	a2,a2,0
	or	a3,a2,a3
	sb	a3,1(a5)
	srli	a3,a4,16
	andi	a3,a3,255
	lbu	a2,2(a5)
	andi	a2,a2,0
	or	a3,a2,a3
	sb	a3,2(a5)
	srli	a4,a4,24
	lbu	a3,3(a5)
	andi	a3,a3,0
	or	a4,a3,a4
	sb	a4,3(a5)
	.loc 2 236 18
	lw	a5,-24(s0)
	lbu	a4,0(a5)
	andi	a4,a4,0
	ori	a4,a4,-20
	sb	a4,0(a5)
	lbu	a4,1(a5)
	andi	a4,a4,0
	sb	a4,1(a5)
	lbu	a4,2(a5)
	andi	a4,a4,0
	sb	a4,2(a5)
	lbu	a4,3(a5)
	andi	a4,a4,0
	sb	a4,3(a5)
	.loc 2 239 9
	lui	a5,%hi(cb_event)
	lw	a5,%lo(cb_event)(a5)
	.loc 2 239 8
	beq	a5,zero,.L40
	.loc 2 240 9
	lui	a5,%hi(cb_event)
	lw	a5,%lo(cb_event)(a5)
	lui	a4,%hi(cb_event_env)
	lw	a4,%lo(cb_event_env)(a4)
	lw	a1,-20(s0)
	mv	a0,a4
	jalr	a5
.LVL1:
.L40:
	.loc 2 242 1
	nop
	lw	ra,44(sp)
	.cfi_restore 1
	lw	s0,40(sp)
	.cfi_restore 8
	.cfi_def_cfa 2, 48
	addi	sp,sp,48
	.cfi_def_cfa_offset 0
	jr	ra
	.cfi_endproc
.LFE49:
	.size	notify_event_scan_done, .-notify_event_scan_done
	.section	.text.bl_rx_chan_switch_ind,"ax",@progbits
	.align	1
	.type	bl_rx_chan_switch_ind, @function
bl_rx_chan_switch_ind:
.LFB50:
	.loc 2 246 1
	.cfi_startproc
	addi	sp,sp,-48
	.cfi_def_cfa_offset 48
	sw	ra,44(sp)
	sw	s0,40(sp)
	.cfi_offset 1, -4
	.cfi_offset 8, -8
	addi	s0,sp,48
	.cfi_def_cfa 8, 0
	sw	a0,-36(s0)
	sw	a1,-40(s0)
	sw	a2,-44(s0)
	.loc 2 247 35
	lw	a5,-44(s0)
	addi	a5,a5,8
	sw	a5,-20(s0)
	.loc 2 250 36
	lw	a5,-20(s0)
	lbu	a5,0(a5)
	.loc 2 250 5
	mv	a0,a5
	call	notify_event_channel_switch
	.loc 2 252 12
	li	a5,0
	.loc 2 253 1
	mv	a0,a5
	lw	ra,44(sp)
	.cfi_restore 1
	lw	s0,40(sp)
	.cfi_restore 8
	.cfi_def_cfa 2, 48
	addi	sp,sp,48
	.cfi_def_cfa_offset 0
	jr	ra
	.cfi_endproc
.LFE50:
	.size	bl_rx_chan_switch_ind, .-bl_rx_chan_switch_ind
	.section	.text.bl_rx_chan_pre_switch_ind,"ax",@progbits
	.align	1
	.type	bl_rx_chan_pre_switch_ind, @function
bl_rx_chan_pre_switch_ind:
.LFB51:
	.loc 2 257 1
	.cfi_startproc
	addi	sp,sp,-32
	.cfi_def_cfa_offset 32
	sw	ra,28(sp)
	sw	s0,24(sp)
	.cfi_offset 1, -4
	.cfi_offset 8, -8
	addi	s0,sp,32
	.cfi_def_cfa 8, 0
	sw	a0,-20(s0)
	sw	a1,-24(s0)
	sw	a2,-28(s0)
	.loc 2 261 12
	li	a5,0
	.loc 2 262 1
	mv	a0,a5
	lw	ra,28(sp)
	.cfi_restore 1
	lw	s0,24(sp)
	.cfi_restore 8
	.cfi_def_cfa 2, 32
	addi	sp,sp,32
	.cfi_def_cfa_offset 0
	jr	ra
	.cfi_endproc
.LFE51:
	.size	bl_rx_chan_pre_switch_ind, .-bl_rx_chan_pre_switch_ind
	.section	.text.bl_rx_remain_on_channel_exp_ind,"ax",@progbits
	.align	1
	.type	bl_rx_remain_on_channel_exp_ind, @function
bl_rx_remain_on_channel_exp_ind:
.LFB52:
	.loc 2 266 1
	.cfi_startproc
	addi	sp,sp,-32
	.cfi_def_cfa_offset 32
	sw	ra,28(sp)
	sw	s0,24(sp)
	.cfi_offset 1, -4
	.cfi_offset 8, -8
	addi	s0,sp,32
	.cfi_def_cfa 8, 0
	sw	a0,-20(s0)
	sw	a1,-24(s0)
	sw	a2,-28(s0)
	.loc 2 269 12
	li	a5,0
	.loc 2 270 1
	mv	a0,a5
	lw	ra,28(sp)
	.cfi_restore 1
	lw	s0,24(sp)
	.cfi_restore 8
	.cfi_def_cfa 2, 32
	addi	sp,sp,32
	.cfi_def_cfa_offset 0
	jr	ra
	.cfi_endproc
.LFE52:
	.size	bl_rx_remain_on_channel_exp_ind, .-bl_rx_remain_on_channel_exp_ind
	.section	.text.bl_rx_ps_change_ind,"ax",@progbits
	.align	1
	.type	bl_rx_ps_change_ind, @function
bl_rx_ps_change_ind:
.LFB53:
	.loc 2 274 1
	.cfi_startproc
	addi	sp,sp,-32
	.cfi_def_cfa_offset 32
	sw	ra,28(sp)
	sw	s0,24(sp)
	.cfi_offset 1, -4
	.cfi_offset 8, -8
	addi	s0,sp,32
	.cfi_def_cfa 8, 0
	sw	a0,-20(s0)
	sw	a1,-24(s0)
	sw	a2,-28(s0)
	.loc 2 277 12
	li	a5,0
	.loc 2 278 1
	mv	a0,a5
	lw	ra,28(sp)
	.cfi_restore 1
	lw	s0,24(sp)
	.cfi_restore 8
	.cfi_def_cfa 2, 32
	addi	sp,sp,32
	.cfi_def_cfa_offset 0
	jr	ra
	.cfi_endproc
.LFE53:
	.size	bl_rx_ps_change_ind, .-bl_rx_ps_change_ind
	.section	.text.bl_rx_traffic_req_ind,"ax",@progbits
	.align	1
	.type	bl_rx_traffic_req_ind, @function
bl_rx_traffic_req_ind:
.LFB54:
	.loc 2 282 1
	.cfi_startproc
	addi	sp,sp,-32
	.cfi_def_cfa_offset 32
	sw	ra,28(sp)
	sw	s0,24(sp)
	.cfi_offset 1, -4
	.cfi_offset 8, -8
	addi	s0,sp,32
	.cfi_def_cfa 8, 0
	sw	a0,-20(s0)
	sw	a1,-24(s0)
	sw	a2,-28(s0)
	.loc 2 285 12
	li	a5,0
	.loc 2 286 1
	mv	a0,a5
	lw	ra,28(sp)
	.cfi_restore 1
	lw	s0,24(sp)
	.cfi_restore 8
	.cfi_def_cfa 2, 32
	addi	sp,sp,32
	.cfi_def_cfa_offset 0
	jr	ra
	.cfi_endproc
.LFE54:
	.size	bl_rx_traffic_req_ind, .-bl_rx_traffic_req_ind
	.section	.text.bl_rx_csa_counter_ind,"ax",@progbits
	.align	1
	.type	bl_rx_csa_counter_ind, @function
bl_rx_csa_counter_ind:
.LFB55:
	.loc 2 290 1
	.cfi_startproc
	addi	sp,sp,-32
	.cfi_def_cfa_offset 32
	sw	ra,28(sp)
	sw	s0,24(sp)
	.cfi_offset 1, -4
	.cfi_offset 8, -8
	addi	s0,sp,32
	.cfi_def_cfa 8, 0
	sw	a0,-20(s0)
	sw	a1,-24(s0)
	sw	a2,-28(s0)
	.loc 2 293 12
	li	a5,0
	.loc 2 294 1
	mv	a0,a5
	lw	ra,28(sp)
	.cfi_restore 1
	lw	s0,24(sp)
	.cfi_restore 8
	.cfi_def_cfa 2, 32
	addi	sp,sp,32
	.cfi_def_cfa_offset 0
	jr	ra
	.cfi_endproc
.LFE55:
	.size	bl_rx_csa_counter_ind, .-bl_rx_csa_counter_ind
	.section	.text.bl_rx_csa_finish_ind,"ax",@progbits
	.align	1
	.type	bl_rx_csa_finish_ind, @function
bl_rx_csa_finish_ind:
.LFB56:
	.loc 2 298 1
	.cfi_startproc
	addi	sp,sp,-32
	.cfi_def_cfa_offset 32
	sw	ra,28(sp)
	sw	s0,24(sp)
	.cfi_offset 1, -4
	.cfi_offset 8, -8
	addi	s0,sp,32
	.cfi_def_cfa 8, 0
	sw	a0,-20(s0)
	sw	a1,-24(s0)
	sw	a2,-28(s0)
	.loc 2 301 12
	li	a5,0
	.loc 2 302 1
	mv	a0,a5
	lw	ra,28(sp)
	.cfi_restore 1
	lw	s0,24(sp)
	.cfi_restore 8
	.cfi_def_cfa 2, 32
	addi	sp,sp,32
	.cfi_def_cfa_offset 0
	jr	ra
	.cfi_endproc
.LFE56:
	.size	bl_rx_csa_finish_ind, .-bl_rx_csa_finish_ind
	.section	.text.bl_rx_csa_traffic_ind,"ax",@progbits
	.align	1
	.type	bl_rx_csa_traffic_ind, @function
bl_rx_csa_traffic_ind:
.LFB57:
	.loc 2 306 1
	.cfi_startproc
	addi	sp,sp,-32
	.cfi_def_cfa_offset 32
	sw	ra,28(sp)
	sw	s0,24(sp)
	.cfi_offset 1, -4
	.cfi_offset 8, -8
	addi	s0,sp,32
	.cfi_def_cfa 8, 0
	sw	a0,-20(s0)
	sw	a1,-24(s0)
	sw	a2,-28(s0)
	.loc 2 309 12
	li	a5,0
	.loc 2 310 1
	mv	a0,a5
	lw	ra,28(sp)
	.cfi_restore 1
	lw	s0,24(sp)
	.cfi_restore 8
	.cfi_def_cfa 2, 32
	addi	sp,sp,32
	.cfi_def_cfa_offset 0
	jr	ra
	.cfi_endproc
.LFE57:
	.size	bl_rx_csa_traffic_ind, .-bl_rx_csa_traffic_ind
	.section	.text.bl_rx_channel_survey_ind,"ax",@progbits
	.align	1
	.type	bl_rx_channel_survey_ind, @function
bl_rx_channel_survey_ind:
.LFB58:
	.loc 2 314 1
	.cfi_startproc
	addi	sp,sp,-32
	.cfi_def_cfa_offset 32
	sw	ra,28(sp)
	sw	s0,24(sp)
	.cfi_offset 1, -4
	.cfi_offset 8, -8
	addi	s0,sp,32
	.cfi_def_cfa 8, 0
	sw	a0,-20(s0)
	sw	a1,-24(s0)
	sw	a2,-28(s0)
	.loc 2 317 12
	li	a5,0
	.loc 2 318 1
	mv	a0,a5
	lw	ra,28(sp)
	.cfi_restore 1
	lw	s0,24(sp)
	.cfi_restore 8
	.cfi_def_cfa 2, 32
	addi	sp,sp,32
	.cfi_def_cfa_offset 0
	jr	ra
	.cfi_endproc
.LFE58:
	.size	bl_rx_channel_survey_ind, .-bl_rx_channel_survey_ind
	.section	.text.bl_rx_rssi_status_ind,"ax",@progbits
	.align	1
	.type	bl_rx_rssi_status_ind, @function
bl_rx_rssi_status_ind:
.LFB59:
	.loc 2 322 1
	.cfi_startproc
	addi	sp,sp,-48
	.cfi_def_cfa_offset 48
	sw	ra,44(sp)
	sw	s0,40(sp)
	.cfi_offset 1, -4
	.cfi_offset 8, -8
	addi	s0,sp,48
	.cfi_def_cfa 8, 0
	sw	a0,-36(s0)
	sw	a1,-40(s0)
	sw	a2,-44(s0)
	.loc 2 323 32
	lw	a5,-44(s0)
	addi	a5,a5,8
	sw	a5,-20(s0)
	.loc 2 328 9
	lui	a5,%hi(cb_rssi)
	lw	a5,%lo(cb_rssi)(a5)
	.loc 2 328 8
	beq	a5,zero,.L60
	.loc 2 329 9
	lui	a5,%hi(cb_rssi)
	lw	a5,%lo(cb_rssi)(a5)
	lui	a4,%hi(cb_rssi_env)
	lw	a3,%lo(cb_rssi_env)(a4)
	.loc 2 329 33
	lw	a4,-20(s0)
	lb	a4,2(a4)
	.loc 2 329 9
	mv	a1,a4
	mv	a0,a3
	jalr	a5
.LVL2:
.L60:
	.loc 2 333 12
	li	a5,0
	.loc 2 334 1
	mv	a0,a5
	lw	ra,44(sp)
	.cfi_restore 1
	lw	s0,40(sp)
	.cfi_restore 8
	.cfi_def_cfa 2, 48
	addi	sp,sp,48
	.cfi_def_cfa_offset 0
	jr	ra
	.cfi_endproc
.LFE59:
	.size	bl_rx_rssi_status_ind, .-bl_rx_rssi_status_ind
	.section	.rodata.mm_hdlrs,"a"
	.align	2
	.type	mm_hdlrs, @object
	.size	mm_hdlrs, 384
mm_hdlrs:
	.zero	272
	.word	bl_rx_chan_switch_ind
	.word	bl_rx_chan_pre_switch_ind
	.zero	8
	.word	bl_rx_remain_on_channel_exp_ind
	.word	bl_rx_ps_change_ind
	.word	bl_rx_traffic_req_ind
	.zero	12
	.word	bl_rx_csa_counter_ind
	.word	bl_rx_channel_survey_ind
	.zero	28
	.word	bl_rx_rssi_status_ind
	.word	bl_rx_csa_finish_ind
	.word	bl_rx_csa_traffic_ind
	.zero	24
	.section	.text.bl_rx_dbg_error_ind,"ax",@progbits
	.align	1
	.type	bl_rx_dbg_error_ind, @function
bl_rx_dbg_error_ind:
.LFB60:
	.loc 2 358 1
	.cfi_startproc
	addi	sp,sp,-32
	.cfi_def_cfa_offset 32
	sw	ra,28(sp)
	sw	s0,24(sp)
	.cfi_offset 1, -4
	.cfi_offset 8, -8
	addi	s0,sp,32
	.cfi_def_cfa 8, 0
	sw	a0,-20(s0)
	sw	a1,-24(s0)
	sw	a2,-28(s0)
	.loc 2 361 12
	li	a5,0
	.loc 2 362 1
	mv	a0,a5
	lw	ra,28(sp)
	.cfi_restore 1
	lw	s0,24(sp)
	.cfi_restore 8
	.cfi_def_cfa 2, 32
	addi	sp,sp,32
	.cfi_def_cfa_offset 0
	jr	ra
	.cfi_endproc
.LFE60:
	.size	bl_rx_dbg_error_ind, .-bl_rx_dbg_error_ind
	.section	.rodata.dbg_hdlrs,"a"
	.align	2
	.type	dbg_hdlrs, @object
	.size	dbg_hdlrs, 44
dbg_hdlrs:
	.zero	32
	.word	bl_rx_dbg_error_ind
	.zero	8
	.section	.text.bl_rx_tdls_chan_switch_cfm,"ax",@progbits
	.align	1
	.type	bl_rx_tdls_chan_switch_cfm, @function
bl_rx_tdls_chan_switch_cfm:
.LFB61:
	.loc 2 371 1
	.cfi_startproc
	addi	sp,sp,-32
	.cfi_def_cfa_offset 32
	sw	ra,28(sp)
	sw	s0,24(sp)
	.cfi_offset 1, -4
	.cfi_offset 8, -8
	addi	s0,sp,32
	.cfi_def_cfa 8, 0
	sw	a0,-20(s0)
	sw	a1,-24(s0)
	sw	a2,-28(s0)
	.loc 2 374 12
	li	a5,0
	.loc 2 375 1
	mv	a0,a5
	lw	ra,28(sp)
	.cfi_restore 1
	lw	s0,24(sp)
	.cfi_restore 8
	.cfi_def_cfa 2, 32
	addi	sp,sp,32
	.cfi_def_cfa_offset 0
	jr	ra
	.cfi_endproc
.LFE61:
	.size	bl_rx_tdls_chan_switch_cfm, .-bl_rx_tdls_chan_switch_cfm
	.section	.text.bl_rx_tdls_chan_switch_ind,"ax",@progbits
	.align	1
	.type	bl_rx_tdls_chan_switch_ind, @function
bl_rx_tdls_chan_switch_ind:
.LFB62:
	.loc 2 380 1
	.cfi_startproc
	addi	sp,sp,-32
	.cfi_def_cfa_offset 32
	sw	ra,28(sp)
	sw	s0,24(sp)
	.cfi_offset 1, -4
	.cfi_offset 8, -8
	addi	s0,sp,32
	.cfi_def_cfa 8, 0
	sw	a0,-20(s0)
	sw	a1,-24(s0)
	sw	a2,-28(s0)
	.loc 2 387 12
	li	a5,0
	.loc 2 388 1
	mv	a0,a5
	lw	ra,28(sp)
	.cfi_restore 1
	lw	s0,24(sp)
	.cfi_restore 8
	.cfi_def_cfa 2, 32
	addi	sp,sp,32
	.cfi_def_cfa_offset 0
	jr	ra
	.cfi_endproc
.LFE62:
	.size	bl_rx_tdls_chan_switch_ind, .-bl_rx_tdls_chan_switch_ind
	.section	.text.bl_rx_tdls_chan_switch_base_ind,"ax",@progbits
	.align	1
	.type	bl_rx_tdls_chan_switch_base_ind, @function
bl_rx_tdls_chan_switch_base_ind:
.LFB63:
	.loc 2 392 1
	.cfi_startproc
	addi	sp,sp,-32
	.cfi_def_cfa_offset 32
	sw	ra,28(sp)
	sw	s0,24(sp)
	.cfi_offset 1, -4
	.cfi_offset 8, -8
	addi	s0,sp,32
	.cfi_def_cfa 8, 0
	sw	a0,-20(s0)
	sw	a1,-24(s0)
	sw	a2,-28(s0)
	.loc 2 395 12
	li	a5,0
	.loc 2 396 1
	mv	a0,a5
	lw	ra,28(sp)
	.cfi_restore 1
	lw	s0,24(sp)
	.cfi_restore 8
	.cfi_def_cfa 2, 32
	addi	sp,sp,32
	.cfi_def_cfa_offset 0
	jr	ra
	.cfi_endproc
.LFE63:
	.size	bl_rx_tdls_chan_switch_base_ind, .-bl_rx_tdls_chan_switch_base_ind
	.section	.text.bl_rx_tdls_peer_ps_ind,"ax",@progbits
	.align	1
	.type	bl_rx_tdls_peer_ps_ind, @function
bl_rx_tdls_peer_ps_ind:
.LFB64:
	.loc 2 400 1
	.cfi_startproc
	addi	sp,sp,-32
	.cfi_def_cfa_offset 32
	sw	ra,28(sp)
	sw	s0,24(sp)
	.cfi_offset 1, -4
	.cfi_offset 8, -8
	addi	s0,sp,32
	.cfi_def_cfa 8, 0
	sw	a0,-20(s0)
	sw	a1,-24(s0)
	sw	a2,-28(s0)
	.loc 2 403 12
	li	a5,0
	.loc 2 404 1
	mv	a0,a5
	lw	ra,28(sp)
	.cfi_restore 1
	lw	s0,24(sp)
	.cfi_restore 8
	.cfi_def_cfa 2, 32
	addi	sp,sp,32
	.cfi_def_cfa_offset 0
	jr	ra
	.cfi_endproc
.LFE64:
	.size	bl_rx_tdls_peer_ps_ind, .-bl_rx_tdls_peer_ps_ind
	.section	.rodata.tdls_hdlrs,"a"
	.align	2
	.type	tdls_hdlrs, @object
	.size	tdls_hdlrs, 36
tdls_hdlrs:
	.zero	4
	.word	bl_rx_tdls_chan_switch_cfm
	.word	bl_rx_tdls_chan_switch_ind
	.word	bl_rx_tdls_chan_switch_base_ind
	.zero	8
	.word	bl_rx_tdls_peer_ps_ind
	.zero	8
	.section	.text.bl_rx_scanu_start_cfm,"ax",@progbits
	.align	1
	.type	bl_rx_scanu_start_cfm, @function
bl_rx_scanu_start_cfm:
.LFB65:
	.loc 2 415 1
	.cfi_startproc
	addi	sp,sp,-32
	.cfi_def_cfa_offset 32
	sw	ra,28(sp)
	sw	s0,24(sp)
	.cfi_offset 1, -4
	.cfi_offset 8, -8
	addi	s0,sp,32
	.cfi_def_cfa 8, 0
	sw	a0,-20(s0)
	sw	a1,-24(s0)
	sw	a2,-28(s0)
	.loc 2 431 5
	li	a0,0
	call	notify_event_scan_done
	.loc 2 434 12
	li	a5,0
	.loc 2 435 1
	mv	a0,a5
	lw	ra,28(sp)
	.cfi_restore 1
	lw	s0,24(sp)
	.cfi_restore 8
	.cfi_def_cfa 2, 32
	addi	sp,sp,32
	.cfi_def_cfa_offset 0
	jr	ra
	.cfi_endproc
.LFE65:
	.size	bl_rx_scanu_start_cfm, .-bl_rx_scanu_start_cfm
	.section	.text.bl_rx_scanu_join_cfm,"ax",@progbits
	.align	1
	.type	bl_rx_scanu_join_cfm, @function
bl_rx_scanu_join_cfm:
.LFB66:
	.loc 2 438 1
	.cfi_startproc
	addi	sp,sp,-32
	.cfi_def_cfa_offset 32
	sw	ra,28(sp)
	sw	s0,24(sp)
	.cfi_offset 1, -4
	.cfi_offset 8, -8
	addi	s0,sp,32
	.cfi_def_cfa 8, 0
	sw	a0,-20(s0)
	sw	a1,-24(s0)
	sw	a2,-28(s0)
	.loc 2 439 5
	li	a0,1
	call	notify_event_scan_done
	.loc 2 441 12
	li	a5,0
	.loc 2 442 1
	mv	a0,a5
	lw	ra,28(sp)
	.cfi_restore 1
	lw	s0,24(sp)
	.cfi_restore 8
	.cfi_def_cfa 2, 32
	addi	sp,sp,32
	.cfi_def_cfa_offset 0
	jr	ra
	.cfi_endproc
.LFE66:
	.size	bl_rx_scanu_join_cfm, .-bl_rx_scanu_join_cfm
	.section	.text.find_ie_ssid,"ax",@progbits
	.align	1
	.type	find_ie_ssid, @function
find_ie_ssid:
.LFB67:
	.loc 2 445 1
	.cfi_startproc
	addi	sp,sp,-48
	.cfi_def_cfa_offset 48
	sw	ra,44(sp)
	sw	s0,40(sp)
	.cfi_offset 1, -4
	.cfi_offset 8, -8
	addi	s0,sp,48
	.cfi_def_cfa 8, 0
	sw	a0,-36(s0)
	sw	a1,-40(s0)
	sw	a2,-44(s0)
	sw	a3,-48(s0)
	.loc 2 448 7
	sw	zero,-20(s0)
	.loc 2 449 11
	j	.L77
.L81:
	.loc 2 451 27
	lw	a5,-36(s0)
	lbu	a5,0(a5)
	.loc 2 451 12
	bne	a5,zero,.L78
	.loc 2 452 23
	lw	a5,-36(s0)
	addi	a5,a5,1
	lbu	a4,0(a5)
	.loc 2 452 16
	li	a5,32
	bleu	a4,a5,.L79
	.loc 2 453 24
	li	a5,-1
	j	.L80
.L79:
	.loc 2 455 31
	lw	a5,-36(s0)
	addi	a5,a5,1
	lbu	a5,0(a5)
	mv	a4,a5
	.loc 2 455 23
	lw	a5,-48(s0)
	sw	a4,0(a5)
	.loc 2 456 28
	lw	a5,-36(s0)
	addi	a4,a5,2
	.loc 2 456 48
	lw	a5,-36(s0)
	addi	a5,a5,1
	lbu	a5,0(a5)
	.loc 2 456 13
	mv	a2,a5
	mv	a1,a4
	lw	a0,-44(s0)
	call	memcpy
	.loc 2 457 26
	lw	a5,-36(s0)
	addi	a5,a5,1
	lbu	a5,0(a5)
	mv	a4,a5
	.loc 2 457 19
	lw	a5,-44(s0)
	add	a5,a5,a4
	.loc 2 457 31
	sb	zero,0(a5)
	.loc 2 458 20
	li	a5,0
	j	.L80
.L78:
	.loc 2 461 24
	lw	a5,-36(s0)
	addi	a5,a5,1
	lbu	a5,0(a5)
	.loc 2 461 28
	addi	a5,a5,2
	.loc 2 461 15
	lw	a4,-20(s0)
	add	a5,a4,a5
	sw	a5,-20(s0)
	.loc 2 462 37
	lw	a5,-36(s0)
	addi	a5,a5,1
	lbu	a5,0(a5)
	.loc 2 462 41
	addi	a5,a5,2
	.loc 2 462 20
	lw	a4,-36(s0)
	add	a5,a4,a5
	sw	a5,-36(s0)
.L77:
	.loc 2 449 14
	lw	a4,-20(s0)
	lw	a5,-40(s0)
	blt	a4,a5,.L81
	.loc 2 466 12
	li	a5,-1
.L80:
	.loc 2 467 1
	mv	a0,a5
	lw	ra,44(sp)
	.cfi_restore 1
	lw	s0,40(sp)
	.cfi_restore 8
	.cfi_def_cfa 2, 48
	addi	sp,sp,48
	.cfi_def_cfa_offset 0
	jr	ra
	.cfi_endproc
.LFE67:
	.size	find_ie_ssid, .-find_ie_ssid
	.section	.text.find_ie_ds,"ax",@progbits
	.align	1
	.type	find_ie_ds, @function
find_ie_ds:
.LFB68:
	.loc 2 470 1
	.cfi_startproc
	addi	sp,sp,-48
	.cfi_def_cfa_offset 48
	sw	ra,44(sp)
	sw	s0,40(sp)
	.cfi_offset 1, -4
	.cfi_offset 8, -8
	addi	s0,sp,48
	.cfi_def_cfa 8, 0
	sw	a0,-36(s0)
	sw	a1,-40(s0)
	sw	a2,-44(s0)
	.loc 2 473 7
	sw	zero,-20(s0)
	.loc 2 474 11
	j	.L83
.L87:
	.loc 2 476 27
	lw	a5,-36(s0)
	lbu	a4,0(a5)
	.loc 2 476 12
	li	a5,3
	bne	a4,a5,.L84
	.loc 2 477 23
	lw	a5,-36(s0)
	addi	a5,a5,1
	lbu	a4,0(a5)
	.loc 2 477 16
	li	a5,32
	bleu	a4,a5,.L85
	.loc 2 478 24
	li	a5,-1
	j	.L86
.L85:
	.loc 2 480 21
	lw	a5,-36(s0)
	lbu	a4,2(a5)
	lw	a5,-44(s0)
	sb	a4,0(a5)
	.loc 2 481 20
	li	a5,0
	j	.L86
.L84:
	.loc 2 484 24
	lw	a5,-36(s0)
	addi	a5,a5,1
	lbu	a5,0(a5)
	.loc 2 484 28
	addi	a5,a5,2
	.loc 2 484 15
	lw	a4,-20(s0)
	add	a5,a4,a5
	sw	a5,-20(s0)
	.loc 2 485 37
	lw	a5,-36(s0)
	addi	a5,a5,1
	lbu	a5,0(a5)
	.loc 2 485 41
	addi	a5,a5,2
	.loc 2 485 20
	lw	a4,-36(s0)
	add	a5,a4,a5
	sw	a5,-36(s0)
.L83:
	.loc 2 474 14
	lw	a4,-20(s0)
	lw	a5,-40(s0)
	blt	a4,a5,.L87
	.loc 2 489 12
	li	a5,-1
.L86:
	.loc 2 490 1
	mv	a0,a5
	lw	ra,44(sp)
	.cfi_restore 1
	lw	s0,40(sp)
	.cfi_restore 8
	.cfi_def_cfa 2, 48
	addi	sp,sp,48
	.cfi_def_cfa_offset 0
	jr	ra
	.cfi_endproc
.LFE68:
	.size	find_ie_ds, .-find_ie_ds
	.section	.text.co_read8p,"ax",@progbits
	.align	1
	.type	co_read8p, @function
co_read8p:
.LFB69:
	.loc 2 499 1
	.cfi_startproc
	addi	sp,sp,-32
	.cfi_def_cfa_offset 32
	sw	ra,28(sp)
	sw	s0,24(sp)
	.cfi_offset 1, -4
	.cfi_offset 8, -8
	addi	s0,sp,32
	.cfi_def_cfa 8, 0
	sw	a0,-20(s0)
	.loc 2 500 14
	lw	a5,-20(s0)
	.loc 2 500 13
	lbu	a5,0(a5)
	.loc 2 501 1
	mv	a0,a5
	lw	ra,28(sp)
	.cfi_restore 1
	lw	s0,24(sp)
	.cfi_restore 8
	.cfi_def_cfa 2, 32
	addi	sp,sp,32
	.cfi_def_cfa_offset 0
	jr	ra
	.cfi_endproc
.LFE69:
	.size	co_read8p, .-co_read8p
	.section	.rodata
	.align	2
.LC16:
	.base64	"AFDyAQA="
	.align	2
.LC17:
	.string	"Probe Response\r\n"
	.align	2
.LC18:
	.string	"Bug Scan IND?\r\n"
	.section	.text.bl_rx_scanu_result_ind,"ax",@progbits
	.align	1
	.type	bl_rx_scanu_result_ind, @function
bl_rx_scanu_result_ind:
.LFB70:
	.loc 2 508 1
	.cfi_startproc
	addi	sp,sp,-160
	.cfi_def_cfa_offset 160
	sw	ra,156(sp)
	sw	s0,152(sp)
	.cfi_offset 1, -4
	.cfi_offset 8, -8
	addi	s0,sp,160
	.cfi_def_cfa 8, 0
	sw	a0,-148(s0)
	sw	a1,-152(s0)
	sw	a2,-156(s0)
	.loc 2 509 30
	lw	a5,-156(s0)
	addi	a5,a5,8
	sw	a5,-24(s0)
	.loc 2 510 28
	lw	a5,-24(s0)
	addi	a5,a5,28
	sw	a5,-28(s0)
	.loc 2 513 13
	sb	zero,-17(s0)
	.loc 2 515 13
	sb	zero,-18(s0)
	.loc 2 516 13
	sb	zero,-129(s0)
	.loc 2 518 5
	addi	a5,s0,-128
	li	a2,32
	li	a1,0
	mv	a0,a5
	call	memset
	.loc 2 520 9
	lw	a5,-28(s0)
	lhu	a5,0(a5)
	mv	a0,a5
	call	ieee80211_is_beacon
	mv	a5,a0
	.loc 2 520 8 discriminator 1
	beq	a5,zero,.L91
	.loc 2 521 13
	lui	a5,%hi(cb_beacon_ind)
	lw	a5,%lo(cb_beacon_ind)(a5)
	.loc 2 521 12
	beq	a5,zero,.L92
	.loc 2 522 13
	addi	a5,s0,-96
	li	a2,56
	li	a1,0
	mv	a0,a5
	call	memset
	.loc 2 524 39
	lw	a5,-28(s0)
	addi	a5,a5,36
	.loc 2 524 27
	sw	a5,-32(s0)
	.loc 2 525 31
	lw	a5,-24(s0)
	lhu	a5,0(a5)
	.loc 2 525 26
	addi	a5,a5,-36
	sw	a5,-36(s0)
	.loc 2 527 40
	lw	a5,-28(s0)
	addi	a4,a5,36
	.loc 2 527 54
	lw	a5,-24(s0)
	lhu	a5,0(a5)
	.loc 2 527 13
	mv	a1,a5
	addi	a5,s0,-96
	addi	a3,a5,52
	addi	a5,s0,-96
	addi	a5,a5,6
	mv	a2,a5
	mv	a0,a4
	call	find_ie_ssid
	.loc 2 528 38
	lw	a5,-28(s0)
	addi	a4,a5,36
	.loc 2 528 52
	lw	a5,-24(s0)
	lhu	a5,0(a5)
	.loc 2 528 13
	mv	a3,a5
	addi	a5,s0,-96
	addi	a5,a5,42
	mv	a2,a5
	mv	a1,a3
	mv	a0,a4
	call	find_ie_ds
	.loc 2 529 42
	lw	a5,-28(s0)
	lhu	a5,34(a5)
	.loc 2 529 17
	andi	a5,a5,16
	slli	a5,a5,16
	srli	a5,a5,16
	.loc 2 529 16
	beq	a5,zero,.L93
	.loc 2 532 29
	lw	a5,-36(s0)
	slli	a5,a5,16
	srli	a5,a5,16
	li	a2,48
	mv	a1,a5
	lw	a0,-32(s0)
	call	mac_ie_find
	sw	a0,-40(s0)
	.loc 2 533 20
	lw	a5,-40(s0)
	beq	a5,zero,.L94
	.loc 2 534 43
	lbu	a5,-47(s0)
	ori	a5,a5,32
	sb	a5,-47(s0)
	.loc 2 536 58
	lw	a5,-40(s0)
	addi	a5,a5,1
	.loc 2 536 38
	mv	a0,a5
	call	co_read8p
	mv	a5,a0
	.loc 2 536 36 discriminator 1
	addi	a5,a5,2
	sb	a5,-18(s0)
	.loc 2 537 21
	lw	a4,-40(s0)
	lbu	a3,-18(s0)
	addi	a5,s0,-128
	mv	a2,a3
	mv	a1,a4
	mv	a0,a5
	call	memcpy
	.loc 2 538 38
	addi	a3,s0,-129
	addi	a5,s0,-96
	addi	a2,a5,48
	addi	a5,s0,-96
	addi	a4,a5,47
	addi	a5,s0,-128
	mv	a1,a4
	mv	a0,a5
	call	process_rsn_ie
	mv	a5,a0
	sb	a5,-18(s0)
.L94:
	.loc 2 543 29
	lw	a5,-36(s0)
	slli	a4,a5,16
	srli	a4,a4,16
	li	a3,4
	lui	a5,%hi(.LC16)
	addi	a2,a5,%lo(.LC16)
	mv	a1,a4
	lw	a0,-32(s0)
	call	mac_vsie_find
	sw	a0,-40(s0)
	.loc 2 544 20
	lw	a5,-40(s0)
	beq	a5,zero,.L95
	.loc 2 545 42
	lbu	a5,-47(s0)
	ori	a5,a5,8
	sb	a5,-47(s0)
	.loc 2 547 23
	lbu	a5,-18(s0)
	bne	a5,zero,.L95
	.loc 2 549 62
	lw	a5,-40(s0)
	addi	a5,a5,1
	.loc 2 549 42
	mv	a0,a5
	call	co_read8p
	mv	a5,a0
	.loc 2 549 40 discriminator 1
	addi	a5,a5,2
	sb	a5,-18(s0)
	.loc 2 550 25
	lw	a4,-40(s0)
	lbu	a3,-18(s0)
	addi	a5,s0,-128
	mv	a2,a3
	mv	a1,a4
	mv	a0,a5
	call	memcpy
	.loc 2 551 42
	addi	a5,s0,-96
	addi	a3,a5,46
	addi	a5,s0,-96
	addi	a4,a5,45
	addi	a5,s0,-128
	mv	a2,a3
	mv	a1,a4
	mv	a0,a5
	call	process_wpa_ie
	mv	a5,a0
	sb	a5,-18(s0)
.L95:
	.loc 2 555 42
	lbu	a5,-47(s0)
	andi	a5,a5,8
	andi	a5,a5,0xff
	.loc 2 555 20
	beq	a5,zero,.L96
	.loc 2 555 72 discriminator 1
	lbu	a5,-47(s0)
	andi	a5,a5,32
	andi	a5,a5,0xff
	.loc 2 555 47 discriminator 1
	beq	a5,zero,.L96
	.loc 2 556 34
	li	a5,4
	sb	a5,-53(s0)
	.loc 2 557 53
	lbu	a5,-48(s0)
	andi	a5,a5,8
	andi	a5,a5,0xff
	.loc 2 557 24
	bne	a5,zero,.L97
	.loc 2 557 89 discriminator 1
	lbu	a5,-50(s0)
	andi	a5,a5,8
	andi	a5,a5,0xff
	.loc 2 557 58 discriminator 1
	beq	a5,zero,.L98
.L97:
	.loc 2 558 30
	lbu	a5,-17(s0)
	addi	a5,a5,1
	sb	a5,-17(s0)
.L98:
	.loc 2 561 53
	lbu	a5,-48(s0)
	andi	a5,a5,4
	andi	a5,a5,0xff
	.loc 2 561 24
	bne	a5,zero,.L99
	.loc 2 561 89 discriminator 1
	lbu	a5,-50(s0)
	andi	a5,a5,4
	andi	a5,a5,0xff
	.loc 2 561 58 discriminator 1
	beq	a5,zero,.L100
.L99:
	.loc 2 562 30
	lbu	a5,-17(s0)
	addi	a5,a5,1
	sb	a5,-17(s0)
	.loc 2 563 28
	lbu	a4,-17(s0)
	li	a5,2
	bne	a4,a5,.L101
	.loc 2 564 44
	li	a5,4
	sb	a5,-52(s0)
	.loc 2 568 25
	j	.L130
.L101:
	.loc 2 565 34
	lbu	a4,-17(s0)
	li	a5,1
	bne	a4,a5,.L130
	.loc 2 566 44
	li	a5,3
	sb	a5,-52(s0)
	.loc 2 568 25
	j	.L130
.L100:
	.loc 2 570 24
	lbu	a4,-17(s0)
	li	a5,1
	bne	a4,a5,.L103
	.loc 2 571 57
	lbu	a5,-49(s0)
	andi	a5,a5,8
	andi	a5,a5,0xff
	.loc 2 571 28
	bne	a5,zero,.L105
	.loc 2 571 93 discriminator 1
	lbu	a5,-51(s0)
	andi	a5,a5,8
	andi	a5,a5,0xff
	.loc 2 571 62 discriminator 1
	beq	a5,zero,.L106
.L105:
	.loc 2 572 44
	li	a5,2
	sb	a5,-52(s0)
	j	.L104
.L106:
	.loc 2 573 63
	lbu	a5,-49(s0)
	andi	a5,a5,4
	andi	a5,a5,0xff
	.loc 2 573 34
	bne	a5,zero,.L107
	.loc 2 573 99 discriminator 1
	lbu	a5,-51(s0)
	andi	a5,a5,4
	andi	a5,a5,0xff
	.loc 2 573 68 discriminator 1
	beq	a5,zero,.L108
.L107:
	.loc 2 574 44
	li	a5,4
	sb	a5,-52(s0)
	j	.L104
.L108:
	.loc 2 576 44
	li	a5,2
	sb	a5,-52(s0)
	.loc 2 570 24
	j	.L103
.L104:
	j	.L103
.L96:
	.loc 2 579 49
	lbu	a5,-47(s0)
	andi	a5,a5,8
	andi	a5,a5,0xff
	.loc 2 579 27
	beq	a5,zero,.L109
	.loc 2 580 34
	li	a5,2
	sb	a5,-53(s0)
	.loc 2 581 53
	lbu	a5,-50(s0)
	andi	a5,a5,8
	andi	a5,a5,0xff
	.loc 2 581 24
	beq	a5,zero,.L110
	.loc 2 582 30
	lbu	a5,-17(s0)
	addi	a5,a5,1
	sb	a5,-17(s0)
.L110:
	.loc 2 584 53
	lbu	a5,-50(s0)
	andi	a5,a5,4
	andi	a5,a5,0xff
	.loc 2 584 24
	beq	a5,zero,.L111
	.loc 2 585 30
	lbu	a5,-17(s0)
	addi	a5,a5,1
	sb	a5,-17(s0)
	.loc 2 586 28
	lbu	a4,-17(s0)
	li	a5,2
	bne	a4,a5,.L112
	.loc 2 587 44
	li	a5,4
	sb	a5,-52(s0)
	.loc 2 591 25
	j	.L131
.L112:
	.loc 2 588 34
	lbu	a4,-17(s0)
	li	a5,1
	bne	a4,a5,.L131
	.loc 2 589 44
	li	a5,3
	sb	a5,-52(s0)
	.loc 2 591 25
	j	.L131
.L111:
	.loc 2 593 24
	lbu	a4,-17(s0)
	li	a5,1
	bne	a4,a5,.L103
	.loc 2 594 57
	lbu	a5,-51(s0)
	andi	a5,a5,8
	andi	a5,a5,0xff
	.loc 2 594 28
	beq	a5,zero,.L114
	.loc 2 595 44
	li	a5,2
	sb	a5,-52(s0)
	j	.L103
.L114:
	.loc 2 596 63
	lbu	a5,-51(s0)
	andi	a5,a5,4
	andi	a5,a5,0xff
	.loc 2 596 34
	beq	a5,zero,.L115
	.loc 2 597 44
	li	a5,4
	sb	a5,-52(s0)
	j	.L103
.L115:
	.loc 2 599 44
	li	a5,2
	sb	a5,-52(s0)
	j	.L103
.L109:
	.loc 2 602 50
	lbu	a5,-47(s0)
	andi	a5,a5,32
	andi	a5,a5,0xff
	.loc 2 602 27
	beq	a5,zero,.L116
	.loc 2 603 34
	li	a5,3
	sb	a5,-53(s0)
	.loc 2 604 53
	lbu	a5,-48(s0)
	andi	a5,a5,8
	andi	a5,a5,0xff
	.loc 2 604 24
	beq	a5,zero,.L117
	.loc 2 605 30
	lbu	a5,-17(s0)
	addi	a5,a5,1
	sb	a5,-17(s0)
.L117:
	.loc 2 607 53
	lbu	a5,-48(s0)
	andi	a5,a5,4
	andi	a5,a5,0xff
	.loc 2 607 24
	beq	a5,zero,.L118
	.loc 2 608 30
	lbu	a5,-17(s0)
	addi	a5,a5,1
	sb	a5,-17(s0)
	.loc 2 609 28
	lbu	a4,-17(s0)
	li	a5,2
	bne	a4,a5,.L119
	.loc 2 610 44
	li	a5,4
	sb	a5,-52(s0)
	.loc 2 614 25
	j	.L132
.L119:
	.loc 2 611 34
	lbu	a4,-17(s0)
	li	a5,1
	bne	a4,a5,.L132
	.loc 2 612 44
	li	a5,3
	sb	a5,-52(s0)
	.loc 2 614 25
	j	.L132
.L118:
	.loc 2 616 24
	lbu	a4,-17(s0)
	li	a5,1
	bne	a4,a5,.L103
	.loc 2 617 57
	lbu	a5,-49(s0)
	andi	a5,a5,8
	andi	a5,a5,0xff
	.loc 2 617 28
	beq	a5,zero,.L121
	.loc 2 618 44
	li	a5,2
	sb	a5,-52(s0)
	j	.L103
.L121:
	.loc 2 619 63
	lbu	a5,-49(s0)
	andi	a5,a5,4
	andi	a5,a5,0xff
	.loc 2 619 34
	beq	a5,zero,.L122
	.loc 2 620 44
	li	a5,4
	sb	a5,-52(s0)
	j	.L103
.L122:
	.loc 2 622 44
	li	a5,2
	sb	a5,-52(s0)
	j	.L103
.L116:
	.loc 2 626 34
	li	a5,1
	sb	a5,-53(s0)
	.loc 2 627 36
	li	a5,1
	sb	a5,-52(s0)
	j	.L103
.L130:
	.loc 2 568 25
	nop
	j	.L103
.L131:
	.loc 2 591 25
	nop
	j	.L103
.L132:
	.loc 2 614 25
	nop
.L103:
	.loc 2 630 21
	lbu	a5,-47(s0)
	andi	a5,a5,32
	andi	a5,a5,0xff
	.loc 2 630 20
	beq	a5,zero,.L123
	.loc 2 630 43 discriminator 1
	lbu	a5,-47(s0)
	andi	a5,a5,8
	andi	a5,a5,0xff
	beq	a5,zero,.L123
	.loc 2 631 34
	li	a5,4
	sb	a5,-53(s0)
	j	.L127
.L123:
	.loc 2 632 28
	lbu	a5,-47(s0)
	andi	a5,a5,32
	andi	a5,a5,0xff
	.loc 2 632 27
	beq	a5,zero,.L125
	.loc 2 633 34
	li	a5,3
	sb	a5,-53(s0)
	j	.L127
.L125:
	.loc 2 634 28
	lbu	a5,-47(s0)
	andi	a5,a5,8
	andi	a5,a5,0xff
	.loc 2 634 27
	beq	a5,zero,.L126
	.loc 2 635 34
	li	a5,2
	sb	a5,-53(s0)
	j	.L127
.L126:
	.loc 2 637 34
	li	a5,1
	sb	a5,-53(s0)
	j	.L127
.L93:
	.loc 2 641 30
	sb	zero,-53(s0)
.L127:
	.loc 2 644 31
	lw	a5,-24(s0)
	lb	a5,24(a5)
	.loc 2 644 26
	sb	a5,-57(s0)
	.loc 2 645 34
	lw	a5,-24(s0)
	lb	a5,25(a5)
	.loc 2 645 29
	sb	a5,-56(s0)
	.loc 2 646 34
	lw	a5,-24(s0)
	lb	a5,26(a5)
	.loc 2 646 29
	sb	a5,-55(s0)
	.loc 2 647 43
	lw	a5,-28(s0)
	lbu	a5,16(a5)
	.loc 2 647 30
	sb	a5,-96(s0)
	.loc 2 648 43
	lw	a5,-28(s0)
	lbu	a5,17(a5)
	.loc 2 648 30
	sb	a5,-95(s0)
	.loc 2 649 43
	lw	a5,-28(s0)
	lbu	a5,18(a5)
	.loc 2 649 30
	sb	a5,-94(s0)
	.loc 2 650 43
	lw	a5,-28(s0)
	lbu	a5,19(a5)
	.loc 2 650 30
	sb	a5,-93(s0)
	.loc 2 651 43
	lw	a5,-28(s0)
	lbu	a5,20(a5)
	.loc 2 651 30
	sb	a5,-92(s0)
	.loc 2 652 43
	lw	a5,-28(s0)
	lbu	a5,21(a5)
	.loc 2 652 30
	sb	a5,-91(s0)
	.loc 2 653 13
	lui	a5,%hi(cb_beacon_ind)
	lw	a5,%lo(cb_beacon_ind)(a5)
	lui	a4,%hi(cb_beacon_ind_env)
	lw	a4,%lo(cb_beacon_ind_env)(a4)
	addi	a3,s0,-96
	mv	a1,a3
	mv	a0,a4
	jalr	a5
.LVL3:
	j	.L92
.L91:
	.loc 2 655 16
	lw	a5,-28(s0)
	lhu	a5,0(a5)
	mv	a0,a5
	call	ieee80211_is_probe_resp
	mv	a5,a0
	.loc 2 655 15 discriminator 1
	beq	a5,zero,.L128
	.loc 2 656 9
	lui	a5,%hi(.LC17)
	addi	a0,a5,%lo(.LC17)
	call	printf
	.loc 2 657 13
	lui	a5,%hi(cb_probe_resp_ind)
	lw	a5,%lo(cb_probe_resp_ind)(a5)
	.loc 2 657 12
	beq	a5,zero,.L92
	.loc 2 658 13
	lui	a5,%hi(cb_probe_resp_ind)
	lw	a4,%lo(cb_probe_resp_ind)(a5)
	.loc 2 658 54
	lw	a5,-28(s0)
	lhu	a3,24(a5)
	lhu	a2,26(a5)
	slli	a2,a2,16
	or	a3,a2,a3
	mv	a0,a3
	lhu	a3,28(a5)
	lhu	a5,30(a5)
	slli	a5,a5,16
	or	a5,a5,a3
	mv	a1,a5
	.loc 2 658 13
	mv	a2,a0
	mv	a3,a1
	mv	a1,a2
	mv	a2,a3
	li	a0,0
	jalr	a4
.LVL4:
	j	.L92
.L128:
	.loc 2 661 9
	lui	a5,%hi(.LC18)
	addi	a0,a5,%lo(.LC18)
	call	printf
.L92:
	.loc 2 664 12
	li	a5,0
	.loc 2 665 1
	mv	a0,a5
	lw	ra,156(sp)
	.cfi_restore 1
	lw	s0,152(sp)
	.cfi_restore 8
	.cfi_def_cfa 2, 160
	addi	sp,sp,160
	.cfi_def_cfa_offset 0
	jr	ra
	.cfi_endproc
.LFE70:
	.size	bl_rx_scanu_result_ind, .-bl_rx_scanu_result_ind
	.section	.rodata.scan_hdlrs,"a"
	.align	2
	.type	scan_hdlrs, @object
	.size	scan_hdlrs, 28
scan_hdlrs:
	.zero	4
	.word	bl_rx_scanu_start_cfm
	.zero	4
	.word	bl_rx_scanu_join_cfm
	.word	bl_rx_scanu_result_ind
	.zero	8
	.section	.text.bl_rx_me_tkip_mic_failure_ind,"ax",@progbits
	.align	1
	.type	bl_rx_me_tkip_mic_failure_ind, @function
bl_rx_me_tkip_mic_failure_ind:
.LFB71:
	.loc 2 675 1
	.cfi_startproc
	addi	sp,sp,-32
	.cfi_def_cfa_offset 32
	sw	ra,28(sp)
	sw	s0,24(sp)
	.cfi_offset 1, -4
	.cfi_offset 8, -8
	addi	s0,sp,32
	.cfi_def_cfa 8, 0
	sw	a0,-20(s0)
	sw	a1,-24(s0)
	sw	a2,-28(s0)
	.loc 2 678 12
	li	a5,0
	.loc 2 679 1
	mv	a0,a5
	lw	ra,28(sp)
	.cfi_restore 1
	lw	s0,24(sp)
	.cfi_restore 8
	.cfi_def_cfa 2, 32
	addi	sp,sp,32
	.cfi_def_cfa_offset 0
	jr	ra
	.cfi_endproc
.LFE71:
	.size	bl_rx_me_tkip_mic_failure_ind, .-bl_rx_me_tkip_mic_failure_ind
	.section	.text.bl_rx_me_tx_credits_update_ind,"ax",@progbits
	.align	1
	.type	bl_rx_me_tx_credits_update_ind, @function
bl_rx_me_tx_credits_update_ind:
.LFB72:
	.loc 2 683 1
	.cfi_startproc
	addi	sp,sp,-32
	.cfi_def_cfa_offset 32
	sw	ra,28(sp)
	sw	s0,24(sp)
	.cfi_offset 1, -4
	.cfi_offset 8, -8
	addi	s0,sp,32
	.cfi_def_cfa 8, 0
	sw	a0,-20(s0)
	sw	a1,-24(s0)
	sw	a2,-28(s0)
	.loc 2 686 12
	li	a5,0
	.loc 2 687 1
	mv	a0,a5
	lw	ra,28(sp)
	.cfi_restore 1
	lw	s0,24(sp)
	.cfi_restore 8
	.cfi_def_cfa 2, 32
	addi	sp,sp,32
	.cfi_def_cfa_offset 0
	jr	ra
	.cfi_endproc
.LFE72:
	.size	bl_rx_me_tx_credits_update_ind, .-bl_rx_me_tx_credits_update_ind
	.section	.rodata.me_hdlrs,"a"
	.align	2
	.type	me_hdlrs, @object
	.size	me_hdlrs, 68
me_hdlrs:
	.zero	24
	.word	bl_rx_me_tkip_mic_failure_ind
	.zero	16
	.word	bl_rx_me_tx_credits_update_ind
	.zero	20
	.section	.rodata
	.align	2
.LC19:
	.string	"[RX] Connection Status\r\n"
	.align	2
.LC20:
	.string	"[RX]   status_code %u\r\n"
	.align	2
.LC21:
	.string	"[RX]   connect result: %s\r\n"
	.align	2
.LC22:
	.string	"[RX]   MAC %02X:%02X:%02X:%02X:%02X:%02X\r\n"
	.align	2
.LC23:
	.string	"[RX]   vif_idx %u\r\n"
	.align	2
.LC24:
	.string	"[RX]   ap_idx %u\r\n"
	.align	2
.LC25:
	.string	"[RX]   ch_idx %u\r\n"
	.align	2
.LC26:
	.string	"[RX]   qos %u\r\n"
	.align	2
.LC27:
	.string	"[RX]   acm %u\r\n"
	.align	2
.LC28:
	.string	"[RX]   assoc_req_ie_len %u\r\n"
	.align	2
.LC29:
	.string	"[RX]   assoc_rsp_ie_len %u\r\n"
	.align	2
.LC30:
	.string	"[RX]   aid %u\r\n"
	.align	2
.LC31:
	.string	"[RX]   band %u\r\n"
	.align	2
.LC32:
	.string	"[RX]   center_freq %u\r\n"
	.align	2
.LC33:
	.string	"[RX]   width %u\r\n"
	.align	2
.LC34:
	.string	"[RX]   center_freq1 %u\r\n"
	.align	2
.LC35:
	.string	"[RX]   center_freq2 %u\r\n"
	.align	2
.LC36:
	.string	"[RX]  -------- CRITICAL when check netif. ptr is %p:%p\r\n"
	.section	.text.bl_rx_sm_connect_ind,"ax",@progbits
	.align	1
	.type	bl_rx_sm_connect_ind, @function
bl_rx_sm_connect_ind:
.LFB73:
	.loc 2 696 1
	.cfi_startproc
	addi	sp,sp,-80
	.cfi_def_cfa_offset 80
	sw	ra,76(sp)
	sw	s0,72(sp)
	.cfi_offset 1, -4
	.cfi_offset 8, -8
	addi	s0,sp,80
	.cfi_def_cfa 8, 0
	sw	a0,-68(s0)
	sw	a1,-72(s0)
	sw	a2,-76(s0)
	.loc 2 697 28
	lw	a5,-76(s0)
	addi	a5,a5,8
	sw	a5,-28(s0)
	.loc 2 699 20
	sw	zero,-32(s0)
	.loc 2 700 9
	sw	zero,-20(s0)
.LBB2:
	.loc 2 705 13
	sw	zero,-24(s0)
	.loc 2 705 5
	j	.L138
.L141:
	.loc 2 706 26
	lui	a5,%hi(reason_list)
	addi	a4,a5,%lo(reason_list)
	lw	a5,-24(s0)
	slli	a5,a5,3
	add	a5,a4,a5
	lhu	a4,0(a5)
	.loc 2 706 45
	lw	a5,-28(s0)
	lhu	a5,0(a5)
	.loc 2 706 11
	bne	a4,a5,.L139
	.loc 2 707 19
	lw	a5,-24(s0)
	sw	a5,-20(s0)
	.loc 2 708 13
	j	.L140
.L139:
	.loc 2 705 67 discriminator 2
	lw	a5,-24(s0)
	addi	a5,a5,1
	sw	a5,-24(s0)
.L138:
	.loc 2 705 21 discriminator 1
	lw	a4,-24(s0)
	li	a5,15
	bleu	a4,a5,.L141
.L140:
.LBE2:
	.loc 2 712 5
	lui	a5,%hi(.LC19)
	addi	a0,a5,%lo(.LC19)
	call	printf
	.loc 2 713 44
	lw	a5,-28(s0)
	lhu	a5,0(a5)
	.loc 2 713 5
	mv	a1,a5
	lui	a5,%hi(.LC20)
	addi	a0,a5,%lo(.LC20)
	call	printf
	.loc 2 714 63
	lui	a5,%hi(reason_list)
	addi	a4,a5,%lo(reason_list)
	lw	a5,-20(s0)
	slli	a5,a5,3
	add	a5,a4,a5
	lw	a5,4(a5)
	.loc 2 714 5
	mv	a1,a5
	lui	a5,%hi(.LC21)
	addi	a0,a5,%lo(.LC21)
	call	printf
	.loc 2 715 76
	lw	a5,-28(s0)
	lbu	a5,2(a5)
	.loc 2 715 5
	mv	a1,a5
	.loc 2 715 97
	lw	a5,-28(s0)
	lbu	a5,3(a5)
	.loc 2 715 5
	mv	a2,a5
	.loc 2 715 118
	lw	a5,-28(s0)
	lbu	a5,4(a5)
	.loc 2 715 5
	mv	a3,a5
	.loc 2 715 139
	lw	a5,-28(s0)
	lbu	a5,5(a5)
	.loc 2 715 5
	mv	a4,a5
	.loc 2 715 160
	lw	a5,-28(s0)
	lbu	a5,6(a5)
	.loc 2 715 5
	mv	a0,a5
	.loc 2 715 181
	lw	a5,-28(s0)
	lbu	a5,7(a5)
	.loc 2 715 5
	mv	a6,a5
	mv	a5,a0
	lui	a0,%hi(.LC22)
	addi	a0,a0,%lo(.LC22)
	call	printf
	.loc 2 723 40
	lw	a5,-28(s0)
	lbu	a5,9(a5)
	.loc 2 723 5
	mv	a1,a5
	lui	a5,%hi(.LC23)
	addi	a0,a5,%lo(.LC23)
	call	printf
	.loc 2 724 39
	lw	a5,-28(s0)
	lbu	a5,10(a5)
	.loc 2 724 5
	mv	a1,a5
	lui	a5,%hi(.LC24)
	addi	a0,a5,%lo(.LC24)
	call	printf
	.loc 2 725 39
	lw	a5,-28(s0)
	lbu	a5,11(a5)
	.loc 2 725 5
	mv	a1,a5
	lui	a5,%hi(.LC25)
	addi	a0,a5,%lo(.LC25)
	call	printf
	.loc 2 726 36
	lw	a5,-28(s0)
	lbu	a5,12(a5)
	.loc 2 726 5
	mv	a1,a5
	lui	a5,%hi(.LC26)
	addi	a0,a5,%lo(.LC26)
	call	printf
	.loc 2 727 36
	lw	a5,-28(s0)
	lbu	a5,13(a5)
	.loc 2 727 5
	mv	a1,a5
	lui	a5,%hi(.LC27)
	addi	a0,a5,%lo(.LC27)
	call	printf
	.loc 2 728 49
	lw	a5,-28(s0)
	lhu	a5,14(a5)
	.loc 2 728 5
	mv	a1,a5
	lui	a5,%hi(.LC28)
	addi	a0,a5,%lo(.LC28)
	call	printf
	.loc 2 729 49
	lw	a5,-28(s0)
	lhu	a5,16(a5)
	.loc 2 729 5
	mv	a1,a5
	lui	a5,%hi(.LC29)
	addi	a0,a5,%lo(.LC29)
	call	printf
	.loc 2 730 36
	lw	a5,-28(s0)
	lhu	a5,820(a5)
	.loc 2 730 5
	mv	a1,a5
	lui	a5,%hi(.LC30)
	addi	a0,a5,%lo(.LC30)
	call	printf
	.loc 2 731 37
	lw	a5,-28(s0)
	lbu	a5,822(a5)
	.loc 2 731 5
	mv	a1,a5
	lui	a5,%hi(.LC31)
	addi	a0,a5,%lo(.LC31)
	call	printf
	.loc 2 732 44
	lw	a5,-28(s0)
	lhu	a5,824(a5)
	.loc 2 732 5
	mv	a1,a5
	lui	a5,%hi(.LC32)
	addi	a0,a5,%lo(.LC32)
	call	printf
	.loc 2 733 38
	lw	a5,-28(s0)
	lbu	a5,826(a5)
	.loc 2 733 5
	mv	a1,a5
	lui	a5,%hi(.LC33)
	addi	a0,a5,%lo(.LC33)
	call	printf
	.loc 2 734 59
	lw	a5,-28(s0)
	lw	a5,828(a5)
	.loc 2 734 5
	mv	a1,a5
	lui	a5,%hi(.LC34)
	addi	a0,a5,%lo(.LC34)
	call	printf
	.loc 2 735 59
	lw	a5,-28(s0)
	lw	a5,832(a5)
	.loc 2 735 5
	mv	a1,a5
	lui	a5,%hi(.LC35)
	addi	a0,a5,%lo(.LC35)
	call	printf
	.loc 2 737 17
	lw	a5,-28(s0)
	lhu	a5,0(a5)
	.loc 2 737 8
	bne	a5,zero,.L142
	.loc 2 738 29
	lw	a5,-28(s0)
	lbu	a5,10(a5)
	mv	a3,a5
	.loc 2 738 24
	lw	a4,-68(s0)
	li	a5,4096
	add	a5,a4,a5
	sw	a3,-476(a5)
	.loc 2 739 22
	lw	a5,-68(s0)
	li	a4,1
	sw	a4,0(a5)
	j	.L143
.L142:
	.loc 2 741 22
	lw	a5,-68(s0)
	sw	zero,0(a5)
.L143:
	.loc 2 745 5
	addi	a5,s0,-64
	li	a2,32
	li	a1,0
	mv	a0,a5
	call	memset
	.loc 2 746 30
	lw	a5,-28(s0)
	lhu	a5,0(a5)
	.loc 2 746 25
	sh	a5,-64(s0)
	.loc 2 747 40
	lw	a5,-28(s0)
	lbu	a5,2(a5)
	.loc 2 747 22
	sb	a5,-62(s0)
	.loc 2 748 40
	lw	a5,-28(s0)
	lbu	a5,3(a5)
	.loc 2 748 22
	sb	a5,-61(s0)
	.loc 2 749 40
	lw	a5,-28(s0)
	lbu	a5,4(a5)
	.loc 2 749 22
	sb	a5,-60(s0)
	.loc 2 750 40
	lw	a5,-28(s0)
	lbu	a5,5(a5)
	.loc 2 750 22
	sb	a5,-59(s0)
	.loc 2 751 40
	lw	a5,-28(s0)
	lbu	a5,6(a5)
	.loc 2 751 22
	sb	a5,-58(s0)
	.loc 2 752 40
	lw	a5,-28(s0)
	lbu	a5,7(a5)
	.loc 2 752 22
	sb	a5,-57(s0)
	.loc 2 753 26
	lw	a5,-28(s0)
	lbu	a5,9(a5)
	.loc 2 753 21
	sb	a5,-56(s0)
	.loc 2 754 25
	lw	a5,-28(s0)
	lbu	a5,10(a5)
	.loc 2 754 20
	sb	a5,-55(s0)
	.loc 2 755 25
	lw	a5,-28(s0)
	lbu	a5,11(a5)
	.loc 2 755 20
	sb	a5,-54(s0)
	.loc 2 756 22
	lw	a5,-28(s0)
	lbu	a5,12(a5)
	.loc 2 756 17
	sw	a5,-52(s0)
	.loc 2 757 22
	lw	a5,-28(s0)
	lhu	a5,820(a5)
	.loc 2 757 17
	sh	a5,-48(s0)
	.loc 2 758 23
	lw	a5,-28(s0)
	lbu	a5,822(a5)
	.loc 2 758 18
	sb	a5,-46(s0)
	.loc 2 759 30
	lw	a5,-28(s0)
	lhu	a5,824(a5)
	.loc 2 759 25
	sh	a5,-44(s0)
	.loc 2 760 24
	lw	a5,-28(s0)
	lbu	a5,826(a5)
	.loc 2 760 19
	sb	a5,-42(s0)
	.loc 2 761 31
	lw	a5,-28(s0)
	lw	a5,828(a5)
	.loc 2 761 26
	sw	a5,-40(s0)
	.loc 2 762 31
	lw	a5,-28(s0)
	lw	a5,832(a5)
	.loc 2 762 26
	sw	a5,-36(s0)
	.loc 2 764 9
	lui	a5,%hi(cb_sm_connect_ind)
	lw	a5,%lo(cb_sm_connect_ind)(a5)
	.loc 2 764 8
	beq	a5,zero,.L144
	.loc 2 765 9
	lui	a5,%hi(cb_sm_connect_ind)
	lw	a5,%lo(cb_sm_connect_ind)(a5)
	lui	a4,%hi(cb_sm_connect_ind_env)
	lw	a4,%lo(cb_sm_connect_ind_env)(a4)
	addi	a3,s0,-64
	mv	a1,a3
	mv	a0,a4
	jalr	a5
.LVL5:
.L144:
	.loc 2 768 12
	lw	a5,-28(s0)
	lhu	a5,0(a5)
	.loc 2 768 8
	bne	a5,zero,.L145
	.loc 2 772 40
	lw	a5,-28(s0)
	lbu	a5,9(a5)
	mv	a4,a5
	.loc 2 772 16
	li	a5,196
	mul	a5,a4,a5
	addi	a5,a5,864
	lw	a4,-68(s0)
	add	a5,a4,a5
	sw	a5,-32(s0)
	.loc 2 773 12
	lw	a5,-32(s0)
	beq	a5,zero,.L146
	.loc 2 773 29 discriminator 1
	lw	a5,-32(s0)
	lw	a5,8(a5)
	.loc 2 773 20 discriminator 1
	beq	a5,zero,.L146
	.loc 2 774 13
	lw	a5,-32(s0)
	lw	a4,8(a5)
	li	a2,0
	lui	a5,%hi(netif_set_link_up)
	addi	a1,a5,%lo(netif_set_link_up)
	mv	a0,a4
	call	netifapi_netif_common
	.loc 2 775 13
	lw	a5,-32(s0)
	lw	a4,8(a5)
	li	a2,0
	lui	a5,%hi(netif_set_default)
	addi	a1,a5,%lo(netif_set_default)
	mv	a0,a4
	call	netifapi_netif_common
	j	.L145
.L146:
	.loc 2 777 13
	lw	a5,-32(s0)
	beq	a5,zero,.L147
	.loc 2 777 13 is_stmt 0 discriminator 1
	lw	a5,-32(s0)
	lw	a5,8(a5)
	j	.L148
.L147:
	.loc 2 777 13 discriminator 2
	li	a5,0
.L148:
	.loc 2 777 13 discriminator 4
	mv	a2,a5
	lw	a1,-32(s0)
	lui	a5,%hi(.LC36)
	addi	a0,a5,%lo(.LC36)
	call	printf
.L145:
	.loc 2 783 12 is_stmt 1
	li	a5,0
	.loc 2 784 1
	mv	a0,a5
	lw	ra,76(sp)
	.cfi_restore 1
	lw	s0,72(sp)
	.cfi_restore 8
	.cfi_def_cfa 2, 80
	addi	sp,sp,80
	.cfi_def_cfa_offset 0
	jr	ra
	.cfi_endproc
.LFE73:
	.size	bl_rx_sm_connect_ind, .-bl_rx_sm_connect_ind
	.section	.rodata
	.align	2
.LC37:
	.string	"0.0.0.0"
	.align	2
.LC38:
	.string	"[RX] sm_disconnect_ind\r\n       reason_code %u\r\n"
	.align	2
.LC39:
	.string	"[RX]    vif_idx %u\r\n"
	.align	2
.LC40:
	.string	"[RX]     ft_over_ds %u\r\n"
	.section	.text.bl_rx_sm_disconnect_ind,"ax",@progbits
	.align	1
	.type	bl_rx_sm_disconnect_ind, @function
bl_rx_sm_disconnect_ind:
.LFB74:
	.loc 2 789 1
	.cfi_startproc
	addi	sp,sp,-64
	.cfi_def_cfa_offset 64
	sw	ra,60(sp)
	sw	s0,56(sp)
	.cfi_offset 1, -4
	.cfi_offset 8, -8
	addi	s0,sp,64
	.cfi_def_cfa 8, 0
	sw	a0,-52(s0)
	sw	a1,-56(s0)
	sw	a2,-60(s0)
	.loc 2 790 31
	lw	a5,-60(s0)
	addi	a5,a5,8
	sw	a5,-20(s0)
	.loc 2 792 20
	sw	zero,-24(s0)
	.loc 2 797 21
	lui	a5,%hi(.LC37)
	addi	a0,a5,%lo(.LC37)
	call	ipaddr_addr
	mv	a5,a0
	.loc 2 797 19 discriminator 1
	sw	a5,-36(s0)
	.loc 2 798 73
	lw	a5,-20(s0)
	lhu	a5,0(a5)
	.loc 2 798 5
	mv	a1,a5
	lui	a5,%hi(.LC38)
	addi	a0,a5,%lo(.LC38)
	call	printf
	.loc 2 800 41
	lw	a5,-20(s0)
	lbu	a5,2(a5)
	.loc 2 800 5
	mv	a1,a5
	lui	a5,%hi(.LC39)
	addi	a0,a5,%lo(.LC39)
	call	printf
	.loc 2 801 45
	lw	a5,-20(s0)
	lbu	a5,3(a5)
	.loc 2 801 5
	mv	a1,a5
	lui	a5,%hi(.LC40)
	addi	a0,a5,%lo(.LC40)
	call	printf
	.loc 2 803 9
	lui	a5,%hi(cb_sm_disconnect_ind)
	lw	a5,%lo(cb_sm_disconnect_ind)(a5)
	.loc 2 803 8
	beq	a5,zero,.L151
	.loc 2 804 9
	addi	a5,s0,-32
	li	a2,8
	li	a1,0
	mv	a0,a5
	call	memset
	.loc 2 805 34
	lw	a5,-20(s0)
	lhu	a5,0(a5)
	.loc 2 805 29
	sh	a5,-32(s0)
	.loc 2 806 30
	lw	a5,-20(s0)
	lbu	a5,2(a5)
	.loc 2 806 25
	sb	a5,-30(s0)
	.loc 2 807 33
	lw	a5,-20(s0)
	lbu	a5,3(a5)
	.loc 2 807 28
	sw	a5,-28(s0)
	.loc 2 808 9
	lui	a5,%hi(cb_sm_disconnect_ind)
	lw	a5,%lo(cb_sm_disconnect_ind)(a5)
	lui	a4,%hi(cb_sm_disconnect_ind_env)
	lw	a4,%lo(cb_sm_disconnect_ind_env)(a4)
	addi	a3,s0,-32
	mv	a1,a3
	mv	a0,a4
	jalr	a5
.LVL6:
.L151:
	.loc 2 812 36
	lw	a5,-20(s0)
	lbu	a5,2(a5)
	mv	a4,a5
	.loc 2 812 12
	li	a5,196
	mul	a5,a4,a5
	addi	a5,a5,864
	lw	a4,-52(s0)
	add	a5,a4,a5
	sw	a5,-24(s0)
	.loc 2 813 8
	lw	a5,-24(s0)
	beq	a5,zero,.L152
	.loc 2 813 25 discriminator 1
	lw	a5,-24(s0)
	lw	a5,8(a5)
	.loc 2 813 16 discriminator 1
	beq	a5,zero,.L152
	.loc 2 814 9
	lw	a5,-24(s0)
	lw	a4,8(a5)
	li	a2,0
	lui	a5,%hi(netif_set_link_down)
	addi	a1,a5,%lo(netif_set_link_down)
	mv	a0,a4
	call	netifapi_netif_common
	.loc 2 815 9
	lw	a5,-24(s0)
	lw	a5,8(a5)
	addi	a3,s0,-36
	addi	a2,s0,-36
	addi	a4,s0,-36
	mv	a1,a4
	mv	a0,a5
	call	netifapi_netif_set_addr
.L152:
	.loc 2 818 12
	li	a5,0
	.loc 2 819 1
	mv	a0,a5
	lw	ra,60(sp)
	.cfi_restore 1
	lw	s0,56(sp)
	.cfi_restore 8
	.cfi_def_cfa 2, 64
	addi	sp,sp,64
	.cfi_def_cfa_offset 0
	jr	ra
	.cfi_endproc
.LFE74:
	.size	bl_rx_sm_disconnect_ind, .-bl_rx_sm_disconnect_ind
	.section	.rodata.sm_hdlrs,"a"
	.align	2
	.type	sm_hdlrs, @object
	.size	sm_hdlrs, 28
sm_hdlrs:
	.zero	8
	.word	bl_rx_sm_connect_ind
	.zero	8
	.word	bl_rx_sm_disconnect_ind
	.zero	4
	.section	.rodata
	.align	2
.LC41:
	.string	"[WF] APM_STA_ADD_IND\r\n"
	.align	2
.LC42:
	.string	"[WF]    flags %08X\r\n"
	.align	2
.LC43:
	.string	"[WF]    MAC %02X:%02X:%02X:%02X:%02X:%02X\r\n"
	.align	2
.LC44:
	.string	"[WF]    vif_idx %u\r\n"
	.align	2
.LC45:
	.string	"[WF]    sta_idx %u\r\n"
	.align	2
.LC46:
	.string	"[WF]    ------ Potential illegal sta_idx\r\n"
	.section	.text.bl_rx_apm_sta_add_ind,"ax",@progbits
	.align	1
	.type	bl_rx_apm_sta_add_ind, @function
bl_rx_apm_sta_add_ind:
.LFB75:
	.loc 2 827 1
	.cfi_startproc
	addi	sp,sp,-48
	.cfi_def_cfa_offset 48
	sw	ra,44(sp)
	sw	s0,40(sp)
	.cfi_offset 1, -4
	.cfi_offset 8, -8
	addi	s0,sp,48
	.cfi_def_cfa 8, 0
	sw	a0,-36(s0)
	sw	a1,-40(s0)
	sw	a2,-44(s0)
	.loc 2 828 29
	lw	a5,-44(s0)
	addi	a5,a5,8
	sw	a5,-20(s0)
	.loc 2 831 5
	lui	a5,%hi(.LC41)
	addi	a0,a5,%lo(.LC41)
	call	printf
	.loc 2 832 55
	lw	a5,-20(s0)
	lw	a5,0(a5)
	.loc 2 832 5
	mv	a1,a5
	lui	a5,%hi(.LC42)
	addi	a0,a5,%lo(.LC42)
	call	printf
	.loc 2 833 80
	lw	a5,-20(s0)
	lbu	a5,4(a5)
	.loc 2 833 5
	mv	a1,a5
	.loc 2 833 111
	lw	a5,-20(s0)
	lbu	a5,5(a5)
	.loc 2 833 5
	mv	a2,a5
	.loc 2 833 142
	lw	a5,-20(s0)
	lbu	a5,6(a5)
	.loc 2 833 5
	mv	a3,a5
	.loc 2 833 173
	lw	a5,-20(s0)
	lbu	a5,7(a5)
	.loc 2 833 5
	mv	a4,a5
	.loc 2 833 204
	lw	a5,-20(s0)
	lbu	a5,8(a5)
	.loc 2 833 5
	mv	a0,a5
	.loc 2 833 235
	lw	a5,-20(s0)
	lbu	a5,9(a5)
	.loc 2 833 5
	mv	a6,a5
	mv	a5,a0
	lui	a0,%hi(.LC43)
	addi	a0,a0,%lo(.LC43)
	call	printf
	.loc 2 846 41
	lw	a5,-20(s0)
	lbu	a5,10(a5)
	.loc 2 846 5
	mv	a1,a5
	lui	a5,%hi(.LC44)
	addi	a0,a5,%lo(.LC44)
	call	printf
	.loc 2 847 41
	lw	a5,-20(s0)
	lbu	a5,11(a5)
	.loc 2 847 5
	mv	a1,a5
	lui	a5,%hi(.LC45)
	addi	a0,a5,%lo(.LC45)
	call	printf
	.loc 2 848 12
	lw	a5,-20(s0)
	lbu	a4,11(a5)
	.loc 2 848 8
	li	a5,11
	bgtu	a4,a5,.L155
	.loc 2 849 37
	lw	a5,-20(s0)
	lbu	a5,11(a5)
	mv	a4,a5
	.loc 2 849 13
	mv	a5,a4
	slli	a5,a5,3
	sub	a5,a5,a4
	slli	a5,a5,2
	li	a4,4096
	addi	a4,a4,-880
	add	a5,a5,a4
	lw	a4,-36(s0)
	add	a5,a4,a5
	sw	a5,-24(s0)
	.loc 2 853 29
	lw	a4,-24(s0)
	.loc 2 853 50
	lw	a5,-20(s0)
	addi	a5,a5,4
	.loc 2 853 9
	li	a2,6
	mv	a1,a5
	mv	a0,a4
	call	memcpy
	.loc 2 854 27
	lw	a5,-20(s0)
	lbu	a4,11(a5)
	.loc 2 854 22
	lw	a5,-24(s0)
	sb	a4,9(a5)
	.loc 2 855 27
	lw	a5,-20(s0)
	lbu	a4,10(a5)
	.loc 2 855 22
	lw	a5,-24(s0)
	sb	a4,10(a5)
	.loc 2 856 22
	lw	a5,-24(s0)
	li	a4,1
	sb	a4,8(a5)
	.loc 2 857 24
	lw	a5,-20(s0)
	lb	a4,12(a5)
	.loc 2 857 19
	lw	a5,-24(s0)
	sb	a4,12(a5)
	.loc 2 858 25
	lw	a5,-20(s0)
	lw	a4,16(a5)
	.loc 2 858 20
	lw	a5,-24(s0)
	sw	a4,16(a5)
	.loc 2 859 25
	lw	a5,-20(s0)
	lw	a4,20(a5)
	.loc 2 859 20
	lw	a5,-24(s0)
	sw	a4,20(a5)
	.loc 2 860 29
	lw	a5,-20(s0)
	lbu	a4,24(a5)
	.loc 2 860 24
	lw	a5,-24(s0)
	sb	a4,24(a5)
	j	.L156
.L155:
	.loc 2 862 9
	lui	a5,%hi(.LC46)
	addi	a0,a5,%lo(.LC46)
	call	printf
.L156:
	.loc 2 864 35
	lw	a5,-20(s0)
	lbu	a5,11(a5)
	.loc 2 864 5
	mv	a2,a5
	li	a1,21
	li	a0,2
	call	aos_post_event
	.loc 2 866 12
	li	a5,0
	.loc 2 867 1
	mv	a0,a5
	lw	ra,44(sp)
	.cfi_restore 1
	lw	s0,40(sp)
	.cfi_restore 8
	.cfi_def_cfa 2, 48
	addi	sp,sp,48
	.cfi_def_cfa_offset 0
	jr	ra
	.cfi_endproc
.LFE75:
	.size	bl_rx_apm_sta_add_ind, .-bl_rx_apm_sta_add_ind
	.section	.rodata
	.align	2
.LC47:
	.string	"[WF] APM_STA_DEL_IND\r\n"
	.align	2
.LC48:
	.string	"[WF]    --------- Potential illegal sta_idx\r\n"
	.section	.text.bl_rx_apm_sta_del_ind,"ax",@progbits
	.align	1
	.type	bl_rx_apm_sta_del_ind, @function
bl_rx_apm_sta_del_ind:
.LFB76:
	.loc 2 870 1
	.cfi_startproc
	addi	sp,sp,-48
	.cfi_def_cfa_offset 48
	sw	ra,44(sp)
	sw	s0,40(sp)
	.cfi_offset 1, -4
	.cfi_offset 8, -8
	addi	s0,sp,48
	.cfi_def_cfa 8, 0
	sw	a0,-36(s0)
	sw	a1,-40(s0)
	sw	a2,-44(s0)
	.loc 2 871 29
	lw	a5,-44(s0)
	addi	a5,a5,8
	sw	a5,-20(s0)
	.loc 2 874 5
	lui	a5,%hi(.LC47)
	addi	a0,a5,%lo(.LC47)
	call	printf
	.loc 2 875 41
	lw	a5,-20(s0)
	lbu	a5,0(a5)
	.loc 2 875 5
	mv	a1,a5
	lui	a5,%hi(.LC45)
	addi	a0,a5,%lo(.LC45)
	call	printf
	.loc 2 877 12
	lw	a5,-20(s0)
	lbu	a4,0(a5)
	.loc 2 877 8
	li	a5,11
	bgtu	a4,a5,.L159
	.loc 2 878 37
	lw	a5,-20(s0)
	lbu	a5,0(a5)
	mv	a4,a5
	.loc 2 878 13
	mv	a5,a4
	slli	a5,a5,3
	sub	a5,a5,a4
	slli	a5,a5,2
	li	a4,4096
	addi	a4,a4,-880
	add	a5,a5,a4
	lw	a4,-36(s0)
	add	a5,a4,a5
	sw	a5,-24(s0)
	.loc 2 882 22
	lw	a5,-24(s0)
	sb	zero,8(a5)
	j	.L160
.L159:
	.loc 2 884 9
	lui	a5,%hi(.LC48)
	addi	a0,a5,%lo(.LC48)
	call	printf
.L160:
	.loc 2 886 35
	lw	a5,-20(s0)
	lbu	a5,0(a5)
	.loc 2 886 5
	mv	a2,a5
	li	a1,22
	li	a0,2
	call	aos_post_event
	.loc 2 888 12
	li	a5,0
	.loc 2 889 1
	mv	a0,a5
	lw	ra,44(sp)
	.cfi_restore 1
	lw	s0,40(sp)
	.cfi_restore 8
	.cfi_def_cfa 2, 48
	addi	sp,sp,48
	.cfi_def_cfa_offset 0
	jr	ra
	.cfi_endproc
.LFE76:
	.size	bl_rx_apm_sta_del_ind, .-bl_rx_apm_sta_del_ind
	.section	.rodata.apm_hdlrs,"a"
	.align	2
	.type	apm_hdlrs, @object
	.size	apm_hdlrs, 60
apm_hdlrs:
	.zero	32
	.word	bl_rx_apm_sta_add_ind
	.word	bl_rx_apm_sta_del_ind
	.zero	20
	.section	.srodata.cfg_hdlrs,"a"
	.align	2
	.type	cfg_hdlrs, @object
	.size	cfg_hdlrs, 8
cfg_hdlrs:
	.zero	8
	.section	.text.bl_rx_mesh_path_create_cfm,"ax",@progbits
	.align	1
	.type	bl_rx_mesh_path_create_cfm, @function
bl_rx_mesh_path_create_cfm:
.LFB77:
	.loc 2 902 1
	.cfi_startproc
	addi	sp,sp,-32
	.cfi_def_cfa_offset 32
	sw	ra,28(sp)
	sw	s0,24(sp)
	.cfi_offset 1, -4
	.cfi_offset 8, -8
	addi	s0,sp,32
	.cfi_def_cfa 8, 0
	sw	a0,-20(s0)
	sw	a1,-24(s0)
	sw	a2,-28(s0)
	.loc 2 905 12
	li	a5,0
	.loc 2 906 1
	mv	a0,a5
	lw	ra,28(sp)
	.cfi_restore 1
	lw	s0,24(sp)
	.cfi_restore 8
	.cfi_def_cfa 2, 32
	addi	sp,sp,32
	.cfi_def_cfa_offset 0
	jr	ra
	.cfi_endproc
.LFE77:
	.size	bl_rx_mesh_path_create_cfm, .-bl_rx_mesh_path_create_cfm
	.section	.text.bl_rx_mesh_peer_update_ind,"ax",@progbits
	.align	1
	.type	bl_rx_mesh_peer_update_ind, @function
bl_rx_mesh_peer_update_ind:
.LFB78:
	.loc 2 910 1
	.cfi_startproc
	addi	sp,sp,-32
	.cfi_def_cfa_offset 32
	sw	ra,28(sp)
	sw	s0,24(sp)
	.cfi_offset 1, -4
	.cfi_offset 8, -8
	addi	s0,sp,32
	.cfi_def_cfa 8, 0
	sw	a0,-20(s0)
	sw	a1,-24(s0)
	sw	a2,-28(s0)
	.loc 2 913 12
	li	a5,0
	.loc 2 914 1
	mv	a0,a5
	lw	ra,28(sp)
	.cfi_restore 1
	lw	s0,24(sp)
	.cfi_restore 8
	.cfi_def_cfa 2, 32
	addi	sp,sp,32
	.cfi_def_cfa_offset 0
	jr	ra
	.cfi_endproc
.LFE78:
	.size	bl_rx_mesh_peer_update_ind, .-bl_rx_mesh_peer_update_ind
	.section	.text.bl_rx_mesh_path_update_ind,"ax",@progbits
	.align	1
	.type	bl_rx_mesh_path_update_ind, @function
bl_rx_mesh_path_update_ind:
.LFB79:
	.loc 2 918 1
	.cfi_startproc
	addi	sp,sp,-32
	.cfi_def_cfa_offset 32
	sw	ra,28(sp)
	sw	s0,24(sp)
	.cfi_offset 1, -4
	.cfi_offset 8, -8
	addi	s0,sp,32
	.cfi_def_cfa 8, 0
	sw	a0,-20(s0)
	sw	a1,-24(s0)
	sw	a2,-28(s0)
	.loc 2 921 12
	li	a5,0
	.loc 2 922 1
	mv	a0,a5
	lw	ra,28(sp)
	.cfi_restore 1
	lw	s0,24(sp)
	.cfi_restore 8
	.cfi_def_cfa 2, 32
	addi	sp,sp,32
	.cfi_def_cfa_offset 0
	jr	ra
	.cfi_endproc
.LFE79:
	.size	bl_rx_mesh_path_update_ind, .-bl_rx_mesh_path_update_ind
	.section	.text.bl_rx_mesh_proxy_update_ind,"ax",@progbits
	.align	1
	.type	bl_rx_mesh_proxy_update_ind, @function
bl_rx_mesh_proxy_update_ind:
.LFB80:
	.loc 2 926 1
	.cfi_startproc
	addi	sp,sp,-32
	.cfi_def_cfa_offset 32
	sw	ra,28(sp)
	sw	s0,24(sp)
	.cfi_offset 1, -4
	.cfi_offset 8, -8
	addi	s0,sp,32
	.cfi_def_cfa 8, 0
	sw	a0,-20(s0)
	sw	a1,-24(s0)
	sw	a2,-28(s0)
	.loc 2 929 12
	li	a5,0
	.loc 2 930 1
	mv	a0,a5
	lw	ra,28(sp)
	.cfi_restore 1
	lw	s0,24(sp)
	.cfi_restore 8
	.cfi_def_cfa 2, 32
	addi	sp,sp,32
	.cfi_def_cfa_offset 0
	jr	ra
	.cfi_endproc
.LFE80:
	.size	bl_rx_mesh_proxy_update_ind, .-bl_rx_mesh_proxy_update_ind
	.section	.rodata.mesh_hdlrs,"a"
	.align	2
	.type	mesh_hdlrs, @object
	.size	mesh_hdlrs, 64
mesh_hdlrs:
	.zero	36
	.word	bl_rx_mesh_path_create_cfm
	.zero	12
	.word	bl_rx_mesh_peer_update_ind
	.word	bl_rx_mesh_path_update_ind
	.word	bl_rx_mesh_proxy_update_ind
	.section	.data.msg_hdlrs,"aw"
	.align	2
	.type	msg_hdlrs, @object
	.size	msg_hdlrs, 52
msg_hdlrs:
	.word	mm_hdlrs
	.word	dbg_hdlrs
	.zero	4
	.word	tdls_hdlrs
	.word	scan_hdlrs
	.word	me_hdlrs
	.word	sm_hdlrs
	.word	apm_hdlrs
	.zero	4
	.word	mesh_hdlrs
	.zero	8
	.word	cfg_hdlrs
	.section	.text.bl_rx_handle_msg,"ax",@progbits
	.align	1
	.globl	bl_rx_handle_msg
	.type	bl_rx_handle_msg, @function
bl_rx_handle_msg:
.LFB81:
	.loc 2 952 1
	.cfi_startproc
	addi	sp,sp,-32
	.cfi_def_cfa_offset 32
	sw	ra,28(sp)
	sw	s0,24(sp)
	.cfi_offset 1, -4
	.cfi_offset 8, -8
	addi	s0,sp,32
	.cfi_def_cfa 8, 0
	sw	a0,-20(s0)
	sw	a1,-24(s0)
	.loc 2 954 19
	lw	a5,-20(s0)
	lw	a5,40(a5)
	.loc 2 954 5
	lw	a4,-20(s0)
	addi	a0,a4,4
	.loc 2 954 81
	lw	a4,-24(s0)
	lhu	a4,0(a4)
	.loc 2 954 60
	srli	a4,a4,10
	slli	a4,a4,16
	srli	a4,a4,16
	mv	a2,a4
	.loc 2 954 58
	lui	a4,%hi(msg_hdlrs)
	addi	a3,a4,%lo(msg_hdlrs)
	slli	a4,a2,2
	add	a4,a3,a4
	lw	a3,0(a4)
	.loc 2 954 101
	lw	a4,-24(s0)
	lhu	a4,0(a4)
	.loc 2 954 107
	andi	a4,a4,1023
	.loc 2 954 95
	slli	a4,a4,2
	add	a4,a3,a4
	.loc 2 954 5
	lw	a4,0(a4)
	mv	a2,a4
	lw	a1,-24(s0)
	jalr	a5
.LVL7:
	.loc 2 955 1
	nop
	lw	ra,28(sp)
	.cfi_restore 1
	lw	s0,24(sp)
	.cfi_restore 8
	.cfi_def_cfa 2, 32
	addi	sp,sp,32
	.cfi_def_cfa_offset 0
	jr	ra
	.cfi_endproc
.LFE81:
	.size	bl_rx_handle_msg, .-bl_rx_handle_msg
	.section	.text.bl_rx_e2a_handler,"ax",@progbits
	.align	1
	.globl	bl_rx_e2a_handler
	.type	bl_rx_e2a_handler, @function
bl_rx_e2a_handler:
.LFB82:
	.loc 2 958 1
	.cfi_startproc
	addi	sp,sp,-48
	.cfi_def_cfa_offset 48
	sw	ra,44(sp)
	sw	s0,40(sp)
	.cfi_offset 1, -4
	.cfi_offset 8, -8
	addi	s0,sp,48
	.cfi_def_cfa 8, 0
	sw	a0,-36(s0)
	.loc 2 959 25
	lw	a5,-36(s0)
	sw	a5,-20(s0)
	.loc 2 960 20
	lui	a5,%hi(wifi_hw)
	addi	a5,a5,%lo(wifi_hw)
	lw	a5,40(a5)
	.loc 2 960 83
	lw	a4,-20(s0)
	lhu	a4,0(a4)
	.loc 2 960 62
	srli	a4,a4,10
	slli	a4,a4,16
	srli	a4,a4,16
	mv	a2,a4
	.loc 2 960 60
	lui	a4,%hi(msg_hdlrs)
	addi	a3,a4,%lo(msg_hdlrs)
	slli	a4,a2,2
	add	a4,a3,a4
	lw	a3,0(a4)
	.loc 2 960 103
	lw	a4,-20(s0)
	lhu	a4,0(a4)
	.loc 2 960 109
	andi	a4,a4,1023
	.loc 2 960 97
	slli	a4,a4,2
	add	a4,a3,a4
	.loc 2 960 5
	lw	a4,0(a4)
	mv	a2,a4
	lw	a1,-20(s0)
	lui	a4,%hi(wifi_hw+4)
	addi	a0,a4,%lo(wifi_hw+4)
	jalr	a5
.LVL8:
	.loc 2 961 1
	nop
	lw	ra,44(sp)
	.cfi_restore 1
	lw	s0,40(sp)
	.cfi_restore 8
	.cfi_def_cfa 2, 48
	addi	sp,sp,48
	.cfi_def_cfa_offset 0
	jr	ra
	.cfi_endproc
.LFE82:
	.size	bl_rx_e2a_handler, .-bl_rx_e2a_handler
	.section	.text.bl_rx_pkt_cb,"ax",@progbits
	.align	1
	.globl	bl_rx_pkt_cb
	.type	bl_rx_pkt_cb, @function
bl_rx_pkt_cb:
.LFB83:
	.loc 2 964 1
	.cfi_startproc
	addi	sp,sp,-32
	.cfi_def_cfa_offset 32
	sw	ra,28(sp)
	sw	s0,24(sp)
	.cfi_offset 1, -4
	.cfi_offset 8, -8
	addi	s0,sp,32
	.cfi_def_cfa 8, 0
	sw	a0,-20(s0)
	sw	a1,-24(s0)
	.loc 2 965 9
	lui	a5,%hi(cb_pkt)
	lw	a5,%lo(cb_pkt)(a5)
	.loc 2 965 8
	beq	a5,zero,.L174
	.loc 2 966 9
	lui	a5,%hi(cb_pkt)
	lw	a5,%lo(cb_pkt)(a5)
	lui	a4,%hi(cb_pkt_env)
	lw	a4,%lo(cb_pkt_env)(a4)
	lw	a2,-24(s0)
	lw	a1,-20(s0)
	mv	a0,a4
	jalr	a5
.LVL9:
.L174:
	.loc 2 968 1
	nop
	lw	ra,28(sp)
	.cfi_restore 1
	lw	s0,24(sp)
	.cfi_restore 8
	.cfi_def_cfa 2, 32
	addi	sp,sp,32
	.cfi_def_cfa_offset 0
	jr	ra
	.cfi_endproc
.LFE83:
	.size	bl_rx_pkt_cb, .-bl_rx_pkt_cb
	.text
.Letext0:
	.file 3 "/home/chandu/sdk/bl602_iot_sdk/toolchain/compiler/lib/gcc/riscv32-unknown-elf/15.1.0/include/stddef.h"
	.file 4 "/home/chandu/sdk/bl602_iot_sdk/toolchain/compiler/lib/gcc/riscv32-unknown-elf/15.1.0/include/stdint-gcc.h"
	.file 5 "/home/chandu/sdk/bl602_iot_sdk/components/network/lwip/src/include/lwip/arch.h"
	.file 6 "/home/chandu/sdk/bl602_iot_sdk/components/network/lwip/src/include/lwip/ip4_addr.h"
	.file 7 "/home/chandu/sdk/bl602_iot_sdk/components/network/lwip/src/include/lwip/ip_addr.h"
	.file 8 "/home/chandu/sdk/bl602_iot_sdk/components/network/lwip/src/include/lwip/err.h"
	.file 9 "/home/chandu/sdk/bl602_iot_sdk/components/freertos/portable/GCC/RISC-V/portmacro.h"
	.file 10 "/home/chandu/sdk/bl602_iot_sdk/components/freertos/include/FreeRTOS.h"
	.file 11 "/home/chandu/sdk/bl602_iot_sdk/components/freertos/include/queue.h"
	.file 12 "/home/chandu/sdk/bl602_iot_sdk/components/freertos/include/semphr.h"
	.file 13 "/home/chandu/sdk/bl602_iot_sdk/components/network/lwip/src/include/lwip/pbuf.h"
	.file 14 "/home/chandu/sdk/bl602_iot_sdk/components/network/lwip/src/include/lwip/netif.h"
	.file 15 "/home/chandu/sdk/bl602_iot_sdk/components/network/lwip/src/include/lwip/acd.h"
	.file 16 "/home/chandu/sdk/bl602_iot_sdk/components/network/lwip/src/include/lwip/memp.h"
	.file 17 "/home/chandu/sdk/bl602_iot_sdk/components/network/lwip/src/include/lwip/prot/acd.h"
	.file 18 "/home/chandu/sdk/bl602_iot_sdk/components/network/lwip/src/include/lwip/priv/api_msg.h"
	.file 19 "/home/chandu/sdk/bl602_iot_sdk/components/bl602/bl602_wifidrv/bl60x_wifi_driver/bl_main.h"
	.file 20 "/home/chandu/sdk/bl602_iot_sdk/components/bl602/bl602_wifidrv/bl60x_wifi_driver/lmac_types.h"
	.file 21 "/home/chandu/sdk/bl602_iot_sdk/components/bl602/bl602_wifidrv/bl60x_wifi_driver/lmac_mac.h"
	.file 22 "/home/chandu/sdk/bl602_iot_sdk/components/bl602/bl602_wifidrv/bl60x_wifi_driver/ipc_shared.h"
	.file 23 "/home/chandu/sdk/bl602_iot_sdk/components/bl602/bl602_wifidrv/bl60x_wifi_driver/ipc_host.h"
	.file 24 "/home/chandu/sdk/bl602_iot_sdk/components/bl602/bl602_wifidrv/bl60x_wifi_driver/list.h"
	.file 25 "/home/chandu/sdk/bl602_iot_sdk/components/bl602/bl602_wifidrv/bl60x_wifi_driver/lmac_msg.h"
	.file 26 "/home/chandu/sdk/bl602_iot_sdk/components/bl602/bl602_wifidrv/bl60x_wifi_driver/os_hal.h"
	.file 27 "/home/chandu/sdk/bl602_iot_sdk/components/bl602/bl602_wifidrv/bl60x_wifi_driver/bl_cmds.h"
	.file 28 "/home/chandu/sdk/bl602_iot_sdk/components/bl602/bl602_wifidrv/bl60x_wifi_driver/bl_defs.h"
	.file 29 "/home/chandu/sdk/bl602_iot_sdk/components/bl602/bl602_wifidrv/bl60x_wifi_driver/cfg80211.h"
	.file 30 "/home/chandu/sdk/bl602_iot_sdk/components/bl602/bl602_wifidrv/bl60x_wifi_driver/bl_mod_params.h"
	.file 31 "/home/chandu/sdk/bl602_iot_sdk/components/bl602/bl602_wifidrv/bl60x_wifi_driver/bl_rx.h"
	.file 32 "/home/chandu/sdk/bl602_iot_sdk/components/stage/yloop/include/aos/yloop.h"
	.file 33 "/home/chandu/sdk/bl602_iot_sdk/components/network/lwip/src/include/lwip/netifapi.h"
	.file 34 "/home/chandu/sdk/bl602_iot_sdk/toolchain/compiler/riscv32-unknown-elf/include/stdio.h"
	.file 35 "/home/chandu/sdk/bl602_iot_sdk/toolchain/compiler/riscv32-unknown-elf/include/string.h"
	.section	.note.GNU-stack,"",@progbits
