	.file	"bl_tx.c"
	.option nopic
	.attribute arch, "rv32i2p1_m2p0_f2p2_c2p0_zicsr2p0_zmmul1p0_zca1p0_zcf1p0"
	.attribute unaligned_access, 0
	.attribute stack_align, 16
	.text
.Ltext0:
	.cfi_sections	.debug_frame
	.file 0 "/home/chandu/sdk/bl602_iot_sdk/customer_app/suas_app_pqkem_gateway/build_out/bl602_wifidrv" "/home/chandu/sdk/bl602_iot_sdk/components/bl602/bl602_wifidrv/bl60x_wifi_driver/bl_tx.c"
	.globl	tx_list_bl
	.section	.sbss.tx_list_bl,"aw",@nobits
	.align	2
	.type	tx_list_bl, @object
	.size	tx_list_bl, 8
tx_list_bl:
	.zero	8
	.globl	internel_cal_size_tx_hdr
	.section	.sdata.internel_cal_size_tx_hdr,"aw"
	.align	2
	.type	internel_cal_size_tx_hdr, @object
	.size	internel_cal_size_tx_hdr, 4
internel_cal_size_tx_hdr:
	.word	92
	.globl	taskHandle_output
	.section	.sbss.taskHandle_output,"aw",@nobits
	.align	2
	.type	taskHandle_output, @object
	.size	taskHandle_output, 4
taskHandle_output:
	.zero	4
	.section	.sdata.bl_hw_static,"aw"
	.align	2
	.type	bl_hw_static, @object
	.size	bl_hw_static, 4
bl_hw_static:
	.word	wifi_hw
	.section	.rodata
	.align	2
.LC0:
	.string	"%d:ASSERT_ERR(host)\n"
	.section	.text.bl_tx_push,"ax",@progbits
	.align	1
	.globl	bl_tx_push
	.type	bl_tx_push, @function
bl_tx_push:
.LFB52:
	.file 1 "/home/chandu/sdk/bl602_iot_sdk/components/bl602/bl602_wifidrv/bl60x_wifi_driver/bl_tx.c"
	.loc 1 50 1
	.cfi_startproc
	addi	sp,sp,-64
	.cfi_def_cfa_offset 64
	sw	ra,60(sp)
	sw	s0,56(sp)
	.cfi_offset 1, -4
	.cfi_offset 8, -8
	addi	s0,sp,64
	.cfi_def_cfa 8, 0
	sw	a0,-52(s0)
	sw	a1,-56(s0)
	.loc 1 52 15
	lw	a5,-56(s0)
	lw	a5,8(a5)
	sw	a5,-32(s0)
	.loc 1 54 14
	lw	a5,-52(s0)
	lw	a5,52(a5)
	mv	a0,a5
	call	ipc_host_txdesc_get
	mv	a5,a0
	.loc 1 54 10 discriminator 1
	addi	a5,a5,4
	sw	a5,-36(s0)
	.loc 1 55 13
	lw	a5,-36(s0)
	bne	a5,zero,.L2
	.loc 1 55 25 discriminator 1
	li	a1,55
	lui	a5,%hi(.LC0)
	addi	a0,a5,%lo(.LC0)
	call	printf
.L2:
.LBB2:
	.loc 1 60 13
	lw	a5,-36(s0)
	sw	a5,-24(s0)
	.loc 1 61 13
	lw	a5,-56(s0)
	addi	a5,a5,12
	sw	a5,-20(s0)
	.loc 1 62 16
	sw	zero,-28(s0)
	.loc 1 62 9
	j	.L3
.L4:
	.loc 1 63 26
	lw	a4,-20(s0)
	addi	a5,a4,1
	sw	a5,-20(s0)
	.loc 1 63 17
	lw	a5,-24(s0)
	addi	a3,a5,1
	sw	a3,-24(s0)
	.loc 1 63 22
	lbu	a4,0(a4)
	.loc 1 63 20
	sb	a4,0(a5)
	.loc 1 62 56 discriminator 3
	lw	a5,-28(s0)
	addi	a5,a5,1
	sw	a5,-28(s0)
.L3:
	.loc 1 62 23 discriminator 1
	lw	a4,-28(s0)
	li	a5,79
	bleu	a4,a5,.L4
.LBE2:
	.loc 1 67 5
	lw	a5,-52(s0)
	lw	a5,52(a5)
	lw	a1,-32(s0)
	mv	a0,a5
	call	ipc_host_txdesc_push
	.loc 1 68 17
	lw	a5,-52(s0)
	lw	a5,56(a5)
	.loc 1 68 29
	addi	a4,a5,1
	lw	a5,-52(s0)
	sw	a4,56(a5)
	.loc 1 69 1
	nop
	lw	ra,60(sp)
	.cfi_restore 1
	lw	s0,56(sp)
	.cfi_restore 8
	.cfi_def_cfa 2, 64
	addi	sp,sp,64
	.cfi_def_cfa_offset 0
	jr	ra
	.cfi_endproc
.LFE52:
	.size	bl_tx_push, .-bl_tx_push
	.globl	txhdr_hodler
	.section	.bss.txhdr_hodler,"aw",@nobits
	.align	2
	.type	txhdr_hodler, @object
	.size	txhdr_hodler, 32
txhdr_hodler:
	.zero	32
	.globl	txhdr_pos_r
	.section	.sbss.txhdr_pos_r,"aw",@nobits
	.align	2
	.type	txhdr_pos_r, @object
	.size	txhdr_pos_r, 4
txhdr_pos_r:
	.zero	4
	.globl	txhdr_pos_w
	.section	.sbss.txhdr_pos_w,"aw",@nobits
	.align	2
	.type	txhdr_pos_w, @object
	.size	txhdr_pos_w, 4
txhdr_pos_w:
	.zero	4
	.section	.text.bl_tx_resend,"ax",@progbits
	.align	1
	.globl	bl_tx_resend
	.type	bl_tx_resend, @function
bl_tx_resend:
.LFB53:
	.loc 1 78 1
	.cfi_startproc
	addi	sp,sp,-16
	.cfi_def_cfa_offset 16
	sw	ra,12(sp)
	sw	s0,8(sp)
	.cfi_offset 1, -4
	.cfi_offset 8, -8
	addi	s0,sp,16
	.cfi_def_cfa 8, 0
	.loc 1 79 5
	call	vTaskEnterCritical
	.loc 1 80 11
	j	.L6
.L9:
	.loc 1 81 52
	lui	a5,%hi(bl_hw_static)
	lw	a5,%lo(bl_hw_static)(a5)
	.loc 1 81 20
	lw	a5,52(a5)
	mv	a0,a5
	call	ipc_host_txdesc_get
	mv	a5,a0
	.loc 1 81 12 discriminator 1
	beq	a5,zero,.L10
	.loc 1 84 34
	lui	a5,%hi(txhdr_pos_r)
	lw	a5,%lo(txhdr_pos_r)(a5)
	andi	a5,a5,7
	.loc 1 84 21
	lui	a4,%hi(txhdr_hodler)
	addi	a4,a4,%lo(txhdr_hodler)
	slli	a5,a5,2
	add	a5,a4,a5
	lw	a5,0(a5)
	.loc 1 84 57
	sw	zero,4(a5)
	.loc 1 88 9
	lui	a5,%hi(bl_hw_static)
	lw	a3,%lo(bl_hw_static)(a5)
	.loc 1 88 59
	lui	a5,%hi(txhdr_pos_r)
	lw	a5,%lo(txhdr_pos_r)(a5)
	andi	a5,a5,7
	.loc 1 88 9
	lui	a4,%hi(txhdr_hodler)
	addi	a4,a4,%lo(txhdr_hodler)
	slli	a5,a5,2
	add	a5,a4,a5
	lw	a5,0(a5)
	mv	a1,a5
	mv	a0,a3
	call	bl_tx_push
	.loc 1 89 20
	lui	a5,%hi(txhdr_pos_r)
	lw	a5,%lo(txhdr_pos_r)(a5)
	addi	a4,a5,1
	lui	a5,%hi(txhdr_pos_r)
	sw	a4,%lo(txhdr_pos_r)(a5)
.L6:
	.loc 1 80 24
	lui	a5,%hi(txhdr_pos_r)
	lw	a4,%lo(txhdr_pos_r)(a5)
	lui	a5,%hi(txhdr_pos_w)
	lw	a5,%lo(txhdr_pos_w)(a5)
	bne	a4,a5,.L9
	j	.L8
.L10:
	.loc 1 82 13
	nop
.L8:
	.loc 1 91 5
	call	vTaskExitCritical
	.loc 1 92 1
	nop
	lw	ra,12(sp)
	.cfi_restore 1
	lw	s0,8(sp)
	.cfi_restore 8
	.cfi_def_cfa 2, 16
	addi	sp,sp,16
	.cfi_def_cfa_offset 0
	jr	ra
	.cfi_endproc
.LFE53:
	.size	bl_tx_resend, .-bl_tx_resend
	.section	.text.bl_tx_try_flush,"ax",@progbits
	.align	1
	.globl	bl_tx_try_flush
	.type	bl_tx_try_flush, @function
bl_tx_try_flush:
.LFB54:
	.loc 1 95 1
	.cfi_startproc
	addi	sp,sp,-32
	.cfi_def_cfa_offset 32
	sw	ra,28(sp)
	sw	s0,24(sp)
	.cfi_offset 1, -4
	.cfi_offset 8, -8
	addi	s0,sp,32
	.cfi_def_cfa 8, 0
	.loc 1 98 5
	call	vTaskEnterCritical
	.loc 1 99 11
	j	.L12
.L15:
	.loc 1 100 35
	lui	a5,%hi(tx_list_bl)
	addi	a0,a5,%lo(tx_list_bl)
	call	utils_list_pop_front
	sw	a0,-20(s0)
	.loc 1 101 12
	lw	a5,-20(s0)
	beq	a5,zero,.L16
	.loc 1 104 9
	lui	a5,%hi(bl_hw_static)
	lw	a5,%lo(bl_hw_static)(a5)
	lw	a1,-20(s0)
	mv	a0,a5
	call	bl_tx_push
.L12:
	.loc 1 99 44
	lui	a5,%hi(bl_hw_static)
	lw	a5,%lo(bl_hw_static)(a5)
	.loc 1 99 12
	lw	a5,52(a5)
	mv	a0,a5
	call	ipc_host_txdesc_get
	mv	a5,a0
	.loc 1 99 12 is_stmt 0 discriminator 1
	bne	a5,zero,.L15
	j	.L14
.L16:
	.loc 1 102 13 is_stmt 1
	nop
.L14:
	.loc 1 106 5
	call	vTaskExitCritical
	.loc 1 107 1
	nop
	lw	ra,28(sp)
	.cfi_restore 1
	lw	s0,24(sp)
	.cfi_restore 8
	.cfi_def_cfa 2, 32
	addi	sp,sp,32
	.cfi_def_cfa_offset 0
	jr	ra
	.cfi_endproc
.LFE54:
	.size	bl_tx_try_flush, .-bl_tx_try_flush
	.section	.text.bl_txdatacfm,"ax",@progbits
	.align	1
	.globl	bl_txdatacfm
	.type	bl_txdatacfm, @function
bl_txdatacfm:
.LFB55:
	.loc 1 110 1
	.cfi_startproc
	addi	sp,sp,-48
	.cfi_def_cfa_offset 48
	sw	ra,44(sp)
	sw	s0,40(sp)
	.cfi_offset 1, -4
	.cfi_offset 8, -8
	addi	s0,sp,48
	.cfi_def_cfa 8, 0
	sw	a0,-36(s0)
	sw	a1,-40(s0)
	.loc 1 112 18
	lw	a5,-40(s0)
	sw	a5,-20(s0)
	.loc 1 116 44
	lw	a5,-20(s0)
	lw	a5,4(a5)
	.loc 1 116 33
	mv	a4,a5
	.loc 1 116 76
	lw	a5,-20(s0)
	lw	a5,4(a5)
	.loc 1 116 99
	neg	a5,a5
	andi	a5,a5,3
	.loc 1 116 55
	add	a5,a4,a5
	.loc 1 116 11
	sw	a5,-24(s0)
	.loc 1 120 13
	lw	a5,-24(s0)
	lw	a5,4(a5)
	sw	a5,-28(s0)
	.loc 1 122 16
	lw	a5,-28(s0)
	.loc 1 122 8
	bne	a5,zero,.L18
	.loc 1 123 16
	li	a5,-1
	j	.L23
.L18:
	.loc 1 125 16
	lw	a4,-28(s0)
	.loc 1 125 23
	li	a5,65536
	and	a5,a4,a5
	.loc 1 125 8
	beq	a5,zero,.L20
	.loc 1 131 27
	lui	a5,%hi(txhdr_pos_w)
	lw	a5,%lo(txhdr_pos_w)(a5)
	addi	a4,a5,1
	.loc 1 131 41
	lui	a5,%hi(txhdr_pos_r)
	lw	a5,%lo(txhdr_pos_r)(a5)
	xor	a5,a4,a5
	andi	a5,a5,7
	.loc 1 131 12
	beq	a5,zero,.L21
	.loc 1 135 38
	lui	a5,%hi(txhdr_pos_w)
	lw	a5,%lo(txhdr_pos_w)(a5)
	andi	a5,a5,7
	.loc 1 135 47
	lui	a4,%hi(txhdr_hodler)
	addi	a4,a4,%lo(txhdr_hodler)
	slli	a5,a5,2
	add	a5,a4,a5
	lw	a4,-24(s0)
	sw	a4,0(a5)
	.loc 1 136 24
	lui	a5,%hi(txhdr_pos_w)
	lw	a5,%lo(txhdr_pos_w)(a5)
	addi	a4,a5,1
	lui	a5,%hi(txhdr_pos_w)
	sw	a4,%lo(txhdr_pos_w)(a5)
	j	.L22
.L21:
	.loc 1 141 13
	lw	a0,-20(s0)
	call	pbuf_free
	j	.L22
.L20:
	.loc 1 144 9
	lw	a0,-20(s0)
	call	pbuf_free
.L22:
	.loc 1 147 12
	li	a5,0
.L23:
	.loc 1 148 1
	mv	a0,a5
	lw	ra,44(sp)
	.cfi_restore 1
	lw	s0,40(sp)
	.cfi_restore 8
	.cfi_def_cfa 2, 48
	addi	sp,sp,48
	.cfi_def_cfa_offset 0
	jr	ra
	.cfi_endproc
.LFE55:
	.size	bl_txdatacfm, .-bl_txdatacfm
	.section	.text.bl_tx_notify,"ax",@progbits
	.align	1
	.globl	bl_tx_notify
	.type	bl_tx_notify, @function
bl_tx_notify:
.LFB56:
	.loc 1 151 1
	.cfi_startproc
	addi	sp,sp,-16
	.cfi_def_cfa_offset 16
	sw	ra,12(sp)
	sw	s0,8(sp)
	.cfi_offset 1, -4
	.cfi_offset 8, -8
	addi	s0,sp,16
	.cfi_def_cfa 8, 0
	.loc 1 153 9
	lui	a5,%hi(taskHandle_output)
	lw	a5,%lo(taskHandle_output)(a5)
	.loc 1 153 8
	beq	a5,zero,.L27
	.loc 1 154 9
	lui	a5,%hi(taskHandle_output)
	lw	a5,%lo(taskHandle_output)(a5)
	li	a3,0
	li	a2,2
	li	a1,0
	mv	a0,a5
	call	xTaskGenericNotify
	.loc 1 157 5
	nop
.L27:
	nop
	.loc 1 158 1
	lw	ra,12(sp)
	.cfi_restore 1
	lw	s0,8(sp)
	.cfi_restore 8
	.cfi_def_cfa 2, 16
	addi	sp,sp,16
	.cfi_def_cfa_offset 0
	jr	ra
	.cfi_endproc
.LFE56:
	.size	bl_tx_notify, .-bl_tx_notify
	.section	.rodata
	.align	2
.LC1:
	.string	"[TX] wifi is down, return now\r\n"
	.align	2
.LC2:
	.string	"[TX] Reserve room failed for header\r\n"
	.align	2
.LC3:
	.string	"link_header size is %ld vs header %u\r\n"
	.align	2
.LC4:
	.string	"[TX] [PBUF] Please fix for bigger chained pbuf, total_len %d\r\n"
	.align	2
.LC5:
	.string	"[TX] [LOOP] Chain Used %d\r\n"
	.section	.text.bl_output,"ax",@progbits
	.align	1
	.globl	bl_output
	.type	bl_output, @function
bl_output:
.LFB57:
	.loc 1 161 1
	.cfi_startproc
	addi	sp,sp,-80
	.cfi_def_cfa_offset 80
	sw	ra,76(sp)
	sw	s0,72(sp)
	.cfi_offset 1, -4
	.cfi_offset 8, -8
	addi	s0,sp,80
	.cfi_def_cfa 8, 0
	sw	a0,-68(s0)
	sw	a1,-72(s0)
	sw	a2,-76(s0)
	sw	a3,-80(s0)
	.loc 1 168 9
	sw	zero,-24(s0)
	.loc 1 172 8
	lw	a5,-68(s0)
	beq	a5,zero,.L29
	.loc 1 172 44 discriminator 1
	lw	a5,-72(s0)
	lbu	a5,69(a5)
	.loc 1 172 27 discriminator 1
	andi	a5,a5,4
	andi	a5,a5,0xff
	.loc 1 172 22 discriminator 1
	bne	a5,zero,.L30
.L29:
	.loc 1 173 9
	lui	a5,%hi(.LC1)
	addi	a0,a5,%lo(.LC1)
	call	printf
	.loc 1 174 16
	li	a5,-11
	j	.L31
.L30:
	.loc 1 177 11
	lui	a5,%hi(taskHandle_output)
	lw	a5,%lo(taskHandle_output)(a5)
	.loc 1 177 8
	bne	a5,zero,.L32
	.loc 1 178 29
	call	xTaskGetCurrentTaskHandle
	mv	a4,a0
	.loc 1 178 27 discriminator 1
	lui	a5,%hi(taskHandle_output)
	sw	a4,%lo(taskHandle_output)(a5)
.L32:
	.loc 1 181 18
	lui	a5,%hi(bl_hw_static)
	lw	a4,-68(s0)
	sw	a4,%lo(bl_hw_static)(a5)
	.loc 1 182 16
	lw	a5,-76(s0)
	lw	a5,4(a5)
	sw	a5,-28(s0)
	.loc 1 183 16
	lw	a5,-76(s0)
	lhu	a5,8(a5)
	sh	a5,-30(s0)
	.loc 1 186 9
	li	a1,128
	lw	a0,-76(s0)
	call	pbuf_header
	mv	a5,a0
	.loc 1 186 8 discriminator 1
	beq	a5,zero,.L33
	.loc 1 187 9
	lui	a5,%hi(.LC2)
	addi	a0,a5,%lo(.LC2)
	call	printf
	.loc 1 188 16
	li	a5,-12
	j	.L31
.L33:
	.loc 1 191 43
	lw	a5,-76(s0)
	lw	a5,4(a5)
	.loc 1 191 32
	mv	a4,a5
	.loc 1 191 75
	lw	a5,-76(s0)
	lw	a5,4(a5)
	.loc 1 191 98
	neg	a5,a5
	andi	a5,a5,3
	.loc 1 191 54
	add	a5,a4,a5
	.loc 1 191 17
	sw	a5,-36(s0)
	.loc 1 192 59
	lw	a5,-76(s0)
	lw	a5,4(a5)
	.loc 1 192 82
	neg	a5,a5
	andi	a5,a5,3
	.loc 1 192 38
	addi	a4,a5,108
	.loc 1 192 8
	li	a5,128
	bleu	a4,a5,.L34
	.loc 1 194 62
	lw	a5,-76(s0)
	lw	a5,4(a5)
	.loc 1 194 85
	neg	a5,a5
	andi	a5,a5,3
	.loc 1 193 9
	addi	a5,a5,92
	li	a2,128
	mv	a1,a5
	lui	a5,%hi(.LC3)
	addi	a0,a5,%lo(.LC3)
	call	printf
.L34:
	.loc 1 199 9
	sb	zero,-37(s0)
	.loc 1 201 9
	lw	a5,-28(s0)
	sw	a5,-44(s0)
	.loc 1 202 11
	lw	a5,-36(s0)
	sw	a5,-48(s0)
	.loc 1 203 5
	li	a2,92
	li	a1,0
	lw	a0,-48(s0)
	call	memset
	.loc 1 204 10
	lw	a5,-48(s0)
	addi	a5,a5,12
	sw	a5,-52(s0)
	.loc 1 206 14
	lw	a5,-48(s0)
	lw	a4,-76(s0)
	sw	a4,8(a5)
	.loc 1 208 12
	lw	a5,-52(s0)
	addi	a5,a5,16
	.loc 1 208 37
	lw	a4,-44(s0)
	.loc 1 208 5
	li	a2,6
	mv	a1,a4
	mv	a0,a5
	call	memcpy
	.loc 1 209 12
	lw	a5,-52(s0)
	addi	a4,a5,22
	.loc 1 209 36
	lw	a5,-44(s0)
	addi	a5,a5,6
	.loc 1 209 5
	li	a2,6
	mv	a1,a5
	mv	a0,a4
	call	memcpy
	.loc 1 210 23
	lw	a4,-76(s0)
	.loc 1 210 21
	lw	a5,-52(s0)
	sw	a4,0(a5)
	.loc 1 211 26
	lw	a5,-44(s0)
	lbu	a4,12(a5)
	lbu	a5,13(a5)
	slli	a5,a5,8
	or	a5,a5,a4
	slli	a4,a5,16
	srli	a4,a4,16
	.loc 1 211 21
	lw	a5,-52(s0)
	sh	a4,28(a5)
	.loc 1 212 15
	lw	a5,-52(s0)
	lbu	a4,-37(s0)
	sb	a4,42(a5)
	.loc 1 213 19
	lw	a5,-80(s0)
	beq	a5,zero,.L35
	.loc 1 213 36 discriminator 1
	lw	a4,-68(s0)
	li	a5,4096
	add	a5,a4,a5
	lw	a5,-484(a5)
	.loc 1 213 19 discriminator 1
	andi	a5,a5,0xff
	j	.L36
.L35:
	.loc 1 213 59 discriminator 2
	lw	a4,-68(s0)
	li	a5,4096
	add	a5,a4,a5
	lw	a5,-480(a5)
	.loc 1 213 19 discriminator 2
	andi	a5,a5,0xff
.L36:
	.loc 1 213 19 is_stmt 0 discriminator 4
	lw	a4,-52(s0)
	sb	a5,43(a4)
	.loc 1 214 17 is_stmt 1
	lw	a5,-52(s0)
	sh	zero,46(a5)
	.loc 1 215 35
	lhu	a5,-30(s0)
	addi	a5,a5,-14
	slli	a4,a5,16
	srli	a4,a4,16
	.loc 1 215 22
	lw	a5,-52(s0)
	sh	a4,8(a5)
	.loc 1 216 8
	lw	a5,-80(s0)
	beq	a5,zero,.L37
	.loc 1 217 28
	lw	a4,-68(s0)
	li	a5,4096
	add	a5,a4,a5
	lw	a5,-476(a5)
	.loc 1 217 21
	andi	a4,a5,0xff
	lw	a5,-52(s0)
	sb	a4,44(a5)
	j	.L38
.L37:
	.loc 1 219 53
	lw	a5,-44(s0)
	.loc 1 219 23
	mv	a1,a5
	lw	a0,-68(s0)
	call	bl_utils_idx_lookup
	mv	a5,a0
	.loc 1 219 21 discriminator 1
	andi	a4,a5,0xff
	lw	a5,-52(s0)
	sb	a4,44(a5)
.L38:
	.loc 1 222 10
	sw	zero,-24(s0)
	.loc 1 223 12
	lw	a5,-76(s0)
	sw	a5,-20(s0)
	.loc 1 223 5
	j	.L39
.L43:
	.loc 1 224 12
	lw	a5,-24(s0)
	bne	a5,zero,.L40
	.loc 1 226 67
	lw	a5,-20(s0)
	lw	a5,4(a5)
	.loc 1 226 94
	addi	a4,a5,142
	.loc 1 226 42
	lw	a3,-52(s0)
	lw	a5,-24(s0)
	addi	a5,a5,12
	slli	a5,a5,2
	add	a5,a3,a5
	sw	a4,0(a5)
	.loc 1 227 45
	lw	a5,-20(s0)
	lhu	a5,10(a5)
	.loc 1 227 66
	addi	a4,a5,-142
	.loc 1 227 42
	lw	a3,-52(s0)
	lw	a5,-24(s0)
	addi	a5,a5,16
	slli	a5,a5,2
	add	a5,a3,a5
	sw	a4,0(a5)
	j	.L41
.L40:
	.loc 1 230 16
	lw	a4,-24(s0)
	li	a5,3
	ble	a4,a5,.L42
	.loc 1 233 26
	lw	a5,-76(s0)
	lhu	a5,8(a5)
	.loc 1 232 17
	mv	a1,a5
	lui	a5,%hi(.LC4)
	addi	a0,a5,%lo(.LC4)
	call	printf
.L42:
	.loc 1 236 56
	lw	a5,-20(s0)
	lw	a5,4(a5)
	.loc 1 236 44
	mv	a3,a5
	.loc 1 236 42
	lw	a4,-52(s0)
	lw	a5,-24(s0)
	addi	a5,a5,12
	slli	a5,a5,2
	add	a5,a4,a5
	sw	a3,0(a5)
	.loc 1 237 45
	lw	a5,-20(s0)
	lhu	a5,10(a5)
	mv	a3,a5
	.loc 1 237 42
	lw	a4,-52(s0)
	lw	a5,-24(s0)
	addi	a5,a5,16
	slli	a5,a5,2
	add	a5,a4,a5
	sw	a3,0(a5)
.L41:
	.loc 1 251 13
	lw	a5,-24(s0)
	addi	a5,a5,1
	sw	a5,-24(s0)
	.loc 1 223 29 discriminator 2
	lw	a5,-20(s0)
	lw	a5,0(a5)
	sw	a5,-20(s0)
.L39:
	.loc 1 223 19 discriminator 1
	lw	a5,-20(s0)
	bne	a5,zero,.L43
	.loc 1 253 8
	lw	a4,-24(s0)
	li	a5,2
	ble	a4,a5,.L44
	.loc 1 254 9
	lw	a1,-24(s0)
	lui	a5,%hi(.LC5)
	addi	a0,a5,%lo(.LC5)
	call	printf
.L44:
	.loc 1 257 25
	lw	a5,-48(s0)
	sw	zero,4(a5)
	.loc 1 259 23
	lw	a5,-52(s0)
	li	a4,286330880
	addi	a4,a4,273
	sw	a4,4(a5)
	.loc 1 260 36
	lw	a5,-48(s0)
	addi	a5,a5,4
	.loc 1 260 25
	mv	a4,a5
	.loc 1 260 23
	lw	a5,-52(s0)
	sw	a4,12(a5)
	.loc 1 263 5
	lw	a0,-76(s0)
	call	pbuf_ref
	.loc 1 265 5
	call	vTaskEnterCritical
	.loc 1 266 5
	lw	a5,-48(s0)
	mv	a1,a5
	lui	a5,%hi(tx_list_bl)
	addi	a0,a5,%lo(tx_list_bl)
	call	utils_list_push_back
	.loc 1 267 5
	call	vTaskExitCritical
	.loc 1 269 5
	call	bl_irq_handler
	.loc 1 271 12
	li	a5,0
.L31:
	.loc 1 272 1
	mv	a0,a5
	lw	ra,76(sp)
	.cfi_restore 1
	lw	s0,72(sp)
	.cfi_restore 8
	.cfi_def_cfa 2, 80
	addi	sp,sp,80
	.cfi_def_cfa_offset 0
	jr	ra
	.cfi_endproc
.LFE57:
	.size	bl_output, .-bl_output
	.text
.Letext0:
	.file 2 "/home/chandu/sdk/bl602_iot_sdk/toolchain/compiler/lib/gcc/riscv32-unknown-elf/15.1.0/include/stddef.h"
	.file 3 "/home/chandu/sdk/bl602_iot_sdk/toolchain/compiler/lib/gcc/riscv32-unknown-elf/15.1.0/include/stdint-gcc.h"
	.file 4 "/home/chandu/sdk/bl602_iot_sdk/components/network/lwip/src/include/lwip/arch.h"
	.file 5 "/home/chandu/sdk/bl602_iot_sdk/components/network/lwip/src/include/lwip/err.h"
	.file 6 "/home/chandu/sdk/bl602_iot_sdk/components/network/lwip/src/include/lwip/pbuf.h"
	.file 7 "/home/chandu/sdk/bl602_iot_sdk/components/network/lwip/src/include/lwip/ip4_addr.h"
	.file 8 "/home/chandu/sdk/bl602_iot_sdk/components/network/lwip/src/include/lwip/ip_addr.h"
	.file 9 "/home/chandu/sdk/bl602_iot_sdk/components/network/lwip/src/include/lwip/memp.h"
	.file 10 "/home/chandu/sdk/bl602_iot_sdk/components/network/lwip/src/include/lwip/netif.h"
	.file 11 "/home/chandu/sdk/bl602_iot_sdk/components/utils/include/utils_list.h"
	.file 12 "/home/chandu/sdk/bl602_iot_sdk/components/bl602/bl602_wifidrv/bl60x_wifi_driver/lmac_types.h"
	.file 13 "/home/chandu/sdk/bl602_iot_sdk/components/bl602/bl602_wifidrv/bl60x_wifi_driver/lmac_mac.h"
	.file 14 "/home/chandu/sdk/bl602_iot_sdk/components/bl602/bl602_wifidrv/bl60x_wifi_driver/ipc_shared.h"
	.file 15 "/home/chandu/sdk/bl602_iot_sdk/components/bl602/bl602_wifidrv/bl60x_wifi_driver/hal_desc.h"
	.file 16 "/home/chandu/sdk/bl602_iot_sdk/components/bl602/bl602_wifidrv/bl60x_wifi_driver/ipc_host.h"
	.file 17 "/home/chandu/sdk/bl602_iot_sdk/components/bl602/bl602_wifidrv/bl60x_wifi_driver/list.h"
	.file 18 "/home/chandu/sdk/bl602_iot_sdk/components/bl602/bl602_wifidrv/bl60x_wifi_driver/lmac_msg.h"
	.file 19 "/home/chandu/sdk/bl602_iot_sdk/components/freertos/portable/GCC/RISC-V/portmacro.h"
	.file 20 "/home/chandu/sdk/bl602_iot_sdk/components/freertos/include/FreeRTOS.h"
	.file 21 "/home/chandu/sdk/bl602_iot_sdk/components/freertos/include/task.h"
	.file 22 "/home/chandu/sdk/bl602_iot_sdk/components/freertos/include/queue.h"
	.file 23 "/home/chandu/sdk/bl602_iot_sdk/components/freertos/include/semphr.h"
	.file 24 "/home/chandu/sdk/bl602_iot_sdk/components/bl602/bl602_wifidrv/bl60x_wifi_driver/os_hal.h"
	.file 25 "/home/chandu/sdk/bl602_iot_sdk/components/bl602/bl602_wifidrv/bl60x_wifi_driver/bl_cmds.h"
	.file 26 "/home/chandu/sdk/bl602_iot_sdk/components/bl602/bl602_wifidrv/bl60x_wifi_driver/bl_defs.h"
	.file 27 "/home/chandu/sdk/bl602_iot_sdk/components/bl602/bl602_wifidrv/bl60x_wifi_driver/ieee80211.h"
	.file 28 "/home/chandu/sdk/bl602_iot_sdk/components/bl602/bl602_wifidrv/bl60x_wifi_driver/cfg80211.h"
	.file 29 "/home/chandu/sdk/bl602_iot_sdk/components/bl602/bl602_wifidrv/bl60x_wifi_driver/bl_mod_params.h"
	.file 30 "/home/chandu/sdk/bl602_iot_sdk/components/bl602/bl602_wifidrv/bl60x_wifi_driver/bl_tx.h"
	.file 31 "/home/chandu/sdk/bl602_iot_sdk/components/bl602/bl602_wifidrv/bl60x_wifi_driver/bl_utils.h"
	.file 32 "/home/chandu/sdk/bl602_iot_sdk/toolchain/compiler/riscv32-unknown-elf/include/string.h"
	.file 33 "/home/chandu/sdk/bl602_iot_sdk/toolchain/compiler/riscv32-unknown-elf/include/stdio.h"
	.section	.note.GNU-stack,"",@progbits
