	.file	"wifi_mgmr_ext.c"
	.option nopic
	.attribute arch, "rv32i2p1_m2p0_f2p2_c2p0_zicsr2p0_zmmul1p0_zca1p0_zcf1p0"
	.attribute unaligned_access, 0
	.attribute stack_align, 16
	.text
.Ltext0:
	.cfi_sections	.debug_frame
	.file 0 "/home/chandu/sdk/bl602_iot_sdk/customer_app/suas_app_pqkem_gateway/build_out/bl602_wifidrv" "/home/chandu/sdk/bl602_iot_sdk/components/bl602/bl602_wifidrv/bl60x_wifi_driver/wifi_mgmr_ext.c"
	.section	.text.wifi_mgmr_scan_item_is_timeout,"ax",@progbits
	.align	1
	.type	wifi_mgmr_scan_item_is_timeout, @function
wifi_mgmr_scan_item_is_timeout:
.LFB6:
	.file 1 "/home/chandu/sdk/bl602_iot_sdk/components/bl602/bl602_wifidrv/bl60x_wifi_driver/wifi_mgmr.h"
	.loc 1 299 1
	.cfi_startproc
	addi	sp,sp,-32
	.cfi_def_cfa_offset 32
	sw	ra,28(sp)
	sw	s0,24(sp)
	.cfi_offset 1, -4
	.cfi_offset 8, -8
	addi	s0,sp,32
	.cfi_def_cfa 8, 0
	sw	a0,-20(s0)
	sw	a1,-24(s0)
	.loc 1 300 27
	call	xTaskGetTickCount
	mv	a4,a0
	.loc 1 300 67 discriminator 1
	lw	a5,-24(s0)
	lw	a5,56(a5)
	.loc 1 300 47 discriminator 1
	sub	a5,a4,a5
	.loc 1 300 96 discriminator 1
	lw	a3,-20(s0)
	li	a4,4096
	add	a4,a3,a4
	lw	a4,2016(a4)
	.loc 1 300 120 discriminator 1
	sltu	a5,a5,a4
	seqz	a5,a5
	andi	a5,a5,0xff
	.loc 1 301 1
	mv	a0,a5
	lw	ra,28(sp)
	.cfi_restore 1
	lw	s0,24(sp)
	.cfi_restore 8
	.cfi_def_cfa 2, 32
	addi	sp,sp,32
	.cfi_def_cfa_offset 0
	jr	ra
	.cfi_endproc
.LFE6:
	.size	wifi_mgmr_scan_item_is_timeout, .-wifi_mgmr_scan_item_is_timeout
	.globl	scan_sig
	.section	.sbss.scan_sig,"aw",@nobits
	.align	2
	.type	scan_sig, @object
	.size	scan_sig, 4
scan_sig:
	.zero	4
	.section	.sbss.scan_cb,"aw",@nobits
	.align	2
	.type	scan_cb, @object
	.size	scan_cb, 4
scan_cb:
	.zero	4
	.section	.sbss.scan_data,"aw",@nobits
	.align	2
	.type	scan_data, @object
	.size	scan_data, 4
scan_data:
	.zero	4
	.section	.rodata
	.align	2
.LC0:
	.string	"scan complete status: %d, ssid_len = %lu\r\n"
	.section	.text.cb_scan_complete,"ax",@progbits
	.align	1
	.type	cb_scan_complete, @function
cb_scan_complete:
.LFB7:
	.file 2 "/home/chandu/sdk/bl602_iot_sdk/components/bl602/bl602_wifidrv/bl60x_wifi_driver/wifi_mgmr_ext.c"
	.loc 2 61 1
	.cfi_startproc
	addi	sp,sp,-48
	.cfi_def_cfa_offset 48
	sw	ra,44(sp)
	sw	s0,40(sp)
	.cfi_offset 1, -4
	.cfi_offset 8, -8
	addi	s0,sp,48
	.cfi_def_cfa 8, 0
	sw	a0,-36(s0)
	sw	a1,-40(s0)
	.loc 2 62 26
	lw	a5,-36(s0)
	sw	a5,-20(s0)
	.loc 2 63 9
	lw	a5,-40(s0)
	lw	a5,0(a5)
	sw	a5,-24(s0)
	.loc 2 64 5
	lw	a5,-20(s0)
	lw	a5,36(a5)
	mv	a2,a5
	lw	a1,-24(s0)
	lui	a5,%hi(.LC0)
	addi	a0,a5,%lo(.LC0)
	call	printf
	.loc 2 66 18
	lui	a5,%hi(scan_sig)
	lw	a5,%lo(scan_sig)(a5)
	.loc 2 66 8
	beq	a5,zero,.L5
	.loc 2 67 9
	lui	a5,%hi(scan_sig)
	lw	a5,%lo(scan_sig)(a5)
	li	a3,0
	li	a2,0
	li	a1,0
	mv	a0,a5
	call	xQueueGenericSend
.L5:
	.loc 2 69 1
	nop
	lw	ra,44(sp)
	.cfi_restore 1
	lw	s0,40(sp)
	.cfi_restore 8
	.cfi_def_cfa 2, 48
	addi	sp,sp,48
	.cfi_def_cfa_offset 0
	jr	ra
	.cfi_endproc
.LFE7:
	.size	cb_scan_complete, .-cb_scan_complete
	.section	.text.cb_scan_item_parse,"ax",@progbits
	.align	1
	.type	cb_scan_item_parse, @function
cb_scan_item_parse:
.LFB8:
	.loc 2 72 1
	.cfi_startproc
	addi	sp,sp,-48
	.cfi_def_cfa_offset 48
	sw	ra,44(sp)
	sw	s0,40(sp)
	.cfi_offset 1, -4
	.cfi_offset 8, -8
	addi	s0,sp,48
	.cfi_def_cfa 8, 0
	sw	a0,-36(s0)
	sw	a1,-40(s0)
	sw	a2,-44(s0)
	.loc 2 74 14
	lw	a5,-40(s0)
	lw	a5,0(a5)
	sw	a5,-20(s0)
	.loc 2 77 8
	lw	a4,-20(s0)
	li	a5,49
	bgtu	a4,a5,.L9
	.loc 2 82 66
	lw	a4,-20(s0)
	li	a5,52
	mul	a5,a4,a5
	.loc 2 82 26
	lw	a4,-36(s0)
	add	a5,a4,a5
	sw	a5,-24(s0)
	.loc 2 83 12
	lw	a5,-20(s0)
	addi	a5,a5,1
	sw	a5,-20(s0)
	.loc 2 86 31
	lw	a5,-44(s0)
	lbu	a4,46(a5)
	.loc 2 86 25
	lw	a5,-24(s0)
	sb	a4,46(a5)
	.loc 2 87 28
	lw	a5,-44(s0)
	lb	a4,48(a5)
	.loc 2 87 22
	lw	a5,-24(s0)
	sb	a4,48(a5)
	.loc 2 88 22
	lw	a5,-24(s0)
	addi	a4,a5,40
	.loc 2 88 35
	lw	a5,-44(s0)
	addi	a5,a5,40
	.loc 2 88 5
	li	a2,6
	mv	a1,a5
	mv	a0,a4
	call	memcpy
	.loc 2 89 22
	lw	a5,-24(s0)
	.loc 2 89 34
	lw	a4,-44(s0)
	.loc 2 89 5
	li	a2,32
	mv	a1,a4
	mv	a0,a5
	call	memcpy
	.loc 2 90 30
	lw	a5,-24(s0)
	sb	zero,32(a5)
	.loc 2 91 43
	lw	a5,-24(s0)
	.loc 2 91 28
	mv	a0,a5
	call	strlen
	mv	a4,a0
	.loc 2 91 26 discriminator 1
	lw	a5,-24(s0)
	sw	a4,36(a5)
	.loc 2 92 28
	lw	a5,-44(s0)
	lbu	a4,47(a5)
	.loc 2 92 22
	lw	a5,-24(s0)
	sb	a4,47(a5)
	.loc 2 95 15
	lw	a5,-40(s0)
	lw	a4,-20(s0)
	sw	a4,0(a5)
	j	.L6
.L9:
	.loc 2 79 9
	nop
.L6:
	.loc 2 96 1
	lw	ra,44(sp)
	.cfi_restore 1
	lw	s0,40(sp)
	.cfi_restore 8
	.cfi_def_cfa 2, 48
	addi	sp,sp,48
	.cfi_def_cfa_offset 0
	jr	ra
	.cfi_endproc
.LFE8:
	.size	cb_scan_item_parse, .-cb_scan_item_parse
	.section	.text.mac_is_unvalid,"ax",@progbits
	.align	1
	.type	mac_is_unvalid, @function
mac_is_unvalid:
.LFB9:
	.loc 2 99 1
	.cfi_startproc
	addi	sp,sp,-48
	.cfi_def_cfa_offset 48
	sw	ra,44(sp)
	sw	s0,40(sp)
	.cfi_offset 1, -4
	.cfi_offset 8, -8
	addi	s0,sp,48
	.cfi_def_cfa 8, 0
	sw	a0,-36(s0)
	.loc 2 103 10
	lw	a5,-36(s0)
	lbu	a5,0(a5)
	sb	a5,-21(s0)
	.loc 2 104 12
	li	a5,1
	sw	a5,-20(s0)
	.loc 2 104 5
	j	.L11
.L14:
	.loc 2 105 24
	lw	a5,-20(s0)
	lw	a4,-36(s0)
	add	a5,a4,a5
	lbu	a5,0(a5)
	.loc 2 105 12
	lbu	a4,-21(s0)
	bne	a4,a5,.L18
	.loc 2 104 25 discriminator 2
	lw	a5,-20(s0)
	addi	a5,a5,1
	sw	a5,-20(s0)
.L11:
	.loc 2 104 19 discriminator 1
	lw	a4,-20(s0)
	li	a5,5
	ble	a4,a5,.L14
	j	.L13
.L18:
	.loc 2 106 13
	nop
.L13:
	.loc 2 109 8
	lw	a4,-20(s0)
	li	a5,6
	bne	a4,a5,.L15
	.loc 2 110 12
	lbu	a5,-21(s0)
	beq	a5,zero,.L16
	.loc 2 110 23 discriminator 1
	lbu	a4,-21(s0)
	li	a5,255
	bne	a4,a5,.L15
.L16:
	.loc 2 112 20
	li	a5,1
	j	.L17
.L15:
	.loc 2 116 12
	li	a5,0
.L17:
	.loc 2 117 1
	mv	a0,a5
	lw	ra,44(sp)
	.cfi_restore 1
	lw	s0,40(sp)
	.cfi_restore 8
	.cfi_def_cfa 2, 48
	addi	sp,sp,48
	.cfi_def_cfa_offset 0
	jr	ra
	.cfi_endproc
.LFE9:
	.size	mac_is_unvalid, .-mac_is_unvalid
	.section	.text.wifi_eth_sta_enable,"ax",@progbits
	.align	1
	.type	wifi_eth_sta_enable, @function
wifi_eth_sta_enable:
.LFB10:
	.loc 2 120 1
	.cfi_startproc
	addi	sp,sp,-48
	.cfi_def_cfa_offset 48
	sw	ra,44(sp)
	sw	s0,40(sp)
	.cfi_offset 1, -4
	.cfi_offset 8, -8
	addi	s0,sp,48
	.cfi_def_cfa 8, 0
	sw	a0,-36(s0)
	sw	a1,-40(s0)
	.loc 2 130 17
	sw	zero,-20(s0)
	.loc 2 131 18
	sw	zero,-24(s0)
	.loc 2 132 13
	sw	zero,-28(s0)
	.loc 2 135 17
	lw	a5,-36(s0)
	addi	a5,a5,62
	.loc 2 135 5
	li	a2,6
	lw	a1,-40(s0)
	mv	a0,a5
	call	memcpy
	.loc 2 136 29
	lw	a5,-36(s0)
	addi	a5,a5,62
	.loc 2 136 9
	mv	a0,a5
	call	mac_is_unvalid
	mv	a5,a0
	.loc 2 136 8 discriminator 1
	beq	a5,zero,.L20
	.loc 2 138 35
	lw	a5,-36(s0)
	addi	a5,a5,62
	.loc 2 138 9
	mv	a0,a5
	call	bl_wifi_mac_addr_get
	.loc 2 139 33
	lw	a5,-36(s0)
	addi	a5,a5,62
	.loc 2 139 13
	mv	a0,a5
	call	mac_is_unvalid
	mv	a5,a0
	.loc 2 139 12 discriminator 1
	beq	a5,zero,.L21
	.loc 2 142 30
	lw	a5,-36(s0)
	li	a4,-64
	sb	a4,62(a5)
	.loc 2 143 30
	lw	a5,-36(s0)
	li	a4,80
	sb	a4,63(a5)
	.loc 2 144 30
	lw	a5,-36(s0)
	li	a4,67
	sb	a4,64(a5)
	.loc 2 145 30
	lw	a5,-36(s0)
	li	a4,-55
	sb	a4,65(a5)
	.loc 2 146 30
	lw	a5,-36(s0)
	sb	zero,66(a5)
	.loc 2 147 30
	lw	a5,-36(s0)
	li	a4,1
	sb	a4,67(a5)
.L21:
	.loc 2 150 26
	lw	a5,-36(s0)
	addi	a5,a5,62
	.loc 2 150 9
	li	a2,6
	mv	a1,a5
	lw	a0,-40(s0)
	call	memcpy
.L20:
	.loc 2 166 5
	addi	a3,s0,-28
	addi	a2,s0,-24
	addi	a1,s0,-20
	lui	a5,%hi(tcpip_input)
	addi	a6,a5,%lo(tcpip_input)
	lui	a5,%hi(bl606a0_wifi_netif_init)
	addi	a5,a5,%lo(bl606a0_wifi_netif_init)
	li	a4,0
	lw	a0,-36(s0)
	call	netifapi_netif_add
	.loc 2 167 20
	lw	a5,-36(s0)
	li	a4,115
	sb	a4,70(a5)
	.loc 2 168 20
	lw	a5,-36(s0)
	li	a4,116
	sb	a4,71(a5)
	.loc 2 169 10
	lw	a5,-36(s0)
	lbu	a5,69(a5)
	.loc 2 169 18
	ori	a5,a5,36
	andi	a4,a5,0xff
	lw	a5,-36(s0)
	sb	a4,69(a5)
	.loc 2 170 5
	lw	a0,-36(s0)
	call	netif_set_default
	.loc 2 171 5
	lw	a0,-36(s0)
	call	netif_set_up
	.loc 2 172 1
	nop
	lw	ra,44(sp)
	.cfi_restore 1
	lw	s0,40(sp)
	.cfi_restore 8
	.cfi_def_cfa 2, 48
	addi	sp,sp,48
	.cfi_def_cfa_offset 0
	jr	ra
	.cfi_endproc
.LFE10:
	.size	wifi_eth_sta_enable, .-wifi_eth_sta_enable
	.section	.text.wifi_mgmr_psk_cal,"ax",@progbits
	.align	1
	.globl	wifi_mgmr_psk_cal
	.type	wifi_mgmr_psk_cal, @function
wifi_mgmr_psk_cal:
.LFB11:
	.loc 2 175 1
	.cfi_startproc
	addi	sp,sp,-80
	.cfi_def_cfa_offset 80
	sw	ra,76(sp)
	sw	s0,72(sp)
	.cfi_offset 1, -4
	.cfi_offset 8, -8
	addi	s0,sp,80
	.cfi_def_cfa 8, 0
	sw	a0,-68(s0)
	sw	a1,-72(s0)
	sw	a2,-76(s0)
	sw	a3,-80(s0)
	.loc 2 179 11
	addi	a5,s0,-52
	mv	a3,a5
	lw	a2,-76(s0)
	lw	a1,-72(s0)
	lw	a0,-68(s0)
	call	bl60x_fw_password_hash
	sw	a0,-20(s0)
	.loc 2 180 8
	lw	a5,-20(s0)
	bne	a5,zero,.L23
	.loc 2 181 9
	addi	a5,s0,-52
	li	a2,32
	mv	a1,a5
	lw	a0,-80(s0)
	call	utils_bin2hex
.L23:
	.loc 2 184 12
	lw	a5,-20(s0)
	.loc 2 185 1
	mv	a0,a5
	lw	ra,76(sp)
	.cfi_restore 1
	lw	s0,72(sp)
	.cfi_restore 8
	.cfi_def_cfa 2, 80
	addi	sp,sp,80
	.cfi_def_cfa_offset 0
	jr	ra
	.cfi_endproc
.LFE11:
	.size	wifi_mgmr_psk_cal, .-wifi_mgmr_psk_cal
	.section	.text.wifi_mgmr_drv_init,"ax",@progbits
	.align	1
	.globl	wifi_mgmr_drv_init
	.type	wifi_mgmr_drv_init, @function
wifi_mgmr_drv_init:
.LFB12:
	.loc 2 188 1
	.cfi_startproc
	addi	sp,sp,-32
	.cfi_def_cfa_offset 32
	sw	ra,28(sp)
	sw	s0,24(sp)
	.cfi_offset 1, -4
	.cfi_offset 8, -8
	addi	s0,sp,32
	.cfi_def_cfa 8, 0
	sw	a0,-20(s0)
	.loc 2 189 5
	lw	a0,-20(s0)
	call	bl606a0_wifi_init
	.loc 2 190 40
	lw	a5,-20(s0)
	.loc 2 190 5
	mv	a0,a5
	call	wifi_mgmr_api_set_country_code
	.loc 2 191 5
	call	wifi_mgmr_init
	.loc 2 192 5
	call	wifi_mgmr_api_ifaceup
	.loc 2 193 12
	li	a5,0
	.loc 2 194 1
	mv	a0,a5
	lw	ra,28(sp)
	.cfi_restore 1
	lw	s0,24(sp)
	.cfi_restore 8
	.cfi_def_cfa 2, 32
	addi	sp,sp,32
	.cfi_def_cfa_offset 0
	jr	ra
	.cfi_endproc
.LFE12:
	.size	wifi_mgmr_drv_init, .-wifi_mgmr_drv_init
	.section	.text.wifi_mgmr_get_wifi_channel_conf,"ax",@progbits
	.align	1
	.globl	wifi_mgmr_get_wifi_channel_conf
	.type	wifi_mgmr_get_wifi_channel_conf, @function
wifi_mgmr_get_wifi_channel_conf:
.LFB13:
	.loc 2 197 1
	.cfi_startproc
	addi	sp,sp,-32
	.cfi_def_cfa_offset 32
	sw	ra,28(sp)
	sw	s0,24(sp)
	.cfi_offset 1, -4
	.cfi_offset 8, -8
	addi	s0,sp,32
	.cfi_def_cfa 8, 0
	sw	a0,-20(s0)
	.loc 2 198 27
	lw	a4,-20(s0)
	.loc 2 198 5
	li	a2,3
	lui	a5,%hi(wifiMgmr+6094)
	addi	a1,a5,%lo(wifiMgmr+6094)
	mv	a0,a4
	call	strncpy
	.loc 2 199 44
	lui	a5,%hi(wifiMgmr)
	addi	a4,a5,%lo(wifiMgmr)
	li	a5,4096
	add	a5,a4,a5
	lw	a4,2004(a5)
	.loc 2 199 34
	lw	a5,-20(s0)
	sw	a4,4(a5)
	.loc 2 200 1
	nop
	lw	ra,28(sp)
	.cfi_restore 1
	lw	s0,24(sp)
	.cfi_restore 8
	.cfi_def_cfa 2, 32
	addi	sp,sp,32
	.cfi_def_cfa_offset 0
	jr	ra
	.cfi_endproc
.LFE13:
	.size	wifi_mgmr_get_wifi_channel_conf, .-wifi_mgmr_get_wifi_channel_conf
	.section	.rodata
	.align	2
.LC1:
	.string	"----- BUG FIXME? NOT do STA enable again\r\n"
	.align	2
.LC2:
	.string	"---------STA enable\r\n"
	.section	.text.wifi_mgmr_sta_enable,"ax",@progbits
	.align	1
	.globl	wifi_mgmr_sta_enable
	.type	wifi_mgmr_sta_enable, @function
wifi_mgmr_sta_enable:
.LFB14:
	.loc 2 203 1
	.cfi_startproc
	addi	sp,sp,-16
	.cfi_def_cfa_offset 16
	sw	ra,12(sp)
	sw	s0,8(sp)
	.cfi_offset 1, -4
	.cfi_offset 8, -8
	addi	s0,sp,16
	.cfi_def_cfa 8, 0
	.loc 2 206 11
	lui	a5,%hi(done.2)
	lw	a4,%lo(done.2)(a5)
	.loc 2 206 8
	li	a5,1
	bne	a4,a5,.L29
	.loc 2 207 9
	lui	a5,%hi(.LC1)
	addi	a0,a5,%lo(.LC1)
	call	printf
	.loc 2 208 16
	lui	a5,%hi(wifiMgmr+12)
	addi	a5,a5,%lo(wifiMgmr+12)
	j	.L30
.L29:
	.loc 2 210 10
	lui	a5,%hi(done.2)
	li	a4,1
	sw	a4,%lo(done.2)(a5)
	.loc 2 212 5
	lui	a5,%hi(.LC2)
	addi	a0,a5,%lo(.LC2)
	call	printf
	.loc 2 213 28
	lui	a5,%hi(wifiMgmr)
	addi	a5,a5,%lo(wifiMgmr)
	sw	zero,12(a5)
	.loc 2 215 5
	lui	a5,%hi(wifiMgmr+17)
	addi	a1,a5,%lo(wifiMgmr+17)
	lui	a5,%hi(wifiMgmr+44)
	addi	a0,a5,%lo(wifiMgmr+44)
	call	wifi_eth_sta_enable
	.loc 2 216 12
	lui	a5,%hi(wifiMgmr+12)
	addi	a5,a5,%lo(wifiMgmr+12)
.L30:
	.loc 2 217 1
	mv	a0,a5
	lw	ra,12(sp)
	.cfi_restore 1
	lw	s0,8(sp)
	.cfi_restore 8
	.cfi_def_cfa 2, 16
	addi	sp,sp,16
	.cfi_def_cfa_offset 0
	jr	ra
	.cfi_endproc
.LFE14:
	.size	wifi_mgmr_sta_enable, .-wifi_mgmr_sta_enable
	.section	.text.wifi_mgmr_sta_disable,"ax",@progbits
	.align	1
	.globl	wifi_mgmr_sta_disable
	.type	wifi_mgmr_sta_disable, @function
wifi_mgmr_sta_disable:
.LFB15:
	.loc 2 220 1
	.cfi_startproc
	addi	sp,sp,-32
	.cfi_def_cfa_offset 32
	sw	ra,28(sp)
	sw	s0,24(sp)
	.cfi_offset 1, -4
	.cfi_offset 8, -8
	addi	s0,sp,32
	.cfi_def_cfa 8, 0
	sw	a0,-20(s0)
	.loc 2 221 5
	call	wifi_mgmr_api_idle
	.loc 2 222 12
	li	a5,0
	.loc 2 223 1
	mv	a0,a5
	lw	ra,28(sp)
	.cfi_restore 1
	lw	s0,24(sp)
	.cfi_restore 8
	.cfi_def_cfa 2, 32
	addi	sp,sp,32
	.cfi_def_cfa_offset 0
	jr	ra
	.cfi_endproc
.LFE15:
	.size	wifi_mgmr_sta_disable, .-wifi_mgmr_sta_disable
	.section	.text.wifi_mgmr_sta_mac_set,"ax",@progbits
	.align	1
	.globl	wifi_mgmr_sta_mac_set
	.type	wifi_mgmr_sta_mac_set, @function
wifi_mgmr_sta_mac_set:
.LFB16:
	.loc 2 226 1
	.cfi_startproc
	addi	sp,sp,-32
	.cfi_def_cfa_offset 32
	sw	ra,28(sp)
	sw	s0,24(sp)
	.cfi_offset 1, -4
	.cfi_offset 8, -8
	addi	s0,sp,32
	.cfi_def_cfa 8, 0
	sw	a0,-20(s0)
	.loc 2 227 5
	li	a2,6
	lw	a1,-20(s0)
	lui	a5,%hi(wifiMgmr+17)
	addi	a0,a5,%lo(wifiMgmr+17)
	call	memcpy
	.loc 2 228 12
	li	a5,0
	.loc 2 229 1
	mv	a0,a5
	lw	ra,28(sp)
	.cfi_restore 1
	lw	s0,24(sp)
	.cfi_restore 8
	.cfi_def_cfa 2, 32
	addi	sp,sp,32
	.cfi_def_cfa_offset 0
	jr	ra
	.cfi_endproc
.LFE16:
	.size	wifi_mgmr_sta_mac_set, .-wifi_mgmr_sta_mac_set
	.section	.text.wifi_mgmr_sta_mac_get,"ax",@progbits
	.align	1
	.globl	wifi_mgmr_sta_mac_get
	.type	wifi_mgmr_sta_mac_get, @function
wifi_mgmr_sta_mac_get:
.LFB17:
	.loc 2 232 1
	.cfi_startproc
	addi	sp,sp,-32
	.cfi_def_cfa_offset 32
	sw	ra,28(sp)
	sw	s0,24(sp)
	.cfi_offset 1, -4
	.cfi_offset 8, -8
	addi	s0,sp,32
	.cfi_def_cfa 8, 0
	sw	a0,-20(s0)
	.loc 2 235 9
	lui	a5,%hi(wifiMgmr+17)
	addi	a0,a5,%lo(wifiMgmr+17)
	call	mac_is_unvalid
	mv	a5,a0
	.loc 2 235 8 discriminator 1
	beq	a5,zero,.L36
	.loc 2 236 9
	lui	a5,%hi(wifiMgmr+17)
	addi	a0,a5,%lo(wifiMgmr+17)
	call	bl_wifi_mac_addr_get
	.loc 2 237 13
	lui	a5,%hi(wifiMgmr+17)
	addi	a0,a5,%lo(wifiMgmr+17)
	call	mac_is_unvalid
	mv	a5,a0
	.loc 2 237 12 discriminator 1
	beq	a5,zero,.L36
	.loc 2 240 38
	lui	a5,%hi(wifiMgmr)
	addi	a5,a5,%lo(wifiMgmr)
	li	a4,24
	sb	a4,17(a5)
	.loc 2 241 38
	lui	a5,%hi(wifiMgmr)
	addi	a5,a5,%lo(wifiMgmr)
	li	a4,-71
	sb	a4,18(a5)
	.loc 2 242 38
	lui	a5,%hi(wifiMgmr)
	addi	a5,a5,%lo(wifiMgmr)
	li	a4,5
	sb	a4,19(a5)
	.loc 2 243 38
	lui	a5,%hi(wifiMgmr)
	addi	a5,a5,%lo(wifiMgmr)
	sb	zero,20(a5)
	.loc 2 244 38
	lui	a5,%hi(wifiMgmr)
	addi	a5,a5,%lo(wifiMgmr)
	sb	zero,21(a5)
	.loc 2 245 38
	lui	a5,%hi(wifiMgmr)
	addi	a5,a5,%lo(wifiMgmr)
	li	a4,1
	sb	a4,22(a5)
.L36:
	.loc 2 248 5
	li	a2,6
	lui	a5,%hi(wifiMgmr+17)
	addi	a1,a5,%lo(wifiMgmr+17)
	lw	a0,-20(s0)
	call	memcpy
	.loc 2 249 12
	li	a5,0
	.loc 2 250 1
	mv	a0,a5
	lw	ra,28(sp)
	.cfi_restore 1
	lw	s0,24(sp)
	.cfi_restore 8
	.cfi_def_cfa 2, 32
	addi	sp,sp,32
	.cfi_def_cfa_offset 0
	jr	ra
	.cfi_endproc
.LFE17:
	.size	wifi_mgmr_sta_mac_get, .-wifi_mgmr_sta_mac_get
	.section	.text.wifi_mgmr_sta_ip_get,"ax",@progbits
	.align	1
	.globl	wifi_mgmr_sta_ip_get
	.type	wifi_mgmr_sta_ip_get, @function
wifi_mgmr_sta_ip_get:
.LFB18:
	.loc 2 253 1
	.cfi_startproc
	addi	sp,sp,-32
	.cfi_def_cfa_offset 32
	sw	ra,28(sp)
	sw	s0,24(sp)
	.cfi_offset 1, -4
	.cfi_offset 8, -8
	addi	s0,sp,32
	.cfi_def_cfa 8, 0
	sw	a0,-20(s0)
	sw	a1,-24(s0)
	sw	a2,-28(s0)
	.loc 2 254 32
	lui	a5,%hi(wifiMgmr+48)
	addi	a5,a5,%lo(wifiMgmr+48)
	.loc 2 254 72
	lw	a4,0(a5)
	.loc 2 254 9
	lw	a5,-20(s0)
	sw	a4,0(a5)
	.loc 2 255 34
	lui	a5,%hi(wifiMgmr+52)
	addi	a5,a5,%lo(wifiMgmr+52)
	.loc 2 255 74
	lw	a4,0(a5)
	.loc 2 255 11
	lw	a5,-28(s0)
	sw	a4,0(a5)
	.loc 2 256 32
	lui	a5,%hi(wifiMgmr+56)
	addi	a5,a5,%lo(wifiMgmr+56)
	.loc 2 256 67
	lw	a4,0(a5)
	.loc 2 256 9
	lw	a5,-24(s0)
	sw	a4,0(a5)
	.loc 2 258 12
	li	a5,0
	.loc 2 259 1
	mv	a0,a5
	lw	ra,28(sp)
	.cfi_restore 1
	lw	s0,24(sp)
	.cfi_restore 8
	.cfi_def_cfa 2, 32
	addi	sp,sp,32
	.cfi_def_cfa_offset 0
	jr	ra
	.cfi_endproc
.LFE18:
	.size	wifi_mgmr_sta_ip_get, .-wifi_mgmr_sta_ip_get
	.section	.text.wifi_mgmr_sta_dns_get,"ax",@progbits
	.align	1
	.globl	wifi_mgmr_sta_dns_get
	.type	wifi_mgmr_sta_dns_get, @function
wifi_mgmr_sta_dns_get:
.LFB19:
	.loc 2 262 1
	.cfi_startproc
	addi	sp,sp,-48
	.cfi_def_cfa_offset 48
	sw	ra,44(sp)
	sw	s0,40(sp)
	.cfi_offset 1, -4
	.cfi_offset 8, -8
	addi	s0,sp,48
	.cfi_def_cfa 8, 0
	sw	a0,-36(s0)
	sw	a1,-40(s0)
	.loc 2 266 11
	li	a0,0
	call	dns_getserver
	sw	a0,-20(s0)
	.loc 2 267 21
	lw	a5,-20(s0)
	lw	a4,0(a5)
	.loc 2 267 11
	lw	a5,-36(s0)
	sw	a4,0(a5)
	.loc 2 271 15
	li	a0,1
	call	dns_getserver
	sw	a0,-20(s0)
	.loc 2 272 25
	lw	a5,-20(s0)
	lw	a4,0(a5)
	.loc 2 272 15
	lw	a5,-40(s0)
	sw	a4,0(a5)
	.loc 2 277 12
	li	a5,0
	.loc 2 278 1
	mv	a0,a5
	lw	ra,44(sp)
	.cfi_restore 1
	lw	s0,40(sp)
	.cfi_restore 8
	.cfi_def_cfa 2, 48
	addi	sp,sp,48
	.cfi_def_cfa_offset 0
	jr	ra
	.cfi_endproc
.LFE19:
	.size	wifi_mgmr_sta_dns_get, .-wifi_mgmr_sta_dns_get
	.section	.text.wifi_mgmr_sta_ip_set,"ax",@progbits
	.align	1
	.globl	wifi_mgmr_sta_ip_set
	.type	wifi_mgmr_sta_ip_set, @function
wifi_mgmr_sta_ip_set:
.LFB20:
	.loc 2 281 1
	.cfi_startproc
	addi	sp,sp,-48
	.cfi_def_cfa_offset 48
	sw	ra,44(sp)
	sw	s0,40(sp)
	.cfi_offset 1, -4
	.cfi_offset 8, -8
	addi	s0,sp,48
	.cfi_def_cfa 8, 0
	sw	a0,-20(s0)
	sw	a1,-24(s0)
	sw	a2,-28(s0)
	sw	a3,-32(s0)
	sw	a4,-36(s0)
	.loc 2 282 5
	call	vTaskEnterCritical
	.loc 2 284 31
	lui	a5,%hi(wifiMgmr)
	addi	a5,a5,%lo(wifiMgmr)
	lw	a4,-20(s0)
	sw	a4,24(a5)
	.loc 2 285 33
	lui	a5,%hi(wifiMgmr)
	addi	a5,a5,%lo(wifiMgmr)
	lw	a4,-24(s0)
	sw	a4,28(a5)
	.loc 2 286 31
	lui	a5,%hi(wifiMgmr)
	addi	a5,a5,%lo(wifiMgmr)
	lw	a4,-28(s0)
	sw	a4,32(a5)
	.loc 2 287 33
	lui	a5,%hi(wifiMgmr)
	addi	a5,a5,%lo(wifiMgmr)
	lw	a4,-32(s0)
	sw	a4,36(a5)
	.loc 2 288 33
	lui	a5,%hi(wifiMgmr)
	addi	a5,a5,%lo(wifiMgmr)
	lw	a4,-36(s0)
	sw	a4,40(a5)
	.loc 2 290 5
	call	vTaskExitCritical
	.loc 2 292 5
	call	wifi_mgmr_api_ip_update
	.loc 2 294 12
	li	a5,0
	.loc 2 295 1
	mv	a0,a5
	lw	ra,44(sp)
	.cfi_restore 1
	lw	s0,40(sp)
	.cfi_restore 8
	.cfi_def_cfa 2, 48
	addi	sp,sp,48
	.cfi_def_cfa_offset 0
	jr	ra
	.cfi_endproc
.LFE20:
	.size	wifi_mgmr_sta_ip_set, .-wifi_mgmr_sta_ip_set
	.section	.text.wifi_mgmr_sta_ip_unset,"ax",@progbits
	.align	1
	.globl	wifi_mgmr_sta_ip_unset
	.type	wifi_mgmr_sta_ip_unset, @function
wifi_mgmr_sta_ip_unset:
.LFB21:
	.loc 2 298 1
	.cfi_startproc
	addi	sp,sp,-16
	.cfi_def_cfa_offset 16
	sw	ra,12(sp)
	sw	s0,8(sp)
	.cfi_offset 1, -4
	.cfi_offset 8, -8
	addi	s0,sp,16
	.cfi_def_cfa 8, 0
	.loc 2 299 12
	li	a4,0
	li	a3,0
	li	a2,0
	li	a1,0
	li	a0,0
	call	wifi_mgmr_sta_ip_set
	mv	a5,a0
	.loc 2 300 1
	mv	a0,a5
	lw	ra,12(sp)
	.cfi_restore 1
	lw	s0,8(sp)
	.cfi_restore 8
	.cfi_def_cfa 2, 16
	addi	sp,sp,16
	.cfi_def_cfa_offset 0
	jr	ra
	.cfi_endproc
.LFE21:
	.size	wifi_mgmr_sta_ip_unset, .-wifi_mgmr_sta_ip_unset
	.section	.text.wifi_mgmr_sta_connect,"ax",@progbits
	.align	1
	.globl	wifi_mgmr_sta_connect
	.type	wifi_mgmr_sta_connect, @function
wifi_mgmr_sta_connect:
.LFB22:
	.loc 2 303 1
	.cfi_startproc
	addi	sp,sp,-48
	.cfi_def_cfa_offset 48
	sw	ra,44(sp)
	sw	s0,40(sp)
	.cfi_offset 1, -4
	.cfi_offset 8, -8
	addi	s0,sp,48
	.cfi_def_cfa 8, 0
	sw	a0,-20(s0)
	sw	a1,-24(s0)
	sw	a2,-28(s0)
	sw	a3,-32(s0)
	sw	a4,-36(s0)
	mv	a4,a6
	sb	a5,-37(s0)
	mv	a5,a4
	sh	a5,-40(s0)
	.loc 2 304 5
	lw	a0,-24(s0)
	call	wifi_mgmr_sta_ssid_set
	.loc 2 305 5
	lw	a0,-28(s0)
	call	wifi_mgmr_sta_psk_set
	.loc 2 306 12
	lhu	a5,-40(s0)
	lbu	a4,-37(s0)
	lw	a3,-36(s0)
	lw	a2,-32(s0)
	lw	a1,-28(s0)
	lw	a0,-24(s0)
	call	wifi_mgmr_api_connect
	mv	a5,a0
	.loc 2 307 1
	mv	a0,a5
	lw	ra,44(sp)
	.cfi_restore 1
	lw	s0,40(sp)
	.cfi_restore 8
	.cfi_def_cfa 2, 48
	addi	sp,sp,48
	.cfi_def_cfa_offset 0
	jr	ra
	.cfi_endproc
.LFE22:
	.size	wifi_mgmr_sta_connect, .-wifi_mgmr_sta_connect
	.section	.text.wifi_mgmr_sta_disconnect,"ax",@progbits
	.align	1
	.globl	wifi_mgmr_sta_disconnect
	.type	wifi_mgmr_sta_disconnect, @function
wifi_mgmr_sta_disconnect:
.LFB23:
	.loc 2 310 1
	.cfi_startproc
	addi	sp,sp,-16
	.cfi_def_cfa_offset 16
	sw	ra,12(sp)
	sw	s0,8(sp)
	.cfi_offset 1, -4
	.cfi_offset 8, -8
	addi	s0,sp,16
	.cfi_def_cfa 8, 0
	.loc 2 311 5
	call	wifi_mgmr_api_disconnect
	.loc 2 312 12
	li	a5,0
	.loc 2 313 1
	mv	a0,a5
	lw	ra,12(sp)
	.cfi_restore 1
	lw	s0,8(sp)
	.cfi_restore 8
	.cfi_def_cfa 2, 16
	addi	sp,sp,16
	.cfi_def_cfa_offset 0
	jr	ra
	.cfi_endproc
.LFE23:
	.size	wifi_mgmr_sta_disconnect, .-wifi_mgmr_sta_disconnect
	.section	.text.wifi_mgmr_sta_powersaving,"ax",@progbits
	.align	1
	.globl	wifi_mgmr_sta_powersaving
	.type	wifi_mgmr_sta_powersaving, @function
wifi_mgmr_sta_powersaving:
.LFB24:
	.loc 2 316 1
	.cfi_startproc
	addi	sp,sp,-32
	.cfi_def_cfa_offset 32
	sw	ra,28(sp)
	sw	s0,24(sp)
	.cfi_offset 1, -4
	.cfi_offset 8, -8
	addi	s0,sp,32
	.cfi_def_cfa 8, 0
	sw	a0,-20(s0)
	.loc 2 317 5
	lw	a4,-20(s0)
	li	a5,2
	beq	a4,a5,.L51
	lw	a4,-20(s0)
	li	a5,2
	bgt	a4,a5,.L52
	lw	a5,-20(s0)
	beq	a5,zero,.L53
	lw	a4,-20(s0)
	li	a5,1
	beq	a4,a5,.L54
	j	.L52
.L53:
	.loc 2 320 13
	li	a0,0
	call	wifi_mgmr_api_fw_powersaving
	.loc 2 322 9
	j	.L55
.L54:
	.loc 2 325 13
	li	a0,1
	call	wifi_mgmr_api_fw_powersaving
	.loc 2 327 9
	j	.L55
.L51:
	.loc 2 330 13
	li	a0,2
	call	wifi_mgmr_api_fw_powersaving
	.loc 2 332 9
	j	.L55
.L52:
	.loc 2 336 20
	li	a5,-1
	j	.L56
.L55:
	.loc 2 339 12
	li	a5,0
.L56:
	.loc 2 340 1
	mv	a0,a5
	lw	ra,28(sp)
	.cfi_restore 1
	lw	s0,24(sp)
	.cfi_restore 8
	.cfi_def_cfa 2, 32
	addi	sp,sp,32
	.cfi_def_cfa_offset 0
	jr	ra
	.cfi_endproc
.LFE24:
	.size	wifi_mgmr_sta_powersaving, .-wifi_mgmr_sta_powersaving
	.section	.text.wifi_mgmr_sta_autoconnect_enable,"ax",@progbits
	.align	1
	.globl	wifi_mgmr_sta_autoconnect_enable
	.type	wifi_mgmr_sta_autoconnect_enable, @function
wifi_mgmr_sta_autoconnect_enable:
.LFB25:
	.loc 2 343 1
	.cfi_startproc
	addi	sp,sp,-16
	.cfi_def_cfa_offset 16
	sw	ra,12(sp)
	sw	s0,8(sp)
	.cfi_offset 1, -4
	.cfi_offset 8, -8
	addi	s0,sp,16
	.cfi_def_cfa 8, 0
	.loc 2 344 5
	call	wifi_mgmr_api_enable_autoreconnect
	.loc 2 345 12
	li	a5,0
	.loc 2 346 1
	mv	a0,a5
	lw	ra,12(sp)
	.cfi_restore 1
	lw	s0,8(sp)
	.cfi_restore 8
	.cfi_def_cfa 2, 16
	addi	sp,sp,16
	.cfi_def_cfa_offset 0
	jr	ra
	.cfi_endproc
.LFE25:
	.size	wifi_mgmr_sta_autoconnect_enable, .-wifi_mgmr_sta_autoconnect_enable
	.section	.text.wifi_mgmr_sta_autoconnect_disable,"ax",@progbits
	.align	1
	.globl	wifi_mgmr_sta_autoconnect_disable
	.type	wifi_mgmr_sta_autoconnect_disable, @function
wifi_mgmr_sta_autoconnect_disable:
.LFB26:
	.loc 2 349 1
	.cfi_startproc
	addi	sp,sp,-16
	.cfi_def_cfa_offset 16
	sw	ra,12(sp)
	sw	s0,8(sp)
	.cfi_offset 1, -4
	.cfi_offset 8, -8
	addi	s0,sp,16
	.cfi_def_cfa 8, 0
	.loc 2 350 5
	call	wifi_mgmr_api_disable_autoreconnect
	.loc 2 351 12
	li	a5,0
	.loc 2 352 1
	mv	a0,a5
	lw	ra,12(sp)
	.cfi_restore 1
	lw	s0,8(sp)
	.cfi_restore 8
	.cfi_def_cfa 2, 16
	addi	sp,sp,16
	.cfi_def_cfa_offset 0
	jr	ra
	.cfi_endproc
.LFE26:
	.size	wifi_mgmr_sta_autoconnect_disable, .-wifi_mgmr_sta_autoconnect_disable
	.section	.rodata
	.align	2
.LC3:
	.string	"wifi mgmr ind status code = %d\r\n"
	.align	2
.LC4:
	.string	"ssid: %s, psk: %s, band: %d, freq: %d, type_ind: %d\r\n"
	.align	2
.LC5:
	.string	"bssid: %02x%02x%02x%02x%02x%02x\r\n"
	.section	.text.wifi_mgmr_sta_connect_ind_stat_get,"ax",@progbits
	.align	1
	.globl	wifi_mgmr_sta_connect_ind_stat_get
	.type	wifi_mgmr_sta_connect_ind_stat_get, @function
wifi_mgmr_sta_connect_ind_stat_get:
.LFB27:
	.loc 2 355 1
	.cfi_startproc
	addi	sp,sp,-48
	.cfi_def_cfa_offset 48
	sw	ra,44(sp)
	sw	s0,40(sp)
	.cfi_offset 1, -4
	.cfi_offset 8, -8
	addi	s0,sp,48
	.cfi_def_cfa 8, 0
	sw	a0,-36(s0)
	.loc 2 356 20
	lui	a5,%hi(wifiMgmr+5987)
	addi	a0,a5,%lo(wifiMgmr+5987)
	call	strlen
	mv	a5,a0
	.loc 2 356 9 discriminator 1
	sw	a5,-20(s0)
	.loc 2 357 8
	lw	a5,-20(s0)
	ble	a5,zero,.L62
	.loc 2 358 34
	lw	a5,-36(s0)
	addi	a4,a5,3
	.loc 2 358 9
	lw	a5,-20(s0)
	mv	a2,a5
	lui	a5,%hi(wifiMgmr+5987)
	addi	a1,a5,%lo(wifiMgmr+5987)
	mv	a0,a4
	call	memcpy
	.loc 2 359 44
	lw	a4,-36(s0)
	lw	a5,-20(s0)
	add	a5,a4,a5
	sb	zero,3(a5)
.L62:
	.loc 2 362 19
	lui	a5,%hi(wifiMgmr+6019)
	addi	a0,a5,%lo(wifiMgmr+6019)
	call	strlen
	mv	a5,a0
	.loc 2 362 9 discriminator 1
	sw	a5,-24(s0)
	.loc 2 363 8
	lw	a5,-24(s0)
	ble	a5,zero,.L63
	.loc 2 364 34
	lw	a5,-36(s0)
	addi	a4,a5,35
	.loc 2 364 9
	lw	a5,-24(s0)
	mv	a2,a5
	lui	a5,%hi(wifiMgmr+6019)
	addi	a1,a5,%lo(wifiMgmr+6019)
	mv	a0,a4
	call	memcpy
	.loc 2 365 42
	lw	a4,-36(s0)
	lw	a5,-24(s0)
	add	a5,a4,a5
	sb	zero,35(a5)
.L63:
	.loc 2 368 30
	lw	a5,-36(s0)
	addi	a4,a5,164
	.loc 2 368 5
	li	a2,6
	lui	a5,%hi(wifiMgmr+6084)
	addi	a1,a5,%lo(wifiMgmr+6084)
	mv	a0,a4
	call	memcpy
	.loc 2 370 67
	lui	a5,%hi(wifiMgmr)
	addi	a4,a5,%lo(wifiMgmr)
	li	a5,4096
	add	a5,a4,a5
	lhu	a4,1888(a5)
	.loc 2 370 37
	lw	a5,-36(s0)
	sh	a4,0(a5)
	.loc 2 371 65
	lui	a5,%hi(wifiMgmr)
	addi	a4,a5,%lo(wifiMgmr)
	li	a5,4096
	add	a5,a4,a5
	lbu	a4,1996(a5)
	.loc 2 371 35
	lw	a5,-36(s0)
	sb	a4,172(a5)
	.loc 2 372 65
	lui	a5,%hi(wifiMgmr)
	addi	a4,a5,%lo(wifiMgmr)
	li	a5,4096
	add	a5,a4,a5
	lhu	a4,1994(a5)
	.loc 2 372 35
	lw	a5,-36(s0)
	sh	a4,170(a5)
	.loc 2 373 64
	lui	a5,%hi(wifiMgmr)
	addi	a4,a5,%lo(wifiMgmr)
	li	a5,4096
	add	a5,a4,a5
	lbu	a4,1890(a5)
	.loc 2 373 34
	lw	a5,-36(s0)
	sb	a4,2(a5)
	.loc 2 375 68
	lw	a5,-36(s0)
	lhu	a5,0(a5)
	.loc 2 375 5
	mv	a1,a5
	lui	a5,%hi(.LC3)
	addi	a0,a5,%lo(.LC3)
	call	printf
	.loc 2 377 31
	lw	a5,-36(s0)
	addi	a1,a5,3
	.loc 2 378 31
	lw	a5,-36(s0)
	addi	a2,a5,35
	.loc 2 379 31
	lw	a5,-36(s0)
	lbu	a5,172(a5)
	.loc 2 376 5
	mv	a3,a5
	.loc 2 380 31
	lw	a5,-36(s0)
	lhu	a5,170(a5)
	.loc 2 376 5
	mv	a4,a5
	.loc 2 381 31
	lw	a5,-36(s0)
	lbu	a5,2(a5)
	.loc 2 376 5
	lui	a0,%hi(.LC4)
	addi	a0,a0,%lo(.LC4)
	call	printf
	.loc 2 383 42
	lw	a5,-36(s0)
	lbu	a5,164(a5)
	.loc 2 382 5
	mv	a1,a5
	.loc 2 384 42
	lw	a5,-36(s0)
	lbu	a5,165(a5)
	.loc 2 382 5
	mv	a2,a5
	.loc 2 385 42
	lw	a5,-36(s0)
	lbu	a5,166(a5)
	.loc 2 382 5
	mv	a3,a5
	.loc 2 386 42
	lw	a5,-36(s0)
	lbu	a5,167(a5)
	.loc 2 382 5
	mv	a4,a5
	.loc 2 387 42
	lw	a5,-36(s0)
	lbu	a5,168(a5)
	.loc 2 382 5
	mv	a0,a5
	.loc 2 388 42
	lw	a5,-36(s0)
	lbu	a5,169(a5)
	.loc 2 382 5
	mv	a6,a5
	mv	a5,a0
	lui	a0,%hi(.LC5)
	addi	a0,a0,%lo(.LC5)
	call	printf
	.loc 2 390 1
	nop
	lw	ra,44(sp)
	.cfi_restore 1
	lw	s0,40(sp)
	.cfi_restore 8
	.cfi_def_cfa 2, 48
	addi	sp,sp,48
	.cfi_def_cfa_offset 0
	jr	ra
	.cfi_endproc
.LFE27:
	.size	wifi_mgmr_sta_connect_ind_stat_get, .-wifi_mgmr_sta_connect_ind_stat_get
	.section	.text.wifi_mgmr_sta_ssid_set,"ax",@progbits
	.align	1
	.globl	wifi_mgmr_sta_ssid_set
	.type	wifi_mgmr_sta_ssid_set, @function
wifi_mgmr_sta_ssid_set:
.LFB28:
	.loc 2 393 1
	.cfi_startproc
	addi	sp,sp,-32
	.cfi_def_cfa_offset 32
	sw	ra,28(sp)
	sw	s0,24(sp)
	.cfi_offset 1, -4
	.cfi_offset 8, -8
	addi	s0,sp,32
	.cfi_def_cfa 8, 0
	sw	a0,-20(s0)
	.loc 2 394 9
	lw	a0,-20(s0)
	call	strlen
	mv	a5,a0
	.loc 2 394 8 discriminator 1
	beq	a5,zero,.L66
	.loc 2 395 9
	lw	a0,-20(s0)
	call	strlen
	mv	a5,a0
	.loc 2 395 9 is_stmt 0 discriminator 1
	mv	a2,a5
	lw	a1,-20(s0)
	lui	a5,%hi(wifiMgmr+5987)
	addi	a0,a5,%lo(wifiMgmr+5987)
	call	memcpy
.L66:
	.loc 2 396 1 is_stmt 1
	nop
	lw	ra,28(sp)
	.cfi_restore 1
	lw	s0,24(sp)
	.cfi_restore 8
	.cfi_def_cfa 2, 32
	addi	sp,sp,32
	.cfi_def_cfa_offset 0
	jr	ra
	.cfi_endproc
.LFE28:
	.size	wifi_mgmr_sta_ssid_set, .-wifi_mgmr_sta_ssid_set
	.section	.text.wifi_mgmr_sta_psk_set,"ax",@progbits
	.align	1
	.globl	wifi_mgmr_sta_psk_set
	.type	wifi_mgmr_sta_psk_set, @function
wifi_mgmr_sta_psk_set:
.LFB29:
	.loc 2 399 1
	.cfi_startproc
	addi	sp,sp,-32
	.cfi_def_cfa_offset 32
	sw	ra,28(sp)
	sw	s0,24(sp)
	.cfi_offset 1, -4
	.cfi_offset 8, -8
	addi	s0,sp,32
	.cfi_def_cfa 8, 0
	sw	a0,-20(s0)
	.loc 2 400 9
	lw	a0,-20(s0)
	call	strlen
	mv	a5,a0
	.loc 2 400 8 discriminator 1
	beq	a5,zero,.L69
	.loc 2 401 9
	lw	a0,-20(s0)
	call	strlen
	mv	a5,a0
	.loc 2 401 9 is_stmt 0 discriminator 1
	mv	a2,a5
	lw	a1,-20(s0)
	lui	a5,%hi(wifiMgmr+6019)
	addi	a0,a5,%lo(wifiMgmr+6019)
	call	memcpy
.L69:
	.loc 2 402 1 is_stmt 1
	nop
	lw	ra,28(sp)
	.cfi_restore 1
	lw	s0,24(sp)
	.cfi_restore 8
	.cfi_def_cfa 2, 32
	addi	sp,sp,32
	.cfi_def_cfa_offset 0
	jr	ra
	.cfi_endproc
.LFE29:
	.size	wifi_mgmr_sta_psk_set, .-wifi_mgmr_sta_psk_set
	.section	.text.wifi_eth_ap_enable,"ax",@progbits
	.align	1
	.type	wifi_eth_ap_enable, @function
wifi_eth_ap_enable:
.LFB30:
	.loc 2 405 1
	.cfi_startproc
	addi	sp,sp,-48
	.cfi_def_cfa_offset 48
	sw	ra,44(sp)
	sw	s0,40(sp)
	.cfi_offset 1, -4
	.cfi_offset 8, -8
	addi	s0,sp,48
	.cfi_def_cfa 8, 0
	sw	a0,-36(s0)
	sw	a1,-40(s0)
	.loc 2 411 21
	li	a5,17543168
	addi	a5,a5,-1856
	sw	a5,-20(s0)
	.loc 2 412 22
	li	a5,16777216
	addi	a5,a5,-1
	sw	a5,-24(s0)
	.loc 2 413 17
	sw	zero,-28(s0)
	.loc 2 420 17
	lw	a5,-36(s0)
	addi	a5,a5,62
	.loc 2 420 5
	li	a2,6
	lw	a1,-40(s0)
	mv	a0,a5
	call	memcpy
	.loc 2 421 29
	lw	a5,-36(s0)
	addi	a5,a5,62
	.loc 2 421 9
	mv	a0,a5
	call	mac_is_unvalid
	mv	a5,a0
	.loc 2 421 8 discriminator 1
	beq	a5,zero,.L71
	.loc 2 423 35
	lw	a5,-36(s0)
	addi	a5,a5,62
	.loc 2 423 9
	mv	a0,a5
	call	bl_wifi_mac_addr_get
	.loc 2 424 33
	lw	a5,-36(s0)
	addi	a5,a5,62
	.loc 2 424 13
	mv	a0,a5
	call	mac_is_unvalid
	mv	a5,a0
	.loc 2 424 12 discriminator 1
	beq	a5,zero,.L72
	.loc 2 427 30
	lw	a5,-36(s0)
	li	a4,-64
	sb	a4,62(a5)
	.loc 2 428 30
	lw	a5,-36(s0)
	li	a4,80
	sb	a4,63(a5)
	.loc 2 429 30
	lw	a5,-36(s0)
	li	a4,67
	sb	a4,64(a5)
	.loc 2 430 30
	lw	a5,-36(s0)
	li	a4,-55
	sb	a4,65(a5)
	.loc 2 431 30
	lw	a5,-36(s0)
	sb	zero,66(a5)
	.loc 2 432 30
	lw	a5,-36(s0)
	li	a4,1
	sb	a4,67(a5)
.L72:
	.loc 2 435 26
	lw	a5,-36(s0)
	addi	a5,a5,62
	.loc 2 435 9
	li	a2,6
	mv	a1,a5
	lw	a0,-40(s0)
	call	memcpy
.L71:
	.loc 2 438 5
	addi	a3,s0,-28
	addi	a2,s0,-24
	addi	a1,s0,-20
	lui	a5,%hi(tcpip_input)
	addi	a6,a5,%lo(tcpip_input)
	lui	a5,%hi(bl606a0_wifi_netif_init)
	addi	a5,a5,%lo(bl606a0_wifi_netif_init)
	li	a4,0
	lw	a0,-36(s0)
	call	netifapi_netif_add
	.loc 2 439 20
	lw	a5,-36(s0)
	li	a4,97
	sb	a4,70(a5)
	.loc 2 440 20
	lw	a5,-36(s0)
	li	a4,112
	sb	a4,71(a5)
	.loc 2 441 5
	lw	a0,-36(s0)
	call	netif_set_default
	.loc 2 442 5
	lw	a0,-36(s0)
	call	netif_set_up
	.loc 2 443 1
	nop
	lw	ra,44(sp)
	.cfi_restore 1
	lw	s0,40(sp)
	.cfi_restore 8
	.cfi_def_cfa 2, 48
	addi	sp,sp,48
	.cfi_def_cfa_offset 0
	jr	ra
	.cfi_endproc
.LFE30:
	.size	wifi_eth_ap_enable, .-wifi_eth_ap_enable
	.section	.text.wifi_mgmr_ap_enable,"ax",@progbits
	.align	1
	.globl	wifi_mgmr_ap_enable
	.type	wifi_mgmr_ap_enable, @function
wifi_mgmr_ap_enable:
.LFB31:
	.loc 2 446 1
	.cfi_startproc
	addi	sp,sp,-16
	.cfi_def_cfa_offset 16
	sw	ra,12(sp)
	sw	s0,8(sp)
	.cfi_offset 1, -4
	.cfi_offset 8, -8
	addi	s0,sp,16
	.cfi_def_cfa 8, 0
	.loc 2 447 27
	lui	a5,%hi(wifiMgmr)
	addi	a5,a5,%lo(wifiMgmr)
	li	a4,1
	sw	a4,132(a5)
	.loc 2 448 5
	lui	a5,%hi(wifiMgmr+137)
	addi	a1,a5,%lo(wifiMgmr+137)
	lui	a5,%hi(wifiMgmr+164)
	addi	a0,a5,%lo(wifiMgmr+164)
	call	wifi_eth_ap_enable
	.loc 2 449 12
	lui	a5,%hi(wifiMgmr+132)
	addi	a5,a5,%lo(wifiMgmr+132)
	.loc 2 450 1
	mv	a0,a5
	lw	ra,12(sp)
	.cfi_restore 1
	lw	s0,8(sp)
	.cfi_restore 8
	.cfi_def_cfa 2, 16
	addi	sp,sp,16
	.cfi_def_cfa_offset 0
	jr	ra
	.cfi_endproc
.LFE31:
	.size	wifi_mgmr_ap_enable, .-wifi_mgmr_ap_enable
	.section	.text.wifi_mgmr_ap_mac_set,"ax",@progbits
	.align	1
	.globl	wifi_mgmr_ap_mac_set
	.type	wifi_mgmr_ap_mac_set, @function
wifi_mgmr_ap_mac_set:
.LFB32:
	.loc 2 453 1
	.cfi_startproc
	addi	sp,sp,-32
	.cfi_def_cfa_offset 32
	sw	ra,28(sp)
	sw	s0,24(sp)
	.cfi_offset 1, -4
	.cfi_offset 8, -8
	addi	s0,sp,32
	.cfi_def_cfa 8, 0
	sw	a0,-20(s0)
	.loc 2 454 5
	li	a2,6
	lw	a1,-20(s0)
	lui	a5,%hi(wifiMgmr+137)
	addi	a0,a5,%lo(wifiMgmr+137)
	call	memcpy
	.loc 2 455 12
	li	a5,0
	.loc 2 456 1
	mv	a0,a5
	lw	ra,28(sp)
	.cfi_restore 1
	lw	s0,24(sp)
	.cfi_restore 8
	.cfi_def_cfa 2, 32
	addi	sp,sp,32
	.cfi_def_cfa_offset 0
	jr	ra
	.cfi_endproc
.LFE32:
	.size	wifi_mgmr_ap_mac_set, .-wifi_mgmr_ap_mac_set
	.section	.text.wifi_mgmr_ap_mac_get,"ax",@progbits
	.align	1
	.globl	wifi_mgmr_ap_mac_get
	.type	wifi_mgmr_ap_mac_get, @function
wifi_mgmr_ap_mac_get:
.LFB33:
	.loc 2 459 1
	.cfi_startproc
	addi	sp,sp,-32
	.cfi_def_cfa_offset 32
	sw	ra,28(sp)
	sw	s0,24(sp)
	.cfi_offset 1, -4
	.cfi_offset 8, -8
	addi	s0,sp,32
	.cfi_def_cfa 8, 0
	sw	a0,-20(s0)
	.loc 2 462 5
	lui	a5,%hi(wifiMgmr+137)
	addi	a0,a5,%lo(wifiMgmr+137)
	call	mac_is_unvalid
	.loc 2 463 5
	lui	a5,%hi(wifiMgmr+137)
	addi	a0,a5,%lo(wifiMgmr+137)
	call	bl_efuse_read_mac
	.loc 2 464 9
	lui	a5,%hi(wifiMgmr+137)
	addi	a0,a5,%lo(wifiMgmr+137)
	call	mac_is_unvalid
	mv	a5,a0
	.loc 2 464 8 discriminator 1
	beq	a5,zero,.L78
	.loc 2 467 33
	lui	a5,%hi(wifiMgmr)
	addi	a5,a5,%lo(wifiMgmr)
	li	a4,-64
	sb	a4,137(a5)
	.loc 2 468 33
	lui	a5,%hi(wifiMgmr)
	addi	a5,a5,%lo(wifiMgmr)
	li	a4,80
	sb	a4,138(a5)
	.loc 2 469 33
	lui	a5,%hi(wifiMgmr)
	addi	a5,a5,%lo(wifiMgmr)
	li	a4,67
	sb	a4,139(a5)
	.loc 2 470 33
	lui	a5,%hi(wifiMgmr)
	addi	a5,a5,%lo(wifiMgmr)
	li	a4,-55
	sb	a4,140(a5)
	.loc 2 471 33
	lui	a5,%hi(wifiMgmr)
	addi	a5,a5,%lo(wifiMgmr)
	sb	zero,141(a5)
	.loc 2 472 33
	lui	a5,%hi(wifiMgmr)
	addi	a5,a5,%lo(wifiMgmr)
	li	a4,1
	sb	a4,142(a5)
.L78:
	.loc 2 474 5
	li	a2,6
	lui	a5,%hi(wifiMgmr+137)
	addi	a1,a5,%lo(wifiMgmr+137)
	lw	a0,-20(s0)
	call	memcpy
	.loc 2 475 12
	li	a5,0
	.loc 2 476 1
	mv	a0,a5
	lw	ra,28(sp)
	.cfi_restore 1
	lw	s0,24(sp)
	.cfi_restore 8
	.cfi_def_cfa 2, 32
	addi	sp,sp,32
	.cfi_def_cfa_offset 0
	jr	ra
	.cfi_endproc
.LFE33:
	.size	wifi_mgmr_ap_mac_get, .-wifi_mgmr_ap_mac_get
	.section	.text.wifi_mgmr_ap_ip_get,"ax",@progbits
	.align	1
	.globl	wifi_mgmr_ap_ip_get
	.type	wifi_mgmr_ap_ip_get, @function
wifi_mgmr_ap_ip_get:
.LFB34:
	.loc 2 479 1
	.cfi_startproc
	addi	sp,sp,-32
	.cfi_def_cfa_offset 32
	sw	ra,28(sp)
	sw	s0,24(sp)
	.cfi_offset 1, -4
	.cfi_offset 8, -8
	addi	s0,sp,32
	.cfi_def_cfa 8, 0
	sw	a0,-20(s0)
	sw	a1,-24(s0)
	sw	a2,-28(s0)
	.loc 2 480 32
	lui	a5,%hi(wifiMgmr+168)
	addi	a5,a5,%lo(wifiMgmr+168)
	.loc 2 480 71
	lw	a4,0(a5)
	.loc 2 480 9
	lw	a5,-20(s0)
	sw	a4,0(a5)
	.loc 2 481 32
	lui	a5,%hi(wifiMgmr+172)
	addi	a5,a5,%lo(wifiMgmr+172)
	.loc 2 481 71
	lw	a4,0(a5)
	.loc 2 481 9
	lw	a5,-24(s0)
	sw	a4,0(a5)
	.loc 2 482 34
	lui	a5,%hi(wifiMgmr+176)
	addi	a5,a5,%lo(wifiMgmr+176)
	.loc 2 482 68
	lw	a4,0(a5)
	.loc 2 482 11
	lw	a5,-28(s0)
	sw	a4,0(a5)
	.loc 2 484 12
	li	a5,0
	.loc 2 485 1
	mv	a0,a5
	lw	ra,28(sp)
	.cfi_restore 1
	lw	s0,24(sp)
	.cfi_restore 8
	.cfi_def_cfa 2, 32
	addi	sp,sp,32
	.cfi_def_cfa_offset 0
	jr	ra
	.cfi_endproc
.LFE34:
	.size	wifi_mgmr_ap_ip_get, .-wifi_mgmr_ap_ip_get
	.section	.text.wifi_mgmr_ap_start,"ax",@progbits
	.align	1
	.globl	wifi_mgmr_ap_start
	.type	wifi_mgmr_ap_start, @function
wifi_mgmr_ap_start:
.LFB35:
	.loc 2 489 1
	.cfi_startproc
	addi	sp,sp,-48
	.cfi_def_cfa_offset 48
	sw	ra,44(sp)
	sw	s0,40(sp)
	.cfi_offset 1, -4
	.cfi_offset 8, -8
	addi	s0,sp,48
	.cfi_def_cfa 8, 0
	sw	a0,-20(s0)
	sw	a1,-24(s0)
	sw	a2,-28(s0)
	sw	a3,-32(s0)
	sw	a4,-36(s0)
	.loc 2 490 5
	lw	a5,-28(s0)
	andi	a5,a5,0xff
	mv	a3,a5
	lw	a2,-36(s0)
	lw	a1,-32(s0)
	lw	a0,-24(s0)
	call	wifi_mgmr_api_ap_start
	.loc 2 491 12
	li	a5,0
	.loc 2 492 1
	mv	a0,a5
	lw	ra,44(sp)
	.cfi_restore 1
	lw	s0,40(sp)
	.cfi_restore 8
	.cfi_def_cfa 2, 48
	addi	sp,sp,48
	.cfi_def_cfa_offset 0
	jr	ra
	.cfi_endproc
.LFE35:
	.size	wifi_mgmr_ap_start, .-wifi_mgmr_ap_start
	.section	.text.wifi_mgmr_ap_stop,"ax",@progbits
	.align	1
	.globl	wifi_mgmr_ap_stop
	.type	wifi_mgmr_ap_stop, @function
wifi_mgmr_ap_stop:
.LFB36:
	.loc 2 495 1
	.cfi_startproc
	addi	sp,sp,-32
	.cfi_def_cfa_offset 32
	sw	ra,28(sp)
	sw	s0,24(sp)
	.cfi_offset 1, -4
	.cfi_offset 8, -8
	addi	s0,sp,32
	.cfi_def_cfa 8, 0
	sw	a0,-20(s0)
	.loc 2 496 5
	call	wifi_mgmr_api_ap_stop
	.loc 2 497 12
	li	a5,0
	.loc 2 498 1
	mv	a0,a5
	lw	ra,28(sp)
	.cfi_restore 1
	lw	s0,24(sp)
	.cfi_restore 8
	.cfi_def_cfa 2, 32
	addi	sp,sp,32
	.cfi_def_cfa_offset 0
	jr	ra
	.cfi_endproc
.LFE36:
	.size	wifi_mgmr_ap_stop, .-wifi_mgmr_ap_stop
	.section	.text.wifi_mgmr_ap_sta_cnt_get,"ax",@progbits
	.align	1
	.globl	wifi_mgmr_ap_sta_cnt_get
	.type	wifi_mgmr_ap_sta_cnt_get, @function
wifi_mgmr_ap_sta_cnt_get:
.LFB37:
	.loc 2 501 1
	.cfi_startproc
	addi	sp,sp,-32
	.cfi_def_cfa_offset 32
	sw	ra,28(sp)
	sw	s0,24(sp)
	.cfi_offset 1, -4
	.cfi_offset 8, -8
	addi	s0,sp,32
	.cfi_def_cfa 8, 0
	sw	a0,-20(s0)
	.loc 2 502 5
	lw	a0,-20(s0)
	call	wifi_mgmr_ap_sta_cnt_get_internal
	.loc 2 503 12
	li	a5,0
	.loc 2 504 1
	mv	a0,a5
	lw	ra,28(sp)
	.cfi_restore 1
	lw	s0,24(sp)
	.cfi_restore 8
	.cfi_def_cfa 2, 32
	addi	sp,sp,32
	.cfi_def_cfa_offset 0
	jr	ra
	.cfi_endproc
.LFE37:
	.size	wifi_mgmr_ap_sta_cnt_get, .-wifi_mgmr_ap_sta_cnt_get
	.section	.text.wifi_mgmr_ap_sta_info_get,"ax",@progbits
	.align	1
	.globl	wifi_mgmr_ap_sta_info_get
	.type	wifi_mgmr_ap_sta_info_get, @function
wifi_mgmr_ap_sta_info_get:
.LFB38:
	.loc 2 507 1
	.cfi_startproc
	addi	sp,sp,-64
	.cfi_def_cfa_offset 64
	sw	ra,60(sp)
	sw	s0,56(sp)
	.cfi_offset 1, -4
	.cfi_offset 8, -8
	addi	s0,sp,64
	.cfi_def_cfa 8, 0
	sw	a0,-52(s0)
	mv	a5,a1
	sb	a5,-53(s0)
	.loc 2 509 5
	addi	a5,s0,-40
	li	a2,24
	li	a1,0
	mv	a0,a5
	call	memset
	.loc 2 510 5
	lbu	a4,-53(s0)
	addi	a5,s0,-40
	mv	a1,a4
	mv	a0,a5
	call	wifi_mgmr_ap_sta_info_get_internal
	.loc 2 511 42
	lbu	a4,-40(s0)
	.loc 2 511 23
	lw	a5,-52(s0)
	sb	a4,0(a5)
	.loc 2 512 42
	lbu	a4,-39(s0)
	.loc 2 512 23
	lw	a5,-52(s0)
	sb	a4,1(a5)
	.loc 2 513 39
	lw	a4,-24(s0)
	.loc 2 513 20
	lw	a5,-52(s0)
	sw	a4,16(a5)
	.loc 2 514 40
	lw	a4,-28(s0)
	.loc 2 514 21
	lw	a5,-52(s0)
	sw	a4,12(a5)
	.loc 2 515 40
	lw	a4,-32(s0)
	.loc 2 515 21
	lw	a5,-52(s0)
	sw	a4,8(a5)
	.loc 2 516 44
	lbu	a4,-20(s0)
	.loc 2 516 25
	lw	a5,-52(s0)
	sb	a4,20(a5)
	.loc 2 517 20
	lw	a5,-52(s0)
	addi	a4,a5,2
	.loc 2 517 5
	addi	a5,s0,-40
	addi	a5,a5,2
	li	a2,6
	mv	a1,a5
	mv	a0,a4
	call	memcpy
	.loc 2 518 12
	li	a5,0
	.loc 2 519 1
	mv	a0,a5
	lw	ra,60(sp)
	.cfi_restore 1
	lw	s0,56(sp)
	.cfi_restore 8
	.cfi_def_cfa 2, 64
	addi	sp,sp,64
	.cfi_def_cfa_offset 0
	jr	ra
	.cfi_endproc
.LFE38:
	.size	wifi_mgmr_ap_sta_info_get, .-wifi_mgmr_ap_sta_info_get
	.section	.text.wifi_mgmr_ap_sta_delete,"ax",@progbits
	.align	1
	.globl	wifi_mgmr_ap_sta_delete
	.type	wifi_mgmr_ap_sta_delete, @function
wifi_mgmr_ap_sta_delete:
.LFB39:
	.loc 2 522 1
	.cfi_startproc
	addi	sp,sp,-32
	.cfi_def_cfa_offset 32
	sw	ra,28(sp)
	sw	s0,24(sp)
	.cfi_offset 1, -4
	.cfi_offset 8, -8
	addi	s0,sp,32
	.cfi_def_cfa 8, 0
	mv	a5,a0
	sb	a5,-17(s0)
	.loc 2 523 5
	lbu	a5,-17(s0)
	mv	a0,a5
	call	wifi_mgmr_ap_sta_delete_internal
	.loc 2 524 12
	li	a5,0
	.loc 2 525 1
	mv	a0,a5
	lw	ra,28(sp)
	.cfi_restore 1
	lw	s0,24(sp)
	.cfi_restore 8
	.cfi_def_cfa 2, 32
	addi	sp,sp,32
	.cfi_def_cfa_offset 0
	jr	ra
	.cfi_endproc
.LFE39:
	.size	wifi_mgmr_ap_sta_delete, .-wifi_mgmr_ap_sta_delete
	.section	.text.wifi_mgmr_ap_set_gateway,"ax",@progbits
	.align	1
	.globl	wifi_mgmr_ap_set_gateway
	.type	wifi_mgmr_ap_set_gateway, @function
wifi_mgmr_ap_set_gateway:
.LFB40:
	.loc 2 528 1
	.cfi_startproc
	addi	sp,sp,-32
	.cfi_def_cfa_offset 32
	sw	ra,28(sp)
	sw	s0,24(sp)
	.cfi_offset 1, -4
	.cfi_offset 8, -8
	addi	s0,sp,32
	.cfi_def_cfa 8, 0
	sw	a0,-20(s0)
	.loc 2 530 12
	li	a5,0
	.loc 2 531 1
	mv	a0,a5
	lw	ra,28(sp)
	.cfi_restore 1
	lw	s0,24(sp)
	.cfi_restore 8
	.cfi_def_cfa 2, 32
	addi	sp,sp,32
	.cfi_def_cfa_offset 0
	jr	ra
	.cfi_endproc
.LFE40:
	.size	wifi_mgmr_ap_set_gateway, .-wifi_mgmr_ap_set_gateway
	.section	.text.wifi_mgmr_sniffer_register,"ax",@progbits
	.align	1
	.globl	wifi_mgmr_sniffer_register
	.type	wifi_mgmr_sniffer_register, @function
wifi_mgmr_sniffer_register:
.LFB41:
	.loc 2 534 1
	.cfi_startproc
	addi	sp,sp,-32
	.cfi_def_cfa_offset 32
	sw	ra,28(sp)
	sw	s0,24(sp)
	.cfi_offset 1, -4
	.cfi_offset 8, -8
	addi	s0,sp,32
	.cfi_def_cfa 8, 0
	sw	a0,-20(s0)
	sw	a1,-24(s0)
	.loc 2 535 5
	lw	a1,-24(s0)
	lw	a0,-20(s0)
	call	bl_rx_pkt_cb_register
	.loc 2 536 12
	li	a5,0
	.loc 2 537 1
	mv	a0,a5
	lw	ra,28(sp)
	.cfi_restore 1
	lw	s0,24(sp)
	.cfi_restore 8
	.cfi_def_cfa 2, 32
	addi	sp,sp,32
	.cfi_def_cfa_offset 0
	jr	ra
	.cfi_endproc
.LFE41:
	.size	wifi_mgmr_sniffer_register, .-wifi_mgmr_sniffer_register
	.section	.text.wifi_mgmr_sniffer_unregister,"ax",@progbits
	.align	1
	.globl	wifi_mgmr_sniffer_unregister
	.type	wifi_mgmr_sniffer_unregister, @function
wifi_mgmr_sniffer_unregister:
.LFB42:
	.loc 2 540 1
	.cfi_startproc
	addi	sp,sp,-32
	.cfi_def_cfa_offset 32
	sw	ra,28(sp)
	sw	s0,24(sp)
	.cfi_offset 1, -4
	.cfi_offset 8, -8
	addi	s0,sp,32
	.cfi_def_cfa 8, 0
	sw	a0,-20(s0)
	.loc 2 541 5
	lw	a0,-20(s0)
	call	bl_rx_pkt_cb_unregister
	.loc 2 542 12
	li	a5,0
	.loc 2 543 1
	mv	a0,a5
	lw	ra,28(sp)
	.cfi_restore 1
	lw	s0,24(sp)
	.cfi_restore 8
	.cfi_def_cfa 2, 32
	addi	sp,sp,32
	.cfi_def_cfa_offset 0
	jr	ra
	.cfi_endproc
.LFE42:
	.size	wifi_mgmr_sniffer_unregister, .-wifi_mgmr_sniffer_unregister
	.section	.text.wifi_mgmr_sniffer_enable,"ax",@progbits
	.align	1
	.globl	wifi_mgmr_sniffer_enable
	.type	wifi_mgmr_sniffer_enable, @function
wifi_mgmr_sniffer_enable:
.LFB43:
	.loc 2 546 1
	.cfi_startproc
	addi	sp,sp,-16
	.cfi_def_cfa_offset 16
	sw	ra,12(sp)
	sw	s0,8(sp)
	.cfi_offset 1, -4
	.cfi_offset 8, -8
	addi	s0,sp,16
	.cfi_def_cfa 8, 0
	.loc 2 547 5
	call	wifi_mgmr_api_sniffer_enable
	.loc 2 548 12
	li	a5,0
	.loc 2 549 1
	mv	a0,a5
	lw	ra,12(sp)
	.cfi_restore 1
	lw	s0,8(sp)
	.cfi_restore 8
	.cfi_def_cfa 2, 16
	addi	sp,sp,16
	.cfi_def_cfa_offset 0
	jr	ra
	.cfi_endproc
.LFE43:
	.size	wifi_mgmr_sniffer_enable, .-wifi_mgmr_sniffer_enable
	.section	.text.wifi_mgmr_sniffer_disable,"ax",@progbits
	.align	1
	.globl	wifi_mgmr_sniffer_disable
	.type	wifi_mgmr_sniffer_disable, @function
wifi_mgmr_sniffer_disable:
.LFB44:
	.loc 2 552 1
	.cfi_startproc
	addi	sp,sp,-16
	.cfi_def_cfa_offset 16
	sw	ra,12(sp)
	sw	s0,8(sp)
	.cfi_offset 1, -4
	.cfi_offset 8, -8
	addi	s0,sp,16
	.cfi_def_cfa 8, 0
	.loc 2 553 5
	call	wifi_mgmr_api_idle
	.loc 2 554 12
	li	a5,0
	.loc 2 555 1
	mv	a0,a5
	lw	ra,12(sp)
	.cfi_restore 1
	lw	s0,8(sp)
	.cfi_restore 8
	.cfi_def_cfa 2, 16
	addi	sp,sp,16
	.cfi_def_cfa_offset 0
	jr	ra
	.cfi_endproc
.LFE44:
	.size	wifi_mgmr_sniffer_disable, .-wifi_mgmr_sniffer_disable
	.section	.text.wifi_mgmr_rate_config,"ax",@progbits
	.align	1
	.globl	wifi_mgmr_rate_config
	.type	wifi_mgmr_rate_config, @function
wifi_mgmr_rate_config:
.LFB45:
	.loc 2 558 1
	.cfi_startproc
	addi	sp,sp,-32
	.cfi_def_cfa_offset 32
	sw	ra,28(sp)
	sw	s0,24(sp)
	.cfi_offset 1, -4
	.cfi_offset 8, -8
	addi	s0,sp,32
	.cfi_def_cfa 8, 0
	mv	a5,a0
	sh	a5,-18(s0)
	.loc 2 559 12
	lhu	a5,-18(s0)
	mv	a0,a5
	call	wifi_mgmr_api_rate_config
	mv	a5,a0
	.loc 2 560 1
	mv	a0,a5
	lw	ra,28(sp)
	.cfi_restore 1
	lw	s0,24(sp)
	.cfi_restore 8
	.cfi_def_cfa 2, 32
	addi	sp,sp,32
	.cfi_def_cfa_offset 0
	jr	ra
	.cfi_endproc
.LFE45:
	.size	wifi_mgmr_rate_config, .-wifi_mgmr_rate_config
	.section	.text.wifi_mgmr_conf_max_sta,"ax",@progbits
	.align	1
	.globl	wifi_mgmr_conf_max_sta
	.type	wifi_mgmr_conf_max_sta, @function
wifi_mgmr_conf_max_sta:
.LFB46:
	.loc 2 563 1
	.cfi_startproc
	addi	sp,sp,-32
	.cfi_def_cfa_offset 32
	sw	ra,28(sp)
	sw	s0,24(sp)
	.cfi_offset 1, -4
	.cfi_offset 8, -8
	addi	s0,sp,32
	.cfi_def_cfa 8, 0
	mv	a5,a0
	sb	a5,-17(s0)
	.loc 2 564 12
	lbu	a5,-17(s0)
	mv	a0,a5
	call	wifi_mgmr_api_conf_max_sta
	mv	a5,a0
	.loc 2 565 1
	mv	a0,a5
	lw	ra,28(sp)
	.cfi_restore 1
	lw	s0,24(sp)
	.cfi_restore 8
	.cfi_def_cfa 2, 32
	addi	sp,sp,32
	.cfi_def_cfa_offset 0
	jr	ra
	.cfi_endproc
.LFE46:
	.size	wifi_mgmr_conf_max_sta, .-wifi_mgmr_conf_max_sta
	.section	.text.wifi_mgmr_state_get,"ax",@progbits
	.align	1
	.globl	wifi_mgmr_state_get
	.type	wifi_mgmr_state_get, @function
wifi_mgmr_state_get:
.LFB47:
	.loc 2 568 1
	.cfi_startproc
	addi	sp,sp,-32
	.cfi_def_cfa_offset 32
	sw	ra,28(sp)
	sw	s0,24(sp)
	.cfi_offset 1, -4
	.cfi_offset 8, -8
	addi	s0,sp,32
	.cfi_def_cfa 8, 0
	sw	a0,-20(s0)
	.loc 2 569 12
	lw	a0,-20(s0)
	call	wifi_mgmr_state_get_internal
	mv	a5,a0
	.loc 2 570 1
	mv	a0,a5
	lw	ra,28(sp)
	.cfi_restore 1
	lw	s0,24(sp)
	.cfi_restore 8
	.cfi_def_cfa 2, 32
	addi	sp,sp,32
	.cfi_def_cfa_offset 0
	jr	ra
	.cfi_endproc
.LFE47:
	.size	wifi_mgmr_state_get, .-wifi_mgmr_state_get
	.section	.text.wifi_mgmr_status_code_get,"ax",@progbits
	.align	1
	.globl	wifi_mgmr_status_code_get
	.type	wifi_mgmr_status_code_get, @function
wifi_mgmr_status_code_get:
.LFB48:
	.loc 2 573 1
	.cfi_startproc
	addi	sp,sp,-32
	.cfi_def_cfa_offset 32
	sw	ra,28(sp)
	sw	s0,24(sp)
	.cfi_offset 1, -4
	.cfi_offset 8, -8
	addi	s0,sp,32
	.cfi_def_cfa 8, 0
	sw	a0,-20(s0)
	.loc 2 574 12
	lw	a0,-20(s0)
	call	wifi_mgmr_status_code_get_internal
	mv	a5,a0
	.loc 2 575 1
	mv	a0,a5
	lw	ra,28(sp)
	.cfi_restore 1
	lw	s0,24(sp)
	.cfi_restore 8
	.cfi_def_cfa 2, 32
	addi	sp,sp,32
	.cfi_def_cfa_offset 0
	jr	ra
	.cfi_endproc
.LFE48:
	.size	wifi_mgmr_status_code_get, .-wifi_mgmr_status_code_get
	.section	.text.wifi_mgmr_rssi_get,"ax",@progbits
	.align	1
	.globl	wifi_mgmr_rssi_get
	.type	wifi_mgmr_rssi_get, @function
wifi_mgmr_rssi_get:
.LFB49:
	.loc 2 578 1
	.cfi_startproc
	addi	sp,sp,-32
	.cfi_def_cfa_offset 32
	sw	ra,28(sp)
	sw	s0,24(sp)
	.cfi_offset 1, -4
	.cfi_offset 8, -8
	addi	s0,sp,32
	.cfi_def_cfa 8, 0
	sw	a0,-20(s0)
	.loc 2 579 34
	lui	a5,%hi(wifiMgmr)
	addi	a5,a5,%lo(wifiMgmr)
	lb	a5,128(a5)
	mv	a4,a5
	.loc 2 579 11
	lw	a5,-20(s0)
	sw	a4,0(a5)
	.loc 2 580 12
	li	a5,0
	.loc 2 581 1
	mv	a0,a5
	lw	ra,28(sp)
	.cfi_restore 1
	lw	s0,24(sp)
	.cfi_restore 8
	.cfi_def_cfa 2, 32
	addi	sp,sp,32
	.cfi_def_cfa_offset 0
	jr	ra
	.cfi_endproc
.LFE49:
	.size	wifi_mgmr_rssi_get, .-wifi_mgmr_rssi_get
	.section	.text.wifi_mgmr_channel_get,"ax",@progbits
	.align	1
	.globl	wifi_mgmr_channel_get
	.type	wifi_mgmr_channel_get, @function
wifi_mgmr_channel_get:
.LFB50:
	.loc 2 584 1
	.cfi_startproc
	addi	sp,sp,-32
	.cfi_def_cfa_offset 32
	sw	ra,28(sp)
	sw	s0,24(sp)
	.cfi_offset 1, -4
	.cfi_offset 8, -8
	addi	s0,sp,32
	.cfi_def_cfa 8, 0
	sw	a0,-20(s0)
	.loc 2 585 24
	lui	a5,%hi(wifiMgmr)
	addi	a5,a5,%lo(wifiMgmr)
	lw	a4,4(a5)
	.loc 2 585 14
	lw	a5,-20(s0)
	sw	a4,0(a5)
	.loc 2 586 12
	li	a5,0
	.loc 2 587 1
	mv	a0,a5
	lw	ra,28(sp)
	.cfi_restore 1
	lw	s0,24(sp)
	.cfi_restore 8
	.cfi_def_cfa 2, 32
	addi	sp,sp,32
	.cfi_def_cfa_offset 0
	jr	ra
	.cfi_endproc
.LFE50:
	.size	wifi_mgmr_channel_get, .-wifi_mgmr_channel_get
	.section	.rodata
	.align	2
.LC6:
	.string	"set channel %d, 40Mhz %d\r\n"
	.section	.text.wifi_mgmr_channel_set,"ax",@progbits
	.align	1
	.globl	wifi_mgmr_channel_set
	.type	wifi_mgmr_channel_set, @function
wifi_mgmr_channel_set:
.LFB51:
	.loc 2 590 1
	.cfi_startproc
	addi	sp,sp,-32
	.cfi_def_cfa_offset 32
	sw	ra,28(sp)
	sw	s0,24(sp)
	.cfi_offset 1, -4
	.cfi_offset 8, -8
	addi	s0,sp,32
	.cfi_def_cfa 8, 0
	sw	a0,-20(s0)
	sw	a1,-24(s0)
	.loc 2 591 22
	lui	a5,%hi(wifiMgmr)
	addi	a5,a5,%lo(wifiMgmr)
	lw	a4,-20(s0)
	sw	a4,4(a5)
	.loc 2 592 5
	lw	a1,-24(s0)
	lw	a0,-20(s0)
	call	wifi_mgmr_api_channel_set
	.loc 2 593 5
	lw	a2,-24(s0)
	lw	a1,-20(s0)
	lui	a5,%hi(.LC6)
	addi	a0,a5,%lo(.LC6)
	call	printf
	.loc 2 594 12
	li	a5,0
	.loc 2 595 1
	mv	a0,a5
	lw	ra,28(sp)
	.cfi_restore 1
	lw	s0,24(sp)
	.cfi_restore 8
	.cfi_def_cfa 2, 32
	addi	sp,sp,32
	.cfi_def_cfa_offset 0
	jr	ra
	.cfi_endproc
.LFE51:
	.size	wifi_mgmr_channel_set, .-wifi_mgmr_channel_set
	.section	.text.wifi_mgmr_raw_80211_send,"ax",@progbits
	.align	1
	.globl	wifi_mgmr_raw_80211_send
	.type	wifi_mgmr_raw_80211_send, @function
wifi_mgmr_raw_80211_send:
.LFB52:
	.loc 2 598 1
	.cfi_startproc
	addi	sp,sp,-32
	.cfi_def_cfa_offset 32
	sw	ra,28(sp)
	sw	s0,24(sp)
	.cfi_offset 1, -4
	.cfi_offset 8, -8
	addi	s0,sp,32
	.cfi_def_cfa 8, 0
	sw	a0,-20(s0)
	sw	a1,-24(s0)
	.loc 2 599 8
	lw	a4,-24(s0)
	li	a5,480
	ble	a4,a5,.L117
	.loc 2 601 16
	li	a5,-1
	j	.L118
.L117:
	.loc 2 603 5
	lw	a1,-24(s0)
	lw	a0,-20(s0)
	call	wifi_mgmr_api_raw_send
	.loc 2 605 12
	li	a5,0
.L118:
	.loc 2 606 1
	mv	a0,a5
	lw	ra,28(sp)
	.cfi_restore 1
	lw	s0,24(sp)
	.cfi_restore 8
	.cfi_def_cfa 2, 32
	addi	sp,sp,32
	.cfi_def_cfa_offset 0
	jr	ra
	.cfi_endproc
.LFE52:
	.size	wifi_mgmr_raw_80211_send, .-wifi_mgmr_raw_80211_send
	.section	.rodata
	.align	2
.LC7:
	.string	"wifi scan Done\r\n"
	.section	.text.wifi_mgmr_all_ap_scan,"ax",@progbits
	.align	1
	.globl	wifi_mgmr_all_ap_scan
	.type	wifi_mgmr_all_ap_scan, @function
wifi_mgmr_all_ap_scan:
.LFB53:
	.loc 2 609 1
	.cfi_startproc
	addi	sp,sp,-48
	.cfi_def_cfa_offset 48
	sw	ra,44(sp)
	sw	s0,40(sp)
	.cfi_offset 1, -4
	.cfi_offset 8, -8
	addi	s0,sp,48
	.cfi_def_cfa 8, 0
	sw	a0,-36(s0)
	sw	a1,-40(s0)
	.loc 2 610 14
	sw	zero,-24(s0)
	.loc 2 613 8
	lw	a5,-36(s0)
	beq	a5,zero,.L120
	.loc 2 613 23 discriminator 1
	lw	a5,-40(s0)
	bne	a5,zero,.L121
.L120:
	.loc 2 614 16
	li	a5,-1
	j	.L126
.L121:
	.loc 2 617 39
	li	a5,4096
	addi	a0,a5,-1496
	call	pvPortMalloc
	sw	a0,-20(s0)
	.loc 2 618 7
	lw	a5,-20(s0)
	bne	a5,zero,.L123
	.loc 2 619 16
	li	a5,-1
	j	.L126
.L123:
	.loc 2 621 5
	li	a5,4096
	addi	a2,a5,-1496
	li	a1,0
	lw	a0,-20(s0)
	call	memset
	.loc 2 623 27
	li	a2,3
	li	a1,0
	li	a0,1
	call	xQueueGenericCreate
	mv	a4,a0
	.loc 2 623 25 discriminator 1
	lui	a5,%hi(scan_sig)
	sw	a4,%lo(scan_sig)(a5)
	lui	a5,%hi(scan_sig)
	lw	a5,%lo(scan_sig)(a5)
	.loc 2 623 7 discriminator 1
	bne	a5,zero,.L124
	.loc 2 624 9
	lw	a0,-20(s0)
	call	vPortFree
	.loc 2 625 16
	li	a5,-1
	j	.L126
.L124:
	.loc 2 628 5
	lui	a5,%hi(cb_scan_complete)
	addi	a1,a5,%lo(cb_scan_complete)
	lw	a0,-20(s0)
	call	wifi_mgmr_scan
	.loc 2 630 34
	lui	a5,%hi(scan_sig)
	lw	a5,%lo(scan_sig)(a5)
	li	a1,-1
	mv	a0,a5
	call	xQueueSemaphoreTake
	mv	a4,a0
	.loc 2 630 8 discriminator 1
	li	a5,1
	bne	a4,a5,.L125
	.loc 2 631 9
	lui	a5,%hi(.LC7)
	addi	a0,a5,%lo(.LC7)
	call	printf
.L125:
	.loc 2 634 5
	call	wifi_mgmr_cli_scanlist
	.loc 2 636 5
	addi	a4,s0,-24
	lui	a5,%hi(cb_scan_item_parse)
	addi	a2,a5,%lo(cb_scan_item_parse)
	mv	a1,a4
	lw	a0,-20(s0)
	call	wifi_mgmr_scan_ap_all
	.loc 2 638 10
	lw	a4,-24(s0)
	lw	a5,-40(s0)
	sw	a4,0(a5)
	.loc 2 639 13
	lw	a5,-36(s0)
	lw	a4,-20(s0)
	sw	a4,0(a5)
	.loc 2 641 5
	lui	a5,%hi(scan_sig)
	lw	a5,%lo(scan_sig)(a5)
	mv	a0,a5
	call	vQueueDelete
	.loc 2 643 12
	li	a5,0
.L126:
	.loc 2 644 1
	mv	a0,a5
	lw	ra,44(sp)
	.cfi_restore 1
	lw	s0,40(sp)
	.cfi_restore 8
	.cfi_def_cfa 2, 48
	addi	sp,sp,48
	.cfi_def_cfa_offset 0
	jr	ra
	.cfi_endproc
.LFE53:
	.size	wifi_mgmr_all_ap_scan, .-wifi_mgmr_all_ap_scan
	.section	.text.wifi_mgmr_scan,"ax",@progbits
	.align	1
	.globl	wifi_mgmr_scan
	.type	wifi_mgmr_scan, @function
wifi_mgmr_scan:
.LFB54:
	.loc 2 647 1
	.cfi_startproc
	addi	sp,sp,-32
	.cfi_def_cfa_offset 32
	sw	ra,28(sp)
	sw	s0,24(sp)
	.cfi_offset 1, -4
	.cfi_offset 8, -8
	addi	s0,sp,32
	.cfi_def_cfa 8, 0
	sw	a0,-20(s0)
	sw	a1,-24(s0)
	.loc 2 648 13
	lui	a5,%hi(scan_cb)
	lw	a4,-24(s0)
	sw	a4,%lo(scan_cb)(a5)
	.loc 2 649 15
	lui	a5,%hi(scan_data)
	lw	a4,-20(s0)
	sw	a4,%lo(scan_data)(a5)
	.loc 2 651 5
	call	wifi_mgmr_api_fw_scan
	.loc 2 653 12
	li	a5,0
	.loc 2 654 1
	mv	a0,a5
	lw	ra,28(sp)
	.cfi_restore 1
	lw	s0,24(sp)
	.cfi_restore 8
	.cfi_def_cfa 2, 32
	addi	sp,sp,32
	.cfi_def_cfa_offset 0
	jr	ra
	.cfi_endproc
.LFE54:
	.size	wifi_mgmr_scan, .-wifi_mgmr_scan
	.section	.text.wifi_mgmr_cfg_req,"ax",@progbits
	.align	1
	.globl	wifi_mgmr_cfg_req
	.type	wifi_mgmr_cfg_req, @function
wifi_mgmr_cfg_req:
.LFB55:
	.loc 2 657 1
	.cfi_startproc
	addi	sp,sp,-48
	.cfi_def_cfa_offset 48
	sw	ra,44(sp)
	sw	s0,40(sp)
	.cfi_offset 1, -4
	.cfi_offset 8, -8
	addi	s0,sp,48
	.cfi_def_cfa 8, 0
	sw	a0,-20(s0)
	sw	a1,-24(s0)
	sw	a2,-28(s0)
	sw	a3,-32(s0)
	sw	a4,-36(s0)
	sw	a5,-40(s0)
	.loc 2 658 12
	lw	a5,-40(s0)
	lw	a4,-36(s0)
	lw	a3,-32(s0)
	lw	a2,-28(s0)
	lw	a1,-24(s0)
	lw	a0,-20(s0)
	call	wifi_mgmr_api_cfg_req
	mv	a5,a0
	.loc 2 659 1
	mv	a0,a5
	lw	ra,44(sp)
	.cfi_restore 1
	lw	s0,40(sp)
	.cfi_restore 8
	.cfi_def_cfa 2, 48
	addi	sp,sp,48
	.cfi_def_cfa_offset 0
	jr	ra
	.cfi_endproc
.LFE55:
	.size	wifi_mgmr_cfg_req, .-wifi_mgmr_cfg_req
	.section	.text.wifi_mgmr_scan_filter_hidden_ssid,"ax",@progbits
	.align	1
	.globl	wifi_mgmr_scan_filter_hidden_ssid
	.type	wifi_mgmr_scan_filter_hidden_ssid, @function
wifi_mgmr_scan_filter_hidden_ssid:
.LFB56:
	.loc 2 662 1
	.cfi_startproc
	addi	sp,sp,-32
	.cfi_def_cfa_offset 32
	sw	ra,28(sp)
	sw	s0,24(sp)
	.cfi_offset 1, -4
	.cfi_offset 8, -8
	addi	s0,sp,32
	.cfi_def_cfa 8, 0
	sw	a0,-20(s0)
	.loc 2 663 5
	call	vTaskEnterCritical
	.loc 2 664 8
	lw	a5,-20(s0)
	beq	a5,zero,.L132
	.loc 2 665 17
	lui	a5,%hi(wifiMgmr)
	addi	a4,a5,%lo(wifiMgmr)
	li	a5,4096
	add	a5,a4,a5
	lw	a5,2012(a5)
	.loc 2 665 27
	andi	a4,a5,-2
	lui	a5,%hi(wifiMgmr)
	addi	a3,a5,%lo(wifiMgmr)
	li	a5,4096
	add	a5,a3,a5
	sw	a4,2012(a5)
	j	.L133
.L132:
	.loc 2 667 17
	lui	a5,%hi(wifiMgmr)
	addi	a4,a5,%lo(wifiMgmr)
	li	a5,4096
	add	a5,a4,a5
	lw	a5,2012(a5)
	.loc 2 667 27
	ori	a4,a5,1
	lui	a5,%hi(wifiMgmr)
	addi	a3,a5,%lo(wifiMgmr)
	li	a5,4096
	add	a5,a3,a5
	sw	a4,2012(a5)
.L133:
	.loc 2 669 5
	call	vTaskExitCritical
	.loc 2 670 12
	li	a5,0
	.loc 2 671 1
	mv	a0,a5
	lw	ra,28(sp)
	.cfi_restore 1
	lw	s0,24(sp)
	.cfi_restore 8
	.cfi_def_cfa 2, 32
	addi	sp,sp,32
	.cfi_def_cfa_offset 0
	jr	ra
	.cfi_endproc
.LFE56:
	.size	wifi_mgmr_scan_filter_hidden_ssid, .-wifi_mgmr_scan_filter_hidden_ssid
	.section	.rodata
	.align	2
.LC8:
	.string	"%s: scan complete\r\n"
	.section	.text.wifi_mgmr_scan_complete_callback,"ax",@progbits
	.align	1
	.globl	wifi_mgmr_scan_complete_callback
	.type	wifi_mgmr_scan_complete_callback, @function
wifi_mgmr_scan_complete_callback:
.LFB57:
	.loc 2 674 1
	.cfi_startproc
	addi	sp,sp,-32
	.cfi_def_cfa_offset 32
	sw	ra,28(sp)
	sw	s0,24(sp)
	.cfi_offset 1, -4
	.cfi_offset 8, -8
	addi	s0,sp,32
	.cfi_def_cfa 8, 0
	.loc 2 675 9
	sw	zero,-20(s0)
	.loc 2 677 5
	lui	a5,%hi(__func__.1)
	addi	a1,a5,%lo(__func__.1)
	lui	a5,%hi(.LC8)
	addi	a0,a5,%lo(.LC8)
	call	printf
	.loc 2 678 17
	lui	a5,%hi(scan_cb)
	lw	a5,%lo(scan_cb)(a5)
	.loc 2 678 8
	beq	a5,zero,.L136
	.loc 2 679 16
	li	a5,1
	sw	a5,-20(s0)
	.loc 2 680 9
	lui	a5,%hi(scan_cb)
	lw	a5,%lo(scan_cb)(a5)
	lui	a4,%hi(scan_data)
	lw	a4,%lo(scan_data)(a4)
	addi	a3,s0,-20
	mv	a1,a3
	mv	a0,a4
	jalr	a5
.LVL0:
.L136:
	.loc 2 682 12
	li	a5,0
	.loc 2 683 1
	mv	a0,a5
	lw	ra,28(sp)
	.cfi_restore 1
	lw	s0,24(sp)
	.cfi_restore 8
	.cfi_def_cfa 2, 32
	addi	sp,sp,32
	.cfi_def_cfa_offset 0
	jr	ra
	.cfi_endproc
.LFE57:
	.size	wifi_mgmr_scan_complete_callback, .-wifi_mgmr_scan_complete_callback
	.section	.text.wifi_mgmr_scan_ap,"ax",@progbits
	.align	1
	.globl	wifi_mgmr_scan_ap
	.type	wifi_mgmr_scan_ap, @function
wifi_mgmr_scan_ap:
.LFB58:
	.loc 2 686 1
	.cfi_startproc
	addi	sp,sp,-48
	.cfi_def_cfa_offset 48
	sw	ra,44(sp)
	sw	s0,40(sp)
	.cfi_offset 1, -4
	.cfi_offset 8, -8
	addi	s0,sp,48
	.cfi_def_cfa 8, 0
	sw	a0,-36(s0)
	sw	a1,-40(s0)
	.loc 2 687 12
	li	a5,-1
	sw	a5,-24(s0)
	.loc 2 688 12
	li	a5,-127
	sb	a5,-25(s0)
	.loc 2 691 12
	sw	zero,-20(s0)
	.loc 2 691 5
	j	.L139
.L143:
	.loc 2 692 35
	lui	a5,%hi(wifiMgmr)
	addi	a3,a5,%lo(wifiMgmr)
	lw	a4,-20(s0)
	mv	a5,a4
	slli	a5,a5,4
	sub	a5,a5,a4
	slli	a5,a5,2
	add	a5,a3,a5
	lbu	a5,704(a5)
	.loc 2 692 12
	beq	a5,zero,.L140
	.loc 2 693 19
	lw	a4,-20(s0)
	mv	a5,a4
	slli	a5,a5,4
	sub	a5,a5,a4
	slli	a5,a5,2
	addi	a4,a5,640
	lui	a5,%hi(wifiMgmr)
	addi	a5,a5,%lo(wifiMgmr)
	add	a5,a4,a5
	addi	a5,a5,12
	mv	a1,a5
	lui	a5,%hi(wifiMgmr)
	addi	a0,a5,%lo(wifiMgmr)
	call	wifi_mgmr_scan_item_is_timeout
	mv	a5,a0
	.loc 2 692 44 discriminator 1
	bne	a5,zero,.L140
	.loc 2 693 126
	lw	a4,-20(s0)
	mv	a5,a4
	slli	a5,a5,4
	sub	a5,a5,a4
	slli	a5,a5,2
	addi	a4,a5,640
	lui	a5,%hi(wifiMgmr)
	addi	a5,a5,%lo(wifiMgmr)
	add	a5,a4,a5
	addi	a5,a5,12
	.loc 2 693 97
	lw	a1,-36(s0)
	mv	a0,a5
	call	strcmp
	mv	a5,a0
	.loc 2 693 89 discriminator 2
	bne	a5,zero,.L140
	.loc 2 695 19
	lw	a5,-20(s0)
	sw	a5,-24(s0)
	.loc 2 696 39
	lui	a5,%hi(wifiMgmr)
	addi	a3,a5,%lo(wifiMgmr)
	lw	a4,-20(s0)
	mv	a5,a4
	slli	a5,a5,4
	sub	a5,a5,a4
	slli	a5,a5,2
	add	a5,a3,a5
	lb	a5,699(a5)
	.loc 2 696 16
	lb	a4,-25(s0)
	bge	a4,a5,.L146
	.loc 2 698 22
	lui	a5,%hi(wifiMgmr)
	addi	a3,a5,%lo(wifiMgmr)
	lw	a4,-20(s0)
	mv	a5,a4
	slli	a5,a5,4
	sub	a5,a5,a4
	slli	a5,a5,2
	add	a5,a3,a5
	lbu	a5,699(a5)
	sb	a5,-25(s0)
	.loc 2 700 13
	j	.L146
.L140:
	.loc 2 691 82 discriminator 2
	lw	a5,-20(s0)
	addi	a5,a5,1
	sw	a5,-20(s0)
.L139:
	.loc 2 691 19 discriminator 1
	lw	a4,-20(s0)
	li	a5,49
	bleu	a4,a5,.L143
	j	.L142
.L146:
	.loc 2 700 13
	nop
.L142:
	.loc 2 703 8
	lw	a4,-20(s0)
	li	a5,50
	beq	a4,a5,.L144
	.loc 2 703 75 discriminator 1
	lw	a5,-24(s0)
	blt	a5,zero,.L144
	.loc 2 706 14
	lw	a4,-24(s0)
	mv	a5,a4
	slli	a5,a5,4
	sub	a5,a5,a4
	slli	a5,a5,2
	addi	a4,a5,640
	lui	a5,%hi(wifiMgmr)
	addi	a5,a5,%lo(wifiMgmr)
	add	a5,a4,a5
	addi	a5,a5,12
	sw	a5,-32(s0)
	.loc 2 707 20
	lw	a5,-40(s0)
	.loc 2 707 32
	lw	a4,-32(s0)
	.loc 2 707 9
	li	a2,32
	mv	a1,a4
	mv	a0,a5
	call	memcpy
	.loc 2 708 28
	lw	a5,-40(s0)
	sb	zero,32(a5)
	.loc 2 709 37
	lw	a5,-40(s0)
	.loc 2 709 26
	mv	a0,a5
	call	strlen
	mv	a4,a0
	.loc 2 709 24 discriminator 1
	lw	a5,-40(s0)
	sw	a4,36(a5)
	.loc 2 710 20
	lw	a5,-40(s0)
	addi	a4,a5,40
	.loc 2 710 33
	lw	a5,-32(s0)
	addi	a5,a5,40
	.loc 2 710 9
	li	a2,6
	mv	a1,a5
	mv	a0,a4
	call	memcpy
	.loc 2 711 29
	lw	a5,-32(s0)
	lbu	a4,46(a5)
	.loc 2 711 23
	lw	a5,-40(s0)
	sb	a4,46(a5)
	.loc 2 712 26
	lw	a5,-32(s0)
	lb	a4,47(a5)
	.loc 2 712 20
	lw	a5,-40(s0)
	sb	a4,48(a5)
	.loc 2 717 12
	li	a5,0
	j	.L145
.L144:
	.loc 2 714 16
	li	a5,-1
.L145:
	.loc 2 718 1
	mv	a0,a5
	lw	ra,44(sp)
	.cfi_restore 1
	lw	s0,40(sp)
	.cfi_restore 8
	.cfi_def_cfa 2, 48
	addi	sp,sp,48
	.cfi_def_cfa_offset 0
	jr	ra
	.cfi_endproc
.LFE58:
	.size	wifi_mgmr_scan_ap, .-wifi_mgmr_scan_ap
	.section	.text.wifi_mgmr_scan_ap_all,"ax",@progbits
	.align	1
	.globl	wifi_mgmr_scan_ap_all
	.type	wifi_mgmr_scan_ap_all, @function
wifi_mgmr_scan_ap_all:
.LFB59:
	.loc 2 721 1
	.cfi_startproc
	addi	sp,sp,-96
	.cfi_def_cfa_offset 96
	sw	ra,92(sp)
	sw	s0,88(sp)
	.cfi_offset 1, -4
	.cfi_offset 8, -8
	addi	s0,sp,96
	.cfi_def_cfa 8, 0
	sw	a0,-84(s0)
	sw	a1,-88(s0)
	sw	a2,-92(s0)
	.loc 2 726 12
	sw	zero,-20(s0)
	.loc 2 726 5
	j	.L148
.L150:
	.loc 2 727 14
	lw	a4,-20(s0)
	mv	a5,a4
	slli	a5,a5,4
	sub	a5,a5,a4
	slli	a5,a5,2
	addi	a4,a5,640
	lui	a5,%hi(wifiMgmr)
	addi	a5,a5,%lo(wifiMgmr)
	add	a5,a4,a5
	addi	a5,a5,12
	sw	a5,-24(s0)
	.loc 2 728 17
	lw	a5,-24(s0)
	lbu	a5,52(a5)
	.loc 2 728 12
	beq	a5,zero,.L149
	.loc 2 728 32 discriminator 1
	lw	a4,-20(s0)
	mv	a5,a4
	slli	a5,a5,4
	sub	a5,a5,a4
	slli	a5,a5,2
	addi	a4,a5,640
	lui	a5,%hi(wifiMgmr)
	addi	a5,a5,%lo(wifiMgmr)
	add	a5,a4,a5
	addi	a5,a5,12
	mv	a1,a5
	lui	a5,%hi(wifiMgmr)
	addi	a0,a5,%lo(wifiMgmr)
	call	wifi_mgmr_scan_item_is_timeout
	mv	a5,a0
	.loc 2 728 27 discriminator 2
	bne	a5,zero,.L149
	.loc 2 730 35
	lw	a4,-24(s0)
	.loc 2 730 13
	addi	a5,s0,-76
	li	a2,32
	mv	a1,a4
	mv	a0,a5
	call	memcpy
	.loc 2 731 31
	sb	zero,-44(s0)
	.loc 2 732 29
	addi	a5,s0,-76
	mv	a0,a5
	call	strlen
	mv	a5,a0
	.loc 2 732 27 discriminator 1
	sw	a5,-40(s0)
	.loc 2 733 36
	lw	a5,-24(s0)
	addi	a4,a5,40
	.loc 2 733 13
	addi	a5,s0,-76
	addi	a5,a5,40
	li	a2,6
	mv	a1,a4
	mv	a0,a5
	call	memcpy
	.loc 2 734 32
	lw	a5,-24(s0)
	lbu	a5,46(a5)
	.loc 2 734 26
	sb	a5,-30(s0)
	.loc 2 735 29
	lw	a5,-24(s0)
	lb	a5,47(a5)
	.loc 2 735 23
	sb	a5,-28(s0)
	.loc 2 736 29
	lw	a5,-24(s0)
	lbu	a5,50(a5)
	.loc 2 736 23
	sb	a5,-29(s0)
	.loc 2 737 13
	addi	a4,s0,-76
	lw	a5,-92(s0)
	mv	a2,a4
	lw	a1,-88(s0)
	lw	a0,-84(s0)
	jalr	a5
.LVL1:
.L149:
	.loc 2 726 82 discriminator 2
	lw	a5,-20(s0)
	addi	a5,a5,1
	sw	a5,-20(s0)
.L148:
	.loc 2 726 19 discriminator 1
	lw	a4,-20(s0)
	li	a5,49
	bleu	a4,a5,.L150
	.loc 2 741 12
	li	a5,0
	.loc 2 742 1
	mv	a0,a5
	lw	ra,92(sp)
	.cfi_restore 1
	lw	s0,88(sp)
	.cfi_restore 8
	.cfi_def_cfa 2, 96
	addi	sp,sp,96
	.cfi_def_cfa_offset 0
	jr	ra
	.cfi_endproc
.LFE59:
	.size	wifi_mgmr_scan_ap_all, .-wifi_mgmr_scan_ap_all
	.section	.rodata
	.align	2
.LC9:
	.string	"%s:code = %s\r\n"
	.section	.text.wifi_mgmr_set_country_code,"ax",@progbits
	.align	1
	.globl	wifi_mgmr_set_country_code
	.type	wifi_mgmr_set_country_code, @function
wifi_mgmr_set_country_code:
.LFB60:
	.loc 2 745 1
	.cfi_startproc
	addi	sp,sp,-32
	.cfi_def_cfa_offset 32
	sw	ra,28(sp)
	sw	s0,24(sp)
	.cfi_offset 1, -4
	.cfi_offset 8, -8
	addi	s0,sp,32
	.cfi_def_cfa 8, 0
	sw	a0,-20(s0)
	.loc 2 746 5
	lw	a2,-20(s0)
	lui	a5,%hi(__func__.0)
	addi	a1,a5,%lo(__func__.0)
	lui	a5,%hi(.LC9)
	addi	a0,a5,%lo(.LC9)
	call	printf
	.loc 2 747 5
	lw	a0,-20(s0)
	call	wifi_mgmr_api_set_country_code
	.loc 2 749 12
	li	a5,0
	.loc 2 750 1
	mv	a0,a5
	lw	ra,28(sp)
	.cfi_restore 1
	lw	s0,24(sp)
	.cfi_restore 8
	.cfi_def_cfa 2, 32
	addi	sp,sp,32
	.cfi_def_cfa_offset 0
	jr	ra
	.cfi_endproc
.LFE60:
	.size	wifi_mgmr_set_country_code, .-wifi_mgmr_set_country_code
	.section	.rodata
	.align	2
.LC10:
	.string	"Connection OK"
	.align	2
.LC11:
	.string	"tx auth frame alloc failure"
	.align	2
.LC12:
	.string	"Authentication failure"
	.align	2
.LC13:
	.string	"Auth response but auth algo failure"
	.align	2
.LC14:
	.string	"tx assoc frame alloc failure"
	.align	2
.LC15:
	.string	"Association failure"
	.align	2
.LC16:
	.string	"deauth by AP but state error"
	.align	2
.LC17:
	.string	"deauth by AP when connecting"
	.align	2
.LC18:
	.string	"Passwd error, 4-way handshake timeout"
	.align	2
.LC19:
	.string	"Passwd error, tx deauth frame transmit failure"
	.align	2
.LC20:
	.string	"Passwd error, tx deauth frame allocate failure"
	.align	2
.LC21:
	.string	"tx auth or associate frame transmit failure"
	.align	2
.LC22:
	.string	"SSID error, scan no bssid and channel"
	.align	2
.LC23:
	.string	"create channel context failure when join network"
	.align	2
.LC24:
	.string	"join network failure"
	.align	2
.LC25:
	.string	"add sta failure"
	.align	2
.LC26:
	.string	"Beacon Loss"
	.align	2
.LC27:
	.string	"Unknown Status Code"
	.section	.text.wifi_mgmr_status_code_str,"ax",@progbits
	.align	1
	.globl	wifi_mgmr_status_code_str
	.type	wifi_mgmr_status_code_str, @function
wifi_mgmr_status_code_str:
.LFB61:
	.loc 2 753 1
	.cfi_startproc
	addi	sp,sp,-32
	.cfi_def_cfa_offset 32
	sw	ra,28(sp)
	sw	s0,24(sp)
	.cfi_offset 1, -4
	.cfi_offset 8, -8
	addi	s0,sp,32
	.cfi_def_cfa 8, 0
	mv	a5,a0
	sh	a5,-18(s0)
	.loc 2 754 5
	lhu	a5,-18(s0)
	li	a4,16
	beq	a5,a4,.L155
	li	a4,16
	bgt	a5,a4,.L156
	li	a4,15
	beq	a5,a4,.L157
	li	a4,15
	bgt	a5,a4,.L156
	li	a4,14
	beq	a5,a4,.L158
	li	a4,14
	bgt	a5,a4,.L156
	li	a4,13
	beq	a5,a4,.L159
	li	a4,13
	bgt	a5,a4,.L156
	li	a4,12
	beq	a5,a4,.L160
	li	a4,12
	bgt	a5,a4,.L156
	li	a4,11
	beq	a5,a4,.L161
	li	a4,11
	bgt	a5,a4,.L156
	li	a4,10
	beq	a5,a4,.L162
	li	a4,10
	bgt	a5,a4,.L156
	li	a4,9
	beq	a5,a4,.L163
	li	a4,9
	bgt	a5,a4,.L156
	li	a4,8
	beq	a5,a4,.L164
	li	a4,8
	bgt	a5,a4,.L156
	li	a4,7
	beq	a5,a4,.L165
	li	a4,7
	bgt	a5,a4,.L156
	li	a4,6
	beq	a5,a4,.L166
	li	a4,6
	bgt	a5,a4,.L156
	li	a4,5
	beq	a5,a4,.L167
	li	a4,5
	bgt	a5,a4,.L156
	li	a4,4
	beq	a5,a4,.L168
	li	a4,4
	bgt	a5,a4,.L156
	li	a4,3
	beq	a5,a4,.L169
	li	a4,3
	bgt	a5,a4,.L156
	li	a4,2
	beq	a5,a4,.L170
	li	a4,2
	bgt	a5,a4,.L156
	beq	a5,zero,.L171
	li	a4,1
	beq	a5,a4,.L172
	j	.L156
.L171:
	.loc 2 756 20
	lui	a5,%hi(.LC10)
	addi	a5,a5,%lo(.LC10)
	j	.L173
.L172:
	.loc 2 759 20
	lui	a5,%hi(.LC11)
	addi	a5,a5,%lo(.LC11)
	j	.L173
.L170:
	.loc 2 762 20
	lui	a5,%hi(.LC12)
	addi	a5,a5,%lo(.LC12)
	j	.L173
.L169:
	.loc 2 765 20
	lui	a5,%hi(.LC13)
	addi	a5,a5,%lo(.LC13)
	j	.L173
.L168:
	.loc 2 768 20
	lui	a5,%hi(.LC14)
	addi	a5,a5,%lo(.LC14)
	j	.L173
.L167:
	.loc 2 771 20
	lui	a5,%hi(.LC15)
	addi	a5,a5,%lo(.LC15)
	j	.L173
.L166:
	.loc 2 774 20
	lui	a5,%hi(.LC16)
	addi	a5,a5,%lo(.LC16)
	j	.L173
.L165:
	.loc 2 777 20
	lui	a5,%hi(.LC17)
	addi	a5,a5,%lo(.LC17)
	j	.L173
.L164:
	.loc 2 780 20
	lui	a5,%hi(.LC18)
	addi	a5,a5,%lo(.LC18)
	j	.L173
.L163:
	.loc 2 783 20
	lui	a5,%hi(.LC19)
	addi	a5,a5,%lo(.LC19)
	j	.L173
.L162:
	.loc 2 786 20
	lui	a5,%hi(.LC20)
	addi	a5,a5,%lo(.LC20)
	j	.L173
.L161:
	.loc 2 789 20
	lui	a5,%hi(.LC21)
	addi	a5,a5,%lo(.LC21)
	j	.L173
.L160:
	.loc 2 792 20
	lui	a5,%hi(.LC22)
	addi	a5,a5,%lo(.LC22)
	j	.L173
.L159:
	.loc 2 795 20
	lui	a5,%hi(.LC23)
	addi	a5,a5,%lo(.LC23)
	j	.L173
.L158:
	.loc 2 798 20
	lui	a5,%hi(.LC24)
	addi	a5,a5,%lo(.LC24)
	j	.L173
.L157:
	.loc 2 801 20
	lui	a5,%hi(.LC25)
	addi	a5,a5,%lo(.LC25)
	j	.L173
.L155:
	.loc 2 804 20
	lui	a5,%hi(.LC26)
	addi	a5,a5,%lo(.LC26)
	j	.L173
.L156:
	.loc 2 808 20
	lui	a5,%hi(.LC27)
	addi	a5,a5,%lo(.LC27)
.L173:
	.loc 2 811 1
	mv	a0,a5
	lw	ra,28(sp)
	.cfi_restore 1
	lw	s0,24(sp)
	.cfi_restore 8
	.cfi_def_cfa 2, 32
	addi	sp,sp,32
	.cfi_def_cfa_offset 0
	jr	ra
	.cfi_endproc
.LFE61:
	.size	wifi_mgmr_status_code_str, .-wifi_mgmr_status_code_str
	.section	.sbss.done.2,"aw",@nobits
	.align	2
	.type	done.2, @object
	.size	done.2, 4
done.2:
	.zero	4
	.section	.rodata.__func__.1,"a"
	.align	2
	.type	__func__.1, @object
	.size	__func__.1, 33
__func__.1:
	.string	"wifi_mgmr_scan_complete_callback"
	.section	.rodata.__func__.0,"a"
	.align	2
	.type	__func__.0, @object
	.size	__func__.0, 27
__func__.0:
	.string	"wifi_mgmr_set_country_code"
	.text
.Letext0:
	.file 3 "/home/chandu/sdk/bl602_iot_sdk/toolchain/compiler/lib/gcc/riscv32-unknown-elf/15.1.0/include/stddef.h"
	.file 4 "/home/chandu/sdk/bl602_iot_sdk/toolchain/compiler/lib/gcc/riscv32-unknown-elf/15.1.0/include/stdint-gcc.h"
	.file 5 "/home/chandu/sdk/bl602_iot_sdk/components/network/lwip/src/include/lwip/arch.h"
	.file 6 "/home/chandu/sdk/bl602_iot_sdk/components/network/lwip/src/include/lwip/err.h"
	.file 7 "/home/chandu/sdk/bl602_iot_sdk/components/freertos/include/projdefs.h"
	.file 8 "/home/chandu/sdk/bl602_iot_sdk/components/freertos/portable/GCC/RISC-V/portmacro.h"
	.file 9 "/home/chandu/sdk/bl602_iot_sdk/components/freertos/include/FreeRTOS.h"
	.file 10 "/home/chandu/sdk/bl602_iot_sdk/components/freertos/include/queue.h"
	.file 11 "/home/chandu/sdk/bl602_iot_sdk/components/freertos/include/semphr.h"
	.file 12 "/home/chandu/sdk/bl602_iot_sdk/components/network/lwip/src/include/lwip/ip4_addr.h"
	.file 13 "/home/chandu/sdk/bl602_iot_sdk/components/network/lwip/src/include/lwip/ip_addr.h"
	.file 14 "/home/chandu/sdk/bl602_iot_sdk/components/network/lwip/src/include/lwip/pbuf.h"
	.file 15 "/home/chandu/sdk/bl602_iot_sdk/components/network/lwip/src/include/lwip/netif.h"
	.file 16 "/home/chandu/sdk/bl602_iot_sdk/components/network/lwip/src/include/lwip/acd.h"
	.file 17 "/home/chandu/sdk/bl602_iot_sdk/components/network/lwip/src/include/lwip/memp.h"
	.file 18 "/home/chandu/sdk/bl602_iot_sdk/components/network/lwip/src/include/lwip/prot/acd.h"
	.file 19 "/home/chandu/sdk/bl602_iot_sdk/components/bl602/bl602_wifidrv/bl60x_wifi_driver/bl_main.h"
	.file 20 "/home/chandu/sdk/bl602_iot_sdk/components/bl602/bl602_wifidrv/bl60x_wifi_driver/include/wifi_mgmr_ext.h"
	.file 21 "/home/chandu/sdk/bl602_iot_sdk/components/bl602/bl602_wifidrv/bl60x_wifi_driver/stateMachine.h"
	.file 22 "/home/chandu/sdk/bl602_iot_sdk/components/bl602/bl602_wifidrv/bl60x_wifi_driver/os_hal.h"
	.file 23 "/home/chandu/sdk/bl602_iot_sdk/toolchain/compiler/riscv32-unknown-elf/include/string.h"
	.file 24 "/home/chandu/sdk/bl602_iot_sdk/components/bl602/bl602_wifidrv/bl60x_wifi_driver/wifi_mgmr_api.h"
	.file 25 "/home/chandu/sdk/bl602_iot_sdk/components/freertos/include/task.h"
	.file 26 "/home/chandu/sdk/bl602_iot_sdk/components/freertos/include/portable.h"
	.file 27 "/home/chandu/sdk/bl602_iot_sdk/components/hal_drv/bl602_hal/bl_efuse.h"
	.file 28 "/home/chandu/sdk/bl602_iot_sdk/components/network/lwip/src/include/lwip/dns.h"
	.file 29 "/home/chandu/sdk/bl602_iot_sdk/components/utils/include/utils_hex.h"
	.file 30 "/home/chandu/sdk/bl602_iot_sdk/components/bl602/bl602_wifi/include/bl60x_fw_api.h"
	.file 31 "/home/chandu/sdk/bl602_iot_sdk/components/network/lwip/src/include/lwip/tcpip.h"
	.file 32 "/home/chandu/sdk/bl602_iot_sdk/components/network/lwip/src/include/lwip/netifapi.h"
	.file 33 "/home/chandu/sdk/bl602_iot_sdk/components/hal_drv/bl602_hal/bl_wifi.h"
	.file 34 "/home/chandu/sdk/bl602_iot_sdk/toolchain/compiler/riscv32-unknown-elf/include/stdio.h"
	.section	.note.GNU-stack,"",@progbits
