	.file	"wifi_mgmr.c"
	.option nopic
	.attribute arch, "rv32i2p1_m2p0_f2p2_c2p0_zicsr2p0_zmmul1p0_zca1p0_zcf1p0"
	.attribute unaligned_access, 0
	.attribute stack_align, 16
	.text
.Ltext0:
	.cfi_sections	.debug_frame
	.file 0 "/home/chandu/sdk/bl602_iot_sdk/customer_app/suas_app_pqkem_gateway/build_out/bl602_wifidrv" "/home/chandu/sdk/bl602_iot_sdk/components/bl602/bl602_wifidrv/bl60x_wifi_driver/wifi_mgmr.c"
	.globl	wifiMgmr
	.section	.bss.wifiMgmr,"aw",@nobits
	.align	2
	.type	wifiMgmr, @object
	.size	wifiMgmr, 6116
wifiMgmr:
	.zero	6116
	.section	.rodata
	.align	2
.LC0:
	.string	"group"
	.section	.rodata.stateGlobal,"a"
	.align	2
	.type	stateGlobal, @object
	.size	stateGlobal, 28
stateGlobal:
	.word	0
	.word	0
	.word	__compound_literal.0
	.word	12
	.word	.LC0
	.word	stateGlobalEnter
	.word	stateGlobalExit
	.section	.rodata
	.align	2
.LC1:
	.string	"idle"
	.section	.rodata.stateIdle,"a"
	.align	2
	.type	stateIdle, @object
	.size	stateIdle, 28
stateIdle:
	.word	stateGlobal
	.word	0
	.word	__compound_literal.3
	.word	2
	.word	.LC1
	.word	stateIdleEnter
	.word	stateIdleExit
	.section	.rodata
	.align	2
.LC2:
	.string	"connecting"
	.section	.rodata.stateConnecting,"a"
	.align	2
	.type	stateConnecting, @object
	.size	stateConnecting, 28
stateConnecting:
	.word	stateGlobal
	.word	0
	.word	__compound_literal.2
	.word	2
	.word	.LC2
	.word	stateConnectingEnter
	.word	stateConnectingExit
	.section	.rodata.stateConnectedIPNo,"a"
	.align	2
	.type	stateConnectedIPNo, @object
	.size	stateConnectedIPNo, 28
stateConnectedIPNo:
	.word	stateGlobal
	.word	0
	.word	__compound_literal.5
	.word	3
	.word	stateConnectedIPNo_data
	.word	stateConnectedIPNoEnter
	.word	stateConnectedIPNoExit
	.section	.rodata
	.align	2
.LC3:
	.string	"wifiConnected_IPOK"
	.section	.rodata.stateConnectedIPYes,"a"
	.align	2
	.type	stateConnectedIPYes, @object
	.size	stateConnectedIPYes, 28
stateConnectedIPYes:
	.word	stateGlobal
	.word	0
	.word	__compound_literal.6
	.word	4
	.word	.LC3
	.word	stateConnectedIPYes_enter
	.word	stateConnectedIPYes_exit
	.section	.rodata.stateDisconnect,"a"
	.align	2
	.type	stateDisconnect, @object
	.size	stateDisconnect, 28
stateDisconnect:
	.word	stateGlobal
	.word	0
	.word	__compound_literal.7
	.word	2
	.word	stateDisconnect_data
	.word	stateDisconnect_enter
	.word	stateDisconnect_exit
	.section	.rodata
	.align	2
.LC4:
	.string	"ifaceDown"
	.section	.rodata.stateIfaceDown,"a"
	.align	2
	.type	stateIfaceDown, @object
	.size	stateIfaceDown, 28
stateIfaceDown:
	.word	stateGlobal
	.word	0
	.word	__compound_literal.4
	.word	1
	.word	.LC4
	.word	stateIfaceDownEnter
	.word	stateIfaceDownExit
	.section	.rodata
	.align	2
.LC5:
	.string	"sniffer"
	.section	.rodata.stateSniffer,"a"
	.align	2
	.type	stateSniffer, @object
	.size	stateSniffer, 28
stateSniffer:
	.word	stateGlobal
	.word	0
	.word	__compound_literal.1
	.word	2
	.word	.LC5
	.word	stateSnifferEnter
	.word	stateSnifferExit
	.section	.rodata.stateError,"a"
	.align	2
	.type	stateError, @object
	.size	stateError, 28
stateError:
	.zero	20
	.word	printErrMsg
	.zero	4
	.section	.rodata
	.align	2
.LC6:
	.string	"ENTERED ERROR STATE!"
	.section	.text.printErrMsg,"ax",@progbits
	.align	1
	.type	printErrMsg, @function
printErrMsg:
.LFB7:
	.file 1 "/home/chandu/sdk/bl602_iot_sdk/components/bl602/bl602_wifidrv/bl60x_wifi_driver/wifi_mgmr.c"
	.loc 1 69 1
	.cfi_startproc
	addi	sp,sp,-32
	.cfi_def_cfa_offset 32
	sw	ra,28(sp)
	sw	s0,24(sp)
	.cfi_offset 1, -4
	.cfi_offset 8, -8
	addi	s0,sp,32
	.cfi_def_cfa 8, 0
	sw	a0,-20(s0)
	sw	a1,-24(s0)
	.loc 1 70 4
	lui	a5,%hi(.LC6)
	addi	a0,a5,%lo(.LC6)
	call	printf
	.loc 1 71 1
	nop
	lw	ra,28(sp)
	.cfi_restore 1
	lw	s0,24(sp)
	.cfi_restore 8
	.cfi_def_cfa 2, 32
	addi	sp,sp,32
	.cfi_def_cfa_offset 0
	jr	ra
	.cfi_endproc
.LFE7:
	.size	printErrMsg, .-printErrMsg
	.section	.text._pending_task_set,"ax",@progbits
	.align	1
	.type	_pending_task_set, @function
_pending_task_set:
.LFB8:
	.loc 1 74 1
	.cfi_startproc
	addi	sp,sp,-32
	.cfi_def_cfa_offset 32
	sw	ra,28(sp)
	sw	s0,24(sp)
	.cfi_offset 1, -4
	.cfi_offset 8, -8
	addi	s0,sp,32
	.cfi_def_cfa 8, 0
	sw	a0,-20(s0)
	.loc 1 75 13
	lui	a5,%hi(wifiMgmr)
	addi	a4,a5,%lo(wifiMgmr)
	li	a5,4096
	add	a5,a4,a5
	lw	a4,2008(a5)
	.loc 1 75 27
	lw	a5,-20(s0)
	or	a4,a4,a5
	lui	a5,%hi(wifiMgmr)
	addi	a3,a5,%lo(wifiMgmr)
	li	a5,4096
	add	a5,a3,a5
	sw	a4,2008(a5)
	.loc 1 76 1
	nop
	lw	ra,28(sp)
	.cfi_restore 1
	lw	s0,24(sp)
	.cfi_restore 8
	.cfi_def_cfa 2, 32
	addi	sp,sp,32
	.cfi_def_cfa_offset 0
	jr	ra
	.cfi_endproc
.LFE8:
	.size	_pending_task_set, .-_pending_task_set
	.section	.text._pending_task_clr,"ax",@progbits
	.align	1
	.type	_pending_task_clr, @function
_pending_task_clr:
.LFB9:
	.loc 1 79 1
	.cfi_startproc
	addi	sp,sp,-32
	.cfi_def_cfa_offset 32
	sw	ra,28(sp)
	sw	s0,24(sp)
	.cfi_offset 1, -4
	.cfi_offset 8, -8
	addi	s0,sp,32
	.cfi_def_cfa 8, 0
	sw	a0,-20(s0)
	.loc 1 80 13
	lui	a5,%hi(wifiMgmr)
	addi	a4,a5,%lo(wifiMgmr)
	li	a5,4096
	add	a5,a4,a5
	lw	a4,2008(a5)
	.loc 1 80 31
	lw	a5,-20(s0)
	not	a5,a5
	.loc 1 80 27
	and	a4,a4,a5
	lui	a5,%hi(wifiMgmr)
	addi	a3,a5,%lo(wifiMgmr)
	li	a5,4096
	add	a5,a3,a5
	sw	a4,2008(a5)
	.loc 1 81 1
	nop
	lw	ra,28(sp)
	.cfi_restore 1
	lw	s0,24(sp)
	.cfi_restore 8
	.cfi_def_cfa 2, 32
	addi	sp,sp,32
	.cfi_def_cfa_offset 0
	jr	ra
	.cfi_endproc
.LFE9:
	.size	_pending_task_clr, .-_pending_task_clr
	.section	.text._pending_task_is_set,"ax",@progbits
	.align	1
	.type	_pending_task_is_set, @function
_pending_task_is_set:
.LFB10:
	.loc 1 84 1
	.cfi_startproc
	addi	sp,sp,-32
	.cfi_def_cfa_offset 32
	sw	ra,28(sp)
	sw	s0,24(sp)
	.cfi_offset 1, -4
	.cfi_offset 8, -8
	addi	s0,sp,32
	.cfi_def_cfa 8, 0
	sw	a0,-20(s0)
	.loc 1 85 21
	lui	a5,%hi(wifiMgmr)
	addi	a4,a5,%lo(wifiMgmr)
	li	a5,4096
	add	a5,a4,a5
	lw	a4,2008(a5)
	.loc 1 85 35
	lw	a5,-20(s0)
	and	a5,a4,a5
	.loc 1 85 46
	snez	a5,a5
	andi	a5,a5,0xff
	.loc 1 86 1
	mv	a0,a5
	lw	ra,28(sp)
	.cfi_restore 1
	lw	s0,24(sp)
	.cfi_restore 8
	.cfi_def_cfa 2, 32
	addi	sp,sp,32
	.cfi_def_cfa_offset 0
	jr	ra
	.cfi_endproc
.LFE10:
	.size	_pending_task_is_set, .-_pending_task_is_set
	.section	.text._features_is_set,"ax",@progbits
	.align	1
	.type	_features_is_set, @function
_features_is_set:
.LFB11:
	.loc 1 89 1
	.cfi_startproc
	addi	sp,sp,-32
	.cfi_def_cfa_offset 32
	sw	ra,28(sp)
	sw	s0,24(sp)
	.cfi_offset 1, -4
	.cfi_offset 8, -8
	addi	s0,sp,32
	.cfi_def_cfa 8, 0
	sw	a0,-20(s0)
	.loc 1 90 21
	lui	a5,%hi(wifiMgmr)
	addi	a4,a5,%lo(wifiMgmr)
	li	a5,4096
	add	a5,a4,a5
	lw	a4,2012(a5)
	.loc 1 90 31
	lw	a5,-20(s0)
	and	a5,a4,a5
	.loc 1 90 42
	snez	a5,a5
	andi	a5,a5,0xff
	.loc 1 91 1
	mv	a0,a5
	lw	ra,28(sp)
	.cfi_restore 1
	lw	s0,24(sp)
	.cfi_restore 8
	.cfi_def_cfa 2, 32
	addi	sp,sp,32
	.cfi_def_cfa_offset 0
	jr	ra
	.cfi_endproc
.LFE11:
	.size	_features_is_set, .-_features_is_set
	.section	.rodata
	.align	2
.LC7:
	.string	"Open"
	.align	2
.LC8:
	.string	"WEP"
	.align	2
.LC9:
	.string	"WPA-PSK"
	.align	2
.LC10:
	.string	"WPA2-PSK"
	.align	2
.LC11:
	.string	"WPA2-PSK/WPA-PSK"
	.align	2
.LC12:
	.string	"WPA/WPA2-Enterprise"
	.align	2
.LC13:
	.string	"Unknown"
	.section	.text.wifi_mgmr_auth_to_str,"ax",@progbits
	.align	1
	.globl	wifi_mgmr_auth_to_str
	.type	wifi_mgmr_auth_to_str, @function
wifi_mgmr_auth_to_str:
.LFB12:
	.loc 1 94 1
	.cfi_startproc
	addi	sp,sp,-32
	.cfi_def_cfa_offset 32
	sw	ra,28(sp)
	sw	s0,24(sp)
	.cfi_offset 1, -4
	.cfi_offset 8, -8
	addi	s0,sp,32
	.cfi_def_cfa 8, 0
	mv	a5,a0
	sb	a5,-17(s0)
	.loc 1 95 5
	lbu	a5,-17(s0)
	li	a4,255
	beq	a5,a4,.L9
	li	a4,255
	bgt	a5,a4,.L10
	li	a4,5
	beq	a5,a4,.L11
	li	a4,5
	bgt	a5,a4,.L10
	li	a4,4
	beq	a5,a4,.L12
	li	a4,4
	bgt	a5,a4,.L10
	li	a4,3
	beq	a5,a4,.L13
	li	a4,3
	bgt	a5,a4,.L10
	li	a4,2
	beq	a5,a4,.L14
	li	a4,2
	bgt	a5,a4,.L10
	beq	a5,zero,.L15
	li	a4,1
	beq	a5,a4,.L16
	j	.L10
.L15:
	.loc 1 98 20
	lui	a5,%hi(.LC7)
	addi	a5,a5,%lo(.LC7)
	j	.L17
.L16:
	.loc 1 103 20
	lui	a5,%hi(.LC8)
	addi	a5,a5,%lo(.LC8)
	j	.L17
.L14:
	.loc 1 108 20
	lui	a5,%hi(.LC9)
	addi	a5,a5,%lo(.LC9)
	j	.L17
.L13:
	.loc 1 113 20
	lui	a5,%hi(.LC10)
	addi	a5,a5,%lo(.LC10)
	j	.L17
.L12:
	.loc 1 118 20
	lui	a5,%hi(.LC11)
	addi	a5,a5,%lo(.LC11)
	j	.L17
.L11:
	.loc 1 123 20
	lui	a5,%hi(.LC12)
	addi	a5,a5,%lo(.LC12)
	j	.L17
.L9:
	.loc 1 128 20
	lui	a5,%hi(.LC13)
	addi	a5,a5,%lo(.LC13)
	j	.L17
.L10:
	.loc 1 133 20
	lui	a5,%hi(.LC13)
	addi	a5,a5,%lo(.LC13)
.L17:
	.loc 1 136 1
	mv	a0,a5
	lw	ra,28(sp)
	.cfi_restore 1
	lw	s0,24(sp)
	.cfi_restore 8
	.cfi_def_cfa 2, 32
	addi	sp,sp,32
	.cfi_def_cfa_offset 0
	jr	ra
	.cfi_endproc
.LFE12:
	.size	wifi_mgmr_auth_to_str, .-wifi_mgmr_auth_to_str
	.section	.rodata
	.align	2
.LC14:
	.string	"NONE"
	.align	2
.LC15:
	.string	"AES"
	.align	2
.LC16:
	.string	"TKIP"
	.align	2
.LC17:
	.string	"TKIP/AES"
	.section	.text.wifi_mgmr_cipher_to_str,"ax",@progbits
	.align	1
	.globl	wifi_mgmr_cipher_to_str
	.type	wifi_mgmr_cipher_to_str, @function
wifi_mgmr_cipher_to_str:
.LFB13:
	.loc 1 139 1
	.cfi_startproc
	addi	sp,sp,-32
	.cfi_def_cfa_offset 32
	sw	ra,28(sp)
	sw	s0,24(sp)
	.cfi_offset 1, -4
	.cfi_offset 8, -8
	addi	s0,sp,32
	.cfi_def_cfa 8, 0
	mv	a5,a0
	sb	a5,-17(s0)
	.loc 1 140 8
	lbu	a5,-17(s0)
	bne	a5,zero,.L19
	.loc 1 141 16
	lui	a5,%hi(.LC14)
	addi	a5,a5,%lo(.LC14)
	j	.L20
.L19:
	.loc 1 142 15
	lbu	a4,-17(s0)
	li	a5,1
	bne	a4,a5,.L21
	.loc 1 143 16
	lui	a5,%hi(.LC8)
	addi	a5,a5,%lo(.LC8)
	j	.L20
.L21:
	.loc 1 144 15
	lbu	a4,-17(s0)
	li	a5,2
	bne	a4,a5,.L22
	.loc 1 145 16
	lui	a5,%hi(.LC15)
	addi	a5,a5,%lo(.LC15)
	j	.L20
.L22:
	.loc 1 146 15
	lbu	a4,-17(s0)
	li	a5,3
	bne	a4,a5,.L23
	.loc 1 147 16
	lui	a5,%hi(.LC16)
	addi	a5,a5,%lo(.LC16)
	j	.L20
.L23:
	.loc 1 148 15
	lbu	a4,-17(s0)
	li	a5,4
	bne	a4,a5,.L24
	.loc 1 149 16
	lui	a5,%hi(.LC17)
	addi	a5,a5,%lo(.LC17)
	j	.L20
.L24:
	.loc 1 151 16
	lui	a5,%hi(.LC13)
	addi	a5,a5,%lo(.LC13)
.L20:
	.loc 1 153 1
	mv	a0,a5
	lw	ra,28(sp)
	.cfi_restore 1
	lw	s0,24(sp)
	.cfi_restore 8
	.cfi_def_cfa 2, 32
	addi	sp,sp,32
	.cfi_def_cfa_offset 0
	jr	ra
	.cfi_endproc
.LFE13:
	.size	wifi_mgmr_cipher_to_str, .-wifi_mgmr_cipher_to_str
	.section	.text.stateGlobalGuard_scan_beacon,"ax",@progbits
	.align	1
	.type	stateGlobalGuard_scan_beacon, @function
stateGlobalGuard_scan_beacon:
.LFB14:
	.loc 1 156 1
	.cfi_startproc
	addi	sp,sp,-64
	.cfi_def_cfa_offset 64
	sw	ra,60(sp)
	sw	s0,56(sp)
	.cfi_offset 1, -4
	.cfi_offset 8, -8
	addi	s0,sp,64
	.cfi_def_cfa 8, 0
	sw	a0,-52(s0)
	sw	a1,-56(s0)
	.loc 1 159 12
	li	a5,-1
	sw	a5,-24(s0)
	.loc 1 159 24
	li	a5,-1
	sw	a5,-28(s0)
	.loc 1 160 14
	li	a5,-1
	sw	a5,-32(s0)
	.loc 1 161 14
	sw	zero,-40(s0)
	.loc 1 162 14
	sw	zero,-36(s0)
	.loc 1 166 9
	lw	a5,-56(s0)
	lw	a5,4(a5)
	sw	a5,-44(s0)
	.loc 1 167 10
	lw	a5,-44(s0)
	addi	a5,a5,13
	sw	a5,-48(s0)
	.loc 1 168 25
	lw	a5,-44(s0)
	lbu	a5,0(a5)
	.loc 1 168 15
	mv	a4,a5
	.loc 1 168 8
	lw	a5,-52(s0)
	beq	a5,a4,.L26
	.loc 1 169 16
	li	a5,0
	j	.L27
.L26:
	.loc 1 188 13
	lw	a5,-48(s0)
	lbu	a5,46(a5)
	mv	a3,a5
	.loc 1 188 33
	lui	a5,%hi(wifiMgmr)
	addi	a4,a5,%lo(wifiMgmr)
	li	a5,4096
	add	a5,a4,a5
	lw	a5,2004(a5)
	.loc 1 188 8
	bgt	a3,a5,.L45
	.loc 1 188 55 discriminator 1
	lw	a5,-48(s0)
	lbu	a5,46(a5)
	.loc 1 188 47 discriminator 1
	beq	a5,zero,.L45
	.loc 1 191 24
	lw	a5,-48(s0)
	lbu	a5,0(a5)
	.loc 1 191 8
	bne	a5,zero,.L31
	.loc 1 191 33 discriminator 1
	li	a0,1
	call	_features_is_set
	mv	a5,a0
	.loc 1 191 28 discriminator 2
	beq	a5,zero,.L46
.L31:
	.loc 1 196 15
	call	xTaskGetTickCount
	sw	a0,-40(s0)
	.loc 1 197 12
	sw	zero,-20(s0)
	.loc 1 197 5
	j	.L32
.L41:
	.loc 1 198 34
	lui	a5,%hi(wifiMgmr)
	addi	a3,a5,%lo(wifiMgmr)
	lw	a4,-20(s0)
	mv	a5,a4
	slli	a5,a5,4
	sub	a5,a5,a4
	slli	a5,a5,2
	add	a5,a3,a5
	lbu	a5,698(a5)
	mv	a3,a5
	.loc 1 198 53
	lui	a5,%hi(wifiMgmr)
	addi	a4,a5,%lo(wifiMgmr)
	li	a5,4096
	add	a5,a4,a5
	lw	a5,2004(a5)
	.loc 1 198 11
	ble	a3,a5,.L33
	.loc 1 199 20
	lw	a4,-20(s0)
	mv	a5,a4
	slli	a5,a5,4
	sub	a5,a5,a4
	slli	a5,a5,2
	addi	a4,a5,640
	lui	a5,%hi(wifiMgmr)
	addi	a5,a5,%lo(wifiMgmr)
	add	a5,a4,a5
	addi	a5,a5,12
	.loc 1 199 13
	li	a2,60
	li	a1,0
	mv	a0,a5
	call	memset
	.loc 1 200 44
	lui	a5,%hi(wifiMgmr)
	addi	a3,a5,%lo(wifiMgmr)
	lw	a4,-20(s0)
	mv	a5,a4
	slli	a5,a5,4
	sub	a5,a5,a4
	slli	a5,a5,2
	add	a5,a3,a5
	sb	zero,704(a5)
.L33:
	.loc 1 203 35
	lui	a5,%hi(wifiMgmr)
	addi	a3,a5,%lo(wifiMgmr)
	lw	a4,-20(s0)
	mv	a5,a4
	slli	a5,a5,4
	sub	a5,a5,a4
	slli	a5,a5,2
	add	a5,a3,a5
	lbu	a5,704(a5)
	.loc 1 203 12
	beq	a5,zero,.L34
	.loc 1 205 16
	lw	a5,-36(s0)
	beq	a5,zero,.L35
	.loc 1 206 49
	lui	a5,%hi(wifiMgmr)
	addi	a3,a5,%lo(wifiMgmr)
	lw	a4,-20(s0)
	mv	a5,a4
	slli	a5,a5,4
	sub	a5,a5,a4
	slli	a5,a5,2
	add	a5,a3,a5
	lw	a5,708(a5)
	.loc 1 206 18
	mv	a4,a5
	.loc 1 206 71
	lw	a5,-32(s0)
	.loc 1 206 69
	sub	a5,a4,a5
	.loc 1 205 39 discriminator 1
	bge	a5,zero,.L36
.L35:
	.loc 1 207 32
	li	a5,1
	sw	a5,-36(s0)
	.loc 1 208 26
	lui	a5,%hi(wifiMgmr)
	addi	a3,a5,%lo(wifiMgmr)
	lw	a4,-20(s0)
	mv	a5,a4
	slli	a5,a5,4
	sub	a5,a5,a4
	slli	a5,a5,2
	add	a5,a3,a5
	lw	a5,708(a5)
	sw	a5,-32(s0)
	.loc 1 209 24
	lw	a5,-20(s0)
	sw	a5,-28(s0)
.L36:
	.loc 1 213 51
	lw	a4,-20(s0)
	mv	a5,a4
	slli	a5,a5,4
	sub	a5,a5,a4
	slli	a5,a5,2
	addi	a4,a5,672
	lui	a5,%hi(wifiMgmr)
	addi	a5,a5,%lo(wifiMgmr)
	add	a5,a4,a5
	addi	a4,a5,20
	.loc 1 213 63
	lw	a5,-48(s0)
	addi	a5,a5,40
	.loc 1 213 22
	li	a2,6
	mv	a1,a5
	mv	a0,a4
	call	memcmp
	mv	a5,a0
	.loc 1 213 16 discriminator 1
	bne	a5,zero,.L37
	.loc 1 214 37
	lw	a3,-48(s0)
	.loc 1 214 67
	lw	a4,-20(s0)
	mv	a5,a4
	slli	a5,a5,4
	sub	a5,a5,a4
	slli	a5,a5,2
	addi	a4,a5,640
	lui	a5,%hi(wifiMgmr)
	addi	a5,a5,%lo(wifiMgmr)
	add	a5,a4,a5
	addi	a5,a5,12
	.loc 1 214 26
	mv	a1,a5
	mv	a0,a3
	call	strcmp
	mv	a5,a0
	.loc 1 213 93 discriminator 2
	bne	a5,zero,.L37
	.loc 1 217 26
	lw	a5,-48(s0)
	lb	a3,47(a5)
	.loc 1 217 57
	lui	a5,%hi(wifiMgmr)
	addi	a2,a5,%lo(wifiMgmr)
	lw	a4,-20(s0)
	mv	a5,a4
	slli	a5,a5,4
	sub	a5,a5,a4
	slli	a5,a5,2
	add	a5,a2,a5
	lb	a5,699(a5)
	.loc 1 217 20
	bge	a3,a5,.L38
	.loc 1 218 31
	call	xTaskGetTickCount
	mv	a5,a0
	.loc 1 218 22 discriminator 1
	mv	a2,a5
	.loc 1 218 84 discriminator 1
	lui	a5,%hi(wifiMgmr)
	addi	a3,a5,%lo(wifiMgmr)
	lw	a4,-20(s0)
	mv	a5,a4
	slli	a5,a5,4
	sub	a5,a5,a4
	slli	a5,a5,2
	add	a5,a3,a5
	lw	a5,708(a5)
	.loc 1 218 51 discriminator 1
	sub	a4,a2,a5
	.loc 1 217 64 discriminator 1
	li	a5,4096
	addi	a5,a5,-1097
	ble	a4,a5,.L44
.L38:
	.loc 1 224 58
	lw	a5,-48(s0)
	lbu	a3,46(a5)
	.loc 1 224 52
	lui	a5,%hi(wifiMgmr)
	addi	a2,a5,%lo(wifiMgmr)
	lw	a4,-20(s0)
	mv	a5,a4
	slli	a5,a5,4
	sub	a5,a5,a4
	slli	a5,a5,2
	add	a5,a2,a5
	sb	a3,698(a5)
	.loc 1 225 55
	lw	a5,-48(s0)
	lb	a3,47(a5)
	.loc 1 225 49
	lui	a5,%hi(wifiMgmr)
	addi	a2,a5,%lo(wifiMgmr)
	lw	a4,-20(s0)
	mv	a5,a4
	slli	a5,a5,4
	sub	a5,a5,a4
	slli	a5,a5,2
	add	a5,a2,a5
	sb	a3,699(a5)
	.loc 1 226 58
	lw	a5,-48(s0)
	lb	a3,48(a5)
	.loc 1 226 52
	lui	a5,%hi(wifiMgmr)
	addi	a2,a5,%lo(wifiMgmr)
	lw	a4,-20(s0)
	mv	a5,a4
	slli	a5,a5,4
	sub	a5,a5,a4
	slli	a5,a5,2
	add	a5,a2,a5
	sb	a3,700(a5)
	.loc 1 227 58
	lw	a5,-48(s0)
	lb	a3,49(a5)
	.loc 1 227 52
	lui	a5,%hi(wifiMgmr)
	addi	a2,a5,%lo(wifiMgmr)
	lw	a4,-20(s0)
	mv	a5,a4
	slli	a5,a5,4
	sub	a5,a5,a4
	slli	a5,a5,2
	add	a5,a2,a5
	sb	a3,701(a5)
	.loc 1 228 63
	lui	a5,%hi(wifiMgmr)
	addi	a3,a5,%lo(wifiMgmr)
	lw	a4,-20(s0)
	mv	a5,a4
	slli	a5,a5,4
	sub	a5,a5,a4
	slli	a5,a5,2
	add	a5,a3,a5
	lw	a4,-40(s0)
	sw	a4,708(a5)
	.loc 1 229 55
	lw	a5,-48(s0)
	lbu	a3,50(a5)
	.loc 1 229 49
	lui	a5,%hi(wifiMgmr)
	addi	a2,a5,%lo(wifiMgmr)
	lw	a4,-20(s0)
	mv	a5,a4
	slli	a5,a5,4
	sub	a5,a5,a4
	slli	a5,a5,2
	add	a5,a2,a5
	sb	a3,702(a5)
	.loc 1 230 57
	lw	a5,-48(s0)
	lbu	a3,51(a5)
	.loc 1 230 51
	lui	a5,%hi(wifiMgmr)
	addi	a2,a5,%lo(wifiMgmr)
	lw	a4,-20(s0)
	mv	a5,a4
	slli	a5,a5,4
	sub	a5,a5,a4
	slli	a5,a5,2
	add	a5,a2,a5
	sb	a3,703(a5)
	.loc 1 232 17
	j	.L40
.L44:
	j	.L40
.L34:
	.loc 1 235 19
	lw	a5,-20(s0)
	sw	a5,-24(s0)
.L37:
	.loc 1 197 82 discriminator 2
	lw	a5,-20(s0)
	addi	a5,a5,1
	sw	a5,-20(s0)
.L32:
	.loc 1 197 19 discriminator 1
	lw	a4,-20(s0)
	li	a5,49
	bleu	a4,a5,.L41
.L40:
	.loc 1 238 8
	lw	a4,-20(s0)
	li	a5,50
	bne	a4,a5,.L47
	.loc 1 240 35
	lw	a4,-24(s0)
	li	a5,-1
	beq	a4,a5,.L42
	.loc 1 240 11 discriminator 1
	lw	a5,-24(s0)
	sw	a5,-20(s0)
	j	.L43
.L42:
	.loc 1 240 11 is_stmt 0 discriminator 2
	lw	a5,-28(s0)
	sw	a5,-20(s0)
.L43:
	.loc 1 241 12 is_stmt 1
	lw	a4,-20(s0)
	li	a5,-1
	beq	a4,a5,.L47
	.loc 1 242 20
	lw	a4,-20(s0)
	mv	a5,a4
	slli	a5,a5,4
	sub	a5,a5,a4
	slli	a5,a5,2
	addi	a4,a5,640
	lui	a5,%hi(wifiMgmr)
	addi	a5,a5,%lo(wifiMgmr)
	add	a5,a4,a5
	addi	a5,a5,12
	.loc 1 242 13
	li	a2,60
	li	a1,0
	mv	a0,a5
	call	memset
	.loc 1 243 43
	lw	a4,-20(s0)
	mv	a5,a4
	slli	a5,a5,4
	sub	a5,a5,a4
	slli	a5,a5,2
	addi	a4,a5,640
	lui	a5,%hi(wifiMgmr)
	addi	a5,a5,%lo(wifiMgmr)
	add	a5,a4,a5
	addi	a5,a5,12
	.loc 1 243 54
	lw	a4,-48(s0)
	.loc 1 243 13
	li	a2,32
	mv	a1,a4
	mv	a0,a5
	call	strncpy
	.loc 1 244 49
	lui	a5,%hi(wifiMgmr)
	addi	a3,a5,%lo(wifiMgmr)
	lw	a4,-20(s0)
	mv	a5,a4
	slli	a5,a5,4
	sub	a5,a5,a4
	slli	a5,a5,2
	add	a5,a3,a5
	sb	zero,684(a5)
	.loc 1 245 76
	lw	a4,-20(s0)
	mv	a5,a4
	slli	a5,a5,4
	sub	a5,a5,a4
	slli	a5,a5,2
	addi	a4,a5,640
	lui	a5,%hi(wifiMgmr)
	addi	a5,a5,%lo(wifiMgmr)
	add	a5,a4,a5
	addi	a5,a5,12
	.loc 1 245 47
	mv	a0,a5
	call	strlen
	mv	a2,a0
	.loc 1 245 45 discriminator 1
	lui	a5,%hi(wifiMgmr)
	addi	a3,a5,%lo(wifiMgmr)
	lw	a4,-20(s0)
	mv	a5,a4
	slli	a5,a5,4
	sub	a5,a5,a4
	slli	a5,a5,2
	add	a5,a3,a5
	sw	a2,688(a5)
	.loc 1 246 42
	lw	a4,-20(s0)
	mv	a5,a4
	slli	a5,a5,4
	sub	a5,a5,a4
	slli	a5,a5,2
	addi	a4,a5,672
	lui	a5,%hi(wifiMgmr)
	addi	a5,a5,%lo(wifiMgmr)
	add	a5,a4,a5
	addi	a4,a5,20
	.loc 1 246 54
	lw	a5,-48(s0)
	addi	a5,a5,40
	.loc 1 246 13
	li	a2,6
	mv	a1,a5
	mv	a0,a4
	call	memcpy
	.loc 1 247 50
	lw	a5,-48(s0)
	lbu	a3,46(a5)
	.loc 1 247 44
	lui	a5,%hi(wifiMgmr)
	addi	a2,a5,%lo(wifiMgmr)
	lw	a4,-20(s0)
	mv	a5,a4
	slli	a5,a5,4
	sub	a5,a5,a4
	slli	a5,a5,2
	add	a5,a2,a5
	sb	a3,698(a5)
	.loc 1 248 47
	lw	a5,-48(s0)
	lb	a3,47(a5)
	.loc 1 248 41
	lui	a5,%hi(wifiMgmr)
	addi	a2,a5,%lo(wifiMgmr)
	lw	a4,-20(s0)
	mv	a5,a4
	slli	a5,a5,4
	sub	a5,a5,a4
	slli	a5,a5,2
	add	a5,a2,a5
	sb	a3,699(a5)
	.loc 1 249 55
	lui	a5,%hi(wifiMgmr)
	addi	a3,a5,%lo(wifiMgmr)
	lw	a4,-20(s0)
	mv	a5,a4
	slli	a5,a5,4
	sub	a5,a5,a4
	slli	a5,a5,2
	add	a5,a3,a5
	lw	a4,-40(s0)
	sw	a4,708(a5)
	.loc 1 250 47
	lw	a5,-48(s0)
	lbu	a3,50(a5)
	.loc 1 250 41
	lui	a5,%hi(wifiMgmr)
	addi	a2,a5,%lo(wifiMgmr)
	lw	a4,-20(s0)
	mv	a5,a4
	slli	a5,a5,4
	sub	a5,a5,a4
	slli	a5,a5,2
	add	a5,a2,a5
	sb	a3,702(a5)
	.loc 1 251 49
	lw	a5,-48(s0)
	lbu	a3,51(a5)
	.loc 1 251 43
	lui	a5,%hi(wifiMgmr)
	addi	a2,a5,%lo(wifiMgmr)
	lw	a4,-20(s0)
	mv	a5,a4
	slli	a5,a5,4
	sub	a5,a5,a4
	slli	a5,a5,2
	add	a5,a2,a5
	sb	a3,703(a5)
	.loc 1 252 44
	lui	a5,%hi(wifiMgmr)
	addi	a3,a5,%lo(wifiMgmr)
	lw	a4,-20(s0)
	mv	a5,a4
	slli	a5,a5,4
	sub	a5,a5,a4
	slli	a5,a5,2
	add	a5,a3,a5
	li	a4,1
	sb	a4,704(a5)
	j	.L30
.L45:
	.loc 1 189 9
	nop
	j	.L30
.L46:
	.loc 1 192 9
	nop
	j	.L30
.L47:
	.loc 1 256 1
	nop
.L30:
	.loc 1 259 12
	li	a5,0
.L27:
	.loc 1 260 1
	mv	a0,a5
	lw	ra,60(sp)
	.cfi_restore 1
	lw	s0,56(sp)
	.cfi_restore 8
	.cfi_def_cfa 2, 64
	addi	sp,sp,64
	.cfi_def_cfa_offset 0
	jr	ra
	.cfi_endproc
.LFE14:
	.size	stateGlobalGuard_scan_beacon, .-stateGlobalGuard_scan_beacon
	.section	.rodata
	.align	2
.LC18:
	.string	"Disable Autoreconnect in Disconnec State\r\n"
	.align	2
.LC19:
	.string	"[WF][SM] Removing STA interface...\r\n"
	.align	2
.LC20:
	.string	"Disable Auto Reconnect\r\n"
	.section	.text.stateGlobalGuard_disable_autoreconnect,"ax",@progbits
	.align	1
	.type	stateGlobalGuard_disable_autoreconnect, @function
stateGlobalGuard_disable_autoreconnect:
.LFB15:
	.loc 1 263 1
	.cfi_startproc
	addi	sp,sp,-48
	.cfi_def_cfa_offset 48
	sw	ra,44(sp)
	sw	s0,40(sp)
	.cfi_offset 1, -4
	.cfi_offset 8, -8
	addi	s0,sp,48
	.cfi_def_cfa 8, 0
	sw	a0,-36(s0)
	sw	a1,-40(s0)
	.loc 1 266 9
	lw	a5,-40(s0)
	lw	a5,4(a5)
	sw	a5,-20(s0)
	.loc 1 267 25
	lw	a5,-20(s0)
	lbu	a5,0(a5)
	.loc 1 267 15
	mv	a4,a5
	.loc 1 267 8
	lw	a5,-36(s0)
	beq	a5,a4,.L49
	.loc 1 268 16
	li	a5,0
	j	.L50
.L49:
	.loc 1 271 39
	lui	a5,%hi(wifiMgmr)
	addi	a4,a5,%lo(wifiMgmr)
	li	a5,4096
	add	a5,a4,a5
	lw	a4,1832(a5)
	.loc 1 271 8
	lui	a5,%hi(stateDisconnect)
	addi	a5,a5,%lo(stateDisconnect)
	bne	a4,a5,.L51
	.loc 1 272 9
	lui	a5,%hi(.LC18)
	addi	a0,a5,%lo(.LC18)
	call	printf
	.loc 1 273 9
	lui	a5,%hi(.LC19)
	addi	a0,a5,%lo(.LC19)
	call	printf
	.loc 1 274 9
	lui	a5,%hi(wifiMgmr)
	addi	a5,a5,%lo(wifiMgmr)
	lbu	a5,16(a5)
	mv	a0,a5
	call	bl_main_if_remove
	.loc 1 275 16
	li	a5,1
	j	.L50
.L51:
	.loc 1 278 5
	lui	a5,%hi(.LC20)
	addi	a0,a5,%lo(.LC20)
	call	printf
	.loc 1 279 5
	li	a1,-1
	lui	a5,%hi(wifiMgmr)
	addi	a0,a5,%lo(wifiMgmr)
	call	wifi_mgmr_profile_autoreconnect_disable
	.loc 1 282 12
	li	a5,0
.L50:
	.loc 1 283 1
	mv	a0,a5
	lw	ra,44(sp)
	.cfi_restore 1
	lw	s0,40(sp)
	.cfi_restore 8
	.cfi_def_cfa 2, 48
	addi	sp,sp,48
	.cfi_def_cfa_offset 0
	jr	ra
	.cfi_endproc
.LFE15:
	.size	stateGlobalGuard_disable_autoreconnect, .-stateGlobalGuard_disable_autoreconnect
	.section	.rodata
	.align	2
.LC21:
	.string	"Enable Auto Reconnect\r\n"
	.section	.text.stateGlobalGuard_enable_autoreconnect,"ax",@progbits
	.align	1
	.type	stateGlobalGuard_enable_autoreconnect, @function
stateGlobalGuard_enable_autoreconnect:
.LFB16:
	.loc 1 286 1
	.cfi_startproc
	addi	sp,sp,-48
	.cfi_def_cfa_offset 48
	sw	ra,44(sp)
	sw	s0,40(sp)
	.cfi_offset 1, -4
	.cfi_offset 8, -8
	addi	s0,sp,48
	.cfi_def_cfa 8, 0
	sw	a0,-36(s0)
	sw	a1,-40(s0)
	.loc 1 289 9
	lw	a5,-40(s0)
	lw	a5,4(a5)
	sw	a5,-20(s0)
	.loc 1 290 25
	lw	a5,-20(s0)
	lbu	a5,0(a5)
	.loc 1 290 15
	mv	a4,a5
	.loc 1 290 8
	lw	a5,-36(s0)
	beq	a5,a4,.L53
	.loc 1 291 16
	li	a5,0
	j	.L54
.L53:
	.loc 1 295 5
	lui	a5,%hi(.LC21)
	addi	a0,a5,%lo(.LC21)
	call	printf
	.loc 1 296 5
	li	a1,-1
	lui	a5,%hi(wifiMgmr)
	addi	a0,a5,%lo(wifiMgmr)
	call	wifi_mgmr_profile_autoreconnect_enable
	.loc 1 299 12
	li	a5,0
.L54:
	.loc 1 300 1
	mv	a0,a5
	lw	ra,44(sp)
	.cfi_restore 1
	lw	s0,40(sp)
	.cfi_restore 8
	.cfi_def_cfa 2, 48
	addi	sp,sp,48
	.cfi_def_cfa_offset 0
	jr	ra
	.cfi_endproc
.LFE16:
	.size	stateGlobalGuard_enable_autoreconnect, .-stateGlobalGuard_enable_autoreconnect
	.section	.rodata
	.align	2
.LC22:
	.string	"Disconnect CMD\r\n"
	.section	.text.stateGlobalGuard_fw_disconnect,"ax",@progbits
	.align	1
	.type	stateGlobalGuard_fw_disconnect, @function
stateGlobalGuard_fw_disconnect:
.LFB17:
	.loc 1 303 1
	.cfi_startproc
	addi	sp,sp,-48
	.cfi_def_cfa_offset 48
	sw	ra,44(sp)
	sw	s0,40(sp)
	.cfi_offset 1, -4
	.cfi_offset 8, -8
	addi	s0,sp,48
	.cfi_def_cfa 8, 0
	sw	a0,-36(s0)
	sw	a1,-40(s0)
	.loc 1 306 9
	lw	a5,-40(s0)
	lw	a5,4(a5)
	sw	a5,-20(s0)
	.loc 1 307 45
	lw	a5,-20(s0)
	lbu	a4,0(a5)
	.loc 1 307 8
	li	a5,15
	bne	a4,a5,.L56
	.loc 1 308 9
	lui	a5,%hi(.LC22)
	addi	a0,a5,%lo(.LC22)
	call	printf
	.loc 1 309 9
	call	bl_main_disconnect
.L56:
	.loc 1 312 12
	li	a5,0
	.loc 1 313 1
	mv	a0,a5
	lw	ra,44(sp)
	.cfi_restore 1
	lw	s0,40(sp)
	.cfi_restore 8
	.cfi_def_cfa 2, 48
	addi	sp,sp,48
	.cfi_def_cfa_offset 0
	jr	ra
	.cfi_endproc
.LFE17:
	.size	stateGlobalGuard_fw_disconnect, .-stateGlobalGuard_fw_disconnect
	.section	.rodata
	.align	2
.LC23:
	.string	"------>>>>>> Powersaving CMD, mode: %u\r\n"
	.section	.text.stateGlobalGuard_fw_powersaving,"ax",@progbits
	.align	1
	.type	stateGlobalGuard_fw_powersaving, @function
stateGlobalGuard_fw_powersaving:
.LFB18:
	.loc 1 316 1
	.cfi_startproc
	addi	sp,sp,-48
	.cfi_def_cfa_offset 48
	sw	ra,44(sp)
	sw	s0,40(sp)
	.cfi_offset 1, -4
	.cfi_offset 8, -8
	addi	s0,sp,48
	.cfi_def_cfa 8, 0
	sw	a0,-36(s0)
	sw	a1,-40(s0)
	.loc 1 319 9
	lw	a5,-40(s0)
	lw	a5,4(a5)
	sw	a5,-20(s0)
	.loc 1 320 46
	lw	a5,-20(s0)
	lbu	a4,0(a5)
	.loc 1 320 8
	li	a5,16
	bne	a4,a5,.L59
	.loc 1 321 79
	lw	a5,-20(s0)
	lbu	a4,1(a5)
	lbu	a3,2(a5)
	slli	a3,a3,8
	or	a4,a3,a4
	lbu	a3,3(a5)
	slli	a3,a3,16
	or	a4,a3,a4
	lbu	a5,4(a5)
	slli	a5,a5,24
	or	a5,a5,a4
	.loc 1 321 9
	mv	a1,a5
	lui	a5,%hi(.LC23)
	addi	a0,a5,%lo(.LC23)
	call	printf
	.loc 1 323 37
	lw	a5,-20(s0)
	lbu	a4,1(a5)
	lbu	a3,2(a5)
	slli	a3,a3,8
	or	a4,a3,a4
	lbu	a3,3(a5)
	slli	a3,a3,16
	or	a4,a3,a4
	lbu	a5,4(a5)
	slli	a5,a5,24
	or	a5,a5,a4
	.loc 1 323 9
	mv	a0,a5
	call	bl_main_powersaving
.L59:
	.loc 1 326 12
	li	a5,0
	.loc 1 327 1
	mv	a0,a5
	lw	ra,44(sp)
	.cfi_restore 1
	lw	s0,40(sp)
	.cfi_restore 8
	.cfi_def_cfa 2, 48
	addi	sp,sp,48
	.cfi_def_cfa_offset 0
	jr	ra
	.cfi_endproc
.LFE18:
	.size	stateGlobalGuard_fw_powersaving, .-stateGlobalGuard_fw_powersaving
	.section	.rodata
	.align	2
.LC24:
	.string	"------>>>>>> Scan CMD Pending\r\n"
	.align	2
.LC25:
	.string	"------>>>>>> FW busy\r\n"
	.align	2
.LC26:
	.string	"------>>>>>> Scan CMD\r\n"
	.section	.text.stateGlobalGuard_fw_scan,"ax",@progbits
	.align	1
	.type	stateGlobalGuard_fw_scan, @function
stateGlobalGuard_fw_scan:
.LFB19:
	.loc 1 330 1
	.cfi_startproc
	addi	sp,sp,-48
	.cfi_def_cfa_offset 48
	sw	ra,44(sp)
	sw	s0,40(sp)
	.cfi_offset 1, -4
	.cfi_offset 8, -8
	addi	s0,sp,48
	.cfi_def_cfa 8, 0
	sw	a0,-36(s0)
	sw	a1,-40(s0)
	.loc 1 333 9
	lw	a5,-40(s0)
	lw	a5,4(a5)
	sw	a5,-20(s0)
	.loc 1 335 39
	lw	a5,-20(s0)
	lbu	a4,0(a5)
	.loc 1 335 8
	li	a5,18
	beq	a4,a5,.L62
	.loc 1 336 16
	li	a5,0
	j	.L63
.L62:
	.loc 1 340 39
	lui	a5,%hi(wifiMgmr)
	addi	a4,a5,%lo(wifiMgmr)
	li	a5,4096
	add	a5,a4,a5
	lw	a4,1832(a5)
	.loc 1 340 8
	lui	a5,%hi(stateConnecting)
	addi	a5,a5,%lo(stateConnecting)
	beq	a4,a5,.L64
	.loc 1 341 46
	lui	a5,%hi(wifiMgmr)
	addi	a4,a5,%lo(wifiMgmr)
	li	a5,4096
	add	a5,a4,a5
	lw	a4,1832(a5)
	.loc 1 340 53 discriminator 1
	lui	a5,%hi(stateConnectedIPNo)
	addi	a5,a5,%lo(stateConnectedIPNo)
	beq	a4,a5,.L64
	.loc 1 342 43
	lui	a5,%hi(wifiMgmr)
	addi	a4,a5,%lo(wifiMgmr)
	li	a5,4096
	add	a5,a4,a5
	lw	a4,1832(a5)
	.loc 1 341 60
	lui	a5,%hi(stateDisconnect)
	addi	a5,a5,%lo(stateDisconnect)
	bne	a4,a5,.L65
.L64:
	.loc 1 343 13
	lui	a5,%hi(.LC24)
	addi	a0,a5,%lo(.LC24)
	call	printf
	.loc 1 344 13
	li	a0,1
	call	_pending_task_set
	.loc 1 345 20
	li	a5,0
	j	.L63
.L65:
	.loc 1 349 33
	lui	a5,%hi(wifiMgmr)
	addi	a4,a5,%lo(wifiMgmr)
	li	a5,4096
	add	a5,a4,a5
	lw	a4,1832(a5)
	.loc 1 349 8
	lui	a5,%hi(stateIdle)
	addi	a5,a5,%lo(stateIdle)
	beq	a4,a5,.L66
	.loc 1 350 47
	lui	a5,%hi(wifiMgmr)
	addi	a4,a5,%lo(wifiMgmr)
	li	a5,4096
	add	a5,a4,a5
	lw	a4,1832(a5)
	.loc 1 349 47 discriminator 1
	lui	a5,%hi(stateConnectedIPYes)
	addi	a5,a5,%lo(stateConnectedIPYes)
	beq	a4,a5,.L66
	.loc 1 351 40
	lui	a5,%hi(wifiMgmr)
	addi	a4,a5,%lo(wifiMgmr)
	li	a5,4096
	add	a5,a4,a5
	lw	a4,1832(a5)
	.loc 1 350 61
	lui	a5,%hi(stateSniffer)
	addi	a5,a5,%lo(stateSniffer)
	beq	a4,a5,.L66
	.loc 1 352 13
	lui	a5,%hi(.LC25)
	addi	a0,a5,%lo(.LC25)
	call	printf
	.loc 1 353 13
	li	a2,1
	li	a1,9
	li	a0,2
	call	aos_post_event
	.loc 1 354 20
	li	a5,0
	j	.L63
.L66:
	.loc 1 358 5
	lui	a5,%hi(.LC26)
	addi	a0,a5,%lo(.LC26)
	call	printf
	.loc 1 359 5
	call	bl_main_scan
	.loc 1 361 12
	li	a5,0
.L63:
	.loc 1 362 1
	mv	a0,a5
	lw	ra,44(sp)
	.cfi_restore 1
	lw	s0,40(sp)
	.cfi_restore 8
	.cfi_def_cfa 2, 48
	addi	sp,sp,48
	.cfi_def_cfa_offset 0
	jr	ra
	.cfi_endproc
.LFE19:
	.size	stateGlobalGuard_fw_scan, .-stateGlobalGuard_fw_scan
	.section	.rodata
	.align	2
.LC27:
	.string	"[WF][SM] Global Action\r\n"
	.section	.text.stateGlobalAction,"ax",@progbits
	.align	1
	.type	stateGlobalAction, @function
stateGlobalAction:
.LFB20:
	.loc 1 366 1
	.cfi_startproc
	addi	sp,sp,-32
	.cfi_def_cfa_offset 32
	sw	ra,28(sp)
	sw	s0,24(sp)
	.cfi_offset 1, -4
	.cfi_offset 8, -8
	addi	s0,sp,32
	.cfi_def_cfa 8, 0
	sw	a0,-20(s0)
	sw	a1,-24(s0)
	sw	a2,-28(s0)
	.loc 1 367 5
	lui	a5,%hi(.LC27)
	addi	a0,a5,%lo(.LC27)
	call	printf
	.loc 1 368 1
	nop
	lw	ra,28(sp)
	.cfi_restore 1
	lw	s0,24(sp)
	.cfi_restore 8
	.cfi_def_cfa 2, 32
	addi	sp,sp,32
	.cfi_def_cfa_offset 0
	jr	ra
	.cfi_endproc
.LFE20:
	.size	stateGlobalAction, .-stateGlobalAction
	.section	.rodata
	.align	2
.LC28:
	.string	"[WF][SM] Entering %s state\r\n"
	.section	.text.stateGlobalEnter,"ax",@progbits
	.align	1
	.type	stateGlobalEnter, @function
stateGlobalEnter:
.LFB21:
	.loc 1 371 1
	.cfi_startproc
	addi	sp,sp,-32
	.cfi_def_cfa_offset 32
	sw	ra,28(sp)
	sw	s0,24(sp)
	.cfi_offset 1, -4
	.cfi_offset 8, -8
	addi	s0,sp,32
	.cfi_def_cfa 8, 0
	sw	a0,-20(s0)
	sw	a1,-24(s0)
	.loc 1 372 4
	lw	a1,-20(s0)
	lui	a5,%hi(.LC28)
	addi	a0,a5,%lo(.LC28)
	call	printf
	.loc 1 373 1
	nop
	lw	ra,28(sp)
	.cfi_restore 1
	lw	s0,24(sp)
	.cfi_restore 8
	.cfi_def_cfa 2, 32
	addi	sp,sp,32
	.cfi_def_cfa_offset 0
	jr	ra
	.cfi_endproc
.LFE21:
	.size	stateGlobalEnter, .-stateGlobalEnter
	.section	.text.stateGlobalExit,"ax",@progbits
	.align	1
	.type	stateGlobalExit, @function
stateGlobalExit:
.LFB22:
	.loc 1 376 1
	.cfi_startproc
	addi	sp,sp,-32
	.cfi_def_cfa_offset 32
	sw	ra,28(sp)
	sw	s0,24(sp)
	.cfi_offset 1, -4
	.cfi_offset 8, -8
	addi	s0,sp,32
	.cfi_def_cfa 8, 0
	sw	a0,-20(s0)
	sw	a1,-24(s0)
	.loc 1 377 4
	lw	a1,-20(s0)
	lui	a5,%hi(.LC28)
	addi	a0,a5,%lo(.LC28)
	call	printf
	.loc 1 378 1
	nop
	lw	ra,28(sp)
	.cfi_restore 1
	lw	s0,24(sp)
	.cfi_restore 8
	.cfi_def_cfa 2, 32
	addi	sp,sp,32
	.cfi_def_cfa_offset 0
	jr	ra
	.cfi_endproc
.LFE22:
	.size	stateGlobalExit, .-stateGlobalExit
	.section	.text.stateSnifferGuard,"ax",@progbits
	.align	1
	.type	stateSnifferGuard, @function
stateSnifferGuard:
.LFB23:
	.loc 1 382 1
	.cfi_startproc
	addi	sp,sp,-48
	.cfi_def_cfa_offset 48
	sw	ra,44(sp)
	sw	s0,40(sp)
	.cfi_offset 1, -4
	.cfi_offset 8, -8
	addi	s0,sp,48
	.cfi_def_cfa 8, 0
	sw	a0,-36(s0)
	sw	a1,-40(s0)
	.loc 1 385 9
	lw	a5,-40(s0)
	lw	a5,4(a5)
	sw	a5,-20(s0)
	.loc 1 386 25
	lw	a5,-20(s0)
	lbu	a5,0(a5)
	.loc 1 386 15
	mv	a4,a5
	.loc 1 386 8
	lw	a5,-36(s0)
	bne	a5,a4,.L71
	.loc 1 387 16
	li	a5,1
	j	.L72
.L71:
	.loc 1 389 12
	li	a5,0
.L72:
	.loc 1 390 1
	mv	a0,a5
	lw	ra,44(sp)
	.cfi_restore 1
	lw	s0,40(sp)
	.cfi_restore 8
	.cfi_def_cfa 2, 48
	addi	sp,sp,48
	.cfi_def_cfa_offset 0
	jr	ra
	.cfi_endproc
.LFE23:
	.size	stateSnifferGuard, .-stateSnifferGuard
	.section	.rodata
	.align	2
.LC29:
	.string	"[WF][SM] State Action ###%s### --->>> ###%s###\r\n"
	.section	.text.stateSnifferAction,"ax",@progbits
	.align	1
	.type	stateSnifferAction, @function
stateSnifferAction:
.LFB24:
	.loc 1 394 1
	.cfi_startproc
	addi	sp,sp,-32
	.cfi_def_cfa_offset 32
	sw	ra,28(sp)
	sw	s0,24(sp)
	.cfi_offset 1, -4
	.cfi_offset 8, -8
	addi	s0,sp,32
	.cfi_def_cfa 8, 0
	sw	a0,-20(s0)
	sw	a1,-24(s0)
	sw	a2,-28(s0)
	.loc 1 395 5
	lw	a2,-28(s0)
	lw	a1,-20(s0)
	lui	a5,%hi(.LC29)
	addi	a0,a5,%lo(.LC29)
	call	printf
	.loc 1 399 1
	nop
	lw	ra,28(sp)
	.cfi_restore 1
	lw	s0,24(sp)
	.cfi_restore 8
	.cfi_def_cfa 2, 32
	addi	sp,sp,32
	.cfi_def_cfa_offset 0
	jr	ra
	.cfi_endproc
.LFE24:
	.size	stateSnifferAction, .-stateSnifferAction
	.section	.text.stateSnifferGuard_ChannelSet,"ax",@progbits
	.align	1
	.type	stateSnifferGuard_ChannelSet, @function
stateSnifferGuard_ChannelSet:
.LFB25:
	.loc 1 402 1
	.cfi_startproc
	addi	sp,sp,-48
	.cfi_def_cfa_offset 48
	sw	ra,44(sp)
	sw	s0,40(sp)
	.cfi_offset 1, -4
	.cfi_offset 8, -8
	addi	s0,sp,48
	.cfi_def_cfa 8, 0
	sw	a0,-36(s0)
	sw	a1,-40(s0)
	.loc 1 405 9
	lw	a5,-40(s0)
	lw	a5,4(a5)
	sw	a5,-20(s0)
	.loc 1 406 25
	lw	a5,-20(s0)
	lbu	a5,0(a5)
	.loc 1 406 15
	mv	a4,a5
	.loc 1 406 8
	lw	a5,-36(s0)
	beq	a5,a4,.L75
	.loc 1 407 16
	li	a5,0
	j	.L76
.L75:
	.loc 1 410 41
	lw	a5,-20(s0)
	lbu	a4,1(a5)
	lbu	a3,2(a5)
	slli	a3,a3,8
	or	a4,a3,a4
	lbu	a3,3(a5)
	slli	a3,a3,16
	or	a4,a3,a4
	lbu	a5,4(a5)
	slli	a5,a5,24
	or	a5,a5,a4
	.loc 1 410 5
	mv	a2,a5
	.loc 1 410 58
	lw	a5,-20(s0)
	lbu	a4,5(a5)
	lbu	a3,6(a5)
	slli	a3,a3,8
	or	a4,a3,a4
	lbu	a3,7(a5)
	slli	a3,a3,16
	or	a4,a3,a4
	lbu	a5,8(a5)
	slli	a5,a5,24
	or	a5,a5,a4
	.loc 1 410 5
	mv	a1,a5
	mv	a0,a2
	call	bl_main_monitor_channel_set
	.loc 1 412 12
	li	a5,0
.L76:
	.loc 1 413 1
	mv	a0,a5
	lw	ra,44(sp)
	.cfi_restore 1
	lw	s0,40(sp)
	.cfi_restore 8
	.cfi_def_cfa 2, 48
	addi	sp,sp,48
	.cfi_def_cfa_offset 0
	jr	ra
	.cfi_endproc
.LFE25:
	.size	stateSnifferGuard_ChannelSet, .-stateSnifferGuard_ChannelSet
	.section	.text.stateSnifferGuard_raw_send,"ax",@progbits
	.align	1
	.type	stateSnifferGuard_raw_send, @function
stateSnifferGuard_raw_send:
.LFB26:
	.loc 1 416 1
	.cfi_startproc
	addi	sp,sp,-48
	.cfi_def_cfa_offset 48
	sw	ra,44(sp)
	sw	s0,40(sp)
	.cfi_offset 1, -4
	.cfi_offset 8, -8
	addi	s0,sp,48
	.cfi_def_cfa 8, 0
	sw	a0,-36(s0)
	sw	a1,-40(s0)
	.loc 1 421 35
	lui	a5,%hi(wifiMgmr)
	addi	a4,a5,%lo(wifiMgmr)
	li	a5,4096
	add	a5,a4,a5
	lw	a4,1832(a5)
	.loc 1 421 8
	lui	a5,%hi(stateIdle)
	addi	a5,a5,%lo(stateIdle)
	beq	a4,a5,.L78
	.loc 1 421 83 discriminator 1
	lui	a5,%hi(wifiMgmr)
	addi	a4,a5,%lo(wifiMgmr)
	li	a5,4096
	add	a5,a4,a5
	lw	a4,1832(a5)
	.loc 1 421 49 discriminator 1
	lui	a5,%hi(stateIfaceDown)
	addi	a5,a5,%lo(stateIfaceDown)
	bne	a4,a5,.L79
.L78:
	.loc 1 423 16
	li	a5,0
	j	.L80
.L79:
	.loc 1 426 9
	lw	a5,-40(s0)
	lw	a5,4(a5)
	sw	a5,-20(s0)
	.loc 1 427 48
	lw	a5,-20(s0)
	lbu	a4,0(a5)
	.loc 1 427 8
	li	a5,21
	bne	a4,a5,.L81
	.loc 1 428 13
	lw	a5,-20(s0)
	lbu	a4,1(a5)
	lbu	a3,2(a5)
	slli	a3,a3,8
	or	a4,a3,a4
	lbu	a3,3(a5)
	slli	a3,a3,16
	or	a4,a3,a4
	lbu	a5,4(a5)
	slli	a5,a5,24
	or	a5,a5,a4
	sw	a5,-24(s0)
	.loc 1 429 23
	lw	a5,-20(s0)
	lbu	a4,5(a5)
	lbu	a3,6(a5)
	slli	a3,a3,8
	or	a4,a3,a4
	lbu	a3,7(a5)
	slli	a3,a3,16
	or	a4,a3,a4
	lbu	a5,8(a5)
	slli	a5,a5,24
	or	a5,a5,a4
	.loc 1 429 13
	sw	a5,-28(s0)
	.loc 1 431 9
	lw	a1,-28(s0)
	lw	a0,-24(s0)
	call	bl_main_raw_send
.L81:
	.loc 1 434 12
	li	a5,0
.L80:
	.loc 1 435 1
	mv	a0,a5
	lw	ra,44(sp)
	.cfi_restore 1
	lw	s0,40(sp)
	.cfi_restore 8
	.cfi_def_cfa 2, 48
	addi	sp,sp,48
	.cfi_def_cfa_offset 0
	jr	ra
	.cfi_endproc
.LFE26:
	.size	stateSnifferGuard_raw_send, .-stateSnifferGuard_raw_send
	.section	.text.stateGlobal_cfg_req,"ax",@progbits
	.align	1
	.type	stateGlobal_cfg_req, @function
stateGlobal_cfg_req:
.LFB27:
	.loc 1 438 1
	.cfi_startproc
	addi	sp,sp,-48
	.cfi_def_cfa_offset 48
	sw	ra,44(sp)
	sw	s0,40(sp)
	.cfi_offset 1, -4
	.cfi_offset 8, -8
	addi	s0,sp,48
	.cfi_def_cfa 8, 0
	sw	a0,-36(s0)
	sw	a1,-40(s0)
	.loc 1 442 9
	lw	a5,-40(s0)
	lw	a5,4(a5)
	sw	a5,-20(s0)
	.loc 1 443 42
	lw	a5,-20(s0)
	lbu	a4,0(a5)
	.loc 1 443 8
	li	a5,22
	bne	a4,a5,.L83
	.loc 1 444 17
	lw	a5,-20(s0)
	addi	a5,a5,13
	sw	a5,-24(s0)
	.loc 1 445 9
	lw	a5,-24(s0)
	lbu	a4,0(a5)
	lbu	a3,1(a5)
	slli	a3,a3,8
	or	a4,a3,a4
	lbu	a3,2(a5)
	slli	a3,a3,16
	or	a4,a3,a4
	lbu	a5,3(a5)
	slli	a5,a5,24
	or	a5,a5,a4
	mv	a0,a5
	lw	a5,-24(s0)
	lbu	a4,4(a5)
	lbu	a3,5(a5)
	slli	a3,a3,8
	or	a4,a3,a4
	lbu	a3,6(a5)
	slli	a3,a3,16
	or	a4,a3,a4
	lbu	a5,7(a5)
	slli	a5,a5,24
	or	a5,a5,a4
	mv	a1,a5
	lw	a5,-24(s0)
	lbu	a4,8(a5)
	lbu	a3,9(a5)
	slli	a3,a3,8
	or	a4,a3,a4
	lbu	a3,10(a5)
	slli	a3,a3,16
	or	a4,a3,a4
	lbu	a5,11(a5)
	slli	a5,a5,24
	or	a5,a5,a4
	mv	a2,a5
	lw	a5,-24(s0)
	lbu	a4,12(a5)
	lbu	a3,13(a5)
	slli	a3,a3,8
	or	a4,a3,a4
	lbu	a3,14(a5)
	slli	a3,a3,16
	or	a4,a3,a4
	lbu	a5,15(a5)
	slli	a5,a5,24
	or	a5,a5,a4
	mv	a3,a5
	.loc 1 445 99
	lw	a5,-24(s0)
	addi	a4,a5,20
	.loc 1 445 9
	li	a5,0
	call	bl_main_cfg_task_req
.L83:
	.loc 1 448 12
	li	a5,0
	.loc 1 449 1
	mv	a0,a5
	lw	ra,44(sp)
	.cfi_restore 1
	lw	s0,40(sp)
	.cfi_restore 8
	.cfi_def_cfa 2, 48
	addi	sp,sp,48
	.cfi_def_cfa_offset 0
	jr	ra
	.cfi_endproc
.LFE27:
	.size	stateGlobal_cfg_req, .-stateGlobal_cfg_req
	.section	.text.stateSnifferEnter,"ax",@progbits
	.align	1
	.type	stateSnifferEnter, @function
stateSnifferEnter:
.LFB28:
	.loc 1 452 1
	.cfi_startproc
	addi	sp,sp,-32
	.cfi_def_cfa_offset 32
	sw	ra,28(sp)
	sw	s0,24(sp)
	.cfi_offset 1, -4
	.cfi_offset 8, -8
	addi	s0,sp,32
	.cfi_def_cfa 8, 0
	sw	a0,-20(s0)
	sw	a1,-24(s0)
	.loc 1 454 5
	lw	a1,-20(s0)
	lui	a5,%hi(.LC28)
	addi	a0,a5,%lo(.LC28)
	call	printf
	.loc 1 455 1
	nop
	lw	ra,28(sp)
	.cfi_restore 1
	lw	s0,24(sp)
	.cfi_restore 8
	.cfi_def_cfa 2, 32
	addi	sp,sp,32
	.cfi_def_cfa_offset 0
	jr	ra
	.cfi_endproc
.LFE28:
	.size	stateSnifferEnter, .-stateSnifferEnter
	.section	.rodata
	.align	2
.LC30:
	.string	"[WF][SM] Exiting %s state\r\n"
	.section	.text.stateSnifferExit,"ax",@progbits
	.align	1
	.type	stateSnifferExit, @function
stateSnifferExit:
.LFB29:
	.loc 1 458 1
	.cfi_startproc
	addi	sp,sp,-32
	.cfi_def_cfa_offset 32
	sw	ra,28(sp)
	sw	s0,24(sp)
	.cfi_offset 1, -4
	.cfi_offset 8, -8
	addi	s0,sp,32
	.cfi_def_cfa 8, 0
	sw	a0,-20(s0)
	sw	a1,-24(s0)
	.loc 1 460 5
	lw	a1,-20(s0)
	lui	a5,%hi(.LC30)
	addi	a0,a5,%lo(.LC30)
	call	printf
	.loc 1 461 1
	nop
	lw	ra,28(sp)
	.cfi_restore 1
	lw	s0,24(sp)
	.cfi_restore 8
	.cfi_def_cfa 2, 32
	addi	sp,sp,32
	.cfi_def_cfa_offset 0
	jr	ra
	.cfi_endproc
.LFE29:
	.size	stateSnifferExit, .-stateSnifferExit
	.section	.text.stateConnectingGuard,"ax",@progbits
	.align	1
	.type	stateConnectingGuard, @function
stateConnectingGuard:
.LFB30:
	.loc 1 465 1
	.cfi_startproc
	addi	sp,sp,-48
	.cfi_def_cfa_offset 48
	sw	ra,44(sp)
	sw	s0,40(sp)
	.cfi_offset 1, -4
	.cfi_offset 8, -8
	addi	s0,sp,48
	.cfi_def_cfa 8, 0
	sw	a0,-36(s0)
	sw	a1,-40(s0)
	.loc 1 468 9
	lw	a5,-40(s0)
	lw	a5,4(a5)
	sw	a5,-20(s0)
	.loc 1 469 25
	lw	a5,-20(s0)
	lbu	a5,0(a5)
	.loc 1 469 15
	mv	a4,a5
	.loc 1 469 8
	lw	a5,-36(s0)
	bne	a5,a4,.L88
	.loc 1 470 16
	li	a5,1
	j	.L89
.L88:
	.loc 1 472 12
	li	a5,0
.L89:
	.loc 1 473 1
	mv	a0,a5
	lw	ra,44(sp)
	.cfi_restore 1
	lw	s0,40(sp)
	.cfi_restore 8
	.cfi_def_cfa 2, 48
	addi	sp,sp,48
	.cfi_def_cfa_offset 0
	jr	ra
	.cfi_endproc
.LFE30:
	.size	stateConnectingGuard, .-stateConnectingGuard
	.section	.text.stateConnectingAction_connected,"ax",@progbits
	.align	1
	.type	stateConnectingAction_connected, @function
stateConnectingAction_connected:
.LFB31:
	.loc 1 477 1
	.cfi_startproc
	addi	sp,sp,-32
	.cfi_def_cfa_offset 32
	sw	ra,28(sp)
	sw	s0,24(sp)
	.cfi_offset 1, -4
	.cfi_offset 8, -8
	addi	s0,sp,32
	.cfi_def_cfa 8, 0
	sw	a0,-20(s0)
	sw	a1,-24(s0)
	sw	a2,-28(s0)
	.loc 1 478 5
	lw	a2,-28(s0)
	lw	a1,-20(s0)
	lui	a5,%hi(.LC29)
	addi	a0,a5,%lo(.LC29)
	call	printf
	.loc 1 482 1
	nop
	lw	ra,28(sp)
	.cfi_restore 1
	lw	s0,24(sp)
	.cfi_restore 8
	.cfi_def_cfa 2, 32
	addi	sp,sp,32
	.cfi_def_cfa_offset 0
	jr	ra
	.cfi_endproc
.LFE31:
	.size	stateConnectingAction_connected, .-stateConnectingAction_connected
	.section	.text.stateConnectingAction_disconnect,"ax",@progbits
	.align	1
	.type	stateConnectingAction_disconnect, @function
stateConnectingAction_disconnect:
.LFB32:
	.loc 1 486 1
	.cfi_startproc
	addi	sp,sp,-32
	.cfi_def_cfa_offset 32
	sw	ra,28(sp)
	sw	s0,24(sp)
	.cfi_offset 1, -4
	.cfi_offset 8, -8
	addi	s0,sp,32
	.cfi_def_cfa 8, 0
	sw	a0,-20(s0)
	sw	a1,-24(s0)
	sw	a2,-28(s0)
	.loc 1 487 5
	lw	a2,-28(s0)
	lw	a1,-20(s0)
	lui	a5,%hi(.LC29)
	addi	a0,a5,%lo(.LC29)
	call	printf
	.loc 1 491 1
	nop
	lw	ra,28(sp)
	.cfi_restore 1
	lw	s0,24(sp)
	.cfi_restore 8
	.cfi_def_cfa 2, 32
	addi	sp,sp,32
	.cfi_def_cfa_offset 0
	jr	ra
	.cfi_endproc
.LFE32:
	.size	stateConnectingAction_disconnect, .-stateConnectingAction_disconnect
	.section	.text.stateConnectingEnter,"ax",@progbits
	.align	1
	.type	stateConnectingEnter, @function
stateConnectingEnter:
.LFB33:
	.loc 1 494 1
	.cfi_startproc
	addi	sp,sp,-32
	.cfi_def_cfa_offset 32
	sw	ra,28(sp)
	sw	s0,24(sp)
	.cfi_offset 1, -4
	.cfi_offset 8, -8
	addi	s0,sp,32
	.cfi_def_cfa 8, 0
	sw	a0,-20(s0)
	sw	a1,-24(s0)
	.loc 1 495 4
	lw	a1,-20(s0)
	lui	a5,%hi(.LC28)
	addi	a0,a5,%lo(.LC28)
	call	printf
	.loc 1 496 4
	li	a2,0
	li	a1,8
	li	a0,2
	call	aos_post_event
	.loc 1 497 1
	nop
	lw	ra,28(sp)
	.cfi_restore 1
	lw	s0,24(sp)
	.cfi_restore 8
	.cfi_def_cfa 2, 32
	addi	sp,sp,32
	.cfi_def_cfa_offset 0
	jr	ra
	.cfi_endproc
.LFE33:
	.size	stateConnectingEnter, .-stateConnectingEnter
	.section	.text.stateConnectingExit,"ax",@progbits
	.align	1
	.type	stateConnectingExit, @function
stateConnectingExit:
.LFB34:
	.loc 1 500 1
	.cfi_startproc
	addi	sp,sp,-32
	.cfi_def_cfa_offset 32
	sw	ra,28(sp)
	sw	s0,24(sp)
	.cfi_offset 1, -4
	.cfi_offset 8, -8
	addi	s0,sp,32
	.cfi_def_cfa 8, 0
	sw	a0,-20(s0)
	sw	a1,-24(s0)
	.loc 1 501 4
	lw	a1,-20(s0)
	lui	a5,%hi(.LC30)
	addi	a0,a5,%lo(.LC30)
	call	printf
	.loc 1 502 1
	nop
	lw	ra,28(sp)
	.cfi_restore 1
	lw	s0,24(sp)
	.cfi_restore 8
	.cfi_def_cfa 2, 32
	addi	sp,sp,32
	.cfi_def_cfa_offset 0
	jr	ra
	.cfi_endproc
.LFE34:
	.size	stateConnectingExit, .-stateConnectingExit
	.section	.rodata
	.align	2
.LC31:
	.string	"[WF][SM] %s: add AP iface failed\r\n"
	.align	2
.LC32:
	.string	"[WF][SM] start AP with ssid %s;\r\n"
	.align	2
.LC33:
	.string	"[WF][SM]               pwd  %s;\r\n"
	.align	2
.LC34:
	.string	"[WF][SM]               channel  %ld;\r\n"
	.section	.text.stateGlobalGuard_AP,"ax",@progbits
	.align	1
	.type	stateGlobalGuard_AP, @function
stateGlobalGuard_AP:
.LFB35:
	.loc 1 505 1
	.cfi_startproc
	addi	sp,sp,-48
	.cfi_def_cfa_offset 48
	sw	ra,44(sp)
	sw	s0,40(sp)
	.cfi_offset 1, -4
	.cfi_offset 8, -8
	addi	s0,sp,48
	.cfi_def_cfa 8, 0
	sw	a0,-36(s0)
	sw	a1,-40(s0)
	.loc 1 509 9
	lw	a5,-40(s0)
	lw	a5,4(a5)
	sw	a5,-20(s0)
	.loc 1 510 44
	lw	a5,-20(s0)
	lbu	a4,0(a5)
	.loc 1 510 8
	li	a5,8
	beq	a4,a5,.L95
	.loc 1 511 16
	li	a5,0
	j	.L96
.L95:
	.loc 1 514 9
	lui	a5,%hi(wifiMgmr+136)
	addi	a2,a5,%lo(wifiMgmr+136)
	lui	a5,%hi(wifiMgmr+164)
	addi	a1,a5,%lo(wifiMgmr+164)
	li	a0,0
	call	bl_main_if_add
	mv	a5,a0
	.loc 1 514 8 discriminator 1
	beq	a5,zero,.L97
	.loc 1 515 9
	lui	a5,%hi(__func__.1)
	addi	a1,a5,%lo(__func__.1)
	lui	a5,%hi(.LC31)
	addi	a0,a5,%lo(.LC31)
	call	printf
	.loc 1 516 16
	li	a5,0
	j	.L96
.L97:
	.loc 1 518 5
	li	a2,0
	lui	a5,%hi(netif_set_link_up)
	addi	a1,a5,%lo(netif_set_link_up)
	lui	a5,%hi(wifiMgmr+164)
	addi	a0,a5,%lo(wifiMgmr+164)
	call	netifapi_netif_common
	.loc 1 520 5
	li	a2,0
	lui	a5,%hi(dhcpd_start)
	addi	a1,a5,%lo(dhcpd_start)
	lui	a5,%hi(wifiMgmr+164)
	addi	a0,a5,%lo(wifiMgmr+164)
	call	netifapi_netif_common
	.loc 1 522 8
	lw	a5,-20(s0)
	addi	a5,a5,13
	sw	a5,-24(s0)
	.loc 1 523 56
	lw	a5,-24(s0)
	addi	a5,a5,4
	.loc 1 523 5
	mv	a1,a5
	lui	a5,%hi(.LC32)
	addi	a0,a5,%lo(.LC32)
	call	printf
	.loc 1 524 56
	lw	a5,-24(s0)
	addi	a5,a5,42
	.loc 1 524 5
	mv	a1,a5
	lui	a5,%hi(.LC33)
	addi	a0,a5,%lo(.LC33)
	call	printf
	.loc 1 525 5
	lw	a5,-24(s0)
	lbu	a4,0(a5)
	lbu	a3,1(a5)
	slli	a3,a3,8
	or	a4,a3,a4
	lbu	a3,2(a5)
	slli	a3,a3,16
	or	a4,a3,a4
	lbu	a5,3(a5)
	slli	a5,a5,24
	or	a5,a5,a4
	mv	a1,a5
	lui	a5,%hi(.LC34)
	addi	a0,a5,%lo(.LC34)
	call	printf
	.loc 1 526 25
	lw	a5,-24(s0)
	addi	a0,a5,4
	.loc 1 526 35
	lw	a5,-24(s0)
	addi	a1,a5,42
	.loc 1 526 44
	lw	a5,-24(s0)
	lbu	a4,0(a5)
	lbu	a3,1(a5)
	slli	a3,a3,8
	or	a4,a3,a4
	lbu	a3,2(a5)
	slli	a3,a3,16
	or	a4,a3,a4
	lbu	a5,3(a5)
	slli	a5,a5,24
	or	a5,a5,a4
	mv	a2,a5
	.loc 1 526 5
	lui	a5,%hi(wifiMgmr)
	addi	a5,a5,%lo(wifiMgmr)
	lbu	a3,136(a5)
	lw	a5,-24(s0)
	lbu	a5,37(a5)
	mv	a4,a5
	call	bl_main_apm_start
	.loc 1 527 29
	lui	a5,%hi(wifiMgmr)
	addi	a5,a5,%lo(wifiMgmr)
	li	a4,1
	sw	a4,8(a5)
	.loc 1 528 5
	call	dns_server_init
	.loc 1 529 5
	li	a2,0
	li	a1,11
	li	a0,2
	call	aos_post_event
	.loc 1 531 12
	li	a5,0
.L96:
	.loc 1 532 1
	mv	a0,a5
	lw	ra,44(sp)
	.cfi_restore 1
	lw	s0,40(sp)
	.cfi_restore 8
	.cfi_def_cfa 2, 48
	addi	sp,sp,48
	.cfi_def_cfa_offset 0
	jr	ra
	.cfi_endproc
.LFE35:
	.size	stateGlobalGuard_AP, .-stateGlobalGuard_AP
	.section	.rodata
	.align	2
.LC35:
	.string	"[WF][SM] Stoping AP interface...\r\n"
	.align	2
.LC36:
	.string	"[WF][SM] Removing and deauth all sta client...\r\n"
	.align	2
.LC37:
	.string	"[WF][SM] Removing AP interface...\r\n"
	.align	2
.LC38:
	.string	"[WF][SM] Stopping DHCP on AP interface...\r\n"
	.align	2
.LC39:
	.string	"[WF][SM] Removing ETH interface ...\r\n"
	.section	.text.stateGlobalGuard_stop,"ax",@progbits
	.align	1
	.type	stateGlobalGuard_stop, @function
stateGlobalGuard_stop:
.LFB36:
	.loc 1 535 1
	.cfi_startproc
	addi	sp,sp,-48
	.cfi_def_cfa_offset 48
	sw	ra,44(sp)
	sw	s0,40(sp)
	.cfi_offset 1, -4
	.cfi_offset 8, -8
	addi	s0,sp,48
	.cfi_def_cfa 8, 0
	sw	a0,-36(s0)
	sw	a1,-40(s0)
	.loc 1 538 9
	lw	a5,-40(s0)
	lw	a5,4(a5)
	sw	a5,-20(s0)
	.loc 1 539 43
	lw	a5,-20(s0)
	lbu	a4,0(a5)
	.loc 1 539 8
	li	a5,9
	beq	a4,a5,.L99
	.loc 1 540 16
	li	a5,0
	j	.L100
.L99:
	.loc 1 543 5
	lui	a5,%hi(.LC35)
	addi	a0,a5,%lo(.LC35)
	call	printf
	.loc 1 544 5
	lui	a5,%hi(wifiMgmr)
	addi	a5,a5,%lo(wifiMgmr)
	lbu	a5,136(a5)
	mv	a0,a5
	call	bl_main_apm_stop
	.loc 1 545 5
	lui	a5,%hi(.LC36)
	addi	a0,a5,%lo(.LC36)
	call	printf
	.loc 1 546 5
	call	bl_main_apm_remove_all_sta
	.loc 1 547 5
	lui	a5,%hi(.LC37)
	addi	a0,a5,%lo(.LC37)
	call	printf
	.loc 1 548 5
	lui	a5,%hi(wifiMgmr)
	addi	a5,a5,%lo(wifiMgmr)
	lbu	a5,136(a5)
	mv	a0,a5
	call	bl_main_if_remove
	.loc 1 549 5
	lui	a5,%hi(.LC38)
	addi	a0,a5,%lo(.LC38)
	call	printf
	.loc 1 551 5
	lui	a5,%hi(dhcp_server_stop)
	addi	a2,a5,%lo(dhcp_server_stop)
	li	a1,0
	lui	a5,%hi(wifiMgmr+164)
	addi	a0,a5,%lo(wifiMgmr+164)
	call	netifapi_netif_common
	.loc 1 552 5
	lui	a5,%hi(.LC39)
	addi	a0,a5,%lo(.LC39)
	call	printf
	.loc 1 553 5
	li	a2,0
	lui	a5,%hi(netif_remove)
	addi	a1,a5,%lo(netif_remove)
	lui	a5,%hi(wifiMgmr+164)
	addi	a0,a5,%lo(wifiMgmr+164)
	call	netifapi_netif_common
	.loc 1 554 29
	lui	a5,%hi(wifiMgmr)
	addi	a5,a5,%lo(wifiMgmr)
	sw	zero,8(a5)
	.loc 1 555 5
	li	a2,0
	li	a1,12
	li	a0,2
	call	aos_post_event
	.loc 1 557 12
	li	a5,0
.L100:
	.loc 1 558 1
	mv	a0,a5
	lw	ra,44(sp)
	.cfi_restore 1
	lw	s0,40(sp)
	.cfi_restore 8
	.cfi_def_cfa 2, 48
	addi	sp,sp,48
	.cfi_def_cfa_offset 0
	jr	ra
	.cfi_endproc
.LFE36:
	.size	stateGlobalGuard_stop, .-stateGlobalGuard_stop
	.section	.rodata
	.align	2
.LC40:
	.string	"[WF][SM] Conf max sta supported %lu...\r\n"
	.section	.text.stateGlobalGuard_conf_max_sta,"ax",@progbits
	.align	1
	.type	stateGlobalGuard_conf_max_sta, @function
stateGlobalGuard_conf_max_sta:
.LFB37:
	.loc 1 561 1
	.cfi_startproc
	addi	sp,sp,-48
	.cfi_def_cfa_offset 48
	sw	ra,44(sp)
	sw	s0,40(sp)
	.cfi_offset 1, -4
	.cfi_offset 8, -8
	addi	s0,sp,48
	.cfi_def_cfa 8, 0
	sw	a0,-36(s0)
	sw	a1,-40(s0)
	.loc 1 564 9
	lw	a5,-40(s0)
	lw	a5,4(a5)
	sw	a5,-20(s0)
	.loc 1 565 48
	lw	a5,-20(s0)
	lbu	a4,0(a5)
	.loc 1 565 8
	li	a5,10
	beq	a4,a5,.L102
	.loc 1 566 16
	li	a5,0
	j	.L103
.L102:
	.loc 1 569 74
	lw	a5,-20(s0)
	lbu	a4,1(a5)
	lbu	a3,2(a5)
	slli	a3,a3,8
	or	a4,a3,a4
	lbu	a3,3(a5)
	slli	a3,a3,16
	or	a4,a3,a4
	lbu	a5,4(a5)
	slli	a5,a5,24
	or	a5,a5,a4
	.loc 1 569 5
	mv	a1,a5
	lui	a5,%hi(.LC40)
	addi	a0,a5,%lo(.LC40)
	call	printf
	.loc 1 570 39
	lw	a5,-20(s0)
	lbu	a4,1(a5)
	lbu	a3,2(a5)
	slli	a3,a3,8
	or	a4,a3,a4
	lbu	a3,3(a5)
	slli	a3,a3,16
	or	a4,a3,a4
	lbu	a5,4(a5)
	slli	a5,a5,24
	or	a5,a5,a4
	.loc 1 570 5
	andi	a5,a5,0xff
	mv	a0,a5
	call	bl_main_conf_max_sta
	.loc 1 572 12
	li	a5,0
.L103:
	.loc 1 573 1
	mv	a0,a5
	lw	ra,44(sp)
	.cfi_restore 1
	lw	s0,40(sp)
	.cfi_restore 8
	.cfi_def_cfa 2, 48
	addi	sp,sp,48
	.cfi_def_cfa_offset 0
	jr	ra
	.cfi_endproc
.LFE37:
	.size	stateGlobalGuard_conf_max_sta, .-stateGlobalGuard_conf_max_sta
	.section	.sbss.auto_repeat,"aw",@nobits
	.align	2
	.type	auto_repeat, @object
	.size	auto_repeat, 4
auto_repeat:
	.zero	4
	.section	.text.trigger_auto_denoise,"ax",@progbits
	.align	1
	.type	trigger_auto_denoise, @function
trigger_auto_denoise:
.LFB38:
	.loc 1 578 1
	.cfi_startproc
	addi	sp,sp,-32
	.cfi_def_cfa_offset 32
	sw	ra,28(sp)
	sw	s0,24(sp)
	.cfi_offset 1, -4
	.cfi_offset 8, -8
	addi	s0,sp,32
	.cfi_def_cfa 8, 0
	sw	a0,-20(s0)
	.loc 1 580 9
	lui	a5,%hi(auto_repeat)
	lw	a5,%lo(auto_repeat)(a5)
	.loc 1 580 8
	beq	a5,zero,.L106
.LBB2:
	.loc 1 582 9
	call	wifi_mgmr_api_denoise_enable
	.loc 1 583 9
	li	a2,0
	lui	a5,%hi(trigger_auto_denoise)
	addi	a1,a5,%lo(trigger_auto_denoise)
	li	a0,85
	call	aos_post_delayed_action
.L106:
.LBE2:
	.loc 1 585 1
	nop
	lw	ra,28(sp)
	.cfi_restore 1
	lw	s0,24(sp)
	.cfi_restore 8
	.cfi_def_cfa 2, 32
	addi	sp,sp,32
	.cfi_def_cfa_offset 0
	jr	ra
	.cfi_endproc
.LFE38:
	.size	trigger_auto_denoise, .-trigger_auto_denoise
	.section	.text.stateGlobalGuard_denoise,"ax",@progbits
	.align	1
	.type	stateGlobalGuard_denoise, @function
stateGlobalGuard_denoise:
.LFB39:
	.loc 1 588 1
	.cfi_startproc
	addi	sp,sp,-48
	.cfi_def_cfa_offset 48
	sw	ra,44(sp)
	sw	s0,40(sp)
	.cfi_offset 1, -4
	.cfi_offset 8, -8
	addi	s0,sp,48
	.cfi_def_cfa 8, 0
	sw	a0,-36(s0)
	sw	a1,-40(s0)
	.loc 1 591 9
	lw	a5,-40(s0)
	lw	a5,4(a5)
	sw	a5,-20(s0)
	.loc 1 592 43
	lw	a5,-20(s0)
	lbu	a4,0(a5)
	.loc 1 592 8
	li	a5,12
	beq	a4,a5,.L108
	.loc 1 593 16
	li	a5,0
	j	.L109
.L108:
	.loc 1 596 12
	lw	a5,-20(s0)
	lbu	a4,1(a5)
	lbu	a3,2(a5)
	slli	a3,a3,8
	or	a4,a3,a4
	lbu	a3,3(a5)
	slli	a3,a3,16
	or	a4,a3,a4
	lbu	a5,4(a5)
	slli	a5,a5,24
	or	a5,a5,a4
	.loc 1 596 8
	beq	a5,zero,.L110
	.loc 1 599 47
	lui	a5,%hi(wifiMgmr)
	addi	a4,a5,%lo(wifiMgmr)
	li	a5,4096
	add	a5,a4,a5
	lw	a4,1832(a5)
	.loc 1 599 12
	lui	a5,%hi(stateConnectedIPYes)
	addi	a5,a5,%lo(stateConnectedIPYes)
	bne	a4,a5,.L111
	.loc 1 601 17
	lui	a5,%hi(auto_repeat)
	lw	a5,%lo(auto_repeat)(a5)
	.loc 1 601 16
	beq	a5,zero,.L112
	.loc 1 603 17
	li	a0,3
	call	bl_main_denoise
	j	.L111
.L112:
	.loc 1 606 29
	lui	a5,%hi(auto_repeat)
	li	a4,1
	sw	a4,%lo(auto_repeat)(a5)
	.loc 1 607 17
	li	a0,1
	call	bl_main_denoise
	.loc 1 608 17
	li	a2,0
	li	a1,20
	li	a0,2
	call	aos_post_event
	j	.L111
.L110:
	.loc 1 613 21
	lui	a5,%hi(auto_repeat)
	sw	zero,%lo(auto_repeat)(a5)
	.loc 1 614 9
	li	a0,0
	call	bl_main_denoise
.L111:
	.loc 1 617 12
	li	a5,0
.L109:
	.loc 1 618 1
	mv	a0,a5
	lw	ra,44(sp)
	.cfi_restore 1
	lw	s0,40(sp)
	.cfi_restore 8
	.cfi_def_cfa 2, 48
	addi	sp,sp,48
	.cfi_def_cfa_offset 0
	jr	ra
	.cfi_endproc
.LFE39:
	.size	stateGlobalGuard_denoise, .-stateGlobalGuard_denoise
	.section	.data.__compound_literal.0,"aw"
	.align	2
	.type	__compound_literal.0, @object
	.size	__compound_literal.0, 240
__compound_literal.0:
	.word	2
	.word	24
	.word	stateGlobalGuard_scan_beacon
	.word	stateGlobalAction
	.word	stateIdle
	.word	2
	.word	28
	.word	stateGlobalGuard_disable_autoreconnect
	.word	stateGlobalAction
	.word	stateIdle
	.word	2
	.word	29
	.word	stateGlobalGuard_enable_autoreconnect
	.word	stateGlobalAction
	.word	stateIdle
	.word	1
	.word	8
	.word	stateGlobalGuard_AP
	.word	stateGlobalAction
	.word	stateIdle
	.word	1
	.word	9
	.word	stateGlobalGuard_stop
	.word	stateGlobalAction
	.word	stateIdle
	.word	1
	.word	10
	.word	stateGlobalGuard_conf_max_sta
	.word	stateGlobalAction
	.word	stateIdle
	.word	1
	.word	12
	.word	stateGlobalGuard_denoise
	.word	stateGlobalAction
	.word	stateIdle
	.word	0
	.word	15
	.word	stateGlobalGuard_fw_disconnect
	.word	stateGlobalAction
	.word	stateIdle
	.word	0
	.word	16
	.word	stateGlobalGuard_fw_powersaving
	.word	stateGlobalAction
	.word	stateIdle
	.word	0
	.word	18
	.word	stateGlobalGuard_fw_scan
	.word	stateGlobalAction
	.word	stateIdle
	.word	0
	.word	21
	.word	stateSnifferGuard_raw_send
	.word	stateGlobalAction
	.word	stateIdle
	.word	0
	.word	22
	.word	stateGlobal_cfg_req
	.word	stateGlobalAction
	.word	stateIdle
	.section	.data.__compound_literal.1,"aw"
	.align	2
	.type	__compound_literal.1, @object
	.size	__compound_literal.1, 40
__compound_literal.1:
	.word	1
	.word	0
	.word	stateSnifferGuard
	.word	stateSnifferAction
	.word	stateIdle
	.word	0
	.word	17
	.word	stateSnifferGuard_ChannelSet
	.word	stateSnifferAction
	.word	stateIdle
	.section	.data.__compound_literal.2,"aw"
	.align	2
	.type	__compound_literal.2, @object
	.size	__compound_literal.2, 40
__compound_literal.2:
	.word	0
	.word	20
	.word	stateConnectingGuard
	.word	stateConnectingAction_connected
	.word	stateConnectedIPNo
	.word	0
	.word	19
	.word	stateConnectingGuard
	.word	stateConnectingAction_disconnect
	.word	stateDisconnect
	.section	.rodata
	.align	2
.LC41:
	.string	"[WF][SM] %s: add STA iface failed\r\n"
	.section	.text.stateIdleGuard_connect,"ax",@progbits
	.align	1
	.type	stateIdleGuard_connect, @function
stateIdleGuard_connect:
.LFB40:
	.loc 1 675 1
	.cfi_startproc
	addi	sp,sp,-48
	.cfi_def_cfa_offset 48
	sw	ra,44(sp)
	sw	s0,40(sp)
	.cfi_offset 1, -4
	.cfi_offset 8, -8
	addi	s0,sp,48
	.cfi_def_cfa 8, 0
	sw	a0,-36(s0)
	sw	a1,-40(s0)
	.loc 1 678 9
	lw	a5,-40(s0)
	lw	a5,4(a5)
	sw	a5,-20(s0)
	.loc 1 679 25
	lw	a5,-20(s0)
	lbu	a5,0(a5)
	.loc 1 679 15
	mv	a4,a5
	.loc 1 679 8
	lw	a5,-36(s0)
	beq	a5,a4,.L114
	.loc 1 680 16
	li	a5,0
	j	.L115
.L114:
	.loc 1 682 9
	lui	a5,%hi(wifiMgmr+16)
	addi	a2,a5,%lo(wifiMgmr+16)
	lui	a5,%hi(wifiMgmr+44)
	addi	a1,a5,%lo(wifiMgmr+44)
	li	a0,1
	call	bl_main_if_add
	mv	a5,a0
	.loc 1 682 8 discriminator 1
	beq	a5,zero,.L116
	.loc 1 683 9
	lui	a5,%hi(__func__.0)
	addi	a1,a5,%lo(__func__.0)
	lui	a5,%hi(.LC41)
	addi	a0,a5,%lo(.LC41)
	call	printf
	.loc 1 684 16
	li	a5,0
	j	.L115
.L116:
	.loc 1 686 12
	li	a5,1
.L115:
	.loc 1 687 1
	mv	a0,a5
	lw	ra,44(sp)
	.cfi_restore 1
	lw	s0,40(sp)
	.cfi_restore 8
	.cfi_def_cfa 2, 48
	addi	sp,sp,48
	.cfi_def_cfa_offset 0
	jr	ra
	.cfi_endproc
.LFE40:
	.size	stateIdleGuard_connect, .-stateIdleGuard_connect
	.section	.text.stateIdleGuard_sniffer,"ax",@progbits
	.align	1
	.type	stateIdleGuard_sniffer, @function
stateIdleGuard_sniffer:
.LFB41:
	.loc 1 690 1
	.cfi_startproc
	addi	sp,sp,-48
	.cfi_def_cfa_offset 48
	sw	ra,44(sp)
	sw	s0,40(sp)
	.cfi_offset 1, -4
	.cfi_offset 8, -8
	addi	s0,sp,48
	.cfi_def_cfa 8, 0
	sw	a0,-36(s0)
	sw	a1,-40(s0)
	.loc 1 693 9
	lw	a5,-40(s0)
	lw	a5,4(a5)
	sw	a5,-20(s0)
	.loc 1 694 25
	lw	a5,-20(s0)
	lbu	a5,0(a5)
	.loc 1 694 15
	mv	a4,a5
	.loc 1 694 8
	lw	a5,-36(s0)
	beq	a5,a4,.L118
	.loc 1 695 16
	li	a5,0
	j	.L119
.L118:
	.loc 1 698 5
	call	bl_main_monitor
	.loc 1 699 12
	li	a5,1
.L119:
	.loc 1 700 1
	mv	a0,a5
	lw	ra,44(sp)
	.cfi_restore 1
	lw	s0,40(sp)
	.cfi_restore 8
	.cfi_def_cfa 2, 48
	addi	sp,sp,48
	.cfi_def_cfa_offset 0
	jr	ra
	.cfi_endproc
.LFE41:
	.size	stateIdleGuard_sniffer, .-stateIdleGuard_sniffer
	.section	.rodata
	.align	2
.LC42:
	.string	"[WF][SM] Action Connect\r\n"
	.align	2
.LC43:
	.string	"           ssid %s\r\n"
	.align	2
.LC44:
	.string	"           ssid len %u\r\n"
	.align	2
.LC45:
	.string	"           psk %s\r\n"
	.align	2
.LC46:
	.string	"           psk len %u\r\n"
	.align	2
.LC47:
	.string	"           pmk %s\r\n"
	.align	2
.LC48:
	.string	"           pmk len %u\r\n"
	.align	2
.LC49:
	.string	"           channel band %d\r\n"
	.align	2
.LC50:
	.string	"           channel freq %d\r\n"
	.align	2
.LC51:
	.string	"           mac %02X:%02X:%02X:%02X:%02X:%02X\r\n"
	.align	2
.LC52:
	.string	"true"
	.align	2
.LC53:
	.string	"false"
	.align	2
.LC54:
	.string	"           dhcp status: %s\r\n"
	.section	.text.stateIdleAction_connect,"ax",@progbits
	.align	1
	.type	stateIdleAction_connect, @function
stateIdleAction_connect:
.LFB42:
	.loc 1 704 1
	.cfi_startproc
	addi	sp,sp,-64
	.cfi_def_cfa_offset 64
	sw	ra,60(sp)
	sw	s0,56(sp)
	.cfi_offset 1, -4
	.cfi_offset 8, -8
	addi	s0,sp,64
	.cfi_def_cfa 8, 0
	sw	a0,-36(s0)
	sw	a1,-40(s0)
	sw	a2,-44(s0)
	.loc 1 708 9
	lw	a5,-40(s0)
	lw	a5,4(a5)
	sw	a5,-20(s0)
	.loc 1 709 17
	lw	a5,-20(s0)
	addi	a5,a5,13
	sw	a5,-24(s0)
	.loc 1 710 31
	lw	a5,-24(s0)
	sb	zero,32(a5)
	.loc 1 711 30
	lw	a5,-24(s0)
	sb	zero,101(a5)
	.loc 1 712 5
	lui	a5,%hi(.LC42)
	addi	a0,a5,%lo(.LC42)
	call	printf
	.loc 1 713 49
	lw	a5,-24(s0)
	.loc 1 713 5
	mv	a1,a5
	lui	a5,%hi(.LC43)
	addi	a0,a5,%lo(.LC43)
	call	printf
	.loc 1 714 67
	lw	a5,-24(s0)
	lbu	a4,33(a5)
	lbu	a3,34(a5)
	slli	a3,a3,8
	or	a4,a3,a4
	lbu	a3,35(a5)
	slli	a3,a3,16
	or	a4,a3,a4
	lbu	a5,36(a5)
	slli	a5,a5,24
	or	a5,a5,a4
	.loc 1 714 5
	mv	a1,a5
	lui	a5,%hi(.LC44)
	addi	a0,a5,%lo(.LC44)
	call	printf
	.loc 1 715 48
	lw	a5,-24(s0)
	addi	a5,a5,37
	.loc 1 715 5
	mv	a1,a5
	lui	a5,%hi(.LC45)
	addi	a0,a5,%lo(.LC45)
	call	printf
	.loc 1 716 66
	lw	a5,-24(s0)
	lbu	a4,167(a5)
	lbu	a3,168(a5)
	slli	a3,a3,8
	or	a4,a3,a4
	lbu	a3,169(a5)
	slli	a3,a3,16
	or	a4,a3,a4
	lbu	a5,170(a5)
	slli	a5,a5,24
	or	a5,a5,a4
	.loc 1 716 5
	mv	a1,a5
	lui	a5,%hi(.LC46)
	addi	a0,a5,%lo(.LC46)
	call	printf
	.loc 1 717 48
	lw	a5,-24(s0)
	addi	a5,a5,102
	.loc 1 717 5
	mv	a1,a5
	lui	a5,%hi(.LC47)
	addi	a0,a5,%lo(.LC47)
	call	printf
	.loc 1 718 66
	lw	a5,-24(s0)
	lbu	a4,171(a5)
	lbu	a3,172(a5)
	slli	a3,a3,8
	or	a4,a3,a4
	lbu	a3,173(a5)
	slli	a3,a3,16
	or	a4,a3,a4
	lbu	a5,174(a5)
	slli	a5,a5,24
	or	a5,a5,a4
	.loc 1 718 5
	mv	a1,a5
	lui	a5,%hi(.LC48)
	addi	a0,a5,%lo(.LC48)
	call	printf
	.loc 1 719 66
	lw	a5,-24(s0)
	lbu	a5,181(a5)
	.loc 1 719 5
	mv	a1,a5
	lui	a5,%hi(.LC49)
	addi	a0,a5,%lo(.LC49)
	call	printf
	.loc 1 720 67
	lw	a5,-24(s0)
	lbu	a4,182(a5)
	lbu	a5,183(a5)
	slli	a5,a5,8
	or	a5,a5,a4
	slli	a5,a5,16
	srli	a5,a5,16
	.loc 1 720 5
	mv	a1,a5
	lui	a5,%hi(.LC50)
	addi	a0,a5,%lo(.LC50)
	call	printf
	.loc 1 721 80
	lw	a5,-24(s0)
	lbu	a5,180(a5)
	.loc 1 721 5
	mv	a1,a5
	.loc 1 721 101
	lw	a5,-24(s0)
	lbu	a5,179(a5)
	.loc 1 721 5
	mv	a2,a5
	.loc 1 721 122
	lw	a5,-24(s0)
	lbu	a5,178(a5)
	.loc 1 721 5
	mv	a3,a5
	.loc 1 721 143
	lw	a5,-24(s0)
	lbu	a5,177(a5)
	.loc 1 721 5
	mv	a4,a5
	.loc 1 721 164
	lw	a5,-24(s0)
	lbu	a5,176(a5)
	.loc 1 721 5
	mv	a0,a5
	.loc 1 721 185
	lw	a5,-24(s0)
	lbu	a5,175(a5)
	.loc 1 721 5
	mv	a6,a5
	mv	a5,a0
	lui	a0,%hi(.LC51)
	addi	a0,a0,%lo(.LC51)
	call	printf
	.loc 1 729 57
	lw	a5,-24(s0)
	lbu	a5,184(a5)
	.loc 1 729 5
	beq	a5,zero,.L121
	.loc 1 729 5 is_stmt 0 discriminator 1
	lui	a5,%hi(.LC52)
	addi	a5,a5,%lo(.LC52)
	j	.L122
.L121:
	.loc 1 729 5 discriminator 2
	lui	a5,%hi(.LC53)
	addi	a5,a5,%lo(.LC53)
.L122:
	.loc 1 729 5 discriminator 4
	mv	a1,a5
	lui	a5,%hi(.LC54)
	addi	a0,a5,%lo(.LC54)
	call	printf
	.loc 1 730 5 is_stmt 1
	li	a2,-1
	lw	a1,-24(s0)
	lui	a5,%hi(wifiMgmr)
	addi	a0,a5,%lo(wifiMgmr)
	call	wifi_mgmr_profile_add
	.loc 1 732 5
	lw	a2,-44(s0)
	lw	a1,-36(s0)
	lui	a5,%hi(.LC29)
	addi	a0,a5,%lo(.LC29)
	call	printf
	.loc 1 738 38
	lw	a0,-24(s0)
	.loc 1 738 68
	lw	a5,-24(s0)
	lbu	a4,33(a5)
	lbu	a3,34(a5)
	slli	a3,a3,8
	or	a4,a3,a4
	lbu	a3,35(a5)
	slli	a3,a3,16
	or	a4,a3,a4
	lbu	a5,36(a5)
	slli	a5,a5,24
	or	a5,a5,a4
	.loc 1 738 5
	mv	t1,a5
	.loc 1 739 30
	lw	a5,-24(s0)
	addi	a2,a5,37
	.loc 1 739 59
	lw	a5,-24(s0)
	lbu	a4,167(a5)
	lbu	a3,168(a5)
	slli	a3,a3,8
	or	a4,a3,a4
	lbu	a3,169(a5)
	slli	a3,a3,16
	or	a4,a3,a4
	lbu	a5,170(a5)
	slli	a5,a5,24
	or	a5,a5,a4
	.loc 1 738 5
	mv	t3,a5
	.loc 1 740 30
	lw	a5,-24(s0)
	addi	a1,a5,102
	.loc 1 740 59
	lw	a5,-24(s0)
	lbu	a4,171(a5)
	lbu	a3,172(a5)
	slli	a3,a3,8
	or	a4,a3,a4
	lbu	a3,173(a5)
	slli	a3,a3,16
	or	a4,a3,a4
	lbu	a5,174(a5)
	slli	a5,a5,24
	or	a5,a5,a4
	.loc 1 738 5
	mv	t4,a5
	.loc 1 741 30
	lw	a5,-24(s0)
	addi	a3,a5,175
	.loc 1 742 39
	lw	a5,-24(s0)
	lbu	a6,181(a5)
	.loc 1 743 40
	lw	a5,-24(s0)
	lbu	a4,182(a5)
	lbu	a5,183(a5)
	slli	a5,a5,8
	or	a5,a5,a4
	slli	a5,a5,16
	srli	a5,a5,16
	.loc 1 738 5
	sw	a5,0(sp)
	mv	a7,a6
	mv	a6,a3
	mv	a5,t4
	mv	a4,a1
	mv	a3,t3
	mv	a1,t1
	call	bl_main_connect
	.loc 1 745 1
	nop
	lw	ra,60(sp)
	.cfi_restore 1
	lw	s0,56(sp)
	.cfi_restore 8
	.cfi_def_cfa 2, 64
	addi	sp,sp,64
	.cfi_def_cfa_offset 0
	jr	ra
	.cfi_endproc
.LFE42:
	.size	stateIdleAction_connect, .-stateIdleAction_connect
	.section	.text.stateIdleAction_sniffer,"ax",@progbits
	.align	1
	.type	stateIdleAction_sniffer, @function
stateIdleAction_sniffer:
.LFB43:
	.loc 1 749 1
	.cfi_startproc
	addi	sp,sp,-32
	.cfi_def_cfa_offset 32
	sw	ra,28(sp)
	sw	s0,24(sp)
	.cfi_offset 1, -4
	.cfi_offset 8, -8
	addi	s0,sp,32
	.cfi_def_cfa 8, 0
	sw	a0,-20(s0)
	sw	a1,-24(s0)
	sw	a2,-28(s0)
	.loc 1 750 5
	lw	a2,-28(s0)
	lw	a1,-20(s0)
	lui	a5,%hi(.LC29)
	addi	a0,a5,%lo(.LC29)
	call	printf
	.loc 1 754 1
	nop
	lw	ra,28(sp)
	.cfi_restore 1
	lw	s0,24(sp)
	.cfi_restore 8
	.cfi_def_cfa 2, 32
	addi	sp,sp,32
	.cfi_def_cfa_offset 0
	jr	ra
	.cfi_endproc
.LFE43:
	.size	stateIdleAction_sniffer, .-stateIdleAction_sniffer
	.section	.text.stateIdleEnter,"ax",@progbits
	.align	1
	.type	stateIdleEnter, @function
stateIdleEnter:
.LFB44:
	.loc 1 757 1
	.cfi_startproc
	addi	sp,sp,-32
	.cfi_def_cfa_offset 32
	sw	ra,28(sp)
	sw	s0,24(sp)
	.cfi_offset 1, -4
	.cfi_offset 8, -8
	addi	s0,sp,32
	.cfi_def_cfa 8, 0
	sw	a0,-20(s0)
	sw	a1,-24(s0)
	.loc 1 758 4
	lw	a1,-20(s0)
	lui	a5,%hi(.LC28)
	addi	a0,a5,%lo(.LC28)
	call	printf
	.loc 1 759 1
	nop
	lw	ra,28(sp)
	.cfi_restore 1
	lw	s0,24(sp)
	.cfi_restore 8
	.cfi_def_cfa 2, 32
	addi	sp,sp,32
	.cfi_def_cfa_offset 0
	jr	ra
	.cfi_endproc
.LFE44:
	.size	stateIdleEnter, .-stateIdleEnter
	.section	.text.stateIdleExit,"ax",@progbits
	.align	1
	.type	stateIdleExit, @function
stateIdleExit:
.LFB45:
	.loc 1 762 1
	.cfi_startproc
	addi	sp,sp,-32
	.cfi_def_cfa_offset 32
	sw	ra,28(sp)
	sw	s0,24(sp)
	.cfi_offset 1, -4
	.cfi_offset 8, -8
	addi	s0,sp,32
	.cfi_def_cfa 8, 0
	sw	a0,-20(s0)
	sw	a1,-24(s0)
	.loc 1 763 4
	lw	a1,-20(s0)
	lui	a5,%hi(.LC28)
	addi	a0,a5,%lo(.LC28)
	call	printf
	.loc 1 764 1
	nop
	lw	ra,28(sp)
	.cfi_restore 1
	lw	s0,24(sp)
	.cfi_restore 8
	.cfi_def_cfa 2, 32
	addi	sp,sp,32
	.cfi_def_cfa_offset 0
	jr	ra
	.cfi_endproc
.LFE45:
	.size	stateIdleExit, .-stateIdleExit
	.section	.data.__compound_literal.3,"aw"
	.align	2
	.type	__compound_literal.3, @object
	.size	__compound_literal.3, 40
__compound_literal.3:
	.word	1
	.word	1
	.word	stateIdleGuard_connect
	.word	stateIdleAction_connect
	.word	stateConnecting
	.word	1
	.word	2
	.word	stateIdleGuard_sniffer
	.word	stateIdleAction_sniffer
	.word	stateSniffer
	.section	.rodata
	.align	2
.LC55:
	.string	"[WF][SM] state mismatch\r\n"
	.section	.text.stateIfaceDownGuard_phyup,"ax",@progbits
	.align	1
	.type	stateIfaceDownGuard_phyup, @function
stateIfaceDownGuard_phyup:
.LFB46:
	.loc 1 784 1
	.cfi_startproc
	addi	sp,sp,-48
	.cfi_def_cfa_offset 48
	sw	ra,44(sp)
	sw	s0,40(sp)
	.cfi_offset 1, -4
	.cfi_offset 8, -8
	addi	s0,sp,48
	.cfi_def_cfa 8, 0
	sw	a0,-36(s0)
	sw	a1,-40(s0)
	.loc 1 788 9
	lw	a5,-40(s0)
	lw	a5,4(a5)
	sw	a5,-20(s0)
	.loc 1 789 25
	lw	a5,-20(s0)
	lbu	a5,0(a5)
	.loc 1 789 15
	mv	a4,a5
	.loc 1 789 8
	lw	a5,-36(s0)
	beq	a5,a4,.L127
	.loc 1 790 9
	lui	a5,%hi(.LC55)
	addi	a0,a5,%lo(.LC55)
	call	printf
	.loc 1 791 16
	li	a5,0
	j	.L128
.L127:
	.loc 1 795 13
	call	bl_main_phy_up
	sw	a0,-24(s0)
	.loc 1 796 8
	lw	a5,-24(s0)
	beq	a5,zero,.L129
	.loc 1 797 16
	li	a5,0
	j	.L128
.L129:
	.loc 1 799 12
	li	a5,1
.L128:
	.loc 1 800 1
	mv	a0,a5
	lw	ra,44(sp)
	.cfi_restore 1
	lw	s0,40(sp)
	.cfi_restore 8
	.cfi_def_cfa 2, 48
	addi	sp,sp,48
	.cfi_def_cfa_offset 0
	jr	ra
	.cfi_endproc
.LFE46:
	.size	stateIfaceDownGuard_phyup, .-stateIfaceDownGuard_phyup
	.section	.text.stateIfaceDownAction_phyup,"ax",@progbits
	.align	1
	.type	stateIfaceDownAction_phyup, @function
stateIfaceDownAction_phyup:
.LFB47:
	.loc 1 804 1
	.cfi_startproc
	addi	sp,sp,-32
	.cfi_def_cfa_offset 32
	sw	ra,28(sp)
	sw	s0,24(sp)
	.cfi_offset 1, -4
	.cfi_offset 8, -8
	addi	s0,sp,32
	.cfi_def_cfa 8, 0
	sw	a0,-20(s0)
	sw	a1,-24(s0)
	sw	a2,-28(s0)
	.loc 1 805 5
	lw	a2,-28(s0)
	lw	a1,-20(s0)
	lui	a5,%hi(.LC29)
	addi	a0,a5,%lo(.LC29)
	call	printf
	.loc 1 809 1
	nop
	lw	ra,28(sp)
	.cfi_restore 1
	lw	s0,24(sp)
	.cfi_restore 8
	.cfi_def_cfa 2, 32
	addi	sp,sp,32
	.cfi_def_cfa_offset 0
	jr	ra
	.cfi_endproc
.LFE47:
	.size	stateIfaceDownAction_phyup, .-stateIfaceDownAction_phyup
	.section	.text.stateIfaceDownEnter,"ax",@progbits
	.align	1
	.type	stateIfaceDownEnter, @function
stateIfaceDownEnter:
.LFB48:
	.loc 1 812 1
	.cfi_startproc
	addi	sp,sp,-32
	.cfi_def_cfa_offset 32
	sw	ra,28(sp)
	sw	s0,24(sp)
	.cfi_offset 1, -4
	.cfi_offset 8, -8
	addi	s0,sp,32
	.cfi_def_cfa 8, 0
	sw	a0,-20(s0)
	sw	a1,-24(s0)
	.loc 1 813 5
	lw	a1,-20(s0)
	lui	a5,%hi(.LC28)
	addi	a0,a5,%lo(.LC28)
	call	printf
	.loc 1 814 1
	nop
	lw	ra,28(sp)
	.cfi_restore 1
	lw	s0,24(sp)
	.cfi_restore 8
	.cfi_def_cfa 2, 32
	addi	sp,sp,32
	.cfi_def_cfa_offset 0
	jr	ra
	.cfi_endproc
.LFE48:
	.size	stateIfaceDownEnter, .-stateIfaceDownEnter
	.section	.text.stateIfaceDownExit,"ax",@progbits
	.align	1
	.type	stateIfaceDownExit, @function
stateIfaceDownExit:
.LFB49:
	.loc 1 817 1
	.cfi_startproc
	addi	sp,sp,-32
	.cfi_def_cfa_offset 32
	sw	ra,28(sp)
	sw	s0,24(sp)
	.cfi_offset 1, -4
	.cfi_offset 8, -8
	addi	s0,sp,32
	.cfi_def_cfa 8, 0
	sw	a0,-20(s0)
	sw	a1,-24(s0)
	.loc 1 818 5
	lw	a1,-20(s0)
	lui	a5,%hi(.LC30)
	addi	a0,a5,%lo(.LC30)
	call	printf
	.loc 1 819 1
	nop
	lw	ra,28(sp)
	.cfi_restore 1
	lw	s0,24(sp)
	.cfi_restore 8
	.cfi_def_cfa 2, 32
	addi	sp,sp,32
	.cfi_def_cfa_offset 0
	jr	ra
	.cfi_endproc
.LFE49:
	.size	stateIfaceDownExit, .-stateIfaceDownExit
	.section	.data.__compound_literal.4,"aw"
	.align	2
	.type	__compound_literal.4, @object
	.size	__compound_literal.4, 20
__compound_literal.4:
	.word	1
	.word	7
	.word	stateIfaceDownGuard_phyup
	.word	stateIfaceDownAction_phyup
	.word	stateIdle
	.section	.data.stateConnectedIPNo_data,"aw"
	.align	2
	.type	stateConnectedIPNo_data, @object
	.size	stateConnectedIPNo_data, 76
stateConnectedIPNo_data:
	.string	"wifiConnected_ipObtaining"
	.zero	6
	.zero	44
	.section	.data.state_tsen_reload_data,"aw"
	.align	2
	.type	state_tsen_reload_data, @object
	.size	state_tsen_reload_data, 76
state_tsen_reload_data:
	.string	"wifi tsen reload"
	.zero	15
	.zero	44
	.section	.text.stateConnectedIPNoGuard,"ax",@progbits
	.align	1
	.type	stateConnectedIPNoGuard, @function
stateConnectedIPNoGuard:
.LFB50:
	.loc 1 854 1
	.cfi_startproc
	addi	sp,sp,-48
	.cfi_def_cfa_offset 48
	sw	ra,44(sp)
	sw	s0,40(sp)
	.cfi_offset 1, -4
	.cfi_offset 8, -8
	addi	s0,sp,48
	.cfi_def_cfa 8, 0
	sw	a0,-36(s0)
	sw	a1,-40(s0)
	.loc 1 857 9
	lw	a5,-40(s0)
	lw	a5,4(a5)
	sw	a5,-20(s0)
	.loc 1 858 25
	lw	a5,-20(s0)
	lbu	a5,0(a5)
	.loc 1 858 15
	mv	a4,a5
	.loc 1 858 8
	lw	a5,-36(s0)
	bne	a5,a4,.L134
	.loc 1 859 16
	li	a5,1
	j	.L135
.L134:
	.loc 1 861 12
	li	a5,0
.L135:
	.loc 1 862 1
	mv	a0,a5
	lw	ra,44(sp)
	.cfi_restore 1
	lw	s0,40(sp)
	.cfi_restore 8
	.cfi_def_cfa 2, 48
	addi	sp,sp,48
	.cfi_def_cfa_offset 0
	jr	ra
	.cfi_endproc
.LFE50:
	.size	stateConnectedIPNoGuard, .-stateConnectedIPNoGuard
	.section	.text.stateConnectedIPNoGuard_disconnect,"ax",@progbits
	.align	1
	.type	stateConnectedIPNoGuard_disconnect, @function
stateConnectedIPNoGuard_disconnect:
.LFB51:
	.loc 1 865 1
	.cfi_startproc
	addi	sp,sp,-48
	.cfi_def_cfa_offset 48
	sw	ra,44(sp)
	sw	s0,40(sp)
	.cfi_offset 1, -4
	.cfi_offset 8, -8
	addi	s0,sp,48
	.cfi_def_cfa 8, 0
	sw	a0,-36(s0)
	sw	a1,-40(s0)
	.loc 1 868 9
	lw	a5,-40(s0)
	lw	a5,4(a5)
	sw	a5,-20(s0)
	.loc 1 869 25
	lw	a5,-20(s0)
	lbu	a5,0(a5)
	.loc 1 869 15
	mv	a4,a5
	.loc 1 869 8
	lw	a5,-36(s0)
	beq	a5,a4,.L137
	.loc 1 870 16
	li	a5,0
	j	.L138
.L137:
	.loc 1 873 5
	call	bl_main_disconnect
	.loc 1 875 12
	li	a5,0
.L138:
	.loc 1 876 1
	mv	a0,a5
	lw	ra,44(sp)
	.cfi_restore 1
	lw	s0,40(sp)
	.cfi_restore 8
	.cfi_def_cfa 2, 48
	addi	sp,sp,48
	.cfi_def_cfa_offset 0
	jr	ra
	.cfi_endproc
.LFE51:
	.size	stateConnectedIPNoGuard_disconnect, .-stateConnectedIPNoGuard_disconnect
	.section	.rodata
	.align	2
.LC56:
	.string	"[WF][SM] IP GOT IP:%u.%u.%u.%u, MASK: %u.%u.%u.%u, Gateway: %u.%u.%u.%u, dns1: %u.%u.%u.%u, dns2: %u.%u.%u.%u\r\n"
	.section	.text.stateConnectedIPNoAction_ipgot,"ax",@progbits
	.align	1
	.type	stateConnectedIPNoAction_ipgot, @function
stateConnectedIPNoAction_ipgot:
.LFB52:
	.loc 1 880 1
	.cfi_startproc
	addi	sp,sp,-144
	.cfi_def_cfa_offset 144
	sw	ra,140(sp)
	sw	s0,136(sp)
	sw	s1,132(sp)
	sw	s2,128(sp)
	sw	s3,124(sp)
	sw	s4,120(sp)
	sw	s5,116(sp)
	sw	s6,112(sp)
	sw	s7,108(sp)
	.cfi_offset 1, -4
	.cfi_offset 8, -8
	.cfi_offset 9, -12
	.cfi_offset 18, -16
	.cfi_offset 19, -20
	.cfi_offset 20, -24
	.cfi_offset 21, -28
	.cfi_offset 22, -32
	.cfi_offset 23, -36
	addi	s0,sp,144
	.cfi_def_cfa 8, 0
	sw	a0,-68(s0)
	sw	a1,-72(s0)
	sw	a2,-76(s0)
	.loc 1 885 9
	lw	a5,-72(s0)
	lw	a5,4(a5)
	sw	a5,-52(s0)
	.loc 1 886 11
	lw	a5,-52(s0)
	addi	a5,a5,13
	sw	a5,-56(s0)
	.loc 1 887 165
	lw	a5,-56(s0)
	lbu	a4,0(a5)
	lbu	a3,1(a5)
	slli	a3,a3,8
	or	a4,a3,a4
	lbu	a3,2(a5)
	slli	a3,a3,16
	or	a4,a3,a4
	lbu	a5,3(a5)
	slli	a5,a5,24
	or	a5,a5,a4
	.loc 1 887 5
	andi	s1,a5,255
	.loc 1 887 212
	lw	a5,-56(s0)
	lbu	a4,0(a5)
	lbu	a3,1(a5)
	slli	a3,a3,8
	or	a4,a3,a4
	lbu	a3,2(a5)
	slli	a3,a3,16
	or	a4,a3,a4
	lbu	a5,3(a5)
	slli	a5,a5,24
	or	a5,a5,a4
	.loc 1 887 231
	srli	a5,a5,8
	.loc 1 887 5
	andi	s2,a5,255
	.loc 1 887 259
	lw	a5,-56(s0)
	lbu	a4,0(a5)
	lbu	a3,1(a5)
	slli	a3,a3,8
	or	a4,a3,a4
	lbu	a3,2(a5)
	slli	a3,a3,16
	or	a4,a3,a4
	lbu	a5,3(a5)
	slli	a5,a5,24
	or	a5,a5,a4
	.loc 1 887 278
	srli	a5,a5,16
	.loc 1 887 5
	andi	s3,a5,255
	.loc 1 887 307
	lw	a5,-56(s0)
	lbu	a4,0(a5)
	lbu	a3,1(a5)
	slli	a3,a3,8
	or	a4,a3,a4
	lbu	a3,2(a5)
	slli	a3,a3,16
	or	a4,a3,a4
	lbu	a5,3(a5)
	slli	a5,a5,24
	or	a5,a5,a4
	.loc 1 887 326
	srli	s4,a5,24
	.loc 1 887 355
	lw	a5,-56(s0)
	lbu	a4,4(a5)
	lbu	a3,5(a5)
	slli	a3,a3,8
	or	a4,a3,a4
	lbu	a3,6(a5)
	slli	a3,a3,16
	or	a4,a3,a4
	lbu	a5,7(a5)
	slli	a5,a5,24
	or	a5,a5,a4
	.loc 1 887 5
	andi	s5,a5,255
	.loc 1 887 404
	lw	a5,-56(s0)
	lbu	a4,4(a5)
	lbu	a3,5(a5)
	slli	a3,a3,8
	or	a4,a3,a4
	lbu	a3,6(a5)
	slli	a3,a3,16
	or	a4,a3,a4
	lbu	a5,7(a5)
	slli	a5,a5,24
	or	a5,a5,a4
	.loc 1 887 425
	srli	a5,a5,8
	.loc 1 887 5
	andi	s6,a5,255
	.loc 1 887 453
	lw	a5,-56(s0)
	lbu	a4,4(a5)
	lbu	a3,5(a5)
	slli	a3,a3,8
	or	a4,a3,a4
	lbu	a3,6(a5)
	slli	a3,a3,16
	or	a4,a3,a4
	lbu	a5,7(a5)
	slli	a5,a5,24
	or	a5,a5,a4
	.loc 1 887 474
	srli	a5,a5,16
	.loc 1 887 5
	andi	s7,a5,255
	.loc 1 887 503
	lw	a5,-56(s0)
	lbu	a4,4(a5)
	lbu	a3,5(a5)
	slli	a3,a3,8
	or	a4,a3,a4
	lbu	a3,6(a5)
	slli	a3,a3,16
	or	a4,a3,a4
	lbu	a5,7(a5)
	slli	a5,a5,24
	or	a5,a5,a4
	.loc 1 887 524
	srli	a4,a5,24
	.loc 1 887 553
	lw	a5,-56(s0)
	lbu	a3,8(a5)
	lbu	a2,9(a5)
	slli	a2,a2,8
	or	a3,a2,a3
	lbu	a2,10(a5)
	slli	a2,a2,16
	or	a3,a2,a3
	lbu	a5,11(a5)
	slli	a5,a5,24
	or	a5,a5,a3
	.loc 1 887 5
	andi	a3,a5,255
	.loc 1 887 600
	lw	a5,-56(s0)
	lbu	a2,8(a5)
	lbu	a1,9(a5)
	slli	a1,a1,8
	or	a2,a1,a2
	lbu	a1,10(a5)
	slli	a1,a1,16
	or	a2,a1,a2
	lbu	a5,11(a5)
	slli	a5,a5,24
	or	a5,a5,a2
	.loc 1 887 619
	srli	a5,a5,8
	.loc 1 887 5
	andi	a2,a5,255
	.loc 1 887 647
	lw	a5,-56(s0)
	lbu	a1,8(a5)
	lbu	a0,9(a5)
	slli	a0,a0,8
	or	a1,a0,a1
	lbu	a0,10(a5)
	slli	a0,a0,16
	or	a1,a0,a1
	lbu	a5,11(a5)
	slli	a5,a5,24
	or	a5,a5,a1
	.loc 1 887 666
	srli	a5,a5,16
	.loc 1 887 5
	andi	a1,a5,255
	.loc 1 887 695
	lw	a5,-56(s0)
	lbu	a0,8(a5)
	lbu	a6,9(a5)
	slli	a6,a6,8
	or	a0,a6,a0
	lbu	a6,10(a5)
	slli	a6,a6,16
	or	a0,a6,a0
	lbu	a5,11(a5)
	slli	a5,a5,24
	or	a5,a5,a0
	.loc 1 887 714
	srli	a0,a5,24
	.loc 1 887 743
	lw	a5,-56(s0)
	lbu	a6,12(a5)
	lbu	a7,13(a5)
	slli	a7,a7,8
	or	a6,a7,a6
	lbu	a7,14(a5)
	slli	a7,a7,16
	or	a6,a7,a6
	lbu	a5,15(a5)
	slli	a5,a5,24
	or	a5,a5,a6
	.loc 1 887 5
	andi	a6,a5,255
	.loc 1 887 792
	lw	a5,-56(s0)
	lbu	a7,12(a5)
	lbu	t1,13(a5)
	slli	t1,t1,8
	or	a7,t1,a7
	lbu	t1,14(a5)
	slli	t1,t1,16
	or	a7,t1,a7
	lbu	a5,15(a5)
	slli	a5,a5,24
	or	a5,a5,a7
	.loc 1 887 813
	srli	a5,a5,8
	.loc 1 887 5
	andi	a7,a5,255
	.loc 1 887 841
	lw	a5,-56(s0)
	lbu	t1,12(a5)
	lbu	t3,13(a5)
	slli	t3,t3,8
	or	t1,t3,t1
	lbu	t3,14(a5)
	slli	t3,t3,16
	or	t1,t3,t1
	lbu	a5,15(a5)
	slli	a5,a5,24
	or	a5,a5,t1
	.loc 1 887 862
	srli	a5,a5,16
	.loc 1 887 5
	andi	t1,a5,255
	.loc 1 887 891
	lw	a5,-56(s0)
	lbu	t3,12(a5)
	lbu	t4,13(a5)
	slli	t4,t4,8
	or	t3,t4,t3
	lbu	t4,14(a5)
	slli	t4,t4,16
	or	t3,t4,t3
	lbu	a5,15(a5)
	slli	a5,a5,24
	or	a5,a5,t3
	.loc 1 887 912
	srli	t3,a5,24
	.loc 1 887 941
	lw	a5,-56(s0)
	lbu	t4,16(a5)
	lbu	t5,17(a5)
	slli	t5,t5,8
	or	t4,t5,t4
	lbu	t5,18(a5)
	slli	t5,t5,16
	or	t4,t5,t4
	lbu	a5,19(a5)
	slli	a5,a5,24
	or	a5,a5,t4
	.loc 1 887 5
	andi	t4,a5,255
	.loc 1 887 990
	lw	a5,-56(s0)
	lbu	t5,16(a5)
	lbu	t6,17(a5)
	slli	t6,t6,8
	or	t5,t6,t5
	lbu	t6,18(a5)
	slli	t6,t6,16
	or	t5,t6,t5
	lbu	a5,19(a5)
	slli	a5,a5,24
	or	a5,a5,t5
	.loc 1 887 1011
	srli	a5,a5,8
	.loc 1 887 5
	andi	t5,a5,255
	.loc 1 887 1039
	lw	a5,-56(s0)
	lbu	t6,16(a5)
	lbu	t0,17(a5)
	slli	t0,t0,8
	or	t6,t0,t6
	lbu	t0,18(a5)
	slli	t0,t0,16
	or	t6,t0,t6
	lbu	a5,19(a5)
	slli	a5,a5,24
	or	a5,a5,t6
	.loc 1 887 1060
	srli	a5,a5,16
	.loc 1 887 5
	andi	t6,a5,255
	.loc 1 887 1089
	lw	a5,-56(s0)
	lbu	t0,16(a5)
	lbu	t2,17(a5)
	slli	t2,t2,8
	or	t0,t2,t0
	lbu	t2,18(a5)
	slli	t2,t2,16
	or	t0,t2,t0
	lbu	a5,19(a5)
	slli	a5,a5,24
	or	a5,a5,t0
	.loc 1 887 1110
	srli	a5,a5,24
	.loc 1 887 5
	sw	a5,48(sp)
	sw	t6,44(sp)
	sw	t5,40(sp)
	sw	t4,36(sp)
	sw	t3,32(sp)
	sw	t1,28(sp)
	sw	a7,24(sp)
	sw	a6,20(sp)
	sw	a0,16(sp)
	sw	a1,12(sp)
	sw	a2,8(sp)
	sw	a3,4(sp)
	sw	a4,0(sp)
	mv	a7,s7
	mv	a6,s6
	mv	a5,s5
	mv	a4,s4
	mv	a3,s3
	mv	a2,s2
	mv	a1,s1
	lui	a0,%hi(.LC56)
	addi	a0,a0,%lo(.LC56)
	call	printf
	.loc 1 914 5
	lw	a2,-76(s0)
	lw	a1,-68(s0)
	lui	a5,%hi(.LC29)
	addi	a0,a5,%lo(.LC29)
	call	printf
	.loc 1 918 1
	nop
	lw	ra,140(sp)
	.cfi_restore 1
	lw	s0,136(sp)
	.cfi_restore 8
	.cfi_def_cfa 2, 144
	lw	s1,132(sp)
	.cfi_restore 9
	lw	s2,128(sp)
	.cfi_restore 18
	lw	s3,124(sp)
	.cfi_restore 19
	lw	s4,120(sp)
	.cfi_restore 20
	lw	s5,116(sp)
	.cfi_restore 21
	lw	s6,112(sp)
	.cfi_restore 22
	lw	s7,108(sp)
	.cfi_restore 23
	addi	sp,sp,144
	.cfi_def_cfa_offset 0
	jr	ra
	.cfi_endproc
.LFE52:
	.size	stateConnectedIPNoAction_ipgot, .-stateConnectedIPNoAction_ipgot
	.section	.text.stateConnectedIPNoAction_disconnect,"ax",@progbits
	.align	1
	.type	stateConnectedIPNoAction_disconnect, @function
stateConnectedIPNoAction_disconnect:
.LFB53:
	.loc 1 922 1
	.cfi_startproc
	addi	sp,sp,-32
	.cfi_def_cfa_offset 32
	sw	ra,28(sp)
	sw	s0,24(sp)
	.cfi_offset 1, -4
	.cfi_offset 8, -8
	addi	s0,sp,32
	.cfi_def_cfa 8, 0
	sw	a0,-20(s0)
	sw	a1,-24(s0)
	sw	a2,-28(s0)
	.loc 1 923 5
	lw	a2,-28(s0)
	lw	a1,-20(s0)
	lui	a5,%hi(.LC29)
	addi	a0,a5,%lo(.LC29)
	call	printf
	.loc 1 927 1
	nop
	lw	ra,28(sp)
	.cfi_restore 1
	lw	s0,24(sp)
	.cfi_restore 8
	.cfi_def_cfa 2, 32
	addi	sp,sp,32
	.cfi_def_cfa_offset 0
	jr	ra
	.cfi_endproc
.LFE53:
	.size	stateConnectedIPNoAction_disconnect, .-stateConnectedIPNoAction_disconnect
	.section	.rodata
	.align	2
.LC57:
	.string	"[WF][SM] IP obtaining timeout\r\n"
	.section	.text.ip_obtaining_timeout,"ax",@progbits
	.align	1
	.type	ip_obtaining_timeout, @function
ip_obtaining_timeout:
.LFB54:
	.loc 1 930 1
	.cfi_startproc
	addi	sp,sp,-48
	.cfi_def_cfa_offset 48
	sw	ra,44(sp)
	sw	s0,40(sp)
	.cfi_offset 1, -4
	.cfi_offset 8, -8
	addi	s0,sp,48
	.cfi_def_cfa 8, 0
	sw	a0,-36(s0)
	.loc 1 931 38
	lw	a0,-36(s0)
	call	pvTimerGetTimerID
	sw	a0,-20(s0)
	.loc 1 936 5
	lui	a5,%hi(.LC57)
	addi	a0,a5,%lo(.LC57)
	call	printf
	.loc 1 937 5
	call	wifi_mgmr_api_fw_disconnect
	.loc 1 938 1
	nop
	lw	ra,44(sp)
	.cfi_restore 1
	lw	s0,40(sp)
	.cfi_restore 8
	.cfi_def_cfa 2, 48
	addi	sp,sp,48
	.cfi_def_cfa_offset 0
	jr	ra
	.cfi_endproc
.LFE54:
	.size	ip_obtaining_timeout, .-ip_obtaining_timeout
	.section	.text.__reload_tsen,"ax",@progbits
	.align	1
	.type	__reload_tsen, @function
__reload_tsen:
.LFB55:
	.loc 1 941 1
	.cfi_startproc
	addi	sp,sp,-48
	.cfi_def_cfa_offset 48
	sw	ra,44(sp)
	sw	s0,40(sp)
	.cfi_offset 1, -4
	.cfi_offset 8, -8
	addi	s0,sp,48
	.cfi_def_cfa 8, 0
	sw	a0,-36(s0)
	.loc 1 942 27
	lw	a0,-36(s0)
	call	pvTimerGetTimerID
	sw	a0,-20(s0)
	.loc 1 946 5
	call	wifi_mgmr_api_fw_tsen_reload
	.loc 1 947 1
	nop
	lw	ra,44(sp)
	.cfi_restore 1
	lw	s0,40(sp)
	.cfi_restore 8
	.cfi_def_cfa 2, 48
	addi	sp,sp,48
	.cfi_def_cfa_offset 0
	jr	ra
	.cfi_endproc
.LFE55:
	.size	__reload_tsen, .-__reload_tsen
	.section	.text.__run_reload_tsen,"ax",@progbits
	.align	1
	.type	__run_reload_tsen, @function
__run_reload_tsen:
.LFB56:
	.loc 1 950 1
	.cfi_startproc
	addi	sp,sp,-32
	.cfi_def_cfa_offset 32
	sw	ra,28(sp)
	sw	s0,24(sp)
	.cfi_offset 1, -4
	.cfi_offset 8, -8
	addi	s0,sp,32
	.cfi_def_cfa 8, 0
	.loc 1 951 13
	sh	zero,-18(s0)
	.loc 1 954 39
	lui	a5,%hi(wifiMgmr)
	addi	a4,a5,%lo(wifiMgmr)
	li	a5,4096
	add	a5,a4,a5
	lw	a4,1832(a5)
	.loc 1 954 8
	lui	a5,%hi(stateConnecting)
	addi	a5,a5,%lo(stateConnecting)
	beq	a4,a5,.L144
	.loc 1 954 86 discriminator 1
	lui	a5,%hi(wifiMgmr)
	addi	a4,a5,%lo(wifiMgmr)
	li	a5,4096
	add	a5,a4,a5
	lw	a4,1832(a5)
	.loc 1 954 53 discriminator 1
	lui	a5,%hi(stateDisconnect)
	addi	a5,a5,%lo(stateDisconnect)
	beq	a4,a5,.L144
	.loc 1 954 137 discriminator 2
	lui	a5,%hi(wifiMgmr)
	addi	a4,a5,%lo(wifiMgmr)
	li	a5,4096
	add	a5,a4,a5
	lw	a4,1832(a5)
	.loc 1 954 100 discriminator 2
	lui	a5,%hi(stateConnectedIPYes)
	addi	a5,a5,%lo(stateConnectedIPYes)
	beq	a4,a5,.L144
	.loc 1 955 40
	lui	a5,%hi(wifiMgmr)
	addi	a4,a5,%lo(wifiMgmr)
	li	a5,4096
	add	a5,a4,a5
	lw	a4,1832(a5)
	.loc 1 954 151 discriminator 3
	lui	a5,%hi(stateSniffer)
	addi	a5,a5,%lo(stateSniffer)
	beq	a4,a5,.L144
	.loc 1 955 90
	lui	a5,%hi(wifiMgmr)
	addi	a4,a5,%lo(wifiMgmr)
	li	a5,4096
	add	a5,a4,a5
	lw	a4,1832(a5)
	.loc 1 955 54
	lui	a5,%hi(stateConnectedIPNo)
	addi	a5,a5,%lo(stateConnectedIPNo)
	bne	a4,a5,.L148
.L144:
	.loc 1 956 9
	addi	a5,s0,-18
	li	a1,0
	mv	a0,a5
	call	bl_tsen_adc_get
	.loc 1 957 9
	lh	a5,-18(s0)
	mv	a0,a5
	call	phy_tcal_callback
	.loc 1 959 9
	j	.L143
.L148:
	.loc 1 962 5
	nop
.L143:
	.loc 1 964 1
	lw	ra,28(sp)
	.cfi_restore 1
	lw	s0,24(sp)
	.cfi_restore 8
	.cfi_def_cfa 2, 32
	addi	sp,sp,32
	.cfi_def_cfa_offset 0
	jr	ra
	.cfi_endproc
.LFE56:
	.size	__run_reload_tsen, .-__run_reload_tsen
	.section	.rodata
	.align	2
.LC58:
	.string	"[WF][SM] Static IP Starting...%p\r\n"
	.align	2
.LC59:
	.string	"[WF][SM] DHCP Starting...%p\r\n"
	.section	.text.__sta_setup_ip,"ax",@progbits
	.align	1
	.type	__sta_setup_ip, @function
__sta_setup_ip:
.LFB57:
	.loc 1 968 1
	.cfi_startproc
	addi	sp,sp,-48
	.cfi_def_cfa_offset 48
	sw	ra,44(sp)
	sw	s0,40(sp)
	.cfi_offset 1, -4
	.cfi_offset 8, -8
	addi	s0,sp,48
	.cfi_def_cfa 8, 0
	.loc 1 974 5
	call	vTaskEnterCritical
	.loc 1 975 8
	lui	a5,%hi(wifiMgmr)
	addi	a5,a5,%lo(wifiMgmr)
	lw	a5,24(a5)
	sw	a5,-20(s0)
	.loc 1 976 10
	lui	a5,%hi(wifiMgmr)
	addi	a5,a5,%lo(wifiMgmr)
	lw	a5,28(a5)
	sw	a5,-24(s0)
	.loc 1 977 8
	lui	a5,%hi(wifiMgmr)
	addi	a5,a5,%lo(wifiMgmr)
	lw	a5,32(a5)
	sw	a5,-28(s0)
	.loc 1 978 10
	lui	a5,%hi(wifiMgmr)
	addi	a5,a5,%lo(wifiMgmr)
	lw	a5,36(a5)
	sw	a5,-32(s0)
	.loc 1 979 10
	lui	a5,%hi(wifiMgmr)
	addi	a5,a5,%lo(wifiMgmr)
	lw	a5,40(a5)
	sw	a5,-36(s0)
	.loc 1 980 5
	call	vTaskExitCritical
	.loc 1 982 8
	lw	a5,-20(s0)
	beq	a5,zero,.L150
	.loc 1 984 9
	lui	a5,%hi(wifiMgmr+44)
	addi	a1,a5,%lo(wifiMgmr+44)
	lui	a5,%hi(.LC58)
	addi	a0,a5,%lo(.LC58)
	call	printf
	.loc 1 986 31
	lw	a5,-32(s0)
	sw	a5,-40(s0)
	.loc 1 987 9
	addi	a5,s0,-40
	mv	a1,a5
	li	a0,0
	call	dns_setserver
	.loc 1 988 31
	lw	a5,-36(s0)
	sw	a5,-40(s0)
	.loc 1 989 9
	addi	a5,s0,-40
	mv	a1,a5
	li	a0,1
	call	dns_setserver
	.loc 1 991 31
	lw	a5,-20(s0)
	sw	a5,-40(s0)
	.loc 1 992 32
	lw	a5,-24(s0)
	sw	a5,-44(s0)
	.loc 1 993 27
	lw	a5,-28(s0)
	sw	a5,-48(s0)
	.loc 1 994 9
	li	a2,0
	lui	a5,%hi(dhcp_stop)
	addi	a1,a5,%lo(dhcp_stop)
	lui	a5,%hi(wifiMgmr+44)
	addi	a0,a5,%lo(wifiMgmr+44)
	call	netifapi_netif_common
	.loc 1 995 9
	addi	a3,s0,-48
	addi	a4,s0,-44
	addi	a5,s0,-40
	mv	a2,a4
	mv	a1,a5
	lui	a5,%hi(wifiMgmr+44)
	addi	a0,a5,%lo(wifiMgmr+44)
	call	netifapi_netif_set_addr
	.loc 1 1001 1
	j	.L152
.L150:
	.loc 1 998 9
	lui	a5,%hi(wifiMgmr+44)
	addi	a1,a5,%lo(wifiMgmr+44)
	lui	a5,%hi(.LC59)
	addi	a0,a5,%lo(.LC59)
	call	printf
	.loc 1 999 9
	lui	a5,%hi(wifiMgmr+44)
	addi	a0,a5,%lo(wifiMgmr+44)
	call	wifi_netif_dhcp_start
.L152:
	.loc 1 1001 1
	nop
	lw	ra,44(sp)
	.cfi_restore 1
	lw	s0,40(sp)
	.cfi_restore 8
	.cfi_def_cfa 2, 48
	addi	sp,sp,48
	.cfi_def_cfa_offset 0
	jr	ra
	.cfi_endproc
.LFE57:
	.size	__sta_setup_ip, .-__sta_setup_ip
	.section	.rodata
	.align	2
.LC60:
	.string	"wifi IP obtaining"
	.section	.text.stateConnectedIPNoEnter,"ax",@progbits
	.align	1
	.type	stateConnectedIPNoEnter, @function
stateConnectedIPNoEnter:
.LFB58:
	.loc 1 1004 1
	.cfi_startproc
	addi	sp,sp,-48
	.cfi_def_cfa_offset 48
	sw	ra,44(sp)
	sw	s0,40(sp)
	sw	s1,36(sp)
	.cfi_offset 1, -4
	.cfi_offset 8, -8
	.cfi_offset 9, -12
	addi	s0,sp,48
	.cfi_def_cfa 8, 0
	sw	a0,-36(s0)
	sw	a1,-40(s0)
	.loc 1 1007 29
	lw	a5,-36(s0)
	sw	a5,-20(s0)
	.loc 1 1008 72
	lw	a5,-20(s0)
	.loc 1 1008 5
	mv	a1,a5
	lui	a5,%hi(.LC28)
	addi	a0,a5,%lo(.LC28)
	call	printf
	.loc 1 1009 122
	lw	a5,-20(s0)
	addi	a5,a5,32
	.loc 1 1009 5
	lui	a4,%hi(ip_obtaining_timeout)
	addi	a4,a4,%lo(ip_obtaining_timeout)
	lw	a3,-20(s0)
	li	a2,0
	li	a1,16384
	addi	a1,a1,-1384
	lui	a0,%hi(.LC60)
	addi	a0,a0,%lo(.LC60)
	call	xTimerCreateStatic
	.loc 1 1016 44
	lw	a5,-20(s0)
	addi	s1,a5,32
	.loc 1 1016 105
	call	xTaskGetTickCount
	mv	a5,a0
	.loc 1 1016 5 discriminator 1
	li	a4,-1
	li	a3,0
	mv	a2,a5
	li	a1,1
	mv	a0,s1
	call	xTimerGenericCommand
	.loc 1 1017 5
	call	__sta_setup_ip
	.loc 1 1018 5
	li	a2,0
	li	a1,4
	li	a0,2
	call	aos_post_event
	.loc 1 1019 1
	nop
	lw	ra,44(sp)
	.cfi_restore 1
	lw	s0,40(sp)
	.cfi_restore 8
	.cfi_def_cfa 2, 48
	lw	s1,36(sp)
	.cfi_restore 9
	addi	sp,sp,48
	.cfi_def_cfa_offset 0
	jr	ra
	.cfi_endproc
.LFE58:
	.size	stateConnectedIPNoEnter, .-stateConnectedIPNoEnter
	.section	.rodata
	.align	2
.LC61:
	.string	"[WF][SM] reload tsen \r\n"
	.align	2
.LC62:
	.string	"wifi reload tsen"
	.section	.text.periodic_tsen_reload,"ax",@progbits
	.align	1
	.type	periodic_tsen_reload, @function
periodic_tsen_reload:
.LFB59:
	.loc 1 1022 1
	.cfi_startproc
	addi	sp,sp,-48
	.cfi_def_cfa_offset 48
	sw	ra,44(sp)
	sw	s0,40(sp)
	sw	s1,36(sp)
	.cfi_offset 1, -4
	.cfi_offset 8, -8
	.cfi_offset 9, -12
	addi	s0,sp,48
	.cfi_def_cfa 8, 0
	sw	a0,-36(s0)
	sw	a1,-40(s0)
	.loc 1 1025 21
	lw	a5,-36(s0)
	sw	a5,-20(s0)
	.loc 1 1026 5
	lui	a5,%hi(.LC61)
	addi	a0,a5,%lo(.LC61)
	call	printf
	.loc 1 1027 108
	lw	a5,-20(s0)
	addi	a5,a5,32
	.loc 1 1027 5
	lui	a4,%hi(__reload_tsen)
	addi	a4,a4,%lo(__reload_tsen)
	lw	a3,-20(s0)
	li	a2,1
	li	a1,8192
	addi	a1,a1,1808
	lui	a0,%hi(.LC62)
	addi	a0,a0,%lo(.LC62)
	call	xTimerCreateStatic
	.loc 1 1034 44
	lw	a5,-20(s0)
	addi	s1,a5,32
	.loc 1 1034 97
	call	xTaskGetTickCount
	mv	a5,a0
	.loc 1 1034 5 discriminator 1
	li	a4,-1
	li	a3,0
	mv	a2,a5
	li	a1,1
	mv	a0,s1
	call	xTimerGenericCommand
	.loc 1 1035 1
	nop
	lw	ra,44(sp)
	.cfi_restore 1
	lw	s0,40(sp)
	.cfi_restore 8
	.cfi_def_cfa 2, 48
	lw	s1,36(sp)
	.cfi_restore 9
	addi	sp,sp,48
	.cfi_def_cfa_offset 0
	jr	ra
	.cfi_endproc
.LFE59:
	.size	periodic_tsen_reload, .-periodic_tsen_reload
	.section	.text.stateConnectedIPNoExit,"ax",@progbits
	.align	1
	.type	stateConnectedIPNoExit, @function
stateConnectedIPNoExit:
.LFB60:
	.loc 1 1039 1
	.cfi_startproc
	addi	sp,sp,-48
	.cfi_def_cfa_offset 48
	sw	ra,44(sp)
	sw	s0,40(sp)
	.cfi_offset 1, -4
	.cfi_offset 8, -8
	addi	s0,sp,48
	.cfi_def_cfa 8, 0
	sw	a0,-36(s0)
	sw	a1,-40(s0)
	.loc 1 1042 29
	lw	a5,-36(s0)
	sw	a5,-20(s0)
	.loc 1 1043 71
	lw	a5,-20(s0)
	.loc 1 1043 5
	mv	a1,a5
	lui	a5,%hi(.LC30)
	addi	a0,a5,%lo(.LC30)
	call	printf
	.loc 1 1044 49
	lw	a5,-20(s0)
	addi	a5,a5,32
	.loc 1 1044 10
	li	a4,0
	li	a3,0
	li	a2,0
	li	a1,3
	mv	a0,a5
	call	xTimerGenericCommand
	.loc 1 1044 54 discriminator 1
	lw	a5,-20(s0)
	addi	a5,a5,32
	.loc 1 1044 15 discriminator 1
	li	a4,0
	li	a3,0
	li	a2,0
	li	a1,5
	mv	a0,a5
	call	xTimerGenericCommand
	.loc 1 1045 1
	nop
	lw	ra,44(sp)
	.cfi_restore 1
	lw	s0,40(sp)
	.cfi_restore 8
	.cfi_def_cfa 2, 48
	addi	sp,sp,48
	.cfi_def_cfa_offset 0
	jr	ra
	.cfi_endproc
.LFE60:
	.size	stateConnectedIPNoExit, .-stateConnectedIPNoExit
	.section	.data.__compound_literal.5,"aw"
	.align	2
	.type	__compound_literal.5, @object
	.size	__compound_literal.5, 60
__compound_literal.5:
	.word	1
	.word	4
	.word	stateConnectedIPNoGuard
	.word	stateConnectedIPNoAction_ipgot
	.word	stateConnectedIPYes
	.word	1
	.word	5
	.word	stateConnectedIPNoGuard_disconnect
	.word	stateConnectedIPNoAction_disconnect
	.word	stateDisconnect
	.word	0
	.word	19
	.word	stateConnectedIPNoGuard
	.word	stateConnectedIPNoAction_disconnect
	.word	stateDisconnect
	.section	.text.stateConnectedIPYesGuard,"ax",@progbits
	.align	1
	.type	stateConnectedIPYesGuard, @function
stateConnectedIPYesGuard:
.LFB61:
	.loc 1 1068 1
	.cfi_startproc
	addi	sp,sp,-48
	.cfi_def_cfa_offset 48
	sw	ra,44(sp)
	sw	s0,40(sp)
	.cfi_offset 1, -4
	.cfi_offset 8, -8
	addi	s0,sp,48
	.cfi_def_cfa 8, 0
	sw	a0,-36(s0)
	sw	a1,-40(s0)
	.loc 1 1071 9
	lw	a5,-40(s0)
	lw	a5,4(a5)
	sw	a5,-20(s0)
	.loc 1 1072 25
	lw	a5,-20(s0)
	lbu	a5,0(a5)
	.loc 1 1072 15
	mv	a4,a5
	.loc 1 1072 8
	lw	a5,-36(s0)
	bne	a5,a4,.L157
	.loc 1 1073 16
	li	a5,1
	j	.L158
.L157:
	.loc 1 1075 12
	li	a5,0
.L158:
	.loc 1 1076 1
	mv	a0,a5
	lw	ra,44(sp)
	.cfi_restore 1
	lw	s0,40(sp)
	.cfi_restore 8
	.cfi_def_cfa 2, 48
	addi	sp,sp,48
	.cfi_def_cfa_offset 0
	jr	ra
	.cfi_endproc
.LFE61:
	.size	stateConnectedIPYesGuard, .-stateConnectedIPYesGuard
	.section	.text.stateConnectedIPYesGuard_ip_update,"ax",@progbits
	.align	1
	.type	stateConnectedIPYesGuard_ip_update, @function
stateConnectedIPYesGuard_ip_update:
.LFB62:
	.loc 1 1079 1
	.cfi_startproc
	addi	sp,sp,-48
	.cfi_def_cfa_offset 48
	sw	ra,44(sp)
	sw	s0,40(sp)
	.cfi_offset 1, -4
	.cfi_offset 8, -8
	addi	s0,sp,48
	.cfi_def_cfa 8, 0
	sw	a0,-36(s0)
	sw	a1,-40(s0)
	.loc 1 1082 9
	lw	a5,-40(s0)
	lw	a5,4(a5)
	sw	a5,-20(s0)
	.loc 1 1083 25
	lw	a5,-20(s0)
	lbu	a5,0(a5)
	.loc 1 1083 15
	mv	a4,a5
	.loc 1 1083 8
	lw	a5,-36(s0)
	beq	a5,a4,.L160
	.loc 1 1084 16
	li	a5,0
	j	.L161
.L160:
	.loc 1 1087 12
	li	a5,1
.L161:
	.loc 1 1088 1
	mv	a0,a5
	lw	ra,44(sp)
	.cfi_restore 1
	lw	s0,40(sp)
	.cfi_restore 8
	.cfi_def_cfa 2, 48
	addi	sp,sp,48
	.cfi_def_cfa_offset 0
	jr	ra
	.cfi_endproc
.LFE62:
	.size	stateConnectedIPYesGuard_ip_update, .-stateConnectedIPYesGuard_ip_update
	.section	.text.stateConnectedIPYesGuard_disconnect,"ax",@progbits
	.align	1
	.type	stateConnectedIPYesGuard_disconnect, @function
stateConnectedIPYesGuard_disconnect:
.LFB63:
	.loc 1 1091 1
	.cfi_startproc
	addi	sp,sp,-48
	.cfi_def_cfa_offset 48
	sw	ra,44(sp)
	sw	s0,40(sp)
	.cfi_offset 1, -4
	.cfi_offset 8, -8
	addi	s0,sp,48
	.cfi_def_cfa 8, 0
	sw	a0,-36(s0)
	sw	a1,-40(s0)
	.loc 1 1094 9
	lw	a5,-40(s0)
	lw	a5,4(a5)
	sw	a5,-20(s0)
	.loc 1 1095 25
	lw	a5,-20(s0)
	lbu	a5,0(a5)
	.loc 1 1095 15
	mv	a4,a5
	.loc 1 1095 8
	lw	a5,-36(s0)
	beq	a5,a4,.L163
	.loc 1 1096 16
	li	a5,0
	j	.L164
.L163:
	.loc 1 1099 5
	call	bl_main_disconnect
	.loc 1 1101 12
	li	a5,0
.L164:
	.loc 1 1102 1
	mv	a0,a5
	lw	ra,44(sp)
	.cfi_restore 1
	lw	s0,40(sp)
	.cfi_restore 8
	.cfi_def_cfa 2, 48
	addi	sp,sp,48
	.cfi_def_cfa_offset 0
	jr	ra
	.cfi_endproc
.LFE63:
	.size	stateConnectedIPYesGuard_disconnect, .-stateConnectedIPYesGuard_disconnect
	.section	.rodata
	.align	2
.LC63:
	.string	"[WF][SM] rate config, use sta_idx 0, rate_config %04X\r\n"
	.section	.text.stateConnectedIPYesGuard_rcconfig,"ax",@progbits
	.align	1
	.type	stateConnectedIPYesGuard_rcconfig, @function
stateConnectedIPYesGuard_rcconfig:
.LFB64:
	.loc 1 1105 1
	.cfi_startproc
	addi	sp,sp,-48
	.cfi_def_cfa_offset 48
	sw	ra,44(sp)
	sw	s0,40(sp)
	.cfi_offset 1, -4
	.cfi_offset 8, -8
	addi	s0,sp,48
	.cfi_def_cfa 8, 0
	sw	a0,-36(s0)
	sw	a1,-40(s0)
	.loc 1 1108 9
	lw	a5,-40(s0)
	lw	a5,4(a5)
	sw	a5,-20(s0)
	.loc 1 1109 25
	lw	a5,-20(s0)
	lbu	a5,0(a5)
	.loc 1 1109 15
	mv	a4,a5
	.loc 1 1109 8
	lw	a5,-36(s0)
	beq	a5,a4,.L166
	.loc 1 1110 16
	li	a5,0
	j	.L167
.L166:
	.loc 1 1113 94
	lw	a5,-20(s0)
	lbu	a4,1(a5)
	lbu	a3,2(a5)
	slli	a3,a3,8
	or	a4,a3,a4
	lbu	a3,3(a5)
	slli	a3,a3,16
	or	a4,a3,a4
	lbu	a5,4(a5)
	slli	a5,a5,24
	or	a5,a5,a4
	.loc 1 1113 5
	mv	a1,a5
	lui	a5,%hi(.LC63)
	addi	a0,a5,%lo(.LC63)
	call	printf
	.loc 1 1114 41
	lw	a5,-20(s0)
	lbu	a4,1(a5)
	lbu	a3,2(a5)
	slli	a3,a3,8
	or	a4,a3,a4
	lbu	a3,3(a5)
	slli	a3,a3,16
	or	a4,a3,a4
	lbu	a5,4(a5)
	slli	a5,a5,24
	or	a5,a5,a4
	.loc 1 1114 5
	slli	a5,a5,16
	srli	a5,a5,16
	mv	a1,a5
	li	a0,0
	call	bl_main_rate_config
	.loc 1 1116 12
	li	a5,0
.L167:
	.loc 1 1117 1
	mv	a0,a5
	lw	ra,44(sp)
	.cfi_restore 1
	lw	s0,40(sp)
	.cfi_restore 8
	.cfi_def_cfa 2, 48
	addi	sp,sp,48
	.cfi_def_cfa_offset 0
	jr	ra
	.cfi_endproc
.LFE64:
	.size	stateConnectedIPYesGuard_rcconfig, .-stateConnectedIPYesGuard_rcconfig
	.section	.text.stateConnectedIPYes_action,"ax",@progbits
	.align	1
	.type	stateConnectedIPYes_action, @function
stateConnectedIPYes_action:
.LFB65:
	.loc 1 1121 1
	.cfi_startproc
	addi	sp,sp,-32
	.cfi_def_cfa_offset 32
	sw	ra,28(sp)
	sw	s0,24(sp)
	.cfi_offset 1, -4
	.cfi_offset 8, -8
	addi	s0,sp,32
	.cfi_def_cfa 8, 0
	sw	a0,-20(s0)
	sw	a1,-24(s0)
	sw	a2,-28(s0)
	.loc 1 1122 5
	lw	a2,-28(s0)
	lw	a1,-20(s0)
	lui	a5,%hi(.LC29)
	addi	a0,a5,%lo(.LC29)
	call	printf
	.loc 1 1126 1
	nop
	lw	ra,28(sp)
	.cfi_restore 1
	lw	s0,24(sp)
	.cfi_restore 8
	.cfi_def_cfa 2, 32
	addi	sp,sp,32
	.cfi_def_cfa_offset 0
	jr	ra
	.cfi_endproc
.LFE65:
	.size	stateConnectedIPYes_action, .-stateConnectedIPYes_action
	.section	.rodata
	.align	2
.LC64:
	.string	"[WF][SM] Pending Scan Sent\r\n"
	.section	.text.stateConnectedIPYes_enter,"ax",@progbits
	.align	1
	.type	stateConnectedIPYes_enter, @function
stateConnectedIPYes_enter:
.LFB66:
	.loc 1 1129 1
	.cfi_startproc
	addi	sp,sp,-32
	.cfi_def_cfa_offset 32
	sw	ra,28(sp)
	sw	s0,24(sp)
	.cfi_offset 1, -4
	.cfi_offset 8, -8
	addi	s0,sp,32
	.cfi_def_cfa 8, 0
	sw	a0,-20(s0)
	sw	a1,-24(s0)
	.loc 1 1130 5
	lw	a1,-20(s0)
	lui	a5,%hi(.LC28)
	addi	a0,a5,%lo(.LC28)
	call	printf
	.loc 1 1131 5
	li	a2,0
	li	a1,7
	li	a0,2
	call	aos_post_event
	.loc 1 1132 9
	li	a0,1
	call	_pending_task_is_set
	mv	a5,a0
	.loc 1 1132 8 discriminator 1
	beq	a5,zero,.L171
	.loc 1 1133 9
	lui	a5,%hi(.LC64)
	addi	a0,a5,%lo(.LC64)
	call	printf
	.loc 1 1134 9
	call	bl_main_scan
	.loc 1 1135 9
	li	a0,1
	call	_pending_task_clr
.L171:
	.loc 1 1137 1
	nop
	lw	ra,28(sp)
	.cfi_restore 1
	lw	s0,24(sp)
	.cfi_restore 8
	.cfi_def_cfa 2, 32
	addi	sp,sp,32
	.cfi_def_cfa_offset 0
	jr	ra
	.cfi_endproc
.LFE66:
	.size	stateConnectedIPYes_enter, .-stateConnectedIPYes_enter
	.section	.text.stateConnectedIPYes_exit,"ax",@progbits
	.align	1
	.type	stateConnectedIPYes_exit, @function
stateConnectedIPYes_exit:
.LFB67:
	.loc 1 1140 1
	.cfi_startproc
	addi	sp,sp,-48
	.cfi_def_cfa_offset 48
	sw	ra,44(sp)
	sw	s0,40(sp)
	.cfi_offset 1, -4
	.cfi_offset 8, -8
	addi	s0,sp,48
	.cfi_def_cfa 8, 0
	sw	a0,-36(s0)
	sw	a1,-40(s0)
	.loc 1 1143 26
	sw	zero,-20(s0)
	.loc 1 1144 4
	lw	a1,-36(s0)
	lui	a5,%hi(.LC30)
	addi	a0,a5,%lo(.LC30)
	call	printf
	.loc 1 1146 4
	li	a2,0
	lui	a5,%hi(dhcp_stop)
	addi	a1,a5,%lo(dhcp_stop)
	lui	a5,%hi(wifiMgmr+44)
	addi	a0,a5,%lo(wifiMgmr+44)
	call	netifapi_netif_common
	.loc 1 1147 4
	addi	a3,s0,-20
	addi	a4,s0,-20
	addi	a5,s0,-20
	mv	a2,a4
	mv	a1,a5
	lui	a5,%hi(wifiMgmr+44)
	addi	a0,a5,%lo(wifiMgmr+44)
	call	netifapi_netif_set_addr
	.loc 1 1150 8
	lui	a5,%hi(auto_repeat)
	lw	a5,%lo(auto_repeat)(a5)
	.loc 1 1150 7
	beq	a5,zero,.L174
	.loc 1 1151 20
	lui	a5,%hi(auto_repeat)
	sw	zero,%lo(auto_repeat)(a5)
	.loc 1 1152 8
	li	a0,0
	call	bl_main_denoise
.L174:
	.loc 1 1154 1
	nop
	lw	ra,44(sp)
	.cfi_restore 1
	lw	s0,40(sp)
	.cfi_restore 8
	.cfi_def_cfa 2, 48
	addi	sp,sp,48
	.cfi_def_cfa_offset 0
	jr	ra
	.cfi_endproc
.LFE67:
	.size	stateConnectedIPYes_exit, .-stateConnectedIPYes_exit
	.section	.data.__compound_literal.6,"aw"
	.align	2
	.type	__compound_literal.6, @object
	.size	__compound_literal.6, 80
__compound_literal.6:
	.word	2
	.word	30
	.word	stateConnectedIPYesGuard_ip_update
	.word	stateConnectedIPYes_action
	.word	stateConnectedIPNo
	.word	1
	.word	5
	.word	stateConnectedIPYesGuard_disconnect
	.word	stateConnectedIPYes_action
	.word	stateDisconnect
	.word	1
	.word	11
	.word	stateConnectedIPYesGuard_rcconfig
	.word	stateConnectedIPYes_action
	.word	stateDisconnect
	.word	0
	.word	19
	.word	stateConnectedIPYesGuard
	.word	stateConnectedIPYes_action
	.word	stateDisconnect
	.section	.data.stateDisconnect_data,"aw"
	.align	2
	.type	stateDisconnect_data, @object
	.size	stateDisconnect_data, 264
stateDisconnect_data:
	.string	"disconnect"
	.zero	21
	.zero	232
	.section	.text.stateDisconnect_guard,"ax",@progbits
	.align	1
	.type	stateDisconnect_guard, @function
stateDisconnect_guard:
.LFB68:
	.loc 1 1185 1
	.cfi_startproc
	addi	sp,sp,-48
	.cfi_def_cfa_offset 48
	sw	ra,44(sp)
	sw	s0,40(sp)
	.cfi_offset 1, -4
	.cfi_offset 8, -8
	addi	s0,sp,48
	.cfi_def_cfa 8, 0
	sw	a0,-36(s0)
	sw	a1,-40(s0)
	.loc 1 1188 9
	lw	a5,-40(s0)
	lw	a5,4(a5)
	sw	a5,-20(s0)
	.loc 1 1189 25
	lw	a5,-20(s0)
	lbu	a5,0(a5)
	.loc 1 1189 15
	mv	a4,a5
	.loc 1 1189 8
	lw	a5,-36(s0)
	bne	a5,a4,.L176
	.loc 1 1190 16
	li	a5,1
	j	.L177
.L176:
	.loc 1 1192 12
	li	a5,0
.L177:
	.loc 1 1193 1
	mv	a0,a5
	lw	ra,44(sp)
	.cfi_restore 1
	lw	s0,40(sp)
	.cfi_restore 8
	.cfi_def_cfa 2, 48
	addi	sp,sp,48
	.cfi_def_cfa_offset 0
	jr	ra
	.cfi_endproc
.LFE68:
	.size	stateDisconnect_guard, .-stateDisconnect_guard
	.section	.rodata
	.align	2
.LC65:
	.string	"[WF][SM]  Action Connect\r\n"
	.section	.text.stateDisconnect_action_reconnect,"ax",@progbits
	.align	1
	.type	stateDisconnect_action_reconnect, @function
stateDisconnect_action_reconnect:
.LFB69:
	.loc 1 1197 1
	.cfi_startproc
	addi	sp,sp,-64
	.cfi_def_cfa_offset 64
	sw	ra,60(sp)
	sw	s0,56(sp)
	.cfi_offset 1, -4
	.cfi_offset 8, -8
	addi	s0,sp,64
	.cfi_def_cfa 8, 0
	sw	a0,-36(s0)
	sw	a1,-40(s0)
	sw	a2,-44(s0)
	.loc 1 1201 26
	lw	a5,-36(s0)
	sw	a5,-20(s0)
	.loc 1 1202 17
	lw	a5,-20(s0)
	addi	a5,a5,77
	sw	a5,-24(s0)
	.loc 1 1203 5
	lw	a2,-44(s0)
	lw	a1,-36(s0)
	lui	a5,%hi(.LC29)
	addi	a0,a5,%lo(.LC29)
	call	printf
	.loc 1 1208 5
	lui	a5,%hi(.LC65)
	addi	a0,a5,%lo(.LC65)
	call	printf
	.loc 1 1209 49
	lw	a5,-24(s0)
	.loc 1 1209 5
	mv	a1,a5
	lui	a5,%hi(.LC43)
	addi	a0,a5,%lo(.LC43)
	call	printf
	.loc 1 1210 67
	lw	a5,-24(s0)
	lbu	a4,33(a5)
	lbu	a3,34(a5)
	slli	a3,a3,8
	or	a4,a3,a4
	lbu	a3,35(a5)
	slli	a3,a3,16
	or	a4,a3,a4
	lbu	a5,36(a5)
	slli	a5,a5,24
	or	a5,a5,a4
	.loc 1 1210 5
	mv	a1,a5
	lui	a5,%hi(.LC44)
	addi	a0,a5,%lo(.LC44)
	call	printf
	.loc 1 1211 48
	lw	a5,-24(s0)
	addi	a5,a5,37
	.loc 1 1211 5
	mv	a1,a5
	lui	a5,%hi(.LC45)
	addi	a0,a5,%lo(.LC45)
	call	printf
	.loc 1 1212 66
	lw	a5,-24(s0)
	lbu	a4,167(a5)
	lbu	a3,168(a5)
	slli	a3,a3,8
	or	a4,a3,a4
	lbu	a3,169(a5)
	slli	a3,a3,16
	or	a4,a3,a4
	lbu	a5,170(a5)
	slli	a5,a5,24
	or	a5,a5,a4
	.loc 1 1212 5
	mv	a1,a5
	lui	a5,%hi(.LC46)
	addi	a0,a5,%lo(.LC46)
	call	printf
	.loc 1 1213 48
	lw	a5,-24(s0)
	addi	a5,a5,102
	.loc 1 1213 5
	mv	a1,a5
	lui	a5,%hi(.LC47)
	addi	a0,a5,%lo(.LC47)
	call	printf
	.loc 1 1214 66
	lw	a5,-24(s0)
	lbu	a4,171(a5)
	lbu	a3,172(a5)
	slli	a3,a3,8
	or	a4,a3,a4
	lbu	a3,173(a5)
	slli	a3,a3,16
	or	a4,a3,a4
	lbu	a5,174(a5)
	slli	a5,a5,24
	or	a5,a5,a4
	.loc 1 1214 5
	mv	a1,a5
	lui	a5,%hi(.LC48)
	addi	a0,a5,%lo(.LC48)
	call	printf
	.loc 1 1215 80
	lw	a5,-24(s0)
	lbu	a5,180(a5)
	.loc 1 1215 5
	mv	a1,a5
	.loc 1 1215 101
	lw	a5,-24(s0)
	lbu	a5,179(a5)
	.loc 1 1215 5
	mv	a2,a5
	.loc 1 1215 122
	lw	a5,-24(s0)
	lbu	a5,178(a5)
	.loc 1 1215 5
	mv	a3,a5
	.loc 1 1215 143
	lw	a5,-24(s0)
	lbu	a5,177(a5)
	.loc 1 1215 5
	mv	a4,a5
	.loc 1 1215 164
	lw	a5,-24(s0)
	lbu	a5,176(a5)
	.loc 1 1215 5
	mv	a0,a5
	.loc 1 1215 185
	lw	a5,-24(s0)
	lbu	a5,175(a5)
	.loc 1 1215 5
	mv	a6,a5
	mv	a5,a0
	lui	a0,%hi(.LC51)
	addi	a0,a0,%lo(.LC51)
	call	printf
	.loc 1 1225 38
	lw	a0,-24(s0)
	.loc 1 1225 68
	lw	a5,-24(s0)
	lbu	a4,33(a5)
	lbu	a3,34(a5)
	slli	a3,a3,8
	or	a4,a3,a4
	lbu	a3,35(a5)
	slli	a3,a3,16
	or	a4,a3,a4
	lbu	a5,36(a5)
	slli	a5,a5,24
	or	a5,a5,a4
	.loc 1 1225 5
	mv	t1,a5
	.loc 1 1226 30
	lw	a5,-24(s0)
	addi	a2,a5,37
	.loc 1 1226 59
	lw	a5,-24(s0)
	lbu	a4,167(a5)
	lbu	a3,168(a5)
	slli	a3,a3,8
	or	a4,a3,a4
	lbu	a3,169(a5)
	slli	a3,a3,16
	or	a4,a3,a4
	lbu	a5,170(a5)
	slli	a5,a5,24
	or	a5,a5,a4
	.loc 1 1225 5
	mv	t3,a5
	.loc 1 1227 30
	lw	a5,-24(s0)
	addi	a1,a5,102
	.loc 1 1227 59
	lw	a5,-24(s0)
	lbu	a4,171(a5)
	lbu	a3,172(a5)
	slli	a3,a3,8
	or	a4,a3,a4
	lbu	a3,173(a5)
	slli	a3,a3,16
	or	a4,a3,a4
	lbu	a5,174(a5)
	slli	a5,a5,24
	or	a5,a5,a4
	.loc 1 1225 5
	mv	a4,a5
	.loc 1 1228 30
	lw	a5,-24(s0)
	addi	a5,a5,175
	.loc 1 1225 5
	sw	zero,0(sp)
	li	a7,0
	mv	a6,a5
	mv	a5,a4
	mv	a4,a1
	mv	a3,t3
	mv	a1,t1
	call	bl_main_connect
	.loc 1 1232 5
	li	a2,0
	li	a1,3
	li	a0,2
	call	aos_post_event
	.loc 1 1233 1
	nop
	lw	ra,60(sp)
	.cfi_restore 1
	lw	s0,56(sp)
	.cfi_restore 8
	.cfi_def_cfa 2, 64
	addi	sp,sp,64
	.cfi_def_cfa_offset 0
	jr	ra
	.cfi_endproc
.LFE69:
	.size	stateDisconnect_action_reconnect, .-stateDisconnect_action_reconnect
	.section	.text.stateDisconnect_action_idle,"ax",@progbits
	.align	1
	.type	stateDisconnect_action_idle, @function
stateDisconnect_action_idle:
.LFB70:
	.loc 1 1237 1
	.cfi_startproc
	addi	sp,sp,-32
	.cfi_def_cfa_offset 32
	sw	ra,28(sp)
	sw	s0,24(sp)
	.cfi_offset 1, -4
	.cfi_offset 8, -8
	addi	s0,sp,32
	.cfi_def_cfa 8, 0
	sw	a0,-20(s0)
	sw	a1,-24(s0)
	sw	a2,-28(s0)
	.loc 1 1238 5
	lw	a2,-28(s0)
	lw	a1,-20(s0)
	lui	a5,%hi(.LC29)
	addi	a0,a5,%lo(.LC29)
	call	printf
	.loc 1 1242 5
	lui	a5,%hi(.LC19)
	addi	a0,a5,%lo(.LC19)
	call	printf
	.loc 1 1243 5
	lui	a5,%hi(wifiMgmr)
	addi	a5,a5,%lo(wifiMgmr)
	lbu	a5,16(a5)
	mv	a0,a5
	call	bl_main_if_remove
	.loc 1 1244 1
	nop
	lw	ra,28(sp)
	.cfi_restore 1
	lw	s0,24(sp)
	.cfi_restore 8
	.cfi_def_cfa 2, 32
	addi	sp,sp,32
	.cfi_def_cfa_offset 0
	jr	ra
	.cfi_endproc
.LFE70:
	.size	stateDisconnect_action_idle, .-stateDisconnect_action_idle
	.section	.rodata
	.align	2
.LC66:
	.string	"[WF][SM] Retry Again --->>> retry Abort, since profile copy failed\r\n"
	.align	2
.LC67:
	.string	"[WF][SM] Retry Again --->>> retry connect\r\n"
	.section	.text.disconnect_retry,"ax",@progbits
	.align	1
	.type	disconnect_retry, @function
disconnect_retry:
.LFB71:
	.loc 1 1247 1
	.cfi_startproc
	addi	sp,sp,-48
	.cfi_def_cfa_offset 48
	sw	ra,44(sp)
	sw	s0,40(sp)
	.cfi_offset 1, -4
	.cfi_offset 8, -8
	addi	s0,sp,48
	.cfi_def_cfa 8, 0
	sw	a0,-36(s0)
	.loc 1 1248 35
	lw	a0,-36(s0)
	call	pvTimerGetTimerID
	sw	a0,-20(s0)
	.loc 1 1253 9
	lw	a5,-20(s0)
	addi	a5,a5,77
	mv	a1,a5
	lui	a5,%hi(wifiMgmr)
	addi	a0,a5,%lo(wifiMgmr)
	call	wifi_mgmr_profile_get
	mv	a5,a0
	.loc 1 1253 8 discriminator 1
	beq	a5,zero,.L181
	.loc 1 1254 9
	lui	a5,%hi(.LC66)
	addi	a0,a5,%lo(.LC66)
	call	printf
	.loc 1 1259 1
	j	.L183
.L181:
	.loc 1 1256 9
	lui	a5,%hi(.LC67)
	addi	a0,a5,%lo(.LC67)
	call	printf
	.loc 1 1257 9
	call	wifi_mgmr_api_reconnect
.L183:
	.loc 1 1259 1
	nop
	lw	ra,44(sp)
	.cfi_restore 1
	lw	s0,40(sp)
	.cfi_restore 8
	.cfi_def_cfa 2, 48
	addi	sp,sp,48
	.cfi_def_cfa_offset 0
	jr	ra
	.cfi_endproc
.LFE71:
	.size	disconnect_retry, .-disconnect_retry
	.section	.rodata
	.align	2
.LC68:
	.string	"wifi disconnect"
	.align	2
.LC69:
	.string	"[WF][SM] Will retry in 2000 ticks\r\n"
	.align	2
.LC70:
	.string	"[WF][SM] Will NOT retry connect\r\n"
	.section	.text.stateDisconnect_enter,"ax",@progbits
	.align	1
	.type	stateDisconnect_enter, @function
stateDisconnect_enter:
.LFB72:
	.loc 1 1262 1
	.cfi_startproc
	addi	sp,sp,-48
	.cfi_def_cfa_offset 48
	sw	ra,44(sp)
	sw	s0,40(sp)
	sw	s1,36(sp)
	.cfi_offset 1, -4
	.cfi_offset 8, -8
	.cfi_offset 9, -12
	addi	s0,sp,48
	.cfi_def_cfa 8, 0
	sw	a0,-36(s0)
	sw	a1,-40(s0)
	.loc 1 1263 9
	sw	zero,-24(s0)
	.loc 1 1266 26
	lw	a5,-36(s0)
	sw	a5,-20(s0)
	.loc 1 1267 5
	lw	a1,-36(s0)
	lui	a5,%hi(.LC28)
	addi	a0,a5,%lo(.LC28)
	call	printf
	.loc 1 1269 9
	li	a1,-1
	lui	a5,%hi(wifiMgmr)
	addi	a0,a5,%lo(wifiMgmr)
	call	wifi_mgmr_profile_autoreconnect_is_enabled
	mv	a5,a0
	.loc 1 1269 8 discriminator 1
	beq	a5,zero,.L185
	.loc 1 1270 116
	lw	a5,-20(s0)
	addi	a5,a5,32
	.loc 1 1270 9
	lui	a4,%hi(disconnect_retry)
	addi	a4,a4,%lo(disconnect_retry)
	lw	a3,-20(s0)
	li	a2,0
	li	a1,2000
	lui	a0,%hi(.LC68)
	addi	a0,a0,%lo(.LC68)
	call	xTimerCreateStatic
	.loc 1 1277 9
	lui	a5,%hi(.LC69)
	addi	a0,a5,%lo(.LC69)
	call	printf
	.loc 1 1278 48
	lw	a5,-20(s0)
	addi	s1,a5,32
	.loc 1 1278 106
	call	xTaskGetTickCount
	mv	a5,a0
	.loc 1 1278 9 discriminator 1
	li	a4,-1
	li	a3,0
	mv	a2,a5
	li	a1,1
	mv	a0,s1
	call	xTimerGenericCommand
	.loc 1 1279 45
	lw	a5,-20(s0)
	li	a4,1
	sb	a4,76(a5)
	j	.L186
.L185:
	.loc 1 1281 9
	lui	a5,%hi(.LC70)
	addi	a0,a5,%lo(.LC70)
	call	printf
.L186:
	.loc 1 1283 59
	lui	a5,%hi(wifiMgmr)
	addi	a4,a5,%lo(wifiMgmr)
	li	a5,4096
	add	a5,a4,a5
	lhu	a5,1888(a5)
	.loc 1 1283 5
	mv	a2,a5
	li	a1,5
	li	a0,2
	call	aos_post_event
	.loc 1 1284 14
	addi	a5,s0,-24
	mv	a0,a5
	call	bl60x_check_mac_status
	mv	a5,a0
	.loc 1 1284 8 discriminator 1
	bne	a5,zero,.L187
	.loc 1 1284 50 discriminator 2
	lw	a5,-24(s0)
	.loc 1 1284 45 discriminator 2
	bne	a5,zero,.L187
.LBB3:
	.loc 1 1285 9
	li	a2,0
	li	a1,23
	li	a0,2
	call	aos_post_event
	.loc 1 1288 13
	call	helper_record_dump
.L187:
.LBE3:
	.loc 1 1291 9
	li	a0,1
	call	_pending_task_is_set
	mv	a5,a0
	.loc 1 1291 8 discriminator 1
	beq	a5,zero,.L189
	.loc 1 1292 9
	lui	a5,%hi(.LC64)
	addi	a0,a5,%lo(.LC64)
	call	printf
	.loc 1 1293 9
	call	bl_main_scan
	.loc 1 1294 9
	li	a0,1
	call	_pending_task_clr
.L189:
	.loc 1 1296 1
	nop
	lw	ra,44(sp)
	.cfi_restore 1
	lw	s0,40(sp)
	.cfi_restore 8
	.cfi_def_cfa 2, 48
	lw	s1,36(sp)
	.cfi_restore 9
	addi	sp,sp,48
	.cfi_def_cfa_offset 0
	jr	ra
	.cfi_endproc
.LFE72:
	.size	stateDisconnect_enter, .-stateDisconnect_enter
	.section	.rodata
	.align	2
.LC71:
	.string	"Delete Timer.\r\n"
	.align	2
.LC72:
	.string	"Delete Timer Skipped\r\n"
	.section	.text.stateDisconnect_exit,"ax",@progbits
	.align	1
	.type	stateDisconnect_exit, @function
stateDisconnect_exit:
.LFB73:
	.loc 1 1299 1
	.cfi_startproc
	addi	sp,sp,-48
	.cfi_def_cfa_offset 48
	sw	ra,44(sp)
	sw	s0,40(sp)
	.cfi_offset 1, -4
	.cfi_offset 8, -8
	addi	s0,sp,48
	.cfi_def_cfa 8, 0
	sw	a0,-36(s0)
	sw	a1,-40(s0)
	.loc 1 1300 23
	lw	a5,-36(s0)
	sw	a5,-20(s0)
	.loc 1 1302 5
	lw	a1,-20(s0)
	lui	a5,%hi(.LC30)
	addi	a0,a5,%lo(.LC30)
	call	printf
	.loc 1 1303 29
	lw	a5,-20(s0)
	lbu	a5,76(a5)
	.loc 1 1303 8
	beq	a5,zero,.L191
	.loc 1 1304 9
	lui	a5,%hi(.LC71)
	addi	a0,a5,%lo(.LC71)
	call	printf
	.loc 1 1305 53
	lw	a5,-20(s0)
	addi	a5,a5,32
	.loc 1 1305 14
	li	a4,0
	li	a3,0
	li	a2,0
	li	a1,3
	mv	a0,a5
	call	xTimerGenericCommand
	.loc 1 1305 58 discriminator 1
	lw	a5,-20(s0)
	addi	a5,a5,32
	.loc 1 1305 19 discriminator 1
	li	a4,0
	li	a3,0
	li	a2,0
	li	a1,5
	mv	a0,a5
	call	xTimerGenericCommand
	.loc 1 1306 45
	lw	a5,-20(s0)
	sb	zero,76(a5)
	.loc 1 1310 1
	j	.L193
.L191:
	.loc 1 1308 9
	lui	a5,%hi(.LC72)
	addi	a0,a5,%lo(.LC72)
	call	printf
.L193:
	.loc 1 1310 1
	nop
	lw	ra,44(sp)
	.cfi_restore 1
	lw	s0,40(sp)
	.cfi_restore 8
	.cfi_def_cfa 2, 48
	addi	sp,sp,48
	.cfi_def_cfa_offset 0
	jr	ra
	.cfi_endproc
.LFE73:
	.size	stateDisconnect_exit, .-stateDisconnect_exit
	.section	.data.__compound_literal.7,"aw"
	.align	2
	.type	__compound_literal.7, @object
	.size	__compound_literal.7, 40
__compound_literal.7:
	.word	1
	.word	6
	.word	stateDisconnect_guard
	.word	stateDisconnect_action_reconnect
	.word	stateConnecting
	.word	1
	.word	0
	.word	stateDisconnect_guard
	.word	stateDisconnect_action_idle
	.word	stateIdle
	.section	.rodata
	.align	2
.LC73:
	.string	"Wait Wi-Fi Mgmr Start up...\r\n"
	.align	2
.LC74:
	.string	"Failed when send msg 0x%p, len dec:%u\r\n"
	.section	.text.wifi_mgmr_event_notify,"ax",@progbits
	.align	1
	.globl	wifi_mgmr_event_notify
	.type	wifi_mgmr_event_notify, @function
wifi_mgmr_event_notify:
.LFB74:
	.loc 1 1333 1
	.cfi_startproc
	addi	sp,sp,-32
	.cfi_def_cfa_offset 32
	sw	ra,28(sp)
	sw	s0,24(sp)
	.cfi_offset 1, -4
	.cfi_offset 8, -8
	addi	s0,sp,32
	.cfi_def_cfa 8, 0
	sw	a0,-20(s0)
	.loc 1 1334 11
	j	.L195
.L196:
	.loc 1 1335 9
	lui	a5,%hi(.LC73)
	addi	a0,a5,%lo(.LC73)
	call	printf
	.loc 1 1336 9
	li	a0,20
	call	vTaskDelay
.L195:
	.loc 1 1334 25
	lui	a5,%hi(wifiMgmr)
	addi	a5,a5,%lo(wifiMgmr)
	lbu	a5,0(a5)
	.loc 1 1334 14
	beq	a5,zero,.L196
	.loc 1 1338 78
	lw	a5,-20(s0)
	lbu	a4,9(a5)
	lbu	a3,10(a5)
	slli	a3,a3,8
	or	a4,a3,a4
	lbu	a3,11(a5)
	slli	a3,a3,16
	or	a4,a3,a4
	lbu	a5,12(a5)
	slli	a5,a5,24
	or	a5,a5,a4
	.loc 1 1338 10
	li	a3,-1
	mv	a2,a5
	lw	a1,-20(s0)
	lui	a5,%hi(wifiMgmr+3652)
	addi	a0,a5,%lo(wifiMgmr+3652)
	call	xStreamBufferSend
	mv	a5,a0
	.loc 1 1338 8 discriminator 1
	bne	a5,zero,.L197
	.loc 1 1339 83
	lw	a5,-20(s0)
	lbu	a4,9(a5)
	lbu	a3,10(a5)
	slli	a3,a3,8
	or	a4,a3,a4
	lbu	a3,11(a5)
	slli	a3,a3,16
	or	a4,a3,a4
	lbu	a5,12(a5)
	slli	a5,a5,24
	or	a5,a5,a4
	.loc 1 1339 9
	mv	a2,a5
	lw	a1,-20(s0)
	lui	a5,%hi(.LC74)
	addi	a0,a5,%lo(.LC74)
	call	printf
	.loc 1 1340 16
	li	a5,-1
	j	.L198
.L197:
	.loc 1 1342 12
	li	a5,0
.L198:
	.loc 1 1343 1
	mv	a0,a5
	lw	ra,28(sp)
	.cfi_restore 1
	lw	s0,24(sp)
	.cfi_restore 8
	.cfi_def_cfa 2, 32
	addi	sp,sp,32
	.cfi_def_cfa_offset 0
	jr	ra
	.cfi_endproc
.LFE74:
	.size	wifi_mgmr_event_notify, .-wifi_mgmr_event_notify
	.section	.text.event_cb_wifi_event_mgmr,"ax",@progbits
	.align	1
	.type	event_cb_wifi_event_mgmr, @function
event_cb_wifi_event_mgmr:
.LFB75:
	.loc 1 1346 1
	.cfi_startproc
	addi	sp,sp,-32
	.cfi_def_cfa_offset 32
	sw	ra,28(sp)
	sw	s0,24(sp)
	.cfi_offset 1, -4
	.cfi_offset 8, -8
	addi	s0,sp,32
	.cfi_def_cfa 8, 0
	sw	a0,-20(s0)
	sw	a1,-24(s0)
	.loc 1 1347 18
	lw	a5,-20(s0)
	lhu	a5,6(a5)
	mv	a4,a5
	.loc 1 1347 5
	li	a5,20
	bne	a4,a5,.L201
	.loc 1 1350 13
	li	a2,0
	lui	a5,%hi(trigger_auto_denoise)
	addi	a1,a5,%lo(trigger_auto_denoise)
	li	a0,85
	call	aos_post_delayed_action
	.loc 1 1352 9
	nop
.L201:
	.loc 1 1358 1
	nop
	lw	ra,28(sp)
	.cfi_restore 1
	lw	s0,24(sp)
	.cfi_restore 8
	.cfi_def_cfa 2, 32
	addi	sp,sp,32
	.cfi_def_cfa_offset 0
	jr	ra
	.cfi_endproc
.LFE75:
	.size	event_cb_wifi_event_mgmr, .-event_cb_wifi_event_mgmr
	.section	.text.wifi_mgmr_start,"ax",@progbits
	.align	1
	.globl	wifi_mgmr_start
	.type	wifi_mgmr_start, @function
wifi_mgmr_start:
.LFB76:
	.loc 1 1361 1
	.cfi_startproc
	addi	sp,sp,-272
	.cfi_def_cfa_offset 272
	sw	ra,268(sp)
	sw	s0,264(sp)
	.cfi_offset 1, -4
	.cfi_offset 8, -8
	addi	s0,sp,272
	.cfi_def_cfa 8, 0
	.loc 1 1366 9
	addi	a5,s0,-260
	addi	a5,a5,1
	sw	a5,-20(s0)
	.loc 1 1367 13
	li	a5,1
	sw	a5,-28(s0)
	.loc 1 1368 13
	lw	a5,-20(s0)
	sw	a5,-24(s0)
	.loc 1 1369 5
	lui	a5,%hi(stateError)
	addi	a2,a5,%lo(stateError)
	lui	a5,%hi(stateIfaceDown)
	addi	a1,a5,%lo(stateIfaceDown)
	lui	a5,%hi(wifiMgmr+5928)
	addi	a0,a5,%lo(wifiMgmr+5928)
	call	stateM_init
	.loc 1 1372 5
	call	wifi_mgmr_event_init
	.loc 1 1375 5
	li	a2,0
	lui	a5,%hi(event_cb_wifi_event_mgmr)
	addi	a1,a5,%lo(event_cb_wifi_event_mgmr)
	li	a0,2
	call	aos_register_event_filter
	.loc 1 1377 5
	li	a2,0
	li	a1,2
	li	a0,2
	call	aos_post_event
	.loc 1 1380 5
	li	a1,255
	li	a0,255
	call	hal_sys_capcode_update
	.loc 1 1383 5
	li	a1,0
	lui	a5,%hi(state_tsen_reload_data)
	addi	a0,a5,%lo(state_tsen_reload_data)
	call	periodic_tsen_reload
.L208:
	.loc 1 1387 19
	li	a3,-1
	li	a2,224
	lw	a1,-20(s0)
	lui	a5,%hi(wifiMgmr+3652)
	addi	a0,a5,%lo(wifiMgmr+3652)
	call	xStreamBufferReceive
	mv	a5,a0
	.loc 1 1387 12 discriminator 1
	beq	a5,zero,.L208
	.loc 1 1388 20
	lw	a5,-20(s0)
	lbu	a4,0(a5)
	.loc 1 1388 16
	li	a5,13
	bne	a4,a5,.L204
	.loc 1 1389 17
	call	__run_reload_tsen
	.loc 1 1391 17
	j	.L203
.L204:
	.loc 1 1394 26
	lw	a5,-20(s0)
	lbu	a4,0(a5)
	.loc 1 1394 80
	li	a5,13
	bleu	a4,a5,.L205
	.loc 1 1395 21
	lw	a5,-20(s0)
	lbu	a4,0(a5)
	.loc 1 1395 78
	li	a5,22
	bgtu	a4,a5,.L206
	.loc 1 1394 80
	li	a5,0
	j	.L207
.L206:
	li	a5,2
	j	.L207
.L205:
	.loc 1 1394 80 is_stmt 0 discriminator 1
	li	a5,1
.L207:
	.loc 1 1394 21 is_stmt 1 discriminator 2
	sw	a5,-28(s0)
	.loc 1 1396 13
	addi	a5,s0,-28
	mv	a1,a5
	lui	a5,%hi(wifiMgmr+5928)
	addi	a0,a5,%lo(wifiMgmr+5928)
	call	stateM_handleEvent
.L203:
	.loc 1 1387 12
	j	.L208
	.cfi_endproc
.LFE76:
	.size	wifi_mgmr_start, .-wifi_mgmr_start
	.section	.text._wifi_mgmr_entry,"ax",@progbits
	.align	1
	.type	_wifi_mgmr_entry, @function
_wifi_mgmr_entry:
.LFB77:
	.loc 1 1402 1
	.cfi_startproc
	addi	sp,sp,-32
	.cfi_def_cfa_offset 32
	sw	ra,28(sp)
	sw	s0,24(sp)
	.cfi_offset 1, -4
	.cfi_offset 8, -8
	addi	s0,sp,32
	.cfi_def_cfa 8, 0
	sw	a0,-20(s0)
	.loc 1 1403 5
	call	wifi_mgmr_start
	.loc 1 1404 1
	nop
	lw	ra,28(sp)
	.cfi_restore 1
	lw	s0,24(sp)
	.cfi_restore 8
	.cfi_def_cfa 2, 32
	addi	sp,sp,32
	.cfi_def_cfa_offset 0
	jr	ra
	.cfi_endproc
.LFE77:
	.size	_wifi_mgmr_entry, .-_wifi_mgmr_entry
	.section	.rodata
	.align	2
.LC75:
	.string	"wifi_mgmr"
	.section	.text.wifi_mgmr_start_background,"ax",@progbits
	.align	1
	.globl	wifi_mgmr_start_background
	.type	wifi_mgmr_start_background, @function
wifi_mgmr_start_background:
.LFB78:
	.loc 1 1407 1
	.cfi_startproc
	addi	sp,sp,-48
	.cfi_def_cfa_offset 48
	sw	ra,44(sp)
	sw	s0,40(sp)
	.cfi_offset 1, -4
	.cfi_offset 8, -8
	addi	s0,sp,48
	.cfi_def_cfa 8, 0
	sw	a0,-36(s0)
	.loc 1 1408 5
	lw	a0,-36(s0)
	call	wifi_mgmr_drv_init
.LBB4:
	.loc 1 1409 23
	sw	zero,-20(s0)
	.loc 1 1409 6
	addi	a5,s0,-20
	li	a4,28
	li	a3,0
	li	a2,768
	lui	a1,%hi(.LC75)
	addi	a1,a1,%lo(.LC75)
	lui	a0,%hi(_wifi_mgmr_entry)
	addi	a0,a0,%lo(_wifi_mgmr_entry)
	call	xTaskCreate
.LBE4:
	.loc 1 1415 1
	nop
	lw	ra,44(sp)
	.cfi_restore 1
	lw	s0,40(sp)
	.cfi_restore 8
	.cfi_def_cfa 2, 48
	addi	sp,sp,48
	.cfi_def_cfa_offset 0
	jr	ra
	.cfi_endproc
.LFE78:
	.size	wifi_mgmr_start_background, .-wifi_mgmr_start_background
	.section	.text.wifi_mgmr_init,"ax",@progbits
	.align	1
	.globl	wifi_mgmr_init
	.type	wifi_mgmr_init, @function
wifi_mgmr_init:
.LFB79:
	.loc 1 1418 1
	.cfi_startproc
	addi	sp,sp,-32
	.cfi_def_cfa_offset 32
	sw	ra,28(sp)
	sw	s0,24(sp)
	.cfi_offset 1, -4
	.cfi_offset 8, -8
	addi	s0,sp,32
	.cfi_def_cfa 8, 0
	.loc 1 1421 39
	lui	a5,%hi(wifiMgmr+3652)
	addi	a4,a5,%lo(wifiMgmr+3652)
	lui	a5,%hi(wifiMgmr+3688)
	addi	a3,a5,%lo(wifiMgmr+3688)
	li	a2,1
	li	a1,0
	li	a5,4096
	addi	a0,a5,-1856
	call	xStreamBufferGenericCreateStatic
	mv	a5,a0
	.loc 1 1421 163 discriminator 1
	seqz	a5,a5
	andi	a5,a5,0xff
	.loc 1 1421 9 discriminator 1
	sw	a5,-20(s0)
	.loc 1 1428 20
	lui	a5,%hi(wifiMgmr)
	addi	a5,a5,%lo(wifiMgmr)
	li	a4,1
	sb	a4,0(a5)
	.loc 1 1429 32
	lui	a5,%hi(wifiMgmr)
	addi	a4,a5,%lo(wifiMgmr)
	li	a5,4096
	add	a5,a4,a5
	li	a4,16384
	addi	a4,a4,-1384
	sw	a4,2016(a5)
	.loc 1 1430 12
	lw	a5,-20(s0)
	.loc 1 1431 1
	mv	a0,a5
	lw	ra,28(sp)
	.cfi_restore 1
	lw	s0,24(sp)
	.cfi_restore 8
	.cfi_def_cfa 2, 32
	addi	sp,sp,32
	.cfi_def_cfa_offset 0
	jr	ra
	.cfi_endproc
.LFE79:
	.size	wifi_mgmr_init, .-wifi_mgmr_init
	.section	.text.wifi_mgmr_status_code_get_internal,"ax",@progbits
	.align	1
	.globl	wifi_mgmr_status_code_get_internal
	.type	wifi_mgmr_status_code_get_internal, @function
wifi_mgmr_status_code_get_internal:
.LFB80:
	.loc 1 1434 1
	.cfi_startproc
	addi	sp,sp,-32
	.cfi_def_cfa_offset 32
	sw	ra,28(sp)
	sw	s0,24(sp)
	.cfi_offset 1, -4
	.cfi_offset 8, -8
	addi	s0,sp,32
	.cfi_def_cfa 8, 0
	sw	a0,-20(s0)
	.loc 1 1435 45
	lui	a5,%hi(wifiMgmr)
	addi	a4,a5,%lo(wifiMgmr)
	li	a5,4096
	add	a5,a4,a5
	lhu	a5,1888(a5)
	mv	a4,a5
	.loc 1 1435 15
	lw	a5,-20(s0)
	sw	a4,0(a5)
	.loc 1 1436 12
	li	a5,0
	.loc 1 1437 1
	mv	a0,a5
	lw	ra,28(sp)
	.cfi_restore 1
	lw	s0,24(sp)
	.cfi_restore 8
	.cfi_def_cfa 2, 32
	addi	sp,sp,32
	.cfi_def_cfa_offset 0
	jr	ra
	.cfi_endproc
.LFE80:
	.size	wifi_mgmr_status_code_get_internal, .-wifi_mgmr_status_code_get_internal
	.section	.text.wifi_mgmr_status_code_clean_internal,"ax",@progbits
	.align	1
	.globl	wifi_mgmr_status_code_clean_internal
	.type	wifi_mgmr_status_code_clean_internal, @function
wifi_mgmr_status_code_clean_internal:
.LFB81:
	.loc 1 1440 1
	.cfi_startproc
	addi	sp,sp,-16
	.cfi_def_cfa_offset 16
	sw	ra,12(sp)
	sw	s0,8(sp)
	.cfi_offset 1, -4
	.cfi_offset 8, -8
	addi	s0,sp,16
	.cfi_def_cfa 8, 0
	.loc 1 1441 46
	lui	a5,%hi(wifiMgmr)
	addi	a4,a5,%lo(wifiMgmr)
	li	a5,4096
	add	a5,a4,a5
	sh	zero,1888(a5)
	.loc 1 1442 12
	li	a5,0
	.loc 1 1443 1
	mv	a0,a5
	lw	ra,12(sp)
	.cfi_restore 1
	lw	s0,8(sp)
	.cfi_restore 8
	.cfi_def_cfa 2, 16
	addi	sp,sp,16
	.cfi_def_cfa_offset 0
	jr	ra
	.cfi_endproc
.LFE81:
	.size	wifi_mgmr_status_code_clean_internal, .-wifi_mgmr_status_code_clean_internal
	.section	.text.wifi_mgmr_state_get_internal,"ax",@progbits
	.align	1
	.globl	wifi_mgmr_state_get_internal
	.type	wifi_mgmr_state_get_internal, @function
wifi_mgmr_state_get_internal:
.LFB82:
	.loc 1 1446 1
	.cfi_startproc
	addi	sp,sp,-48
	.cfi_def_cfa_offset 48
	sw	ra,44(sp)
	sw	s0,40(sp)
	.cfi_offset 1, -4
	.cfi_offset 8, -8
	addi	s0,sp,48
	.cfi_def_cfa 8, 0
	sw	a0,-36(s0)
	.loc 1 1448 9
	sw	zero,-24(s0)
	.loc 1 1450 13
	lui	a5,%hi(wifiMgmr)
	addi	a4,a5,%lo(wifiMgmr)
	li	a5,4096
	add	a5,a4,a5
	lw	a5,1832(a5)
	sw	a5,-20(s0)
	.loc 1 1451 5
	addi	a5,s0,-24
	mv	a0,a5
	call	wifi_mgmr_status_code_get_internal
	.loc 1 1453 8
	lw	a4,-20(s0)
	lui	a5,%hi(stateIdle)
	addi	a5,a5,%lo(stateIdle)
	bne	a4,a5,.L218
	.loc 1 1454 21
	lui	a5,%hi(wifiMgmr)
	addi	a5,a5,%lo(wifiMgmr)
	lw	a5,8(a5)
	.loc 1 1454 12
	beq	a5,zero,.L219
	.loc 1 1455 20
	lw	a5,-36(s0)
	li	a4,17
	sw	a4,0(a5)
	j	.L220
.L219:
	.loc 1 1457 20
	lw	a5,-36(s0)
	li	a4,1
	sw	a4,0(a5)
	.loc 1 1458 24
	lw	a4,-24(s0)
	.loc 1 1458 16
	li	a5,8
	bne	a4,a5,.L221
	.loc 1 1459 24
	lw	a5,-36(s0)
	li	a4,8
	sw	a4,0(a5)
	j	.L220
.L221:
	.loc 1 1460 31
	lw	a4,-24(s0)
	.loc 1 1460 23
	li	a5,12
	bne	a4,a5,.L220
	.loc 1 1461 24
	lw	a5,-36(s0)
	li	a4,9
	sw	a4,0(a5)
	j	.L220
.L218:
	.loc 1 1464 15
	lw	a4,-20(s0)
	lui	a5,%hi(stateConnecting)
	addi	a5,a5,%lo(stateConnecting)
	bne	a4,a5,.L222
	.loc 1 1465 21
	lui	a5,%hi(wifiMgmr)
	addi	a5,a5,%lo(wifiMgmr)
	lw	a5,8(a5)
	.loc 1 1465 12
	beq	a5,zero,.L223
	.loc 1 1466 20
	lw	a5,-36(s0)
	li	a4,18
	sw	a4,0(a5)
	j	.L220
.L223:
	.loc 1 1468 20
	lw	a5,-36(s0)
	li	a4,2
	sw	a4,0(a5)
	.loc 1 1469 24
	lw	a4,-24(s0)
	.loc 1 1469 16
	li	a5,8
	bne	a4,a5,.L224
	.loc 1 1470 24
	lw	a5,-36(s0)
	li	a4,8
	sw	a4,0(a5)
	j	.L220
.L224:
	.loc 1 1471 31
	lw	a4,-24(s0)
	.loc 1 1471 23
	li	a5,12
	bne	a4,a5,.L220
	.loc 1 1472 24
	lw	a5,-36(s0)
	li	a4,9
	sw	a4,0(a5)
	j	.L220
.L222:
	.loc 1 1475 15
	lw	a4,-20(s0)
	lui	a5,%hi(stateConnectedIPNo)
	addi	a5,a5,%lo(stateConnectedIPNo)
	bne	a4,a5,.L225
	.loc 1 1476 21
	lui	a5,%hi(wifiMgmr)
	addi	a5,a5,%lo(wifiMgmr)
	lw	a5,8(a5)
	.loc 1 1476 12
	beq	a5,zero,.L226
	.loc 1 1477 20
	lw	a5,-36(s0)
	li	a4,19
	sw	a4,0(a5)
	j	.L220
.L226:
	.loc 1 1479 20
	lw	a5,-36(s0)
	li	a4,3
	sw	a4,0(a5)
	j	.L220
.L225:
	.loc 1 1481 15
	lw	a4,-20(s0)
	lui	a5,%hi(stateConnectedIPYes)
	addi	a5,a5,%lo(stateConnectedIPYes)
	bne	a4,a5,.L227
	.loc 1 1482 21
	lui	a5,%hi(wifiMgmr)
	addi	a5,a5,%lo(wifiMgmr)
	lw	a5,8(a5)
	.loc 1 1482 12
	beq	a5,zero,.L228
	.loc 1 1483 20
	lw	a5,-36(s0)
	li	a4,20
	sw	a4,0(a5)
	j	.L220
.L228:
	.loc 1 1485 20
	lw	a5,-36(s0)
	li	a4,4
	sw	a4,0(a5)
	j	.L220
.L227:
	.loc 1 1487 15
	lw	a4,-20(s0)
	lui	a5,%hi(stateDisconnect)
	addi	a5,a5,%lo(stateDisconnect)
	bne	a4,a5,.L229
	.loc 1 1488 21
	lui	a5,%hi(wifiMgmr)
	addi	a5,a5,%lo(wifiMgmr)
	lw	a5,8(a5)
	.loc 1 1488 12
	beq	a5,zero,.L230
	.loc 1 1489 20
	lw	a5,-36(s0)
	li	a4,21
	sw	a4,0(a5)
	j	.L220
.L230:
	.loc 1 1491 20
	lw	a5,-36(s0)
	li	a4,5
	sw	a4,0(a5)
	.loc 1 1492 24
	lw	a4,-24(s0)
	.loc 1 1492 16
	li	a5,8
	bne	a4,a5,.L231
	.loc 1 1493 24
	lw	a5,-36(s0)
	li	a4,8
	sw	a4,0(a5)
	j	.L220
.L231:
	.loc 1 1494 31
	lw	a4,-24(s0)
	.loc 1 1494 23
	li	a5,12
	bne	a4,a5,.L220
	.loc 1 1495 24
	lw	a5,-36(s0)
	li	a4,9
	sw	a4,0(a5)
	j	.L220
.L229:
	.loc 1 1498 15
	lw	a4,-20(s0)
	lui	a5,%hi(stateIfaceDown)
	addi	a5,a5,%lo(stateIfaceDown)
	bne	a4,a5,.L232
	.loc 1 1499 16
	lw	a5,-36(s0)
	li	a4,6
	sw	a4,0(a5)
	j	.L220
.L232:
	.loc 1 1500 15
	lw	a4,-20(s0)
	lui	a5,%hi(stateSniffer)
	addi	a5,a5,%lo(stateSniffer)
	bne	a4,a5,.L233
	.loc 1 1501 16
	lw	a5,-36(s0)
	li	a4,7
	sw	a4,0(a5)
	j	.L220
.L233:
	.loc 1 1503 16
	lw	a5,-36(s0)
	sw	zero,0(a5)
.L220:
	.loc 1 1506 12
	li	a5,0
	.loc 1 1507 1
	mv	a0,a5
	lw	ra,44(sp)
	.cfi_restore 1
	lw	s0,40(sp)
	.cfi_restore 8
	.cfi_def_cfa 2, 48
	addi	sp,sp,48
	.cfi_def_cfa_offset 0
	jr	ra
	.cfi_endproc
.LFE82:
	.size	wifi_mgmr_state_get_internal, .-wifi_mgmr_state_get_internal
	.section	.text.wifi_mgmr_set_connect_stat_info,"ax",@progbits
	.align	1
	.globl	wifi_mgmr_set_connect_stat_info
	.type	wifi_mgmr_set_connect_stat_info, @function
wifi_mgmr_set_connect_stat_info:
.LFB83:
	.loc 1 1510 1
	.cfi_startproc
	addi	sp,sp,-48
	.cfi_def_cfa_offset 48
	sw	ra,44(sp)
	sw	s0,40(sp)
	.cfi_offset 1, -4
	.cfi_offset 8, -8
	addi	s0,sp,48
	.cfi_def_cfa 8, 0
	sw	a0,-36(s0)
	mv	a5,a1
	sb	a5,-37(s0)
	.loc 1 1512 51
	lw	a5,-36(s0)
	lhu	a4,0(a5)
	.loc 1 1512 46
	lui	a5,%hi(wifiMgmr)
	addi	a3,a5,%lo(wifiMgmr)
	li	a5,4096
	add	a5,a3,a5
	sh	a4,1888(a5)
	.loc 1 1513 11
	sw	zero,-20(s0)
	.loc 1 1513 5
	j	.L236
.L237:
	.loc 1 1514 59
	lw	a4,-36(s0)
	lw	a5,-20(s0)
	add	a5,a4,a5
	lbu	a4,2(a5)
	.loc 1 1514 47
	lui	a5,%hi(wifiMgmr)
	addi	a3,a5,%lo(wifiMgmr)
	lw	a5,-20(s0)
	add	a5,a3,a5
	li	a3,4096
	add	a5,a3,a5
	sb	a4,1988(a5)
	.loc 1 1513 23 discriminator 3
	lw	a5,-20(s0)
	addi	a5,a5,1
	sw	a5,-20(s0)
.L236:
	.loc 1 1513 17 discriminator 1
	lw	a4,-20(s0)
	li	a5,5
	ble	a4,a5,.L237
	.loc 1 1515 49
	lw	a5,-36(s0)
	lhu	a4,20(a5)
	.loc 1 1515 44
	lui	a5,%hi(wifiMgmr)
	addi	a3,a5,%lo(wifiMgmr)
	li	a5,4096
	add	a5,a3,a5
	sh	a4,1994(a5)
	.loc 1 1516 49
	lw	a5,-36(s0)
	lbu	a4,18(a5)
	.loc 1 1516 44
	lui	a5,%hi(wifiMgmr)
	addi	a3,a5,%lo(wifiMgmr)
	li	a5,4096
	add	a5,a3,a5
	sb	a4,1996(a5)
	.loc 1 1517 43
	lui	a5,%hi(wifiMgmr)
	addi	a4,a5,%lo(wifiMgmr)
	li	a5,4096
	add	a5,a4,a5
	lbu	a4,-37(s0)
	sb	a4,1890(a5)
	.loc 1 1532 1
	nop
	lw	ra,44(sp)
	.cfi_restore 1
	lw	s0,40(sp)
	.cfi_restore 8
	.cfi_def_cfa 2, 48
	addi	sp,sp,48
	.cfi_def_cfa_offset 0
	jr	ra
	.cfi_endproc
.LFE83:
	.size	wifi_mgmr_set_connect_stat_info, .-wifi_mgmr_set_connect_stat_info
	.section	.text.wifi_mgmr_set_country_code_internal,"ax",@progbits
	.align	1
	.globl	wifi_mgmr_set_country_code_internal
	.type	wifi_mgmr_set_country_code_internal, @function
wifi_mgmr_set_country_code_internal:
.LFB84:
	.loc 1 1535 1
	.cfi_startproc
	addi	sp,sp,-32
	.cfi_def_cfa_offset 32
	sw	ra,28(sp)
	sw	s0,24(sp)
	.cfi_offset 1, -4
	.cfi_offset 8, -8
	addi	s0,sp,32
	.cfi_def_cfa 8, 0
	sw	a0,-20(s0)
	.loc 1 1536 5
	lw	a0,-20(s0)
	call	bl_main_set_country_code
	.loc 1 1537 5
	li	a2,3
	lw	a1,-20(s0)
	lui	a5,%hi(wifiMgmr+6094)
	addi	a0,a5,%lo(wifiMgmr+6094)
	call	strncpy
	.loc 1 1538 30
	lui	a5,%hi(wifiMgmr)
	addi	a4,a5,%lo(wifiMgmr)
	li	a5,4096
	add	a5,a4,a5
	sb	zero,2000(a5)
	.loc 1 1539 29
	call	bl_main_get_channel_nums
	mv	a3,a0
	.loc 1 1539 27 discriminator 1
	lui	a5,%hi(wifiMgmr)
	addi	a4,a5,%lo(wifiMgmr)
	li	a5,4096
	add	a5,a4,a5
	sw	a3,2004(a5)
	.loc 1 1542 12
	li	a5,0
	.loc 1 1543 1
	mv	a0,a5
	lw	ra,28(sp)
	.cfi_restore 1
	lw	s0,24(sp)
	.cfi_restore 8
	.cfi_def_cfa 2, 32
	addi	sp,sp,32
	.cfi_def_cfa_offset 0
	jr	ra
	.cfi_endproc
.LFE84:
	.size	wifi_mgmr_set_country_code_internal, .-wifi_mgmr_set_country_code_internal
	.section	.text.wifi_mgmr_ap_sta_cnt_get_internal,"ax",@progbits
	.align	1
	.globl	wifi_mgmr_ap_sta_cnt_get_internal
	.type	wifi_mgmr_ap_sta_cnt_get_internal, @function
wifi_mgmr_ap_sta_cnt_get_internal:
.LFB85:
	.loc 1 1546 1
	.cfi_startproc
	addi	sp,sp,-32
	.cfi_def_cfa_offset 32
	sw	ra,28(sp)
	sw	s0,24(sp)
	.cfi_offset 1, -4
	.cfi_offset 8, -8
	addi	s0,sp,32
	.cfi_def_cfa 8, 0
	sw	a0,-20(s0)
	.loc 1 1547 5
	lw	a0,-20(s0)
	call	bl_main_apm_sta_cnt_get
	.loc 1 1548 12
	li	a5,0
	.loc 1 1549 1
	mv	a0,a5
	lw	ra,28(sp)
	.cfi_restore 1
	lw	s0,24(sp)
	.cfi_restore 8
	.cfi_def_cfa 2, 32
	addi	sp,sp,32
	.cfi_def_cfa_offset 0
	jr	ra
	.cfi_endproc
.LFE85:
	.size	wifi_mgmr_ap_sta_cnt_get_internal, .-wifi_mgmr_ap_sta_cnt_get_internal
	.section	.text.wifi_mgmr_ap_sta_info_get_internal,"ax",@progbits
	.align	1
	.globl	wifi_mgmr_ap_sta_info_get_internal
	.type	wifi_mgmr_ap_sta_info_get_internal, @function
wifi_mgmr_ap_sta_info_get_internal:
.LFB86:
	.loc 1 1552 1
	.cfi_startproc
	addi	sp,sp,-64
	.cfi_def_cfa_offset 64
	sw	ra,60(sp)
	sw	s0,56(sp)
	.cfi_offset 1, -4
	.cfi_offset 8, -8
	addi	s0,sp,64
	.cfi_def_cfa 8, 0
	sw	a0,-52(s0)
	mv	a5,a1
	sb	a5,-53(s0)
	.loc 1 1554 5
	addi	a5,s0,-40
	li	a2,24
	li	a1,0
	mv	a0,a5
	call	memset
	.loc 1 1555 5
	lbu	a4,-53(s0)
	addi	a5,s0,-40
	mv	a1,a4
	mv	a0,a5
	call	bl_main_apm_sta_info_get
	.loc 1 1556 46
	lbu	a4,-40(s0)
	.loc 1 1556 32
	lw	a5,-52(s0)
	sb	a4,0(a5)
	.loc 1 1557 46
	lbu	a4,-39(s0)
	.loc 1 1557 32
	lw	a5,-52(s0)
	sb	a4,1(a5)
	.loc 1 1558 43
	lw	a4,-24(s0)
	.loc 1 1558 29
	lw	a5,-52(s0)
	sw	a4,16(a5)
	.loc 1 1559 44
	lw	a4,-28(s0)
	.loc 1 1559 30
	lw	a5,-52(s0)
	sw	a4,12(a5)
	.loc 1 1560 44
	lw	a4,-32(s0)
	.loc 1 1560 30
	lw	a5,-52(s0)
	sw	a4,8(a5)
	.loc 1 1561 48
	lbu	a4,-20(s0)
	.loc 1 1561 34
	lw	a5,-52(s0)
	sb	a4,20(a5)
	.loc 1 1562 29
	lw	a5,-52(s0)
	addi	a4,a5,2
	.loc 1 1562 5
	addi	a5,s0,-40
	addi	a5,a5,2
	li	a2,6
	mv	a1,a5
	mv	a0,a4
	call	memcpy
	.loc 1 1563 12
	li	a5,0
	.loc 1 1564 1
	mv	a0,a5
	lw	ra,60(sp)
	.cfi_restore 1
	lw	s0,56(sp)
	.cfi_restore 8
	.cfi_def_cfa 2, 64
	addi	sp,sp,64
	.cfi_def_cfa_offset 0
	jr	ra
	.cfi_endproc
.LFE86:
	.size	wifi_mgmr_ap_sta_info_get_internal, .-wifi_mgmr_ap_sta_info_get_internal
	.section	.text.wifi_mgmr_ap_sta_delete_internal,"ax",@progbits
	.align	1
	.globl	wifi_mgmr_ap_sta_delete_internal
	.type	wifi_mgmr_ap_sta_delete_internal, @function
wifi_mgmr_ap_sta_delete_internal:
.LFB87:
	.loc 1 1567 1
	.cfi_startproc
	addi	sp,sp,-32
	.cfi_def_cfa_offset 32
	sw	ra,28(sp)
	sw	s0,24(sp)
	.cfi_offset 1, -4
	.cfi_offset 8, -8
	addi	s0,sp,32
	.cfi_def_cfa 8, 0
	mv	a5,a0
	sb	a5,-17(s0)
	.loc 1 1568 5
	lbu	a5,-17(s0)
	mv	a0,a5
	call	bl_main_apm_sta_delete
	.loc 1 1569 12
	li	a5,0
	.loc 1 1570 1
	mv	a0,a5
	lw	ra,28(sp)
	.cfi_restore 1
	lw	s0,24(sp)
	.cfi_restore 8
	.cfi_def_cfa 2, 32
	addi	sp,sp,32
	.cfi_def_cfa_offset 0
	jr	ra
	.cfi_endproc
.LFE87:
	.size	wifi_mgmr_ap_sta_delete_internal, .-wifi_mgmr_ap_sta_delete_internal
	.section	.text.wifi_mgmr_scan_complete_notify,"ax",@progbits
	.align	1
	.globl	wifi_mgmr_scan_complete_notify
	.type	wifi_mgmr_scan_complete_notify, @function
wifi_mgmr_scan_complete_notify:
.LFB88:
	.loc 1 1573 1
	.cfi_startproc
	addi	sp,sp,-16
	.cfi_def_cfa_offset 16
	sw	ra,12(sp)
	sw	s0,8(sp)
	.cfi_offset 1, -4
	.cfi_offset 8, -8
	addi	s0,sp,16
	.cfi_def_cfa 8, 0
	.loc 1 1574 5
	call	wifi_mgmr_scan_complete_callback
	.loc 1 1575 12
	li	a5,0
	.loc 1 1576 1
	mv	a0,a5
	lw	ra,12(sp)
	.cfi_restore 1
	lw	s0,8(sp)
	.cfi_restore 8
	.cfi_def_cfa 2, 16
	addi	sp,sp,16
	.cfi_def_cfa_offset 0
	jr	ra
	.cfi_endproc
.LFE88:
	.size	wifi_mgmr_scan_complete_notify, .-wifi_mgmr_scan_complete_notify
	.section	.rodata.__func__.1,"a"
	.align	2
	.type	__func__.1, @object
	.size	__func__.1, 20
__func__.1:
	.string	"stateGlobalGuard_AP"
	.section	.rodata.__func__.0,"a"
	.align	2
	.type	__func__.0, @object
	.size	__func__.0, 23
__func__.0:
	.string	"stateIdleGuard_connect"
	.text
.Letext0:
	.file 2 "/home/chandu/sdk/bl602_iot_sdk/toolchain/compiler/lib/gcc/riscv32-unknown-elf/15.1.0/include/stdint-gcc.h"
	.file 3 "/home/chandu/sdk/bl602_iot_sdk/toolchain/compiler/lib/gcc/riscv32-unknown-elf/15.1.0/include/stddef.h"
	.file 4 "/home/chandu/sdk/bl602_iot_sdk/components/network/lwip/src/include/lwip/arch.h"
	.file 5 "/home/chandu/sdk/bl602_iot_sdk/components/network/lwip/src/include/lwip/err.h"
	.file 6 "/home/chandu/sdk/bl602_iot_sdk/components/freertos/include/projdefs.h"
	.file 7 "/home/chandu/sdk/bl602_iot_sdk/components/freertos/portable/GCC/RISC-V/portmacro.h"
	.file 8 "/home/chandu/sdk/bl602_iot_sdk/components/freertos/include/FreeRTOS.h"
	.file 9 "/home/chandu/sdk/bl602_iot_sdk/components/freertos/include/task.h"
	.file 10 "/home/chandu/sdk/bl602_iot_sdk/components/network/lwip/src/include/lwip/ip4_addr.h"
	.file 11 "/home/chandu/sdk/bl602_iot_sdk/components/network/lwip/src/include/lwip/ip_addr.h"
	.file 12 "/home/chandu/sdk/bl602_iot_sdk/components/network/lwip/src/include/lwip/pbuf.h"
	.file 13 "/home/chandu/sdk/bl602_iot_sdk/components/network/lwip/src/include/lwip/netif.h"
	.file 14 "/home/chandu/sdk/bl602_iot_sdk/components/network/lwip/src/include/lwip/acd.h"
	.file 15 "/home/chandu/sdk/bl602_iot_sdk/components/network/lwip/src/include/lwip/memp.h"
	.file 16 "/home/chandu/sdk/bl602_iot_sdk/components/network/lwip/src/include/lwip/prot/acd.h"
	.file 17 "/home/chandu/sdk/bl602_iot_sdk/components/network/lwip/src/include/lwip/priv/api_msg.h"
	.file 18 "/home/chandu/sdk/bl602_iot_sdk/components/stage/yloop/include/aos/yloop.h"
	.file 19 "/home/chandu/sdk/bl602_iot_sdk/components/bl602/bl602_wifidrv/bl60x_wifi_driver/bl_main.h"
	.file 20 "/home/chandu/sdk/bl602_iot_sdk/components/bl602/bl602_wifidrv/bl60x_wifi_driver/include/wifi_mgmr_ext.h"
	.file 21 "/home/chandu/sdk/bl602_iot_sdk/components/bl602/bl602_wifidrv/bl60x_wifi_driver/stateMachine.h"
	.file 22 "/home/chandu/sdk/bl602_iot_sdk/components/freertos/include/timers.h"
	.file 23 "/home/chandu/sdk/bl602_iot_sdk/components/freertos/include/stream_buffer.h"
	.file 24 "/home/chandu/sdk/bl602_iot_sdk/components/freertos/include/message_buffer.h"
	.file 25 "/home/chandu/sdk/bl602_iot_sdk/components/bl602/bl602_wifidrv/bl60x_wifi_driver/os_hal.h"
	.file 26 "/home/chandu/sdk/bl602_iot_sdk/components/bl602/bl602_wifidrv/bl60x_wifi_driver/wifi_mgmr.h"
	.file 27 "/home/chandu/sdk/bl602_iot_sdk/components/bl602/bl602_wifidrv/bl60x_wifi_driver/wifi_mgmr_event.h"
	.file 28 "/home/chandu/sdk/bl602_iot_sdk/components/hal_drv/bl602_hal/hal_sys.h"
	.file 29 "/home/chandu/sdk/bl602_iot_sdk/components/bl602/bl602_wifi/include/bl60x_fw_api.h"
	.file 30 "/home/chandu/sdk/bl602_iot_sdk/components/bl602/bl602_wifidrv/bl60x_wifi_driver/wifi_mgmr_profile.h"
	.file 31 "/home/chandu/sdk/bl602_iot_sdk/components/bl602/bl602_wifidrv/bl60x_wifi_driver/wifi_mgmr_api.h"
	.file 32 "/home/chandu/sdk/bl602_iot_sdk/components/bl602/bl602_wifidrv/bl60x_wifi_driver/wifi_netif.h"
	.file 33 "/home/chandu/sdk/bl602_iot_sdk/components/network/lwip/src/include/lwip/netifapi.h"
	.file 34 "/home/chandu/sdk/bl602_iot_sdk/components/network/lwip/src/include/lwip/dhcp.h"
	.file 35 "/home/chandu/sdk/bl602_iot_sdk/components/network/lwip/src/include/lwip/dns.h"
	.file 36 "/home/chandu/sdk/bl602_iot_sdk/components/hal_drv/bl602_hal/bl_adc.h"
	.file 37 "/home/chandu/sdk/bl602_iot_sdk/components/network/dns_server/include/dns_server.h"
	.file 38 "/home/chandu/sdk/bl602_iot_sdk/toolchain/compiler/riscv32-unknown-elf/include/string.h"
	.file 39 "/home/chandu/sdk/bl602_iot_sdk/toolchain/compiler/riscv32-unknown-elf/include/stdio.h"
	.section	.note.GNU-stack,"",@progbits
