	.file	"wifi_mgmr_api.c"
	.option nopic
	.attribute arch, "rv32i2p1_m2p0_f2p2_c2p0_zicsr2p0_zmmul1p0_zca1p0_zcf1p0"
	.attribute unaligned_access, 0
	.attribute stack_align, 16
	.text
.Ltext0:
	.cfi_sections	.debug_frame
	.file 0 "/home/chandu/sdk/bl602_iot_sdk/customer_app/suas_app_pqkem_gateway/build_out/bl602_wifidrv" "/home/chandu/sdk/bl602_iot_sdk/components/bl602/bl602_wifidrv/bl60x_wifi_driver/wifi_mgmr_api.c"
	.section	.rodata
	.align	2
.LC0:
	.string	"wifi mgmr band:%d freq: %d\r\n"
	.section	.text.wifi_mgmr_api_connect,"ax",@progbits
	.align	1
	.globl	wifi_mgmr_api_connect
	.type	wifi_mgmr_api_connect, @function
wifi_mgmr_api_connect:
.LFB35:
	.file 1 "/home/chandu/sdk/bl602_iot_sdk/components/bl602/bl602_wifidrv/bl60x_wifi_driver/wifi_mgmr_api.c"
	.loc 1 41 1
	.cfi_startproc
	addi	sp,sp,-256
	.cfi_def_cfa_offset 256
	sw	ra,252(sp)
	sw	s0,248(sp)
	.cfi_offset 1, -4
	.cfi_offset 8, -8
	addi	s0,sp,256
	.cfi_def_cfa 8, 0
	sw	a0,-228(s0)
	sw	a1,-232(s0)
	sw	a2,-236(s0)
	sw	a3,-240(s0)
	mv	a3,a4
	mv	a4,a5
	mv	a5,a3
	sb	a5,-241(s0)
	mv	a5,a4
	sh	a5,-244(s0)
	.loc 1 46 5
	addi	a5,s0,-224
	li	a2,198
	li	a1,0
	mv	a0,a5
	call	memset
	.loc 1 47 9
	addi	a5,s0,-224
	sw	a5,-20(s0)
	.loc 1 48 13
	lw	a5,-20(s0)
	li	a4,1
	sb	a4,0(a5)
	.loc 1 49 16
	lw	a5,-20(s0)
	lbu	a4,1(a5)
	andi	a4,a4,0
	ori	a4,a4,68
	sb	a4,1(a5)
	lbu	a4,2(a5)
	andi	a4,a4,0
	ori	a4,a4,51
	sb	a4,2(a5)
	lbu	a4,3(a5)
	andi	a4,a4,0
	ori	a4,a4,34
	sb	a4,3(a5)
	lbu	a4,4(a5)
	andi	a4,a4,0
	ori	a4,a4,17
	sb	a4,4(a5)
	.loc 1 50 16
	lw	a5,-20(s0)
	lbu	a4,5(a5)
	andi	a4,a4,0
	ori	a4,a4,-120
	sb	a4,5(a5)
	lbu	a4,6(a5)
	andi	a4,a4,0
	ori	a4,a4,119
	sb	a4,6(a5)
	lbu	a4,7(a5)
	andi	a4,a4,0
	ori	a4,a4,102
	sb	a4,7(a5)
	lbu	a4,8(a5)
	andi	a4,a4,0
	ori	a4,a4,85
	sb	a4,8(a5)
	.loc 1 51 14
	lw	a5,-20(s0)
	lbu	a4,9(a5)
	andi	a4,a4,0
	ori	a4,a4,-58
	sb	a4,9(a5)
	lbu	a4,10(a5)
	andi	a4,a4,0
	sb	a4,10(a5)
	lbu	a4,11(a5)
	andi	a4,a4,0
	sb	a4,11(a5)
	lbu	a4,12(a5)
	andi	a4,a4,0
	sb	a4,12(a5)
	.loc 1 52 13
	lw	a5,-20(s0)
	addi	a5,a5,13
	sw	a5,-24(s0)
	.loc 1 53 25
	lw	a0,-228(s0)
	call	strlen
	mv	a4,a0
	.loc 1 53 23 discriminator 1
	lw	a5,-24(s0)
	andi	a3,a4,255
	lbu	a2,33(a5)
	andi	a2,a2,0
	or	a3,a2,a3
	sb	a3,33(a5)
	srli	a3,a4,8
	andi	a3,a3,255
	lbu	a2,34(a5)
	andi	a2,a2,0
	or	a3,a2,a3
	sb	a3,34(a5)
	srli	a3,a4,16
	andi	a3,a3,255
	lbu	a2,35(a5)
	andi	a2,a2,0
	or	a3,a2,a3
	sb	a3,35(a5)
	srli	a4,a4,24
	lbu	a3,36(a5)
	andi	a3,a3,0
	or	a4,a3,a4
	sb	a4,36(a5)
	.loc 1 54 19
	lw	a0,-24(s0)
	.loc 1 54 40
	lw	a5,-24(s0)
	lbu	a4,33(a5)
	lbu	a3,34(a5)
	slli	a3,a3,8
	or	a4,a3,a4
	lbu	a3,35(a5)
	slli	a3,a3,16
	or	a4,a3,a4
	lbu	a5,36(a5)
	slli	a5,a5,24
	or	a5,a5,a4
	.loc 1 54 5
	mv	a2,a5
	lw	a1,-228(s0)
	call	memcpy
	.loc 1 55 27
	lw	a5,-24(s0)
	sb	zero,32(a5)
	.loc 1 56 42
	lw	a5,-232(s0)
	beq	a5,zero,.L2
	.loc 1 56 30 discriminator 1
	lw	a0,-232(s0)
	call	strlen
	mv	a4,a0
	j	.L3
.L2:
	.loc 1 56 42 discriminator 2
	li	a4,0
.L3:
	.loc 1 56 22 discriminator 5
	lw	a5,-24(s0)
	andi	a3,a4,255
	lbu	a2,167(a5)
	andi	a2,a2,0
	or	a3,a2,a3
	sb	a3,167(a5)
	srli	a3,a4,8
	andi	a3,a3,255
	lbu	a2,168(a5)
	andi	a2,a2,0
	or	a3,a2,a3
	sb	a3,168(a5)
	srli	a3,a4,16
	andi	a3,a3,255
	lbu	a2,169(a5)
	andi	a2,a2,0
	or	a3,a2,a3
	sb	a3,169(a5)
	srli	a4,a4,24
	lbu	a3,170(a5)
	andi	a3,a3,0
	or	a4,a3,a4
	sb	a4,170(a5)
	.loc 1 57 16
	lw	a5,-24(s0)
	lbu	a4,167(a5)
	lbu	a3,168(a5)
	slli	a3,a3,8
	or	a4,a3,a4
	lbu	a3,169(a5)
	slli	a3,a3,16
	or	a4,a3,a4
	lbu	a5,170(a5)
	slli	a5,a5,24
	or	a5,a5,a4
	mv	a4,a5
	.loc 1 57 8
	li	a5,64
	bleu	a4,a5,.L4
	.loc 1 58 16
	li	a5,-1
	j	.L13
.L4:
	.loc 1 59 23
	lw	a5,-24(s0)
	lbu	a4,167(a5)
	lbu	a3,168(a5)
	slli	a3,a3,8
	or	a4,a3,a4
	lbu	a3,169(a5)
	slli	a3,a3,16
	or	a4,a3,a4
	lbu	a5,170(a5)
	slli	a5,a5,24
	or	a5,a5,a4
	.loc 1 59 15
	beq	a5,zero,.L6
	.loc 1 60 23
	lw	a5,-24(s0)
	addi	a0,a5,37
	.loc 1 60 42
	lw	a5,-24(s0)
	lbu	a4,167(a5)
	lbu	a3,168(a5)
	slli	a3,a3,8
	or	a4,a3,a4
	lbu	a3,169(a5)
	slli	a3,a3,16
	or	a4,a3,a4
	lbu	a5,170(a5)
	slli	a5,a5,24
	or	a5,a5,a4
	.loc 1 60 9
	mv	a2,a5
	lw	a1,-232(s0)
	call	memcpy
.L6:
	.loc 1 62 26
	lw	a5,-24(s0)
	sb	zero,101(a5)
	.loc 1 63 42
	lw	a5,-236(s0)
	beq	a5,zero,.L7
	.loc 1 63 30 discriminator 1
	lw	a0,-236(s0)
	call	strlen
	mv	a4,a0
	j	.L8
.L7:
	.loc 1 63 42 discriminator 2
	li	a4,0
.L8:
	.loc 1 63 22 discriminator 5
	lw	a5,-24(s0)
	andi	a3,a4,255
	lbu	a2,171(a5)
	andi	a2,a2,0
	or	a3,a2,a3
	sb	a3,171(a5)
	srli	a3,a4,8
	andi	a3,a3,255
	lbu	a2,172(a5)
	andi	a2,a2,0
	or	a3,a2,a3
	sb	a3,172(a5)
	srli	a3,a4,16
	andi	a3,a3,255
	lbu	a2,173(a5)
	andi	a2,a2,0
	or	a3,a2,a3
	sb	a3,173(a5)
	srli	a4,a4,24
	lbu	a3,174(a5)
	andi	a3,a3,0
	or	a4,a3,a4
	sb	a4,174(a5)
	.loc 1 64 21
	lw	a5,-24(s0)
	lbu	a4,171(a5)
	lbu	a3,172(a5)
	slli	a3,a3,8
	or	a4,a3,a4
	lbu	a3,173(a5)
	slli	a3,a3,16
	or	a4,a3,a4
	lbu	a5,174(a5)
	slli	a5,a5,24
	or	a5,a5,a4
	.loc 1 64 8
	beq	a5,zero,.L9
	.loc 1 64 65 discriminator 1
	lw	a5,-24(s0)
	lbu	a4,171(a5)
	lbu	a3,172(a5)
	slli	a3,a3,8
	or	a4,a3,a4
	lbu	a3,173(a5)
	slli	a3,a3,16
	or	a4,a3,a4
	lbu	a5,174(a5)
	slli	a5,a5,24
	or	a5,a5,a4
	mv	a4,a5
	.loc 1 64 31 discriminator 1
	li	a5,64
	beq	a4,a5,.L9
	.loc 1 65 16
	li	a5,-1
	j	.L13
.L9:
	.loc 1 66 47
	lw	a5,-24(s0)
	lbu	a4,171(a5)
	lbu	a3,172(a5)
	slli	a3,a3,8
	or	a4,a3,a4
	lbu	a3,173(a5)
	slli	a3,a3,16
	or	a4,a3,a4
	lbu	a5,174(a5)
	slli	a5,a5,24
	or	a5,a5,a4
	mv	a4,a5
	.loc 1 66 15
	li	a5,64
	bne	a4,a5,.L10
	.loc 1 67 23
	lw	a5,-24(s0)
	addi	a0,a5,102
	.loc 1 67 42
	lw	a5,-24(s0)
	lbu	a4,171(a5)
	lbu	a3,172(a5)
	slli	a3,a3,8
	or	a4,a3,a4
	lbu	a3,173(a5)
	slli	a3,a3,16
	or	a4,a3,a4
	lbu	a5,174(a5)
	slli	a5,a5,24
	or	a5,a5,a4
	.loc 1 67 9
	mv	a2,a5
	lw	a1,-236(s0)
	call	memcpy
.L10:
	.loc 1 69 26
	lw	a5,-24(s0)
	sb	zero,166(a5)
	.loc 1 70 8
	lw	a5,-240(s0)
	beq	a5,zero,.L11
	.loc 1 71 23
	lw	a5,-24(s0)
	addi	a5,a5,175
	.loc 1 71 9
	li	a2,6
	lw	a1,-240(s0)
	mv	a0,a5
	call	memcpy
.L11:
	.loc 1 73 8
	lhu	a5,-244(s0)
	beq	a5,zero,.L12
	.loc 1 75 23
	lw	a5,-24(s0)
	lbu	a4,-241(s0)
	sb	a4,181(a5)
	.loc 1 76 23
	lw	a5,-24(s0)
	lhu	a4,-244(s0)
	andi	a4,a4,255
	lbu	a3,182(a5)
	andi	a3,a3,0
	or	a4,a3,a4
	sb	a4,182(a5)
	lhu	a4,-244(s0)
	srli	a4,a4,8
	slli	a4,a4,16
	srli	a4,a4,16
	lbu	a3,183(a5)
	andi	a3,a3,0
	or	a4,a3,a4
	sb	a4,183(a5)
	.loc 1 77 57
	lw	a5,-24(s0)
	lbu	a5,181(a5)
	.loc 1 77 9
	mv	a3,a5
	.loc 1 77 72
	lw	a5,-24(s0)
	lbu	a4,182(a5)
	lbu	a5,183(a5)
	slli	a5,a5,8
	or	a5,a5,a4
	slli	a5,a5,16
	srli	a5,a5,16
	.loc 1 77 9
	mv	a2,a5
	mv	a1,a3
	lui	a5,%hi(.LC0)
	addi	a0,a5,%lo(.LC0)
	call	printf
.L12:
	.loc 1 79 23
	lw	a5,-24(s0)
	li	a4,1
	sb	a4,184(a5)
	.loc 1 81 5
	lw	a0,-20(s0)
	call	wifi_mgmr_event_notify
	.loc 1 83 12
	li	a5,0
.L13:
	.loc 1 84 1
	mv	a0,a5
	lw	ra,252(sp)
	.cfi_restore 1
	lw	s0,248(sp)
	.cfi_restore 8
	.cfi_def_cfa 2, 256
	addi	sp,sp,256
	.cfi_def_cfa_offset 0
	jr	ra
	.cfi_endproc
.LFE35:
	.size	wifi_mgmr_api_connect, .-wifi_mgmr_api_connect
	.section	.text.wifi_mgmr_api_cfg_req,"ax",@progbits
	.align	1
	.globl	wifi_mgmr_api_cfg_req
	.type	wifi_mgmr_api_cfg_req, @function
wifi_mgmr_api_cfg_req:
.LFB36:
	.loc 1 87 1
	.cfi_startproc
	addi	sp,sp,-128
	.cfi_def_cfa_offset 128
	sw	ra,124(sp)
	sw	s0,120(sp)
	.cfi_offset 1, -4
	.cfi_offset 8, -8
	addi	s0,sp,128
	.cfi_def_cfa 8, 0
	sw	a0,-100(s0)
	sw	a1,-104(s0)
	sw	a2,-108(s0)
	sw	a3,-112(s0)
	sw	a4,-116(s0)
	sw	a5,-120(s0)
	.loc 1 93 8
	lw	a4,-116(s0)
	li	a5,32
	bleu	a4,a5,.L15
	.loc 1 94 16
	li	a5,-1
	j	.L18
.L15:
	.loc 1 97 5
	addi	a5,s0,-92
	li	a2,65
	li	a1,0
	mv	a0,a5
	call	memset
	.loc 1 98 9
	addi	a5,s0,-92
	sw	a5,-20(s0)
	.loc 1 99 13
	lw	a5,-20(s0)
	li	a4,22
	sb	a4,0(a5)
	.loc 1 100 16
	lw	a5,-20(s0)
	lbu	a4,1(a5)
	andi	a4,a4,0
	ori	a4,a4,68
	sb	a4,1(a5)
	lbu	a4,2(a5)
	andi	a4,a4,0
	ori	a4,a4,51
	sb	a4,2(a5)
	lbu	a4,3(a5)
	andi	a4,a4,0
	ori	a4,a4,34
	sb	a4,3(a5)
	lbu	a4,4(a5)
	andi	a4,a4,0
	ori	a4,a4,17
	sb	a4,4(a5)
	.loc 1 101 16
	lw	a5,-20(s0)
	lbu	a4,5(a5)
	andi	a4,a4,0
	ori	a4,a4,-120
	sb	a4,5(a5)
	lbu	a4,6(a5)
	andi	a4,a4,0
	ori	a4,a4,119
	sb	a4,6(a5)
	lbu	a4,7(a5)
	andi	a4,a4,0
	ori	a4,a4,102
	sb	a4,7(a5)
	lbu	a4,8(a5)
	andi	a4,a4,0
	ori	a4,a4,85
	sb	a4,8(a5)
	.loc 1 102 75
	lw	a5,-116(s0)
	addi	a4,a5,198
	.loc 1 102 14
	lw	a5,-20(s0)
	andi	a3,a4,255
	lbu	a2,9(a5)
	andi	a2,a2,0
	or	a3,a2,a3
	sb	a3,9(a5)
	srli	a3,a4,8
	andi	a3,a3,255
	lbu	a2,10(a5)
	andi	a2,a2,0
	or	a3,a2,a3
	sb	a3,10(a5)
	srli	a3,a4,16
	andi	a3,a3,255
	lbu	a2,11(a5)
	andi	a2,a2,0
	or	a3,a2,a3
	sb	a3,11(a5)
	srli	a4,a4,24
	lbu	a3,12(a5)
	andi	a3,a3,0
	or	a4,a3,a4
	sb	a4,12(a5)
	.loc 1 104 13
	lw	a5,-20(s0)
	addi	a5,a5,13
	sw	a5,-24(s0)
	.loc 1 105 18
	lw	a5,-24(s0)
	lw	a4,-100(s0)
	andi	a4,a4,255
	lbu	a3,0(a5)
	andi	a3,a3,0
	or	a4,a3,a4
	sb	a4,0(a5)
	lw	a4,-100(s0)
	srli	a4,a4,8
	andi	a4,a4,255
	lbu	a3,1(a5)
	andi	a3,a3,0
	or	a4,a3,a4
	sb	a4,1(a5)
	lw	a4,-100(s0)
	srli	a4,a4,16
	andi	a4,a4,255
	lbu	a3,2(a5)
	andi	a3,a3,0
	or	a4,a3,a4
	sb	a4,2(a5)
	lw	a4,-100(s0)
	srli	a4,a4,24
	lbu	a3,3(a5)
	andi	a3,a3,0
	or	a4,a3,a4
	sb	a4,3(a5)
	.loc 1 106 19
	lw	a5,-24(s0)
	lw	a4,-104(s0)
	andi	a4,a4,255
	lbu	a3,4(a5)
	andi	a3,a3,0
	or	a4,a3,a4
	sb	a4,4(a5)
	lw	a4,-104(s0)
	srli	a4,a4,8
	andi	a4,a4,255
	lbu	a3,5(a5)
	andi	a3,a3,0
	or	a4,a3,a4
	sb	a4,5(a5)
	lw	a4,-104(s0)
	srli	a4,a4,16
	andi	a4,a4,255
	lbu	a3,6(a5)
	andi	a3,a3,0
	or	a4,a3,a4
	sb	a4,6(a5)
	lw	a4,-104(s0)
	srli	a4,a4,24
	lbu	a3,7(a5)
	andi	a3,a3,0
	or	a4,a3,a4
	sb	a4,7(a5)
	.loc 1 107 22
	lw	a5,-24(s0)
	lw	a4,-108(s0)
	andi	a4,a4,255
	lbu	a3,8(a5)
	andi	a3,a3,0
	or	a4,a3,a4
	sb	a4,8(a5)
	lw	a4,-108(s0)
	srli	a4,a4,8
	andi	a4,a4,255
	lbu	a3,9(a5)
	andi	a3,a3,0
	or	a4,a3,a4
	sb	a4,9(a5)
	lw	a4,-108(s0)
	srli	a4,a4,16
	andi	a4,a4,255
	lbu	a3,10(a5)
	andi	a3,a3,0
	or	a4,a3,a4
	sb	a4,10(a5)
	lw	a4,-108(s0)
	srli	a4,a4,24
	lbu	a3,11(a5)
	andi	a3,a3,0
	or	a4,a3,a4
	sb	a4,11(a5)
	.loc 1 108 19
	lw	a5,-24(s0)
	lw	a4,-112(s0)
	andi	a4,a4,255
	lbu	a3,12(a5)
	andi	a3,a3,0
	or	a4,a3,a4
	sb	a4,12(a5)
	lw	a4,-112(s0)
	srli	a4,a4,8
	andi	a4,a4,255
	lbu	a3,13(a5)
	andi	a3,a3,0
	or	a4,a3,a4
	sb	a4,13(a5)
	lw	a4,-112(s0)
	srli	a4,a4,16
	andi	a4,a4,255
	lbu	a3,14(a5)
	andi	a3,a3,0
	or	a4,a3,a4
	sb	a4,14(a5)
	lw	a4,-112(s0)
	srli	a4,a4,24
	lbu	a3,15(a5)
	andi	a3,a3,0
	or	a4,a3,a4
	sb	a4,15(a5)
	.loc 1 109 21
	lw	a5,-24(s0)
	lw	a4,-116(s0)
	andi	a4,a4,255
	lbu	a3,16(a5)
	andi	a3,a3,0
	or	a4,a3,a4
	sb	a4,16(a5)
	lw	a4,-116(s0)
	srli	a4,a4,8
	andi	a4,a4,255
	lbu	a3,17(a5)
	andi	a3,a3,0
	or	a4,a3,a4
	sb	a4,17(a5)
	lw	a4,-116(s0)
	srli	a4,a4,16
	andi	a4,a4,255
	lbu	a3,18(a5)
	andi	a3,a3,0
	or	a4,a3,a4
	sb	a4,18(a5)
	lw	a4,-116(s0)
	srli	a4,a4,24
	lbu	a3,19(a5)
	andi	a3,a3,0
	or	a4,a3,a4
	sb	a4,19(a5)
	.loc 1 110 8
	lw	a5,-116(s0)
	beq	a5,zero,.L17
	.loc 1 111 23
	lw	a5,-24(s0)
	addi	a5,a5,20
	.loc 1 111 9
	lw	a2,-116(s0)
	lw	a1,-120(s0)
	mv	a0,a5
	call	memcpy
.L17:
	.loc 1 114 5
	lw	a0,-20(s0)
	call	wifi_mgmr_event_notify
	.loc 1 116 12
	li	a5,0
.L18:
	.loc 1 117 1
	mv	a0,a5
	lw	ra,124(sp)
	.cfi_restore 1
	lw	s0,120(sp)
	.cfi_restore 8
	.cfi_def_cfa 2, 128
	addi	sp,sp,128
	.cfi_def_cfa_offset 0
	jr	ra
	.cfi_endproc
.LFE36:
	.size	wifi_mgmr_api_cfg_req, .-wifi_mgmr_api_cfg_req
	.section	.text.wifi_mgmr_api_ip_got,"ax",@progbits
	.align	1
	.globl	wifi_mgmr_api_ip_got
	.type	wifi_mgmr_api_ip_got, @function
wifi_mgmr_api_ip_got:
.LFB37:
	.loc 1 120 1
	.cfi_startproc
	addi	sp,sp,-96
	.cfi_def_cfa_offset 96
	sw	ra,92(sp)
	sw	s0,88(sp)
	.cfi_offset 1, -4
	.cfi_offset 8, -8
	addi	s0,sp,96
	.cfi_def_cfa 8, 0
	sw	a0,-68(s0)
	sw	a1,-72(s0)
	sw	a2,-76(s0)
	sw	a3,-80(s0)
	sw	a4,-84(s0)
	.loc 1 125 5
	addi	a5,s0,-60
	li	a2,33
	li	a1,0
	mv	a0,a5
	call	memset
	.loc 1 126 9
	addi	a5,s0,-60
	sw	a5,-20(s0)
	.loc 1 127 13
	lw	a5,-20(s0)
	li	a4,4
	sb	a4,0(a5)
	.loc 1 128 16
	lw	a5,-20(s0)
	lbu	a4,1(a5)
	andi	a4,a4,0
	ori	a4,a4,68
	sb	a4,1(a5)
	lbu	a4,2(a5)
	andi	a4,a4,0
	ori	a4,a4,51
	sb	a4,2(a5)
	lbu	a4,3(a5)
	andi	a4,a4,0
	ori	a4,a4,34
	sb	a4,3(a5)
	lbu	a4,4(a5)
	andi	a4,a4,0
	ori	a4,a4,17
	sb	a4,4(a5)
	.loc 1 129 16
	lw	a5,-20(s0)
	lbu	a4,5(a5)
	andi	a4,a4,0
	ori	a4,a4,-120
	sb	a4,5(a5)
	lbu	a4,6(a5)
	andi	a4,a4,0
	ori	a4,a4,119
	sb	a4,6(a5)
	lbu	a4,7(a5)
	andi	a4,a4,0
	ori	a4,a4,102
	sb	a4,7(a5)
	lbu	a4,8(a5)
	andi	a4,a4,0
	ori	a4,a4,85
	sb	a4,8(a5)
	.loc 1 130 14
	lw	a5,-20(s0)
	lbu	a4,9(a5)
	andi	a4,a4,0
	ori	a4,a4,33
	sb	a4,9(a5)
	lbu	a4,10(a5)
	andi	a4,a4,0
	sb	a4,10(a5)
	lbu	a4,11(a5)
	andi	a4,a4,0
	sb	a4,11(a5)
	lbu	a4,12(a5)
	andi	a4,a4,0
	sb	a4,12(a5)
	.loc 1 132 11
	lw	a5,-20(s0)
	addi	a5,a5,13
	sw	a5,-24(s0)
	.loc 1 133 15
	lw	a5,-24(s0)
	lw	a4,-68(s0)
	andi	a4,a4,255
	lbu	a3,0(a5)
	andi	a3,a3,0
	or	a4,a3,a4
	sb	a4,0(a5)
	lw	a4,-68(s0)
	srli	a4,a4,8
	andi	a4,a4,255
	lbu	a3,1(a5)
	andi	a3,a3,0
	or	a4,a3,a4
	sb	a4,1(a5)
	lw	a4,-68(s0)
	srli	a4,a4,16
	andi	a4,a4,255
	lbu	a3,2(a5)
	andi	a3,a3,0
	or	a4,a3,a4
	sb	a4,2(a5)
	lw	a4,-68(s0)
	srli	a4,a4,24
	lbu	a3,3(a5)
	andi	a3,a3,0
	or	a4,a3,a4
	sb	a4,3(a5)
	.loc 1 134 17
	lw	a5,-24(s0)
	lw	a4,-72(s0)
	andi	a4,a4,255
	lbu	a3,4(a5)
	andi	a3,a3,0
	or	a4,a3,a4
	sb	a4,4(a5)
	lw	a4,-72(s0)
	srli	a4,a4,8
	andi	a4,a4,255
	lbu	a3,5(a5)
	andi	a3,a3,0
	or	a4,a3,a4
	sb	a4,5(a5)
	lw	a4,-72(s0)
	srli	a4,a4,16
	andi	a4,a4,255
	lbu	a3,6(a5)
	andi	a3,a3,0
	or	a4,a3,a4
	sb	a4,6(a5)
	lw	a4,-72(s0)
	srli	a4,a4,24
	lbu	a3,7(a5)
	andi	a3,a3,0
	or	a4,a3,a4
	sb	a4,7(a5)
	.loc 1 135 15
	lw	a5,-24(s0)
	lw	a4,-76(s0)
	andi	a4,a4,255
	lbu	a3,8(a5)
	andi	a3,a3,0
	or	a4,a3,a4
	sb	a4,8(a5)
	lw	a4,-76(s0)
	srli	a4,a4,8
	andi	a4,a4,255
	lbu	a3,9(a5)
	andi	a3,a3,0
	or	a4,a3,a4
	sb	a4,9(a5)
	lw	a4,-76(s0)
	srli	a4,a4,16
	andi	a4,a4,255
	lbu	a3,10(a5)
	andi	a3,a3,0
	or	a4,a3,a4
	sb	a4,10(a5)
	lw	a4,-76(s0)
	srli	a4,a4,24
	lbu	a3,11(a5)
	andi	a3,a3,0
	or	a4,a3,a4
	sb	a4,11(a5)
	.loc 1 136 17
	lw	a5,-24(s0)
	lw	a4,-80(s0)
	andi	a4,a4,255
	lbu	a3,12(a5)
	andi	a3,a3,0
	or	a4,a3,a4
	sb	a4,12(a5)
	lw	a4,-80(s0)
	srli	a4,a4,8
	andi	a4,a4,255
	lbu	a3,13(a5)
	andi	a3,a3,0
	or	a4,a3,a4
	sb	a4,13(a5)
	lw	a4,-80(s0)
	srli	a4,a4,16
	andi	a4,a4,255
	lbu	a3,14(a5)
	andi	a3,a3,0
	or	a4,a3,a4
	sb	a4,14(a5)
	lw	a4,-80(s0)
	srli	a4,a4,24
	lbu	a3,15(a5)
	andi	a3,a3,0
	or	a4,a3,a4
	sb	a4,15(a5)
	.loc 1 137 17
	lw	a5,-24(s0)
	lw	a4,-84(s0)
	andi	a4,a4,255
	lbu	a3,16(a5)
	andi	a3,a3,0
	or	a4,a3,a4
	sb	a4,16(a5)
	lw	a4,-84(s0)
	srli	a4,a4,8
	andi	a4,a4,255
	lbu	a3,17(a5)
	andi	a3,a3,0
	or	a4,a3,a4
	sb	a4,17(a5)
	lw	a4,-84(s0)
	srli	a4,a4,16
	andi	a4,a4,255
	lbu	a3,18(a5)
	andi	a3,a3,0
	or	a4,a3,a4
	sb	a4,18(a5)
	lw	a4,-84(s0)
	srli	a4,a4,24
	lbu	a3,19(a5)
	andi	a3,a3,0
	or	a4,a3,a4
	sb	a4,19(a5)
	.loc 1 138 5
	lw	a0,-20(s0)
	call	wifi_mgmr_event_notify
	.loc 1 140 12
	li	a5,0
	.loc 1 141 1
	mv	a0,a5
	lw	ra,92(sp)
	.cfi_restore 1
	lw	s0,88(sp)
	.cfi_restore 8
	.cfi_def_cfa 2, 96
	addi	sp,sp,96
	.cfi_def_cfa_offset 0
	jr	ra
	.cfi_endproc
.LFE37:
	.size	wifi_mgmr_api_ip_got, .-wifi_mgmr_api_ip_got
	.section	.text.wifi_mgmr_api_ip_update,"ax",@progbits
	.align	1
	.globl	wifi_mgmr_api_ip_update
	.type	wifi_mgmr_api_ip_update, @function
wifi_mgmr_api_ip_update:
.LFB38:
	.loc 1 144 1
	.cfi_startproc
	addi	sp,sp,-48
	.cfi_def_cfa_offset 48
	sw	ra,44(sp)
	sw	s0,40(sp)
	.cfi_offset 1, -4
	.cfi_offset 8, -8
	addi	s0,sp,48
	.cfi_def_cfa 8, 0
	.loc 1 148 5
	addi	a5,s0,-36
	li	a2,13
	li	a1,0
	mv	a0,a5
	call	memset
	.loc 1 149 9
	addi	a5,s0,-36
	sw	a5,-20(s0)
	.loc 1 150 13
	lw	a5,-20(s0)
	li	a4,30
	sb	a4,0(a5)
	.loc 1 151 16
	lw	a5,-20(s0)
	lbu	a4,1(a5)
	andi	a4,a4,0
	ori	a4,a4,68
	sb	a4,1(a5)
	lbu	a4,2(a5)
	andi	a4,a4,0
	ori	a4,a4,51
	sb	a4,2(a5)
	lbu	a4,3(a5)
	andi	a4,a4,0
	ori	a4,a4,34
	sb	a4,3(a5)
	lbu	a4,4(a5)
	andi	a4,a4,0
	ori	a4,a4,17
	sb	a4,4(a5)
	.loc 1 152 16
	lw	a5,-20(s0)
	lbu	a4,5(a5)
	andi	a4,a4,0
	ori	a4,a4,-120
	sb	a4,5(a5)
	lbu	a4,6(a5)
	andi	a4,a4,0
	ori	a4,a4,119
	sb	a4,6(a5)
	lbu	a4,7(a5)
	andi	a4,a4,0
	ori	a4,a4,102
	sb	a4,7(a5)
	lbu	a4,8(a5)
	andi	a4,a4,0
	ori	a4,a4,85
	sb	a4,8(a5)
	.loc 1 153 14
	lw	a5,-20(s0)
	lbu	a4,9(a5)
	andi	a4,a4,0
	ori	a4,a4,13
	sb	a4,9(a5)
	lbu	a4,10(a5)
	andi	a4,a4,0
	sb	a4,10(a5)
	lbu	a4,11(a5)
	andi	a4,a4,0
	sb	a4,11(a5)
	lbu	a4,12(a5)
	andi	a4,a4,0
	sb	a4,12(a5)
	.loc 1 155 5
	lw	a0,-20(s0)
	call	wifi_mgmr_event_notify
	.loc 1 157 12
	li	a5,0
	.loc 1 158 1
	mv	a0,a5
	lw	ra,44(sp)
	.cfi_restore 1
	lw	s0,40(sp)
	.cfi_restore 8
	.cfi_def_cfa 2, 48
	addi	sp,sp,48
	.cfi_def_cfa_offset 0
	jr	ra
	.cfi_endproc
.LFE38:
	.size	wifi_mgmr_api_ip_update, .-wifi_mgmr_api_ip_update
	.section	.text.wifi_mgmr_api_reconnect,"ax",@progbits
	.align	1
	.globl	wifi_mgmr_api_reconnect
	.type	wifi_mgmr_api_reconnect, @function
wifi_mgmr_api_reconnect:
.LFB39:
	.loc 1 161 1
	.cfi_startproc
	addi	sp,sp,-48
	.cfi_def_cfa_offset 48
	sw	ra,44(sp)
	sw	s0,40(sp)
	.cfi_offset 1, -4
	.cfi_offset 8, -8
	addi	s0,sp,48
	.cfi_def_cfa 8, 0
	.loc 1 165 5
	addi	a5,s0,-36
	li	a2,13
	li	a1,0
	mv	a0,a5
	call	memset
	.loc 1 166 9
	addi	a5,s0,-36
	sw	a5,-20(s0)
	.loc 1 167 13
	lw	a5,-20(s0)
	li	a4,6
	sb	a4,0(a5)
	.loc 1 168 16
	lw	a5,-20(s0)
	lbu	a4,1(a5)
	andi	a4,a4,0
	ori	a4,a4,68
	sb	a4,1(a5)
	lbu	a4,2(a5)
	andi	a4,a4,0
	ori	a4,a4,51
	sb	a4,2(a5)
	lbu	a4,3(a5)
	andi	a4,a4,0
	ori	a4,a4,34
	sb	a4,3(a5)
	lbu	a4,4(a5)
	andi	a4,a4,0
	ori	a4,a4,17
	sb	a4,4(a5)
	.loc 1 169 16
	lw	a5,-20(s0)
	lbu	a4,5(a5)
	andi	a4,a4,0
	ori	a4,a4,-120
	sb	a4,5(a5)
	lbu	a4,6(a5)
	andi	a4,a4,0
	ori	a4,a4,119
	sb	a4,6(a5)
	lbu	a4,7(a5)
	andi	a4,a4,0
	ori	a4,a4,102
	sb	a4,7(a5)
	lbu	a4,8(a5)
	andi	a4,a4,0
	ori	a4,a4,85
	sb	a4,8(a5)
	.loc 1 170 14
	lw	a5,-20(s0)
	lbu	a4,9(a5)
	andi	a4,a4,0
	ori	a4,a4,13
	sb	a4,9(a5)
	lbu	a4,10(a5)
	andi	a4,a4,0
	sb	a4,10(a5)
	lbu	a4,11(a5)
	andi	a4,a4,0
	sb	a4,11(a5)
	lbu	a4,12(a5)
	andi	a4,a4,0
	sb	a4,12(a5)
	.loc 1 172 5
	lw	a0,-20(s0)
	call	wifi_mgmr_event_notify
	.loc 1 174 12
	li	a5,0
	.loc 1 175 1
	mv	a0,a5
	lw	ra,44(sp)
	.cfi_restore 1
	lw	s0,40(sp)
	.cfi_restore 8
	.cfi_def_cfa 2, 48
	addi	sp,sp,48
	.cfi_def_cfa_offset 0
	jr	ra
	.cfi_endproc
.LFE39:
	.size	wifi_mgmr_api_reconnect, .-wifi_mgmr_api_reconnect
	.section	.text.wifi_mgmr_api_disable_autoreconnect,"ax",@progbits
	.align	1
	.globl	wifi_mgmr_api_disable_autoreconnect
	.type	wifi_mgmr_api_disable_autoreconnect, @function
wifi_mgmr_api_disable_autoreconnect:
.LFB40:
	.loc 1 178 1
	.cfi_startproc
	addi	sp,sp,-48
	.cfi_def_cfa_offset 48
	sw	ra,44(sp)
	sw	s0,40(sp)
	.cfi_offset 1, -4
	.cfi_offset 8, -8
	addi	s0,sp,48
	.cfi_def_cfa 8, 0
	.loc 1 182 5
	addi	a5,s0,-36
	li	a2,13
	li	a1,0
	mv	a0,a5
	call	memset
	.loc 1 183 9
	addi	a5,s0,-36
	sw	a5,-20(s0)
	.loc 1 184 13
	lw	a5,-20(s0)
	li	a4,28
	sb	a4,0(a5)
	.loc 1 185 16
	lw	a5,-20(s0)
	lbu	a4,1(a5)
	andi	a4,a4,0
	ori	a4,a4,68
	sb	a4,1(a5)
	lbu	a4,2(a5)
	andi	a4,a4,0
	ori	a4,a4,51
	sb	a4,2(a5)
	lbu	a4,3(a5)
	andi	a4,a4,0
	ori	a4,a4,34
	sb	a4,3(a5)
	lbu	a4,4(a5)
	andi	a4,a4,0
	ori	a4,a4,17
	sb	a4,4(a5)
	.loc 1 186 16
	lw	a5,-20(s0)
	lbu	a4,5(a5)
	andi	a4,a4,0
	ori	a4,a4,-120
	sb	a4,5(a5)
	lbu	a4,6(a5)
	andi	a4,a4,0
	ori	a4,a4,119
	sb	a4,6(a5)
	lbu	a4,7(a5)
	andi	a4,a4,0
	ori	a4,a4,102
	sb	a4,7(a5)
	lbu	a4,8(a5)
	andi	a4,a4,0
	ori	a4,a4,85
	sb	a4,8(a5)
	.loc 1 187 14
	lw	a5,-20(s0)
	lbu	a4,9(a5)
	andi	a4,a4,0
	ori	a4,a4,13
	sb	a4,9(a5)
	lbu	a4,10(a5)
	andi	a4,a4,0
	sb	a4,10(a5)
	lbu	a4,11(a5)
	andi	a4,a4,0
	sb	a4,11(a5)
	lbu	a4,12(a5)
	andi	a4,a4,0
	sb	a4,12(a5)
	.loc 1 189 5
	lw	a0,-20(s0)
	call	wifi_mgmr_event_notify
	.loc 1 191 12
	li	a5,0
	.loc 1 192 1
	mv	a0,a5
	lw	ra,44(sp)
	.cfi_restore 1
	lw	s0,40(sp)
	.cfi_restore 8
	.cfi_def_cfa 2, 48
	addi	sp,sp,48
	.cfi_def_cfa_offset 0
	jr	ra
	.cfi_endproc
.LFE40:
	.size	wifi_mgmr_api_disable_autoreconnect, .-wifi_mgmr_api_disable_autoreconnect
	.section	.text.wifi_mgmr_api_enable_autoreconnect,"ax",@progbits
	.align	1
	.globl	wifi_mgmr_api_enable_autoreconnect
	.type	wifi_mgmr_api_enable_autoreconnect, @function
wifi_mgmr_api_enable_autoreconnect:
.LFB41:
	.loc 1 195 1
	.cfi_startproc
	addi	sp,sp,-48
	.cfi_def_cfa_offset 48
	sw	ra,44(sp)
	sw	s0,40(sp)
	.cfi_offset 1, -4
	.cfi_offset 8, -8
	addi	s0,sp,48
	.cfi_def_cfa 8, 0
	.loc 1 199 5
	addi	a5,s0,-36
	li	a2,13
	li	a1,0
	mv	a0,a5
	call	memset
	.loc 1 200 9
	addi	a5,s0,-36
	sw	a5,-20(s0)
	.loc 1 201 13
	lw	a5,-20(s0)
	li	a4,29
	sb	a4,0(a5)
	.loc 1 202 16
	lw	a5,-20(s0)
	lbu	a4,1(a5)
	andi	a4,a4,0
	ori	a4,a4,68
	sb	a4,1(a5)
	lbu	a4,2(a5)
	andi	a4,a4,0
	ori	a4,a4,51
	sb	a4,2(a5)
	lbu	a4,3(a5)
	andi	a4,a4,0
	ori	a4,a4,34
	sb	a4,3(a5)
	lbu	a4,4(a5)
	andi	a4,a4,0
	ori	a4,a4,17
	sb	a4,4(a5)
	.loc 1 203 16
	lw	a5,-20(s0)
	lbu	a4,5(a5)
	andi	a4,a4,0
	ori	a4,a4,-120
	sb	a4,5(a5)
	lbu	a4,6(a5)
	andi	a4,a4,0
	ori	a4,a4,119
	sb	a4,6(a5)
	lbu	a4,7(a5)
	andi	a4,a4,0
	ori	a4,a4,102
	sb	a4,7(a5)
	lbu	a4,8(a5)
	andi	a4,a4,0
	ori	a4,a4,85
	sb	a4,8(a5)
	.loc 1 204 14
	lw	a5,-20(s0)
	lbu	a4,9(a5)
	andi	a4,a4,0
	ori	a4,a4,13
	sb	a4,9(a5)
	lbu	a4,10(a5)
	andi	a4,a4,0
	sb	a4,10(a5)
	lbu	a4,11(a5)
	andi	a4,a4,0
	sb	a4,11(a5)
	lbu	a4,12(a5)
	andi	a4,a4,0
	sb	a4,12(a5)
	.loc 1 206 5
	lw	a0,-20(s0)
	call	wifi_mgmr_event_notify
	.loc 1 208 12
	li	a5,0
	.loc 1 209 1
	mv	a0,a5
	lw	ra,44(sp)
	.cfi_restore 1
	lw	s0,40(sp)
	.cfi_restore 8
	.cfi_def_cfa 2, 48
	addi	sp,sp,48
	.cfi_def_cfa_offset 0
	jr	ra
	.cfi_endproc
.LFE41:
	.size	wifi_mgmr_api_enable_autoreconnect, .-wifi_mgmr_api_enable_autoreconnect
	.section	.text.wifi_mgmr_api_disconnect,"ax",@progbits
	.align	1
	.globl	wifi_mgmr_api_disconnect
	.type	wifi_mgmr_api_disconnect, @function
wifi_mgmr_api_disconnect:
.LFB42:
	.loc 1 212 1
	.cfi_startproc
	addi	sp,sp,-48
	.cfi_def_cfa_offset 48
	sw	ra,44(sp)
	sw	s0,40(sp)
	.cfi_offset 1, -4
	.cfi_offset 8, -8
	addi	s0,sp,48
	.cfi_def_cfa 8, 0
	.loc 1 216 5
	addi	a5,s0,-36
	li	a2,13
	li	a1,0
	mv	a0,a5
	call	memset
	.loc 1 217 9
	addi	a5,s0,-36
	sw	a5,-20(s0)
	.loc 1 218 13
	lw	a5,-20(s0)
	li	a4,5
	sb	a4,0(a5)
	.loc 1 219 16
	lw	a5,-20(s0)
	lbu	a4,1(a5)
	andi	a4,a4,0
	ori	a4,a4,68
	sb	a4,1(a5)
	lbu	a4,2(a5)
	andi	a4,a4,0
	ori	a4,a4,51
	sb	a4,2(a5)
	lbu	a4,3(a5)
	andi	a4,a4,0
	ori	a4,a4,34
	sb	a4,3(a5)
	lbu	a4,4(a5)
	andi	a4,a4,0
	ori	a4,a4,17
	sb	a4,4(a5)
	.loc 1 220 16
	lw	a5,-20(s0)
	lbu	a4,5(a5)
	andi	a4,a4,0
	ori	a4,a4,-120
	sb	a4,5(a5)
	lbu	a4,6(a5)
	andi	a4,a4,0
	ori	a4,a4,119
	sb	a4,6(a5)
	lbu	a4,7(a5)
	andi	a4,a4,0
	ori	a4,a4,102
	sb	a4,7(a5)
	lbu	a4,8(a5)
	andi	a4,a4,0
	ori	a4,a4,85
	sb	a4,8(a5)
	.loc 1 221 14
	lw	a5,-20(s0)
	lbu	a4,9(a5)
	andi	a4,a4,0
	ori	a4,a4,13
	sb	a4,9(a5)
	lbu	a4,10(a5)
	andi	a4,a4,0
	sb	a4,10(a5)
	lbu	a4,11(a5)
	andi	a4,a4,0
	sb	a4,11(a5)
	lbu	a4,12(a5)
	andi	a4,a4,0
	sb	a4,12(a5)
	.loc 1 223 5
	lw	a0,-20(s0)
	call	wifi_mgmr_event_notify
	.loc 1 225 12
	li	a5,0
	.loc 1 226 1
	mv	a0,a5
	lw	ra,44(sp)
	.cfi_restore 1
	lw	s0,40(sp)
	.cfi_restore 8
	.cfi_def_cfa 2, 48
	addi	sp,sp,48
	.cfi_def_cfa_offset 0
	jr	ra
	.cfi_endproc
.LFE42:
	.size	wifi_mgmr_api_disconnect, .-wifi_mgmr_api_disconnect
	.section	.text.wifi_mgmr_api_rate_config,"ax",@progbits
	.align	1
	.globl	wifi_mgmr_api_rate_config
	.type	wifi_mgmr_api_rate_config, @function
wifi_mgmr_api_rate_config:
.LFB43:
	.loc 1 229 1
	.cfi_startproc
	addi	sp,sp,-64
	.cfi_def_cfa_offset 64
	sw	ra,60(sp)
	sw	s0,56(sp)
	.cfi_offset 1, -4
	.cfi_offset 8, -8
	addi	s0,sp,64
	.cfi_def_cfa 8, 0
	mv	a5,a0
	sh	a5,-50(s0)
	.loc 1 233 5
	addi	a5,s0,-36
	li	a2,13
	li	a1,0
	mv	a0,a5
	call	memset
	.loc 1 234 9
	addi	a5,s0,-36
	sw	a5,-20(s0)
	.loc 1 235 13
	lw	a5,-20(s0)
	li	a4,11
	sb	a4,0(a5)
	.loc 1 236 25
	lhu	a5,-50(s0)
	.loc 1 236 18
	mv	a4,a5
	.loc 1 236 16
	lw	a5,-20(s0)
	andi	a3,a4,255
	lbu	a2,1(a5)
	andi	a2,a2,0
	or	a3,a2,a3
	sb	a3,1(a5)
	srli	a3,a4,8
	andi	a3,a3,255
	lbu	a2,2(a5)
	andi	a2,a2,0
	or	a3,a2,a3
	sb	a3,2(a5)
	srli	a3,a4,16
	andi	a3,a3,255
	lbu	a2,3(a5)
	andi	a2,a2,0
	or	a3,a2,a3
	sb	a3,3(a5)
	srli	a4,a4,24
	lbu	a3,4(a5)
	andi	a3,a3,0
	or	a4,a3,a4
	sb	a4,4(a5)
	.loc 1 237 16
	lw	a5,-20(s0)
	lbu	a4,5(a5)
	andi	a4,a4,0
	ori	a4,a4,-120
	sb	a4,5(a5)
	lbu	a4,6(a5)
	andi	a4,a4,0
	ori	a4,a4,119
	sb	a4,6(a5)
	lbu	a4,7(a5)
	andi	a4,a4,0
	ori	a4,a4,102
	sb	a4,7(a5)
	lbu	a4,8(a5)
	andi	a4,a4,0
	ori	a4,a4,85
	sb	a4,8(a5)
	.loc 1 238 14
	lw	a5,-20(s0)
	lbu	a4,9(a5)
	andi	a4,a4,0
	ori	a4,a4,13
	sb	a4,9(a5)
	lbu	a4,10(a5)
	andi	a4,a4,0
	sb	a4,10(a5)
	lbu	a4,11(a5)
	andi	a4,a4,0
	sb	a4,11(a5)
	lbu	a4,12(a5)
	andi	a4,a4,0
	sb	a4,12(a5)
	.loc 1 240 5
	lw	a0,-20(s0)
	call	wifi_mgmr_event_notify
	.loc 1 242 12
	li	a5,0
	.loc 1 243 1
	mv	a0,a5
	lw	ra,60(sp)
	.cfi_restore 1
	lw	s0,56(sp)
	.cfi_restore 8
	.cfi_def_cfa 2, 64
	addi	sp,sp,64
	.cfi_def_cfa_offset 0
	jr	ra
	.cfi_endproc
.LFE43:
	.size	wifi_mgmr_api_rate_config, .-wifi_mgmr_api_rate_config
	.section	.text.wifi_mgmr_api_conf_max_sta,"ax",@progbits
	.align	1
	.globl	wifi_mgmr_api_conf_max_sta
	.type	wifi_mgmr_api_conf_max_sta, @function
wifi_mgmr_api_conf_max_sta:
.LFB44:
	.loc 1 246 1
	.cfi_startproc
	addi	sp,sp,-64
	.cfi_def_cfa_offset 64
	sw	ra,60(sp)
	sw	s0,56(sp)
	.cfi_offset 1, -4
	.cfi_offset 8, -8
	addi	s0,sp,64
	.cfi_def_cfa 8, 0
	mv	a5,a0
	sb	a5,-49(s0)
	.loc 1 250 5
	addi	a5,s0,-36
	li	a2,13
	li	a1,0
	mv	a0,a5
	call	memset
	.loc 1 251 9
	addi	a5,s0,-36
	sw	a5,-20(s0)
	.loc 1 252 13
	lw	a5,-20(s0)
	li	a4,10
	sb	a4,0(a5)
	.loc 1 253 25
	lbu	a5,-49(s0)
	.loc 1 253 18
	mv	a4,a5
	.loc 1 253 16
	lw	a5,-20(s0)
	andi	a3,a4,255
	lbu	a2,1(a5)
	andi	a2,a2,0
	or	a3,a2,a3
	sb	a3,1(a5)
	srli	a3,a4,8
	andi	a3,a3,255
	lbu	a2,2(a5)
	andi	a2,a2,0
	or	a3,a2,a3
	sb	a3,2(a5)
	srli	a3,a4,16
	andi	a3,a3,255
	lbu	a2,3(a5)
	andi	a2,a2,0
	or	a3,a2,a3
	sb	a3,3(a5)
	srli	a4,a4,24
	lbu	a3,4(a5)
	andi	a3,a3,0
	or	a4,a3,a4
	sb	a4,4(a5)
	.loc 1 254 16
	lw	a5,-20(s0)
	lbu	a4,5(a5)
	andi	a4,a4,0
	ori	a4,a4,-120
	sb	a4,5(a5)
	lbu	a4,6(a5)
	andi	a4,a4,0
	ori	a4,a4,119
	sb	a4,6(a5)
	lbu	a4,7(a5)
	andi	a4,a4,0
	ori	a4,a4,102
	sb	a4,7(a5)
	lbu	a4,8(a5)
	andi	a4,a4,0
	ori	a4,a4,85
	sb	a4,8(a5)
	.loc 1 255 14
	lw	a5,-20(s0)
	lbu	a4,9(a5)
	andi	a4,a4,0
	ori	a4,a4,13
	sb	a4,9(a5)
	lbu	a4,10(a5)
	andi	a4,a4,0
	sb	a4,10(a5)
	lbu	a4,11(a5)
	andi	a4,a4,0
	sb	a4,11(a5)
	lbu	a4,12(a5)
	andi	a4,a4,0
	sb	a4,12(a5)
	.loc 1 257 5
	lw	a0,-20(s0)
	call	wifi_mgmr_event_notify
	.loc 1 259 12
	li	a5,0
	.loc 1 260 1
	mv	a0,a5
	lw	ra,60(sp)
	.cfi_restore 1
	lw	s0,56(sp)
	.cfi_restore 8
	.cfi_def_cfa 2, 64
	addi	sp,sp,64
	.cfi_def_cfa_offset 0
	jr	ra
	.cfi_endproc
.LFE44:
	.size	wifi_mgmr_api_conf_max_sta, .-wifi_mgmr_api_conf_max_sta
	.section	.text.wifi_mgmr_api_ifaceup,"ax",@progbits
	.align	1
	.globl	wifi_mgmr_api_ifaceup
	.type	wifi_mgmr_api_ifaceup, @function
wifi_mgmr_api_ifaceup:
.LFB45:
	.loc 1 263 1
	.cfi_startproc
	addi	sp,sp,-48
	.cfi_def_cfa_offset 48
	sw	ra,44(sp)
	sw	s0,40(sp)
	.cfi_offset 1, -4
	.cfi_offset 8, -8
	addi	s0,sp,48
	.cfi_def_cfa 8, 0
	.loc 1 267 5
	addi	a5,s0,-36
	li	a2,13
	li	a1,0
	mv	a0,a5
	call	memset
	.loc 1 268 9
	addi	a5,s0,-36
	sw	a5,-20(s0)
	.loc 1 269 13
	lw	a5,-20(s0)
	li	a4,7
	sb	a4,0(a5)
	.loc 1 270 16
	lw	a5,-20(s0)
	lbu	a4,1(a5)
	andi	a4,a4,0
	ori	a4,a4,68
	sb	a4,1(a5)
	lbu	a4,2(a5)
	andi	a4,a4,0
	ori	a4,a4,51
	sb	a4,2(a5)
	lbu	a4,3(a5)
	andi	a4,a4,0
	ori	a4,a4,34
	sb	a4,3(a5)
	lbu	a4,4(a5)
	andi	a4,a4,0
	ori	a4,a4,17
	sb	a4,4(a5)
	.loc 1 271 16
	lw	a5,-20(s0)
	lbu	a4,5(a5)
	andi	a4,a4,0
	ori	a4,a4,-120
	sb	a4,5(a5)
	lbu	a4,6(a5)
	andi	a4,a4,0
	ori	a4,a4,119
	sb	a4,6(a5)
	lbu	a4,7(a5)
	andi	a4,a4,0
	ori	a4,a4,102
	sb	a4,7(a5)
	lbu	a4,8(a5)
	andi	a4,a4,0
	ori	a4,a4,85
	sb	a4,8(a5)
	.loc 1 272 14
	lw	a5,-20(s0)
	lbu	a4,9(a5)
	andi	a4,a4,0
	ori	a4,a4,13
	sb	a4,9(a5)
	lbu	a4,10(a5)
	andi	a4,a4,0
	sb	a4,10(a5)
	lbu	a4,11(a5)
	andi	a4,a4,0
	sb	a4,11(a5)
	lbu	a4,12(a5)
	andi	a4,a4,0
	sb	a4,12(a5)
	.loc 1 274 5
	lw	a0,-20(s0)
	call	wifi_mgmr_event_notify
	.loc 1 276 12
	li	a5,0
	.loc 1 277 1
	mv	a0,a5
	lw	ra,44(sp)
	.cfi_restore 1
	lw	s0,40(sp)
	.cfi_restore 8
	.cfi_def_cfa 2, 48
	addi	sp,sp,48
	.cfi_def_cfa_offset 0
	jr	ra
	.cfi_endproc
.LFE45:
	.size	wifi_mgmr_api_ifaceup, .-wifi_mgmr_api_ifaceup
	.section	.text.wifi_mgmr_api_sniffer_enable,"ax",@progbits
	.align	1
	.globl	wifi_mgmr_api_sniffer_enable
	.type	wifi_mgmr_api_sniffer_enable, @function
wifi_mgmr_api_sniffer_enable:
.LFB46:
	.loc 1 280 1
	.cfi_startproc
	addi	sp,sp,-48
	.cfi_def_cfa_offset 48
	sw	ra,44(sp)
	sw	s0,40(sp)
	.cfi_offset 1, -4
	.cfi_offset 8, -8
	addi	s0,sp,48
	.cfi_def_cfa 8, 0
	.loc 1 284 5
	addi	a5,s0,-36
	li	a2,13
	li	a1,0
	mv	a0,a5
	call	memset
	.loc 1 285 9
	addi	a5,s0,-36
	sw	a5,-20(s0)
	.loc 1 286 13
	lw	a5,-20(s0)
	li	a4,2
	sb	a4,0(a5)
	.loc 1 287 16
	lw	a5,-20(s0)
	lbu	a4,1(a5)
	andi	a4,a4,0
	ori	a4,a4,68
	sb	a4,1(a5)
	lbu	a4,2(a5)
	andi	a4,a4,0
	ori	a4,a4,51
	sb	a4,2(a5)
	lbu	a4,3(a5)
	andi	a4,a4,0
	ori	a4,a4,34
	sb	a4,3(a5)
	lbu	a4,4(a5)
	andi	a4,a4,0
	ori	a4,a4,17
	sb	a4,4(a5)
	.loc 1 288 16
	lw	a5,-20(s0)
	lbu	a4,5(a5)
	andi	a4,a4,0
	ori	a4,a4,-120
	sb	a4,5(a5)
	lbu	a4,6(a5)
	andi	a4,a4,0
	ori	a4,a4,119
	sb	a4,6(a5)
	lbu	a4,7(a5)
	andi	a4,a4,0
	ori	a4,a4,102
	sb	a4,7(a5)
	lbu	a4,8(a5)
	andi	a4,a4,0
	ori	a4,a4,85
	sb	a4,8(a5)
	.loc 1 289 14
	lw	a5,-20(s0)
	lbu	a4,9(a5)
	andi	a4,a4,0
	ori	a4,a4,13
	sb	a4,9(a5)
	lbu	a4,10(a5)
	andi	a4,a4,0
	sb	a4,10(a5)
	lbu	a4,11(a5)
	andi	a4,a4,0
	sb	a4,11(a5)
	lbu	a4,12(a5)
	andi	a4,a4,0
	sb	a4,12(a5)
	.loc 1 291 5
	lw	a0,-20(s0)
	call	wifi_mgmr_event_notify
	.loc 1 293 12
	li	a5,0
	.loc 1 294 1
	mv	a0,a5
	lw	ra,44(sp)
	.cfi_restore 1
	lw	s0,40(sp)
	.cfi_restore 8
	.cfi_def_cfa 2, 48
	addi	sp,sp,48
	.cfi_def_cfa_offset 0
	jr	ra
	.cfi_endproc
.LFE46:
	.size	wifi_mgmr_api_sniffer_enable, .-wifi_mgmr_api_sniffer_enable
	.section	.text.wifi_mgmr_api_scan_item_beacon,"ax",@progbits
	.align	1
	.globl	wifi_mgmr_api_scan_item_beacon
	.type	wifi_mgmr_api_scan_item_beacon, @function
wifi_mgmr_api_scan_item_beacon:
.LFB47:
	.loc 1 297 1
	.cfi_startproc
	addi	sp,sp,-144
	.cfi_def_cfa_offset 144
	sw	ra,140(sp)
	sw	s0,136(sp)
	.cfi_offset 1, -4
	.cfi_offset 8, -8
	addi	s0,sp,144
	.cfi_def_cfa 8, 0
	sw	a3,-120(s0)
	sw	a4,-124(s0)
	sw	a5,-128(s0)
	mv	a3,a6
	mv	a4,a7
	mv	a5,a0
	sb	a5,-113(s0)
	mv	a5,a1
	sb	a5,-114(s0)
	mv	a5,a2
	sb	a5,-115(s0)
	mv	a5,a3
	sb	a5,-116(s0)
	mv	a5,a4
	sb	a5,-129(s0)
	.loc 1 302 5
	addi	a5,s0,-100
	li	a2,73
	li	a1,0
	mv	a0,a5
	call	memset
	.loc 1 303 9
	addi	a5,s0,-100
	sw	a5,-20(s0)
	.loc 1 304 13
	lw	a5,-20(s0)
	li	a4,24
	sb	a4,0(a5)
	.loc 1 305 16
	lw	a5,-20(s0)
	lbu	a4,1(a5)
	andi	a4,a4,0
	ori	a4,a4,68
	sb	a4,1(a5)
	lbu	a4,2(a5)
	andi	a4,a4,0
	ori	a4,a4,51
	sb	a4,2(a5)
	lbu	a4,3(a5)
	andi	a4,a4,0
	ori	a4,a4,34
	sb	a4,3(a5)
	lbu	a4,4(a5)
	andi	a4,a4,0
	ori	a4,a4,17
	sb	a4,4(a5)
	.loc 1 306 16
	lw	a5,-20(s0)
	lbu	a4,5(a5)
	andi	a4,a4,0
	ori	a4,a4,-120
	sb	a4,5(a5)
	lbu	a4,6(a5)
	andi	a4,a4,0
	ori	a4,a4,119
	sb	a4,6(a5)
	lbu	a4,7(a5)
	andi	a4,a4,0
	ori	a4,a4,102
	sb	a4,7(a5)
	lbu	a4,8(a5)
	andi	a4,a4,0
	ori	a4,a4,85
	sb	a4,8(a5)
	.loc 1 307 14
	lw	a5,-20(s0)
	lbu	a4,9(a5)
	andi	a4,a4,0
	ori	a4,a4,73
	sb	a4,9(a5)
	lbu	a4,10(a5)
	andi	a4,a4,0
	sb	a4,10(a5)
	lbu	a4,11(a5)
	andi	a4,a4,0
	sb	a4,11(a5)
	lbu	a4,12(a5)
	andi	a4,a4,0
	sb	a4,12(a5)
	.loc 1 308 10
	lw	a5,-20(s0)
	addi	a5,a5,13
	sw	a5,-24(s0)
	.loc 1 309 16
	lw	a5,-24(s0)
	.loc 1 309 5
	lw	a4,-128(s0)
	mv	a2,a4
	lw	a1,-124(s0)
	mv	a0,a5
	call	memcpy
	.loc 1 310 24
	lw	a5,-24(s0)
	sb	zero,32(a5)
	.loc 1 311 20
	lw	a4,-128(s0)
	lw	a5,-24(s0)
	sw	a4,36(a5)
	.loc 1 312 16
	lw	a5,-24(s0)
	addi	a5,a5,40
	.loc 1 312 5
	li	a2,6
	lw	a1,-120(s0)
	mv	a0,a5
	call	memcpy
	.loc 1 313 19
	lw	a5,-24(s0)
	lbu	a4,-113(s0)
	sb	a4,46(a5)
	.loc 1 314 16
	lw	a5,-24(s0)
	lbu	a4,-114(s0)
	sb	a4,47(a5)
	.loc 1 315 16
	lw	a5,-24(s0)
	lbu	a4,-115(s0)
	sb	a4,50(a5)
	.loc 1 316 18
	lw	a5,-24(s0)
	lbu	a4,0(s0)
	sb	a4,51(a5)
	.loc 1 317 19
	lw	a5,-24(s0)
	lbu	a4,-116(s0)
	sb	a4,48(a5)
	.loc 1 318 19
	lw	a5,-24(s0)
	lbu	a4,-129(s0)
	sb	a4,49(a5)
	.loc 1 320 5
	lw	a0,-20(s0)
	call	wifi_mgmr_event_notify
	.loc 1 322 12
	li	a5,0
	.loc 1 323 1
	mv	a0,a5
	lw	ra,140(sp)
	.cfi_restore 1
	lw	s0,136(sp)
	.cfi_restore 8
	.cfi_def_cfa 2, 144
	addi	sp,sp,144
	.cfi_def_cfa_offset 0
	jr	ra
	.cfi_endproc
.LFE47:
	.size	wifi_mgmr_api_scan_item_beacon, .-wifi_mgmr_api_scan_item_beacon
	.section	.text.wifi_mgmr_api_fw_disconnect,"ax",@progbits
	.align	1
	.globl	wifi_mgmr_api_fw_disconnect
	.type	wifi_mgmr_api_fw_disconnect, @function
wifi_mgmr_api_fw_disconnect:
.LFB48:
	.loc 1 326 1
	.cfi_startproc
	addi	sp,sp,-48
	.cfi_def_cfa_offset 48
	sw	ra,44(sp)
	sw	s0,40(sp)
	.cfi_offset 1, -4
	.cfi_offset 8, -8
	addi	s0,sp,48
	.cfi_def_cfa 8, 0
	.loc 1 330 5
	addi	a5,s0,-36
	li	a2,13
	li	a1,0
	mv	a0,a5
	call	memset
	.loc 1 331 9
	addi	a5,s0,-36
	sw	a5,-20(s0)
	.loc 1 332 13
	lw	a5,-20(s0)
	li	a4,15
	sb	a4,0(a5)
	.loc 1 333 16
	lw	a5,-20(s0)
	lbu	a4,1(a5)
	andi	a4,a4,0
	ori	a4,a4,68
	sb	a4,1(a5)
	lbu	a4,2(a5)
	andi	a4,a4,0
	ori	a4,a4,51
	sb	a4,2(a5)
	lbu	a4,3(a5)
	andi	a4,a4,0
	ori	a4,a4,34
	sb	a4,3(a5)
	lbu	a4,4(a5)
	andi	a4,a4,0
	ori	a4,a4,17
	sb	a4,4(a5)
	.loc 1 334 16
	lw	a5,-20(s0)
	lbu	a4,5(a5)
	andi	a4,a4,0
	ori	a4,a4,-120
	sb	a4,5(a5)
	lbu	a4,6(a5)
	andi	a4,a4,0
	ori	a4,a4,119
	sb	a4,6(a5)
	lbu	a4,7(a5)
	andi	a4,a4,0
	ori	a4,a4,102
	sb	a4,7(a5)
	lbu	a4,8(a5)
	andi	a4,a4,0
	ori	a4,a4,85
	sb	a4,8(a5)
	.loc 1 335 14
	lw	a5,-20(s0)
	lbu	a4,9(a5)
	andi	a4,a4,0
	ori	a4,a4,13
	sb	a4,9(a5)
	lbu	a4,10(a5)
	andi	a4,a4,0
	sb	a4,10(a5)
	lbu	a4,11(a5)
	andi	a4,a4,0
	sb	a4,11(a5)
	lbu	a4,12(a5)
	andi	a4,a4,0
	sb	a4,12(a5)
	.loc 1 337 5
	lw	a0,-20(s0)
	call	wifi_mgmr_event_notify
	.loc 1 339 12
	li	a5,0
	.loc 1 340 1
	mv	a0,a5
	lw	ra,44(sp)
	.cfi_restore 1
	lw	s0,40(sp)
	.cfi_restore 8
	.cfi_def_cfa 2, 48
	addi	sp,sp,48
	.cfi_def_cfa_offset 0
	jr	ra
	.cfi_endproc
.LFE48:
	.size	wifi_mgmr_api_fw_disconnect, .-wifi_mgmr_api_fw_disconnect
	.section	.text.wifi_mgmr_api_fw_tsen_reload,"ax",@progbits
	.align	1
	.globl	wifi_mgmr_api_fw_tsen_reload
	.type	wifi_mgmr_api_fw_tsen_reload, @function
wifi_mgmr_api_fw_tsen_reload:
.LFB49:
	.loc 1 343 1
	.cfi_startproc
	addi	sp,sp,-48
	.cfi_def_cfa_offset 48
	sw	ra,44(sp)
	sw	s0,40(sp)
	.cfi_offset 1, -4
	.cfi_offset 8, -8
	addi	s0,sp,48
	.cfi_def_cfa 8, 0
	.loc 1 347 5
	addi	a5,s0,-36
	li	a2,13
	li	a1,0
	mv	a0,a5
	call	memset
	.loc 1 348 9
	addi	a5,s0,-36
	sw	a5,-20(s0)
	.loc 1 349 13
	lw	a5,-20(s0)
	li	a4,13
	sb	a4,0(a5)
	.loc 1 350 16
	lw	a5,-20(s0)
	lbu	a4,1(a5)
	andi	a4,a4,0
	ori	a4,a4,68
	sb	a4,1(a5)
	lbu	a4,2(a5)
	andi	a4,a4,0
	ori	a4,a4,51
	sb	a4,2(a5)
	lbu	a4,3(a5)
	andi	a4,a4,0
	ori	a4,a4,34
	sb	a4,3(a5)
	lbu	a4,4(a5)
	andi	a4,a4,0
	ori	a4,a4,17
	sb	a4,4(a5)
	.loc 1 351 16
	lw	a5,-20(s0)
	lbu	a4,5(a5)
	andi	a4,a4,0
	ori	a4,a4,-120
	sb	a4,5(a5)
	lbu	a4,6(a5)
	andi	a4,a4,0
	ori	a4,a4,119
	sb	a4,6(a5)
	lbu	a4,7(a5)
	andi	a4,a4,0
	ori	a4,a4,102
	sb	a4,7(a5)
	lbu	a4,8(a5)
	andi	a4,a4,0
	ori	a4,a4,85
	sb	a4,8(a5)
	.loc 1 352 14
	lw	a5,-20(s0)
	lbu	a4,9(a5)
	andi	a4,a4,0
	ori	a4,a4,13
	sb	a4,9(a5)
	lbu	a4,10(a5)
	andi	a4,a4,0
	sb	a4,10(a5)
	lbu	a4,11(a5)
	andi	a4,a4,0
	sb	a4,11(a5)
	lbu	a4,12(a5)
	andi	a4,a4,0
	sb	a4,12(a5)
	.loc 1 354 5
	lw	a0,-20(s0)
	call	wifi_mgmr_event_notify
	.loc 1 356 12
	li	a5,0
	.loc 1 357 1
	mv	a0,a5
	lw	ra,44(sp)
	.cfi_restore 1
	lw	s0,40(sp)
	.cfi_restore 8
	.cfi_def_cfa 2, 48
	addi	sp,sp,48
	.cfi_def_cfa_offset 0
	jr	ra
	.cfi_endproc
.LFE49:
	.size	wifi_mgmr_api_fw_tsen_reload, .-wifi_mgmr_api_fw_tsen_reload
	.section	.text.wifi_mgmr_api_fw_scan,"ax",@progbits
	.align	1
	.globl	wifi_mgmr_api_fw_scan
	.type	wifi_mgmr_api_fw_scan, @function
wifi_mgmr_api_fw_scan:
.LFB50:
	.loc 1 360 1
	.cfi_startproc
	addi	sp,sp,-48
	.cfi_def_cfa_offset 48
	sw	ra,44(sp)
	sw	s0,40(sp)
	.cfi_offset 1, -4
	.cfi_offset 8, -8
	addi	s0,sp,48
	.cfi_def_cfa 8, 0
	.loc 1 364 5
	addi	a5,s0,-36
	li	a2,13
	li	a1,0
	mv	a0,a5
	call	memset
	.loc 1 365 9
	addi	a5,s0,-36
	sw	a5,-20(s0)
	.loc 1 366 13
	lw	a5,-20(s0)
	li	a4,18
	sb	a4,0(a5)
	.loc 1 367 16
	lw	a5,-20(s0)
	lbu	a4,1(a5)
	andi	a4,a4,0
	ori	a4,a4,68
	sb	a4,1(a5)
	lbu	a4,2(a5)
	andi	a4,a4,0
	ori	a4,a4,51
	sb	a4,2(a5)
	lbu	a4,3(a5)
	andi	a4,a4,0
	ori	a4,a4,34
	sb	a4,3(a5)
	lbu	a4,4(a5)
	andi	a4,a4,0
	ori	a4,a4,17
	sb	a4,4(a5)
	.loc 1 368 16
	lw	a5,-20(s0)
	lbu	a4,5(a5)
	andi	a4,a4,0
	ori	a4,a4,-120
	sb	a4,5(a5)
	lbu	a4,6(a5)
	andi	a4,a4,0
	ori	a4,a4,119
	sb	a4,6(a5)
	lbu	a4,7(a5)
	andi	a4,a4,0
	ori	a4,a4,102
	sb	a4,7(a5)
	lbu	a4,8(a5)
	andi	a4,a4,0
	ori	a4,a4,85
	sb	a4,8(a5)
	.loc 1 369 14
	lw	a5,-20(s0)
	lbu	a4,9(a5)
	andi	a4,a4,0
	ori	a4,a4,13
	sb	a4,9(a5)
	lbu	a4,10(a5)
	andi	a4,a4,0
	sb	a4,10(a5)
	lbu	a4,11(a5)
	andi	a4,a4,0
	sb	a4,11(a5)
	lbu	a4,12(a5)
	andi	a4,a4,0
	sb	a4,12(a5)
	.loc 1 371 5
	lw	a0,-20(s0)
	call	wifi_mgmr_event_notify
	.loc 1 373 12
	li	a5,0
	.loc 1 374 1
	mv	a0,a5
	lw	ra,44(sp)
	.cfi_restore 1
	lw	s0,40(sp)
	.cfi_restore 8
	.cfi_def_cfa 2, 48
	addi	sp,sp,48
	.cfi_def_cfa_offset 0
	jr	ra
	.cfi_endproc
.LFE50:
	.size	wifi_mgmr_api_fw_scan, .-wifi_mgmr_api_fw_scan
	.section	.text.wifi_mgmr_api_fw_powersaving,"ax",@progbits
	.align	1
	.globl	wifi_mgmr_api_fw_powersaving
	.type	wifi_mgmr_api_fw_powersaving, @function
wifi_mgmr_api_fw_powersaving:
.LFB51:
	.loc 1 377 1
	.cfi_startproc
	addi	sp,sp,-64
	.cfi_def_cfa_offset 64
	sw	ra,60(sp)
	sw	s0,56(sp)
	.cfi_offset 1, -4
	.cfi_offset 8, -8
	addi	s0,sp,64
	.cfi_def_cfa 8, 0
	sw	a0,-52(s0)
	.loc 1 381 5
	addi	a5,s0,-36
	li	a2,13
	li	a1,0
	mv	a0,a5
	call	memset
	.loc 1 382 9
	addi	a5,s0,-36
	sw	a5,-20(s0)
	.loc 1 383 13
	lw	a5,-20(s0)
	li	a4,16
	sb	a4,0(a5)
	.loc 1 384 18
	lw	a4,-52(s0)
	.loc 1 384 16
	lw	a5,-20(s0)
	andi	a3,a4,255
	lbu	a2,1(a5)
	andi	a2,a2,0
	or	a3,a2,a3
	sb	a3,1(a5)
	srli	a3,a4,8
	andi	a3,a3,255
	lbu	a2,2(a5)
	andi	a2,a2,0
	or	a3,a2,a3
	sb	a3,2(a5)
	srli	a3,a4,16
	andi	a3,a3,255
	lbu	a2,3(a5)
	andi	a2,a2,0
	or	a3,a2,a3
	sb	a3,3(a5)
	srli	a4,a4,24
	lbu	a3,4(a5)
	andi	a3,a3,0
	or	a4,a3,a4
	sb	a4,4(a5)
	.loc 1 385 16
	lw	a5,-20(s0)
	lbu	a4,5(a5)
	andi	a4,a4,0
	ori	a4,a4,-120
	sb	a4,5(a5)
	lbu	a4,6(a5)
	andi	a4,a4,0
	ori	a4,a4,119
	sb	a4,6(a5)
	lbu	a4,7(a5)
	andi	a4,a4,0
	ori	a4,a4,102
	sb	a4,7(a5)
	lbu	a4,8(a5)
	andi	a4,a4,0
	ori	a4,a4,85
	sb	a4,8(a5)
	.loc 1 386 14
	lw	a5,-20(s0)
	lbu	a4,9(a5)
	andi	a4,a4,0
	ori	a4,a4,13
	sb	a4,9(a5)
	lbu	a4,10(a5)
	andi	a4,a4,0
	sb	a4,10(a5)
	lbu	a4,11(a5)
	andi	a4,a4,0
	sb	a4,11(a5)
	lbu	a4,12(a5)
	andi	a4,a4,0
	sb	a4,12(a5)
	.loc 1 388 5
	lw	a0,-20(s0)
	call	wifi_mgmr_event_notify
	.loc 1 390 12
	li	a5,0
	.loc 1 391 1
	mv	a0,a5
	lw	ra,60(sp)
	.cfi_restore 1
	lw	s0,56(sp)
	.cfi_restore 8
	.cfi_def_cfa 2, 64
	addi	sp,sp,64
	.cfi_def_cfa_offset 0
	jr	ra
	.cfi_endproc
.LFE51:
	.size	wifi_mgmr_api_fw_powersaving, .-wifi_mgmr_api_fw_powersaving
	.section	.text.wifi_mgmr_api_ap_start,"ax",@progbits
	.align	1
	.globl	wifi_mgmr_api_ap_start
	.type	wifi_mgmr_api_ap_start, @function
wifi_mgmr_api_ap_start:
.LFB52:
	.loc 1 394 1
	.cfi_startproc
	addi	sp,sp,-176
	.cfi_def_cfa_offset 176
	sw	ra,172(sp)
	sw	s0,168(sp)
	.cfi_offset 1, -4
	.cfi_offset 8, -8
	addi	s0,sp,176
	.cfi_def_cfa 8, 0
	sw	a0,-164(s0)
	sw	a1,-168(s0)
	sw	a2,-172(s0)
	mv	a5,a3
	sb	a5,-173(s0)
	.loc 1 399 8
	lw	a5,-164(s0)
	bne	a5,zero,.L50
	.loc 1 401 16
	li	a5,-1
	j	.L56
.L50:
	.loc 1 403 5
	addi	a5,s0,-148
	li	a2,124
	li	a1,0
	mv	a0,a5
	call	memset
	.loc 1 404 9
	addi	a5,s0,-148
	sw	a5,-20(s0)
	.loc 1 405 8
	lw	a5,-20(s0)
	addi	a5,a5,13
	sw	a5,-24(s0)
	.loc 1 406 25
	lw	a0,-164(s0)
	call	strlen
	mv	a4,a0
	.loc 1 406 23 discriminator 1
	lw	a5,-24(s0)
	andi	a3,a4,255
	lbu	a2,38(a5)
	andi	a2,a2,0
	or	a3,a2,a3
	sb	a3,38(a5)
	srli	a3,a4,8
	andi	a3,a3,255
	lbu	a2,39(a5)
	andi	a2,a2,0
	or	a3,a2,a3
	sb	a3,39(a5)
	srli	a3,a4,16
	andi	a3,a3,255
	lbu	a2,40(a5)
	andi	a2,a2,0
	or	a3,a2,a3
	sb	a3,40(a5)
	srli	a4,a4,24
	lbu	a3,41(a5)
	andi	a3,a3,0
	or	a4,a3,a4
	sb	a4,41(a5)
	.loc 1 406 12 discriminator 1
	lw	a5,-24(s0)
	lbu	a4,38(a5)
	lbu	a3,39(a5)
	slli	a3,a3,8
	or	a4,a3,a4
	lbu	a3,40(a5)
	slli	a3,a3,16
	or	a4,a3,a4
	lbu	a5,41(a5)
	slli	a5,a5,24
	or	a5,a5,a4
	mv	a4,a5
	.loc 1 406 8 discriminator 1
	li	a5,32
	bleu	a4,a5,.L52
	.loc 1 407 16
	li	a5,-1
	j	.L56
.L52:
	.loc 1 409 8
	lw	a5,-168(s0)
	beq	a5,zero,.L53
	.loc 1 409 34 discriminator 1
	lw	a0,-168(s0)
	call	strlen
	mv	a4,a0
	.loc 1 409 32 discriminator 2
	lw	a5,-24(s0)
	andi	a3,a4,255
	lbu	a2,107(a5)
	andi	a2,a2,0
	or	a3,a2,a3
	sb	a3,107(a5)
	srli	a3,a4,8
	andi	a3,a3,255
	lbu	a2,108(a5)
	andi	a2,a2,0
	or	a3,a2,a3
	sb	a3,108(a5)
	srli	a3,a4,16
	andi	a3,a3,255
	lbu	a2,109(a5)
	andi	a2,a2,0
	or	a3,a2,a3
	sb	a3,109(a5)
	srli	a4,a4,24
	lbu	a3,110(a5)
	andi	a3,a3,0
	or	a4,a3,a4
	sb	a4,110(a5)
	.loc 1 409 22 discriminator 2
	lw	a5,-24(s0)
	lbu	a4,107(a5)
	lbu	a3,108(a5)
	slli	a3,a3,8
	or	a4,a3,a4
	lbu	a3,109(a5)
	slli	a3,a3,16
	or	a4,a3,a4
	lbu	a5,110(a5)
	slli	a5,a5,24
	or	a5,a5,a4
	mv	a4,a5
	.loc 1 409 16 discriminator 2
	li	a5,32
	bleu	a4,a5,.L53
	.loc 1 410 16
	li	a5,-1
	j	.L56
.L53:
	.loc 1 413 13
	lw	a5,-20(s0)
	li	a4,8
	sb	a4,0(a5)
	.loc 1 414 16
	lw	a5,-20(s0)
	lbu	a4,1(a5)
	andi	a4,a4,0
	ori	a4,a4,68
	sb	a4,1(a5)
	lbu	a4,2(a5)
	andi	a4,a4,0
	ori	a4,a4,51
	sb	a4,2(a5)
	lbu	a4,3(a5)
	andi	a4,a4,0
	ori	a4,a4,34
	sb	a4,3(a5)
	lbu	a4,4(a5)
	andi	a4,a4,0
	ori	a4,a4,17
	sb	a4,4(a5)
	.loc 1 415 16
	lw	a5,-20(s0)
	lbu	a4,5(a5)
	andi	a4,a4,0
	ori	a4,a4,-120
	sb	a4,5(a5)
	lbu	a4,6(a5)
	andi	a4,a4,0
	ori	a4,a4,119
	sb	a4,6(a5)
	lbu	a4,7(a5)
	andi	a4,a4,0
	ori	a4,a4,102
	sb	a4,7(a5)
	lbu	a4,8(a5)
	andi	a4,a4,0
	ori	a4,a4,85
	sb	a4,8(a5)
	.loc 1 416 14
	lw	a5,-20(s0)
	lbu	a4,9(a5)
	andi	a4,a4,0
	ori	a4,a4,124
	sb	a4,9(a5)
	lbu	a4,10(a5)
	andi	a4,a4,0
	sb	a4,10(a5)
	lbu	a4,11(a5)
	andi	a4,a4,0
	sb	a4,11(a5)
	lbu	a4,12(a5)
	andi	a4,a4,0
	sb	a4,12(a5)
	.loc 1 417 14
	lw	a5,-24(s0)
	addi	a0,a5,4
	.loc 1 417 30
	lw	a5,-24(s0)
	lbu	a4,38(a5)
	lbu	a3,39(a5)
	slli	a3,a3,8
	or	a4,a3,a4
	lbu	a3,40(a5)
	slli	a3,a3,16
	or	a4,a3,a4
	lbu	a5,41(a5)
	slli	a5,a5,24
	or	a5,a5,a4
	.loc 1 417 5
	mv	a2,a5
	lw	a1,-164(s0)
	call	memcpy
	.loc 1 418 8
	lw	a5,-168(s0)
	beq	a5,zero,.L54
	.loc 1 419 18
	lw	a5,-24(s0)
	addi	a0,a5,42
	.loc 1 419 35
	lw	a5,-24(s0)
	lbu	a4,107(a5)
	lbu	a3,108(a5)
	slli	a3,a3,8
	or	a4,a3,a4
	lbu	a3,109(a5)
	slli	a3,a3,16
	or	a4,a3,a4
	lbu	a5,110(a5)
	slli	a5,a5,24
	or	a5,a5,a4
	.loc 1 419 9
	mv	a2,a5
	lw	a1,-168(s0)
	call	memcpy
	j	.L55
.L54:
	.loc 1 421 21
	lw	a5,-24(s0)
	lbu	a4,107(a5)
	andi	a4,a4,0
	sb	a4,107(a5)
	lbu	a4,108(a5)
	andi	a4,a4,0
	sb	a4,108(a5)
	lbu	a4,109(a5)
	andi	a4,a4,0
	sb	a4,109(a5)
	lbu	a4,110(a5)
	andi	a4,a4,0
	sb	a4,110(a5)
.L55:
	.loc 1 423 17
	lw	a5,-24(s0)
	lw	a4,-172(s0)
	andi	a4,a4,255
	lbu	a3,0(a5)
	andi	a3,a3,0
	or	a4,a3,a4
	sb	a4,0(a5)
	lw	a4,-172(s0)
	srli	a4,a4,8
	andi	a4,a4,255
	lbu	a3,1(a5)
	andi	a3,a3,0
	or	a4,a3,a4
	sb	a4,1(a5)
	lw	a4,-172(s0)
	srli	a4,a4,16
	andi	a4,a4,255
	lbu	a3,2(a5)
	andi	a3,a3,0
	or	a4,a3,a4
	sb	a4,2(a5)
	lw	a4,-172(s0)
	srli	a4,a4,24
	lbu	a3,3(a5)
	andi	a3,a3,0
	or	a4,a3,a4
	sb	a4,3(a5)
	.loc 1 424 39
	lbu	a5,-173(s0)
	snez	a5,a5
	andi	a5,a5,0xff
	mv	a4,a5
	.loc 1 424 21
	lw	a5,-24(s0)
	sb	a4,37(a5)
	.loc 1 426 5
	lw	a0,-20(s0)
	call	wifi_mgmr_event_notify
	.loc 1 428 12
	li	a5,0
.L56:
	.loc 1 429 1
	mv	a0,a5
	lw	ra,172(sp)
	.cfi_restore 1
	lw	s0,168(sp)
	.cfi_restore 8
	.cfi_def_cfa 2, 176
	addi	sp,sp,176
	.cfi_def_cfa_offset 0
	jr	ra
	.cfi_endproc
.LFE52:
	.size	wifi_mgmr_api_ap_start, .-wifi_mgmr_api_ap_start
	.section	.text.wifi_mgmr_api_ap_stop,"ax",@progbits
	.align	1
	.globl	wifi_mgmr_api_ap_stop
	.type	wifi_mgmr_api_ap_stop, @function
wifi_mgmr_api_ap_stop:
.LFB53:
	.loc 1 432 1
	.cfi_startproc
	addi	sp,sp,-48
	.cfi_def_cfa_offset 48
	sw	ra,44(sp)
	sw	s0,40(sp)
	.cfi_offset 1, -4
	.cfi_offset 8, -8
	addi	s0,sp,48
	.cfi_def_cfa 8, 0
	.loc 1 436 5
	addi	a5,s0,-36
	li	a2,13
	li	a1,0
	mv	a0,a5
	call	memset
	.loc 1 437 9
	addi	a5,s0,-36
	sw	a5,-20(s0)
	.loc 1 438 13
	lw	a5,-20(s0)
	li	a4,9
	sb	a4,0(a5)
	.loc 1 439 16
	lw	a5,-20(s0)
	lbu	a4,1(a5)
	andi	a4,a4,0
	ori	a4,a4,68
	sb	a4,1(a5)
	lbu	a4,2(a5)
	andi	a4,a4,0
	ori	a4,a4,51
	sb	a4,2(a5)
	lbu	a4,3(a5)
	andi	a4,a4,0
	ori	a4,a4,34
	sb	a4,3(a5)
	lbu	a4,4(a5)
	andi	a4,a4,0
	ori	a4,a4,17
	sb	a4,4(a5)
	.loc 1 440 16
	lw	a5,-20(s0)
	lbu	a4,5(a5)
	andi	a4,a4,0
	ori	a4,a4,-120
	sb	a4,5(a5)
	lbu	a4,6(a5)
	andi	a4,a4,0
	ori	a4,a4,119
	sb	a4,6(a5)
	lbu	a4,7(a5)
	andi	a4,a4,0
	ori	a4,a4,102
	sb	a4,7(a5)
	lbu	a4,8(a5)
	andi	a4,a4,0
	ori	a4,a4,85
	sb	a4,8(a5)
	.loc 1 441 14
	lw	a5,-20(s0)
	lbu	a4,9(a5)
	andi	a4,a4,0
	ori	a4,a4,13
	sb	a4,9(a5)
	lbu	a4,10(a5)
	andi	a4,a4,0
	sb	a4,10(a5)
	lbu	a4,11(a5)
	andi	a4,a4,0
	sb	a4,11(a5)
	lbu	a4,12(a5)
	andi	a4,a4,0
	sb	a4,12(a5)
	.loc 1 443 5
	lw	a0,-20(s0)
	call	wifi_mgmr_event_notify
	.loc 1 445 12
	li	a5,0
	.loc 1 446 1
	mv	a0,a5
	lw	ra,44(sp)
	.cfi_restore 1
	lw	s0,40(sp)
	.cfi_restore 8
	.cfi_def_cfa 2, 48
	addi	sp,sp,48
	.cfi_def_cfa_offset 0
	jr	ra
	.cfi_endproc
.LFE53:
	.size	wifi_mgmr_api_ap_stop, .-wifi_mgmr_api_ap_stop
	.section	.text.wifi_mgmr_api_idle,"ax",@progbits
	.align	1
	.globl	wifi_mgmr_api_idle
	.type	wifi_mgmr_api_idle, @function
wifi_mgmr_api_idle:
.LFB54:
	.loc 1 449 1
	.cfi_startproc
	addi	sp,sp,-48
	.cfi_def_cfa_offset 48
	sw	ra,44(sp)
	sw	s0,40(sp)
	.cfi_offset 1, -4
	.cfi_offset 8, -8
	addi	s0,sp,48
	.cfi_def_cfa 8, 0
	.loc 1 453 5
	addi	a5,s0,-36
	li	a2,13
	li	a1,0
	mv	a0,a5
	call	memset
	.loc 1 454 9
	addi	a5,s0,-36
	sw	a5,-20(s0)
	.loc 1 455 13
	lw	a5,-20(s0)
	sb	zero,0(a5)
	.loc 1 456 16
	lw	a5,-20(s0)
	lbu	a4,1(a5)
	andi	a4,a4,0
	ori	a4,a4,68
	sb	a4,1(a5)
	lbu	a4,2(a5)
	andi	a4,a4,0
	ori	a4,a4,51
	sb	a4,2(a5)
	lbu	a4,3(a5)
	andi	a4,a4,0
	ori	a4,a4,34
	sb	a4,3(a5)
	lbu	a4,4(a5)
	andi	a4,a4,0
	ori	a4,a4,17
	sb	a4,4(a5)
	.loc 1 457 16
	lw	a5,-20(s0)
	lbu	a4,5(a5)
	andi	a4,a4,0
	ori	a4,a4,-120
	sb	a4,5(a5)
	lbu	a4,6(a5)
	andi	a4,a4,0
	ori	a4,a4,119
	sb	a4,6(a5)
	lbu	a4,7(a5)
	andi	a4,a4,0
	ori	a4,a4,102
	sb	a4,7(a5)
	lbu	a4,8(a5)
	andi	a4,a4,0
	ori	a4,a4,85
	sb	a4,8(a5)
	.loc 1 458 14
	lw	a5,-20(s0)
	lbu	a4,9(a5)
	andi	a4,a4,0
	ori	a4,a4,13
	sb	a4,9(a5)
	lbu	a4,10(a5)
	andi	a4,a4,0
	sb	a4,10(a5)
	lbu	a4,11(a5)
	andi	a4,a4,0
	sb	a4,11(a5)
	lbu	a4,12(a5)
	andi	a4,a4,0
	sb	a4,12(a5)
	.loc 1 460 5
	lw	a0,-20(s0)
	call	wifi_mgmr_event_notify
	.loc 1 462 12
	li	a5,0
	.loc 1 463 1
	mv	a0,a5
	lw	ra,44(sp)
	.cfi_restore 1
	lw	s0,40(sp)
	.cfi_restore 8
	.cfi_def_cfa 2, 48
	addi	sp,sp,48
	.cfi_def_cfa_offset 0
	jr	ra
	.cfi_endproc
.LFE54:
	.size	wifi_mgmr_api_idle, .-wifi_mgmr_api_idle
	.section	.text.wifi_mgmr_api_denoise_enable,"ax",@progbits
	.align	1
	.globl	wifi_mgmr_api_denoise_enable
	.type	wifi_mgmr_api_denoise_enable, @function
wifi_mgmr_api_denoise_enable:
.LFB55:
	.loc 1 466 1
	.cfi_startproc
	addi	sp,sp,-48
	.cfi_def_cfa_offset 48
	sw	ra,44(sp)
	sw	s0,40(sp)
	.cfi_offset 1, -4
	.cfi_offset 8, -8
	addi	s0,sp,48
	.cfi_def_cfa 8, 0
	.loc 1 470 5
	addi	a5,s0,-36
	li	a2,13
	li	a1,0
	mv	a0,a5
	call	memset
	.loc 1 471 9
	addi	a5,s0,-36
	sw	a5,-20(s0)
	.loc 1 472 13
	lw	a5,-20(s0)
	li	a4,12
	sb	a4,0(a5)
	.loc 1 473 16
	lw	a5,-20(s0)
	lbu	a4,1(a5)
	andi	a4,a4,0
	ori	a4,a4,1
	sb	a4,1(a5)
	lbu	a4,2(a5)
	andi	a4,a4,0
	sb	a4,2(a5)
	lbu	a4,3(a5)
	andi	a4,a4,0
	sb	a4,3(a5)
	lbu	a4,4(a5)
	andi	a4,a4,0
	sb	a4,4(a5)
	.loc 1 474 16
	lw	a5,-20(s0)
	lbu	a4,5(a5)
	andi	a4,a4,0
	ori	a4,a4,-120
	sb	a4,5(a5)
	lbu	a4,6(a5)
	andi	a4,a4,0
	ori	a4,a4,119
	sb	a4,6(a5)
	lbu	a4,7(a5)
	andi	a4,a4,0
	ori	a4,a4,102
	sb	a4,7(a5)
	lbu	a4,8(a5)
	andi	a4,a4,0
	ori	a4,a4,85
	sb	a4,8(a5)
	.loc 1 475 14
	lw	a5,-20(s0)
	lbu	a4,9(a5)
	andi	a4,a4,0
	ori	a4,a4,13
	sb	a4,9(a5)
	lbu	a4,10(a5)
	andi	a4,a4,0
	sb	a4,10(a5)
	lbu	a4,11(a5)
	andi	a4,a4,0
	sb	a4,11(a5)
	lbu	a4,12(a5)
	andi	a4,a4,0
	sb	a4,12(a5)
	.loc 1 477 5
	lw	a0,-20(s0)
	call	wifi_mgmr_event_notify
	.loc 1 479 12
	li	a5,0
	.loc 1 480 1
	mv	a0,a5
	lw	ra,44(sp)
	.cfi_restore 1
	lw	s0,40(sp)
	.cfi_restore 8
	.cfi_def_cfa 2, 48
	addi	sp,sp,48
	.cfi_def_cfa_offset 0
	jr	ra
	.cfi_endproc
.LFE55:
	.size	wifi_mgmr_api_denoise_enable, .-wifi_mgmr_api_denoise_enable
	.section	.text.wifi_mgmr_api_denoise_disable,"ax",@progbits
	.align	1
	.globl	wifi_mgmr_api_denoise_disable
	.type	wifi_mgmr_api_denoise_disable, @function
wifi_mgmr_api_denoise_disable:
.LFB56:
	.loc 1 483 1
	.cfi_startproc
	addi	sp,sp,-48
	.cfi_def_cfa_offset 48
	sw	ra,44(sp)
	sw	s0,40(sp)
	.cfi_offset 1, -4
	.cfi_offset 8, -8
	addi	s0,sp,48
	.cfi_def_cfa 8, 0
	.loc 1 487 5
	addi	a5,s0,-36
	li	a2,13
	li	a1,0
	mv	a0,a5
	call	memset
	.loc 1 488 9
	addi	a5,s0,-36
	sw	a5,-20(s0)
	.loc 1 489 13
	lw	a5,-20(s0)
	li	a4,12
	sb	a4,0(a5)
	.loc 1 490 16
	lw	a5,-20(s0)
	lbu	a4,1(a5)
	andi	a4,a4,0
	sb	a4,1(a5)
	lbu	a4,2(a5)
	andi	a4,a4,0
	sb	a4,2(a5)
	lbu	a4,3(a5)
	andi	a4,a4,0
	sb	a4,3(a5)
	lbu	a4,4(a5)
	andi	a4,a4,0
	sb	a4,4(a5)
	.loc 1 491 16
	lw	a5,-20(s0)
	lbu	a4,5(a5)
	andi	a4,a4,0
	ori	a4,a4,-120
	sb	a4,5(a5)
	lbu	a4,6(a5)
	andi	a4,a4,0
	ori	a4,a4,119
	sb	a4,6(a5)
	lbu	a4,7(a5)
	andi	a4,a4,0
	ori	a4,a4,102
	sb	a4,7(a5)
	lbu	a4,8(a5)
	andi	a4,a4,0
	ori	a4,a4,85
	sb	a4,8(a5)
	.loc 1 492 14
	lw	a5,-20(s0)
	lbu	a4,9(a5)
	andi	a4,a4,0
	ori	a4,a4,13
	sb	a4,9(a5)
	lbu	a4,10(a5)
	andi	a4,a4,0
	sb	a4,10(a5)
	lbu	a4,11(a5)
	andi	a4,a4,0
	sb	a4,11(a5)
	lbu	a4,12(a5)
	andi	a4,a4,0
	sb	a4,12(a5)
	.loc 1 494 5
	lw	a0,-20(s0)
	call	wifi_mgmr_event_notify
	.loc 1 496 12
	li	a5,0
	.loc 1 497 1
	mv	a0,a5
	lw	ra,44(sp)
	.cfi_restore 1
	lw	s0,40(sp)
	.cfi_restore 8
	.cfi_def_cfa 2, 48
	addi	sp,sp,48
	.cfi_def_cfa_offset 0
	jr	ra
	.cfi_endproc
.LFE56:
	.size	wifi_mgmr_api_denoise_disable, .-wifi_mgmr_api_denoise_disable
	.section	.text.wifi_mgmr_api_channel_set,"ax",@progbits
	.align	1
	.globl	wifi_mgmr_api_channel_set
	.type	wifi_mgmr_api_channel_set, @function
wifi_mgmr_api_channel_set:
.LFB57:
	.loc 1 500 1
	.cfi_startproc
	addi	sp,sp,-64
	.cfi_def_cfa_offset 64
	sw	ra,60(sp)
	sw	s0,56(sp)
	.cfi_offset 1, -4
	.cfi_offset 8, -8
	addi	s0,sp,64
	.cfi_def_cfa 8, 0
	sw	a0,-52(s0)
	sw	a1,-56(s0)
	.loc 1 504 5
	addi	a5,s0,-36
	li	a2,13
	li	a1,0
	mv	a0,a5
	call	memset
	.loc 1 505 9
	addi	a5,s0,-36
	sw	a5,-20(s0)
	.loc 1 506 13
	lw	a5,-20(s0)
	li	a4,17
	sb	a4,0(a5)
	.loc 1 507 18
	lw	a4,-52(s0)
	.loc 1 507 16
	lw	a5,-20(s0)
	andi	a3,a4,255
	lbu	a2,1(a5)
	andi	a2,a2,0
	or	a3,a2,a3
	sb	a3,1(a5)
	srli	a3,a4,8
	andi	a3,a3,255
	lbu	a2,2(a5)
	andi	a2,a2,0
	or	a3,a2,a3
	sb	a3,2(a5)
	srli	a3,a4,16
	andi	a3,a3,255
	lbu	a2,3(a5)
	andi	a2,a2,0
	or	a3,a2,a3
	sb	a3,3(a5)
	srli	a4,a4,24
	lbu	a3,4(a5)
	andi	a3,a3,0
	or	a4,a3,a4
	sb	a4,4(a5)
	.loc 1 508 18
	lw	a4,-56(s0)
	.loc 1 508 16
	lw	a5,-20(s0)
	andi	a3,a4,255
	lbu	a2,5(a5)
	andi	a2,a2,0
	or	a3,a2,a3
	sb	a3,5(a5)
	srli	a3,a4,8
	andi	a3,a3,255
	lbu	a2,6(a5)
	andi	a2,a2,0
	or	a3,a2,a3
	sb	a3,6(a5)
	srli	a3,a4,16
	andi	a3,a3,255
	lbu	a2,7(a5)
	andi	a2,a2,0
	or	a3,a2,a3
	sb	a3,7(a5)
	srli	a4,a4,24
	lbu	a3,8(a5)
	andi	a3,a3,0
	or	a4,a3,a4
	sb	a4,8(a5)
	.loc 1 509 14
	lw	a5,-20(s0)
	lbu	a4,9(a5)
	andi	a4,a4,0
	ori	a4,a4,13
	sb	a4,9(a5)
	lbu	a4,10(a5)
	andi	a4,a4,0
	sb	a4,10(a5)
	lbu	a4,11(a5)
	andi	a4,a4,0
	sb	a4,11(a5)
	lbu	a4,12(a5)
	andi	a4,a4,0
	sb	a4,12(a5)
	.loc 1 511 5
	lw	a0,-20(s0)
	call	wifi_mgmr_event_notify
	.loc 1 513 12
	li	a5,0
	.loc 1 514 1
	mv	a0,a5
	lw	ra,60(sp)
	.cfi_restore 1
	lw	s0,56(sp)
	.cfi_restore 8
	.cfi_def_cfa 2, 64
	addi	sp,sp,64
	.cfi_def_cfa_offset 0
	jr	ra
	.cfi_endproc
.LFE57:
	.size	wifi_mgmr_api_channel_set, .-wifi_mgmr_api_channel_set
	.section	.text.wifi_mgmr_api_raw_send,"ax",@progbits
	.align	1
	.globl	wifi_mgmr_api_raw_send
	.type	wifi_mgmr_api_raw_send, @function
wifi_mgmr_api_raw_send:
.LFB58:
	.loc 1 518 1
	.cfi_startproc
	addi	sp,sp,-64
	.cfi_def_cfa_offset 64
	sw	ra,60(sp)
	sw	s0,56(sp)
	.cfi_offset 1, -4
	.cfi_offset 8, -8
	addi	s0,sp,64
	.cfi_def_cfa 8, 0
	sw	a0,-52(s0)
	sw	a1,-56(s0)
	.loc 1 522 5
	addi	a5,s0,-36
	li	a2,13
	li	a1,0
	mv	a0,a5
	call	memset
	.loc 1 523 9
	addi	a5,s0,-36
	sw	a5,-20(s0)
	.loc 1 524 13
	lw	a5,-20(s0)
	li	a4,21
	sb	a4,0(a5)
	.loc 1 525 16
	lw	a5,-20(s0)
	lw	a4,-52(s0)
	andi	a4,a4,255
	lbu	a3,1(a5)
	andi	a3,a3,0
	or	a4,a3,a4
	sb	a4,1(a5)
	lw	a4,-52(s0)
	srli	a4,a4,8
	andi	a4,a4,255
	lbu	a3,2(a5)
	andi	a3,a3,0
	or	a4,a3,a4
	sb	a4,2(a5)
	lw	a4,-52(s0)
	srli	a4,a4,16
	andi	a4,a4,255
	lbu	a3,3(a5)
	andi	a3,a3,0
	or	a4,a3,a4
	sb	a4,3(a5)
	lw	a4,-52(s0)
	srli	a4,a4,24
	lbu	a3,4(a5)
	andi	a3,a3,0
	or	a4,a3,a4
	sb	a4,4(a5)
	.loc 1 526 18
	lw	a4,-56(s0)
	.loc 1 526 16
	lw	a5,-20(s0)
	andi	a3,a4,255
	lbu	a2,5(a5)
	andi	a2,a2,0
	or	a3,a2,a3
	sb	a3,5(a5)
	srli	a3,a4,8
	andi	a3,a3,255
	lbu	a2,6(a5)
	andi	a2,a2,0
	or	a3,a2,a3
	sb	a3,6(a5)
	srli	a3,a4,16
	andi	a3,a3,255
	lbu	a2,7(a5)
	andi	a2,a2,0
	or	a3,a2,a3
	sb	a3,7(a5)
	srli	a4,a4,24
	lbu	a3,8(a5)
	andi	a3,a3,0
	or	a4,a3,a4
	sb	a4,8(a5)
	.loc 1 527 14
	lw	a5,-20(s0)
	lbu	a4,9(a5)
	andi	a4,a4,0
	ori	a4,a4,13
	sb	a4,9(a5)
	lbu	a4,10(a5)
	andi	a4,a4,0
	sb	a4,10(a5)
	lbu	a4,11(a5)
	andi	a4,a4,0
	sb	a4,11(a5)
	lbu	a4,12(a5)
	andi	a4,a4,0
	sb	a4,12(a5)
	.loc 1 529 5
	lw	a0,-20(s0)
	call	wifi_mgmr_event_notify
	.loc 1 531 12
	li	a5,0
	.loc 1 532 1
	mv	a0,a5
	lw	ra,60(sp)
	.cfi_restore 1
	lw	s0,56(sp)
	.cfi_restore 8
	.cfi_def_cfa 2, 64
	addi	sp,sp,64
	.cfi_def_cfa_offset 0
	jr	ra
	.cfi_endproc
.LFE58:
	.size	wifi_mgmr_api_raw_send, .-wifi_mgmr_api_raw_send
	.section	.text.wifi_mgmr_api_set_country_code,"ax",@progbits
	.align	1
	.globl	wifi_mgmr_api_set_country_code
	.type	wifi_mgmr_api_set_country_code, @function
wifi_mgmr_api_set_country_code:
.LFB59:
	.loc 1 535 1
	.cfi_startproc
	addi	sp,sp,-32
	.cfi_def_cfa_offset 32
	sw	ra,28(sp)
	sw	s0,24(sp)
	.cfi_offset 1, -4
	.cfi_offset 8, -8
	addi	s0,sp,32
	.cfi_def_cfa 8, 0
	sw	a0,-20(s0)
	.loc 1 536 5
	lw	a0,-20(s0)
	call	wifi_mgmr_set_country_code_internal
	.loc 1 538 12
	li	a5,0
	.loc 1 539 1
	mv	a0,a5
	lw	ra,28(sp)
	.cfi_restore 1
	lw	s0,24(sp)
	.cfi_restore 8
	.cfi_def_cfa 2, 32
	addi	sp,sp,32
	.cfi_def_cfa_offset 0
	jr	ra
	.cfi_endproc
.LFE59:
	.size	wifi_mgmr_api_set_country_code, .-wifi_mgmr_api_set_country_code
	.text
.Letext0:
	.file 2 "/home/chandu/sdk/bl602_iot_sdk/toolchain/compiler/lib/gcc/riscv32-unknown-elf/15.1.0/include/stddef.h"
	.file 3 "/home/chandu/sdk/bl602_iot_sdk/toolchain/compiler/lib/gcc/riscv32-unknown-elf/15.1.0/include/stdint-gcc.h"
	.file 4 "/home/chandu/sdk/bl602_iot_sdk/components/bl602/bl602_wifidrv/bl60x_wifi_driver/wifi_mgmr.h"
	.file 5 "/home/chandu/sdk/bl602_iot_sdk/toolchain/compiler/riscv32-unknown-elf/include/stdio.h"
	.file 6 "/home/chandu/sdk/bl602_iot_sdk/toolchain/compiler/riscv32-unknown-elf/include/string.h"
	.section	.note.GNU-stack,"",@progbits
