	.file	"wifi_mgmr_profile.c"
	.option nopic
	.attribute arch, "rv32i2p1_m2p0_f2p2_c2p0_zicsr2p0_zmmul1p0_zca1p0_zcf1p0"
	.attribute unaligned_access, 0
	.attribute stack_align, 16
	.text
.Ltext0:
	.cfi_sections	.debug_frame
	.file 0 "/home/chandu/sdk/bl602_iot_sdk/customer_app/suas_app_pqkem_gateway/build_out/bl602_wifidrv" "/home/chandu/sdk/bl602_iot_sdk/components/bl602/bl602_wifidrv/bl60x_wifi_driver/wifi_mgmr_profile.c"
	.section	.rodata
	.align	2
.LC0:
	.string	"[WF][PF] Using free profile, idx is @%d\r\n"
	.section	.text.wifi_mgmr_profile_add,"ax",@progbits
	.align	1
	.globl	wifi_mgmr_profile_add
	.type	wifi_mgmr_profile_add, @function
wifi_mgmr_profile_add:
.LFB7:
	.file 1 "/home/chandu/sdk/bl602_iot_sdk/components/bl602/bl602_wifidrv/bl60x_wifi_driver/wifi_mgmr_profile.c"
	.loc 1 37 1
	.cfi_startproc
	addi	sp,sp,-48
	.cfi_def_cfa_offset 48
	sw	ra,44(sp)
	sw	s0,40(sp)
	.cfi_offset 1, -4
	.cfi_offset 8, -8
	addi	s0,sp,48
	.cfi_def_cfa 8, 0
	sw	a0,-36(s0)
	sw	a1,-40(s0)
	sw	a2,-44(s0)
	.loc 1 41 13
	sw	zero,-24(s0)
	.loc 1 43 8
	lw	a4,-44(s0)
	li	a5,-1
	bne	a4,a5,.L2
	.loc 1 45 17
	lw	a5,-36(s0)
	addi	a5,a5,256
	sw	a5,-24(s0)
	j	.L3
.L2:
	.loc 1 48 16
	sw	zero,-20(s0)
	.loc 1 48 9
	j	.L4
.L6:
	.loc 1 49 39
	lw	a4,-36(s0)
	lw	a3,-20(s0)
	li	a5,196
	mul	a5,a3,a5
	add	a5,a4,a5
	lbu	a5,449(a5)
	.loc 1 49 16
	bne	a5,zero,.L5
	.loc 1 50 25
	lw	a4,-20(s0)
	li	a5,196
	mul	a5,a4,a5
	addi	a5,a5,256
	lw	a4,-36(s0)
	add	a5,a4,a5
	sw	a5,-24(s0)
	.loc 1 52 44
	lw	a5,-36(s0)
	lw	a4,-20(s0)
	sw	a4,648(a5)
	.loc 1 53 17
	lw	a1,-20(s0)
	lui	a5,%hi(.LC0)
	addi	a0,a5,%lo(.LC0)
	call	printf
	.loc 1 54 17
	j	.L3
.L5:
	.loc 1 48 76 discriminator 2
	lw	a5,-20(s0)
	addi	a5,a5,1
	sw	a5,-20(s0)
.L4:
	.loc 1 48 23 discriminator 1
	lw	a4,-20(s0)
	li	a5,1
	bleu	a4,a5,.L6
.L3:
	.loc 1 58 8
	lw	a5,-24(s0)
	bne	a5,zero,.L7
	.loc 1 59 16
	li	a5,-1
	j	.L8
.L7:
	.loc 1 61 5
	li	a2,196
	li	a1,0
	lw	a0,-24(s0)
	call	memset
	.loc 1 62 21
	lw	a5,-24(s0)
	li	a4,1
	sb	a4,193(a5)
	.loc 1 63 23
	lw	a5,-24(s0)
	sb	zero,192(a5)
	.loc 1 64 36
	lw	a5,-40(s0)
	lbu	a4,33(a5)
	lbu	a3,34(a5)
	slli	a3,a3,8
	or	a4,a3,a4
	lbu	a3,35(a5)
	slli	a3,a3,16
	or	a4,a3,a4
	lbu	a5,36(a5)
	slli	a5,a5,24
	or	a5,a5,a4
	mv	a4,a5
	.loc 1 64 23
	lw	a5,-24(s0)
	sw	a4,36(a5)
	.loc 1 65 35
	lw	a5,-40(s0)
	lbu	a4,167(a5)
	lbu	a3,168(a5)
	slli	a3,a3,8
	or	a4,a3,a4
	lbu	a3,169(a5)
	slli	a3,a3,16
	or	a4,a3,a4
	lbu	a5,170(a5)
	slli	a5,a5,24
	or	a5,a5,a4
	mv	a4,a5
	.loc 1 65 22
	lw	a5,-24(s0)
	sw	a4,108(a5)
	.loc 1 66 35
	lw	a5,-40(s0)
	lbu	a4,171(a5)
	lbu	a3,172(a5)
	slli	a3,a3,8
	or	a4,a3,a4
	lbu	a3,173(a5)
	slli	a3,a3,16
	or	a4,a3,a4
	lbu	a5,174(a5)
	slli	a5,a5,24
	or	a5,a5,a4
	mv	a4,a5
	.loc 1 66 22
	lw	a5,-24(s0)
	sw	a4,180(a5)
	.loc 1 67 23
	lw	a5,-24(s0)
	li	a4,-1
	sb	a4,191(a5)
	.loc 1 68 19
	lw	a5,-24(s0)
	.loc 1 68 38
	lw	a4,-40(s0)
	.loc 1 68 5
	li	a2,33
	mv	a1,a4
	mv	a0,a5
	call	memcpy
	.loc 1 69 19
	lw	a5,-24(s0)
	addi	a4,a5,40
	.loc 1 69 37
	lw	a5,-40(s0)
	addi	a5,a5,37
	.loc 1 69 5
	li	a2,65
	mv	a1,a5
	mv	a0,a4
	call	memcpy
	.loc 1 70 19
	lw	a5,-24(s0)
	addi	a4,a5,112
	.loc 1 70 37
	lw	a5,-40(s0)
	addi	a5,a5,102
	.loc 1 70 5
	li	a2,65
	mv	a1,a5
	mv	a0,a4
	call	memcpy
	.loc 1 71 19
	lw	a5,-24(s0)
	addi	a4,a5,184
	.loc 1 71 37
	lw	a5,-40(s0)
	addi	a5,a5,175
	.loc 1 71 5
	li	a2,6
	mv	a1,a5
	mv	a0,a4
	call	memcpy
	.loc 1 72 36
	lw	a5,-40(s0)
	lbu	a4,184(a5)
	.loc 1 72 23
	lw	a5,-24(s0)
	sb	a4,190(a5)
	.loc 1 74 12
	li	a5,0
.L8:
	.loc 1 75 1
	mv	a0,a5
	lw	ra,44(sp)
	.cfi_restore 1
	lw	s0,40(sp)
	.cfi_restore 8
	.cfi_def_cfa 2, 48
	addi	sp,sp,48
	.cfi_def_cfa_offset 0
	jr	ra
	.cfi_endproc
.LFE7:
	.size	wifi_mgmr_profile_add, .-wifi_mgmr_profile_add
	.section	.rodata
	.align	2
.LC1:
	.string	"[WF][PF] Free profile, idx is @%d\r\n"
	.section	.text.wifi_mgmr_profile_del,"ax",@progbits
	.align	1
	.globl	wifi_mgmr_profile_del
	.type	wifi_mgmr_profile_del, @function
wifi_mgmr_profile_del:
.LFB8:
	.loc 1 78 1
	.cfi_startproc
	addi	sp,sp,-48
	.cfi_def_cfa_offset 48
	sw	ra,44(sp)
	sw	s0,40(sp)
	.cfi_offset 1, -4
	.cfi_offset 8, -8
	addi	s0,sp,48
	.cfi_def_cfa 8, 0
	sw	a0,-36(s0)
	sw	a1,-40(s0)
	sw	a2,-44(s0)
	.loc 1 82 13
	sw	zero,-24(s0)
	.loc 1 83 12
	sw	zero,-20(s0)
	.loc 1 83 5
	j	.L10
.L14:
	.loc 1 84 35
	lw	a4,-36(s0)
	lw	a3,-20(s0)
	li	a5,196
	mul	a5,a3,a5
	add	a5,a4,a5
	lbu	a4,449(a5)
	.loc 1 84 12
	li	a5,1
	bne	a4,a5,.L11
	.loc 1 85 41
	lw	a4,-36(s0)
	lw	a3,-20(s0)
	li	a5,196
	mul	a5,a3,a5
	add	a5,a4,a5
	lw	a4,292(a5)
	.loc 1 85 21
	lw	a5,-44(s0)
	.loc 1 84 43 discriminator 1
	bne	a4,a5,.L11
	.loc 1 86 46
	lw	a4,-20(s0)
	li	a5,196
	mul	a5,a4,a5
	addi	a5,a5,256
	lw	a4,-36(s0)
	add	a5,a4,a5
	.loc 1 86 22
	lw	a4,-44(s0)
	mv	a2,a4
	lw	a1,-40(s0)
	mv	a0,a5
	call	memcmp
	mv	a5,a0
	.loc 1 85 51
	bne	a5,zero,.L11
	.loc 1 87 21
	lw	a4,-20(s0)
	li	a5,196
	mul	a5,a4,a5
	addi	a5,a5,256
	lw	a4,-36(s0)
	add	a5,a4,a5
	sw	a5,-24(s0)
	.loc 1 88 26
	lw	a5,-36(s0)
	lw	a5,648(a5)
	.loc 1 88 16
	lw	a4,-20(s0)
	bne	a4,a5,.L12
	.loc 1 89 44
	lw	a5,-36(s0)
	li	a4,-1
	sw	a4,648(a5)
.L12:
	.loc 1 91 13
	lw	a1,-20(s0)
	lui	a5,%hi(.LC1)
	addi	a0,a5,%lo(.LC1)
	call	printf
	.loc 1 92 13
	j	.L13
.L11:
	.loc 1 83 72 discriminator 2
	lw	a5,-20(s0)
	addi	a5,a5,1
	sw	a5,-20(s0)
.L10:
	.loc 1 83 19 discriminator 1
	lw	a4,-20(s0)
	li	a5,1
	bleu	a4,a5,.L14
.L13:
	.loc 1 95 8
	lw	a5,-24(s0)
	bne	a5,zero,.L15
	.loc 1 96 16
	li	a5,-1
	j	.L16
.L15:
	.loc 1 98 5
	li	a2,196
	li	a1,0
	lw	a0,-24(s0)
	call	memset
	.loc 1 100 12
	li	a5,0
.L16:
	.loc 1 101 1
	mv	a0,a5
	lw	ra,44(sp)
	.cfi_restore 1
	lw	s0,40(sp)
	.cfi_restore 8
	.cfi_def_cfa 2, 48
	addi	sp,sp,48
	.cfi_def_cfa_offset 0
	jr	ra
	.cfi_endproc
.LFE8:
	.size	wifi_mgmr_profile_del, .-wifi_mgmr_profile_del
	.section	.rodata
	.align	2
.LC2:
	.string	"[WF][PF] Using profile, idx is @%d\r\n"
	.section	.text.wifi_mgmr_profile_get,"ax",@progbits
	.align	1
	.globl	wifi_mgmr_profile_get
	.type	wifi_mgmr_profile_get, @function
wifi_mgmr_profile_get:
.LFB9:
	.loc 1 104 1
	.cfi_startproc
	addi	sp,sp,-48
	.cfi_def_cfa_offset 48
	sw	ra,44(sp)
	sw	s0,40(sp)
	.cfi_offset 1, -4
	.cfi_offset 8, -8
	addi	s0,sp,48
	.cfi_def_cfa 8, 0
	sw	a0,-36(s0)
	sw	a1,-40(s0)
	.loc 1 108 13
	sw	zero,-24(s0)
	.loc 1 109 12
	sw	zero,-20(s0)
	.loc 1 109 5
	j	.L18
.L21:
	.loc 1 110 35
	lw	a4,-36(s0)
	lw	a3,-20(s0)
	li	a5,196
	mul	a5,a3,a5
	add	a5,a4,a5
	lbu	a4,449(a5)
	.loc 1 110 12
	li	a5,1
	bne	a4,a5,.L19
	.loc 1 111 21
	lw	a4,-20(s0)
	li	a5,196
	mul	a5,a4,a5
	addi	a5,a5,256
	lw	a4,-36(s0)
	add	a5,a4,a5
	sw	a5,-24(s0)
	.loc 1 112 13
	lw	a1,-20(s0)
	lui	a5,%hi(.LC2)
	addi	a0,a5,%lo(.LC2)
	call	printf
	.loc 1 113 13
	j	.L20
.L19:
	.loc 1 109 72 discriminator 2
	lw	a5,-20(s0)
	addi	a5,a5,1
	sw	a5,-20(s0)
.L18:
	.loc 1 109 19 discriminator 1
	lw	a4,-20(s0)
	li	a5,1
	bleu	a4,a5,.L21
.L20:
	.loc 1 116 8
	lw	a5,-24(s0)
	bne	a5,zero,.L22
	.loc 1 117 16
	li	a5,-1
	j	.L23
.L22:
	.loc 1 120 5
	li	a2,185
	li	a1,0
	lw	a0,-40(s0)
	call	memset
	.loc 1 121 36
	lw	a5,-24(s0)
	lw	a4,36(a5)
	.loc 1 121 27
	lw	a5,-40(s0)
	andi	a3,a4,255
	lbu	a2,33(a5)
	andi	a2,a2,0
	or	a3,a2,a3
	sb	a3,33(a5)
	srli	a3,a4,8
	andi	a3,a3,255
	lbu	a2,34(a5)
	andi	a2,a2,0
	or	a3,a2,a3
	sb	a3,34(a5)
	srli	a3,a4,16
	andi	a3,a3,255
	lbu	a2,35(a5)
	andi	a2,a2,0
	or	a3,a2,a3
	sb	a3,35(a5)
	srli	a4,a4,24
	lbu	a3,36(a5)
	andi	a3,a3,0
	or	a4,a3,a4
	sb	a4,36(a5)
	.loc 1 122 35
	lw	a5,-24(s0)
	lw	a4,108(a5)
	.loc 1 122 26
	lw	a5,-40(s0)
	andi	a3,a4,255
	lbu	a2,167(a5)
	andi	a2,a2,0
	or	a3,a2,a3
	sb	a3,167(a5)
	srli	a3,a4,8
	andi	a3,a3,255
	lbu	a2,168(a5)
	andi	a2,a2,0
	or	a3,a2,a3
	sb	a3,168(a5)
	srli	a3,a4,16
	andi	a3,a3,255
	lbu	a2,169(a5)
	andi	a2,a2,0
	or	a3,a2,a3
	sb	a3,169(a5)
	srli	a4,a4,24
	lbu	a3,170(a5)
	andi	a3,a3,0
	or	a4,a3,a4
	sb	a4,170(a5)
	.loc 1 123 35
	lw	a5,-24(s0)
	lw	a4,180(a5)
	.loc 1 123 26
	lw	a5,-40(s0)
	andi	a3,a4,255
	lbu	a2,171(a5)
	andi	a2,a2,0
	or	a3,a2,a3
	sb	a3,171(a5)
	srli	a3,a4,8
	andi	a3,a3,255
	lbu	a2,172(a5)
	andi	a2,a2,0
	or	a3,a2,a3
	sb	a3,172(a5)
	srli	a3,a4,16
	andi	a3,a3,255
	lbu	a2,173(a5)
	andi	a2,a2,0
	or	a3,a2,a3
	sb	a3,173(a5)
	srli	a4,a4,24
	lbu	a3,174(a5)
	andi	a3,a3,0
	or	a4,a3,a4
	sb	a4,174(a5)
	.loc 1 124 36
	lw	a5,-24(s0)
	lbu	a4,190(a5)
	.loc 1 124 27
	lw	a5,-40(s0)
	sb	a4,184(a5)
	.loc 1 125 23
	lw	a5,-40(s0)
	.loc 1 125 38
	lw	a4,-24(s0)
	.loc 1 125 5
	li	a2,33
	mv	a1,a4
	mv	a0,a5
	call	memcpy
	.loc 1 126 23
	lw	a5,-40(s0)
	addi	a4,a5,37
	.loc 1 126 37
	lw	a5,-24(s0)
	addi	a5,a5,40
	.loc 1 126 5
	li	a2,65
	mv	a1,a5
	mv	a0,a4
	call	memcpy
	.loc 1 127 23
	lw	a5,-40(s0)
	addi	a4,a5,102
	.loc 1 127 37
	lw	a5,-24(s0)
	addi	a5,a5,112
	.loc 1 127 5
	li	a2,65
	mv	a1,a5
	mv	a0,a4
	call	memcpy
	.loc 1 128 23
	lw	a5,-40(s0)
	addi	a4,a5,175
	.loc 1 128 37
	lw	a5,-24(s0)
	addi	a5,a5,184
	.loc 1 128 5
	li	a2,6
	mv	a1,a5
	mv	a0,a4
	call	memcpy
	.loc 1 130 12
	li	a5,0
.L23:
	.loc 1 131 1
	mv	a0,a5
	lw	ra,44(sp)
	.cfi_restore 1
	lw	s0,40(sp)
	.cfi_restore 8
	.cfi_def_cfa 2, 48
	addi	sp,sp,48
	.cfi_def_cfa_offset 0
	jr	ra
	.cfi_endproc
.LFE9:
	.size	wifi_mgmr_profile_get, .-wifi_mgmr_profile_get
	.section	.text.__lookup_profile,"ax",@progbits
	.align	1
	.globl	__lookup_profile
	.type	__lookup_profile, @function
__lookup_profile:
.LFB10:
	.loc 1 134 1
	.cfi_startproc
	addi	sp,sp,-48
	.cfi_def_cfa_offset 48
	sw	ra,44(sp)
	sw	s0,40(sp)
	.cfi_offset 1, -4
	.cfi_offset 8, -8
	addi	s0,sp,48
	.cfi_def_cfa 8, 0
	sw	a0,-36(s0)
	sw	a1,-40(s0)
	.loc 1 135 26
	sw	zero,-20(s0)
	.loc 1 137 8
	lw	a4,-40(s0)
	li	a5,-1
	bne	a4,a5,.L25
	.loc 1 139 17
	lw	a5,-36(s0)
	addi	a5,a5,256
	sw	a5,-20(s0)
	j	.L26
.L25:
	.loc 1 141 12
	lw	a5,-40(s0)
	blt	a5,zero,.L26
	.loc 1 141 33 discriminator 1
	lw	a4,-40(s0)
	.loc 1 141 24 discriminator 1
	li	a5,1
	bgtu	a4,a5,.L26
	.loc 1 142 21
	lw	a4,-40(s0)
	li	a5,196
	mul	a5,a4,a5
	addi	a5,a5,256
	lw	a4,-36(s0)
	add	a5,a4,a5
	sw	a5,-20(s0)
.L26:
	.loc 1 145 12
	lw	a5,-20(s0)
	.loc 1 146 1
	mv	a0,a5
	lw	ra,44(sp)
	.cfi_restore 1
	lw	s0,40(sp)
	.cfi_restore 8
	.cfi_def_cfa 2, 48
	addi	sp,sp,48
	.cfi_def_cfa_offset 0
	jr	ra
	.cfi_endproc
.LFE10:
	.size	__lookup_profile, .-__lookup_profile
	.section	.text.wifi_mgmr_profile_autoreconnect_is_enabled,"ax",@progbits
	.align	1
	.globl	wifi_mgmr_profile_autoreconnect_is_enabled
	.type	wifi_mgmr_profile_autoreconnect_is_enabled, @function
wifi_mgmr_profile_autoreconnect_is_enabled:
.LFB11:
	.loc 1 149 1
	.cfi_startproc
	addi	sp,sp,-32
	.cfi_def_cfa_offset 32
	sw	ra,28(sp)
	sw	s0,24(sp)
	.cfi_offset 1, -4
	.cfi_offset 8, -8
	addi	s0,sp,32
	.cfi_def_cfa 8, 0
	sw	a0,-20(s0)
	sw	a1,-24(s0)
	.loc 1 160 16
	lw	a4,-20(s0)
	li	a5,4096
	add	a5,a4,a5
	lbu	a5,2001(a5)
	.loc 1 160 44
	seqz	a5,a5
	andi	a5,a5,0xff
	.loc 1 162 1
	mv	a0,a5
	lw	ra,28(sp)
	.cfi_restore 1
	lw	s0,24(sp)
	.cfi_restore 8
	.cfi_def_cfa 2, 32
	addi	sp,sp,32
	.cfi_def_cfa_offset 0
	jr	ra
	.cfi_endproc
.LFE11:
	.size	wifi_mgmr_profile_autoreconnect_is_enabled, .-wifi_mgmr_profile_autoreconnect_is_enabled
	.section	.text.wifi_mgmr_profile_autoreconnect_disable,"ax",@progbits
	.align	1
	.globl	wifi_mgmr_profile_autoreconnect_disable
	.type	wifi_mgmr_profile_autoreconnect_disable, @function
wifi_mgmr_profile_autoreconnect_disable:
.LFB12:
	.loc 1 165 1
	.cfi_startproc
	addi	sp,sp,-32
	.cfi_def_cfa_offset 32
	sw	ra,28(sp)
	sw	s0,24(sp)
	.cfi_offset 1, -4
	.cfi_offset 8, -8
	addi	s0,sp,32
	.cfi_def_cfa 8, 0
	sw	a0,-20(s0)
	sw	a1,-24(s0)
	.loc 1 176 33
	lw	a4,-20(s0)
	li	a5,4096
	add	a5,a4,a5
	li	a4,1
	sb	a4,2001(a5)
	.loc 1 178 12
	li	a5,0
	.loc 1 180 1
	mv	a0,a5
	lw	ra,28(sp)
	.cfi_restore 1
	lw	s0,24(sp)
	.cfi_restore 8
	.cfi_def_cfa 2, 32
	addi	sp,sp,32
	.cfi_def_cfa_offset 0
	jr	ra
	.cfi_endproc
.LFE12:
	.size	wifi_mgmr_profile_autoreconnect_disable, .-wifi_mgmr_profile_autoreconnect_disable
	.section	.text.wifi_mgmr_profile_autoreconnect_enable,"ax",@progbits
	.align	1
	.globl	wifi_mgmr_profile_autoreconnect_enable
	.type	wifi_mgmr_profile_autoreconnect_enable, @function
wifi_mgmr_profile_autoreconnect_enable:
.LFB13:
	.loc 1 183 1
	.cfi_startproc
	addi	sp,sp,-32
	.cfi_def_cfa_offset 32
	sw	ra,28(sp)
	sw	s0,24(sp)
	.cfi_offset 1, -4
	.cfi_offset 8, -8
	addi	s0,sp,32
	.cfi_def_cfa 8, 0
	sw	a0,-20(s0)
	sw	a1,-24(s0)
	.loc 1 195 33
	lw	a4,-20(s0)
	li	a5,4096
	add	a5,a4,a5
	sb	zero,2001(a5)
	.loc 1 197 12
	li	a5,0
	.loc 1 199 1
	mv	a0,a5
	lw	ra,28(sp)
	.cfi_restore 1
	lw	s0,24(sp)
	.cfi_restore 8
	.cfi_def_cfa 2, 32
	addi	sp,sp,32
	.cfi_def_cfa_offset 0
	jr	ra
	.cfi_endproc
.LFE13:
	.size	wifi_mgmr_profile_autoreconnect_enable, .-wifi_mgmr_profile_autoreconnect_enable
	.text
.Letext0:
	.file 2 "/home/chandu/sdk/bl602_iot_sdk/toolchain/compiler/lib/gcc/riscv32-unknown-elf/15.1.0/include/stddef.h"
	.file 3 "/home/chandu/sdk/bl602_iot_sdk/toolchain/compiler/lib/gcc/riscv32-unknown-elf/15.1.0/include/stdint-gcc.h"
	.file 4 "/home/chandu/sdk/bl602_iot_sdk/components/network/lwip/src/include/lwip/arch.h"
	.file 5 "/home/chandu/sdk/bl602_iot_sdk/components/network/lwip/src/include/lwip/err.h"
	.file 6 "/home/chandu/sdk/bl602_iot_sdk/components/network/lwip/src/include/lwip/ip4_addr.h"
	.file 7 "/home/chandu/sdk/bl602_iot_sdk/components/network/lwip/src/include/lwip/ip_addr.h"
	.file 8 "/home/chandu/sdk/bl602_iot_sdk/components/network/lwip/src/include/lwip/pbuf.h"
	.file 9 "/home/chandu/sdk/bl602_iot_sdk/components/network/lwip/src/include/lwip/netif.h"
	.file 10 "/home/chandu/sdk/bl602_iot_sdk/components/bl602/bl602_wifidrv/bl60x_wifi_driver/stateMachine.h"
	.file 11 "/home/chandu/sdk/bl602_iot_sdk/components/freertos/include/projdefs.h"
	.file 12 "/home/chandu/sdk/bl602_iot_sdk/components/freertos/portable/GCC/RISC-V/portmacro.h"
	.file 13 "/home/chandu/sdk/bl602_iot_sdk/components/freertos/include/FreeRTOS.h"
	.file 14 "/home/chandu/sdk/bl602_iot_sdk/components/bl602/bl602_wifidrv/bl60x_wifi_driver/os_hal.h"
	.file 15 "/home/chandu/sdk/bl602_iot_sdk/components/bl602/bl602_wifidrv/bl60x_wifi_driver/wifi_mgmr.h"
	.file 16 "/home/chandu/sdk/bl602_iot_sdk/toolchain/compiler/riscv32-unknown-elf/include/string.h"
	.file 17 "/home/chandu/sdk/bl602_iot_sdk/toolchain/compiler/riscv32-unknown-elf/include/stdio.h"
	.section	.note.GNU-stack,"",@progbits
