	.file	"dns.c"
	.option nopic
	.attribute arch, "rv32i2p1_m2p0_f2p2_c2p0_zicsr2p0_zmmul1p0_zca1p0_zcf1p0"
	.attribute unaligned_access, 0
	.attribute stack_align, 16
	.text
.Ltext0:
	.cfi_sections	.debug_frame
	.section	.text.dns_call_found,"ax",@progbits
	.align	1
	.type	dns_call_found, @function
dns_call_found:
.LVL0:
.LFB59:
.LM1:
	.cfi_startproc
.LM2:
.LM3:
	addi	sp,sp,-16
	.cfi_def_cfa_offset 16
	sw	s0,8(sp)
	.cfi_offset 8, -8
.LM4:
	lui	s0,%hi(dns_requests)
.LM5:
	sw	s1,4(sp)
.LM6:
	addi	s0,s0,%lo(dns_requests)
	.cfi_offset 9, -12
	slli	s1,a0,3
.LM7:
	sw	ra,12(sp)
	.cfi_offset 1, -4
.LM8:
	add	a3,s0,s1
	lw	a4,0(a3)
.LM9:
	beq	a4,zero,.L2
.LM10:
.LM11:
	li	a5,272
	mul	a5,a0,a5
.LM12:
	lw	a2,4(a3)
	lui	a0,%hi(dns_table)
.LVL1:
.LM13:
	addi	a0,a0,%lo(dns_table)
.LM14:
	addi	a5,a5,15
.LM15:
	add	a0,a0,a5
	jalr	a4
.LVL2:
.L2:
.LM16:
.LM17:
	add	s0,s0,s1
	sw	zero,0(s0)
.LM18:
	lw	ra,12(sp)
	.cfi_restore 1
	lw	s0,8(sp)
	.cfi_restore 8
	lw	s1,4(sp)
	.cfi_restore 9
	addi	sp,sp,16
	.cfi_def_cfa_offset 0
	jr	ra
	.cfi_endproc
.LFE59:
	.size	dns_call_found, .-dns_call_found
	.section	.text.dns_send.isra.0,"ax",@progbits
	.align	1
	.type	dns_send.isra.0, @function
dns_send.isra.0:
.LVL3:
.LFB69:
.LM19:
	.cfi_startproc
.LM20:
.LM21:
.LM22:
.LM23:
.LM24:
.LM25:
.LM26:
.LM27:
.LM28:
.LM29:
.LM30:
.LM31:
.LM32:
.LM33:
	addi	sp,sp,-80
	.cfi_def_cfa_offset 80
	sw	s0,72(sp)
	.cfi_offset 8, -8
.LM34:
	li	s0,272
	mul	s0,a0,s0
.LM35:
	sw	s1,68(sp)
	.cfi_offset 9, -12
.LM36:
	lui	s1,%hi(dns_table)
	addi	s1,s1,%lo(dns_table)
.LM37:
	sw	s2,64(sp)
	sw	s4,56(sp)
	sw	ra,76(sp)
	sw	s3,60(sp)
	sw	s5,52(sp)
	sw	s6,48(sp)
	sw	s7,44(sp)
	.cfi_offset 18, -16
	.cfi_offset 20, -24
	.cfi_offset 1, -4
	.cfi_offset 19, -20
	.cfi_offset 21, -28
	.cfi_offset 22, -32
	.cfi_offset 23, -36
.LM38:
	add	s4,s1,s0
	lbu	a5,11(s4)
.LM39:
	lui	s2,%hi(dns_servers)
	addi	s2,s2,%lo(dns_servers)
	slli	a5,a5,2
	add	a5,s2,a5
.LM40:
	lw	a5,0(a5)
	bne	a5,zero,.L8
.LM41:
	li	a1,0
	call	dns_call_found
.LVL4:
.LM42:
.LM43:
	sb	zero,10(s4)
.LM44:
.L7:
.LM45:
	lw	ra,76(sp)
	.cfi_remember_state
	.cfi_restore 1
	lw	s0,72(sp)
	.cfi_restore 8
	lw	s1,68(sp)
	.cfi_restore 9
	lw	s2,64(sp)
	.cfi_restore 18
	lw	s3,60(sp)
	.cfi_restore 19
	lw	s4,56(sp)
	.cfi_restore 20
	lw	s5,52(sp)
	.cfi_restore 21
	lw	s6,48(sp)
	.cfi_restore 22
	lw	s7,44(sp)
	.cfi_restore 23
	addi	sp,sp,80
	.cfi_def_cfa_offset 0
	jr	ra
.LVL5:
.L8:
	.cfi_restore_state
.LM46:
	addi	s0,s0,15
	add	s0,s0,s1
	mv	s3,a0
.LM47:
.LM48:
	mv	a0,s0
.LVL6:
.LM49:
	call	strlen
.LVL7:
.LM50:
	addi	a1,a0,18
.LM51:
	slli	a1,a1,16
	li	a2,640
	srli	a1,a1,16
	li	a0,182
	call	pbuf_alloc
.LVL8:
	mv	s7,a0
.LVL9:
.LM52:
.LM53:
	beq	a0,zero,.L7
.LBB3:
.LM54:
.LM55:
.LM56:
	li	a2,12
	li	a1,0
	addi	a0,sp,20
.LVL10:
.LM57:
	call	memset
.LVL11:
.LM58:
.LM59:
	lhu	a0,8(s4)
.LM60:
	li	s5,65536
.LM61:
	addi	s0,s0,-1
.LM62:
	call	lwip_htons
.LVL12:
.LM63:
	li	a5,1
.LM64:
	sh	a0,20(sp)
.LM65:
.LM66:
	sb	a5,22(sp)
.LM67:
.LM68:
	addi	a1,sp,20
.LM69:
	li	a5,256
.LM70:
	li	a2,12
	mv	a0,s7
.LM71:
	sh	a5,24(sp)
.LM72:
	call	pbuf_take
.LVL13:
.LM73:
.LM74:
.LM75:
.LM76:
	li	a1,12
.LM77:
	addi	s5,s5,-2
.LVL14:
.L14:
.LM78:
.LM79:
	addi	s0,s0,1
.LVL15:
.LM80:
.LM81:
.LM82:
	mv	s6,s0
.LM83:
	li	a2,0
.LVL16:
.L10:
.LM84:
.LM85:
	lbu	a5,0(s0)
.LM86:
	addi	a4,a5,-46
.LM87:
	beq	a4,zero,.L15
	bne	a5,zero,.L11
.L15:
.LM88:
.LVL17:
.LM89:
.LM90:
	add	s4,a1,a2
.LM91:
	ble	s4,s5,.L13
.LVL18:
.L24:
.LM92:
	mv	a0,s7
	call	pbuf_free
.LVL19:
.LBE3:
	j	.L7
.LVL20:
.L11:
.LBB4:
.LM93:
	addi	a2,a2,1
.LVL21:
.LM94:
	andi	a2,a2,0xff
.LVL22:
.LM95:
	addi	s0,s0,1
.LVL23:
.LM96:
	j	.L10
.LVL24:
.L13:
.LM97:
	mv	a0,s7
	sw	a1,12(sp)
	call	pbuf_put_at
.LVL25:
.LM98:
.LM99:
	lw	a1,12(sp)
.LM100:
	sub	a2,s0,s6
.LM101:
	slli	a2,a2,16
.LM102:
	addi	a1,a1,1
.LM103:
	slli	a3,a1,16
	srli	a3,a3,16
	mv	a1,s6
	srli	a2,a2,16
	mv	a0,s7
	call	pbuf_take_at
.LVL26:
.LM104:
.LM105:
	lbu	a5,0(s0)
.LM106:
	addi	a1,s4,1
	slli	a1,a1,16
	srli	a1,a1,16
.LVL27:
.LM107:
	bne	a5,zero,.L14
.LM108:
	mv	a0,s7
	li	a2,0
	call	pbuf_put_at
.LVL28:
.LM109:
.LM110:
.LM111:
.LM112:
.LM113:
	addi	a3,s4,2
.LM114:
	li	a5,16777216
.LM115:
	slli	a3,a3,16
.LM116:
	addi	a5,a5,256
.LM117:
	addi	a1,sp,16
	srli	a3,a3,16
	li	a2,4
	mv	a0,s7
.LM118:
	sw	a5,16(sp)
.LM119:
	call	pbuf_take_at
.LVL29:
.LM120:
.LM121:
.LM122:
.LM123:
.LM124:
.LM125:
	li	a5,272
	mul	s3,s3,a5
.LVL30:
.LM126:
	lui	a5,%hi(dns_pcbs)
	lw	a0,%lo(dns_pcbs)(a5)
	li	a3,53
	mv	a1,s7
.LM127:
	add	s1,s1,s3
.LM128:
	lbu	a2,11(s1)
	slli	a2,a2,2
.LM129:
	add	a2,s2,a2
	call	udp_sendto
.LVL31:
.LM130:
	j	.L24
.LBE4:
	.cfi_endproc
.LFE69:
	.size	dns_send.isra.0, .-dns_send.isra.0
	.section	.text.dns_check_entry,"ax",@progbits
	.align	1
	.type	dns_check_entry, @function
dns_check_entry:
.LVL32:
.LFB62:
.LM131:
	.cfi_startproc
.LM132:
.LM133:
.LM134:
.LM135:
.LM136:
.LM137:
	li	a5,272
	mul	a5,a0,a5
.LM138:
	addi	sp,sp,-32
	.cfi_def_cfa_offset 32
	sw	s0,24(sp)
	.cfi_offset 8, -8
.LM139:
	lui	s0,%hi(dns_table)
	addi	s0,s0,%lo(dns_table)
.LM140:
	sw	ra,28(sp)
	.cfi_offset 1, -4
.LM141:
	li	a2,2
.LM142:
	add	a5,s0,a5
	lbu	a4,10(a5)
.LM143:
	beq	a4,a2,.L26
	li	a3,3
	beq	a4,a3,.L27
	li	a5,1
	bne	a4,a5,.L25
	lui	a3,%hi(dns_txid)
	lhu	a4,%lo(dns_txid)(a3)
	addi	a1,s0,1088
.L29:
.LBB9:
.LBB10:
.LM144:
.LM145:
.LM146:
.LM147:
	addi	a4,a4,1
	slli	a4,a4,16
	srli	a4,a4,16
.LVL33:
.LM148:
.LM149:
	mv	a5,s0
.LVL34:
.L31:
.LM150:
.LM151:
	lbu	a6,10(a5)
	bne	a6,a2,.L30
.LM152:
	lhu	a6,8(a5)
	beq	a6,a4,.L29
.L30:
.LM153:
.LVL35:
.LM154:
	addi	a5,a5,272
.LVL36:
.LM155:
	bne	a5,a1,.L31
.LBE10:
.LBE9:
.LM156:
	li	a5,272
.LVL37:
.LM157:
	mul	a5,a0,a5
	sh	a4,%lo(dns_txid)(a3)
.LBB12:
.LBB11:
.LM158:
.LVL38:
.LM159:
.LBE11:
.LBE12:
.LM160:
	add	a5,s0,a5
	sh	a4,8(a5)
.LM161:
.LM162:
.LM163:
.LM164:
.LM165:
	li	a4,2
.LVL39:
.LM166:
	sh	a4,10(a5)
.LM167:
	li	a4,1
.LVL40:
.L50:
.LM168:
	sh	a4,12(a5)
.L36:
.LM169:
.LM170:
	lw	s0,24(sp)
	.cfi_remember_state
	.cfi_restore 8
	lw	ra,28(sp)
	.cfi_restore 1
	addi	sp,sp,32
	.cfi_def_cfa_offset 0
.LM171:
	tail	dns_send.isra.0
.LVL41:
.L26:
	.cfi_restore_state
.LM172:
.LM173:
	lbu	a4,12(a5)
	addi	a4,a4,-1
	andi	a4,a4,0xff
.LM174:
	sb	a4,12(a5)
	bne	a4,zero,.L25
.LM175:
.LM176:
	lbu	a4,13(a5)
.LM177:
	li	a3,4
.LM178:
	addi	a4,a4,1
	andi	a4,a4,0xff
.LM179:
	sb	a4,13(a5)
	bne	a4,a3,.L48
.LM180:
.LVL42:
.LBB13:
.LBI13:
.LM181:
.LBB14:
.LM182:
.LM183:
.LM184:
.LM185:
	lbu	a4,11(a5)
	bne	a4,zero,.L35
.LM186:
	lui	a4,%hi(dns_servers)
	addi	a4,a4,%lo(dns_servers)
.LM187:
	lw	a4,4(a4)
	beq	a4,zero,.L35
.LM188:
.LVL43:
.LM189:
.LBE14:
.LBE13:
.LM190:
.LM191:
.LM192:
.LM193:
	li	a4,1
	sb	a4,11(a5)
	j	.L50
.LVL44:
.L35:
.LBB16:
.LBB15:
.LM194:
.LM195:
.LBE15:
.LBE16:
.LM196:
.LM197:
	li	a1,0
	sw	a0,12(sp)
	call	dns_call_found
.LVL45:
.LM198:
.LM199:
	lw	a0,12(sp)
	li	a5,272
	mul	a0,a0,a5
	add	a0,s0,a0
	sb	zero,10(a0)
.LM200:
.L25:
.LM201:
	lw	ra,28(sp)
	.cfi_remember_state
	.cfi_restore 1
	lw	s0,24(sp)
	.cfi_restore 8
	addi	sp,sp,32
	.cfi_def_cfa_offset 0
	jr	ra
.LVL46:
.L48:
	.cfi_restore_state
.LM202:
.LM203:
	sb	a4,12(a5)
	j	.L36
.L27:
.LM204:
.LM205:
	lw	a4,0(a5)
.LM206:
	bne	a4,zero,.L37
.L38:
.LM207:
.LM208:
.LM209:
	li	a5,272
	mul	a5,a0,a5
	add	a5,s0,a5
	sb	zero,10(a5)
	j	.L25
.L37:
.LM210:
	addi	a4,a4,-1
.LM211:
	sw	a4,0(a5)
	beq	a4,zero,.L38
	j	.L25
	.cfi_endproc
.LFE62:
	.size	dns_check_entry, .-dns_check_entry
	.section	.text.dns_recv,"ax",@progbits
	.align	1
	.type	dns_recv, @function
dns_recv:
.LVL47:
.LFB65:
.LM212:
	.cfi_startproc
.LM213:
.LM214:
.LM215:
.LM216:
.LM217:
.LM218:
.LM219:
.LM220:
.LM221:
.LM222:
.LM223:
.LM224:
	addi	sp,sp,-96
	.cfi_def_cfa_offset 96
	sw	s1,84(sp)
	sw	ra,92(sp)
	sw	s0,88(sp)
	sw	s2,80(sp)
	sw	s3,76(sp)
	sw	s4,72(sp)
	sw	s5,68(sp)
	sw	s6,64(sp)
	sw	s7,60(sp)
	sw	s8,56(sp)
	sw	s9,52(sp)
	sw	s10,48(sp)
	sw	s11,44(sp)
	.cfi_offset 9, -12
	.cfi_offset 1, -4
	.cfi_offset 8, -8
	.cfi_offset 18, -16
	.cfi_offset 19, -20
	.cfi_offset 20, -24
	.cfi_offset 21, -28
	.cfi_offset 22, -32
	.cfi_offset 23, -36
	.cfi_offset 24, -40
	.cfi_offset 25, -44
	.cfi_offset 26, -48
	.cfi_offset 27, -52
.LM225:
	lhu	a4,8(a2)
.LVL48:
.LM226:
	li	a5,15
.LM227:
	mv	s1,a2
.LM228:
	bleu	a4,a5,.L67
	mv	s6,a3
.LM229:
.LM230:
	li	a2,12
.LVL49:
.LM231:
	li	a3,0
.LVL50:
.LM232:
	addi	a1,sp,8
.LVL51:
.LM233:
	mv	a0,s1
.LVL52:
.LM234:
	call	pbuf_copy_partial
.LVL53:
.LM235:
	li	a5,12
.LM236:
	mv	s0,a0
.LM237:
	bne	a0,a5,.L67
.LM238:
.LM239:
	lhu	a0,8(sp)
	li	s2,0
	call	lwip_htons
.LVL54:
.LM240:
.LM241:
	lui	a5,%hi(dns_table)
	addi	a5,a5,%lo(dns_table)
	mv	s5,a5
.LBB33:
.LM242:
	li	a3,2
.LBE33:
.LM243:
	li	a4,4
.LVL55:
.L75:
.LBB63:
.LM244:
.LM245:
.LM246:
	lbu	a2,10(a5)
	bne	a2,a3,.L53
.LM247:
	lhu	a2,8(a5)
	bne	a2,a0,.L53
.LM248:
.LM249:
	lhu	a0,12(sp)
.LVL56:
.LM250:
	call	lwip_htons
.LVL57:
	mv	s4,a0
.LVL58:
.LM251:
.LM252:
	lhu	a0,14(sp)
	call	lwip_htons
.LVL59:
.LM253:
	lbu	a5,10(sp)
.LM254:
	mv	s3,a0
.LVL60:
.LM255:
.LM256:
.LM257:
	srli	a5,a5,7
	beq	a5,zero,.L67
	addi	s4,s4,-1
.LVL61:
.LM258:
	bne	s4,zero,.L67
.LM259:
.LM260:
	li	s4,272
	mul	s4,s2,s4
.LM261:
	lui	s7,%hi(dns_servers)
	addi	s7,s7,%lo(dns_servers)
.LM262:
	lw	a4,0(s6)
.LM263:
	add	a5,s5,s4
	lbu	a5,11(a5)
.LM264:
	slli	a5,a5,2
	add	a5,s7,a5
.LM265:
	lw	a5,0(a5)
	bne	a4,a5,.L67
.LM266:
.LM267:
	addi	s6,s4,15
.LVL62:
.LBB34:
.LBB35:
.LM268:
	li	s8,-65536
.LBB36:
.LBB37:
.LM269:
	lui	s9,%hi(_ctype_+1)
.LBE37:
.LBE36:
.LBE35:
.LBE34:
.LM270:
	add	s6,s5,s6
.LVL63:
.LBB46:
.LBI34:
.LM271:
.LBB44:
.LM272:
.LM273:
.LM274:
	addi	s8,s8,1
.LBB41:
.LBB38:
.LM275:
	addi	s9,s9,%lo(_ctype_+1)
.LM276:
	li	s10,1
.L61:
.LVL64:
.LM277:
.LBE38:
.LBE41:
.LM278:
.LM279:
.LM280:
	mv	a1,s0
	mv	a0,s1
	call	pbuf_try_get_at
.LVL65:
.LM281:
.LM282:
	blt	a0,zero,.L67
.LM283:
	add	a5,s0,s8
	beq	a5,zero,.L67
.LM284:
.LVL66:
.LM285:
.LM286:
	andi	a5,a0,192
.LM287:
	li	a4,192
	beq	a5,a4,.L67
.LM288:
	addi	s0,s0,1
.LVL67:
.LM289:
	slli	s0,s0,16
.LVL68:
.LM290:
	srli	s0,s0,16
	add	s11,s6,a0
.LVL69:
.L57:
.LM291:
.LBB42:
.LM292:
	mv	a1,s0
	mv	a0,s1
.LBE42:
.LM293:
	bne	s6,s11,.L60
.LM294:
.LVL70:
.LM295:
.LM296:
	call	pbuf_try_get_at
.LVL71:
.LM297:
.LM298:
	blt	a0,zero,.L67
.LM299:
	addi	s6,s6,1
.LVL72:
.LM300:
	bne	a0,zero,.L61
.LM301:
.LM302:
	li	a5,65536
	addi	a5,a5,-1
	beq	s0,a5,.L67
.LM303:
.LM304:
	addi	s6,s0,1
.LVL73:
.LM305:
	slli	s6,s6,16
	srli	s6,s6,16
.LVL74:
.LM306:
.LBE44:
.LBE46:
.LM307:
.LM308:
	beq	s6,a5,.L67
.LM309:
.LM310:
	mv	a3,s6
	li	a2,4
	mv	a1,sp
	mv	a0,s1
	call	pbuf_copy_partial
.LVL75:
.LM311:
	li	a5,4
	bne	a0,a5,.L67
.LM312:
.LM313:
	lhu	a4,2(sp)
	li	a5,256
	bne	a4,a5,.L67
.LM314:
.LM315:
	lhu	a5,0(sp)
	addi	a5,a5,-256
.LM316:
	bne	a5,zero,.L67
	li	a5,65536
	addi	a5,a5,-5
	bgtu	s6,a5,.L67
.LM317:
	lbu	a5,11(sp)
	andi	s11,s2,0xff
.LM318:
.LVL76:
.LM319:
.LM320:
	andi	a5,a5,15
	bne	a5,zero,.L62
.LM321:
	addi	s0,s0,5
.LVL77:
.LBB47:
.LBB48:
.LM322:
	li	s7,65536
.LBE48:
.LBE47:
.LM323:
	slli	s0,s0,16
.LVL78:
.LM324:
	srli	s0,s0,16
.LBB52:
.LBB49:
.LM325:
	li	s9,192
.LM326:
	addi	s8,s7,-1
.LBE49:
.LBE52:
.LM327:
	addi	s6,s7,-10
.LVL79:
.L63:
.LM328:
	beq	s3,zero,.L66
.LM329:
	lhu	a5,8(s1)
	bleu	a5,s0,.L66
.LVL80:
.L70:
.LBB53:
.LBB50:
.LM330:
.LM331:
.LM332:
	addi	s10,s0,1
	slli	s10,s10,16
	srli	s10,s10,16
.LVL81:
.LM333:
	mv	a1,s0
	mv	a0,s1
	call	pbuf_try_get_at
.LVL82:
.LM334:
.LM335:
	beq	s10,zero,.L67
	blt	a0,zero,.L67
.LM336:
.LM337:
	andi	a5,a0,192
.LM338:
	beq	a5,s9,.L76
.LM339:
.LM340:
	lhu	a5,8(s1)
.LM341:
	add	s0,s10,a0
.LM342:
	bge	s0,a5,.L67
.LM343:
.LM344:
	slli	s0,s0,16
	srli	s0,s0,16
.LVL83:
.LM345:
.LM346:
	mv	a1,s0
	mv	a0,s1
.LVL84:
.LM347:
	call	pbuf_try_get_at
.LVL85:
.LM348:
.LM349:
	blt	a0,zero,.L67
.LM350:
	bne	a0,zero,.L70
.LVL86:
.L69:
.LM351:
.LM352:
	beq	s0,s8,.L67
.LM353:
.LM354:
	addi	s10,s0,1
	slli	s10,s10,16
	srli	s10,s10,16
.LVL87:
.LM355:
.LBE50:
.LBE53:
.LM356:
.LM357:
	beq	s10,s8,.L67
.LM358:
.LM359:
	mv	a3,s10
	li	a2,10
	addi	a1,sp,20
	mv	a0,s1
	call	pbuf_copy_partial
.LVL88:
.LM360:
.LM361:
	bgeu	s10,s6,.L67
.LM362:
	addi	a0,a0,-10
.LM363:
	bne	a0,zero,.L67
.LM364:
.LM365:
	lw	a4,20(sp)
.LM366:
	addi	s0,s0,11
.LM367:
	li	a5,16777216
.LM368:
	slli	s0,s0,16
.LM369:
	addi	a5,a5,256
.LM370:
	lhu	a0,28(sp)
.LM371:
	srli	s0,s0,16
.LVL89:
.LM372:
.LM373:
.LM374:
	bne	a4,a5,.L71
.LM375:
	li	a5,1024
	bne	a0,a5,.L71
.LBB54:
.LM376:
.LM377:
.LM378:
	li	a2,4
	mv	a3,s0
	add	a1,sp,a2
	mv	a0,s1
	call	pbuf_copy_partial
.LVL90:
.LM379:
	li	a5,4
	bne	a0,a5,.L67
.LM380:
.LM381:
	li	s3,272
.LVL91:
.LM382:
	mul	s3,s2,s3
	lw	a5,4(sp)
	lui	s0,%hi(dns_table)
.LVL92:
.LM383:
	addi	s0,s0,%lo(dns_table)
.LM384:
	mv	a0,s1
.LM385:
	add	s3,s0,s3
	sw	a5,4(s3)
.LM386:
	call	pbuf_free
.LVL93:
.LM387:
	lw	a0,24(sp)
	call	lwip_htonl
.LVL94:
.LBB55:
.LBI55:
.LM388:
.LBB56:
.LM389:
.LM390:
.LM391:
	li	a5,3
	sb	a5,10(s3)
.LM392:
.LM393:
.LM394:
.LM395:
.LM396:
.LM397:
	li	a5,606208
	addi	a5,a5,-1408
	bleu	a0,a5,.L73
	mv	a0,a5
.LVL95:
.L73:
.LM398:
	addi	a1,s4,4
	sw	a0,0(s3)
.LM399:
	add	a1,s0,a1
	mv	a0,s11
	call	dns_call_found
.LVL96:
.LM400:
.LM401:
	li	a5,272
	mul	a5,s2,a5
	add	s0,s0,a5
.LM402:
	lw	a5,0(s0)
	bne	a5,zero,.L51
.LM403:
.LM404:
	lbu	a4,10(s0)
	li	a5,3
	bne	a4,a5,.L51
.LM405:
.LM406:
	sb	zero,10(s0)
.LVL97:
.LM407:
.LBE56:
.LBE55:
.LM408:
	j	.L51
.LVL98:
.L60:
.LM409:
.LBE54:
.LBB57:
.LBB45:
.LBB43:
.LM410:
.LM411:
	call	pbuf_try_get_at
.LVL99:
.LM412:
.LM413:
	blt	a0,zero,.L67
.LM414:
.LBB39:
.LM415:
.LM416:
	lbu	a5,0(s6)
.LVL100:
.LM417:
.LM418:
	add	a4,a5,s9
.LM419:
	lbu	a4,0(a4)
	andi	a4,a4,3
	bne	a4,s10,.L58
.LM420:
	addi	a5,a5,32
.LVL101:
.L58:
.LM421:
.LBE39:
.LBB40:
.LM422:
.LM423:
	andi	a0,a0,255
.LVL102:
.LM424:
	add	a4,s9,a0
.LM425:
	lbu	a4,0(a4)
	andi	a4,a4,3
	bne	a4,s10,.L59
.LM426:
	addi	a0,a0,32
.L59:
.LBE40:
.LM427:
.LM428:
	add	a4,s0,s8
	beq	a4,zero,.L67
	bne	a5,a0,.L67
.LM429:
.LM430:
	addi	s0,s0,1
.LVL103:
.LM431:
	slli	s0,s0,16
.LVL104:
.LM432:
	srli	s0,s0,16
.LVL105:
.LM433:
	addi	s6,s6,1
.LVL106:
.LM434:
	j	.L57
.LVL107:
.L62:
.LM435:
.LBE43:
.LBE45:
.LBE57:
.LM436:
.LM437:
.LBB58:
.LBI58:
.LM438:
.LBB59:
.LM439:
.LM440:
.LM441:
.LM442:
	li	a5,272
	mul	a5,s2,a5
	add	a5,s5,a5
.LM443:
	lbu	a4,11(a5)
	beq	a4,zero,.L64
.LVL108:
.L66:
.LM444:
.LBE59:
.LBE58:
.LM445:
.LM446:
	mv	a0,s1
	call	pbuf_free
.LVL109:
.LM447:
	li	a1,0
	mv	a0,s11
	call	dns_call_found
.LVL110:
.LM448:
.LM449:
	li	a5,272
	mul	a5,s2,a5
	add	a5,s5,a5
	sb	zero,10(a5)
.LM450:
.LVL111:
.L51:
.LM451:
.LBE63:
.LM452:
	lw	ra,92(sp)
	.cfi_remember_state
	.cfi_restore 1
	lw	s0,88(sp)
	.cfi_restore 8
	lw	s1,84(sp)
	.cfi_restore 9
.LVL112:
.LM453:
	lw	s2,80(sp)
	.cfi_restore 18
	lw	s3,76(sp)
	.cfi_restore 19
	lw	s4,72(sp)
	.cfi_restore 20
	lw	s5,68(sp)
	.cfi_restore 21
	lw	s6,64(sp)
	.cfi_restore 22
	lw	s7,60(sp)
	.cfi_restore 23
	lw	s8,56(sp)
	.cfi_restore 24
	lw	s9,52(sp)
	.cfi_restore 25
	lw	s10,48(sp)
	.cfi_restore 26
	lw	s11,44(sp)
	.cfi_restore 27
	addi	sp,sp,96
	.cfi_def_cfa_offset 0
	jr	ra
.LVL113:
.L64:
	.cfi_restore_state
.LBB64:
.LBB61:
.LBB60:
.LM454:
	lw	a4,4(s7)
	beq	a4,zero,.L66
.LM455:
.LVL114:
.LM456:
.LBE60:
.LBE61:
.LM457:
.LM458:
.LM459:
	li	a4,769
	sh	a4,12(a5)
.LM460:
	mv	a0,s11
	call	dns_check_entry
.LVL115:
.LM461:
.L67:
.LM462:
.LBE64:
.LM463:
	mv	a0,s1
	call	pbuf_free
.LVL116:
.LM464:
	j	.L51
.LVL117:
.L76:
.LBB65:
.LBB62:
.LBB51:
.LM465:
	mv	s0,s10
	j	.L69
.LVL118:
.L71:
.LM466:
.LBE51:
.LBE62:
.LM467:
.LM468:
	call	lwip_htons
.LVL119:
.LM469:
	add	a0,s0,a0
.LM470:
	bge	a0,s7,.L67
.LM471:
.LM472:
	lhu	a0,28(sp)
.LM473:
	addi	s3,s3,-1
.LVL120:
.LM474:
	slli	s3,s3,16
.LM475:
	call	lwip_htons
.LVL121:
.LM476:
	add	s0,a0,s0
.LVL122:
.LM477:
	slli	s0,s0,16
	srli	s0,s0,16
.LVL123:
.LM478:
	srli	s3,s3,16
	j	.L63
.LVL124:
.L53:
.LM479:
.LBE65:
.LM480:
.LM481:
	addi	s2,s2,1
.LVL125:
.LM482:
	addi	a5,a5,272
	bne	s2,a4,.L75
.LM483:
	j	.L67
	.cfi_endproc
.LFE65:
	.size	dns_recv, .-dns_recv
	.section	.text.dns_init,"ax",@progbits
	.align	1
	.globl	dns_init
	.type	dns_init, @function
dns_init:
.LFB51:
.LM484:
	.cfi_startproc
.LM485:
.LM486:
.LM487:
.LM488:
.LM489:
.LM490:
.LM491:
	addi	sp,sp,-16
	.cfi_def_cfa_offset 16
	sw	s0,8(sp)
	.cfi_offset 8, -8
.LM492:
	lui	s0,%hi(dns_pcbs)
.LM493:
	lw	a5,%lo(dns_pcbs)(s0)
.LM494:
	sw	ra,12(sp)
	.cfi_offset 1, -4
.LM495:
	bne	a5,zero,.L88
.LM496:
.LM497:
	li	a0,46
	call	udp_new_ip_type
.LVL126:
.LM498:
	lui	a1,%hi(ip_addr_any)
	li	a2,0
	addi	a1,a1,%lo(ip_addr_any)
.LM499:
	sw	a0,%lo(dns_pcbs)(s0)
.LM500:
.LM501:
.LM502:
.LM503:
.LM504:
	call	udp_bind
.LVL127:
.LM505:
	lw	a0,%lo(dns_pcbs)(s0)
.LM506:
	lw	s0,8(sp)
	.cfi_remember_state
	.cfi_restore 8
	lw	ra,12(sp)
	.cfi_restore 1
.LM507:
	lui	a1,%hi(dns_recv)
.LM508:
.LM509:
	li	a2,0
	addi	a1,a1,%lo(dns_recv)
.LM510:
	addi	sp,sp,16
	.cfi_def_cfa_offset 0
.LM511:
	tail	udp_recv
.LVL128:
.L88:
	.cfi_restore_state
.LM512:
	lw	ra,12(sp)
	.cfi_restore 1
	lw	s0,8(sp)
	.cfi_restore 8
	addi	sp,sp,16
	.cfi_def_cfa_offset 0
	jr	ra
	.cfi_endproc
.LFE51:
	.size	dns_init, .-dns_init
	.section	.text.dns_setserver,"ax",@progbits
	.align	1
	.globl	dns_setserver
	.type	dns_setserver, @function
dns_setserver:
.LVL129:
.LFB52:
.LM513:
	.cfi_startproc
.LM514:
.LM515:
	li	a5,1
	bgtu	a0,a5,.L91
.LM516:
	lui	a5,%hi(dns_servers)
	addi	a5,a5,%lo(dns_servers)
	slli	a0,a0,2
.LVL130:
.LM517:
	add	a5,a5,a0
.LM518:
	beq	a1,zero,.L93
.LM519:
.LM520:
	lw	a4,0(a1)
.L94:
.LM521:
	sw	a4,0(a5)
.L91:
.LM522:
	ret
.L93:
.LM523:
.LM524:
	lui	a4,%hi(ip_addr_any)
	lw	a4,%lo(ip_addr_any)(a4)
	j	.L94
	.cfi_endproc
.LFE52:
	.size	dns_setserver, .-dns_setserver
	.section	.text.dns_getserver,"ax",@progbits
	.align	1
	.globl	dns_getserver
	.type	dns_getserver, @function
dns_getserver:
.LVL131:
.LFB53:
.LM525:
	.cfi_startproc
.LM526:
.LM527:
	li	a5,1
	bgtu	a0,a5,.L97
.LM528:
.LM529:
	lui	a5,%hi(dns_servers)
	addi	a5,a5,%lo(dns_servers)
	slli	a0,a0,2
.LVL132:
.LM530:
	add	a0,a0,a5
	ret
.LVL133:
.L97:
.LM531:
	lui	a0,%hi(ip_addr_any)
.LVL134:
.LM532:
	addi	a0,a0,%lo(ip_addr_any)
.LM533:
	ret
	.cfi_endproc
.LFE53:
	.size	dns_getserver, .-dns_getserver
	.section	.text.dns_tmr,"ax",@progbits
	.align	1
	.globl	dns_tmr
	.type	dns_tmr, @function
dns_tmr:
.LFB54:
.LM534:
	.cfi_startproc
.LM535:
.LM536:
.LBB68:
.LBI68:
.LM537:
.LBB69:
.LM538:
.LM539:
.LVL135:
.LM540:
.LBE69:
.LBE68:
.LM541:
	addi	sp,sp,-32
	.cfi_def_cfa_offset 32
	sw	s0,24(sp)
	sw	ra,28(sp)
	.cfi_offset 8, -8
	.cfi_offset 1, -4
.LBB71:
.LBB70:
.LM542:
	li	a0,0
.LM543:
	li	s0,4
.LVL136:
.L99:
.LM544:
	sw	a0,12(sp)
	call	dns_check_entry
.LVL137:
.LM545:
	lw	a0,12(sp)
	addi	a0,a0,1
	andi	a0,a0,0xff
.LVL138:
.LM546:
	bne	a0,s0,.L99
.LBE70:
.LBE71:
.LM547:
	lw	ra,28(sp)
	.cfi_restore 1
	lw	s0,24(sp)
	.cfi_restore 8
	addi	sp,sp,32
	.cfi_def_cfa_offset 0
	jr	ra
	.cfi_endproc
.LFE54:
	.size	dns_tmr, .-dns_tmr
	.section	.text.dns_gethostbyname_addrtype,"ax",@progbits
	.align	1
	.globl	dns_gethostbyname_addrtype
	.type	dns_gethostbyname_addrtype, @function
dns_gethostbyname_addrtype:
.LVL139:
.LFB68:
.LM548:
	.cfi_startproc
.LM549:
.LM550:
.LM551:
	beq	a1,zero,.L134
.LM552:
	addi	sp,sp,-64
	.cfi_def_cfa_offset 64
	sw	s2,48(sp)
	sw	ra,60(sp)
	sw	s0,56(sp)
	sw	s1,52(sp)
	sw	s3,44(sp)
	sw	s4,40(sp)
	sw	s5,36(sp)
	sw	s6,32(sp)
	sw	s7,28(sp)
	sw	s8,24(sp)
	sw	s9,20(sp)
	.cfi_offset 18, -16
	.cfi_offset 1, -4
	.cfi_offset 8, -8
	.cfi_offset 9, -12
	.cfi_offset 19, -20
	.cfi_offset 20, -24
	.cfi_offset 21, -28
	.cfi_offset 22, -32
	.cfi_offset 23, -36
	.cfi_offset 24, -40
	.cfi_offset 25, -44
	mv	s2,a0
.LM553:
	bne	a0,zero,.L103
.LVL140:
.L106:
.LM554:
	li	a0,-16
.L126:
.LM555:
	lw	ra,60(sp)
	.cfi_remember_state
	.cfi_restore 1
	lw	s0,56(sp)
	.cfi_restore 8
	lw	s1,52(sp)
	.cfi_restore 9
	lw	s2,48(sp)
	.cfi_restore 18
.LVL141:
.LM556:
	lw	s3,44(sp)
	.cfi_restore 19
	lw	s4,40(sp)
	.cfi_restore 20
	lw	s5,36(sp)
	.cfi_restore 21
	lw	s6,32(sp)
	.cfi_restore 22
	lw	s7,28(sp)
	.cfi_restore 23
	lw	s8,24(sp)
	.cfi_restore 24
	lw	s9,20(sp)
	.cfi_restore 25
	addi	sp,sp,64
	.cfi_def_cfa_offset 0
	jr	ra
.LVL142:
.L103:
	.cfi_restore_state
.LM557:
	lbu	a5,0(a0)
	beq	a5,zero,.L106
.LM558:
.LM559:
	lui	a5,%hi(dns_pcbs)
.LM560:
	lw	a5,%lo(dns_pcbs)(a5)
	beq	a5,zero,.L106
	mv	s4,a3
	mv	s3,a2
	mv	s6,a1
.LM561:
.LM562:
	call	strlen
.LVL143:
.LM563:
.LM564:
	addi	s5,a0,-1
	add	a5,s2,s5
.LM565:
	lbu	a4,0(a5)
	li	a5,46
	beq	a4,a5,.L107
.LM566:
	mv	s5,a0
.L107:
.LVL144:
.LM567:
.LM568:
	li	a5,255
	bgtu	s5,a5,.L106
.LM569:
.LM570:
	mv	a1,s6
	mv	a0,s2
	call	ip4addr_aton
.LVL145:
.LM571:
	beq	a0,zero,.L108
.L110:
.LM572:
	li	a0,0
	j	.L126
.L108:
	lui	s0,%hi(dns_table)
	addi	s0,s0,%lo(dns_table)
	addi	a1,s0,15
.LM573:
	li	s1,0
	mv	s7,s0
.LBB77:
.LBB78:
.LM574:
	li	s9,3
.LM575:
	li	s8,4
.L111:
.LVL146:
.LM576:
.LM577:
	lbu	a5,-5(a1)
	bne	a5,s9,.L109
.LM578:
	mv	a2,s5
	mv	a0,s2
	sw	a1,12(sp)
	call	lwip_strnicmp
.LVL147:
.LM579:
	lw	a1,12(sp)
	bne	a0,zero,.L109
.LM580:
	add	a5,a1,s5
.LM581:
	lbu	a5,0(a5)
	bne	a5,zero,.L109
.LM582:
.LM583:
.LM584:
.LM585:
.LM586:
.LM587:
	li	a5,272
	mul	s1,s1,a5
.LVL148:
.LM588:
	add	s1,s0,s1
	lw	a5,4(s1)
.LM589:
	sw	a5,0(s6)
.LM590:
.LVL149:
.LM591:
	j	.L110
.LVL150:
.L109:
.LM592:
.LM593:
	addi	s1,s1,1
.LVL151:
.LM594:
	addi	a1,a1,272
	bne	s1,s8,.L111
.LVL152:
.LM595:
.LBE78:
.LBE77:
.LM596:
.LM597:
.LM598:
	lui	a5,%hi(dns_servers)
.LM599:
	lw	a5,%lo(dns_servers)(a5)
.LM600:
	li	a0,-6
.LM601:
	beq	a5,zero,.L126
	li	a5,0
.LBB79:
.LBB80:
.LM602:
	li	a3,0
.LM603:
	li	a1,3
.LM604:
	mv	a2,s1
.L114:
.LVL153:
.LM605:
.LM606:
.LM607:
	lbu	a4,10(s0)
.LM608:
	beq	a4,zero,.L112
.LM609:
.LM610:
	bne	a4,a1,.L113
.LBB81:
.LM611:
.LM612:
	lui	a4,%hi(dns_seqno)
.LM613:
	lbu	a4,%lo(dns_seqno)(a4)
	lbu	a0,14(s0)
	sub	a4,a4,a0
	andi	a4,a4,0xff
.LVL154:
.LM614:
.LM615:
	bleu	a4,a3,.L113
.LM616:
	andi	s1,a5,0xff
.LVL155:
.LM617:
	mv	a3,a4
.LVL156:
.L113:
.LM618:
.LBE81:
.LM619:
.LM620:
	addi	a5,a5,1
.LVL157:
.LM621:
	addi	s0,s0,272
	bne	a5,a2,.L114
.LM622:
.LM623:
.LM624:
	li	a0,-1
.LM625:
	beq	s1,a5,.L126
.LM626:
	li	s0,272
	mul	s0,s1,s0
.LM627:
	li	a5,3
.LVL158:
.LM628:
	li	a0,-1
.LM629:
	add	s0,s7,s0
.LM630:
	lbu	a4,10(s0)
	bne	a4,a5,.L126
.LVL159:
.L116:
.LM631:
.LM632:
.LM633:
.LM634:
	lui	s6,%hi(dns_seqno)
.LVL160:
.LM635:
	li	a5,1
	sb	a5,10(s0)
.LM636:
.LM637:
	lbu	a5,%lo(dns_seqno)(s6)
.LM638:
	slli	a4,s1,3
.LM639:
	mv	a2,s5
.LM640:
	sb	a5,14(s0)
.LM641:
.LM642:
.LM643:
.LM644:
	lui	a5,%hi(dns_requests)
	addi	a5,a5,%lo(dns_requests)
	add	a5,a5,a4
.LM645:
	mv	a1,s2
	addi	a0,s0,15
.LM646:
	sw	s3,0(a5)
.LM647:
.LM648:
	sw	s4,4(a5)
.LM649:
	call	memcpy
.LVL161:
.LM650:
.LM651:
	lbu	a5,%lo(dns_seqno)(s6)
.LM652:
	add	s0,s0,s5
.LVL162:
.LM653:
	mv	a0,s1
.LM654:
	addi	a5,a5,1
.LM655:
	sb	zero,15(s0)
.LM656:
.LM657:
	sb	a5,%lo(dns_seqno)(s6)
.LM658:
	call	dns_check_entry
.LVL163:
.LM659:
.LM660:
	li	a0,-5
	j	.L126
.LVL164:
.L112:
.LM661:
.LM662:
	li	s0,272
	mul	s0,a5,s0
	andi	s1,a5,0xff
.LVL165:
.LM663:
	add	s0,s7,s0
	j	.L116
.LVL166:
.L134:
	.cfi_def_cfa_offset 0
	.cfi_restore 1
	.cfi_restore 8
	.cfi_restore 9
	.cfi_restore 18
	.cfi_restore 19
	.cfi_restore 20
	.cfi_restore 21
	.cfi_restore 22
	.cfi_restore 23
	.cfi_restore 24
	.cfi_restore 25
.LM664:
.LBE80:
.LBE79:
.LM665:
	li	a0,-16
.LVL167:
.LM666:
	ret
	.cfi_endproc
.LFE68:
	.size	dns_gethostbyname_addrtype, .-dns_gethostbyname_addrtype
	.section	.text.dns_gethostbyname,"ax",@progbits
	.align	1
	.globl	dns_gethostbyname
	.type	dns_gethostbyname, @function
dns_gethostbyname:
.LVL168:
.LFB67:
.LM667:
	.cfi_startproc
.LM668:
.LM669:
	li	a4,0
	tail	dns_gethostbyname_addrtype
.LVL169:
.LM670:
	.cfi_endproc
.LFE67:
	.size	dns_gethostbyname, .-dns_gethostbyname
	.globl	dns_mquery_v4group
	.section	.srodata.dns_mquery_v4group,"a"
	.align	2
	.type	dns_mquery_v4group, @object
	.size	dns_mquery_v4group, 4
dns_mquery_v4group:
	.word	-83885856
	.section	.sbss.dns_servers,"aw",@nobits
	.align	2
	.type	dns_servers, @object
	.size	dns_servers, 8
dns_servers:
	.zero	8
	.section	.bss.dns_requests,"aw",@nobits
	.align	2
	.type	dns_requests, @object
	.size	dns_requests, 32
dns_requests:
	.zero	32
	.section	.bss.dns_table,"aw",@nobits
	.align	2
	.type	dns_table, @object
	.size	dns_table, 1088
dns_table:
	.zero	1088
	.section	.sbss.dns_seqno,"aw",@nobits
	.type	dns_seqno, @object
	.size	dns_seqno, 1
dns_seqno:
	.zero	1
	.section	.sbss.dns_pcbs,"aw",@nobits
	.align	2
	.type	dns_pcbs, @object
	.size	dns_pcbs, 4
dns_pcbs:
	.zero	4
	.section	.sbss.dns_txid,"aw",@nobits
	.align	1
	.type	dns_txid, @object
	.size	dns_txid, 2
dns_txid:
	.zero	2
	.text
.Letext0:
	.section	.note.GNU-stack,"",@progbits
