	.file	"memp.c"
	.option nopic
	.attribute arch, "rv32i2p1_m2p0_f2p2_c2p0_zicsr2p0_zmmul1p0_zca1p0_zcf1p0"
	.attribute unaligned_access, 0
	.attribute stack_align, 16
	.text
.Ltext0:
	.cfi_sections	.debug_frame
	.section	.text.do_memp_malloc_pool,"ax",@progbits
	.align	1
	.type	do_memp_malloc_pool, @function
do_memp_malloc_pool:
.LVL0:
.LFB53:
.LM1:
	.cfi_startproc
.LM2:
.LM3:
.LM4:
.LM5:
	addi	sp,sp,-16
	.cfi_def_cfa_offset 16
	sw	s0,8(sp)
	sw	s1,4(sp)
	.cfi_offset 8, -8
	.cfi_offset 9, -12
	mv	s0,a0
	sw	ra,12(sp)
	.cfi_offset 1, -4
.LM6:
	call	sys_arch_protect
.LVL1:
.LM7:
.LM8:
	lw	a5,12(s0)
.LM9:
	lw	s1,0(a5)
.LVL2:
.LM10:
.LM11:
	beq	s1,zero,.L2
.LM12:
.LM13:
	lw	a4,0(s1)
.LM14:
	sw	a4,0(a5)
.LM15:
.LM16:
.LM17:
.LM18:
	lw	a4,0(s0)
.LM19:
	lhu	a5,4(a4)
	addi	a5,a5,1
	sh	a5,4(a4)
.LM20:
.LM21:
	lw	a5,0(s0)
.LM22:
	lhu	a4,4(a5)
.LM23:
	lhu	a3,6(a5)
	bgeu	a3,a4,.L6
.LM24:
.LM25:
	sh	a4,6(a5)
.LM26:
.L6:
.LM27:
	call	sys_arch_unprotect
.LVL3:
.LM28:
.LM29:
.LM30:
	lw	ra,12(sp)
	.cfi_remember_state
	.cfi_restore 1
	lw	s0,8(sp)
	.cfi_restore 8
.LVL4:
.LM31:
	mv	a0,s1
	lw	s1,4(sp)
	.cfi_restore 9
.LVL5:
.LM32:
	addi	sp,sp,16
	.cfi_def_cfa_offset 0
	jr	ra
.LVL6:
.L2:
	.cfi_restore_state
.LM33:
.LM34:
	lw	a4,0(s0)
.LM35:
	lhu	a5,0(a4)
	addi	a5,a5,1
	sh	a5,0(a4)
	j	.L6
	.cfi_endproc
.LFE53:
	.size	do_memp_malloc_pool, .-do_memp_malloc_pool
	.section	.text.memp_init_pool,"ax",@progbits
	.align	1
	.globl	memp_init_pool
	.type	memp_init_pool, @function
memp_init_pool:
.LVL7:
.LFB51:
.LM36:
	.cfi_startproc
.LM37:
.LM38:
.LM39:
.LM40:
	lw	a5,12(a0)
.LM41:
	li	a4,0
.LM42:
	sw	zero,0(a5)
.LM43:
.LM44:
	lw	a5,8(a0)
	addi	a5,a5,3
.LM45:
	andi	a5,a5,-4
.LVL8:
.LM46:
.L8:
.LM47:
.LM48:
	lhu	a3,6(a0)
.LM49:
	bgt	a3,a4,.L9
.LM50:
.LM51:
	lw	a5,0(a0)
.LVL9:
.LM52:
	sh	a3,2(a5)
.LM53:
	ret
.LVL10:
.L9:
.LM54:
.LM55:
	lw	a3,12(a0)
.LM56:
	addi	a4,a4,1
.LVL11:
.LM57:
	lw	a3,0(a3)
.LM58:
	sw	a3,0(a5)
.LM59:
.LM60:
	lw	a3,12(a0)
.LM61:
	sw	a5,0(a3)
.LM62:
.LM63:
	lhu	a3,4(a0)
.LM64:
	add	a5,a5,a3
.LVL12:
.LM65:
	j	.L8
	.cfi_endproc
.LFE51:
	.size	memp_init_pool, .-memp_init_pool
	.section	.text.memp_init,"ax",@progbits
	.align	1
	.globl	memp_init
	.type	memp_init, @function
memp_init:
.LFB52:
.LM66:
	.cfi_startproc
.LM67:
.LM68:
.LVL13:
.LM69:
.LM70:
	addi	sp,sp,-48
	.cfi_def_cfa_offset 48
	sw	s0,40(sp)
	sw	s2,32(sp)
	.cfi_offset 8, -8
	.cfi_offset 18, -16
	lui	s0,%hi(lwip_stats)
.LM71:
	lui	s2,%hi(memp_pools)
.LM72:
	sw	s1,36(sp)
	sw	s3,28(sp)
	sw	ra,44(sp)
	.cfi_offset 9, -12
	.cfi_offset 19, -20
	.cfi_offset 1, -4
	addi	s0,s0,%lo(lwip_stats)
.LM73:
	li	s1,0
.LM74:
	addi	s2,s2,%lo(memp_pools)
.LM75:
	li	s3,132
.LVL14:
.L11:
.LM76:
.LM77:
	add	a5,s1,s2
	lw	a0,0(a5)
.LM78:
	addi	s1,s1,4
.LVL15:
.LM79:
	addi	s0,s0,4
.LM80:
	sw	a0,12(sp)
	call	memp_init_pool
.LVL16:
.LM81:
.LM82:
	lw	a0,12(sp)
	lw	a5,0(a0)
.LM83:
	sw	a5,180(s0)
.LM84:
.LVL17:
.LM85:
	bne	s1,s3,.L11
.LM86:
	lw	ra,44(sp)
	.cfi_restore 1
	lw	s0,40(sp)
	.cfi_restore 8
	lw	s1,36(sp)
	.cfi_restore 9
	lw	s2,32(sp)
	.cfi_restore 18
	lw	s3,28(sp)
	.cfi_restore 19
	addi	sp,sp,48
	.cfi_def_cfa_offset 0
	jr	ra
	.cfi_endproc
.LFE52:
	.size	memp_init, .-memp_init
	.section	.text.memp_malloc_pool,"ax",@progbits
	.align	1
	.globl	memp_malloc_pool
	.type	memp_malloc_pool, @function
memp_malloc_pool:
.LVL18:
.LFB54:
.LM87:
	.cfi_startproc
.LM88:
.LM89:
.LM90:
.LM91:
	beq	a0,zero,.L15
.LM92:
.LM93:
	tail	do_memp_malloc_pool
.LVL19:
.L15:
.LM94:
	ret
	.cfi_endproc
.LFE54:
	.size	memp_malloc_pool, .-memp_malloc_pool
	.section	.text.memp_malloc,"ax",@progbits
	.align	1
	.globl	memp_malloc
	.type	memp_malloc, @function
memp_malloc:
.LVL20:
.LFB55:
.LM95:
	.cfi_startproc
.LM96:
.LM97:
.LM98:
.LM99:
	li	a5,32
	bgtu	a0,a5,.L17
.LM100:
.LM101:
.LM102:
.LM103:
	lui	a5,%hi(memp_pools)
	slli	a0,a0,2
.LVL21:
.LM104:
	addi	a5,a5,%lo(memp_pools)
	add	a5,a5,a0
.LM105:
	lw	a0,0(a5)
	tail	do_memp_malloc_pool
.LVL22:
.L17:
.LM106:
	li	a0,0
.LVL23:
.LM107:
	ret
	.cfi_endproc
.LFE55:
	.size	memp_malloc, .-memp_malloc
	.section	.text.memp_free_pool,"ax",@progbits
	.align	1
	.globl	memp_free_pool
	.type	memp_free_pool, @function
memp_free_pool:
.LVL24:
.LFB57:
.LM108:
	.cfi_startproc
.LM109:
.LM110:
.LM111:
.LM112:
	beq	a1,zero,.L18
	beq	a0,zero,.L18
.LM113:
	addi	sp,sp,-16
	.cfi_def_cfa_offset 16
	sw	s0,8(sp)
	sw	s1,4(sp)
	sw	ra,12(sp)
	.cfi_offset 8, -8
	.cfi_offset 9, -12
	.cfi_offset 1, -4
	mv	s0,a0
.LM114:
.LVL25:
.LM115:
	mv	s1,a1
.LVL26:
.LBB4:
.LBI4:
.LM116:
.LBB5:
.LM117:
.LM118:
.LM119:
.LM120:
.LM121:
.LM122:
.LM123:
	call	sys_arch_protect
.LVL27:
.LM124:
.LM125:
	lw	a4,0(s0)
.LM126:
	lhu	a5,4(a4)
	addi	a5,a5,-1
	sh	a5,4(a4)
.LM127:
.LM128:
	lw	a5,12(s0)
	lw	a5,0(a5)
.LM129:
	sw	a5,0(s1)
.LM130:
.LM131:
	lw	a5,12(s0)
.LM132:
	sw	s1,0(a5)
.LM133:
.LBE5:
.LBE4:
.LM134:
	lw	s0,8(sp)
	.cfi_restore 8
.LVL28:
.LM135:
	lw	ra,12(sp)
	.cfi_restore 1
	lw	s1,4(sp)
	.cfi_restore 9
.LVL29:
.LM136:
	addi	sp,sp,16
	.cfi_def_cfa_offset 0
.LBB7:
.LBB6:
.LM137:
	tail	sys_arch_unprotect
.LVL30:
.L18:
.LM138:
	ret
.LBE6:
.LBE7:
	.cfi_endproc
.LFE57:
	.size	memp_free_pool, .-memp_free_pool
	.section	.text.memp_free,"ax",@progbits
	.align	1
	.globl	memp_free
	.type	memp_free, @function
memp_free:
.LVL31:
.LFB58:
.LM139:
	.cfi_startproc
.LM140:
.LM141:
.LM142:
.LM143:
.LM144:
.LM145:
	beq	a1,zero,.L23
.LM146:
	sltiu	a5,a0,33
.LM147:
	beq	a5,zero,.L23
.LM148:
	lui	a5,%hi(memp_pools)
	slli	a0,a0,2
.LVL32:
.LM149:
	addi	a5,a5,%lo(memp_pools)
.LM150:
	addi	sp,sp,-16
	.cfi_def_cfa_offset 16
.LM151:
	add	a5,a5,a0
.LM152:
	sw	s1,4(sp)
	.cfi_offset 9, -12
.LM153:
	lw	s1,0(a5)
.LM154:
	sw	s0,8(sp)
	sw	ra,12(sp)
	.cfi_offset 8, -8
	.cfi_offset 1, -4
	mv	s0,a1
.LM155:
.LVL33:
.LBB10:
.LBI10:
.LM156:
.LBB11:
.LM157:
.LM158:
.LM159:
.LM160:
.LM161:
.LM162:
.LM163:
	call	sys_arch_protect
.LVL34:
.LM164:
.LM165:
	lw	a4,0(s1)
.LM166:
	lhu	a5,4(a4)
	addi	a5,a5,-1
	sh	a5,4(a4)
.LM167:
.LM168:
	lw	a5,12(s1)
	lw	a5,0(a5)
.LM169:
	sw	a5,0(s0)
.LM170:
.LM171:
	lw	a5,12(s1)
.LM172:
	sw	s0,0(a5)
.LM173:
.LBE11:
.LBE10:
.LM174:
	lw	s0,8(sp)
	.cfi_restore 8
.LVL35:
.LM175:
	lw	ra,12(sp)
	.cfi_restore 1
	lw	s1,4(sp)
	.cfi_restore 9
.LVL36:
.LM176:
	addi	sp,sp,16
	.cfi_def_cfa_offset 0
.LBB13:
.LBB12:
.LM177:
	tail	sys_arch_unprotect
.LVL37:
.L23:
.LM178:
	ret
.LBE12:
.LBE13:
	.cfi_endproc
.LFE58:
	.size	memp_free, .-memp_free
	.globl	memp_pools
	.section	.rodata.memp_pools,"a"
	.align	2
	.type	memp_pools, @object
	.size	memp_pools, 132
memp_pools:
	.word	memp_RAW_PCB
	.word	memp_UDP_PCB
	.word	memp_TCP_PCB
	.word	memp_TCP_PCB_LISTEN
	.word	memp_TCP_SEG
	.word	memp_ALTCP_PCB
	.word	memp_NETBUF
	.word	memp_NETCONN
	.word	memp_TCPIP_MSG_API
	.word	memp_TCPIP_MSG_INPKT
	.word	memp_IGMP_GROUP
	.word	memp_SYS_TIMEOUT
	.word	memp_NETDB
	.word	memp_PBUF
	.word	memp_PBUF_POOL
	.word	memp_COAP_CONTEXT
	.word	memp_COAP_ENDPOINT
	.word	memp_COAP_PACKET
	.word	memp_COAP_NODE
	.word	memp_COAP_PDU
	.word	memp_COAP_SESSION
	.word	memp_COAP_SUBSCRIPTION
	.word	memp_COAP_RESOURCE
	.word	memp_COAP_RESOURCEATTR
	.word	memp_COAP_OPTLIST
	.word	memp_COAP_STRING
	.word	memp_COAP_CACHE_KEY
	.word	memp_COAP_CACHE_ENTRY
	.word	memp_COAP_PDU_BUF
	.word	memp_COAP_LG_XMIT
	.word	memp_COAP_LG_CRCV
	.word	memp_COAP_LG_SRCV
	.word	memp_COAP_DIGEST_CTX
	.globl	memp_COAP_DIGEST_CTX
	.section	.rodata.memp_COAP_DIGEST_CTX,"a"
	.align	2
	.type	memp_COAP_DIGEST_CTX, @object
	.size	memp_COAP_DIGEST_CTX, 16
memp_COAP_DIGEST_CTX:
	.word	memp_stats_COAP_DIGEST_CTX
	.half	36
	.half	4
	.word	memp_memory_COAP_DIGEST_CTX_base
	.word	memp_tab_COAP_DIGEST_CTX
	.section	.sbss.memp_tab_COAP_DIGEST_CTX,"aw",@nobits
	.align	2
	.type	memp_tab_COAP_DIGEST_CTX, @object
	.size	memp_tab_COAP_DIGEST_CTX, 4
memp_tab_COAP_DIGEST_CTX:
	.zero	4
	.section	.bss.memp_stats_COAP_DIGEST_CTX,"aw",@nobits
	.align	2
	.type	memp_stats_COAP_DIGEST_CTX, @object
	.size	memp_stats_COAP_DIGEST_CTX, 10
memp_stats_COAP_DIGEST_CTX:
	.zero	10
	.globl	memp_memory_COAP_DIGEST_CTX_base
	.section	.wifi_ram,"aw"
	.align	2
	.type	memp_memory_COAP_DIGEST_CTX_base, @object
	.size	memp_memory_COAP_DIGEST_CTX_base, 147
memp_memory_COAP_DIGEST_CTX_base:
	.zero	147
	.globl	memp_COAP_LG_SRCV
	.section	.rodata.memp_COAP_LG_SRCV,"a"
	.align	2
	.type	memp_COAP_LG_SRCV, @object
	.size	memp_COAP_LG_SRCV, 16
memp_COAP_LG_SRCV:
	.word	memp_stats_COAP_LG_SRCV
	.half	104
	.half	2
	.word	memp_memory_COAP_LG_SRCV_base
	.word	memp_tab_COAP_LG_SRCV
	.section	.sbss.memp_tab_COAP_LG_SRCV,"aw",@nobits
	.align	2
	.type	memp_tab_COAP_LG_SRCV, @object
	.size	memp_tab_COAP_LG_SRCV, 4
memp_tab_COAP_LG_SRCV:
	.zero	4
	.section	.bss.memp_stats_COAP_LG_SRCV,"aw",@nobits
	.align	2
	.type	memp_stats_COAP_LG_SRCV, @object
	.size	memp_stats_COAP_LG_SRCV, 10
memp_stats_COAP_LG_SRCV:
	.zero	10
	.globl	memp_memory_COAP_LG_SRCV_base
	.section	.wifi_ram
	.align	2
	.type	memp_memory_COAP_LG_SRCV_base, @object
	.size	memp_memory_COAP_LG_SRCV_base, 211
memp_memory_COAP_LG_SRCV_base:
	.zero	211
	.globl	memp_COAP_LG_CRCV
	.section	.rodata.memp_COAP_LG_CRCV,"a"
	.align	2
	.type	memp_COAP_LG_CRCV, @object
	.size	memp_COAP_LG_CRCV, 16
memp_COAP_LG_CRCV:
	.word	memp_stats_COAP_LG_CRCV
	.half	136
	.half	2
	.word	memp_memory_COAP_LG_CRCV_base
	.word	memp_tab_COAP_LG_CRCV
	.section	.sbss.memp_tab_COAP_LG_CRCV,"aw",@nobits
	.align	2
	.type	memp_tab_COAP_LG_CRCV, @object
	.size	memp_tab_COAP_LG_CRCV, 4
memp_tab_COAP_LG_CRCV:
	.zero	4
	.section	.bss.memp_stats_COAP_LG_CRCV,"aw",@nobits
	.align	2
	.type	memp_stats_COAP_LG_CRCV, @object
	.size	memp_stats_COAP_LG_CRCV, 10
memp_stats_COAP_LG_CRCV:
	.zero	10
	.globl	memp_memory_COAP_LG_CRCV_base
	.section	.wifi_ram
	.align	2
	.type	memp_memory_COAP_LG_CRCV_base, @object
	.size	memp_memory_COAP_LG_CRCV_base, 275
memp_memory_COAP_LG_CRCV_base:
	.zero	275
	.globl	memp_COAP_LG_XMIT
	.section	.rodata.memp_COAP_LG_XMIT,"a"
	.align	2
	.type	memp_COAP_LG_XMIT, @object
	.size	memp_COAP_LG_XMIT, 16
memp_COAP_LG_XMIT:
	.word	memp_stats_COAP_LG_XMIT
	.half	80
	.half	2
	.word	memp_memory_COAP_LG_XMIT_base
	.word	memp_tab_COAP_LG_XMIT
	.section	.sbss.memp_tab_COAP_LG_XMIT,"aw",@nobits
	.align	2
	.type	memp_tab_COAP_LG_XMIT, @object
	.size	memp_tab_COAP_LG_XMIT, 4
memp_tab_COAP_LG_XMIT:
	.zero	4
	.section	.bss.memp_stats_COAP_LG_XMIT,"aw",@nobits
	.align	2
	.type	memp_stats_COAP_LG_XMIT, @object
	.size	memp_stats_COAP_LG_XMIT, 10
memp_stats_COAP_LG_XMIT:
	.zero	10
	.globl	memp_memory_COAP_LG_XMIT_base
	.section	.wifi_ram
	.align	2
	.type	memp_memory_COAP_LG_XMIT_base, @object
	.size	memp_memory_COAP_LG_XMIT_base, 163
memp_memory_COAP_LG_XMIT_base:
	.zero	163
	.globl	memp_COAP_PDU_BUF
	.section	.rodata.memp_COAP_PDU_BUF,"a"
	.align	2
	.type	memp_COAP_PDU_BUF, @object
	.size	memp_COAP_PDU_BUF, 16
memp_COAP_PDU_BUF:
	.word	memp_stats_COAP_PDU_BUF
	.half	400
	.half	2
	.word	memp_memory_COAP_PDU_BUF_base
	.word	memp_tab_COAP_PDU_BUF
	.section	.sbss.memp_tab_COAP_PDU_BUF,"aw",@nobits
	.align	2
	.type	memp_tab_COAP_PDU_BUF, @object
	.size	memp_tab_COAP_PDU_BUF, 4
memp_tab_COAP_PDU_BUF:
	.zero	4
	.section	.bss.memp_stats_COAP_PDU_BUF,"aw",@nobits
	.align	2
	.type	memp_stats_COAP_PDU_BUF, @object
	.size	memp_stats_COAP_PDU_BUF, 10
memp_stats_COAP_PDU_BUF:
	.zero	10
	.globl	memp_memory_COAP_PDU_BUF_base
	.section	.wifi_ram
	.align	2
	.type	memp_memory_COAP_PDU_BUF_base, @object
	.size	memp_memory_COAP_PDU_BUF_base, 803
memp_memory_COAP_PDU_BUF_base:
	.zero	803
	.globl	memp_COAP_CACHE_ENTRY
	.section	.rodata.memp_COAP_CACHE_ENTRY,"a"
	.align	2
	.type	memp_COAP_CACHE_ENTRY, @object
	.size	memp_COAP_CACHE_ENTRY, 16
memp_COAP_CACHE_ENTRY:
	.word	memp_stats_COAP_CACHE_ENTRY
	.half	60
	.half	2
	.word	memp_memory_COAP_CACHE_ENTRY_base
	.word	memp_tab_COAP_CACHE_ENTRY
	.section	.sbss.memp_tab_COAP_CACHE_ENTRY,"aw",@nobits
	.align	2
	.type	memp_tab_COAP_CACHE_ENTRY, @object
	.size	memp_tab_COAP_CACHE_ENTRY, 4
memp_tab_COAP_CACHE_ENTRY:
	.zero	4
	.section	.bss.memp_stats_COAP_CACHE_ENTRY,"aw",@nobits
	.align	2
	.type	memp_stats_COAP_CACHE_ENTRY, @object
	.size	memp_stats_COAP_CACHE_ENTRY, 10
memp_stats_COAP_CACHE_ENTRY:
	.zero	10
	.globl	memp_memory_COAP_CACHE_ENTRY_base
	.section	.wifi_ram
	.align	2
	.type	memp_memory_COAP_CACHE_ENTRY_base, @object
	.size	memp_memory_COAP_CACHE_ENTRY_base, 123
memp_memory_COAP_CACHE_ENTRY_base:
	.zero	123
	.globl	memp_COAP_CACHE_KEY
	.section	.rodata.memp_COAP_CACHE_KEY,"a"
	.align	2
	.type	memp_COAP_CACHE_KEY, @object
	.size	memp_COAP_CACHE_KEY, 16
memp_COAP_CACHE_KEY:
	.word	memp_stats_COAP_CACHE_KEY
	.half	32
	.half	2
	.word	memp_memory_COAP_CACHE_KEY_base
	.word	memp_tab_COAP_CACHE_KEY
	.section	.sbss.memp_tab_COAP_CACHE_KEY,"aw",@nobits
	.align	2
	.type	memp_tab_COAP_CACHE_KEY, @object
	.size	memp_tab_COAP_CACHE_KEY, 4
memp_tab_COAP_CACHE_KEY:
	.zero	4
	.section	.bss.memp_stats_COAP_CACHE_KEY,"aw",@nobits
	.align	2
	.type	memp_stats_COAP_CACHE_KEY, @object
	.size	memp_stats_COAP_CACHE_KEY, 10
memp_stats_COAP_CACHE_KEY:
	.zero	10
	.globl	memp_memory_COAP_CACHE_KEY_base
	.section	.wifi_ram
	.align	2
	.type	memp_memory_COAP_CACHE_KEY_base, @object
	.size	memp_memory_COAP_CACHE_KEY_base, 67
memp_memory_COAP_CACHE_KEY_base:
	.zero	67
	.globl	memp_COAP_STRING
	.section	.rodata.memp_COAP_STRING,"a"
	.align	2
	.type	memp_COAP_STRING, @object
	.size	memp_COAP_STRING, 16
memp_COAP_STRING:
	.word	memp_stats_COAP_STRING
	.half	184
	.half	12
	.word	memp_memory_COAP_STRING_base
	.word	memp_tab_COAP_STRING
	.section	.sbss.memp_tab_COAP_STRING,"aw",@nobits
	.align	2
	.type	memp_tab_COAP_STRING, @object
	.size	memp_tab_COAP_STRING, 4
memp_tab_COAP_STRING:
	.zero	4
	.section	.bss.memp_stats_COAP_STRING,"aw",@nobits
	.align	2
	.type	memp_stats_COAP_STRING, @object
	.size	memp_stats_COAP_STRING, 10
memp_stats_COAP_STRING:
	.zero	10
	.globl	memp_memory_COAP_STRING_base
	.section	.wifi_ram
	.align	2
	.type	memp_memory_COAP_STRING_base, @object
	.size	memp_memory_COAP_STRING_base, 2211
memp_memory_COAP_STRING_base:
	.zero	2211
	.globl	memp_COAP_OPTLIST
	.section	.rodata.memp_COAP_OPTLIST,"a"
	.align	2
	.type	memp_COAP_OPTLIST, @object
	.size	memp_COAP_OPTLIST, 16
memp_COAP_OPTLIST:
	.word	memp_stats_COAP_OPTLIST
	.half	28
	.half	5
	.word	memp_memory_COAP_OPTLIST_base
	.word	memp_tab_COAP_OPTLIST
	.section	.sbss.memp_tab_COAP_OPTLIST,"aw",@nobits
	.align	2
	.type	memp_tab_COAP_OPTLIST, @object
	.size	memp_tab_COAP_OPTLIST, 4
memp_tab_COAP_OPTLIST:
	.zero	4
	.section	.bss.memp_stats_COAP_OPTLIST,"aw",@nobits
	.align	2
	.type	memp_stats_COAP_OPTLIST, @object
	.size	memp_stats_COAP_OPTLIST, 10
memp_stats_COAP_OPTLIST:
	.zero	10
	.globl	memp_memory_COAP_OPTLIST_base
	.section	.wifi_ram
	.align	2
	.type	memp_memory_COAP_OPTLIST_base, @object
	.size	memp_memory_COAP_OPTLIST_base, 143
memp_memory_COAP_OPTLIST_base:
	.zero	143
	.globl	memp_COAP_RESOURCEATTR
	.section	.rodata.memp_COAP_RESOURCEATTR,"a"
	.align	2
	.type	memp_COAP_RESOURCEATTR, @object
	.size	memp_COAP_RESOURCEATTR, 16
memp_COAP_RESOURCEATTR:
	.word	memp_stats_COAP_RESOURCEATTR
	.half	16
	.half	20
	.word	memp_memory_COAP_RESOURCEATTR_base
	.word	memp_tab_COAP_RESOURCEATTR
	.section	.sbss.memp_tab_COAP_RESOURCEATTR,"aw",@nobits
	.align	2
	.type	memp_tab_COAP_RESOURCEATTR, @object
	.size	memp_tab_COAP_RESOURCEATTR, 4
memp_tab_COAP_RESOURCEATTR:
	.zero	4
	.section	.bss.memp_stats_COAP_RESOURCEATTR,"aw",@nobits
	.align	2
	.type	memp_stats_COAP_RESOURCEATTR, @object
	.size	memp_stats_COAP_RESOURCEATTR, 10
memp_stats_COAP_RESOURCEATTR:
	.zero	10
	.globl	memp_memory_COAP_RESOURCEATTR_base
	.section	.wifi_ram
	.align	2
	.type	memp_memory_COAP_RESOURCEATTR_base, @object
	.size	memp_memory_COAP_RESOURCEATTR_base, 323
memp_memory_COAP_RESOURCEATTR_base:
	.zero	323
	.globl	memp_COAP_RESOURCE
	.section	.rodata.memp_COAP_RESOURCE,"a"
	.align	2
	.type	memp_COAP_RESOURCE, @object
	.size	memp_COAP_RESOURCE, 16
memp_COAP_RESOURCE:
	.word	memp_stats_COAP_RESOURCE
	.half	104
	.half	10
	.word	memp_memory_COAP_RESOURCE_base
	.word	memp_tab_COAP_RESOURCE
	.section	.sbss.memp_tab_COAP_RESOURCE,"aw",@nobits
	.align	2
	.type	memp_tab_COAP_RESOURCE, @object
	.size	memp_tab_COAP_RESOURCE, 4
memp_tab_COAP_RESOURCE:
	.zero	4
	.section	.bss.memp_stats_COAP_RESOURCE,"aw",@nobits
	.align	2
	.type	memp_stats_COAP_RESOURCE, @object
	.size	memp_stats_COAP_RESOURCE, 10
memp_stats_COAP_RESOURCE:
	.zero	10
	.globl	memp_memory_COAP_RESOURCE_base
	.section	.wifi_ram
	.align	2
	.type	memp_memory_COAP_RESOURCE_base, @object
	.size	memp_memory_COAP_RESOURCE_base, 1043
memp_memory_COAP_RESOURCE_base:
	.zero	1043
	.globl	memp_COAP_SUBSCRIPTION
	.section	.rodata.memp_COAP_SUBSCRIPTION,"a"
	.align	2
	.type	memp_COAP_SUBSCRIPTION, @object
	.size	memp_COAP_SUBSCRIPTION, 16
memp_COAP_SUBSCRIPTION:
	.word	memp_stats_COAP_SUBSCRIPTION
	.half	20
	.half	4
	.word	memp_memory_COAP_SUBSCRIPTION_base
	.word	memp_tab_COAP_SUBSCRIPTION
	.section	.sbss.memp_tab_COAP_SUBSCRIPTION,"aw",@nobits
	.align	2
	.type	memp_tab_COAP_SUBSCRIPTION, @object
	.size	memp_tab_COAP_SUBSCRIPTION, 4
memp_tab_COAP_SUBSCRIPTION:
	.zero	4
	.section	.bss.memp_stats_COAP_SUBSCRIPTION,"aw",@nobits
	.align	2
	.type	memp_stats_COAP_SUBSCRIPTION, @object
	.size	memp_stats_COAP_SUBSCRIPTION, 10
memp_stats_COAP_SUBSCRIPTION:
	.zero	10
	.globl	memp_memory_COAP_SUBSCRIPTION_base
	.section	.wifi_ram
	.align	2
	.type	memp_memory_COAP_SUBSCRIPTION_base, @object
	.size	memp_memory_COAP_SUBSCRIPTION_base, 83
memp_memory_COAP_SUBSCRIPTION_base:
	.zero	83
	.globl	memp_COAP_SESSION
	.section	.rodata.memp_COAP_SESSION,"a"
	.align	2
	.type	memp_COAP_SESSION, @object
	.size	memp_COAP_SESSION, 16
memp_COAP_SESSION:
	.word	memp_stats_COAP_SESSION
	.half	448
	.half	2
	.word	memp_memory_COAP_SESSION_base
	.word	memp_tab_COAP_SESSION
	.section	.sbss.memp_tab_COAP_SESSION,"aw",@nobits
	.align	2
	.type	memp_tab_COAP_SESSION, @object
	.size	memp_tab_COAP_SESSION, 4
memp_tab_COAP_SESSION:
	.zero	4
	.section	.bss.memp_stats_COAP_SESSION,"aw",@nobits
	.align	2
	.type	memp_stats_COAP_SESSION, @object
	.size	memp_stats_COAP_SESSION, 10
memp_stats_COAP_SESSION:
	.zero	10
	.globl	memp_memory_COAP_SESSION_base
	.section	.wifi_ram
	.align	2
	.type	memp_memory_COAP_SESSION_base, @object
	.size	memp_memory_COAP_SESSION_base, 899
memp_memory_COAP_SESSION_base:
	.zero	899
	.globl	memp_COAP_PDU
	.section	.rodata.memp_COAP_PDU,"a"
	.align	2
	.type	memp_COAP_PDU, @object
	.size	memp_COAP_PDU, 16
memp_COAP_PDU:
	.word	memp_stats_COAP_PDU
	.half	84
	.half	5
	.word	memp_memory_COAP_PDU_base
	.word	memp_tab_COAP_PDU
	.section	.sbss.memp_tab_COAP_PDU,"aw",@nobits
	.align	2
	.type	memp_tab_COAP_PDU, @object
	.size	memp_tab_COAP_PDU, 4
memp_tab_COAP_PDU:
	.zero	4
	.section	.bss.memp_stats_COAP_PDU,"aw",@nobits
	.align	2
	.type	memp_stats_COAP_PDU, @object
	.size	memp_stats_COAP_PDU, 10
memp_stats_COAP_PDU:
	.zero	10
	.globl	memp_memory_COAP_PDU_base
	.section	.wifi_ram
	.align	2
	.type	memp_memory_COAP_PDU_base, @object
	.size	memp_memory_COAP_PDU_base, 423
memp_memory_COAP_PDU_base:
	.zero	423
	.globl	memp_COAP_NODE
	.section	.rodata.memp_COAP_NODE,"a"
	.align	2
	.type	memp_COAP_NODE, @object
	.size	memp_COAP_NODE, 16
memp_COAP_NODE:
	.word	memp_stats_COAP_NODE
	.half	36
	.half	5
	.word	memp_memory_COAP_NODE_base
	.word	memp_tab_COAP_NODE
	.section	.sbss.memp_tab_COAP_NODE,"aw",@nobits
	.align	2
	.type	memp_tab_COAP_NODE, @object
	.size	memp_tab_COAP_NODE, 4
memp_tab_COAP_NODE:
	.zero	4
	.section	.bss.memp_stats_COAP_NODE,"aw",@nobits
	.align	2
	.type	memp_stats_COAP_NODE, @object
	.size	memp_stats_COAP_NODE, 10
memp_stats_COAP_NODE:
	.zero	10
	.globl	memp_memory_COAP_NODE_base
	.section	.wifi_ram
	.align	2
	.type	memp_memory_COAP_NODE_base, @object
	.size	memp_memory_COAP_NODE_base, 183
memp_memory_COAP_NODE_base:
	.zero	183
	.globl	memp_COAP_PACKET
	.section	.rodata.memp_COAP_PACKET,"a"
	.align	2
	.type	memp_COAP_PACKET, @object
	.size	memp_COAP_PACKET, 16
memp_COAP_PACKET:
	.word	memp_stats_COAP_PACKET
	.half	28
	.half	1
	.word	memp_memory_COAP_PACKET_base
	.word	memp_tab_COAP_PACKET
	.section	.sbss.memp_tab_COAP_PACKET,"aw",@nobits
	.align	2
	.type	memp_tab_COAP_PACKET, @object
	.size	memp_tab_COAP_PACKET, 4
memp_tab_COAP_PACKET:
	.zero	4
	.section	.bss.memp_stats_COAP_PACKET,"aw",@nobits
	.align	2
	.type	memp_stats_COAP_PACKET, @object
	.size	memp_stats_COAP_PACKET, 10
memp_stats_COAP_PACKET:
	.zero	10
	.globl	memp_memory_COAP_PACKET_base
	.section	.wifi_ram
	.align	2
	.type	memp_memory_COAP_PACKET_base, @object
	.size	memp_memory_COAP_PACKET_base, 31
memp_memory_COAP_PACKET_base:
	.zero	31
	.globl	memp_COAP_ENDPOINT
	.section	.rodata.memp_COAP_ENDPOINT,"a"
	.align	2
	.type	memp_COAP_ENDPOINT, @object
	.size	memp_COAP_ENDPOINT, 16
memp_COAP_ENDPOINT:
	.word	memp_stats_COAP_ENDPOINT
	.half	108
	.half	2
	.word	memp_memory_COAP_ENDPOINT_base
	.word	memp_tab_COAP_ENDPOINT
	.section	.sbss.memp_tab_COAP_ENDPOINT,"aw",@nobits
	.align	2
	.type	memp_tab_COAP_ENDPOINT, @object
	.size	memp_tab_COAP_ENDPOINT, 4
memp_tab_COAP_ENDPOINT:
	.zero	4
	.section	.bss.memp_stats_COAP_ENDPOINT,"aw",@nobits
	.align	2
	.type	memp_stats_COAP_ENDPOINT, @object
	.size	memp_stats_COAP_ENDPOINT, 10
memp_stats_COAP_ENDPOINT:
	.zero	10
	.globl	memp_memory_COAP_ENDPOINT_base
	.section	.wifi_ram
	.align	2
	.type	memp_memory_COAP_ENDPOINT_base, @object
	.size	memp_memory_COAP_ENDPOINT_base, 219
memp_memory_COAP_ENDPOINT_base:
	.zero	219
	.globl	memp_COAP_CONTEXT
	.section	.rodata.memp_COAP_CONTEXT,"a"
	.align	2
	.type	memp_COAP_CONTEXT, @object
	.size	memp_COAP_CONTEXT, 16
memp_COAP_CONTEXT:
	.word	memp_stats_COAP_CONTEXT
	.half	228
	.half	1
	.word	memp_memory_COAP_CONTEXT_base
	.word	memp_tab_COAP_CONTEXT
	.section	.sbss.memp_tab_COAP_CONTEXT,"aw",@nobits
	.align	2
	.type	memp_tab_COAP_CONTEXT, @object
	.size	memp_tab_COAP_CONTEXT, 4
memp_tab_COAP_CONTEXT:
	.zero	4
	.section	.bss.memp_stats_COAP_CONTEXT,"aw",@nobits
	.align	2
	.type	memp_stats_COAP_CONTEXT, @object
	.size	memp_stats_COAP_CONTEXT, 10
memp_stats_COAP_CONTEXT:
	.zero	10
	.globl	memp_memory_COAP_CONTEXT_base
	.section	.wifi_ram
	.align	2
	.type	memp_memory_COAP_CONTEXT_base, @object
	.size	memp_memory_COAP_CONTEXT_base, 231
memp_memory_COAP_CONTEXT_base:
	.zero	231
	.globl	memp_PBUF_POOL
	.section	.rodata.memp_PBUF_POOL,"a"
	.align	2
	.type	memp_PBUF_POOL, @object
	.size	memp_PBUF_POOL, 16
memp_PBUF_POOL:
	.word	memp_stats_PBUF_POOL
	.half	776
	.half	0
	.word	memp_memory_PBUF_POOL_base
	.word	memp_tab_PBUF_POOL
	.section	.sbss.memp_tab_PBUF_POOL,"aw",@nobits
	.align	2
	.type	memp_tab_PBUF_POOL, @object
	.size	memp_tab_PBUF_POOL, 4
memp_tab_PBUF_POOL:
	.zero	4
	.section	.bss.memp_stats_PBUF_POOL,"aw",@nobits
	.align	2
	.type	memp_stats_PBUF_POOL, @object
	.size	memp_stats_PBUF_POOL, 10
memp_stats_PBUF_POOL:
	.zero	10
	.globl	memp_memory_PBUF_POOL_base
	.section	.wifi_ram
	.align	2
	.type	memp_memory_PBUF_POOL_base, @object
	.size	memp_memory_PBUF_POOL_base, 3
memp_memory_PBUF_POOL_base:
	.zero	3
	.globl	memp_PBUF
	.section	.rodata.memp_PBUF,"a"
	.align	2
	.type	memp_PBUF, @object
	.size	memp_PBUF, 16
memp_PBUF:
	.word	memp_stats_PBUF
	.half	16
	.half	16
	.word	memp_memory_PBUF_base
	.word	memp_tab_PBUF
	.section	.sbss.memp_tab_PBUF,"aw",@nobits
	.align	2
	.type	memp_tab_PBUF, @object
	.size	memp_tab_PBUF, 4
memp_tab_PBUF:
	.zero	4
	.section	.bss.memp_stats_PBUF,"aw",@nobits
	.align	2
	.type	memp_stats_PBUF, @object
	.size	memp_stats_PBUF, 10
memp_stats_PBUF:
	.zero	10
	.globl	memp_memory_PBUF_base
	.section	.wifi_ram
	.align	2
	.type	memp_memory_PBUF_base, @object
	.size	memp_memory_PBUF_base, 259
memp_memory_PBUF_base:
	.zero	259
	.globl	memp_NETDB
	.section	.rodata.memp_NETDB,"a"
	.align	2
	.type	memp_NETDB, @object
	.size	memp_NETDB, 16
memp_NETDB:
	.word	memp_stats_NETDB
	.half	308
	.half	1
	.word	memp_memory_NETDB_base
	.word	memp_tab_NETDB
	.section	.sbss.memp_tab_NETDB,"aw",@nobits
	.align	2
	.type	memp_tab_NETDB, @object
	.size	memp_tab_NETDB, 4
memp_tab_NETDB:
	.zero	4
	.section	.bss.memp_stats_NETDB,"aw",@nobits
	.align	2
	.type	memp_stats_NETDB, @object
	.size	memp_stats_NETDB, 10
memp_stats_NETDB:
	.zero	10
	.globl	memp_memory_NETDB_base
	.section	.wifi_ram
	.align	2
	.type	memp_memory_NETDB_base, @object
	.size	memp_memory_NETDB_base, 311
memp_memory_NETDB_base:
	.zero	311
	.globl	memp_SYS_TIMEOUT
	.section	.rodata.memp_SYS_TIMEOUT,"a"
	.align	2
	.type	memp_SYS_TIMEOUT, @object
	.size	memp_SYS_TIMEOUT, 16
memp_SYS_TIMEOUT:
	.word	memp_stats_SYS_TIMEOUT
	.half	16
	.half	18
	.word	memp_memory_SYS_TIMEOUT_base
	.word	memp_tab_SYS_TIMEOUT
	.section	.sbss.memp_tab_SYS_TIMEOUT,"aw",@nobits
	.align	2
	.type	memp_tab_SYS_TIMEOUT, @object
	.size	memp_tab_SYS_TIMEOUT, 4
memp_tab_SYS_TIMEOUT:
	.zero	4
	.section	.bss.memp_stats_SYS_TIMEOUT,"aw",@nobits
	.align	2
	.type	memp_stats_SYS_TIMEOUT, @object
	.size	memp_stats_SYS_TIMEOUT, 10
memp_stats_SYS_TIMEOUT:
	.zero	10
	.globl	memp_memory_SYS_TIMEOUT_base
	.section	.wifi_ram
	.align	2
	.type	memp_memory_SYS_TIMEOUT_base, @object
	.size	memp_memory_SYS_TIMEOUT_base, 291
memp_memory_SYS_TIMEOUT_base:
	.zero	291
	.globl	memp_IGMP_GROUP
	.section	.rodata.memp_IGMP_GROUP,"a"
	.align	2
	.type	memp_IGMP_GROUP, @object
	.size	memp_IGMP_GROUP, 16
memp_IGMP_GROUP:
	.word	memp_stats_IGMP_GROUP
	.half	16
	.half	8
	.word	memp_memory_IGMP_GROUP_base
	.word	memp_tab_IGMP_GROUP
	.section	.sbss.memp_tab_IGMP_GROUP,"aw",@nobits
	.align	2
	.type	memp_tab_IGMP_GROUP, @object
	.size	memp_tab_IGMP_GROUP, 4
memp_tab_IGMP_GROUP:
	.zero	4
	.section	.bss.memp_stats_IGMP_GROUP,"aw",@nobits
	.align	2
	.type	memp_stats_IGMP_GROUP, @object
	.size	memp_stats_IGMP_GROUP, 10
memp_stats_IGMP_GROUP:
	.zero	10
	.globl	memp_memory_IGMP_GROUP_base
	.section	.wifi_ram
	.align	2
	.type	memp_memory_IGMP_GROUP_base, @object
	.size	memp_memory_IGMP_GROUP_base, 131
memp_memory_IGMP_GROUP_base:
	.zero	131
	.globl	memp_TCPIP_MSG_INPKT
	.section	.rodata.memp_TCPIP_MSG_INPKT,"a"
	.align	2
	.type	memp_TCPIP_MSG_INPKT, @object
	.size	memp_TCPIP_MSG_INPKT, 16
memp_TCPIP_MSG_INPKT:
	.word	memp_stats_TCPIP_MSG_INPKT
	.half	16
	.half	8
	.word	memp_memory_TCPIP_MSG_INPKT_base
	.word	memp_tab_TCPIP_MSG_INPKT
	.section	.sbss.memp_tab_TCPIP_MSG_INPKT,"aw",@nobits
	.align	2
	.type	memp_tab_TCPIP_MSG_INPKT, @object
	.size	memp_tab_TCPIP_MSG_INPKT, 4
memp_tab_TCPIP_MSG_INPKT:
	.zero	4
	.section	.bss.memp_stats_TCPIP_MSG_INPKT,"aw",@nobits
	.align	2
	.type	memp_stats_TCPIP_MSG_INPKT, @object
	.size	memp_stats_TCPIP_MSG_INPKT, 10
memp_stats_TCPIP_MSG_INPKT:
	.zero	10
	.globl	memp_memory_TCPIP_MSG_INPKT_base
	.section	.wifi_ram
	.align	2
	.type	memp_memory_TCPIP_MSG_INPKT_base, @object
	.size	memp_memory_TCPIP_MSG_INPKT_base, 131
memp_memory_TCPIP_MSG_INPKT_base:
	.zero	131
	.globl	memp_TCPIP_MSG_API
	.section	.rodata.memp_TCPIP_MSG_API,"a"
	.align	2
	.type	memp_TCPIP_MSG_API, @object
	.size	memp_TCPIP_MSG_API, 16
memp_TCPIP_MSG_API:
	.word	memp_stats_TCPIP_MSG_API
	.half	16
	.half	8
	.word	memp_memory_TCPIP_MSG_API_base
	.word	memp_tab_TCPIP_MSG_API
	.section	.sbss.memp_tab_TCPIP_MSG_API,"aw",@nobits
	.align	2
	.type	memp_tab_TCPIP_MSG_API, @object
	.size	memp_tab_TCPIP_MSG_API, 4
memp_tab_TCPIP_MSG_API:
	.zero	4
	.section	.bss.memp_stats_TCPIP_MSG_API,"aw",@nobits
	.align	2
	.type	memp_stats_TCPIP_MSG_API, @object
	.size	memp_stats_TCPIP_MSG_API, 10
memp_stats_TCPIP_MSG_API:
	.zero	10
	.globl	memp_memory_TCPIP_MSG_API_base
	.section	.wifi_ram
	.align	2
	.type	memp_memory_TCPIP_MSG_API_base, @object
	.size	memp_memory_TCPIP_MSG_API_base, 131
memp_memory_TCPIP_MSG_API_base:
	.zero	131
	.globl	memp_NETCONN
	.section	.rodata.memp_NETCONN,"a"
	.align	2
	.type	memp_NETCONN, @object
	.size	memp_NETCONN, 16
memp_NETCONN:
	.word	memp_stats_NETCONN
	.half	48
	.half	16
	.word	memp_memory_NETCONN_base
	.word	memp_tab_NETCONN
	.section	.sbss.memp_tab_NETCONN,"aw",@nobits
	.align	2
	.type	memp_tab_NETCONN, @object
	.size	memp_tab_NETCONN, 4
memp_tab_NETCONN:
	.zero	4
	.section	.bss.memp_stats_NETCONN,"aw",@nobits
	.align	2
	.type	memp_stats_NETCONN, @object
	.size	memp_stats_NETCONN, 10
memp_stats_NETCONN:
	.zero	10
	.globl	memp_memory_NETCONN_base
	.section	.wifi_ram
	.align	2
	.type	memp_memory_NETCONN_base, @object
	.size	memp_memory_NETCONN_base, 771
memp_memory_NETCONN_base:
	.zero	771
	.globl	memp_NETBUF
	.section	.rodata.memp_NETBUF,"a"
	.align	2
	.type	memp_NETBUF, @object
	.size	memp_NETBUF, 16
memp_NETBUF:
	.word	memp_stats_NETBUF
	.half	20
	.half	2
	.word	memp_memory_NETBUF_base
	.word	memp_tab_NETBUF
	.section	.sbss.memp_tab_NETBUF,"aw",@nobits
	.align	2
	.type	memp_tab_NETBUF, @object
	.size	memp_tab_NETBUF, 4
memp_tab_NETBUF:
	.zero	4
	.section	.bss.memp_stats_NETBUF,"aw",@nobits
	.align	2
	.type	memp_stats_NETBUF, @object
	.size	memp_stats_NETBUF, 10
memp_stats_NETBUF:
	.zero	10
	.globl	memp_memory_NETBUF_base
	.section	.wifi_ram
	.align	2
	.type	memp_memory_NETBUF_base, @object
	.size	memp_memory_NETBUF_base, 43
memp_memory_NETBUF_base:
	.zero	43
	.globl	memp_ALTCP_PCB
	.section	.rodata.memp_ALTCP_PCB,"a"
	.align	2
	.type	memp_ALTCP_PCB, @object
	.size	memp_ALTCP_PCB, 16
memp_ALTCP_PCB:
	.word	memp_stats_ALTCP_PCB
	.half	44
	.half	5
	.word	memp_memory_ALTCP_PCB_base
	.word	memp_tab_ALTCP_PCB
	.section	.sbss.memp_tab_ALTCP_PCB,"aw",@nobits
	.align	2
	.type	memp_tab_ALTCP_PCB, @object
	.size	memp_tab_ALTCP_PCB, 4
memp_tab_ALTCP_PCB:
	.zero	4
	.section	.bss.memp_stats_ALTCP_PCB,"aw",@nobits
	.align	2
	.type	memp_stats_ALTCP_PCB, @object
	.size	memp_stats_ALTCP_PCB, 10
memp_stats_ALTCP_PCB:
	.zero	10
	.globl	memp_memory_ALTCP_PCB_base
	.section	.wifi_ram
	.align	2
	.type	memp_memory_ALTCP_PCB_base, @object
	.size	memp_memory_ALTCP_PCB_base, 223
memp_memory_ALTCP_PCB_base:
	.zero	223
	.globl	memp_TCP_SEG
	.section	.rodata.memp_TCP_SEG,"a"
	.align	2
	.type	memp_TCP_SEG, @object
	.size	memp_TCP_SEG, 16
memp_TCP_SEG:
	.word	memp_stats_TCP_SEG
	.half	20
	.half	16
	.word	memp_memory_TCP_SEG_base
	.word	memp_tab_TCP_SEG
	.section	.sbss.memp_tab_TCP_SEG,"aw",@nobits
	.align	2
	.type	memp_tab_TCP_SEG, @object
	.size	memp_tab_TCP_SEG, 4
memp_tab_TCP_SEG:
	.zero	4
	.section	.bss.memp_stats_TCP_SEG,"aw",@nobits
	.align	2
	.type	memp_stats_TCP_SEG, @object
	.size	memp_stats_TCP_SEG, 10
memp_stats_TCP_SEG:
	.zero	10
	.globl	memp_memory_TCP_SEG_base
	.section	.wifi_ram
	.align	2
	.type	memp_memory_TCP_SEG_base, @object
	.size	memp_memory_TCP_SEG_base, 323
memp_memory_TCP_SEG_base:
	.zero	323
	.globl	memp_TCP_PCB_LISTEN
	.section	.rodata.memp_TCP_PCB_LISTEN,"a"
	.align	2
	.type	memp_TCP_PCB_LISTEN, @object
	.size	memp_TCP_PCB_LISTEN, 16
memp_TCP_PCB_LISTEN:
	.word	memp_stats_TCP_PCB_LISTEN
	.half	28
	.half	5
	.word	memp_memory_TCP_PCB_LISTEN_base
	.word	memp_tab_TCP_PCB_LISTEN
	.section	.sbss.memp_tab_TCP_PCB_LISTEN,"aw",@nobits
	.align	2
	.type	memp_tab_TCP_PCB_LISTEN, @object
	.size	memp_tab_TCP_PCB_LISTEN, 4
memp_tab_TCP_PCB_LISTEN:
	.zero	4
	.section	.bss.memp_stats_TCP_PCB_LISTEN,"aw",@nobits
	.align	2
	.type	memp_stats_TCP_PCB_LISTEN, @object
	.size	memp_stats_TCP_PCB_LISTEN, 10
memp_stats_TCP_PCB_LISTEN:
	.zero	10
	.globl	memp_memory_TCP_PCB_LISTEN_base
	.section	.wifi_ram
	.align	2
	.type	memp_memory_TCP_PCB_LISTEN_base, @object
	.size	memp_memory_TCP_PCB_LISTEN_base, 143
memp_memory_TCP_PCB_LISTEN_base:
	.zero	143
	.globl	memp_TCP_PCB
	.section	.rodata.memp_TCP_PCB,"a"
	.align	2
	.type	memp_TCP_PCB, @object
	.size	memp_TCP_PCB, 16
memp_TCP_PCB:
	.word	memp_stats_TCP_PCB
	.half	164
	.half	5
	.word	memp_memory_TCP_PCB_base
	.word	memp_tab_TCP_PCB
	.section	.sbss.memp_tab_TCP_PCB,"aw",@nobits
	.align	2
	.type	memp_tab_TCP_PCB, @object
	.size	memp_tab_TCP_PCB, 4
memp_tab_TCP_PCB:
	.zero	4
	.section	.bss.memp_stats_TCP_PCB,"aw",@nobits
	.align	2
	.type	memp_stats_TCP_PCB, @object
	.size	memp_stats_TCP_PCB, 10
memp_stats_TCP_PCB:
	.zero	10
	.globl	memp_memory_TCP_PCB_base
	.section	.wifi_ram
	.align	2
	.type	memp_memory_TCP_PCB_base, @object
	.size	memp_memory_TCP_PCB_base, 823
memp_memory_TCP_PCB_base:
	.zero	823
	.globl	memp_UDP_PCB
	.section	.rodata.memp_UDP_PCB,"a"
	.align	2
	.type	memp_UDP_PCB, @object
	.size	memp_UDP_PCB, 16
memp_UDP_PCB:
	.word	memp_stats_UDP_PCB
	.half	40
	.half	6
	.word	memp_memory_UDP_PCB_base
	.word	memp_tab_UDP_PCB
	.section	.sbss.memp_tab_UDP_PCB,"aw",@nobits
	.align	2
	.type	memp_tab_UDP_PCB, @object
	.size	memp_tab_UDP_PCB, 4
memp_tab_UDP_PCB:
	.zero	4
	.section	.bss.memp_stats_UDP_PCB,"aw",@nobits
	.align	2
	.type	memp_stats_UDP_PCB, @object
	.size	memp_stats_UDP_PCB, 10
memp_stats_UDP_PCB:
	.zero	10
	.globl	memp_memory_UDP_PCB_base
	.section	.wifi_ram
	.align	2
	.type	memp_memory_UDP_PCB_base, @object
	.size	memp_memory_UDP_PCB_base, 243
memp_memory_UDP_PCB_base:
	.zero	243
	.globl	memp_RAW_PCB
	.section	.rodata.memp_RAW_PCB,"a"
	.align	2
	.type	memp_RAW_PCB, @object
	.size	memp_RAW_PCB, 16
memp_RAW_PCB:
	.word	memp_stats_RAW_PCB
	.half	28
	.half	4
	.word	memp_memory_RAW_PCB_base
	.word	memp_tab_RAW_PCB
	.section	.sbss.memp_tab_RAW_PCB,"aw",@nobits
	.align	2
	.type	memp_tab_RAW_PCB, @object
	.size	memp_tab_RAW_PCB, 4
memp_tab_RAW_PCB:
	.zero	4
	.section	.bss.memp_stats_RAW_PCB,"aw",@nobits
	.align	2
	.type	memp_stats_RAW_PCB, @object
	.size	memp_stats_RAW_PCB, 10
memp_stats_RAW_PCB:
	.zero	10
	.globl	memp_memory_RAW_PCB_base
	.section	.wifi_ram
	.align	2
	.type	memp_memory_RAW_PCB_base, @object
	.size	memp_memory_RAW_PCB_base, 115
memp_memory_RAW_PCB_base:
	.zero	115
	.text
.Letext0:
	.section	.note.GNU-stack,"",@progbits
