	.file	"stats.c"
	.option nopic
	.attribute arch, "rv32i2p1_m2p0_f2p2_c2p0_zicsr2p0_zmmul1p0_zca1p0_zcf1p0"
	.attribute unaligned_access, 0
	.attribute stack_align, 16
	.text
.Ltext0:
	.cfi_sections	.debug_frame
	.section	.text.stats_init,"ax",@progbits
	.align	1
	.globl	stats_init
	.type	stats_init, @function
stats_init:
.LFB51:
.LM1:
	.cfi_startproc
.LM2:
	ret
	.cfi_endproc
.LFE51:
	.size	stats_init, .-stats_init
	.section	.rodata.stats_netstat.str1.4,"aMS",@progbits,1
	.align	2
.LC0:
	.string	"netstat tools\r\n"
	.align	2
.LC1:
	.string	"TCP\t%s:%hu\t"
	.align	2
.LC2:
	.string	"%s:%hu\t%s\r\n"
	.align	2
.LC3:
	.string	"UDP\t%s:%hu\t"
	.align	2
.LC4:
	.string	"%s:%hu\r\n"
	.align	2
.LC5:
	.string	"RAW\t%s\t"
	.align	2
.LC6:
	.string	"%s\t%d\r\n"
	.section	.text.stats_netstat,"ax",@progbits
	.align	1
	.globl	stats_netstat
	.type	stats_netstat, @function
stats_netstat:
.LVL0:
.LFB52:
.LM3:
	.cfi_startproc
.LM4:
.LM5:
.LM6:
.LM7:
.LM8:
	addi	sp,sp,-192
	.cfi_def_cfa_offset 192
.LM9:
	li	a2,128
	li	a1,0
	addi	a0,sp,32
.LVL1:
.LM10:
	sw	ra,188(sp)
	sw	s0,184(sp)
	sw	s1,180(sp)
	sw	s3,172(sp)
	sw	s4,168(sp)
	sw	s5,164(sp)
	sw	s6,160(sp)
	sw	s2,176(sp)
	.cfi_offset 1, -4
	.cfi_offset 8, -8
	.cfi_offset 9, -12
	.cfi_offset 19, -20
	.cfi_offset 20, -24
	.cfi_offset 21, -28
	.cfi_offset 22, -32
	.cfi_offset 18, -16
.LM11:
	call	memset
.LVL2:
.LM12:
.LM13:
	addi	a0,sp,28
.LM14:
	sw	zero,28(sp)
.LM15:
.LVL3:
.LM16:
.LM17:
	call	tcp_get_pcbs
.LVL4:
	mv	s6,a0
.LVL5:
.LM18:
.LM19:
	call	udp_get_pcbs
.LVL6:
.LM20:
	mv	s0,a0
.LVL7:
.LM21:
.LM22:
.LM23:
	call	raw_get_pcbs
.LVL8:
	mv	s1,a0
.LVL9:
.LM24:
.LM25:
.LM26:
	lui	a0,%hi(.LC0)
	addi	a0,a0,%lo(.LC0)
	call	printf
.LVL10:
.LM27:
.LM28:
.LM29:
	lui	a5,%hi(.LC1)
	addi	s4,a5,%lo(.LC1)
.LM30:
	lui	a5,%hi(.LC2)
.LM31:
	li	s3,0
.LM32:
	addi	s5,a5,%lo(.LC2)
.LVL11:
.L3:
.LM33:
	blt	s3,s6,.L6
.LM34:
	lui	s2,%hi(.LC3)
.LM35:
	lui	s3,%hi(.LC4)
.LVL12:
.LM36:
	addi	s2,s2,%lo(.LC3)
.LM37:
	addi	s3,s3,%lo(.LC4)
.LVL13:
.L7:
.LM38:
	bne	s0,zero,.L8
.LM39:
	lui	s0,%hi(.LC5)
.LVL14:
.LM40:
	lui	s2,%hi(.LC6)
.LM41:
	addi	s0,s0,%lo(.LC5)
.LM42:
	addi	s2,s2,%lo(.LC6)
.LVL15:
.L9:
.LM43:
	bne	s1,zero,.L10
.LM44:
	lw	ra,188(sp)
	.cfi_remember_state
	.cfi_restore 1
	lw	s0,184(sp)
	.cfi_restore 8
	lw	s1,180(sp)
	.cfi_restore 9
.LVL16:
.LM45:
	lw	s2,176(sp)
	.cfi_restore 18
	lw	s3,172(sp)
	.cfi_restore 19
	lw	s4,168(sp)
	.cfi_restore 20
	lw	s5,164(sp)
	.cfi_restore 21
	lw	s6,160(sp)
	.cfi_restore 22
.LVL17:
.LM46:
	addi	sp,sp,192
	.cfi_def_cfa_offset 0
	jr	ra
.LVL18:
.L6:
	.cfi_restore_state
.LM47:
.LM48:
	lw	a5,28(sp)
	slli	a4,s3,2
	add	a5,a5,a4
.LM49:
	lw	a5,0(a5)
	lw	s2,0(a5)
.LVL19:
.L4:
.LM50:
	bne	s2,zero,.L5
.LM51:
	addi	s3,s3,1
.LVL20:
.LM52:
	j	.L3
.LVL21:
.L5:
.LM53:
	li	a2,128
	addi	a1,sp,32
	mv	a0,s2
	call	ip4addr_ntoa_r
.LVL22:
.LM54:
.LM55:
	lhu	a2,22(s2)
	addi	a1,sp,32
	mv	a0,s4
	call	printf
.LVL23:
.LM56:
.LM57:
	addi	a1,sp,32
	li	a2,128
	addi	a0,s2,4
	call	ip4addr_ntoa_r
.LVL24:
.LM58:
.LM59:
	lhu	a2,24(s2)
	lbu	a0,20(s2)
	sw	a2,12(sp)
	call	tcp_debug_state_str
.LVL25:
.LM60:
	lw	a2,12(sp)
.LM61:
	mv	a3,a0
.LM62:
	addi	a1,sp,32
	mv	a0,s5
	call	printf
.LVL26:
.LM63:
.LM64:
	lw	s2,12(s2)
.LVL27:
.LM65:
	j	.L4
.LVL28:
.L8:
.LM66:
	li	a2,128
	addi	a1,sp,32
	mv	a0,s0
	call	ip4addr_ntoa_r
.LVL29:
.LM67:
.LM68:
	lhu	a2,18(s0)
	addi	a1,sp,32
	mv	a0,s2
	call	printf
.LVL30:
.LM69:
.LM70:
	li	a2,128
	addi	a1,sp,32
	addi	a0,s0,4
	call	ip4addr_ntoa_r
.LVL31:
.LM71:
.LM72:
	lhu	a2,20(s0)
	addi	a1,sp,32
	mv	a0,s3
	call	printf
.LVL32:
.LM73:
.LM74:
	lw	s0,12(s0)
.LVL33:
.LM75:
	j	.L7
.LVL34:
.L10:
.LM76:
	li	a2,128
	addi	a1,sp,32
	mv	a0,s1
	call	ip4addr_ntoa_r
.LVL35:
.LM77:
.LM78:
	addi	a1,sp,32
	mv	a0,s0
	call	printf
.LVL36:
.LM79:
.LM80:
	li	a2,128
	addi	a1,sp,32
	addi	a0,s1,4
	call	ip4addr_ntoa_r
.LVL37:
.LM81:
.LM82:
	lbu	a2,16(s1)
	addi	a1,sp,32
	mv	a0,s2
	call	printf
.LVL38:
.LM83:
.LM84:
	lw	s1,12(s1)
.LVL39:
.LM85:
	j	.L9
	.cfi_endproc
.LFE52:
	.size	stats_netstat, .-stats_netstat
	.globl	lwip_stats
	.section	.bss.lwip_stats,"aw",@nobits
	.align	2
	.type	lwip_stats, @object
	.size	lwip_stats, 336
lwip_stats:
	.zero	336
	.text
.Letext0:
	.section	.note.GNU-stack,"",@progbits
