	.file	"tcp_out.c"
	.option nopic
	.attribute arch, "rv32i2p1_m2p0_f2p2_c2p0_zicsr2p0_zmmul1p0_zca1p0_zcf1p0"
	.attribute unaligned_access, 0
	.attribute stack_align, 16
	.text
.Ltext0:
	.cfi_sections	.debug_frame
	.section	.text.tcp_seg_add_chksum,"ax",@progbits
	.align	1
	.type	tcp_seg_add_chksum, @function
tcp_seg_add_chksum:
.LVL0:
.LFB54:
.LM1:
	.cfi_startproc
.LM2:
.LM3:
.LM4:
	lhu	a5,0(a2)
.LVL1:
.LM5:
.LM6:
	andi	a1,a1,1
.LVL2:
.LM7:
	add	a0,a0,a5
.LVL3:
.LM8:
	srli	a5,a0,16
.LM9:
	add	a5,a5,a0
	slli	a5,a5,16
	srli	a5,a5,16
.LVL4:
.LM10:
.LM11:
	beq	a1,zero,.L2
.LM12:
.LM13:
	lbu	a1,0(a3)
	li	a4,1
	sub	a4,a4,a1
.LM14:
	sb	a4,0(a3)
.LM15:
.LM16:
	srli	a4,a5,8
	slli	a5,a5,8
.LVL5:
.LM17:
	add	a5,a4,a5
.L2:
.LVL6:
.LM18:
.LM19:
	sh	a5,0(a2)
.LM20:
	ret
	.cfi_endproc
.LFE54:
	.size	tcp_seg_add_chksum, .-tcp_seg_add_chksum
	.section	.text.tcp_create_segment,"ax",@progbits
	.align	1
	.type	tcp_create_segment, @function
tcp_create_segment:
.LVL7:
.LFB52:
.LM21:
	.cfi_startproc
.LM22:
.LM23:
.LM24:
.LM25:
.LM26:
.LM27:
.LM28:
.LM29:
	addi	sp,sp,-48
	.cfi_def_cfa_offset 48
.LVL8:
.LM30:
.LM31:
	sw	s3,28(sp)
	.cfi_offset 19, -20
	mv	s3,a0
.LM32:
	li	a0,4
.LVL9:
.LM33:
	sw	s2,32(sp)
	sw	s4,24(sp)
	sw	s5,20(sp)
	sw	a4,12(sp)
.LVL10:
.LM34:
	sw	ra,44(sp)
	sw	s0,40(sp)
	sw	s1,36(sp)
	.cfi_offset 18, -16
	.cfi_offset 20, -24
	.cfi_offset 21, -28
	.cfi_offset 1, -4
	.cfi_offset 8, -8
	.cfi_offset 9, -12
.LM35:
	mv	s2,a1
	mv	s4,a2
	mv	s5,a3
.LM36:
	call	memp_malloc
.LVL11:
.LM37:
	lw	a4,12(sp)
	bne	a0,zero,.L7
.LM38:
.LM39:
	mv	a0,s2
.LVL12:
.LM40:
	call	pbuf_free
.LVL13:
.LM41:
.L8:
.LM42:
	li	s0,0
.LVL14:
.L6:
.LM43:
	lw	ra,44(sp)
	.cfi_remember_state
	.cfi_restore 1
	mv	a0,s0
	lw	s0,40(sp)
	.cfi_restore 8
	lw	s1,36(sp)
	.cfi_restore 9
	lw	s2,32(sp)
	.cfi_restore 18
	lw	s3,28(sp)
	.cfi_restore 19
.LVL15:
.LM44:
	lw	s4,24(sp)
	.cfi_restore 20
.LVL16:
.LM45:
	lw	s5,20(sp)
	.cfi_restore 21
.LVL17:
.LM46:
	addi	sp,sp,48
	.cfi_def_cfa_offset 0
.LVL18:
.LM47:
	jr	ra
.LVL19:
.L7:
	.cfi_restore_state
.LM48:
	sb	a4,13(a0)
.LM49:
	sw	zero,0(a0)
.LM50:
	sw	s2,4(a0)
.LM51:
	lhu	a5,8(s2)
.LM52:
	slli	s1,a4,2
.LM53:
	andi	s1,s1,4
.LM54:
.LM55:
.LM56:
.LM57:
.LM58:
.LM59:
.LM60:
	sub	a5,a5,s1
	mv	s0,a0
.LM61:
	sh	a5,8(a0)
.LM62:
.LM63:
	sh	zero,10(a0)
.LM64:
.LM65:
	sb	zero,12(a0)
.LM66:
.LM67:
.LM68:
.LM69:
	li	a1,20
	mv	a0,s2
.LVL20:
.LM70:
	call	pbuf_add_header
.LVL21:
.LM71:
	beq	a0,zero,.L9
.LM72:
.LM73:
	lui	a5,%hi(lwip_stats)
	addi	a5,a5,%lo(lwip_stats)
	lhu	a4,168(a5)
.LM74:
	mv	a0,s0
.LM75:
	addi	a4,a4,1
	sh	a4,168(a5)
.LM76:
	call	tcp_seg_free
.LVL22:
.LM77:
.LM78:
	j	.L8
.L9:
.LM79:
.LM80:
	lw	a5,4(s0)
	lw	s2,4(a5)
.LVL23:
.LM81:
	sw	s2,16(s0)
.LM82:
.LM83:
	lhu	a0,22(s3)
	call	lwip_htons
.LVL24:
.LM84:
	sb	a0,0(s2)
	srli	a0,a0,8
	sb	a0,1(s2)
.LM85:
.LM86:
	lhu	a0,24(s3)
.LM87:
	lw	s2,16(s0)
.LM88:
	call	lwip_htons
.LVL25:
.LM89:
	sb	a0,2(s2)
	srli	a0,a0,8
	sb	a0,3(s2)
.LM90:
.LM91:
	lw	s2,16(s0)
.LM92:
	mv	a0,s5
	call	lwip_htonl
.LVL26:
.LM93:
	srli	a5,a0,8
	sb	a0,4(s2)
	sb	a5,5(s2)
	srli	a5,a0,16
	srli	a0,a0,24
	sb	a0,7(s2)
.LM94:
.LM95:
	srli	a0,s1,2
.LM96:
	addi	a0,a0,5
.LM97:
	sb	a5,6(s2)
.LM98:
	andi	a0,a0,15
.LM99:
	lw	s2,16(s0)
.LM100:
	slli	a0,a0,12
	or	a0,a0,s4
	call	lwip_htons
.LVL27:
.LM101:
	sb	a0,12(s2)
	srli	a0,a0,8
	sb	a0,13(s2)
.LM102:
.LM103:
	lw	a5,16(s0)
.LM104:
	sb	zero,18(a5)
	sb	zero,19(a5)
.LM105:
.LM106:
	j	.L6
	.cfi_endproc
.LFE52:
	.size	tcp_create_segment, .-tcp_create_segment
	.section	.text.tcp_output_control_segment_netif,"ax",@progbits
	.align	1
	.type	tcp_output_control_segment_netif, @function
tcp_output_control_segment_netif:
.LVL28:
.LFB72:
.LM107:
	.cfi_startproc
.LM108:
.LM109:
.LM110:
.LM111:
.LBB11:
.LM112:
.LBE11:
.LM113:
	addi	sp,sp,-48
	.cfi_def_cfa_offset 48
	sw	s0,40(sp)
	sw	s1,36(sp)
	sw	s3,28(sp)
	sw	s4,24(sp)
	sw	ra,44(sp)
	sw	s2,32(sp)
	.cfi_offset 8, -8
	.cfi_offset 9, -12
	.cfi_offset 19, -20
	.cfi_offset 20, -24
	.cfi_offset 1, -4
	.cfi_offset 18, -16
.LM114:
	sw	a4,12(sp)
	mv	s3,a2
.LBB12:
.LM115:
	mv	a4,a3
.LVL29:
.LM116:
.LBE12:
.LM117:
	mv	s4,a3
.LBB13:
.LM118:
	mv	a3,a2
.LVL30:
.LM119:
	lhu	a2,8(a1)
.LVL31:
.LM120:
	lw	s2,4(a1)
.LVL32:
.LM121:
.LBE13:
.LM122:
	mv	s0,a1
	mv	s1,a0
.LBB14:
.LM123:
	li	a1,6
.LVL33:
.LM124:
	mv	a0,s0
.LVL34:
.LM125:
	call	ip_chksum_pseudo
.LVL35:
.LM126:
	sb	a0,16(s2)
	srli	a0,a0,8
	sb	a0,17(s2)
.LBE14:
.LM127:
.LM128:
	lw	a6,12(sp)
	beq	s1,zero,.L14
.LM129:
.LM130:
.LM131:
	lbu	a3,11(s1)
.LVL36:
.LM132:
.LM133:
	lbu	a4,10(s1)
.LVL37:
.L13:
.LM134:
	lui	a5,%hi(lwip_stats)
	addi	a5,a5,%lo(lwip_stats)
	lhu	a2,148(a5)
.LM135:
	mv	a1,s3
	mv	a0,s0
.LM136:
	addi	a2,a2,1
	sh	a2,148(a5)
.LM137:
.LM138:
	mv	a2,s4
	li	a5,6
	call	ip4_output_if
.LVL38:
.LM139:
	mv	s1,a0
.LVL39:
.LM140:
.LM141:
	mv	a0,s0
	call	pbuf_free
.LVL40:
.LM142:
.LM143:
	lw	ra,44(sp)
	.cfi_remember_state
	.cfi_restore 1
	lw	s0,40(sp)
	.cfi_restore 8
.LVL41:
.LM144:
	lw	s2,32(sp)
	.cfi_restore 18
.LVL42:
.LM145:
	lw	s3,28(sp)
	.cfi_restore 19
.LVL43:
.LM146:
	lw	s4,24(sp)
	.cfi_restore 20
.LVL44:
.LM147:
	mv	a0,s1
	lw	s1,36(sp)
	.cfi_restore 9
.LVL45:
.LM148:
	addi	sp,sp,48
	.cfi_def_cfa_offset 0
.LVL46:
.LM149:
	jr	ra
.LVL47:
.L14:
	.cfi_restore_state
.LM150:
	li	a4,0
.LM151:
	li	a3,255
	j	.L13
	.cfi_endproc
.LFE72:
	.size	tcp_output_control_segment_netif, .-tcp_output_control_segment_netif
	.section	.text.tcp_output_alloc_header_common.constprop.0,"ax",@progbits
	.align	1
	.type	tcp_output_alloc_header_common.constprop.0, @function
tcp_output_alloc_header_common.constprop.0:
.LVL48:
.LFB79:
.LM152:
	.cfi_startproc
.LM153:
.LM154:
.LM155:
.LM156:
	addi	a1,a1,20
.LVL49:
.LM157:
	addi	sp,sp,-48
	.cfi_def_cfa_offset 48
.LM158:
	slli	a1,a1,16
.LVL50:
.LM159:
	sw	s1,36(sp)
	sw	s3,28(sp)
	.cfi_offset 9, -12
	.cfi_offset 19, -20
	mv	s1,a2
	mv	s3,a0
.LM160:
	li	a2,640
.LVL51:
.LM161:
	srli	a1,a1,16
	li	a0,162
.LVL52:
.LM162:
	sw	s2,32(sp)
	sw	s4,24(sp)
	sw	s5,20(sp)
	sw	s6,16(sp)
	sw	ra,44(sp)
	sw	s0,40(sp)
	.cfi_offset 18, -16
	.cfi_offset 20, -24
	.cfi_offset 21, -28
	.cfi_offset 22, -32
	.cfi_offset 1, -4
	.cfi_offset 8, -8
.LM163:
	sw	a3,12(sp)
	mv	s4,a4
	mv	s5,a5
	mv	s6,a6
.LM164:
	call	pbuf_alloc
.LVL53:
.LM165:
	mv	s2,a0
.LVL54:
.LM166:
.LM167:
	beq	a0,zero,.L16
.LM168:
.LM169:
.LM170:
.LM171:
	lw	s0,4(a0)
.LVL55:
.LM172:
.LM173:
	lw	a0,12(sp)
.LVL56:
.LM174:
	call	lwip_htons
.LVL57:
.LM175:
	sb	a0,0(s0)
	srli	a0,a0,8
	sb	a0,1(s0)
.LM176:
.LM177:
	mv	a0,s4
	call	lwip_htons
.LVL58:
.LM178:
	srli	a5,s1,8
.LM179:
	sb	a0,2(s0)
.LM180:
	sb	s1,4(s0)
.LM181:
	srli	a0,a0,8
.LM182:
	sb	a5,5(s0)
	srli	a5,s1,16
	srli	s1,s1,24
.LVL59:
.LM183:
	sb	a0,3(s0)
.LM184:
.LM185:
	sb	a5,6(s0)
	sb	s1,7(s0)
.LM186:
.LM187:
	mv	a0,s3
	call	lwip_htonl
.LVL60:
.LM188:
	srli	a5,a0,8
	sb	a0,8(s0)
	sb	a5,9(s0)
	srli	a5,a0,16
	srli	a0,a0,24
	sb	a0,11(s0)
.LM189:
.LM190:
	li	a0,20480
.LM191:
	sb	a5,10(s0)
.LM192:
	or	a0,s5,a0
	call	lwip_htons
.LVL61:
.LM193:
	sb	a0,12(s0)
	srli	a0,a0,8
	sb	a0,13(s0)
.LM194:
.LM195:
	mv	a0,s6
	call	lwip_htons
.LVL62:
.LM196:
	sb	a0,14(s0)
	srli	a0,a0,8
	sb	a0,15(s0)
.LM197:
.LM198:
	sb	zero,16(s0)
	sb	zero,17(s0)
.LM199:
.LM200:
	sb	zero,18(s0)
	sb	zero,19(s0)
.LM201:
.LVL63:
.L16:
.LM202:
	lw	ra,44(sp)
	.cfi_restore 1
	lw	s0,40(sp)
	.cfi_restore 8
	lw	s1,36(sp)
	.cfi_restore 9
	lw	s3,28(sp)
	.cfi_restore 19
.LVL64:
.LM203:
	lw	s4,24(sp)
	.cfi_restore 20
.LVL65:
.LM204:
	lw	s5,20(sp)
	.cfi_restore 21
.LVL66:
.LM205:
	lw	s6,16(sp)
	.cfi_restore 22
.LVL67:
.LM206:
	mv	a0,s2
	lw	s2,32(sp)
	.cfi_restore 18
.LVL68:
.LM207:
	addi	sp,sp,48
	.cfi_def_cfa_offset 0
.LVL69:
.LM208:
	jr	ra
	.cfi_endproc
.LFE79:
	.size	tcp_output_alloc_header_common.constprop.0, .-tcp_output_alloc_header_common.constprop.0
	.section	.text.tcp_output_alloc_header.constprop.0,"ax",@progbits
	.align	1
	.type	tcp_output_alloc_header.constprop.0, @function
tcp_output_alloc_header.constprop.0:
.LVL70:
.LFB80:
.LM209:
	.cfi_startproc
.LM210:
.LM211:
.LM212:
.LM213:
.LM214:
	addi	sp,sp,-16
	.cfi_def_cfa_offset 16
	sw	s0,8(sp)
	sw	ra,12(sp)
	.cfi_offset 8, -8
	.cfi_offset 1, -4
.LM215:
	lhu	a6,42(a0)
	lhu	a4,24(a0)
	lhu	a3,22(a0)
.LM216:
	mv	s0,a0
.LM217:
	lw	a0,36(a0)
.LVL71:
.LM218:
	li	a5,16
	call	tcp_output_alloc_header_common.constprop.0
.LVL72:
.LM219:
.LM220:
	beq	a0,zero,.L22
.LM221:
.LM222:
	lhu	a4,42(s0)
.LM223:
	lw	a5,36(s0)
	add	a5,a5,a4
.LM224:
	sw	a5,44(s0)
.LM225:
.L22:
.LM226:
	lw	ra,12(sp)
	.cfi_restore 1
	lw	s0,8(sp)
	.cfi_restore 8
.LVL73:
.LM227:
	addi	sp,sp,16
	.cfi_def_cfa_offset 0
	jr	ra
	.cfi_endproc
.LFE80:
	.size	tcp_output_alloc_header.constprop.0, .-tcp_output_alloc_header.constprop.0
	.section	.text.tcp_output_control_segment,"ax",@progbits
	.align	1
	.type	tcp_output_control_segment, @function
tcp_output_control_segment:
.LVL74:
.LFB71:
.LM228:
	.cfi_startproc
.LM229:
.LM230:
.LM231:
.LM232:
.LBB17:
.LBI17:
.LM233:
.LBB18:
.LM234:
.LM235:
.LBE18:
.LBE17:
.LM236:
	addi	sp,sp,-32
	.cfi_def_cfa_offset 32
	sw	s0,24(sp)
	sw	ra,28(sp)
	.cfi_offset 8, -8
	.cfi_offset 1, -4
.LM237:
	mv	s0,a0
.LBB21:
.LBB19:
.LM238:
	beq	a0,zero,.L29
.LM239:
	lbu	a0,8(a0)
.LVL75:
.LM240:
	beq	a0,zero,.L29
	sw	a3,12(sp)
	sw	a2,8(sp)
	sw	a1,4(sp)
.LM241:
.LM242:
	call	netif_get_by_index
.LVL76:
.LM243:
	lw	a1,4(sp)
	lw	a2,8(sp)
	lw	a3,12(sp)
	mv	a4,a0
.LVL77:
.L30:
.LM244:
.LBE19:
.LBE21:
.LM245:
.LM246:
	beq	a4,zero,.L40
.LM247:
.LM248:
	mv	a0,s0
.LM249:
	lw	s0,24(sp)
	.cfi_remember_state
	.cfi_restore 8
.LVL78:
.LM250:
	lw	ra,28(sp)
	.cfi_restore 1
	addi	sp,sp,32
	.cfi_def_cfa_offset 0
.LM251:
	tail	tcp_output_control_segment_netif
.LVL79:
.L29:
	.cfi_restore_state
.LBB22:
.LBB20:
.LM252:
	mv	a0,a3
	sw	a2,12(sp)
	sw	a1,8(sp)
.LM253:
.LM254:
	sw	a3,4(sp)
	call	ip4_route
.LVL80:
.LM255:
	lw	a2,12(sp)
	lw	a1,8(sp)
	lw	a3,4(sp)
	mv	a4,a0
	j	.L30
.LVL81:
.L40:
.LM256:
.LBE20:
.LBE22:
.LM257:
	mv	a0,a1
	call	pbuf_free
.LVL82:
.LM258:
.LM259:
	lw	ra,28(sp)
	.cfi_restore 1
	lw	s0,24(sp)
	.cfi_restore 8
.LVL83:
.LM260:
	li	a0,-4
	addi	sp,sp,32
	.cfi_def_cfa_offset 0
	jr	ra
	.cfi_endproc
.LFE71:
	.size	tcp_output_control_segment, .-tcp_output_control_segment
	.section	.text.tcp_write,"ax",@progbits
	.align	1
	.globl	tcp_write
	.type	tcp_write, @function
tcp_write:
.LVL84:
.LFB56:
.LM261:
	.cfi_startproc
.LM262:
.LM263:
.LM264:
.LM265:
.LM266:
.LM267:
.LM268:
.LM269:
.LM270:
.LM271:
.LM272:
.LM273:
.LM274:
.LM275:
.LM276:
.LM277:
.LM278:
	beq	a0,zero,.L70
.LM279:
	addi	sp,sp,-96
	.cfi_def_cfa_offset 96
	sw	s0,88(sp)
	sw	ra,92(sp)
	sw	s1,84(sp)
	sw	s2,80(sp)
	sw	s3,76(sp)
	sw	s4,72(sp)
	sw	s5,68(sp)
	sw	s6,64(sp)
	sw	s7,60(sp)
	sw	s8,56(sp)
	sw	s9,52(sp)
	sw	s10,48(sp)
	sw	s11,44(sp)
	.cfi_offset 8, -8
	.cfi_offset 1, -4
	.cfi_offset 9, -12
	.cfi_offset 18, -16
	.cfi_offset 19, -20
	.cfi_offset 20, -24
	.cfi_offset 21, -28
	.cfi_offset 22, -32
	.cfi_offset 23, -36
	.cfi_offset 24, -40
	.cfi_offset 25, -44
	.cfi_offset 26, -48
	.cfi_offset 27, -52
.LM280:
	lhu	s6,50(a0)
	mv	s0,a0
.LM281:
.LM282:
.LM283:
	lhu	a0,98(a0)
.LVL85:
.LM284:
	srli	a0,a0,1
.LM285:
	mv	a4,a0
	bleu	a0,s6,.L44
	mv	a4,s6
.L44:
	slli	a4,a4,16
	srli	a4,a4,16
.LVL86:
.LM286:
.LM287:
	beq	a4,zero,.L45
.LM288:
	mv	s6,a4
.L45:
.LVL87:
.LM289:
.LM290:
.LM291:
.LM292:
.LM293:
.LM294:
	li	a0,-16
.LM295:
	beq	a1,zero,.L43
.LM296:
.LM297:
.LM298:
.LVL88:
.LBB30:
.LBI30:
.LM299:
.LBB31:
.LM300:
.LM301:
.LM302:
.LM303:
	lbu	a4,20(s0)
.LM304:
	addi	a0,a4,-2
	sltiu	a0,a0,3
.LM305:
	bne	a0,zero,.L76
.LM306:
	addi	a4,a4,-7
.LBE31:
.LBE30:
.LM307:
	li	a0,-11
.LBB34:
.LBB32:
.LM308:
	bne	a4,zero,.L43
.L76:
.LM309:
.LM310:
	beq	a2,zero,.L47
.LM311:
.LM312:
	lhu	a4,100(s0)
	bgeu	a4,a2,.L48
.LVL89:
.L101:
.LM313:
.LM314:
.LM315:
.LM316:
	lhu	a4,26(s0)
	ori	a4,a4,128
.LM317:
	sh	a4,26(s0)
.LM318:
.LM319:
.LVL90:
.LM320:
.LBE32:
.LBE34:
.LM321:
.L49:
.LM322:
	li	a0,-1
.LVL91:
.L43:
.LM323:
	lw	ra,92(sp)
	.cfi_remember_state
	.cfi_restore 1
	lw	s0,88(sp)
	.cfi_restore 8
	lw	s1,84(sp)
	.cfi_restore 9
	lw	s2,80(sp)
	.cfi_restore 18
	lw	s3,76(sp)
	.cfi_restore 19
	lw	s4,72(sp)
	.cfi_restore 20
	lw	s5,68(sp)
	.cfi_restore 21
	lw	s6,64(sp)
	.cfi_restore 22
	lw	s7,60(sp)
	.cfi_restore 23
	lw	s8,56(sp)
	.cfi_restore 24
	lw	s9,52(sp)
	.cfi_restore 25
	lw	s10,48(sp)
	.cfi_restore 26
	lw	s11,44(sp)
	.cfi_restore 27
	addi	sp,sp,96
	.cfi_def_cfa_offset 0
	jr	ra
.LVL92:
.L48:
	.cfi_restore_state
.LBB35:
.LBB33:
.LM324:
.LM325:
.LM326:
	lhu	a0,102(s0)
	li	a4,15
	bleu	a0,a4,.L47
.LM327:
.LM328:
	lui	a4,%hi(lwip_stats)
	addi	a4,a4,%lo(lwip_stats)
	lhu	a3,160(a4)
.LVL93:
.LM329:
	addi	a3,a3,1
	sh	a3,160(a4)
.LM330:
.LM331:
	j	.L101
.LVL94:
.L47:
.LM332:
.LBE33:
.LBE35:
.LM333:
.LM334:
	lw	s7,108(s0)
.LM335:
	lhu	s8,102(s0)
.LVL95:
.LM336:
.LM337:
.LM338:
	beq	s7,zero,.L73
.LVL96:
.L51:
.LBB36:
.LM339:
	mv	s11,s7
.LM340:
	lw	s7,0(s7)
.LVL97:
.LM341:
	bne	s7,zero,.L51
.LM342:
.LVL98:
.LM343:
.LM344:
.LM345:
.LM346:
.LM347:
	lhu	s2,104(s0)
.LVL99:
.LM348:
.LBE36:
.LM349:
	li	s1,0
.LBB37:
.LM350:
	beq	s2,zero,.L50
.LM351:
.LM352:
.LM353:
.LVL100:
.LM354:
.LM355:
	lbu	a0,13(s11)
.LM356:
	lhu	a4,8(s11)
.LM357:
	slli	a0,a0,2
.LM358:
	andi	a0,a0,4
.LM359:
	sub	a4,s6,a4
	sub	a4,a4,a0
.LM360:
	mv	a0,s2
	bleu	s2,a2,.L52
	mv	a0,a2
.L52:
.LM361:
	mv	s1,a4
	slli	t1,a0,16
	slli	a4,a4,16
	srli	a4,a4,16
	srli	t1,t1,16
	bleu	a4,t1,.L53
	mv	s1,a0
.L53:
	slli	s1,s1,16
	srli	s1,s1,16
.LVL101:
.LM362:
.LM363:
.LM364:
	sub	s2,s2,s1
.LVL102:
.LM365:
.LM366:
	mv	s7,s11
.LVL103:
.L50:
.LM367:
	sw	a3,12(sp)
	mv	s3,a2
	sw	a1,4(sp)
.LVL104:
.LM368:
.LBE37:
.LM369:
	mv	s10,s1
	li	s4,0
	li	s9,0
.LBB38:
.LM370:
	sh	s6,10(sp)
	j	.L59
.LVL105:
.L61:
.LM371:
.LM372:
.LM373:
.LM374:
.LM375:
.LBB39:
.LBB40:
.LM376:
	li	a2,640
	mv	a1,s6
	li	a0,182
.LBE40:
.LBE39:
.LM377:
	sh	zero,30(sp)
.LM378:
.LM379:
	sb	zero,29(sp)
.LM380:
.LM381:
.LVL106:
.LBB46:
.LBI39:
.LM382:
.LBB41:
.LM383:
.LM384:
.LM385:
.LM386:
.LM387:
.LM388:
.LM389:
.LM390:
.LM391:
.LM392:
.LM393:
.LM394:
.LM395:
	call	pbuf_alloc
.LVL107:
	mv	s7,a0
.LVL108:
.LM396:
.LM397:
	beq	a0,zero,.L57
.LM398:
.LBE41:
.LBE46:
.LM399:
	sub	a3,s3,s10
.LM400:
	mv	a4,a3
	slli	a3,a3,16
	srli	a3,a3,16
	bleu	a3,s6,.L55
	lhu	a4,10(sp)
.L55:
.LM401:
	lw	a5,4(sp)
.LM402:
	slli	s5,a4,16
.LM403:
	lw	a0,4(s7)
.LVL109:
.LM404:
	srli	s5,s5,16
.LBB47:
.LBB42:
.LM405:
.LM406:
.LM407:
.LBE42:
.LBE47:
.LM408:
	add	a1,a5,s10
.LBB48:
.LBB43:
.LM409:
	sh	a4,8(s7)
.LM410:
	lhu	s2,10(s7)
.LVL110:
.LM411:
.LBE43:
.LBE48:
.LM412:
	mv	a2,s5
.LBB49:
.LBB44:
.LM413:
	sh	a4,10(s7)
.LM414:
.LVL111:
.LM415:
.LBE44:
.LBE49:
.LM416:
.LM417:
.LM418:
	call	lwip_chksum_copy
.LVL112:
.LM419:
	addi	a3,sp,29
	addi	a2,sp,30
	mv	a1,s5
	call	tcp_seg_add_chksum
.LVL113:
.LM420:
.LM421:
.LM422:
	mv	a0,s7
	call	pbuf_clen
.LVL114:
.LM423:
	add	a0,s8,a0
	slli	s8,a0,16
.LVL115:
.LM424:
	srli	s8,s8,16
.LVL116:
.LM425:
.LM426:
	li	a5,16
	bleu	s8,a5,.L56
.LM427:
.LM428:
	mv	a0,s7
	call	pbuf_free
.LVL117:
.LM429:
.L57:
.LDL1:
.LM430:
.LBE38:
.LM431:
.LM432:
.LM433:
	lhu	a5,26(s0)
	ori	a5,a5,128
.LM434:
	sh	a5,26(s0)
.LM435:
.LM436:
	lui	a5,%hi(lwip_stats)
	addi	a5,a5,%lo(lwip_stats)
	lhu	a4,160(a5)
	addi	a4,a4,1
	sh	a4,160(a5)
.LM437:
.LM438:
.LM439:
	beq	s4,zero,.L49
.LM440:
	mv	a0,s4
	call	tcp_segs_free
.LVL118:
	j	.L49
.LVL119:
.L56:
.LBB51:
.LM441:
.LM442:
	lw	a3,92(s0)
.LM443:
	mv	a1,s7
	li	a4,0
	add	a3,s10,a3
	li	a2,0
	mv	a0,s0
	call	tcp_create_segment
.LVL120:
	mv	s7,a0
.LVL121:
.LM444:
	beq	a0,zero,.L57
.LM445:
	lhu	a5,30(sp)
.LBB50:
.LBB45:
.LM446:
	sub	s2,s2,s5
.LM447:
.LBE45:
.LBE50:
.LM448:
.LM449:
	sh	a5,10(a0)
.LM450:
.LM451:
	lbu	a5,29(sp)
	sb	a5,12(a0)
.LM452:
.LM453:
	lbu	a5,13(a0)
	ori	a5,a5,4
	sb	a5,13(a0)
.LM454:
.LM455:
	beq	s4,zero,.L75
.LM456:
.LM457:
.LM458:
.LM459:
	sw	a0,0(s9)
.LVL122:
.L58:
.LM460:
.LM461:
.LM462:
.LM463:
	add	s5,s10,s5
	slli	s10,s5,16
.LVL123:
.LM464:
	srli	s10,s10,16
.LVL124:
.LM465:
	mv	s9,s7
.LVL125:
.L59:
.LM466:
.LBE51:
.LM467:
	bltu	s10,s3,.L61
.LM468:
.LM469:
	beq	s1,zero,.L62
.LBB52:
.LM470:
.LM471:
.LM472:
	lw	s5,4(s11)
.LVL126:
.LM473:
	addi	s9,s11,12
.LVL127:
.LM474:
	addi	s10,s11,10
.LVL128:
.L63:
.LM475:
	bne	s5,zero,.L65
.LM476:
.LM477:
	lhu	a5,8(s11)
	add	s1,s1,a5
.LVL129:
.LM478:
	sh	s1,8(s11)
.LBE52:
.LM479:
.LM480:
	sh	s2,104(s0)
.LM481:
.LM482:
.LM483:
.LM484:
.LVL130:
.L66:
.LM485:
.LM486:
	sw	s4,0(s11)
	j	.L67
.LVL131:
.L75:
.LBB53:
.LM487:
	mv	s4,a0
.LVL132:
.LM488:
	j	.L58
.LVL133:
.L73:
.LM489:
.LBE53:
.LM490:
	li	s11,0
.LM491:
	li	s2,0
.LM492:
	li	s1,0
	j	.L50
.LVL134:
.L65:
.LBB54:
.LM493:
.LM494:
	lhu	a5,8(s5)
	add	a5,s1,a5
	sh	a5,8(s5)
.LM495:
.LM496:
	lw	a5,0(s5)
	bne	a5,zero,.L64
.LM497:
.LM498:
.LM499:
	lhu	a5,10(s5)
.LM500:
	lw	a0,4(s5)
	lw	a1,4(sp)
	mv	a2,s1
	add	a0,a0,a5
	call	lwip_chksum_copy
.LVL135:
.LM501:
	mv	a3,s9
	mv	a2,s10
	mv	a1,s1
	call	tcp_seg_add_chksum
.LVL136:
.LM502:
.LM503:
	lbu	a5,13(s11)
	ori	a5,a5,4
	sb	a5,13(s11)
.LM504:
.LM505:
.LM506:
	lhu	a5,10(s5)
	add	a5,s1,a5
	sh	a5,10(s5)
.L64:
.LM507:
	lw	s5,0(s5)
.LVL137:
.LM508:
	j	.L63
.LVL138:
.L62:
.LM509:
.LBE54:
.LM510:
.LM511:
	sh	s2,104(s0)
.LM512:
.LM513:
.LM514:
.LM515:
.LM516:
	bne	s11,zero,.L66
.LM517:
.LM518:
	sw	s4,108(s0)
.LVL139:
.L67:
.LM519:
.LM520:
	lw	a5,92(s0)
.LM521:
	sh	s8,102(s0)
.LM522:
	add	a5,a5,s3
	sw	a5,92(s0)
.LM523:
.LM524:
	lhu	a5,100(s0)
	sub	a5,a5,s3
	sh	a5,100(s0)
.LM525:
.LM526:
.LM527:
.LM528:
.LM529:
.LM530:
.LM531:
	bne	s7,zero,.L68
.LVL140:
.L69:
.LM532:
	li	a0,0
	j	.L43
.LVL141:
.L68:
.LM533:
	lw	a5,16(s7)
.LM534:
	beq	a5,zero,.L69
.LM535:
	lw	a4,12(sp)
	andi	s6,a4,2
.LVL142:
.LM536:
	bne	s6,zero,.L69
.LM537:
.LM538:
	lbu	a0,13(a5)
	lbu	a3,12(a5)
	slli	a0,a0,8
	or	s0,a0,a3
.LVL143:
.LM539:
	li	a0,8
	call	lwip_htons
.LVL144:
.LM540:
	lw	a5,16(s7)
.LM541:
	or	a0,s0,a0
	sb	a0,12(a5)
	srli	a0,a0,8
	sb	a0,13(a5)
	j	.L69
.LVL145:
.L70:
	.cfi_def_cfa_offset 0
	.cfi_restore 1
	.cfi_restore 8
	.cfi_restore 9
	.cfi_restore 18
	.cfi_restore 19
	.cfi_restore 20
	.cfi_restore 21
	.cfi_restore 22
	.cfi_restore 23
	.cfi_restore 24
	.cfi_restore 25
	.cfi_restore 26
	.cfi_restore 27
.LM542:
	li	a0,-16
.LVL146:
.LM543:
	ret
	.cfi_endproc
.LFE56:
	.size	tcp_write, .-tcp_write
	.section	.text.tcp_split_unsent_seg,"ax",@progbits
	.align	1
	.globl	tcp_split_unsent_seg
	.type	tcp_split_unsent_seg, @function
tcp_split_unsent_seg:
.LVL147:
.LFB57:
.LM544:
	.cfi_startproc
.LM545:
.LM546:
.LM547:
.LM548:
.LM549:
.LM550:
.LM551:
.LM552:
.LM553:
.LM554:
	addi	sp,sp,-80
	.cfi_def_cfa_offset 80
	sw	ra,76(sp)
	sw	s0,72(sp)
	sw	s1,68(sp)
	sw	s2,64(sp)
	sw	s3,60(sp)
	sw	s4,56(sp)
	sw	s5,52(sp)
	sw	s6,48(sp)
	sw	s7,44(sp)
	.cfi_offset 1, -4
	.cfi_offset 8, -8
	.cfi_offset 9, -12
	.cfi_offset 18, -16
	.cfi_offset 19, -20
	.cfi_offset 20, -24
	.cfi_offset 21, -28
	.cfi_offset 22, -32
	.cfi_offset 23, -36
.LM555:
	lw	s0,108(a0)
.LM556:
	sh	zero,30(sp)
.LM557:
.LM558:
	sb	zero,29(sp)
.LM559:
.LM560:
.LM561:
.LM562:
.LVL148:
.LM563:
.LM564:
	beq	s0,zero,.L104
.LM565:
.LM566:
	li	a5,-6
.LM567:
	beq	a1,zero,.L105
.LM568:
.LM569:
	lhu	s6,8(s0)
.LM570:
	bleu	s6,a1,.L107
.LM571:
	lbu	s4,13(s0)
.LM572:
	sub	s7,s6,a1
	slli	s7,s7,16
.LM573:
	andi	s4,s4,251
.LM574:
	slli	s5,s4,2
.LM575:
	andi	s5,s5,4
.LM576:
	srli	s7,s7,16
	mv	s1,a1
.LM577:
	add	a1,s5,s7
.LVL149:
.LM578:
	slli	a1,a1,16
	mv	s2,a0
.LM579:
.LM580:
.LM581:
.LM582:
.LM583:
.LM584:
.LVL150:
.LM585:
.LM586:
.LM587:
.LM588:
.LM589:
	li	a2,640
	srli	a1,a1,16
	li	a0,182
.LVL151:
.LM590:
	call	pbuf_alloc
.LVL152:
	mv	s3,a0
.LVL153:
.LM591:
.LM592:
	beq	a0,zero,.L108
.LM593:
.LM594:
	lw	a0,4(s0)
.LVL154:
.LM595:
.LM596:
	lhu	a5,8(s0)
.LM597:
	lw	a1,4(s3)
.LM598:
	lhu	a3,8(a0)
.LM599:
	mv	a2,s7
	add	a1,a1,s5
.LM600:
	sub	a3,a3,a5
.LM601:
	add	a3,s1,a3
.LM602:
	slli	a3,a3,16
	srli	a3,a3,16
	call	pbuf_copy_partial
.LVL155:
.LM603:
	mv	a1,a0
.LM604:
	bne	a0,s7,.L109
.LM605:
.LM606:
	lw	a0,4(s3)
	sw	a1,12(sp)
	add	a0,a0,s5
	call	inet_chksum
.LVL156:
.LM607:
	lw	a1,12(sp)
	not	a0,a0
	slli	a0,a0,16
	addi	a2,sp,30
	addi	a3,sp,29
	srli	a0,a0,16
	call	tcp_seg_add_chksum
.LVL157:
.LM608:
.LM609:
	lw	a5,16(s0)
	lbu	a0,12(a5)
	lbu	a5,13(a5)
	slli	a5,a5,8
	or	a0,a5,a0
	call	lwip_htons
.LVL158:
.LM610:
.LM611:
	andi	a2,a0,8
.LM612:
	andi	s5,a0,63
.LVL159:
.LM613:
	beq	a2,zero,.L111
.LM614:
.LM615:
	andi	s5,a0,55
.LVL160:
.LM616:
.LM617:
	li	a2,8
.LVL161:
.L111:
.LM618:
.LM619:
	andi	a5,s5,1
	beq	a5,zero,.L112
.LM620:
.LM621:
	andi	s5,s5,254
.LVL162:
.LM622:
.LM623:
	ori	a2,a2,1
.LVL163:
.L112:
.LM624:
	lw	a4,16(s0)
	sw	a2,12(sp)
.LVL164:
.LM625:
.LM626:
	lbu	a3,5(a4)
	lbu	a5,4(a4)
	lbu	a0,7(a4)
	slli	a3,a3,8
	or	a3,a3,a5
	lbu	a5,6(a4)
	slli	a0,a0,24
	slli	a5,a5,16
	or	a5,a5,a3
	or	a0,a0,a5
	call	lwip_htonl
.LVL165:
.LM627:
	lw	a2,12(sp)
	mv	a4,s4
	add	a3,s1,a0
	mv	a1,s3
	mv	a0,s2
	call	tcp_create_segment
.LVL166:
	mv	s4,a0
.LVL167:
.LM628:
.LM629:
	beq	a0,zero,.L108
.LM630:
.LM631:
	lhu	a5,30(sp)
	sub	s1,s1,s6
.LVL168:
.LM632:
	sh	a5,10(a0)
.LM633:
.LM634:
	lbu	a5,29(sp)
	sb	a5,12(a0)
.LM635:
.LM636:
	lbu	a5,13(a0)
	ori	a5,a5,4
	sb	a5,13(a0)
.LM637:
.LM638:
	lw	a0,4(s0)
.LVL169:
.LM639:
	call	pbuf_clen
.LVL170:
.LM640:
	lhu	a5,102(s2)
	sub	a5,a5,a0
	sh	a5,102(s2)
.LM641:
	lw	a0,4(s0)
	lhu	a1,8(a0)
	add	a1,s1,a1
	slli	a1,a1,16
	srli	a1,a1,16
	call	pbuf_realloc
.LVL171:
.LM642:
.LM643:
	lhu	a5,8(s0)
.LM644:
	mv	a0,s5
.LM645:
	add	s1,s1,a5
.LM646:
	lw	a5,16(s0)
.LM647:
	sh	s1,8(s0)
.LM648:
.LM649:
	lbu	s1,13(a5)
	lbu	a4,12(a5)
	slli	s1,s1,8
	or	s1,s1,a4
.LM650:
	call	lwip_htons
.LVL172:
.LM651:
	lw	a5,16(s0)
.LM652:
	or	a0,s1,a0
	sb	a0,12(a5)
	srli	a0,a0,8
	sb	a0,13(a5)
.LM653:
.LM654:
	lw	a0,4(s0)
	call	pbuf_clen
.LVL173:
.LM655:
	lhu	a5,102(s2)
	add	a0,a0,a5
	sh	a0,102(s2)
.LM656:
.LM657:
	lw	s3,4(s0)
.LVL174:
.LM658:
	sh	zero,10(s0)
.LM659:
.LM660:
	sb	zero,12(s0)
.LM661:
.LVL175:
.LM662:
.LM663:
	lhu	s1,8(s3)
	lhu	a5,8(s0)
	sub	s1,s1,a5
	slli	s1,s1,16
	srli	s1,s1,16
.LM664:
.LVL176:
.LM665:
.L113:
.LM666:
	lhu	a5,10(s3)
.LM667:
	bltu	a5,s1,.L115
.LVL177:
.L116:
.LM668:
	beq	s3,zero,.L114
.LM669:
.LM670:
	lhu	a1,10(s3)
	lw	a0,4(s3)
	sub	a1,a1,s1
	slli	a1,a1,16
	srli	a1,a1,16
	add	a0,a0,s1
	call	inet_chksum
.LVL178:
.LM671:
	lhu	a1,10(s3)
	not	a0,a0
	slli	a0,a0,16
	sub	a1,a1,s1
	slli	a1,a1,16
	addi	a3,s0,12
	addi	a2,s0,10
	srli	a1,a1,16
	srli	a0,a0,16
	call	tcp_seg_add_chksum
.LVL179:
.LM672:
.LM673:
	li	s1,0
.LM674:
	lw	s3,0(s3)
.LVL180:
.LM675:
	j	.L116
.LVL181:
.L115:
.LM676:
.LM677:
	lw	s3,0(s3)
.LVL182:
.LM678:
	sub	s1,s1,a5
.LVL183:
.LM679:
	slli	s1,s1,16
	srli	s1,s1,16
.LVL184:
.LM680:
.LM681:
	bne	s3,zero,.L113
.L114:
.LVL185:
.LM682:
.LM683:
	lw	a0,4(s4)
	call	pbuf_clen
.LVL186:
.LM684:
	lhu	a5,102(s2)
	add	a0,a0,a5
	sh	a0,102(s2)
.LM685:
.LM686:
	lw	a5,0(s0)
.LM687:
	sw	a5,0(s4)
.LM688:
.LM689:
	sw	s4,0(s0)
.LM690:
.LM691:
	lw	a5,0(s4)
	bne	a5,zero,.L107
.LM692:
.LM693:
	sh	zero,104(s2)
.LVL187:
.L107:
.LM694:
	li	a5,0
.L105:
.LM695:
	lw	ra,76(sp)
	.cfi_remember_state
	.cfi_restore 1
	lw	s0,72(sp)
	.cfi_restore 8
.LVL188:
.LM696:
	lw	s1,68(sp)
	.cfi_restore 9
	lw	s2,64(sp)
	.cfi_restore 18
	lw	s3,60(sp)
	.cfi_restore 19
	lw	s4,56(sp)
	.cfi_restore 20
	lw	s5,52(sp)
	.cfi_restore 21
	lw	s6,48(sp)
	.cfi_restore 22
	lw	s7,44(sp)
	.cfi_restore 23
	mv	a0,a5
	addi	sp,sp,80
	.cfi_def_cfa_offset 0
	jr	ra
.LVL189:
.L108:
	.cfi_restore_state
.LM697:
	li	s3,0
.LVL190:
.L109:
.LM698:
	lui	a5,%hi(lwip_stats)
	addi	a5,a5,%lo(lwip_stats)
	lhu	a4,160(a5)
	addi	a4,a4,1
	sh	a4,160(a5)
.LM699:
.LM700:
.LM701:
.LM702:
	beq	s3,zero,.L104
.LM703:
	mv	a0,s3
	call	pbuf_free
.LVL191:
.L104:
.LM704:
	li	a5,-1
	j	.L105
	.cfi_endproc
.LFE57:
	.size	tcp_split_unsent_seg, .-tcp_split_unsent_seg
	.section	.text.tcp_enqueue_flags,"ax",@progbits
	.align	1
	.globl	tcp_enqueue_flags
	.type	tcp_enqueue_flags, @function
tcp_enqueue_flags:
.LVL192:
.LFB59:
.LM705:
	.cfi_startproc
.LM706:
.LM707:
.LM708:
.LM709:
.LM710:
.LM711:
.LM712:
.LM713:
.LM714:
.LM715:
.LM716:
	srli	a4,a1,1
.LM717:
	addi	sp,sp,-32
	.cfi_def_cfa_offset 32
.LM718:
	andi	a4,a4,1
.LVL193:
.LM719:
.LM720:
.LM721:
	sw	s0,24(sp)
	sw	s1,20(sp)
	.cfi_offset 8, -8
	.cfi_offset 9, -12
	mv	s0,a0
	mv	s1,a1
.LM722:
	li	a2,640
	slli	a1,a4,2
.LVL194:
.LM723:
	li	a0,182
.LVL195:
.LM724:
	sw	a4,12(sp)
.LM725:
	sw	ra,28(sp)
	.cfi_offset 1, -4
.LM726:
	call	pbuf_alloc
.LVL196:
.LM727:
	lw	a4,12(sp)
	bne	a0,zero,.L138
.LVL197:
.L153:
.LM728:
.LM729:
.LM730:
	lhu	a5,26(s0)
.LM731:
	lui	a4,%hi(lwip_stats+160)
.LM732:
	li	a0,-1
.LM733:
	ori	a5,a5,128
.LM734:
	sh	a5,26(s0)
.LM735:
.LM736:
.LM737:
	lui	a5,%hi(lwip_stats+160)
.LM738:
	lhu	a5,%lo(lwip_stats+160)(a5)
	addi	a5,a5,1
.LM739:
.LM740:
	sh	a5,%lo(lwip_stats+160)(a4)
.LVL198:
.L141:
.LM741:
	lw	ra,28(sp)
	.cfi_remember_state
	.cfi_restore 1
	lw	s0,24(sp)
	.cfi_restore 8
.LVL199:
.LM742:
	lw	s1,20(sp)
	.cfi_restore 9
	addi	sp,sp,32
	.cfi_def_cfa_offset 0
.LVL200:
.LM743:
	jr	ra
.LVL201:
.L138:
	.cfi_restore_state
.LM744:
	lw	a3,92(s0)
	mv	a1,a0
.LM745:
.LM746:
.LM747:
.LM748:
	mv	a2,s1
	mv	a0,s0
.LVL202:
.LM749:
	call	tcp_create_segment
.LVL203:
.LM750:
	beq	a0,zero,.L153
.LM751:
.LM752:
.LM753:
.LM754:
.LM755:
.LM756:
.LM757:
	lw	a5,108(s0)
.LM758:
	bne	a5,zero,.L142
.LM759:
.LM760:
	sw	a0,108(s0)
.L143:
.LM761:
.LM762:
	sh	zero,104(s0)
.LM763:
.LM764:
	andi	a5,s1,3
	beq	a5,zero,.L145
.LM765:
.LM766:
	lw	a5,92(s0)
.LM767:
	andi	s1,s1,1
.LM768:
	addi	a5,a5,1
	sw	a5,92(s0)
.LM769:
.LM770:
	beq	s1,zero,.L145
.LM771:
.LM772:
.LM773:
	lhu	a5,26(s0)
	ori	a5,a5,32
.LM774:
	sh	a5,26(s0)
.L145:
.LM775:
.LM776:
.LM777:
	lw	a0,4(a0)
.LVL204:
.LM778:
	call	pbuf_clen
.LVL205:
.LM779:
	lhu	a5,102(s0)
	add	a0,a0,a5
	sh	a0,102(s0)
.LM780:
.LM781:
.LM782:
.LM783:
.LM784:
.LM785:
	li	a0,0
	j	.L141
.LVL206:
.L142:
.LBB55:
.LM786:
	mv	a4,a5
.LM787:
	lw	a5,0(a5)
.LVL207:
.LM788:
	bne	a5,zero,.L142
.LM789:
.LM790:
	sw	a0,0(a4)
	j	.L143
.LBE55:
	.cfi_endproc
.LFE59:
	.size	tcp_enqueue_flags, .-tcp_enqueue_flags
	.section	.text.tcp_send_fin,"ax",@progbits
	.align	1
	.globl	tcp_send_fin
	.type	tcp_send_fin, @function
tcp_send_fin:
.LVL208:
.LFB58:
.LM791:
	.cfi_startproc
.LM792:
.LM793:
.LM794:
.LM795:
	addi	sp,sp,-16
	.cfi_def_cfa_offset 16
	sw	s1,4(sp)
	sw	ra,12(sp)
	sw	s0,8(sp)
	sw	s2,0(sp)
	.cfi_offset 9, -12
	.cfi_offset 1, -4
	.cfi_offset 8, -8
	.cfi_offset 18, -16
.LM796:
	lw	a5,108(a0)
.LM797:
	mv	s1,a0
.LM798:
	beq	a5,zero,.L155
.L156:
.LVL209:
.LBB56:
.LM799:
	mv	s2,a5
.LM800:
	lw	a5,0(a5)
.LVL210:
.LM801:
	bne	a5,zero,.L156
.LM802:
.LM803:
	lw	a5,16(s2)
	lbu	a0,12(a5)
.LVL211:
.LM804:
	lbu	a5,13(a5)
	slli	a5,a5,8
	or	a0,a5,a0
	call	lwip_htons
.LVL212:
.LM805:
	andi	a0,a0,7
	beq	a0,zero,.L163
.LVL213:
.L155:
.LM806:
.LBE56:
.LM807:
.LM808:
	lw	s0,8(sp)
	.cfi_remember_state
	.cfi_restore 8
	lw	ra,12(sp)
	.cfi_restore 1
	lw	s2,0(sp)
	.cfi_restore 18
.LM809:
	mv	a0,s1
.LM810:
	lw	s1,4(sp)
	.cfi_restore 9
.LVL214:
.LM811:
	li	a1,1
.LM812:
	addi	sp,sp,16
	.cfi_def_cfa_offset 0
.LM813:
	tail	tcp_enqueue_flags
.LVL215:
.L163:
	.cfi_restore_state
.LBB57:
.LM814:
.LM815:
	lw	a5,16(s2)
	lbu	a0,13(a5)
	lbu	a4,12(a5)
	slli	a0,a0,8
	or	s0,a0,a4
.LM816:
	li	a0,1
	call	lwip_htons
.LVL216:
.LM817:
	lw	a5,16(s2)
.LM818:
	or	a0,s0,a0
	sb	a0,12(a5)
	srli	a0,a0,8
	sb	a0,13(a5)
.LM819:
.LM820:
.LM821:
	lhu	a5,26(s1)
.LBE57:
.LM822:
	li	a0,0
.LBB58:
.LM823:
	ori	a5,a5,32
.LM824:
	sh	a5,26(s1)
.LM825:
.LM826:
.LBE58:
.LM827:
	lw	ra,12(sp)
	.cfi_restore 1
	lw	s0,8(sp)
	.cfi_restore 8
	lw	s1,4(sp)
	.cfi_restore 9
.LVL217:
.LM828:
	lw	s2,0(sp)
	.cfi_restore 18
.LVL218:
.LM829:
	addi	sp,sp,16
	.cfi_def_cfa_offset 0
	jr	ra
	.cfi_endproc
.LFE58:
	.size	tcp_send_fin, .-tcp_send_fin
	.section	.text.tcp_rexmit_rto_prepare,"ax",@progbits
	.align	1
	.globl	tcp_rexmit_rto_prepare
	.type	tcp_rexmit_rto_prepare, @function
tcp_rexmit_rto_prepare:
.LVL219:
.LFB63:
.LM830:
	.cfi_startproc
.LM831:
.LM832:
.LM833:
.LM834:
.LM835:
	lw	a5,112(a0)
.LM836:
	beq	a5,zero,.L169
.LM837:
	addi	sp,sp,-32
	.cfi_def_cfa_offset 32
	sw	ra,28(sp)
	sw	s0,24(sp)
	sw	s1,20(sp)
	sw	s2,16(sp)
	sw	s3,12(sp)
	.cfi_offset 1, -4
	.cfi_offset 8, -8
	.cfi_offset 9, -12
	.cfi_offset 18, -16
	.cfi_offset 19, -20
	li	a4,1
.L167:
.LVL220:
.LM838:
	mv	s1,a5
.LBB63:
.LBB64:
.LM839:
	lw	a3,4(s1)
.LBE64:
.LBE63:
.LM840:
	lw	a5,0(a5)
.LVL221:
.LBB67:
.LBB65:
.LM841:
	lbu	a3,14(a3)
.LBE65:
.LBE67:
.LM842:
	bne	a5,zero,.L168
.LM843:
.LBB68:
.LBI68:
.LM844:
.LVL222:
.LBB69:
.LM845:
.LM846:
.LM847:
.LBE69:
.LBE68:
.LM848:
	li	a5,-6
.LBB71:
.LBB70:
.LM849:
	bne	a3,a4,.L166
.LBE70:
.LBE71:
.LM850:
	lw	a5,108(a0)
.LM851:
	li	a4,4096
	addi	a4,a4,-2048
.LM852:
	sw	a5,0(s1)
.LM853:
	lw	a5,112(a0)
.LM854:
	sw	zero,112(a0)
	mv	s0,a0
.LVL223:
.LM855:
.LM856:
.LM857:
	sw	a5,108(a0)
.LM858:
.LM859:
.LM860:
.LM861:
	lhu	a5,26(a0)
	or	a5,a5,a4
.LM862:
	sh	a5,26(a0)
.LM863:
.LM864:
.LM865:
	lw	a3,16(s1)
	lbu	a4,5(a3)
	lbu	a5,4(a3)
	lbu	a0,7(a3)
.LVL224:
.LM866:
	slli	a4,a4,8
	or	a4,a4,a5
	lbu	a5,6(a3)
	slli	a0,a0,24
	slli	a5,a5,16
	or	a5,a5,a4
	or	a0,a0,a5
	call	lwip_htonl
.LVL225:
.LM867:
	lw	a5,16(s1)
.LM868:
	mv	s3,a0
.LM869:
	lhu	s2,8(s1)
.LM870:
	lbu	a0,12(a5)
	lbu	a5,13(a5)
	slli	a5,a5,8
	or	a0,a5,a0
	call	lwip_htons
.LVL226:
.LM871:
	andi	a0,a0,3
.LM872:
	add	a5,s3,s2
.LM873:
	snez	a0,a0
.LM874:
	add	a0,a0,a5
.LM875:
	sw	a0,76(s0)
.LM876:
.LM877:
	sw	zero,52(s0)
.LM878:
.LM879:
	li	a5,0
.LVL227:
.L166:
.LM880:
	lw	ra,28(sp)
	.cfi_remember_state
	.cfi_restore 1
	lw	s0,24(sp)
	.cfi_restore 8
	lw	s1,20(sp)
	.cfi_restore 9
.LVL228:
.LM881:
	lw	s2,16(sp)
	.cfi_restore 18
	lw	s3,12(sp)
	.cfi_restore 19
	mv	a0,a5
	addi	sp,sp,32
	.cfi_def_cfa_offset 0
	jr	ra
.LVL229:
.L168:
	.cfi_restore_state
.LM882:
.LBB72:
.LBI63:
.LM883:
.LBB66:
.LM884:
.LM885:
.LM886:
.LM887:
	beq	a3,a4,.L167
.LBE66:
.LBE72:
.LM888:
	li	a5,-6
	j	.L166
.LVL230:
.L169:
	.cfi_def_cfa_offset 0
	.cfi_restore 1
	.cfi_restore 8
	.cfi_restore 9
	.cfi_restore 18
	.cfi_restore 19
.LM889:
	li	a5,-6
.LM890:
	mv	a0,a5
.LVL231:
.LM891:
	ret
	.cfi_endproc
.LFE63:
	.size	tcp_rexmit_rto_prepare, .-tcp_rexmit_rto_prepare
	.section	.text.tcp_rexmit,"ax",@progbits
	.align	1
	.globl	tcp_rexmit
	.type	tcp_rexmit, @function
tcp_rexmit:
.LVL232:
.LFB66:
.LM892:
	.cfi_startproc
.LM893:
.LM894:
.LM895:
.LM896:
.LM897:
.LM898:
	addi	sp,sp,-32
	.cfi_def_cfa_offset 32
	sw	ra,28(sp)
	sw	s0,24(sp)
	sw	s1,20(sp)
	sw	s2,16(sp)
	sw	s3,12(sp)
	.cfi_offset 1, -4
	.cfi_offset 8, -8
	.cfi_offset 9, -12
	.cfi_offset 18, -16
	.cfi_offset 19, -20
.LM899:
	lw	s1,112(a0)
.LM900:
	li	a5,-6
.LM901:
	beq	s1,zero,.L177
.LM902:
.LVL233:
.LM903:
.LBB75:
.LBI75:
.LM904:
.LBB76:
.LM905:
.LM906:
.LM907:
.LM908:
	lw	a5,4(s1)
.LM909:
	li	a4,1
	lbu	a3,14(a5)
.LBE76:
.LBE75:
.LM910:
	li	a5,-6
.LBB78:
.LBB77:
.LM911:
	bne	a3,a4,.L177
.LBE77:
.LBE78:
.LM912:
	lw	a5,0(s1)
	mv	s0,a0
.LVL234:
.LM913:
.LM914:
	addi	s2,a0,108
.LM915:
	sw	a5,112(a0)
.LM916:
.LVL235:
.LM917:
.L178:
.LM918:
.LM919:
	lw	a5,0(s2)
.LM920:
	bne	a5,zero,.L179
.L183:
.LM921:
.LM922:
	lw	a5,0(s2)
.LM923:
	sw	a5,0(s1)
.LM924:
.LM925:
	sw	s1,0(s2)
.LM926:
.LM927:
	lw	a5,0(s1)
	bne	a5,zero,.L181
.LM928:
.LM929:
	sh	zero,104(s0)
.L181:
.LM930:
.LM931:
	lbu	a5,66(s0)
.LM932:
	li	a4,255
	beq	a5,a4,.L184
.LM933:
	addi	a5,a5,1
	sb	a5,66(s0)
.L184:
.LM934:
.LM935:
	sw	zero,52(s0)
.LM936:
.LM937:
.LM938:
	li	a5,0
.LVL236:
.L177:
.LM939:
	lw	ra,28(sp)
	.cfi_remember_state
	.cfi_restore 1
	lw	s0,24(sp)
	.cfi_restore 8
	lw	s1,20(sp)
	.cfi_restore 9
	lw	s2,16(sp)
	.cfi_restore 18
	lw	s3,12(sp)
	.cfi_restore 19
	mv	a0,a5
	addi	sp,sp,32
	.cfi_def_cfa_offset 0
	jr	ra
.LVL237:
.L179:
	.cfi_restore_state
.LM940:
	lw	a3,16(a5)
	lbu	a4,5(a3)
	lbu	a5,4(a3)
	lbu	a0,7(a3)
	slli	a4,a4,8
	or	a4,a4,a5
	lbu	a5,6(a3)
	slli	a0,a0,24
	slli	a5,a5,16
	or	a5,a5,a4
	or	a0,a0,a5
	call	lwip_htonl
.LVL238:
.LM941:
	lw	a3,16(s1)
.LM942:
	mv	s3,a0
.LM943:
	lbu	a4,5(a3)
	lbu	a5,4(a3)
	lbu	a0,7(a3)
	slli	a4,a4,8
	or	a4,a4,a5
	lbu	a5,6(a3)
	slli	a0,a0,24
	slli	a5,a5,16
	or	a5,a5,a4
	or	a0,a0,a5
	call	lwip_htonl
.LVL239:
.LM944:
	sub	a0,s3,a0
.LM945:
	bge	a0,zero,.L183
.LM946:
	lw	s2,0(s2)
.LVL240:
.LM947:
	j	.L178
	.cfi_endproc
.LFE66:
	.size	tcp_rexmit, .-tcp_rexmit
	.section	.text.tcp_rexmit_fast,"ax",@progbits
	.align	1
	.globl	tcp_rexmit_fast
	.type	tcp_rexmit_fast, @function
tcp_rexmit_fast:
.LVL241:
.LFB67:
.LM948:
	.cfi_startproc
.LM949:
.LM950:
.LM951:
.LM952:
	lw	a5,112(a0)
	beq	a5,zero,.L195
.LM953:
	addi	sp,sp,-16
	.cfi_def_cfa_offset 16
	sw	s0,8(sp)
	sw	ra,12(sp)
	.cfi_offset 8, -8
	.cfi_offset 1, -4
.LM954:
	lhu	a5,26(a0)
	mv	s0,a0
	andi	a5,a5,4
	bne	a5,zero,.L188
.LM955:
.LM956:
.LM957:
	call	tcp_rexmit
.LVL242:
.LM958:
	bne	a0,zero,.L188
.LM959:
.LM960:
	lhu	a3,96(s0)
	lhu	a4,72(s0)
	mv	a5,a3
	bleu	a3,a4,.L192
	mv	a5,a4
.L192:
.LM961:
	slli	a4,a5,16
	srli	a5,a4,17
.LM962:
	lhu	a4,50(s0)
.LM963:
	sh	a5,74(s0)
.LM964:
.LM965:
	slli	a3,a4,1
.LM966:
	bgeu	a5,a3,.L193
.LM967:
.LM968:
.LM969:
	mv	a5,a3
	sh	a3,74(s0)
.L193:
.LM970:
.LM971:
	li	a3,3
	mul	a4,a4,a3
.LM972:
	sh	zero,48(s0)
.LM973:
	add	a5,a5,a4
.LM974:
	sh	a5,72(s0)
.LM975:
.LM976:
.LM977:
	lhu	a5,26(s0)
	ori	a5,a5,4
.LM978:
	sh	a5,26(s0)
.LM979:
.LM980:
.L188:
.LM981:
	lw	ra,12(sp)
	.cfi_restore 1
	lw	s0,8(sp)
	.cfi_restore 8
.LVL243:
.LM982:
	addi	sp,sp,16
	.cfi_def_cfa_offset 0
	jr	ra
.LVL244:
.L195:
.LM983:
	ret
	.cfi_endproc
.LFE67:
	.size	tcp_rexmit_fast, .-tcp_rexmit_fast
	.section	.text.tcp_rst,"ax",@progbits
	.align	1
	.globl	tcp_rst
	.type	tcp_rst, @function
tcp_rst:
.LVL245:
.LFB74:
.LM984:
	.cfi_startproc
.LM985:
.LM986:
.LM987:
	addi	sp,sp,-48
	.cfi_def_cfa_offset 48
	sw	s0,40(sp)
	.cfi_offset 8, -8
	mv	s0,a0
.LBB81:
.LBB82:
.LM988:
	mv	a0,a1
.LVL246:
.LM989:
.LBE82:
.LBE81:
.LM990:
	sw	s1,36(sp)
	sw	s2,32(sp)
	sw	s3,28(sp)
	.cfi_offset 9, -12
	.cfi_offset 18, -16
	.cfi_offset 19, -20
	mv	s1,a2
	sw	ra,44(sp)
	.cfi_offset 1, -4
.LM991:
	mv	s2,a3
	mv	s3,a4
.LVL247:
.LBB85:
.LBI81:
.LM992:
.LBB83:
.LM993:
.LM994:
.LM995:
.LM996:
.LM997:
.LM998:
.LM999:
.LM1000:
.LM1001:
.LM1002:
.LM1003:
.LM1004:
.LBE83:
.LBE85:
.LM1005:
	sw	a5,12(sp)
.LVL248:
.LM1006:
	sw	a6,8(sp)
.LVL249:
.LBB86:
.LBB84:
.LM1007:
	call	lwip_htonl
.LVL250:
.LM1008:
	lw	a4,8(sp)
	lw	a3,12(sp)
	li	a6,4096
.LM1009:
	mv	a2,a0
.LM1010:
	addi	a6,a6,8
	li	a5,20
	li	a1,0
	mv	a0,s1
	call	tcp_output_alloc_header_common.constprop.0
.LVL251:
.LM1011:
.LM1012:
.LBE84:
.LBE86:
.LM1013:
.LM1014:
	beq	a0,zero,.L198
	mv	a1,a0
.LM1015:
	mv	a0,s0
.LVL252:
.LM1016:
	lw	s0,40(sp)
	.cfi_remember_state
	.cfi_restore 8
.LVL253:
.LM1017:
	lw	ra,44(sp)
	.cfi_restore 1
	lw	s1,36(sp)
	.cfi_restore 9
.LVL254:
.LM1018:
	mv	a3,s3
	mv	a2,s2
.LM1019:
	lw	s3,28(sp)
	.cfi_restore 19
.LVL255:
.LM1020:
	lw	s2,32(sp)
	.cfi_restore 18
.LVL256:
.LM1021:
	addi	sp,sp,48
	.cfi_def_cfa_offset 0
.LVL257:
.LM1022:
	tail	tcp_output_control_segment
.LVL258:
.L198:
	.cfi_restore_state
.LM1023:
	lw	ra,44(sp)
	.cfi_restore 1
	lw	s0,40(sp)
	.cfi_restore 8
.LVL259:
.LM1024:
	lw	s1,36(sp)
	.cfi_restore 9
.LVL260:
.LM1025:
	lw	s2,32(sp)
	.cfi_restore 18
.LVL261:
.LM1026:
	lw	s3,28(sp)
	.cfi_restore 19
.LVL262:
.LM1027:
	addi	sp,sp,48
	.cfi_def_cfa_offset 0
.LVL263:
.LM1028:
	jr	ra
	.cfi_endproc
.LFE74:
	.size	tcp_rst, .-tcp_rst
	.section	.text.tcp_rst_netif,"ax",@progbits
	.align	1
	.globl	tcp_rst_netif
	.type	tcp_rst_netif, @function
tcp_rst_netif:
.LVL264:
.LFB75:
.LM1029:
	.cfi_startproc
.LM1030:
.LM1031:
	beq	a0,zero,.L209
.LM1032:
	addi	sp,sp,-32
	.cfi_def_cfa_offset 32
	sw	s0,24(sp)
	.cfi_offset 8, -8
	mv	s0,a0
	mv	a0,a1
.LVL265:
.LBB90:
.LM1033:
.LBE90:
.LM1034:
	sw	ra,28(sp)
	sw	s1,20(sp)
	sw	s2,16(sp)
	.cfi_offset 1, -4
	.cfi_offset 9, -12
	.cfi_offset 18, -16
	mv	s1,a2
	sw	s3,12(sp)
	sw	s4,8(sp)
	sw	s5,4(sp)
	.cfi_offset 19, -20
	.cfi_offset 20, -24
	.cfi_offset 21, -28
	mv	s4,a5
	mv	s5,a6
	mv	s3,a4
	mv	s2,a3
.LVL266:
.LBB93:
.LBB91:
.LBI91:
.LM1035:
.LBB92:
.LM1036:
.LM1037:
.LM1038:
.LM1039:
.LM1040:
.LM1041:
.LM1042:
.LM1043:
.LM1044:
.LM1045:
.LM1046:
.LM1047:
.LM1048:
	call	lwip_htonl
.LVL267:
.LM1049:
	li	a6,4096
.LM1050:
	mv	a2,a0
.LM1051:
	li	a1,0
	addi	a6,a6,8
	li	a5,20
	mv	a4,s5
	mv	a3,s4
	mv	a0,s1
	call	tcp_output_alloc_header_common.constprop.0
.LVL268:
	mv	a1,a0
.LM1052:
.LVL269:
.LM1053:
.LBE92:
.LBE91:
.LM1054:
.LM1055:
	beq	a0,zero,.L201
.LM1056:
	mv	a4,s0
.LBE93:
.LM1057:
	lw	s0,24(sp)
	.cfi_remember_state
	.cfi_restore 8
.LVL270:
.LM1058:
	lw	ra,28(sp)
	.cfi_restore 1
	lw	s1,20(sp)
	.cfi_restore 9
.LVL271:
.LM1059:
	lw	s4,8(sp)
	.cfi_restore 20
.LVL272:
.LM1060:
	lw	s5,4(sp)
	.cfi_restore 21
.LVL273:
.LBB94:
.LM1061:
	mv	a3,s3
	mv	a2,s2
.LBE94:
.LM1062:
	lw	s3,12(sp)
	.cfi_restore 19
.LVL274:
.LM1063:
	lw	s2,16(sp)
	.cfi_restore 18
.LVL275:
.LBB95:
.LM1064:
	li	a0,0
.LVL276:
.LM1065:
.LBE95:
.LM1066:
	addi	sp,sp,32
	.cfi_def_cfa_offset 0
.LBB96:
.LM1067:
	tail	tcp_output_control_segment_netif
.LVL277:
.L201:
	.cfi_restore_state
.LM1068:
.LBE96:
.LM1069:
	lw	ra,28(sp)
	.cfi_restore 1
	lw	s0,24(sp)
	.cfi_restore 8
.LVL278:
.LM1070:
	lw	s1,20(sp)
	.cfi_restore 9
.LVL279:
.LM1071:
	lw	s2,16(sp)
	.cfi_restore 18
.LVL280:
.LM1072:
	lw	s3,12(sp)
	.cfi_restore 19
.LVL281:
.LM1073:
	lw	s4,8(sp)
	.cfi_restore 20
	lw	s5,4(sp)
	.cfi_restore 21
	addi	sp,sp,32
	.cfi_def_cfa_offset 0
	jr	ra
.LVL282:
.L209:
.LM1074:
	ret
	.cfi_endproc
.LFE75:
	.size	tcp_rst_netif, .-tcp_rst_netif
	.section	.text.tcp_send_empty_ack,"ax",@progbits
	.align	1
	.globl	tcp_send_empty_ack
	.type	tcp_send_empty_ack, @function
tcp_send_empty_ack:
.LVL283:
.LFB76:
.LM1075:
	.cfi_startproc
.LM1076:
.LM1077:
.LM1078:
.LM1079:
.LM1080:
.LM1081:
.LM1082:
.LM1083:
.LM1084:
	addi	sp,sp,-16
	.cfi_def_cfa_offset 16
	sw	s0,8(sp)
	sw	ra,12(sp)
	.cfi_offset 8, -8
	.cfi_offset 1, -4
.LM1085:
	mv	s0,a0
.LM1086:
	lw	a0,80(a0)
.LVL284:
.LM1087:
	call	lwip_htonl
.LVL285:
	mv	a2,a0
.LM1088:
	li	a1,0
	mv	a0,s0
	call	tcp_output_alloc_header.constprop.0
.LVL286:
.LM1089:
.LM1090:
	bne	a0,zero,.L213
.LM1091:
.LM1092:
.LM1093:
	lhu	a5,26(s0)
.LM1094:
	li	a0,-2
.LVL287:
.LM1095:
	ori	a5,a5,3
.LM1096:
.LM1097:
.LM1098:
.L214:
.LM1099:
	sh	a5,26(s0)
.LM1100:
	lw	ra,12(sp)
	.cfi_remember_state
	.cfi_restore 1
	lw	s0,8(sp)
	.cfi_restore 8
.LVL288:
.LM1101:
	addi	sp,sp,16
	.cfi_def_cfa_offset 0
	jr	ra
.LVL289:
.L213:
	.cfi_restore_state
.LM1102:
	mv	a1,a0
.LM1103:
.LVL290:
.LM1104:
.LM1105:
.LM1106:
	addi	a3,s0,4
	mv	a2,s0
	mv	a0,s0
.LVL291:
.LM1107:
	call	tcp_output_control_segment
.LVL292:
.LM1108:
.LM1109:
	lhu	a4,26(s0)
.LM1110:
	andi	a5,a4,-4
.LM1111:
	beq	a0,zero,.L214
.LM1112:
.LM1113:
.LM1114:
	ori	a5,a4,3
.LM1115:
	j	.L214
	.cfi_endproc
.LFE76:
	.size	tcp_send_empty_ack, .-tcp_send_empty_ack
	.section	.text.tcp_output,"ax",@progbits
	.align	1
	.globl	tcp_output
	.type	tcp_output, @function
tcp_output:
.LVL293:
.LFB60:
.LM1116:
	.cfi_startproc
.LM1117:
.LM1118:
.LM1119:
.LM1120:
.LM1121:
.LM1122:
.LM1123:
.LM1124:
.LM1125:
.LM1126:
.LM1127:
.LM1128:
	addi	sp,sp,-80
	.cfi_def_cfa_offset 80
	sw	s0,72(sp)
.LVL294:
.LM1129:
	sw	ra,76(sp)
	sw	s1,68(sp)
	sw	s2,64(sp)
	sw	s3,60(sp)
	sw	s4,56(sp)
	sw	s5,52(sp)
	sw	s6,48(sp)
	sw	s7,44(sp)
	sw	s8,40(sp)
	sw	s9,36(sp)
	sw	s10,32(sp)
	sw	s11,28(sp)
	.cfi_offset 8, -8
	.cfi_offset 1, -4
	.cfi_offset 9, -12
	.cfi_offset 18, -16
	.cfi_offset 19, -20
	.cfi_offset 20, -24
	.cfi_offset 21, -28
	.cfi_offset 22, -32
	.cfi_offset 23, -36
	.cfi_offset 24, -40
	.cfi_offset 25, -44
	.cfi_offset 26, -48
	.cfi_offset 27, -52
.LM1130:
	lw	s1,108(a0)
.LVL295:
.LM1131:
.LM1132:
	mv	s0,a0
.LM1133:
	bne	s1,zero,.L218
.LM1134:
.LM1135:
.LM1136:
.LM1137:
	lhu	a5,26(a0)
	andi	a5,a5,2
	beq	a5,zero,.L220
.L294:
.LM1138:
	lw	s0,72(sp)
	.cfi_remember_state
	.cfi_restore 8
	lw	ra,76(sp)
	.cfi_restore 1
	lw	s1,68(sp)
	.cfi_restore 9
.LVL296:
.LM1139:
	lw	s2,64(sp)
	.cfi_restore 18
	lw	s3,60(sp)
	.cfi_restore 19
	lw	s4,56(sp)
	.cfi_restore 20
	lw	s5,52(sp)
	.cfi_restore 21
	lw	s6,48(sp)
	.cfi_restore 22
	lw	s7,44(sp)
	.cfi_restore 23
	lw	s8,40(sp)
	.cfi_restore 24
	lw	s9,36(sp)
	.cfi_restore 25
	lw	s10,32(sp)
	.cfi_restore 26
	lw	s11,28(sp)
	.cfi_restore 27
	addi	sp,sp,80
	.cfi_def_cfa_offset 0
.LM1140:
	tail	tcp_send_empty_ack
.LVL297:
.L218:
	.cfi_restore_state
.LM1141:
	lhu	s5,72(a0)
.LM1142:
	lhu	s2,96(a0)
.LM1143:
.LM1144:
.LVL298:
.LBB107:
.LBI107:
.LM1145:
.LBB108:
.LM1146:
.LM1147:
.LM1148:
	lbu	a0,8(a0)
.LM1149:
	beq	a0,zero,.L221
.LM1150:
.LM1151:
	call	netif_get_by_index
.LVL299:
.L293:
.LM1152:
	mv	s3,a0
.LVL300:
.LM1153:
.LBE108:
.LBE107:
.LM1154:
.LM1155:
	beq	a0,zero,.L257
.LM1156:
	mv	s4,s5
	bleu	s5,s2,.L224
	mv	s4,s2
.L224:
.LM1157:
	lw	a5,0(s0)
.LM1158:
	slli	s4,s4,16
	srli	s4,s4,16
.LM1159:
.LM1160:
	bne	a5,zero,.L225
.LBB110:
.LM1161:
.LVL301:
.LM1162:
.LM1163:
.LM1164:
	lw	a5,4(s3)
.LM1165:
	sw	a5,0(s0)
.LVL302:
.L225:
.LM1166:
.LBE110:
.LM1167:
.LM1168:
	lw	a3,16(s1)
	lbu	a4,5(a3)
	lbu	a5,4(a3)
	lbu	a0,7(a3)
.LVL303:
.LM1169:
	slli	a4,a4,8
	or	a4,a4,a5
	lbu	a5,6(a3)
	slli	a0,a0,24
	slli	a5,a5,16
	or	a5,a5,a4
	or	a0,a0,a5
	call	lwip_htonl
.LVL304:
.LM1170:
	lhu	a5,8(s1)
.LM1171:
	lw	a4,68(s0)
	sub	a5,a5,a4
	add	a5,a5,a0
.LM1172:
	bleu	a5,s4,.L226
.LM1173:
.LM1174:
	lhu	a5,96(s0)
	bne	a5,s4,.L227
.LM1175:
	lw	a5,112(s0)
	bne	a5,zero,.L227
.LM1176:
	lbu	a5,161(s0)
	bne	a5,zero,.L227
.LM1177:
.LM1178:
.LM1179:
.LM1180:
	li	a5,256
	sh	a5,160(s0)
.LM1181:
	sb	zero,162(s0)
.L227:
.LM1182:
.LM1183:
	lhu	a5,26(s0)
	andi	a5,a5,2
	beq	a5,zero,.L220
.LM1184:
.LM1185:
	mv	a0,s0
	j	.L294
.LVL305:
.L221:
.LBB111:
.LBB109:
.LM1186:
.LM1187:
	addi	a0,s0,4
	call	ip4_route
.LVL306:
	j	.L293
.LVL307:
.L226:
.LM1188:
.LBE109:
.LBE111:
.LM1189:
.LM1190:
	lw	s2,112(s0)
.LM1191:
	sb	zero,161(s0)
.LM1192:
.LVL308:
.LM1193:
.LM1194:
	beq	s2,zero,.L229
.LVL309:
.L230:
.LM1195:
	mv	a5,s2
.LM1196:
	lw	s2,0(s2)
.LVL310:
.LM1197:
	bne	s2,zero,.L230
	mv	s2,a5
.LVL311:
.L229:
.LM1198:
.LBB112:
.LBB113:
.LM1199:
	lui	s5,%hi(lwip_stats)
.LBE113:
.LBE112:
.LM1200:
	li	s6,2
.LBB124:
.LBB122:
.LBB114:
.LBB115:
.LM1201:
	li	s7,1
.LBE115:
.LBE114:
.LM1202:
	addi	s5,s5,%lo(lwip_stats)
.LM1203:
	lui	s8,%hi(tcp_ticks)
	j	.L254
.L231:
.LM1204:
.LBE122:
.LBE124:
.LM1205:
.LM1206:
	lbu	a5,20(s0)
	beq	a5,s6,.L234
.LM1207:
.LM1208:
	lw	a5,16(s1)
	lbu	a0,13(a5)
	lbu	a4,12(a5)
	slli	a0,a0,8
	or	s9,a0,a4
.LM1209:
	li	a0,16
	call	lwip_htons
.LVL312:
.LM1210:
	lw	a5,16(s1)
.LM1211:
	or	a0,s9,a0
	sb	a0,12(a5)
	srli	a0,a0,8
	sb	a0,13(a5)
.L234:
.LM1212:
.LVL313:
.LBB125:
.LBI112:
.LM1213:
.LBB123:
.LM1214:
.LM1215:
.LM1216:
.LM1217:
.LM1218:
.LM1219:
.LM1220:
.LM1221:
.LM1222:
.LM1223:
.LM1224:
.LBB117:
.LBI114:
.LM1225:
.LBB116:
.LM1226:
.LM1227:
.LM1228:
.LM1229:
	lw	a5,4(s1)
.LM1230:
	lbu	a5,14(a5)
	bne	a5,s7,.L235
.LVL314:
.LM1231:
.LBE116:
.LBE117:
.LM1232:
.LM1233:
	lw	a0,36(s0)
.LM1234:
	lw	s9,16(s1)
.LM1235:
	call	lwip_htonl
.LVL315:
.LM1236:
	srli	a5,a0,8
	sb	a0,8(s9)
	sb	a5,9(s9)
	srli	a5,a0,16
	srli	a0,a0,24
	sb	a5,10(s9)
	sb	a0,11(s9)
.LM1237:
.LM1238:
	lhu	a0,42(s0)
.LM1239:
	lw	s9,16(s1)
.LM1240:
	call	lwip_htons
.LVL316:
.LM1241:
	sb	a0,14(s9)
	srli	a0,a0,8
	sb	a0,15(s9)
.LM1242:
.LM1243:
	lhu	a4,42(s0)
.LM1244:
	lw	a5,36(s0)
	add	a5,a5,a4
.LM1245:
	sw	a5,44(s0)
.LM1246:
.LVL317:
.LM1247:
.LM1248:
	lbu	a5,13(s1)
	andi	a5,a5,1
	beq	a5,zero,.L236
.LBB118:
.LM1249:
	addi	a2,s0,4
	mv	a1,s3
	li	a0,688
.LBE118:
.LM1250:
	lw	s9,16(s1)
.LBB119:
.LM1251:
.LM1252:
.LM1253:
	call	tcp_eff_send_mss_netif
.LVL318:
.LM1254:
.LM1255:
	li	a5,33816576
	or	a0,a0,a5
.LVL319:
.LM1256:
	call	lwip_htonl
.LVL320:
.LM1257:
	sw	a0,20(s9)
.LM1258:
.LVL321:
.L236:
.LM1259:
.LBE119:
.LM1260:
.LM1261:
	lh	a5,48(s0)
	bge	a5,zero,.L237
.LM1262:
.LM1263:
	sh	zero,48(s0)
.L237:
.LM1264:
.LM1265:
	lw	a5,52(s0)
	bne	a5,zero,.L238
.LM1266:
.LM1267:
	lw	a5,%lo(tcp_ticks)(s8)
	sw	a5,52(s0)
.LM1268:
.LM1269:
	lw	a3,16(s1)
	lbu	a4,5(a3)
	lbu	a5,4(a3)
	lbu	a0,7(a3)
	slli	a4,a4,8
	or	a4,a4,a5
	lbu	a5,6(a3)
	slli	a0,a0,24
	slli	a5,a5,16
	or	a5,a5,a4
	or	a0,a0,a5
	call	lwip_htonl
.LVL322:
.LM1270:
	sw	a0,56(s0)
.L238:
.LM1271:
.LM1272:
.LM1273:
.LM1274:
	lw	a4,4(s1)
.LM1275:
	lw	a5,16(s1)
	lw	a3,4(a4)
.LM1276:
	sub	a5,a5,a3
.LVL323:
.LM1277:
.LM1278:
.LM1279:
.LM1280:
	lhu	a3,10(a4)
	sub	a3,a3,a5
	sh	a3,10(a4)
.LM1281:
.LM1282:
	lw	a3,4(s1)
.LM1283:
	lhu	a4,8(a3)
	sub	a5,a4,a5
.LVL324:
.LM1284:
	sh	a5,8(a3)
.LM1285:
.LM1286:
	lw	a5,16(s1)
.LM1287:
	lw	a4,4(s1)
.LM1288:
	sw	a5,4(a4)
.LM1289:
.LM1290:
	sb	zero,16(a5)
	sb	zero,17(a5)
.LM1291:
.LM1292:
.LBB120:
.LM1293:
.LM1294:
.LM1295:
	lbu	a5,13(s1)
	andi	a5,a5,4
	bne	a5,zero,.L239
.LM1296:
.LM1297:
.LM1298:
	lw	a5,16(s1)
	lbu	a0,12(a5)
	lbu	a5,13(a5)
	slli	a5,a5,8
	or	a0,a5,a0
	call	lwip_htons
.LVL325:
.L239:
.LM1299:
.LM1300:
.LM1301:
.LM1302:
	lw	s9,4(s1)
.LM1303:
	lw	a5,16(s1)
.LM1304:
	lhu	a2,8(s9)
	sw	a2,12(sp)
.LM1305:
	lbu	a0,12(a5)
	lbu	a5,13(a5)
	slli	a5,a5,8
	or	a0,a5,a0
	call	lwip_htons
.LVL326:
.LM1306:
	lw	a2,12(sp)
.LM1307:
	srli	a3,a0,10
.LM1308:
	addi	a5,s0,4
	mv	a0,s9
	mv	a4,s0
	andi	a3,a3,252
	li	a1,6
	call	ip_chksum_pseudo_partial
.LVL327:
.LM1309:
.LM1310:
	lbu	a5,12(s1)
.LBE120:
.LM1311:
	li	s9,0
.LBB121:
.LM1312:
	beq	a5,zero,.L240
.LM1313:
.LVL328:
.LM1314:
.LM1315:
	lhu	a5,10(s1)
.LM1316:
	sb	zero,12(s1)
.LM1317:
	li	s9,1
.LM1318:
	srli	a4,a5,8
	slli	a5,a5,8
	add	a5,a4,a5
.LM1319:
	sh	a5,10(s1)
.LM1320:
.LVL329:
.L240:
.LM1321:
.LM1322:
	lhu	a4,10(s1)
.LVL330:
.LM1323:
.LM1324:
	not	a5,a0
	slli	a5,a5,16
	srli	a5,a5,16
.LM1325:
	add	a5,a5,a4
.LM1326:
	addi	a4,a4,-1
.LVL331:
.LM1327:
	lw	a3,16(s1)
.LM1328:
	sub	a4,a4,a0
.LVL332:
.LM1329:
	srli	a5,a5,16
.LM1330:
	add	a5,a5,a4
.LM1331:
	not	a5,a5
	sb	a5,16(a3)
.LVL333:
.LM1332:
	srli	a5,a5,8
	sb	a5,17(a3)
.LBE121:
.LM1333:
	lhu	a5,148(s5)
.LM1334:
	mv	a6,s3
	addi	a2,s0,4
.LM1335:
	addi	a5,a5,1
	sh	a5,148(s5)
.LM1336:
.LM1337:
.LM1338:
	lbu	a4,10(s0)
	lbu	a3,11(s0)
	lw	a0,4(s1)
.LM1339:
	li	a5,6
	mv	a1,s0
	call	ip4_output_if
.LVL334:
.LM1340:
.LM1341:
.LM1342:
	beq	s9,zero,.L241
.LM1343:
.LM1344:
	lhu	a5,10(s1)
.LM1345:
	sb	s7,12(s1)
.LM1346:
	srli	a4,a5,8
	slli	a5,a5,8
	add	a5,a4,a5
.LM1347:
	sh	a5,10(s1)
.LM1348:
.L241:
.LVL335:
.LM1349:
.LBE123:
.LBE125:
.LM1350:
.LM1351:
	beq	a0,zero,.L235
.LM1352:
.LM1353:
.LM1354:
	lhu	a5,26(s0)
	ori	a5,a5,128
.LM1355:
	sh	a5,26(s0)
.LM1356:
.LM1357:
.LVL336:
.L223:
.LM1358:
	lw	ra,76(sp)
	.cfi_remember_state
	.cfi_restore 1
	lw	s0,72(sp)
	.cfi_restore 8
.LVL337:
.LM1359:
	lw	s1,68(sp)
	.cfi_restore 9
.LVL338:
.LM1360:
	lw	s2,64(sp)
	.cfi_restore 18
	lw	s3,60(sp)
	.cfi_restore 19
	lw	s4,56(sp)
	.cfi_restore 20
	lw	s5,52(sp)
	.cfi_restore 21
	lw	s6,48(sp)
	.cfi_restore 22
	lw	s7,44(sp)
	.cfi_restore 23
	lw	s8,40(sp)
	.cfi_restore 24
	lw	s9,36(sp)
	.cfi_restore 25
	lw	s10,32(sp)
	.cfi_restore 26
	lw	s11,28(sp)
	.cfi_restore 27
	addi	sp,sp,80
	.cfi_def_cfa_offset 0
	jr	ra
.LVL339:
.L235:
	.cfi_restore_state
.LM1361:
.LM1362:
	lw	a5,0(s1)
.LM1363:
	sw	a5,108(s0)
.LM1364:
.LM1365:
	lbu	a5,20(s0)
	beq	a5,s6,.L242
.LM1366:
.LM1367:
.LM1368:
	lhu	a5,26(s0)
	andi	a5,a5,-4
.LM1369:
	sh	a5,26(s0)
.L242:
.LM1370:
.LM1371:
.LM1372:
	lw	a3,16(s1)
	lbu	a4,5(a3)
	lbu	a5,4(a3)
	lbu	a0,7(a3)
	slli	a4,a4,8
	or	a4,a4,a5
	lbu	a5,6(a3)
	slli	a0,a0,24
	slli	a5,a5,16
	or	a5,a5,a4
	or	a0,a0,a5
	call	lwip_htonl
.LVL340:
.LM1373:
	lw	a5,16(s1)
.LM1374:
	lhu	s10,8(s1)
.LM1375:
	add	s9,a0,s10
.LM1376:
	lbu	a0,12(a5)
	lbu	a5,13(a5)
	slli	a5,a5,8
	or	a0,a5,a0
	call	lwip_htons
.LVL341:
.LM1377:
	lw	a5,80(s0)
.LM1378:
	andi	a0,a0,3
	snez	a0,a0
.LM1379:
	add	a0,a0,s9
.LVL342:
.LM1380:
.LM1381:
	sub	a5,a5,a0
.LM1382:
	bge	a5,zero,.L243
.LM1383:
.LM1384:
	sw	a0,80(s0)
.L243:
.LM1385:
.LM1386:
	lw	a5,16(s1)
.LM1387:
	lhu	s9,8(s1)
.LM1388:
	lbu	a0,12(a5)
.LVL343:
.LM1389:
	lbu	a5,13(a5)
	slli	a5,a5,8
	or	a0,a5,a0
	call	lwip_htons
.LVL344:
.LM1390:
	andi	a0,a0,3
	or	s9,s9,a0
	beq	s9,zero,.L244
.LM1391:
.LM1392:
	sw	zero,0(s1)
.LM1393:
.LM1394:
	lw	a5,112(s0)
	bne	a5,zero,.L245
.LM1395:
.LM1396:
	sw	s1,112(s0)
.LM1397:
.LVL345:
.L246:
.LM1398:
	mv	s2,s1
.L248:
.LVL346:
.LM1399:
.LM1400:
	lw	s1,108(s0)
.LVL347:
.LM1401:
	beq	s1,zero,.L233
.LVL348:
.L254:
.LM1402:
	lw	a3,16(s1)
	lbu	a4,5(a3)
	lbu	a5,4(a3)
	lbu	a0,7(a3)
	slli	a4,a4,8
	or	a4,a4,a5
	lbu	a5,6(a3)
	slli	a0,a0,24
	slli	a5,a5,16
	or	a5,a5,a4
	or	a0,a0,a5
	call	lwip_htonl
.LVL349:
.LM1403:
	lw	a5,68(s0)
	sub	a0,a0,a5
.LM1404:
	lhu	a5,8(s1)
.LM1405:
	add	a0,a0,a5
.LM1406:
	bgtu	a0,s4,.L256
.LM1407:
.LM1408:
.LM1409:
	lw	a5,16(s1)
	lbu	a0,12(a5)
	lbu	a5,13(a5)
	slli	a5,a5,8
	or	a0,a5,a0
	call	lwip_htons
.LVL350:
.LM1410:
.LM1411:
.LM1412:
.LM1413:
	lw	a5,112(s0)
	beq	a5,zero,.L231
.LM1414:
	lhu	a5,26(s0)
.LM1415:
	andi	a4,a5,68
	bne	a4,zero,.L231
.LM1416:
	lw	a4,108(s0)
.LM1417:
	beq	a4,zero,.L232
.LM1418:
	lw	a3,0(a4)
	bne	a3,zero,.L231
.LM1419:
	lhu	a3,8(a4)
	lhu	a4,50(s0)
	bgeu	a3,a4,.L231
.L232:
.LM1420:
	lhu	a4,100(s0)
	beq	a4,zero,.L231
.LM1421:
	lhu	a3,102(s0)
	li	a4,15
	bgtu	a3,a4,.L231
.LM1422:
	andi	a5,a5,160
	bne	a5,zero,.L231
.L256:
.LM1423:
.LM1424:
	lw	a5,108(s0)
	bne	a5,zero,.L220
.L233:
.LM1425:
.LM1426:
	sh	zero,104(s0)
.LVL351:
.L220:
.LM1427:
.LM1428:
.LM1429:
	lhu	a5,26(s0)
.LM1430:
	li	a0,0
.LM1431:
	andi	a5,a5,-129
.LM1432:
	sh	a5,26(s0)
.LM1433:
.LM1434:
.LM1435:
	j	.L223
.LVL352:
.L245:
.LM1436:
.LM1437:
	beq	s2,zero,.L246
.LM1438:
	lw	a3,16(s1)
	lbu	a4,5(a3)
	lbu	a5,4(a3)
	lbu	a0,7(a3)
	slli	a4,a4,8
	or	a4,a4,a5
	lbu	a5,6(a3)
	slli	a0,a0,24
	slli	a5,a5,16
	or	a5,a5,a4
	or	a0,a0,a5
	call	lwip_htonl
.LVL353:
.LM1439:
	lw	a3,16(s2)
.LM1440:
	mv	s9,a0
.LM1441:
	lbu	a4,5(a3)
	lbu	a5,4(a3)
	lbu	a0,7(a3)
	slli	a4,a4,8
	or	a4,a4,a5
	lbu	a5,6(a3)
	slli	a0,a0,24
	slli	a5,a5,16
	or	a5,a5,a4
	or	a0,a0,a5
	call	lwip_htonl
.LVL354:
.LM1442:
	sub	s9,s9,a0
.LM1443:
	bge	s9,zero,.L246
.LBB126:
.LM1444:
.LM1445:
	addi	s9,s0,112
.LVL355:
.LM1446:
.L249:
.LM1447:
.LM1448:
	lw	a5,0(s9)
.LM1449:
	bne	a5,zero,.L250
.L253:
.LM1450:
.LM1451:
	lw	a5,0(s9)
.LM1452:
	sw	a5,0(s1)
.LM1453:
.LM1454:
	sw	s1,0(s9)
.LBE126:
.LM1455:
	j	.L248
.L250:
.LBB127:
.LM1456:
	lw	a3,16(a5)
	lbu	a4,5(a3)
	lbu	a5,4(a3)
	lbu	a0,7(a3)
	slli	a4,a4,8
	or	a4,a4,a5
	lbu	a5,6(a3)
	slli	a0,a0,24
	slli	a5,a5,16
	or	a5,a5,a4
	or	a0,a0,a5
	call	lwip_htonl
.LVL356:
.LM1457:
	lw	a3,16(s1)
.LM1458:
	mv	s10,a0
.LM1459:
	lbu	a4,5(a3)
	lbu	a5,4(a3)
	lbu	a0,7(a3)
	slli	a4,a4,8
	or	a4,a4,a5
	lbu	a5,6(a3)
	slli	a0,a0,24
	slli	a5,a5,16
	or	a5,a5,a4
	or	a0,a0,a5
	call	lwip_htonl
.LVL357:
.LM1460:
	sub	a0,s10,a0
.LM1461:
	bge	a0,zero,.L253
.LM1462:
	lw	s9,0(s9)
.LVL358:
.LM1463:
	j	.L249
.LVL359:
.L244:
.LM1464:
.LBE127:
.LM1465:
	mv	a0,s1
	call	tcp_seg_free
.LVL360:
	j	.L248
.LVL361:
.L257:
.LM1466:
	li	a0,-4
.LVL362:
.LM1467:
	j	.L223
	.cfi_endproc
.LFE60:
	.size	tcp_output, .-tcp_output
	.section	.text.tcp_rexmit_rto_commit,"ax",@progbits
	.align	1
	.globl	tcp_rexmit_rto_commit
	.type	tcp_rexmit_rto_commit, @function
tcp_rexmit_rto_commit:
.LVL363:
.LFB64:
.LM1468:
	.cfi_startproc
.LM1469:
.LM1470:
.LM1471:
.LM1472:
	lbu	a5,66(a0)
.LM1473:
	li	a4,255
	beq	a5,a4,.L296
.LM1474:
	addi	a5,a5,1
	sb	a5,66(a0)
.L296:
.LM1475:
	tail	tcp_output
.LVL364:
.LM1476:
	.cfi_endproc
.LFE64:
	.size	tcp_rexmit_rto_commit, .-tcp_rexmit_rto_commit
	.section	.text.tcp_rexmit_rto,"ax",@progbits
	.align	1
	.globl	tcp_rexmit_rto
	.type	tcp_rexmit_rto, @function
tcp_rexmit_rto:
.LVL365:
.LFB65:
.LM1477:
	.cfi_startproc
.LM1478:
.LM1479:
.LM1480:
.LM1481:
	addi	sp,sp,-16
	.cfi_def_cfa_offset 16
	sw	s0,8(sp)
	sw	ra,12(sp)
	.cfi_offset 8, -8
	.cfi_offset 1, -4
.LM1482:
	mv	s0,a0
.LM1483:
	call	tcp_rexmit_rto_prepare
.LVL366:
.LM1484:
	bne	a0,zero,.L297
.LM1485:
	mv	a0,s0
.LM1486:
	lw	s0,8(sp)
	.cfi_remember_state
	.cfi_restore 8
.LVL367:
.LM1487:
	lw	ra,12(sp)
	.cfi_restore 1
	addi	sp,sp,16
	.cfi_def_cfa_offset 0
.LM1488:
	tail	tcp_rexmit_rto_commit
.LVL368:
.L297:
	.cfi_restore_state
.LM1489:
	lw	ra,12(sp)
	.cfi_restore 1
	lw	s0,8(sp)
	.cfi_restore 8
.LVL369:
.LM1490:
	addi	sp,sp,16
	.cfi_def_cfa_offset 0
	jr	ra
	.cfi_endproc
.LFE65:
	.size	tcp_rexmit_rto, .-tcp_rexmit_rto
	.section	.text.tcp_keepalive,"ax",@progbits
	.align	1
	.globl	tcp_keepalive
	.type	tcp_keepalive, @function
tcp_keepalive:
.LVL370:
.LFB77:
.LM1491:
	.cfi_startproc
.LM1492:
.LM1493:
.LM1494:
.LM1495:
.LM1496:
.LM1497:
.LM1498:
.LM1499:
.LM1500:
.LM1501:
.LM1502:
	addi	sp,sp,-16
	.cfi_def_cfa_offset 16
	sw	s0,8(sp)
	sw	ra,12(sp)
	.cfi_offset 8, -8
	.cfi_offset 1, -4
.LM1503:
	mv	s0,a0
.LM1504:
	lw	a0,80(a0)
.LVL371:
.LM1505:
	addi	a0,a0,-1
	call	lwip_htonl
.LVL372:
	mv	a2,a0
.LM1506:
	li	a1,0
	mv	a0,s0
	call	tcp_output_alloc_header.constprop.0
.LVL373:
.LM1507:
.LM1508:
	beq	a0,zero,.L301
	mv	a1,a0
.LM1509:
.LVL374:
.LM1510:
.LM1511:
	addi	a3,s0,4
	mv	a2,s0
	mv	a0,s0
.LVL375:
.LM1512:
	lw	s0,8(sp)
	.cfi_remember_state
	.cfi_restore 8
.LVL376:
.LM1513:
	lw	ra,12(sp)
	.cfi_restore 1
	addi	sp,sp,16
	.cfi_def_cfa_offset 0
.LM1514:
	tail	tcp_output_control_segment
.LVL377:
.L301:
	.cfi_restore_state
.LM1515:
	lw	ra,12(sp)
	.cfi_restore 1
	lw	s0,8(sp)
	.cfi_restore 8
.LVL378:
.LM1516:
	li	a0,-1
.LVL379:
.LM1517:
	addi	sp,sp,16
	.cfi_def_cfa_offset 0
	jr	ra
	.cfi_endproc
.LFE77:
	.size	tcp_keepalive, .-tcp_keepalive
	.section	.text.tcp_zero_window_probe,"ax",@progbits
	.align	1
	.globl	tcp_zero_window_probe
	.type	tcp_zero_window_probe, @function
tcp_zero_window_probe:
.LVL380:
.LFB78:
.LM1518:
	.cfi_startproc
.LM1519:
.LM1520:
.LM1521:
.LM1522:
.LM1523:
.LM1524:
.LM1525:
.LM1526:
.LM1527:
.LM1528:
.LM1529:
.LM1530:
.LM1531:
.LM1532:
.LM1533:
.LM1534:
	addi	sp,sp,-32
	.cfi_def_cfa_offset 32
	sw	ra,28(sp)
	sw	s0,24(sp)
	sw	s1,20(sp)
	sw	s2,16(sp)
	sw	s3,12(sp)
	sw	s4,8(sp)
	.cfi_offset 1, -4
	.cfi_offset 8, -8
	.cfi_offset 9, -12
	.cfi_offset 18, -16
	.cfi_offset 19, -20
	.cfi_offset 20, -24
.LM1535:
	lw	s1,108(a0)
.LVL381:
.LM1536:
.LM1537:
	beq	s1,zero,.L310
.LM1538:
.LM1539:
	lbu	a5,162(a0)
.LM1540:
	li	a4,255
	beq	a5,a4,.L305
.LM1541:
	addi	a5,a5,1
	sb	a5,162(a0)
.L305:
.LM1542:
	lw	a5,16(s1)
	mv	s0,a0
.LM1543:
.LM1544:
	li	s2,0
.LM1545:
	lbu	a0,12(a5)
.LVL382:
.LM1546:
	lbu	a5,13(a5)
	slli	a5,a5,8
	or	a0,a5,a0
	call	lwip_htons
.LVL383:
.LM1547:
	andi	a0,a0,1
	beq	a0,zero,.L306
.LM1548:
	lhu	s2,8(s1)
	seqz	s2,s2
.L306:
.LVL384:
.LM1549:
.LM1550:
.LM1551:
	lw	a3,16(s1)
	xori	a1,s2,1
	mv	a0,s0
	lbu	a4,5(a3)
	lbu	a5,4(a3)
	lbu	a2,7(a3)
	slli	a4,a4,8
	or	a4,a4,a5
	lbu	a5,6(a3)
	slli	a2,a2,24
	slli	a5,a5,16
	or	a5,a5,a4
	or	a2,a2,a5
	call	tcp_output_alloc_header.constprop.0
.LVL385:
	mv	s3,a0
.LVL386:
.LM1552:
.LM1553:
	beq	a0,zero,.L312
.LM1554:
.LM1555:
	lw	s4,4(a0)
.LVL387:
.LM1556:
.LM1557:
	beq	s2,zero,.L307
.LM1558:
.LM1559:
	lbu	a5,13(s4)
	lbu	a4,12(s4)
.LM1560:
	li	a0,17
.LVL388:
.LM1561:
	andi	a5,a5,192
	slli	a5,a5,8
	or	s2,a5,a4
.LVL389:
.LM1562:
	call	lwip_htons
.LVL390:
.LM1563:
	or	a0,a0,s2
	sb	a0,12(s4)
	srli	a0,a0,8
	sb	a0,13(s4)
.L308:
.LM1564:
.LM1565:
	lw	a3,16(s1)
	lbu	a4,5(a3)
	lbu	a5,4(a3)
	lbu	a0,7(a3)
	slli	a4,a4,8
	or	a4,a4,a5
	lbu	a5,6(a3)
	slli	a0,a0,24
	slli	a5,a5,16
	or	a5,a5,a4
	or	a0,a0,a5
	call	lwip_htonl
.LVL391:
.LM1566:
	lw	a5,80(s0)
.LM1567:
	addi	a0,a0,1
.LVL392:
.LM1568:
.LM1569:
	sub	a5,a5,a0
.LM1570:
	bge	a5,zero,.L309
.LM1571:
.LM1572:
	sw	a0,80(s0)
.L309:
.LM1573:
.LVL393:
.LM1574:
.LM1575:
	addi	a3,s0,4
	mv	a2,s0
	mv	a0,s0
.LVL394:
.LM1576:
	lw	s0,24(sp)
	.cfi_remember_state
	.cfi_restore 8
.LVL395:
.LM1577:
	lw	ra,28(sp)
	.cfi_restore 1
	lw	s1,20(sp)
	.cfi_restore 9
.LVL396:
.LM1578:
	lw	s2,16(sp)
	.cfi_restore 18
	lw	s4,8(sp)
	.cfi_restore 20
.LVL397:
.LM1579:
	mv	a1,s3
.LM1580:
	lw	s3,12(sp)
	.cfi_restore 19
.LVL398:
.LM1581:
	addi	sp,sp,32
	.cfi_def_cfa_offset 0
.LM1582:
	tail	tcp_output_control_segment
.LVL399:
.L307:
	.cfi_restore_state
.LBB128:
.LM1583:
.LM1584:
.LM1585:
	lw	a0,4(s1)
.LVL400:
.LM1586:
	lhu	a5,8(s1)
	li	a2,1
	lhu	a3,8(a0)
	addi	a1,s4,20
.LVL401:
.LM1587:
	sub	a3,a3,a5
	slli	a3,a3,16
	srli	a3,a3,16
	call	pbuf_copy_partial
.LVL402:
.LM1588:
	j	.L308
.LVL403:
.L310:
.LM1589:
.LBE128:
.LM1590:
	li	a0,0
.LVL404:
.L304:
.LM1591:
	lw	ra,28(sp)
	.cfi_remember_state
	.cfi_restore 1
	lw	s0,24(sp)
	.cfi_restore 8
	lw	s1,20(sp)
	.cfi_restore 9
.LVL405:
.LM1592:
	lw	s2,16(sp)
	.cfi_restore 18
	lw	s3,12(sp)
	.cfi_restore 19
	lw	s4,8(sp)
	.cfi_restore 20
	addi	sp,sp,32
	.cfi_def_cfa_offset 0
	jr	ra
.LVL406:
.L312:
	.cfi_restore_state
.LM1593:
	li	a0,-1
.LVL407:
.LM1594:
	j	.L304
	.cfi_endproc
.LFE78:
	.size	tcp_zero_window_probe, .-tcp_zero_window_probe
	.text
.Letext0:
	.section	.note.GNU-stack,"",@progbits
