	.file	"tcp_in.c"
	.option nopic
	.attribute arch, "rv32i2p1_m2p0_f2p2_c2p0_zicsr2p0_zmmul1p0_zca1p0_zcf1p0"
	.attribute unaligned_access, 0
	.attribute stack_align, 16
	.text
.Ltext0:
	.cfi_sections	.debug_frame
	.section	.text.tcp_get_next_optbyte,"ax",@progbits
	.align	1
	.type	tcp_get_next_optbyte, @function
tcp_get_next_optbyte:
.LFB59:
.LM1:
	.cfi_startproc
.LM2:
.LM3:
	lui	a4,%hi(tcp_optidx)
	lhu	a5,%lo(tcp_optidx)(a4)
	addi	a3,a5,1
	sh	a3,%lo(tcp_optidx)(a4)
.LVL0:
.LM4:
.LM5:
	lui	a4,%hi(tcphdr_opt2)
	lw	a4,%lo(tcphdr_opt2)(a4)
.LM6:
	beq	a4,zero,.L2
.LM7:
	lui	a3,%hi(tcphdr_opt1len)
	lhu	a3,%lo(tcphdr_opt1len)(a3)
.LM8:
	bgeu	a5,a3,.L3
.L2:
.LBB3:
.LM9:
.LVL1:
.LM10:
.LM11:
	lui	a4,%hi(tcphdr)
	lw	a4,%lo(tcphdr)(a4)
	add	a5,a4,a5
.LVL2:
.LM12:
	lbu	a0,20(a5)
	ret
.LVL3:
.L3:
.LM13:
.LBE3:
.LBB4:
.LM14:
.LM15:
.LM16:
	sub	a5,a5,a3
.LVL4:
.LM17:
	andi	a5,a5,0xff
	add	a4,a4,a5
	lbu	a0,0(a4)
.LBE4:
.LM18:
	ret
	.cfi_endproc
.LFE59:
	.size	tcp_get_next_optbyte, .-tcp_get_next_optbyte
	.section	.text.tcp_oos_insert_segment,"ax",@progbits
	.align	1
	.type	tcp_oos_insert_segment, @function
tcp_oos_insert_segment:
.LVL5:
.LFB56:
.LM19:
	.cfi_startproc
.LM20:
.LM21:
.LM22:
.LM23:
.LM24:
	addi	sp,sp,-32
	.cfi_def_cfa_offset 32
	sw	s0,24(sp)
	sw	s2,16(sp)
	sw	ra,28(sp)
	sw	s1,20(sp)
	sw	s3,12(sp)
	.cfi_offset 8, -8
	.cfi_offset 18, -16
	.cfi_offset 1, -4
	.cfi_offset 9, -12
	.cfi_offset 19, -20
.LM25:
	lw	a5,16(a0)
.LM26:
	mv	s2,a0
	mv	s0,a1
.LM27:
	lbu	a0,12(a5)
.LVL6:
.LM28:
	lbu	a5,13(a5)
	slli	a5,a5,8
	or	a0,a5,a0
	call	lwip_htons
.LVL7:
.LM29:
	andi	a0,a0,1
	bne	a0,zero,.L25
.LM30:
	lui	s3,%hi(seqno)
.L9:
.LM31:
	lw	a3,16(s0)
.LM32:
	lhu	a4,8(s2)
.LM33:
	lw	a1,%lo(seqno)(s3)
.LM34:
	lbu	a5,5(a3)
	lbu	a2,4(a3)
.LM35:
	lhu	a0,8(s0)
.LM36:
	slli	a5,a5,8
	or	a5,a5,a2
	lbu	a2,6(a3)
.LM37:
	add	a4,a4,a1
.LM38:
	slli	a2,a2,16
	or	a2,a2,a5
	lbu	a5,7(a3)
	slli	a5,a5,24
	or	a5,a5,a2
.LM39:
	sub	a2,a4,a5
	sub	a2,a2,a0
.LM40:
	bge	a2,zero,.L12
.LM41:
.LM42:
	sub	a4,a5,a4
.LM43:
	bge	a4,zero,.L14
.LM44:
.LM45:
	sub	a5,a5,a1
	slli	a1,a5,16
.LM46:
	lw	a0,4(s2)
.LM47:
	srli	a1,a1,16
.LM48:
	sh	a1,8(s2)
.LM49:
	call	pbuf_realloc
.LVL8:
	j	.L14
.L25:
.LM50:
	mv	a0,s0
	call	tcp_segs_free
.LVL9:
.LM51:
.L10:
.LM52:
	li	s0,0
.L14:
.LVL10:
.LM53:
.LM54:
	sw	s0,0(s2)
.LM55:
	lw	ra,28(sp)
	.cfi_remember_state
	.cfi_restore 1
	lw	s0,24(sp)
	.cfi_restore 8
.LVL11:
.LM56:
	lw	s1,20(sp)
	.cfi_restore 9
	lw	s2,16(sp)
	.cfi_restore 18
.LVL12:
.LM57:
	lw	s3,12(sp)
	.cfi_restore 19
	addi	sp,sp,32
	.cfi_def_cfa_offset 0
	jr	ra
.LVL13:
.L12:
	.cfi_restore_state
.LM58:
.LM59:
	lbu	a5,13(a3)
	lbu	a0,12(a3)
	slli	a5,a5,8
	or	a0,a5,a0
	call	lwip_htons
.LVL14:
.LM60:
	andi	a0,a0,1
	beq	a0,zero,.L11
.LM61:
.LM62:
	lw	a5,16(s2)
	lbu	a0,13(a5)
	lbu	a4,12(a5)
	slli	a0,a0,8
	or	s1,a0,a4
.LM63:
	li	a0,1
	call	lwip_htons
.LVL15:
.LM64:
	lw	a5,16(s2)
.LM65:
	or	a0,s1,a0
	sb	a0,12(a5)
	srli	a0,a0,8
	sb	a0,13(a5)
.L11:
.LM66:
.LVL16:
.LM67:
.LM68:
	lw	s1,0(s0)
.LVL17:
.LM69:
	mv	a0,s0
	call	tcp_seg_free
.LVL18:
.LM70:
	beq	s1,zero,.L10
	mv	s0,s1
.LVL19:
.LM71:
	j	.L9
	.cfi_endproc
.LFE56:
	.size	tcp_oos_insert_segment, .-tcp_oos_insert_segment
	.section	.text.tcp_parseopt.part.0,"ax",@progbits
	.align	1
	.type	tcp_parseopt.part.0, @function
tcp_parseopt.part.0:
.LVL20:
.LFB62:
.LM72:
	.cfi_startproc
.LM73:
.LM74:
	addi	sp,sp,-32
	.cfi_def_cfa_offset 32
	sw	s0,24(sp)
	.cfi_offset 8, -8
.LM75:
	lui	s0,%hi(tcp_optidx)
.LM76:
	sw	s1,20(sp)
	sw	s2,16(sp)
	sw	s3,12(sp)
	sw	s5,4(sp)
	sw	ra,28(sp)
	sw	s4,8(sp)
	.cfi_offset 9, -12
	.cfi_offset 18, -16
	.cfi_offset 19, -20
	.cfi_offset 21, -28
	.cfi_offset 1, -4
	.cfi_offset 20, -24
.LM77:
	mv	s5,a0
.LM78:
	sh	zero,%lo(tcp_optidx)(s0)
.LM79:
	lui	s2,%hi(tcphdr_optlen)
.LBB5:
.LM80:
	li	s1,1
	li	s3,2
.LVL21:
.L31:
.LM81:
.LBE5:
.LM82:
	lhu	s4,%lo(tcphdr_optlen)(s2)
	lhu	a5,%lo(tcp_optidx)(s0)
	bltu	a5,s4,.L39
.L29:
.LM83:
	lw	ra,28(sp)
	.cfi_remember_state
	.cfi_restore 1
	lw	s0,24(sp)
	.cfi_restore 8
	lw	s1,20(sp)
	.cfi_restore 9
	lw	s2,16(sp)
	.cfi_restore 18
	lw	s3,12(sp)
	.cfi_restore 19
	lw	s4,8(sp)
	.cfi_restore 20
	lw	s5,4(sp)
	.cfi_restore 21
.LVL22:
.LM84:
	addi	sp,sp,32
	.cfi_def_cfa_offset 0
	jr	ra
.LVL23:
.L39:
	.cfi_restore_state
.LBB6:
.LM85:
.LM86:
	call	tcp_get_next_optbyte
.LVL24:
.LM87:
	beq	a0,s1,.L31
	beq	a0,s3,.L32
	beq	a0,zero,.L29
.LM88:
.LM89:
.LM90:
	call	tcp_get_next_optbyte
.LVL25:
.LM91:
.LM92:
	bleu	a0,s1,.L29
.LM93:
.LM94:
	lhu	a5,%lo(tcp_optidx)(s0)
	addi	a5,a5,-2
	add	a0,a0,a5
.LVL26:
.LM95:
	sh	a0,%lo(tcp_optidx)(s0)
	j	.L31
.LVL27:
.L32:
.LM96:
.LM97:
.LM98:
	call	tcp_get_next_optbyte
.LVL28:
.LM99:
	li	a5,4
	bne	a0,a5,.L29
.LM100:
	lhu	a5,%lo(tcp_optidx)(s0)
	addi	a5,a5,1
.LM101:
	bge	a5,s4,.L29
.LM102:
.LM103:
	call	tcp_get_next_optbyte
.LVL29:
.LM104:
	slli	s4,a0,8
.LVL30:
.LM105:
.LM106:
	call	tcp_get_next_optbyte
.LVL31:
.LM107:
	or	a0,a0,s4
.LVL32:
.LM108:
.LM109:
	addi	a5,a0,-1
.LM110:
	slli	a5,a5,16
	srli	a5,a5,16
	li	a4,687
	bleu	a5,a4,.L37
.LM111:
	li	a0,688
.LVL33:
.L37:
.LM112:
	sh	a0,50(s5)
.LM113:
	j	.L31
.LBE6:
	.cfi_endproc
.LFE62:
	.size	tcp_parseopt.part.0, .-tcp_parseopt.part.0
	.section	.text.tcp_input_delayed_close,"ax",@progbits
	.align	1
	.type	tcp_input_delayed_close, @function
tcp_input_delayed_close:
.LVL34:
.LFB52:
.LM114:
	.cfi_startproc
.LM115:
.LM116:
.LM117:
.LM118:
	lui	a5,%hi(recv_flags)
.LM119:
	lbu	a5,%lo(recv_flags)(a5)
	andi	a5,a5,16
	beq	a5,zero,.L50
.LM120:
	addi	sp,sp,-16
	.cfi_def_cfa_offset 16
	sw	s0,8(sp)
	sw	ra,12(sp)
	.cfi_offset 8, -8
	.cfi_offset 1, -4
.LBB9:
.LBB10:
.LM121:
	lhu	a5,26(a0)
	mv	s0,a0
.LVL35:
.LM122:
.LBE10:
.LBI9:
.LM123:
.LBB11:
.LM124:
.LM125:
	andi	a5,a5,16
	bne	a5,zero,.L49
.LM126:
.LM127:
.LM128:
.LM129:
	lw	a5,144(a0)
.LM130:
	beq	a5,zero,.L49
.LM131:
.LM132:
	lw	a0,16(a0)
.LVL36:
.LM133:
	li	a1,-15
	jalr	a5
.LVL37:
.L49:
.LM134:
.LM135:
	lui	a0,%hi(tcp_active_pcbs)
	mv	a1,s0
	addi	a0,a0,%lo(tcp_active_pcbs)
	call	tcp_pcb_remove
.LVL38:
.LM136:
	mv	a0,s0
	call	tcp_free
.LVL39:
.LM137:
.LM138:
.LBE11:
.LBE9:
.LM139:
	lw	ra,12(sp)
	.cfi_restore 1
	lw	s0,8(sp)
	.cfi_restore 8
.LVL40:
.LBB13:
.LBB12:
.LM140:
	li	a0,1
.LBE12:
.LBE13:
.LM141:
	addi	sp,sp,16
	.cfi_def_cfa_offset 0
	jr	ra
.LVL41:
.L50:
.LM142:
	li	a0,0
.LVL42:
.LM143:
	ret
	.cfi_endproc
.LFE52:
	.size	tcp_input_delayed_close, .-tcp_input_delayed_close
	.section	.text.tcp_free_acked_segments.isra.0,"ax",@progbits
	.align	1
	.type	tcp_free_acked_segments.isra.0, @function
tcp_free_acked_segments.isra.0:
.LVL43:
.LFB64:
.LM144:
	.cfi_startproc
.LM145:
.LM146:
.LM147:
.LM148:
.LM149:
.LM150:
	addi	sp,sp,-32
	.cfi_def_cfa_offset 32
	sw	s0,24(sp)
	sw	s2,16(sp)
	sw	s3,12(sp)
	sw	s4,8(sp)
	sw	ra,28(sp)
	sw	s1,20(sp)
	sw	s5,4(sp)
	sw	s6,0(sp)
	.cfi_offset 8, -8
	.cfi_offset 18, -16
	.cfi_offset 19, -20
	.cfi_offset 20, -24
	.cfi_offset 1, -4
	.cfi_offset 9, -12
	.cfi_offset 21, -28
	.cfi_offset 22, -32
.LM151:
	mv	s3,a0
	mv	s0,a1
.LM152:
	lui	s4,%hi(ackno)
.LM153:
	lui	s2,%hi(recv_acked)
.LVL44:
.L59:
.LM154:
.LM155:
.LM156:
	beq	s0,zero,.L58
.LM157:
	lw	a3,16(s0)
.LM158:
	lw	s1,%lo(ackno)(s4)
.LM159:
	lbu	a4,5(a3)
	lbu	a5,4(a3)
	lbu	a0,7(a3)
	slli	a4,a4,8
	or	a4,a4,a5
	lbu	a5,6(a3)
	slli	a0,a0,24
	slli	a5,a5,16
	or	a5,a5,a4
	or	a0,a0,a5
	call	lwip_htonl
.LVL45:
.LM160:
	lw	a5,16(s0)
.LM161:
	mv	s6,a0
.LM162:
	lhu	s5,8(s0)
.LM163:
	lbu	a0,12(a5)
	lbu	a5,13(a5)
.LM164:
	sub	s1,s1,s5
	sub	s1,s1,s6
.LM165:
	slli	a5,a5,8
	or	a0,a5,a0
	call	lwip_htons
.LVL46:
.LM166:
	andi	a0,a0,3
	snez	a0,a0
.LM167:
	sub	s1,s1,a0
.LM168:
	bge	s1,zero,.L61
.L58:
.LM169:
	lw	ra,28(sp)
	.cfi_remember_state
	.cfi_restore 1
	mv	a0,s0
	lw	s0,24(sp)
	.cfi_restore 8
.LVL47:
.LM170:
	lw	s1,20(sp)
	.cfi_restore 9
	lw	s2,16(sp)
	.cfi_restore 18
	lw	s3,12(sp)
	.cfi_restore 19
.LVL48:
.LM171:
	lw	s4,8(sp)
	.cfi_restore 20
	lw	s5,4(sp)
	.cfi_restore 21
	lw	s6,0(sp)
	.cfi_restore 22
	addi	sp,sp,32
	.cfi_def_cfa_offset 0
	jr	ra
.LVL49:
.L61:
	.cfi_restore_state
.LM172:
.LM173:
.LM174:
.LM175:
	lw	a0,4(s0)
.LM176:
	lw	s1,0(s0)
.LVL50:
.LM177:
.LM178:
	call	pbuf_clen
.LVL51:
.LM179:
.LM180:
.LM181:
.LM182:
.LM183:
	lhu	a5,102(s3)
.LM184:
	lhu	a4,%lo(recv_acked)(s2)
.LM185:
	sub	a5,a5,a0
.LM186:
	sh	a5,102(s3)
.LM187:
.LM188:
	lhu	a5,8(s0)
.LM189:
	mv	a0,s0
.LVL52:
.LM190:
	mv	s0,s1
.LVL53:
.LM191:
	add	a5,a5,a4
.LM192:
	sh	a5,%lo(recv_acked)(s2)
.LM193:
	call	tcp_seg_free
.LVL54:
.LM194:
.LM195:
	j	.L59
	.cfi_endproc
.LFE64:
	.size	tcp_free_acked_segments.isra.0, .-tcp_free_acked_segments.isra.0
	.section	.text.tcp_receive,"ax",@progbits
	.align	1
	.type	tcp_receive, @function
tcp_receive:
.LVL55:
.LFB58:
.LM196:
	.cfi_startproc
.LM197:
.LM198:
.LM199:
.LM200:
.LM201:
.LM202:
.LM203:
.LM204:
	lui	a5,%hi(flags)
.LM205:
	lbu	a5,%lo(flags)(a5)
.LM206:
	addi	sp,sp,-48
	.cfi_def_cfa_offset 48
	sw	s0,40(sp)
	sw	s2,32(sp)
	sw	s3,28(sp)
	sw	ra,44(sp)
	sw	s1,36(sp)
	sw	s4,24(sp)
	sw	s5,20(sp)
	sw	s6,16(sp)
	sw	s7,12(sp)
	.cfi_offset 8, -8
	.cfi_offset 18, -16
	.cfi_offset 19, -20
	.cfi_offset 1, -4
	.cfi_offset 9, -12
	.cfi_offset 20, -24
	.cfi_offset 21, -28
	.cfi_offset 22, -32
	.cfi_offset 23, -36
.LM207:
	andi	a5,a5,16
.LM208:
	mv	s0,a0
	lui	s3,%hi(seqno)
	lui	s2,%hi(tcplen)
.LM209:
	beq	a5,zero,.L66
.LM210:
	lw	a2,%lo(seqno)(s3)
.LM211:
.LM212:
	lw	a4,84(a0)
.LM213:
	lhu	a3,96(a0)
.LM214:
	lw	a1,88(a0)
.LVL56:
.LM215:
.LM216:
	lui	s1,%hi(ackno)
.LM217:
	sub	a0,a4,a2
.LVL57:
.LM218:
	lw	a5,%lo(ackno)(s1)
.LM219:
	blt	a0,zero,.L67
.LM220:
	bne	a4,a2,.L68
.LM221:
	sub	a4,a1,a5
.LM222:
	blt	a4,zero,.L67
.L68:
.LM223:
	bne	a1,a5,.L69
.LM224:
	lui	a4,%hi(tcphdr)
	lw	a4,%lo(tcphdr)(a4)
	lbu	a0,14(a4)
	lbu	a4,15(a4)
	slli	a4,a4,8
.LM225:
	or	a4,a4,a0
	bgeu	a3,a4,.L69
.L67:
.LM226:
.LM227:
	lui	a4,%hi(tcphdr)
	lw	a4,%lo(tcphdr)(a4)
	lbu	a0,14(a4)
	lbu	a4,15(a4)
	slli	a4,a4,8
	or	a4,a4,a0
.LM228:
	lhu	a0,98(s0)
.LM229:
	sh	a4,96(s0)
.LM230:
.LM231:
	bgeu	a0,a4,.L70
.LM232:
.LM233:
	sh	a4,98(s0)
.L70:
.LM234:
.LM235:
	sw	a2,84(s0)
.LM236:
.LM237:
	sw	a5,88(s0)
.L69:
.LM238:
.LM239:
.LM240:
	lw	a2,68(s0)
.LM241:
	sub	a4,a2,a5
.LM242:
	blt	a4,zero,.L71
.LM243:
.LM244:
	lhu	a5,%lo(tcplen)(s2)
	bne	a5,zero,.L73
.LM245:
.LM246:
	lhu	a5,96(s0)
.LM247:
	lw	a2,88(s0)
.LM248:
	add	a3,a3,a1
.LVL58:
.LM249:
	add	a5,a5,a2
.LM250:
	bne	a5,a3,.L73
.LM251:
.LM252:
.LM253:
	lhu	a5,48(s0)
	not	a5,a5
.LM254:
	slli	a3,a5,16
	bge	a3,zero,.L73
	bne	a4,zero,.L73
.LM255:
.LM256:
	lbu	a5,67(s0)
.LM257:
	li	a4,255
	beq	a5,a4,.L75
.LM258:
	addi	a5,a5,1
	andi	a5,a5,0xff
	sb	a5,67(s0)
.LM259:
.LM260:
	li	a4,3
	bleu	a5,a4,.L76
.L75:
.LM261:
.LM262:
.LM263:
	lhu	a4,72(s0)
.LM264:
	lhu	a5,50(s0)
	add	a5,a4,a5
	slli	a5,a5,16
	srli	a5,a5,16
.LM265:
	bgtu	a4,a5,.L77
.L215:
.LM266:
	sh	a5,72(s0)
.LM267:
.LM268:
.L78:
.LM269:
	mv	a0,s0
	call	tcp_rexmit_fast
.LVL59:
	j	.L73
.L77:
.LM270:
.LM271:
	li	a5,-1
	j	.L215
.L76:
.LM272:
.LM273:
.LM274:
	beq	a5,a4,.L78
.L73:
.LM275:
.LM276:
.LM277:
	lw	a3,52(s0)
.LM278:
	beq	a3,zero,.L66
.LM279:
	lw	a5,56(s0)
	lw	a4,%lo(ackno)(s1)
	sub	a5,a5,a4
.LM280:
	bge	a5,zero,.L66
.LM281:
.LM282:
	lui	a5,%hi(tcp_ticks)
.LM283:
	lh	a4,60(s0)
.LM284:
	lw	a1,%lo(tcp_ticks)(a5)
.LVL60:
.LM285:
.LM286:
.LM287:
	srai	a2,a4,3
.LM288:
	sub	a5,a1,a3
.LM289:
	sub	a5,a5,a2
.LVL61:
.LM290:
.LM291:
	add	a4,a5,a4
.LM292:
	slli	a4,a4,16
	srai	a4,a4,16
.LM293:
	sh	a4,60(s0)
.LM294:
.LM295:
	slli	a0,a5,16
	bge	a0,zero,.L94
.LM296:
.LM297:
	sub	a3,a3,a1
	add	a5,a2,a3
.LVL62:
.L94:
.LM298:
.LM299:
	lh	a3,62(s0)
.LVL63:
.LM300:
.LM301:
	srai	a4,a4,3
.LM302:
	sw	zero,52(s0)
.LM303:
	srai	a2,a3,2
.LM304:
	sub	a3,a3,a2
	add	a5,a5,a3
.LM305:
	sh	a5,62(s0)
.LM306:
.LM307:
	add	a5,a5,a4
.LM308:
	sh	a5,64(s0)
.LM309:
.LM310:
.LVL64:
.L66:
.LM311:
.LM312:
	lhu	a2,%lo(tcplen)(s2)
.LM313:
	lw	a5,%lo(seqno)(s3)
.LM314:
	lw	a4,36(s0)
.LM315:
	beq	a2,zero,.L95
.LM316:
	lbu	a1,20(s0)
	li	a3,6
	bgtu	a1,a3,.L95
.LM317:
.LM318:
	sub	a1,a4,a5
	addi	a3,a1,-1
.LM319:
	blt	a3,zero,.L96
.LM320:
	addi	a3,a5,-1
	add	a3,a3,a2
	sub	a3,a3,a4
.LM321:
	blt	a3,zero,.L96
.LBB14:
.LM322:
.LM323:
	lui	s1,%hi(inseg)
	addi	s1,s1,%lo(inseg)
.LM324:
	lhu	a5,8(s1)
.LM325:
	slli	a1,a1,16
	srli	a1,a1,16
.LM326:
	lw	a0,4(s1)
.LVL65:
.LM327:
.LM328:
.LM329:
.LM330:
.LM331:
.LM332:
.LM333:
.LM334:
.LM335:
.LM336:
.LM337:
	sub	a5,a5,a1
	sh	a5,8(s1)
.LM338:
.LM339:
	lhu	a5,8(a0)
	sub	a5,a5,a1
.LVL66:
.LM340:
.L97:
.LM341:
.LM342:
	lhu	a4,10(a0)
.LM343:
	bltu	a4,a1,.L98
.LM344:
	call	pbuf_remove_header
.LVL67:
.LM345:
.LM346:
	lw	a5,36(s0)
.LM347:
	lw	a4,16(s1)
.LM348:
	srli	a3,a5,8
	sb	a3,5(a4)
	srli	a3,a5,16
	sb	a3,6(a4)
	srli	a3,a5,24
.LM349:
	sw	a5,%lo(seqno)(s3)
.LM350:
	sb	a5,4(a4)
	sb	a3,7(a4)
.LVL68:
.L99:
.LM351:
.LBE14:
.LM352:
.LM353:
.LM354:
	lw	a3,36(s0)
.LM355:
	sub	a4,a5,a3
.LM356:
	blt	a4,zero,.L135
.LM357:
	lhu	a4,40(s0)
.LM358:
	addi	a2,a3,-1
	add	a4,a4,a2
	sub	a4,a4,a5
.LM359:
	blt	a4,zero,.L135
.LM360:
.LM361:
	bne	a3,a5,.L103
.LM362:
.LM363:
	lui	s1,%hi(inseg)
	addi	s1,s1,%lo(inseg)
.LM364:
	lw	a5,16(s1)
.LM365:
	lhu	s4,8(s1)
.LM366:
	lbu	a0,12(a5)
	lbu	a5,13(a5)
	slli	a5,a5,8
	or	a0,a5,a0
	call	lwip_htons
.LVL69:
.LM367:
	andi	a0,a0,3
	snez	a0,a0
.LM368:
	add	a5,s4,a0
	slli	a5,a5,16
.LM369:
	lhu	a4,40(s0)
.LM370:
	srli	a5,a5,16
.LM371:
	sh	a5,%lo(tcplen)(s2)
.LM372:
.LM373:
	bgeu	a4,a5,.L104
.LM374:
.LM375:
.LM376:
	lw	a5,16(s1)
	lbu	a0,12(a5)
	lbu	a5,13(a5)
	slli	a5,a5,8
	or	a0,a5,a0
	call	lwip_htons
.LVL70:
.LM377:
	andi	a0,a0,1
	beq	a0,zero,.L105
.LM378:
	lw	a5,16(s1)
	lbu	s4,13(a5)
	lbu	a4,12(a5)
	slli	s4,s4,8
	or	s4,s4,a4
.LM379:
.LM380:
	mv	a0,s4
	call	lwip_htons
.LVL71:
.LM381:
	andi	a0,a0,62
	call	lwip_htons
.LVL72:
.LM382:
	li	a5,-16384
.LM383:
	lw	a4,16(s1)
.LM384:
	addi	a5,a5,255
	and	s4,s4,a5
	or	a0,a0,s4
	sb	a0,12(a4)
	srli	a0,a0,8
	sb	a0,13(a4)
.L105:
.LM385:
.LM386:
.LM387:
	lhu	a5,40(s0)
	sh	a5,8(s1)
.LM388:
.LM389:
	lw	a5,16(s1)
	lbu	a0,12(a5)
	lbu	a5,13(a5)
	slli	a5,a5,8
	or	a0,a5,a0
	call	lwip_htons
.LVL73:
.LM390:
	andi	a0,a0,2
	beq	a0,zero,.L106
.LM391:
.LM392:
	lhu	a5,8(s1)
	addi	a5,a5,-1
	sh	a5,8(s1)
.L106:
.LM393:
	lhu	a1,8(s1)
	lw	a0,4(s1)
	call	pbuf_realloc
.LVL74:
.LM394:
.LM395:
	lw	a5,16(s1)
.LM396:
	lhu	s4,8(s1)
.LM397:
	lbu	a0,12(a5)
	lbu	a5,13(a5)
	slli	a5,a5,8
	or	a0,a5,a0
	call	lwip_htons
.LVL75:
.LM398:
	andi	a0,a0,3
	snez	a0,a0
.LM399:
	add	s4,s4,a0
.LM400:
	sh	s4,%lo(tcplen)(s2)
.L104:
.LM401:
.LM402:
.LM403:
.LM404:
	lw	a5,116(s0)
	beq	a5,zero,.L108
.LM405:
.LM406:
	lw	a5,16(s1)
	lbu	a0,12(a5)
	lbu	a5,13(a5)
	slli	a5,a5,8
	or	a0,a5,a0
	call	lwip_htons
.LVL76:
.LM407:
	andi	a0,a0,1
	bne	a0,zero,.L109
.LBB15:
.LM408:
	lw	s5,116(s0)
.L110:
.LVL77:
.LM409:
	beq	s5,zero,.L116
.LM410:
	lw	a3,16(s5)
.LM411:
	lw	a1,%lo(seqno)(s3)
	lhu	a4,%lo(tcplen)(s2)
.LM412:
	lbu	a5,5(a3)
	lbu	a2,4(a3)
.LM413:
	add	a4,a4,a1
.LM414:
	slli	a5,a5,8
	or	a5,a5,a2
	lbu	a2,6(a3)
	slli	a2,a2,16
	or	a2,a2,a5
	lbu	a5,7(a3)
	slli	a5,a5,24
	or	a5,a5,a2
.LM415:
	lhu	a2,8(s5)
.LM416:
	add	a2,a2,a5
	sub	a2,a4,a2
.LM417:
	bge	a2,zero,.L117
.LM418:
.LM419:
	sub	a4,a5,a4
.LM420:
	bge	a4,zero,.L116
.LM421:
.LM422:
	sub	a5,a5,a1
.LM423:
	sh	a5,8(s1)
.LM424:
.LM425:
	lw	a5,16(s1)
	lbu	a0,12(a5)
	lbu	a5,13(a5)
	slli	a5,a5,8
	or	a0,a5,a0
	call	lwip_htons
.LVL78:
.LM426:
	andi	a0,a0,2
	beq	a0,zero,.L119
.LM427:
.LM428:
	lhu	a5,8(s1)
	addi	a5,a5,-1
	sh	a5,8(s1)
.L119:
.LM429:
	lhu	a1,8(s1)
	lw	a0,4(s1)
	call	pbuf_realloc
.LVL79:
.LM430:
.LM431:
	lw	a5,16(s1)
.LM432:
	lhu	s4,8(s1)
.LM433:
	lbu	a0,12(a5)
	lbu	a5,13(a5)
	slli	a5,a5,8
	or	a0,a5,a0
	call	lwip_htons
.LVL80:
.LM434:
	andi	a0,a0,3
	snez	a0,a0
.LM435:
	add	s4,s4,a0
.LM436:
	sh	s4,%lo(tcplen)(s2)
.L116:
.LM437:
.LM438:
.LM439:
.LM440:
	sw	s5,116(s0)
	j	.L108
.LVL81:
.L71:
.LM441:
.LBE15:
.LM442:
.LM443:
	addi	a4,a5,-1
	sub	a4,a4,a2
.LM444:
	blt	a4,zero,.L79
.LM445:
	lw	a4,80(s0)
	sub	a4,a4,a5
.LM446:
	blt	a4,zero,.L79
.LBB17:
.LM447:
.LM448:
.LM449:
	lhu	a4,26(s0)
.LM450:
	andi	a3,a4,4
.LVL82:
.LM451:
	beq	a3,zero,.L80
.LM452:
.LM453:
.LM454:
	andi	a4,a4,-5
.LM455:
	sh	a4,26(s0)
.LM456:
.LM457:
.LM458:
	lhu	a4,74(s0)
.LM459:
	sh	zero,106(s0)
.LM460:
	sh	a4,72(s0)
.LM461:
.L80:
.LM462:
.LM463:
.LM464:
	lh	a4,60(s0)
	lhu	a3,62(s0)
.LM465:
	sh	zero,66(s0)
.LM466:
	srai	a4,a4,3
	add	a4,a4,a3
.LM467:
	lbu	a3,20(s0)
.LM468:
	sh	a4,64(s0)
.LM469:
.LVL83:
.LM470:
.LM471:
.LM472:
	sw	a5,68(s0)
.LM473:
.LM474:
	li	a4,3
	bleu	a3,a4,.L82
.LM475:
	lhu	a3,72(s0)
.LM476:
	lhu	a4,74(s0)
.LM477:
	sub	a5,a5,a2
.LVL84:
.LM478:
	slli	a5,a5,16
	srli	a5,a5,16
.LM479:
.LM480:
	bleu	a4,a3,.L83
.LBB18:
.LM481:
.LM482:
.LM483:
	lhu	a4,26(s0)
.LM484:
	lhu	a2,50(s0)
.LVL85:
.LM485:
	srli	a4,a4,11
	andi	a4,a4,1
.LM486:
	seqz	a4,a4
	addi	a4,a4,1
.LVL86:
.LM487:
.LM488:
.LM489:
.LM490:
	mul	a4,a4,a2
.LVL87:
.LM491:
	mv	a2,a4
	slli	a4,a4,16
	srli	a4,a4,16
	bleu	a4,a5,.L85
	mv	a2,a5
.L85:
.LM492:
	add	a5,a3,a2
.LVL88:
.L222:
.LM493:
.LBE18:
.LM494:
	slli	a5,a5,16
	srli	a5,a5,16
.LM495:
	bleu	a3,a5,.L216
.LBB19:
.LM496:
.LM497:
	li	a5,-1
.L216:
.LBE19:
.LM498:
.LM499:
	sh	a5,72(s0)
	j	.L82
.LVL89:
.L83:
.LM500:
.LM501:
.LM502:
	lhu	a4,106(s0)
.LM503:
	add	a5,a4,a5
	slli	a5,a5,16
	srli	a5,a5,16
.LM504:
	bgtu	a4,a5,.L146
.LM505:
.LM506:
.LM507:
	bleu	a3,a5,.L87
	sh	a5,106(s0)
.LVL90:
.L82:
.LM508:
.LM509:
.LM510:
.LM511:
.LM512:
	lw	a1,112(s0)
	mv	a0,s0
	call	tcp_free_acked_segments.isra.0
.LVL91:
.LM513:
	lw	a1,108(s0)
.LM514:
	sw	a0,112(s0)
.LM515:
.LM516:
	mv	a0,s0
	call	tcp_free_acked_segments.isra.0
.LVL92:
.LM517:
	lw	a5,112(s0)
.LM518:
	sw	a0,108(s0)
.LM519:
.LM520:
	sb	zero,28(s0)
.LM521:
	seqz	a4,a5
	neg	a4,a4
	sh	a4,48(s0)
.LM522:
.LM523:
.LM524:
	bne	a0,zero,.L89
.LM525:
.LM526:
	sh	zero,104(s0)
.L89:
.LM527:
.LM528:
	lui	a3,%hi(recv_acked)
	lhu	a4,100(s0)
	lhu	a3,%lo(recv_acked)(a3)
	add	a4,a4,a3
.LM529:
	sh	a4,100(s0)
.LM530:
.LM531:
	lhu	a4,26(s0)
	slli	a3,a4,20
	bge	a3,zero,.L73
.LM532:
.LM533:
	bne	a5,zero,.L90
.LM534:
.LM535:
	bne	a0,zero,.L91
.L217:
.LM536:
.LM537:
.LM538:
	lhu	a5,26(s0)
	li	a4,-4096
	addi	a4,a4,2047
	and	a5,a5,a4
.LM539:
	sh	a5,26(s0)
	j	.L73
.LVL93:
.L146:
.LM540:
	li	a5,65536
	addi	a5,a5,-1
.L87:
.LM541:
.LM542:
	sub	a5,a5,a3
.LM543:
	sh	a5,106(s0)
.LM544:
.LM545:
.LM546:
	lhu	a5,50(s0)
	add	a5,a3,a5
	j	.L222
.LVL94:
.L91:
.LM547:
	lw	a3,16(a0)
.L223:
.LM548:
	lbu	a4,5(a3)
	lbu	a5,4(a3)
	lbu	a0,7(a3)
	slli	a4,a4,8
	or	a4,a4,a5
	lbu	a5,6(a3)
	slli	a0,a0,24
	slli	a5,a5,16
	or	a5,a5,a4
	or	a0,a0,a5
	call	lwip_htonl
.LVL95:
.LM549:
	lw	a5,76(s0)
	sub	a0,a0,a5
.LM550:
	bge	a0,zero,.L217
	j	.L73
.L90:
.LM551:
.LM552:
	lw	a3,16(a5)
	j	.L223
.LVL96:
.L79:
.LM553:
.LBE17:
.LM554:
	mv	a0,s0
	call	tcp_send_empty_ack
.LVL97:
.LM555:
	j	.L73
.LVL98:
.L98:
.LBB20:
.LM556:
.LM557:
	sub	a1,a1,a4
.LVL99:
.LM558:
	slli	a1,a1,16
.LM559:
	sh	a5,8(a0)
.LM560:
	sh	zero,10(a0)
.LM561:
	srli	a1,a1,16
.LVL100:
.LM562:
.LM563:
.LM564:
.LM565:
	lw	a0,0(a0)
.LVL101:
.LM566:
	j	.L97
.LVL102:
.L96:
.LM567:
.LBE20:
.LM568:
.LM569:
	sub	a4,a5,a4
.LM570:
	bge	a4,zero,.L99
.LM571:
.LM572:
.LM573:
.LM574:
	lhu	a4,26(s0)
	ori	a4,a4,2
.LM575:
	sh	a4,26(s0)
	j	.L99
.L111:
.LBB21:
.LM576:
.LVL103:
.LM577:
.LM578:
	lw	a5,0(a0)
.LM579:
	sw	a5,116(s0)
.LM580:
	call	tcp_seg_free
.LVL104:
.L109:
.LM581:
.LBE21:
.LM582:
.LM583:
	lw	a0,116(s0)
.LM584:
	bne	a0,zero,.L111
.L108:
.LM585:
.LM586:
	lhu	a4,%lo(tcplen)(s2)
	lw	a5,%lo(seqno)(s3)
.LM587:
	mv	a0,s0
.LM588:
	add	a5,a5,a4
.LM589:
	sw	a5,36(s0)
.LM590:
.LM591:
.LM592:
.LM593:
	lhu	a5,40(s0)
	sub	a5,a5,a4
	sh	a5,40(s0)
.LM594:
	call	tcp_update_rcv_ann_wnd
.LVL105:
.LM595:
.LM596:
	lw	a5,4(s1)
.LM597:
	lhu	a4,8(a5)
	beq	a4,zero,.L121
.LM598:
.LM599:
	lui	a4,%hi(recv_data)
	sw	a5,%lo(recv_data)(a4)
.LM600:
.LM601:
	sw	zero,4(s1)
.L121:
.LM602:
.LM603:
	lw	a5,16(s1)
	lbu	a0,12(a5)
	lbu	a5,13(a5)
	slli	a5,a5,8
	or	a0,a5,a0
	call	lwip_htons
.LVL106:
.LM604:
	andi	a0,a0,1
	beq	a0,zero,.L122
.LM605:
.LM606:
.LM607:
	lui	a4,%hi(recv_flags)
	lbu	a5,%lo(recv_flags)(a4)
	ori	a5,a5,32
	sb	a5,%lo(recv_flags)(a4)
.L122:
.LBB22:
.LM608:
	lui	s2,%hi(recv_data)
.LM609:
	lui	s4,%hi(recv_flags)
.LM610:
	li	s5,4
.LM611:
	li	s6,7
	j	.L129
.LVL107:
.L117:
.LM612:
.LBE22:
.LBB23:
.LBB16:
.LM613:
.LM614:
.LM615:
	lbu	a5,13(a3)
	lbu	a0,12(a3)
	slli	a5,a5,8
	or	a0,a5,a0
	call	lwip_htons
.LVL108:
.LM616:
	andi	a0,a0,1
	beq	a0,zero,.L114
.LM617:
	lw	a5,16(s1)
	lbu	a0,12(a5)
	lbu	a5,13(a5)
	slli	a5,a5,8
	or	a0,a5,a0
	call	lwip_htons
.LVL109:
.LM618:
	andi	a0,a0,2
	bne	a0,zero,.L114
.LM619:
.LM620:
	lw	a5,16(s1)
	lbu	a0,13(a5)
	lbu	a4,12(a5)
	slli	a0,a0,8
	or	s4,a0,a4
.LM621:
	li	a0,1
	call	lwip_htons
.LVL110:
.LM622:
	lw	a5,16(s1)
.LM623:
	or	a0,s4,a0
.LM624:
	lhu	s4,8(s1)
.LM625:
	sb	a0,12(a5)
	srli	a0,a0,8
	sb	a0,13(a5)
.LM626:
.LM627:
	lw	a5,16(s1)
	lbu	a0,12(a5)
	lbu	a5,13(a5)
	slli	a5,a5,8
	or	a0,a5,a0
	call	lwip_htons
.LVL111:
.LM628:
	andi	a0,a0,3
	snez	a0,a0
.LM629:
	add	s4,s4,a0
.LM630:
	sh	s4,%lo(tcplen)(s2)
.L114:
.LM631:
.LVL112:
.LM632:
.LM633:
	lw	s4,0(s5)
.LVL113:
.LM634:
	mv	a0,s5
	call	tcp_seg_free
.LVL114:
.LM635:
	mv	s5,s4
.LVL115:
.LM636:
	j	.L110
.LVL116:
.L131:
.LM637:
.LBE16:
.LBE23:
.LBB24:
.LM638:
.LM639:
.LM640:
	sw	a5,%lo(seqno)(s3)
.LM641:
.LM642:
	lbu	a5,13(a4)
	lbu	a0,12(a4)
.LM643:
	lhu	s7,8(s1)
.LM644:
	slli	a5,a5,8
	or	a0,a5,a0
	call	lwip_htons
.LVL117:
.LM645:
	lw	a5,36(s0)
.LM646:
	andi	a0,a0,3
	snez	a0,a0
.LM647:
	add	s7,s7,a5
	add	a0,a0,s7
	sw	a0,36(s0)
.LM648:
.LM649:
.LM650:
	lw	a5,16(s1)
	lbu	a0,12(a5)
	lbu	a5,13(a5)
	slli	a5,a5,8
	or	a0,a5,a0
	call	lwip_htons
.LVL118:
.LM651:
.LM652:
.LM653:
.LM654:
	lw	a5,16(s1)
.LM655:
	lhu	s7,8(s1)
.LM656:
	lbu	a0,12(a5)
	lbu	a5,13(a5)
	slli	a5,a5,8
	or	a0,a5,a0
	call	lwip_htons
.LVL119:
.LM657:
	lhu	a5,40(s0)
.LM658:
	andi	a0,a0,3
	snez	a0,a0
.LM659:
	add	a0,a0,s7
.LM660:
	sub	a5,a5,a0
	sh	a5,40(s0)
.LM661:
	mv	a0,s0
	call	tcp_update_rcv_ann_wnd
.LVL120:
.LM662:
.LM663:
	lw	a1,4(s1)
.LM664:
	lhu	a5,8(a1)
	beq	a5,zero,.L123
.LM665:
.LM666:
	lw	a0,%lo(recv_data)(s2)
.LM667:
	beq	a0,zero,.L124
.LM668:
	call	pbuf_cat
.LVL121:
.L125:
.LM669:
.LM670:
	sw	zero,4(s1)
.L123:
.LM671:
.LM672:
	lw	a5,16(s1)
	lbu	a0,12(a5)
	lbu	a5,13(a5)
	slli	a5,a5,8
	or	a0,a5,a0
	call	lwip_htons
.LVL122:
.LM673:
	andi	a0,a0,1
	beq	a0,zero,.L127
.LM674:
.LM675:
.LM676:
	lbu	a5,%lo(recv_flags)(s4)
	ori	a5,a5,32
	sb	a5,%lo(recv_flags)(s4)
.LM677:
.LM678:
	lbu	a5,20(s0)
	bne	a5,s5,.L127
.LM679:
.LM680:
	sb	s6,20(s0)
.L127:
.LM681:
.LM682:
	lw	a5,0(s1)
.LM683:
	mv	a0,s1
.LM684:
	sw	a5,116(s0)
.LM685:
	call	tcp_seg_free
.LVL123:
.L129:
.LM686:
.LBE24:
.LM687:
.LM688:
	lw	s1,116(s0)
.LM689:
	beq	s1,zero,.L130
.LM690:
	lw	a4,16(s1)
.LM691:
	lbu	a5,5(a4)
	lbu	a3,4(a4)
	slli	a5,a5,8
	or	a5,a5,a3
	lbu	a3,6(a4)
	slli	a3,a3,16
	or	a3,a3,a5
	lbu	a5,7(a4)
	slli	a5,a5,24
	or	a5,a5,a3
.LM692:
	lw	a3,36(s0)
	beq	a5,a3,.L131
.L130:
.LM693:
.LM694:
.LM695:
	lhu	a5,26(s0)
.LM696:
	andi	a4,a5,1
	beq	a4,zero,.L132
.LM697:
.LM698:
.LM699:
.LM700:
.LM701:
.LM702:
	andi	a5,a5,-2
.L219:
.LM703:
	ori	a5,a5,2
	j	.L220
.LVL124:
.L124:
.LBB25:
.LM704:
.LM705:
	sw	a1,%lo(recv_data)(s2)
	j	.L125
.LVL125:
.L132:
.LM706:
.LBE25:
.LM707:
.LM708:
.LM709:
	ori	a5,a5,1
.L220:
.LM710:
	sh	a5,26(s0)
.LM711:
.L64:
.LM712:
	lw	ra,44(sp)
	.cfi_remember_state
	.cfi_restore 1
	lw	s0,40(sp)
	.cfi_restore 8
.LVL126:
.LM713:
	lw	s1,36(sp)
	.cfi_restore 9
	lw	s2,32(sp)
	.cfi_restore 18
	lw	s3,28(sp)
	.cfi_restore 19
	lw	s4,24(sp)
	.cfi_restore 20
	lw	s5,20(sp)
	.cfi_restore 21
	lw	s6,16(sp)
	.cfi_restore 22
	lw	s7,12(sp)
	.cfi_restore 23
	addi	sp,sp,48
	.cfi_def_cfa_offset 0
	jr	ra
.LVL127:
.L103:
	.cfi_restore_state
.LM714:
.LM715:
	lw	s1,116(s0)
.LBB26:
.LM716:
	li	s4,0
.LM717:
	addi	a0,a5,-1
.LBE26:
.LM718:
	bne	s1,zero,.L134
.LM719:
.LM720:
	lui	a0,%hi(inseg)
	addi	a0,a0,%lo(inseg)
	call	tcp_seg_copy
.LVL128:
.LM721:
	sw	a0,116(s0)
.L135:
.LM722:
	mv	a0,s0
.LM723:
	lw	s0,40(sp)
	.cfi_remember_state
	.cfi_restore 8
.LVL129:
.LM724:
	lw	ra,44(sp)
	.cfi_restore 1
	lw	s1,36(sp)
	.cfi_restore 9
	lw	s2,32(sp)
	.cfi_restore 18
	lw	s3,28(sp)
	.cfi_restore 19
	lw	s4,24(sp)
	.cfi_restore 20
	lw	s5,20(sp)
	.cfi_restore 21
	lw	s6,16(sp)
	.cfi_restore 22
	lw	s7,12(sp)
	.cfi_restore 23
	addi	sp,sp,48
	.cfi_def_cfa_offset 0
.LM725:
	tail	tcp_send_empty_ack
.LVL130:
.L148:
	.cfi_restore_state
.LBB32:
.LM726:
	mv	s1,a3
.LVL131:
.L134:
.LM727:
.LM728:
	lw	a2,16(s1)
.LM729:
	lbu	a4,5(a2)
	lbu	a3,4(a2)
	slli	a4,a4,8
	or	a4,a4,a3
	lbu	a3,6(a2)
	slli	a3,a3,16
	or	a3,a3,a4
	lbu	a4,7(a2)
	slli	a4,a4,24
	or	a4,a4,a3
.LM730:
	bne	a4,a5,.L136
.LM731:
.LM732:
	lui	a0,%hi(inseg)
	addi	a0,a0,%lo(inseg)
.LM733:
	lhu	a4,8(a0)
	lhu	a5,8(s1)
	bleu	a4,a5,.L135
.LBB27:
.LM734:
.LM735:
.LM736:
	lw	a5,0(s1)
	beq	a5,zero,.L135
.LM737:
.LM738:
	call	tcp_seg_copy
.LVL132:
.LM739:
.LM740:
	beq	a0,zero,.L135
.LM741:
.LM742:
	beq	s4,zero,.L137
.LM743:
.LM744:
	sw	a0,0(s4)
.LVL133:
.L138:
.LM745:
	mv	a1,s1
.L218:
.LM746:
.LBE27:
.LBB28:
.LM747:
	call	tcp_oos_insert_segment
.LVL134:
	j	.L135
.L136:
.LBE28:
.LM748:
.LM749:
	bne	s4,zero,.L139
.LM750:
.LM751:
	sub	a3,a5,a4
.LM752:
	bge	a3,zero,.L140
.LBB29:
.LM753:
.LM754:
	lui	a0,%hi(inseg)
	addi	a0,a0,%lo(inseg)
	call	tcp_seg_copy
.LVL135:
.LM755:
.LM756:
	beq	a0,zero,.L135
.LVL136:
.L137:
.LM757:
.LBE29:
.LBB30:
.LM758:
.LM759:
	sw	a0,116(s0)
	j	.L138
.L139:
.LM760:
.LBE30:
.LM761:
.LM762:
	lw	a6,16(s4)
	lbu	a3,5(a6)
	lbu	a1,4(a6)
	slli	a3,a3,8
	or	a3,a3,a1
	lbu	a1,6(a6)
	slli	a1,a1,16
	or	a1,a1,a3
	lbu	a3,7(a6)
	slli	a3,a3,24
	or	a3,a3,a1
.LM763:
	sub	a3,a0,a3
.LM764:
	blt	a3,zero,.L140
.LM765:
	sub	a3,a4,a5
	addi	a3,a3,-1
.LM766:
	blt	a3,zero,.L140
.LBB31:
.LM767:
.LM768:
	lui	a0,%hi(inseg)
	addi	a0,a0,%lo(inseg)
	call	tcp_seg_copy
.LVL137:
	mv	s2,a0
.LVL138:
.LM769:
.LM770:
	beq	a0,zero,.L135
.LM771:
.LM772:
	lw	a3,16(s4)
.LM773:
	lw	a1,%lo(seqno)(s3)
.LM774:
	lbu	a5,5(a3)
	lbu	a4,4(a3)
	slli	a5,a5,8
	or	a5,a5,a4
	lbu	a4,6(a3)
	slli	a4,a4,16
	or	a4,a4,a5
	lbu	a5,7(a3)
	slli	a5,a5,24
	or	a5,a5,a4
.LM775:
	lhu	a4,8(s4)
.LM776:
	add	a4,a4,a5
	sub	a4,a1,a4
.LM777:
	bge	a4,zero,.L141
.LM778:
.LM779:
	sub	a1,a1,a5
	slli	a1,a1,16
.LM780:
	lw	a0,4(s4)
.LVL139:
.LM781:
	srli	a1,a1,16
.LM782:
	sh	a1,8(s4)
.LM783:
	call	pbuf_realloc
.LVL140:
.L141:
.LM784:
.LM785:
	sw	s2,0(s4)
.LM786:
	mv	a1,s1
	mv	a0,s2
	j	.L218
.LVL141:
.L140:
.LM787:
.LBE31:
.LM788:
.LM789:
.LM790:
	lw	a3,0(s1)
	mv	s4,s1
.LM791:
	bne	a3,zero,.L148
.LM792:
	sub	a4,a4,a5
.LM793:
	bge	a4,zero,.L135
.LM794:
.LM795:
	lbu	a5,13(a2)
	lbu	a0,12(a2)
	slli	a5,a5,8
	or	a0,a5,a0
	call	lwip_htons
.LVL142:
.LM796:
	andi	a0,a0,1
	bne	a0,zero,.L135
.LM797:
.LM798:
	lui	a0,%hi(inseg)
	addi	a0,a0,%lo(inseg)
	call	tcp_seg_copy
.LVL143:
.LM799:
	sw	a0,0(s1)
.LM800:
.LM801:
	beq	a0,zero,.L135
.LM802:
.LM803:
	lw	a3,16(s1)
.LM804:
	lw	a1,%lo(seqno)(s3)
.LM805:
	lbu	a5,5(a3)
	lbu	a4,4(a3)
	slli	a5,a5,8
	or	a5,a5,a4
	lbu	a4,6(a3)
	slli	a4,a4,16
	or	a4,a4,a5
	lbu	a5,7(a3)
	slli	a5,a5,24
	or	a5,a5,a4
.LM806:
	lhu	a4,8(s1)
.LM807:
	add	a4,a4,a5
	sub	a4,a1,a4
.LM808:
	bge	a4,zero,.L142
.LM809:
.LM810:
	sub	a1,a1,a5
	slli	a1,a1,16
.LM811:
	lw	a0,4(s1)
.LM812:
	srli	a1,a1,16
.LM813:
	sh	a1,8(s1)
.LM814:
	call	pbuf_realloc
.LVL144:
.L142:
.LM815:
.LM816:
	lw	a5,%lo(seqno)(s3)
.LM817:
	lhu	a4,%lo(tcplen)(s2)
.LM818:
	add	a4,a4,a5
	lw	a5,36(s0)
	sub	a5,a5,a4
.LM819:
	lhu	a4,40(s0)
.LM820:
	add	a5,a5,a4
.LM821:
	bge	a5,zero,.L135
.LM822:
.LM823:
.LM824:
	lw	a5,0(s1)
.LM825:
	lw	a5,16(a5)
	lbu	a0,12(a5)
	lbu	a5,13(a5)
	slli	a5,a5,8
	or	a0,a5,a0
	call	lwip_htons
.LVL145:
.LM826:
	andi	a0,a0,1
	beq	a0,zero,.L143
.LM827:
.LM828:
	lw	a5,0(s1)
.LM829:
	lw	a5,16(a5)
	lbu	s4,13(a5)
	lbu	a4,12(a5)
	slli	s4,s4,8
	or	s4,s4,a4
.LM830:
	mv	a0,s4
	call	lwip_htons
.LVL146:
.LM831:
	andi	a0,a0,62
	call	lwip_htons
.LVL147:
.LM832:
	lw	a5,0(s1)
	lw	a4,16(a5)
.LM833:
	li	a5,-16384
	addi	a5,a5,255
	and	s4,s4,a5
	or	a0,a0,s4
	sb	a0,12(a4)
	srli	a0,a0,8
	sb	a0,13(a4)
.L143:
.LM834:
.LM835:
	lw	a3,%lo(seqno)(s3)
	lhu	a5,40(s0)
.LM836:
	lw	a4,0(s1)
.LM837:
	sub	a5,a5,a3
.LM838:
	lw	a3,36(s0)
.LM839:
	add	a5,a5,a3
.LM840:
	sh	a5,8(a4)
.LM841:
.LM842:
	lw	a5,0(s1)
.LM843:
	lhu	a1,8(a5)
	lw	a0,4(a5)
	call	pbuf_realloc
.LVL148:
.LM844:
.LM845:
	lw	a5,0(s1)
.LM846:
	lhu	s1,8(a5)
.LVL149:
.LM847:
	lw	a5,16(a5)
	lbu	a0,12(a5)
	lbu	a5,13(a5)
	slli	a5,a5,8
	or	a0,a5,a0
	call	lwip_htons
.LVL150:
.LM848:
	andi	a0,a0,3
	snez	a0,a0
.LM849:
	add	s1,s1,a0
.LM850:
	sh	s1,%lo(tcplen)(s2)
	j	.L135
.LVL151:
.L95:
.LM851:
.LBE32:
.LM852:
.LM853:
	sub	a3,a5,a4
.LM854:
	blt	a3,zero,.L144
.LM855:
	sub	a4,a4,a5
.LM856:
	lhu	a5,40(s0)
.LM857:
	addi	a4,a4,-1
	add	a4,a4,a5
.LM858:
	bge	a4,zero,.L64
.L144:
.LM859:
.LM860:
.LM861:
	lhu	a5,26(s0)
	j	.L219
	.cfi_endproc
.LFE58:
	.size	tcp_receive, .-tcp_receive
	.section	.text.tcp_input,"ax",@progbits
	.align	1
	.globl	tcp_input
	.type	tcp_input, @function
tcp_input:
.LVL152:
.LFB51:
.LM862:
	.cfi_startproc
.LM863:
.LM864:
.LM865:
.LM866:
.LM867:
.LM868:
.LM869:
.LM870:
.LM871:
.LM872:
.LM873:
.LM874:
.LM875:
	addi	sp,sp,-80
	.cfi_def_cfa_offset 80
.LM876:
	lui	t1,%hi(lwip_stats)
.LM877:
	sw	s0,72(sp)
	sw	s1,68(sp)
	sw	s2,64(sp)
	sw	s9,36(sp)
	sw	ra,76(sp)
	sw	s3,60(sp)
	sw	s4,56(sp)
	sw	s5,52(sp)
	sw	s6,48(sp)
	sw	s7,44(sp)
	sw	s8,40(sp)
	sw	s10,32(sp)
	sw	s11,28(sp)
	.cfi_offset 8, -8
	.cfi_offset 9, -12
	.cfi_offset 18, -16
	.cfi_offset 25, -44
	.cfi_offset 1, -4
	.cfi_offset 19, -20
	.cfi_offset 20, -24
	.cfi_offset 21, -28
	.cfi_offset 22, -32
	.cfi_offset 23, -36
	.cfi_offset 24, -40
	.cfi_offset 26, -48
	.cfi_offset 27, -52
.LM878:
	addi	s9,t1,%lo(lwip_stats)
	lhu	a5,150(s9)
.LM879:
	lui	s1,%hi(tcphdr)
.LM880:
	li	s2,19
.LM881:
	addi	a5,a5,1
	sh	a5,150(s9)
.LM882:
.LM883:
.LM884:
	lw	a5,4(a0)
.LM885:
	mv	s0,a0
.LM886:
	sw	a5,%lo(tcphdr)(s1)
.LM887:
.LM888:
	lhu	a5,10(a0)
	bgtu	a5,s2,.L225
.LVL153:
.L446:
.LM889:
.LM890:
	lhu	a5,158(s9)
	addi	a5,a5,1
	sh	a5,158(s9)
.LM891:
	j	.L226
.LVL154:
.L225:
.LM892:
.LM893:
	lui	s4,%hi(ip_data)
	addi	s4,s4,%lo(ip_data)
.LM894:
	lw	a1,0(s4)
.LVL155:
.LM895:
	lw	a0,20(s4)
	call	ip4_addr_isbroadcast_u32
.LVL156:
.LM896:
	bne	a0,zero,.L227
.LM897:
	lw	a5,20(s4)
.LM898:
	li	a4,224
.LM899:
	andi	a5,a5,240
.LM900:
	bne	a5,a4,.L228
.L227:
.LM901:
	lhu	a5,164(s9)
	addi	a5,a5,1
	sh	a5,164(s9)
.LM902:
.L226:
.LM903:
	lhu	a5,154(s9)
	addi	a5,a5,1
	sh	a5,154(s9)
	j	.L447
.L228:
.LBB50:
.LM904:
.LM905:
	lhu	a2,8(s0)
	lui	s6,%hi(ip_data+20)
	lui	s7,%hi(ip_data+16)
	addi	a4,s6,%lo(ip_data+20)
	addi	a3,s7,%lo(ip_data+16)
	li	a1,6
	mv	a0,s0
	call	ip_chksum_pseudo
.LVL157:
.LM906:
.LM907:
	beq	a0,zero,.L229
.LM908:
.LM909:
.LM910:
	lhu	a5,156(s9)
	addi	a5,a5,1
	sh	a5,156(s9)
.LM911:
	j	.L226
.L229:
.LBE50:
.LM912:
.LM913:
	lw	a5,%lo(tcphdr)(s1)
	lbu	a0,12(a5)
.LVL158:
.LM914:
	lbu	a5,13(a5)
	slli	a5,a5,8
	or	a0,a5,a0
	call	lwip_htons
.LVL159:
.LM915:
	srli	a1,a0,10
	andi	a1,a1,252
.LVL160:
.LM916:
.LM917:
	bleu	a1,s2,.L446
.LM918:
	lhu	a5,8(s0)
	bltu	a5,a1,.L446
.LM919:
.LM920:
	lui	a4,%hi(tcphdr_optlen)
.LM921:
	addi	a5,a1,-20
.LM922:
	sh	a5,%lo(tcphdr_optlen)(a4)
.LM923:
.LM924:
	lhu	a4,10(s0)
.LM925:
	lui	s8,%hi(tcphdr_opt2)
	sw	zero,%lo(tcphdr_opt2)(s8)
.LM926:
	lui	s3,%hi(tcphdr_opt1len)
.LM927:
	bltu	a4,a1,.L232
.LM928:
.LM929:
	mv	a0,s0
.LM930:
	sh	a5,%lo(tcphdr_opt1len)(s3)
.LM931:
	call	pbuf_remove_header
.LVL161:
.L233:
.LBB51:
.LM932:
.LM933:
.LM934:
.LM935:
.LBE51:
.LM936:
.LM937:
	lw	s2,%lo(tcphdr)(s1)
.LM938:
	lui	s8,%hi(seqno)
.LM939:
	lbu	a5,1(s2)
	lbu	a0,0(s2)
	slli	a5,a5,8
	or	a0,a5,a0
	call	lwip_htons
.LVL162:
.LM940:
	sb	a0,0(s2)
	srli	a0,a0,8
	sb	a0,1(s2)
.LM941:
.LM942:
	lw	s2,%lo(tcphdr)(s1)
.LM943:
	lbu	a5,3(s2)
	lbu	a0,2(s2)
	slli	a5,a5,8
	or	a0,a5,a0
	call	lwip_htons
.LVL163:
.LM944:
	sb	a0,2(s2)
	srli	a0,a0,8
	sb	a0,3(s2)
.LM945:
.LM946:
	lw	s2,%lo(tcphdr)(s1)
.LM947:
	lbu	a4,5(s2)
	lbu	a5,4(s2)
	lbu	a0,7(s2)
	slli	a4,a4,8
	or	a4,a4,a5
	lbu	a5,6(s2)
	slli	a0,a0,24
	slli	a5,a5,16
	or	a5,a5,a4
	or	a0,a0,a5
	call	lwip_htonl
.LVL164:
.LM948:
	srli	a5,a0,8
	sb	a5,5(s2)
	srli	a5,a0,16
	sb	a5,6(s2)
	srli	a5,a0,24
	sb	a0,4(s2)
	sb	a5,7(s2)
.LM949:
	lw	s2,%lo(tcphdr)(s1)
.LM950:
	sw	a0,%lo(seqno)(s8)
.LM951:
.LM952:
	lbu	a4,9(s2)
	lbu	a5,8(s2)
	lbu	a0,11(s2)
	slli	a4,a4,8
	or	a4,a4,a5
	lbu	a5,10(s2)
	slli	a0,a0,24
	slli	a5,a5,16
	or	a5,a5,a4
	or	a0,a0,a5
	call	lwip_htonl
.LVL165:
.LM953:
	srli	a5,a0,8
	sb	a5,9(s2)
	srli	a5,a0,16
.LM954:
	lw	s3,%lo(tcphdr)(s1)
.LM955:
	sb	a5,10(s2)
	srli	a5,a0,24
	sb	a0,8(s2)
	sb	a5,11(s2)
.LM956:
	lui	s2,%hi(ackno)
	sw	a0,%lo(ackno)(s2)
.LM957:
.LM958:
	lbu	a5,15(s3)
	lbu	a0,14(s3)
	slli	a5,a5,8
	or	a0,a5,a0
	call	lwip_htons
.LVL166:
.LM959:
	lw	a5,%lo(tcphdr)(s1)
.LM960:
	sb	a0,14(s3)
	srli	a0,a0,8
	sb	a0,15(s3)
.LM961:
.LM962:
	lbu	a0,12(a5)
	lbu	a5,13(a5)
	slli	a5,a5,8
	or	a0,a5,a0
	call	lwip_htons
.LVL167:
.LM963:
	andi	a5,a0,63
.LM964:
	lui	a4,%hi(flags)
	sb	a5,%lo(flags)(a4)
.LM965:
.LM966:
	andi	a5,a0,3
.LM967:
	lhu	a4,8(s0)
.LM968:
	lui	t3,%hi(tcplen)
.LM969:
	beq	a5,zero,.L235
.LM970:
.LM971:
	addi	a5,a4,1
	slli	a5,a5,16
	srli	a5,a5,16
	sh	a5,%lo(tcplen)(t3)
.LM972:
.LM973:
	bgtu	a4,a5,.L446
.L236:
.LM974:
.LVL168:
.LM975:
.LM976:
	lui	s3,%hi(tcp_active_pcbs)
	lw	a6,%lo(tcp_active_pcbs)(s3)
.LVL169:
.LM977:
	lw	t4,4(s4)
.LM978:
	lw	a4,%lo(tcphdr)(s1)
.LM979:
	lw	a1,16(s4)
.LM980:
	mv	s11,a6
.LM981:
	li	a2,0
.LVL170:
.L237:
.LM982:
	bne	s11,zero,.L242
.LM983:
.LM984:
.LM985:
	lui	a5,%hi(tcp_tw_pcbs)
	lw	a7,%lo(tcp_tw_pcbs)(a5)
.LVL171:
.L243:
.LM986:
	bne	a7,zero,.L251
.LM987:
.LVL172:
.LM988:
.LM989:
	lui	a6,%hi(tcp_listen_pcbs)
	lw	t5,%lo(tcp_listen_pcbs)(a6)
.LVL173:
.LM990:
	lw	t6,20(s4)
.LM991:
	li	s5,0
.LM992:
	li	a1,0
.LM993:
	mv	a5,t5
.LVL174:
.L252:
.LM994:
	bne	a5,zero,.L256
.LM995:
.LM996:
.LM997:
.LVL175:
.LM998:
.LM999:
	bne	s5,zero,.L255
.LVL176:
.LM1000:
.LM1001:
.LM1002:
.LM1003:
	lbu	a5,13(a4)
	lbu	a0,12(a4)
	slli	a5,a5,8
	or	a0,a5,a0
	call	lwip_htons
.LVL177:
.LM1004:
	andi	a0,a0,4
	lui	t3,%hi(tcplen)
	bne	a0,zero,.L447
.LM1005:
	lhu	a5,164(s9)
.LM1006:
	lw	a4,%lo(tcphdr)(s1)
.LM1007:
	lhu	a0,%lo(tcplen)(t3)
.LM1008:
	addi	a5,a5,1
	sh	a5,164(s9)
.LM1009:
	lhu	a5,154(s9)
.LM1010:
	lw	a2,%lo(seqno)(s8)
.LM1011:
	addi	a3,s6,%lo(ip_data+20)
.LM1012:
	addi	a5,a5,1
	sh	a5,154(s9)
.LM1013:
	lbu	a1,1(a4)
	lbu	a5,3(a4)
	lbu	a6,0(a4)
	lbu	a7,2(a4)
	slli	a1,a1,8
	slli	a5,a5,8
	or	a6,a1,a6
	add	a2,a0,a2
	lw	a1,%lo(ackno)(s2)
	lw	a0,4(s4)
	or	a5,a5,a7
	addi	a4,s7,%lo(ip_data+16)
	j	.L442
.LVL178:
.L232:
.LBB52:
.LM1014:
.LM1015:
.LM1016:
.LM1017:
	li	a1,20
.LVL179:
.LM1018:
	mv	a0,s0
	call	pbuf_remove_header
.LVL180:
.LM1019:
.LM1020:
	lhu	s2,10(s0)
.LM1021:
	lui	a5,%hi(tcphdr_optlen)
.LM1022:
	mv	a0,s0
	mv	a1,s2
.LM1023:
	lhu	s5,%lo(tcphdr_optlen)(a5)
.LM1024:
	sh	s2,%lo(tcphdr_opt1len)(s3)
.LM1025:
.LM1026:
	call	pbuf_remove_header
.LVL181:
.LM1027:
	lw	a0,0(s0)
.LM1028:
	sub	s3,s5,s2
	slli	s3,s3,16
.LM1029:
	lhu	a5,10(a0)
.LM1030:
	srli	s3,s3,16
.LVL182:
.LM1031:
.LM1032:
.LM1033:
	bltu	a5,s3,.L446
.LM1034:
.LM1035:
	lw	a5,4(a0)
.LM1036:
	mv	a1,s3
.LM1037:
	sw	a5,%lo(tcphdr_opt2)(s8)
.LM1038:
	call	pbuf_remove_header
.LVL183:
.LM1039:
.LM1040:
	lhu	a5,8(s0)
	add	s2,s2,a5
	sub	s2,s2,s5
.LM1041:
	sh	s2,8(s0)
	j	.L233
.LVL184:
.L235:
.LM1042:
.LBE52:
.LM1043:
	sh	a4,%lo(tcplen)(t3)
	j	.L236
.LVL185:
.L242:
.LM1044:
.LM1045:
.LM1046:
.LM1047:
.LM1048:
.LM1049:
.LM1050:
.LM1051:
	lbu	t5,8(s11)
.LM1052:
	beq	t5,zero,.L238
.LM1053:
	lbu	a5,72(t4)
	addi	a5,a5,1
.LM1054:
	andi	a5,a5,0xff
	bne	t5,a5,.L239
.L238:
.LM1055:
.LM1056:
	lbu	a5,1(a4)
	lbu	t6,0(a4)
.LM1057:
	lhu	t5,24(s11)
.LM1058:
	slli	a5,a5,8
.LM1059:
	or	a5,a5,t6
	bne	t5,a5,.L239
.LM1060:
	lbu	a5,3(a4)
	lbu	t6,2(a4)
.LM1061:
	lhu	t5,22(s11)
.LM1062:
	slli	a5,a5,8
.LM1063:
	or	a5,a5,t6
	bne	t5,a5,.L239
.LM1064:
	lw	a5,4(s11)
	bne	a5,a1,.L239
.LM1065:
	lw	t5,0(s11)
	lw	a5,20(s4)
	bne	t5,a5,.L239
.LM1066:
.LM1067:
.LM1068:
.LM1069:
	beq	a2,zero,.L240
.LM1070:
.LM1071:
	lw	a5,12(s11)
.LM1072:
	sw	s11,%lo(tcp_active_pcbs)(s3)
.LM1073:
	sw	a5,12(a2)
.LM1074:
.LM1075:
	sw	a6,12(s11)
.LM1076:
.LM1077:
.LVL186:
.LM1078:
.L241:
.LM1079:
.LM1080:
	lhu	a5,8(s0)
.LM1081:
	lui	s5,%hi(inseg)
	addi	s5,s5,%lo(inseg)
.LM1082:
	sh	a5,8(s5)
.LM1083:
	lui	s10,%hi(recv_data)
.LM1084:
	lui	s4,%hi(recv_flags)
.LM1085:
	lui	a5,%hi(recv_acked)
.LM1086:
	sw	zero,0(s5)
.LM1087:
.LM1088:
.LM1089:
	sw	s0,4(s5)
.LM1090:
.LM1091:
	sw	a4,16(s5)
.LM1092:
.LM1093:
	sw	zero,%lo(recv_data)(s10)
.LM1094:
.LM1095:
	sb	zero,%lo(recv_flags)(s4)
.LM1096:
.LM1097:
	sh	zero,%lo(recv_acked)(a5)
.LM1098:
.LM1099:
	andi	a0,a0,8
	beq	a0,zero,.L265
.LM1100:
.LM1101:
	lbu	a5,13(s0)
	ori	a5,a5,1
	sb	a5,13(s0)
.L265:
.LM1102:
.LM1103:
	lw	a5,120(s11)
	lui	s0,%hi(tcp_input_pcb)
.LVL187:
.LM1104:
	beq	a5,zero,.L266
.LM1105:
.LM1106:
	mv	a0,s11
	call	tcp_process_refused_data
.LVL188:
.LM1107:
	li	a5,-13
	beq	a0,a5,.L267
.LM1108:
	lw	a5,120(s11)
	lui	t3,%hi(tcplen)
	beq	a5,zero,.L266
.LM1109:
	lhu	a5,%lo(tcplen)(t3)
	beq	a5,zero,.L266
.L267:
.LM1110:
.LM1111:
	lhu	a5,42(s11)
	bne	a5,zero,.L268
.LM1112:
	mv	a0,s11
	call	tcp_send_empty_ack
.LVL189:
.L268:
.LM1113:
	lhu	a5,154(s9)
	addi	a5,a5,1
	sh	a5,154(s9)
.LM1114:
.LM1115:
.L269:
.LM1116:
.LM1117:
	lw	a0,4(s5)
.LM1118:
	sw	zero,%lo(tcp_input_pcb)(s0)
.LM1119:
.LM1120:
	sw	zero,%lo(recv_data)(s10)
.LM1121:
.LM1122:
	beq	a0,zero,.L224
.LM1123:
	call	pbuf_free
.LVL190:
.LM1124:
.LM1125:
	sw	zero,4(s5)
.L224:
.LM1126:
	lw	ra,76(sp)
	.cfi_remember_state
	.cfi_restore 1
	lw	s0,72(sp)
	.cfi_restore 8
	lw	s1,68(sp)
	.cfi_restore 9
	lw	s2,64(sp)
	.cfi_restore 18
	lw	s3,60(sp)
	.cfi_restore 19
	lw	s4,56(sp)
	.cfi_restore 20
	lw	s5,52(sp)
	.cfi_restore 21
	lw	s6,48(sp)
	.cfi_restore 22
	lw	s7,44(sp)
	.cfi_restore 23
	lw	s8,40(sp)
	.cfi_restore 24
	lw	s9,36(sp)
	.cfi_restore 25
	lw	s10,32(sp)
	.cfi_restore 26
	lw	s11,28(sp)
	.cfi_restore 27
	addi	sp,sp,80
	.cfi_def_cfa_offset 0
	jr	ra
.LVL191:
.L240:
	.cfi_restore_state
.LM1127:
	lhu	a5,170(s9)
	addi	a5,a5,1
	sh	a5,170(s9)
.LM1128:
	j	.L241
.L239:
.LVL192:
.LM1129:
.LM1130:
	mv	a2,s11
	lw	s11,12(s11)
.LVL193:
.LM1131:
	j	.L237
.LVL194:
.L251:
.LM1132:
.LM1133:
.LM1134:
.LM1135:
	lbu	a2,8(a7)
.LM1136:
	beq	a2,zero,.L244
.LM1137:
	lbu	a5,72(t4)
	addi	a5,a5,1
.LM1138:
	andi	a5,a5,0xff
	bne	a2,a5,.L245
.L244:
.LM1139:
.LM1140:
	lbu	a5,1(a4)
	lbu	a2,0(a4)
.LM1141:
	lhu	a6,24(a7)
.LM1142:
	slli	a5,a5,8
	or	a5,a5,a2
.LM1143:
	bne	a6,a5,.L245
.LM1144:
	lbu	a2,3(a4)
	lbu	a5,2(a4)
	slli	a2,a2,8
	or	a2,a2,a5
.LM1145:
	lhu	a5,22(a7)
	bne	a5,a2,.L245
.LM1146:
	lw	a2,4(a7)
	bne	a1,a2,.L245
.LM1147:
	lw	t5,0(a7)
	lw	a2,20(s4)
	bne	t5,a2,.L245
.LM1148:
.LM1149:
.LVL195:
.LBB53:
.LBI53:
.LM1150:
.LBB54:
.LM1151:
.LM1152:
	andi	a4,a0,4
	bne	a4,zero,.L447
.LM1153:
.LM1154:
.LM1155:
.LM1156:
	andi	a4,a0,2
.LM1157:
	lhu	a1,%lo(tcplen)(t3)
.LM1158:
	beq	a4,zero,.L248
.LM1159:
.LM1160:
	lw	a2,%lo(seqno)(s8)
.LM1161:
	lw	a4,36(a7)
.LM1162:
	sub	a3,a2,a4
.LM1163:
	blt	a3,zero,.L249
.LM1164:
	lhu	a3,40(a7)
.LM1165:
	sub	a4,a4,a2
	add	a4,a3,a4
.LM1166:
	blt	a4,zero,.L249
.LM1167:
	add	a2,a1,a2
	lw	a1,%lo(ackno)(s2)
	addi	a4,s7,%lo(ip_data+16)
	addi	a3,s6,%lo(ip_data+20)
	mv	a0,a7
	call	tcp_rst
.LVL196:
.LM1168:
.L447:
.LM1169:
.LBE54:
.LBE53:
.LM1170:
.LM1171:
	mv	a0,s0
.LM1172:
	lw	s0,72(sp)
	.cfi_remember_state
	.cfi_restore 8
.LVL197:
.LM1173:
	lw	ra,76(sp)
	.cfi_restore 1
	lw	s1,68(sp)
	.cfi_restore 9
	lw	s2,64(sp)
	.cfi_restore 18
	lw	s3,60(sp)
	.cfi_restore 19
	lw	s4,56(sp)
	.cfi_restore 20
	lw	s5,52(sp)
	.cfi_restore 21
	lw	s6,48(sp)
	.cfi_restore 22
	lw	s7,44(sp)
	.cfi_restore 23
	lw	s8,40(sp)
	.cfi_restore 24
	lw	s9,36(sp)
	.cfi_restore 25
	lw	s10,32(sp)
	.cfi_restore 26
	lw	s11,28(sp)
	.cfi_restore 27
	addi	sp,sp,80
	.cfi_def_cfa_offset 0
.LM1174:
	tail	pbuf_free
.LVL198:
.L248:
	.cfi_restore_state
.LBB56:
.LBB55:
.LM1175:
.LM1176:
	andi	a0,a0,1
	beq	a0,zero,.L249
.LM1177:
.LM1178:
	lui	a5,%hi(tcp_ticks)
	lw	a5,%lo(tcp_ticks)(a5)
	sw	a5,32(a7)
.L249:
.LM1179:
.LM1180:
	beq	a1,zero,.L447
.LM1181:
.LM1182:
.LM1183:
	lhu	a5,26(a7)
.LM1184:
	mv	a0,a7
.LM1185:
	ori	a5,a5,2
.LM1186:
	sh	a5,26(a7)
.LM1187:
.LM1188:
.LVL199:
.L441:
.LM1189:
	call	tcp_output
.LVL200:
.LBE55:
.LBE56:
.LM1190:
	j	.L447
.LVL201:
.L245:
.LM1191:
	lw	a7,12(a7)
.LVL202:
.LM1192:
	j	.L243
.LVL203:
.L256:
.LM1193:
.LM1194:
	lbu	t0,8(a5)
.LM1195:
	beq	t0,zero,.L253
.LM1196:
	lbu	a2,72(t4)
	addi	a2,a2,1
.LM1197:
	andi	a2,a2,0xff
	bne	t0,a2,.L254
.L253:
.LM1198:
.LM1199:
	lbu	a2,3(a4)
	lbu	t2,2(a4)
.LM1200:
	lhu	t0,22(a5)
.LM1201:
	slli	a2,a2,8
.LM1202:
	or	a2,a2,t2
	bne	t0,a2,.L254
.LM1203:
.LM1204:
.LM1205:
.LM1206:
	lw	a2,0(a5)
.LM1207:
	beq	a2,t6,.L336
.LM1208:
.LM1209:
	bne	a2,zero,.L254
.LM1210:
	mv	s5,a5
.LVL204:
.LM1211:
	mv	a1,a7
.LVL205:
.L254:
.LM1212:
.LM1213:
	mv	a7,a5
	lw	a5,12(a5)
.LVL206:
.LM1214:
	j	.L252
.L336:
.LM1215:
	mv	s5,a5
.LVL207:
.LM1216:
	mv	a1,a7
.LVL208:
.L255:
.LM1217:
.LM1218:
	beq	a1,zero,.L258
.LM1219:
.LM1220:
	lw	a5,12(s5)
.LM1221:
	sw	s5,%lo(tcp_listen_pcbs)(a6)
.LM1222:
	sw	a5,12(a1)
.LM1223:
.LM1224:
	sw	t5,12(s5)
.LM1225:
.L259:
.LM1226:
.LM1227:
.LVL209:
.LBB57:
.LBI57:
.LM1228:
.LBB58:
.LM1229:
.LM1230:
.LM1231:
.LM1232:
.LM1233:
	andi	a5,a0,4
	bne	a5,zero,.L447
.LM1234:
.LM1235:
.LM1236:
.LM1237:
	andi	a5,a0,16
	beq	a5,zero,.L260
.LM1238:
.LM1239:
	lbu	a1,1(a4)
	lbu	a6,0(a4)
	lbu	a5,3(a4)
	lbu	a7,2(a4)
	lhu	a0,%lo(tcplen)(t3)
	slli	a1,a1,8
.LM1240:
	lw	a2,%lo(seqno)(s8)
.LM1241:
	or	a6,a1,a6
	lw	a1,%lo(ackno)(s2)
	slli	a5,a5,8
	add	a2,a0,a2
	or	a5,a5,a7
	addi	a4,s7,%lo(ip_data+16)
	addi	a3,s6,%lo(ip_data+20)
	mv	a0,t4
.LVL210:
.L442:
.LM1242:
.LBE58:
.LBE57:
.LM1243:
	call	tcp_rst_netif
.LVL211:
	j	.L447
.LVL212:
.L258:
.LM1244:
	lhu	a5,170(s9)
	addi	a5,a5,1
	sh	a5,170(s9)
	j	.L259
.LVL213:
.L260:
.LBB63:
.LBB62:
.LM1245:
.LM1246:
	andi	a0,a0,2
	beq	a0,zero,.L447
.LM1247:
.LM1248:
.LM1249:
	lbu	a0,21(s5)
	call	tcp_alloc
.LVL214:
	mv	s2,a0
.LVL215:
.LM1250:
.LM1251:
	bne	a0,zero,.L261
.LBB59:
.LM1252:
.LM1253:
.LM1254:
	lhu	a5,160(s9)
	addi	a5,a5,1
	sh	a5,160(s9)
.LM1255:
.LM1256:
.LM1257:
	lw	a5,24(s5)
.LM1258:
	beq	a5,zero,.L447
.LM1259:
.LM1260:
	lw	a0,16(s5)
.LVL216:
.LM1261:
	li	a2,-1
	li	a1,0
	jalr	a5
.LVL217:
	j	.L447
.LVL218:
.L261:
.LM1262:
.LBE59:
.LM1263:
.LM1264:
	lw	a5,20(s4)
.LM1265:
	sw	a5,0(a0)
.LM1266:
.LM1267:
	lw	a5,16(s4)
.LM1268:
	sw	a5,4(a0)
.LM1269:
.LM1270:
	lhu	a5,22(s5)
.LM1271:
	sh	a5,22(a0)
.LM1272:
.LM1273:
	lw	a5,%lo(tcphdr)(s1)
	lbu	a4,0(a5)
	lbu	a5,1(a5)
	slli	a5,a5,8
	or	a5,a5,a4
.LM1274:
	sh	a5,24(a0)
.LM1275:
.LM1276:
	li	a5,3
	sb	a5,20(a0)
.LM1277:
.LM1278:
	lw	a5,%lo(seqno)(s8)
	addi	a5,a5,1
.LM1279:
	sw	a5,36(a0)
.LM1280:
.LM1281:
	sw	a5,44(a0)
.LM1282:
.LM1283:
	call	tcp_next_iss
.LVL219:
.LM1284:
.LM1285:
	lw	a5,%lo(seqno)(s8)
.LM1286:
	sw	a0,88(s2)
.LM1287:
.LM1288:
	sw	a0,80(s2)
.LM1289:
.LM1290:
	addi	a5,a5,-1
.LM1291:
	sw	a0,68(s2)
.LM1292:
.LM1293:
	sw	a0,92(s2)
.LM1294:
.LM1295:
	sw	a5,84(s2)
.LM1296:
.LM1297:
	lw	a5,16(s5)
.LM1298:
	sw	s5,124(s2)
.LM1299:
	sw	a5,16(s2)
.LM1300:
.LM1301:
.LM1302:
	lbu	a5,9(s5)
	andi	a5,a5,12
.LM1303:
	sb	a5,9(s2)
.LM1304:
.LM1305:
	lbu	a5,8(s5)
.LM1306:
	sb	a5,8(s2)
.LM1307:
.LM1308:
.LM1309:
.LM1310:
	lw	a5,%lo(tcp_active_pcbs)(s3)
.LM1311:
	sw	s2,%lo(tcp_active_pcbs)(s3)
.LM1312:
	sw	a5,12(s2)
.LM1313:
.LM1314:
	call	tcp_timer_needed
.LVL220:
.LM1315:
.LM1316:
.LM1317:
	lui	a5,%hi(tcp_active_pcbs_changed)
	li	a4,1
	sb	a4,%lo(tcp_active_pcbs_changed)(a5)
.LM1318:
.LM1319:
.LVL221:
.LBB60:
.LBI60:
.LM1320:
.LBB61:
.LM1321:
.LM1322:
.LM1323:
.LM1324:
.LM1325:
.LM1326:
	lui	a5,%hi(tcphdr_optlen)
	lhu	a5,%lo(tcphdr_optlen)(a5)
	beq	a5,zero,.L262
	mv	a0,s2
	call	tcp_parseopt.part.0
.LVL222:
.L262:
.LM1327:
.LBE61:
.LBE60:
.LM1328:
.LM1329:
	lw	a5,%lo(tcphdr)(s1)
.LM1330:
	addi	a2,s2,4
.LM1331:
	mv	a0,a2
.LM1332:
	lbu	a4,14(a5)
	lbu	a5,15(a5)
.LM1333:
	lhu	s1,50(s2)
	sw	a2,8(sp)
.LM1334:
	slli	a5,a5,8
	or	a5,a5,a4
.LM1335:
	sh	a5,96(s2)
.LM1336:
.LM1337:
	sh	a5,98(s2)
.LM1338:
.LM1339:
	call	ip4_route
.LVL223:
.LM1340:
	lw	a2,8(sp)
.LM1341:
	mv	a1,a0
.LM1342:
	mv	a0,s1
	call	tcp_eff_send_mss_netif
.LVL224:
.LM1343:
	sh	a0,50(s2)
.LM1344:
.LM1345:
.LM1346:
	li	a1,18
	mv	a0,s2
	call	tcp_enqueue_flags
.LVL225:
.LM1347:
.LM1348:
	beq	a0,zero,.L263
.LM1349:
	li	a1,0
	mv	a0,s2
.LVL226:
.LM1350:
	call	tcp_abandon
.LVL227:
.LM1351:
	j	.L447
.LVL228:
.L263:
.LM1352:
	mv	a0,s2
.LVL229:
.LM1353:
	j	.L441
.LVL230:
.L266:
.LM1354:
.LBE62:
.LBE63:
.LM1355:
.LBB64:
.LBB65:
.LM1356:
	lui	a5,%hi(flags)
	lbu	a4,%lo(flags)(a5)
.LBE65:
.LBE64:
.LM1357:
	sw	s11,%lo(tcp_input_pcb)(s0)
.LM1358:
.LVL231:
.LBB84:
.LBI64:
.LM1359:
.LBB75:
.LM1360:
.LM1361:
.LM1362:
.LM1363:
.LM1364:
.LM1365:
.LM1366:
.LM1367:
	andi	a5,a4,4
	beq	a5,zero,.L270
.LVL232:
.LM1368:
.LM1369:
	lbu	a4,20(s11)
	li	a5,2
	bne	a4,a5,.L271
.LM1370:
.LM1371:
	lw	a4,80(s11)
	lw	a5,%lo(ackno)(s2)
	bne	a4,a5,.L273
.L272:
.LVL233:
.LM1372:
.LM1373:
.LM1374:
.LM1375:
.LM1376:
	lbu	a5,%lo(recv_flags)(s4)
	ori	a5,a5,8
	sb	a5,%lo(recv_flags)(s4)
.LM1377:
.LM1378:
.LM1379:
	lhu	a5,26(s11)
	andi	a5,a5,-2
.LVL234:
.L443:
.LM1380:
	sh	a5,26(s11)
.LM1381:
.LM1382:
.LVL235:
.LM1383:
.LBE75:
.LBE84:
.LM1384:
.L273:
.LM1385:
.LM1386:
	lbu	a5,%lo(recv_flags)(s4)
	andi	a5,a5,8
	beq	a5,zero,.L317
.LM1387:
.LM1388:
.LM1389:
.LM1390:
	lw	a5,144(s11)
.LM1391:
	beq	a5,zero,.L318
.LM1392:
.LM1393:
	lw	a0,16(s11)
	li	a1,-14
	jalr	a5
.LVL236:
.L318:
.LM1394:
.LM1395:
	addi	a0,s3,%lo(tcp_active_pcbs)
	mv	a1,s11
	call	tcp_pcb_remove
.LVL237:
.LM1396:
	mv	a0,s11
	call	tcp_free
.LVL238:
	j	.L269
.LVL239:
.L271:
.LBB85:
.LBB76:
.LM1397:
.LM1398:
	lw	a5,36(s11)
.LM1399:
	lw	a3,%lo(seqno)(s8)
.LM1400:
	beq	a5,a3,.L272
.LM1401:
.LM1402:
	sub	a4,a3,a5
.LM1403:
	blt	a4,zero,.L273
.LM1404:
	lhu	a4,40(s11)
.LM1405:
	sub	a5,a5,a3
	add	a5,a4,a5
.LM1406:
	blt	a5,zero,.L273
.LVL240:
.L290:
.LM1407:
.LM1408:
.LM1409:
	lhu	a5,26(s11)
	j	.L448
.LVL241:
.L270:
.LM1410:
	andi	a6,a4,2
.LM1411:
	lhu	a5,26(s11)
.LM1412:
	beq	a6,zero,.L275
.LM1413:
	lbu	a2,20(s11)
.LM1414:
	li	a1,1
.LM1415:
	addi	a2,a2,-2
.LM1416:
	andi	a2,a2,0xff
	bleu	a2,a1,.L275
.LVL242:
.L448:
.LM1417:
	ori	a5,a5,2
	j	.L443
.LVL243:
.L275:
.LM1418:
.LM1419:
	andi	a5,a5,16
	bne	a5,zero,.L276
.LM1420:
.LM1421:
	lui	a5,%hi(tcp_ticks)
	lw	a5,%lo(tcp_ticks)(a5)
	sw	a5,32(s11)
.L276:
.LM1422:
.LM1423:
.LBB66:
.LBB67:
.LM1424:
	lui	a5,%hi(tcphdr_optlen)
	lhu	a5,%lo(tcphdr_optlen)(a5)
.LBE67:
.LBE66:
.LM1425:
	sh	zero,162(s11)
.LM1426:
.LVL244:
.LBB69:
.LBI66:
.LM1427:
.LBB68:
.LM1428:
.LM1429:
.LM1430:
.LM1431:
.LM1432:
.LM1433:
	beq	a5,zero,.L277
	mv	a0,s11
	sw	a6,12(sp)
	sw	a4,8(sp)
	call	tcp_parseopt.part.0
.LVL245:
	lw	a6,12(sp)
	lw	a4,8(sp)
	lui	t3,%hi(tcplen)
.L277:
.LVL246:
.LM1434:
.LBE68:
.LBE69:
.LM1435:
.LM1436:
	lbu	a2,20(s11)
	addi	a5,a2,-2
.LM1437:
	andi	a5,a5,0xff
.LM1438:
	beq	a6,zero,.L278
.LM1439:
.LM1440:
	li	a1,1
	bgtu	a5,a1,.L273
.LM1441:
	li	a5,3
	bne	a2,a5,.L280
.LM1442:
.LM1443:
.LM1444:
	lw	a5,36(s11)
.LM1445:
	lw	a4,%lo(seqno)(s8)
.LM1446:
	addi	a5,a5,-1
.LM1447:
	bne	a5,a4,.L273
.LM1448:
	mv	a0,s11
	call	tcp_rexmit
.LVL247:
.LM1449:
.LBE76:
.LBE85:
.LM1450:
	j	.L273
.LVL248:
.L280:
.LBB86:
.LBB77:
.LM1451:
.LM1452:
.LM1453:
	andi	a4,a4,16
	beq	a4,zero,.L273
.LM1454:
	lw	a1,%lo(ackno)(s2)
.LM1455:
	lw	a2,%lo(seqno)(s8)
.LM1456:
	lw	a4,%lo(tcphdr)(s1)
.LM1457:
	beq	a6,zero,.L281
.LM1458:
	lw	a5,68(s11)
	addi	a5,a5,1
.LM1459:
	bne	a5,a1,.L281
.LM1460:
.LM1461:
	addi	a3,a2,1
.LM1462:
	sw	a3,36(s11)
.LM1463:
.LM1464:
	sw	a3,44(s11)
.LM1465:
.LM1466:
	sw	a5,68(s11)
.LM1467:
.LM1468:
	lbu	a5,15(a4)
	lbu	a3,14(a4)
.LM1469:
	addi	a2,a2,-1
.LM1470:
	slli	a5,a5,8
	or	a5,a5,a3
.LM1471:
	sh	a5,96(s11)
.LM1472:
.LM1473:
	sh	a5,98(s11)
.LM1474:
.LM1475:
	li	a5,4
.LM1476:
	sw	a2,84(s11)
.LM1477:
.LM1478:
	add	a2,s11,a5
.LM1479:
	sb	a5,20(s11)
.LM1480:
.LM1481:
	mv	a0,a2
	lhu	s1,50(s11)
	sw	a2,8(sp)
	call	ip4_route
.LVL249:
.LM1482:
	lw	a2,8(sp)
.LM1483:
	mv	a1,a0
.LM1484:
	mv	a0,s1
	call	tcp_eff_send_mss_netif
.LVL250:
.LM1485:
	li	a5,4096
.LM1486:
	slli	a4,a0,1
.LM1487:
	sh	a0,50(s11)
.LM1488:
.LM1489:
	addi	a5,a5,284
.LM1490:
	slli	a0,a0,2
.LM1491:
	mv	a3,a4
	bgeu	a4,a5,.L283
	mv	a3,a5
.L283:
.LM1492:
	bltu	a0,a3,.L284
.LM1493:
	li	a0,4096
	addi	a0,a0,284
.LM1494:
	bleu	a4,a5,.L284
.LM1495:
	mv	a0,a4
.L284:
.LM1496:
	lhu	a5,102(s11)
.LM1497:
	sh	a0,72(s11)
.LM1498:
.LM1499:
.LM1500:
.LM1501:
.LM1502:
	lw	a0,112(s11)
.LM1503:
	addi	a5,a5,-1
	sh	a5,102(s11)
.LM1504:
.LM1505:
.LVL251:
.LM1506:
.LM1507:
	bne	a0,zero,.L285
.LM1508:
.LM1509:
	lw	a0,108(s11)
.LVL252:
.LM1510:
.LM1511:
.LM1512:
.LM1513:
	lw	a5,0(a0)
.LM1514:
	sw	a5,108(s11)
.L286:
.LM1515:
	call	tcp_seg_free
.LVL253:
.LM1516:
.LM1517:
	lw	a5,112(s11)
	bne	a5,zero,.L287
.LM1518:
.LM1519:
	li	a5,-1
	sh	a5,48(s11)
.L288:
.LM1520:
.LM1521:
.LM1522:
	lw	a5,136(s11)
.LM1523:
	beq	a5,zero,.L290
.LM1524:
.LM1525:
	lw	a0,16(s11)
	li	a2,0
	mv	a1,s11
	jalr	a5
.LVL254:
.LM1526:
.LM1527:
.LM1528:
	li	a5,-13
	bne	a0,a5,.L290
	j	.L269
.LVL255:
.L285:
.LM1529:
.LM1530:
	lw	a5,0(a0)
.LM1531:
	sw	a5,112(s11)
	j	.L286
.LVL256:
.L287:
.LM1532:
.LM1533:
	sh	zero,48(s11)
.LM1534:
.LM1535:
	sb	zero,66(s11)
	j	.L288
.LVL257:
.L281:
.LM1536:
	lbu	a3,1(a4)
	lbu	a5,3(a4)
	lbu	a6,0(a4)
	lbu	t1,2(a4)
	lhu	a0,%lo(tcplen)(t3)
	slli	a3,a3,8
	slli	a5,a5,8
	or	a6,a3,a6
	or	a5,a5,t1
	addi	a4,s7,%lo(ip_data+16)
	add	a2,a0,a2
	addi	a3,s6,%lo(ip_data+20)
	mv	a0,s11
	call	tcp_rst
.LVL258:
.LM1537:
.LM1538:
	lbu	a4,66(s11)
	li	a5,5
	bgtu	a4,a5,.L273
.LM1539:
.LM1540:
	sh	zero,48(s11)
.LM1541:
	mv	a0,s11
	call	tcp_rexmit_rto
.LVL259:
.LM1542:
.LBE77:
.LBE86:
.LM1543:
	j	.L273
.LVL260:
.L291:
.LBB87:
.LBB78:
.LM1544:
.LM1545:
.LM1546:
	andi	a4,a4,16
	beq	a4,zero,.L273
.LM1547:
.LM1548:
	lw	a1,%lo(ackno)(s2)
	lw	a4,68(s11)
	addi	a5,a1,-1
	sub	a5,a5,a4
.LM1549:
	blt	a5,zero,.L292
.LM1550:
	lw	a5,80(s11)
	sub	a5,a5,a1
.LM1551:
	blt	a5,zero,.L292
.LM1552:
.LM1553:
	li	a5,4
	sb	a5,20(s11)
.LM1554:
.LM1555:
.LM1556:
	lw	a5,124(s11)
.LM1557:
	bne	a5,zero,.L293
.LVL261:
.L445:
.LM1558:
.LBE78:
.LBE87:
.LM1559:
	mv	a0,s11
	call	tcp_abort
.LVL262:
.LM1560:
	j	.L269
.LVL263:
.L293:
.LBB88:
.LBB79:
.LM1561:
.LM1562:
.LM1563:
.LM1564:
.LM1565:
.LM1566:
	lw	a5,24(a5)
.LM1567:
	beq	a5,zero,.L445
.LM1568:
.LM1569:
	lw	a0,16(s11)
	li	a2,0
	mv	a1,s11
	jalr	a5
.LVL264:
.LM1570:
.LM1571:
.LM1572:
	beq	a0,zero,.L295
.LVL265:
.LM1573:
.LM1574:
	li	a5,-13
	beq	a0,a5,.L269
	j	.L445
.LVL266:
.L295:
.LM1575:
	mv	a0,s11
.LVL267:
.LM1576:
	call	tcp_receive
.LVL268:
.LM1577:
.LM1578:
	lui	a4,%hi(recv_acked)
	lhu	a5,%lo(recv_acked)(a4)
.LM1579:
	beq	a5,zero,.L297
.LM1580:
.LM1581:
	addi	a5,a5,-1
	sh	a5,%lo(recv_acked)(a4)
.L297:
.LM1582:
.LM1583:
	lhu	a5,50(s11)
.LM1584:
	li	a4,4096
	addi	a4,a4,284
.LM1585:
	slli	a3,a5,1
.LM1586:
	mv	a2,a3
.LM1587:
	slli	a5,a5,2
.LM1588:
	bgeu	a3,a4,.L299
	mv	a2,a4
.L299:
.LM1589:
	bltu	a5,a2,.L300
.LM1590:
	li	a5,4096
	addi	a5,a5,284
.LM1591:
	bleu	a3,a4,.L300
.LM1592:
	mv	a5,a3
.L300:
.LM1593:
	sh	a5,72(s11)
.LM1594:
.LM1595:
.LVL269:
.L453:
.LM1596:
.LM1597:
	lbu	a5,%lo(recv_flags)(s4)
	andi	a5,a5,32
	beq	a5,zero,.L273
.LM1598:
.LM1599:
.LM1600:
	lhu	a5,26(s11)
	ori	a5,a5,2
.LM1601:
	sh	a5,26(s11)
.LM1602:
.LM1603:
.LM1604:
	li	a5,7
.L444:
.LM1605:
	sb	a5,20(s11)
.LVL270:
.LM1606:
.LBE79:
.LBE88:
.LM1607:
	j	.L273
.LVL271:
.L292:
.LBB89:
.LBB80:
.LM1608:
.LM1609:
	lw	a4,%lo(tcphdr)(s1)
.LM1610:
	lhu	t1,%lo(tcplen)(t3)
.LM1611:
	lw	a2,%lo(seqno)(s8)
.LM1612:
	lbu	a0,1(a4)
	lbu	a5,3(a4)
	lbu	t4,2(a4)
	lbu	a6,0(a4)
	slli	a0,a0,8
	slli	a5,a5,8
	or	a6,a0,a6
	or	a5,a5,t4
	addi	a4,s7,%lo(ip_data+16)
	addi	a3,s6,%lo(ip_data+20)
	add	a2,t1,a2
	mv	a0,s11
	call	tcp_rst
.LVL272:
.LM1613:
.LBE80:
.LBE89:
.LM1614:
	j	.L273
.LVL273:
.L301:
.LBB90:
.LBB81:
.LM1615:
	mv	a0,s11
	call	tcp_receive
.LVL274:
	j	.L453
.L302:
.LM1616:
	mv	a0,s11
	call	tcp_receive
.LVL275:
.LM1617:
.LM1618:
	lbu	a4,%lo(recv_flags)(s4)
	lui	a5,%hi(flags)
	lbu	a5,%lo(flags)(a5)
	andi	a4,a4,32
	andi	a5,a5,16
	beq	a4,zero,.L303
.LM1619:
.LM1620:
	lhu	a4,26(s11)
	ori	a4,a4,2
.LM1621:
	beq	a5,zero,.L304
.LM1622:
	lw	a3,80(s11)
	lw	a5,%lo(ackno)(s2)
	bne	a3,a5,.L304
.LM1623:
	lw	a5,108(s11)
	bne	a5,zero,.L304
.LM1624:
.LM1625:
.LM1626:
.LM1627:
	sh	a4,26(s11)
.LM1628:
.LM1629:
	mv	a0,s11
	call	tcp_pcb_purge
.LVL276:
.LM1630:
.LM1631:
.LM1632:
.LM1633:
	lw	a5,%lo(tcp_active_pcbs)(s3)
.LM1634:
	bne	s11,a5,.L305
.L450:
.LM1635:
.LM1636:
	lw	a5,12(s11)
	sw	a5,%lo(tcp_active_pcbs)(s3)
	j	.L314
.LVL277:
.L307:
.LBB70:
.LM1637:
.LM1638:
	lw	a4,12(a5)
.LM1639:
	bne	s11,a4,.L340
.LVL278:
.L451:
.LM1640:
.LBE70:
.LBB71:
.LM1641:
.LM1642:
	lw	a4,12(s11)
.LM1643:
	sw	a4,12(a5)
.LM1644:
	j	.L314
.LVL279:
.L340:
.LM1645:
.LBE71:
.LBB72:
.LM1646:
	mv	a5,a4
.LVL280:
.L305:
.LM1647:
	bne	a5,zero,.L307
.LVL281:
.L314:
.LM1648:
.LBE72:
.LM1649:
.LM1650:
.LM1651:
.LM1652:
	lui	a5,%hi(tcp_active_pcbs_changed)
	li	a4,1
	sb	a4,%lo(tcp_active_pcbs_changed)(a5)
.LM1653:
.LM1654:
.LM1655:
	li	a5,10
	sb	a5,20(s11)
.LM1656:
.LM1657:
.LM1658:
	lui	a5,%hi(tcp_tw_pcbs)
	lw	a4,%lo(tcp_tw_pcbs)(a5)
.LM1659:
	sw	s11,%lo(tcp_tw_pcbs)(a5)
.LM1660:
	sw	a4,12(s11)
.LM1661:
.LM1662:
	call	tcp_timer_needed
.LVL282:
.LM1663:
.LBE81:
.LBE90:
.LM1664:
	j	.L273
.LVL283:
.L304:
.LBB91:
.LBB82:
.LM1665:
.LM1666:
.LM1667:
	sh	a4,26(s11)
.LM1668:
.LM1669:
.LM1670:
	li	a5,8
	j	.L444
.L303:
.LM1671:
.LM1672:
	beq	a5,zero,.L273
.LM1673:
	lw	a4,80(s11)
	lw	a5,%lo(ackno)(s2)
	bne	a4,a5,.L273
.LM1674:
	lw	a5,108(s11)
	bne	a5,zero,.L273
.LM1675:
.LM1676:
	li	a5,6
	j	.L444
.L308:
.LM1677:
	mv	a0,s11
	call	tcp_receive
.LVL284:
.LM1678:
.LM1679:
	lbu	a5,%lo(recv_flags)(s4)
	andi	a5,a5,32
	beq	a5,zero,.L273
.LM1680:
.LM1681:
.LM1682:
.LM1683:
	lhu	a5,26(s11)
.LM1684:
	mv	a0,s11
.LM1685:
	ori	a5,a5,2
.LM1686:
	sh	a5,26(s11)
.LM1687:
.LM1688:
	call	tcp_pcb_purge
.LVL285:
.LM1689:
.LM1690:
.LM1691:
.LM1692:
	lw	a5,%lo(tcp_active_pcbs)(s3)
.LM1693:
	beq	s11,a5,.L450
.L309:
.LVL286:
.LBB73:
.LM1694:
	beq	a5,zero,.L314
.LM1695:
.LM1696:
	lw	a4,12(a5)
.LM1697:
	beq	s11,a4,.L451
.LM1698:
	mv	a5,a4
.LVL287:
.LM1699:
	j	.L309
.LVL288:
.L312:
.LM1700:
.LBE73:
.LM1701:
	mv	a0,s11
	call	tcp_receive
.LVL289:
.LM1702:
.LM1703:
	lui	a5,%hi(flags)
	lbu	a5,%lo(flags)(a5)
	andi	a5,a5,16
	beq	a5,zero,.L273
.LM1704:
	lw	a4,80(s11)
	lw	a5,%lo(ackno)(s2)
	bne	a4,a5,.L273
.LM1705:
	lw	a5,108(s11)
	bne	a5,zero,.L273
.LM1706:
.LM1707:
	mv	a0,s11
	call	tcp_pcb_purge
.LVL290:
.LM1708:
.LM1709:
.LM1710:
.LM1711:
	lw	a5,%lo(tcp_active_pcbs)(s3)
.LM1712:
	beq	s11,a5,.L450
.L313:
.LVL291:
.LBB74:
.LM1713:
	beq	a5,zero,.L314
.LM1714:
.LM1715:
	lw	a4,12(a5)
.LM1716:
	beq	s11,a4,.L451
.LM1717:
	mv	a5,a4
.LVL292:
.LM1718:
	j	.L313
.LVL293:
.L316:
.LM1719:
.LBE74:
.LM1720:
	mv	a0,s11
	call	tcp_receive
.LVL294:
.LM1721:
.LM1722:
	lui	a5,%hi(flags)
	lbu	a5,%lo(flags)(a5)
	andi	a5,a5,16
	beq	a5,zero,.L273
.LM1723:
	lw	a4,80(s11)
	lw	a5,%lo(ackno)(s2)
	bne	a4,a5,.L273
.LM1724:
	lw	a5,108(s11)
	bne	a5,zero,.L273
.LM1725:
.LM1726:
.LM1727:
	lbu	a5,%lo(recv_flags)(s4)
	ori	a5,a5,16
	sb	a5,%lo(recv_flags)(s4)
.LVL295:
.LM1728:
.LBE82:
.LBE91:
.LM1729:
	j	.L273
.LVL296:
.L317:
.LM1730:
.LM1731:
.LM1732:
	lui	a5,%hi(recv_acked)
	lhu	a2,%lo(recv_acked)(a5)
.LM1733:
	beq	a2,zero,.L319
.LBB92:
.LM1734:
.LM1735:
.LVL297:
.LM1736:
.LM1737:
.LM1738:
	lw	a5,128(s11)
.LM1739:
	bne	a5,zero,.L320
.LVL298:
.L321:
.LM1740:
.LM1741:
	lui	a5,%hi(recv_acked)
	sh	zero,%lo(recv_acked)(a5)
.LVL299:
.L319:
.LM1742:
.LBE92:
.LM1743:
.LM1744:
	mv	a0,s11
	call	tcp_input_delayed_close
.LVL300:
.LM1745:
	bne	a0,zero,.L269
.LM1746:
.LM1747:
	lw	a2,%lo(recv_data)(s10)
.LM1748:
	beq	a2,zero,.L323
.LM1749:
.LM1750:
.LM1751:
.LM1752:
	lhu	a5,26(s11)
	andi	a5,a5,16
	beq	a5,zero,.L324
.LM1753:
	mv	a0,a2
	call	pbuf_free
.LVL301:
	j	.L445
.LVL302:
.L320:
.LBB93:
.LM1754:
.LM1755:
	lw	a0,16(s11)
	mv	a1,s11
	jalr	a5
.LVL303:
.LM1756:
.LM1757:
.LM1758:
	li	a5,-13
	bne	a0,a5,.L321
	j	.L269
.LVL304:
.L324:
.LM1759:
.LBE93:
.LM1760:
.LM1761:
.LM1762:
	lw	a5,132(s11)
.LM1763:
	li	a3,0
	mv	a1,s11
.LM1764:
	beq	a5,zero,.L325
.LM1765:
.LM1766:
	lw	a0,16(s11)
	jalr	a5
.LVL305:
.L326:
.LM1767:
.LM1768:
.LM1769:
	li	a5,-13
	beq	a0,a5,.L269
.LM1770:
.LM1771:
	beq	a0,zero,.L323
.LM1772:
.LM1773:
	lw	a5,%lo(recv_data)(s10)
	sw	a5,120(s11)
.LVL306:
.L323:
.LM1774:
.LM1775:
.LM1776:
	lbu	a5,%lo(recv_flags)(s4)
	andi	a5,a5,32
	beq	a5,zero,.L329
.LM1777:
.LM1778:
	lw	a5,120(s11)
.LM1779:
	beq	a5,zero,.L330
.LM1780:
.LM1781:
	lbu	a4,13(a5)
	ori	a4,a4,32
	sb	a4,13(a5)
.L329:
.LM1782:
.LM1783:
	mv	a0,s11
.LM1784:
	sw	zero,%lo(tcp_input_pcb)(s0)
.LM1785:
.LM1786:
	call	tcp_input_delayed_close
.LVL307:
.LM1787:
	bne	a0,zero,.L269
.LM1788:
	mv	a0,s11
	call	tcp_output
.LVL308:
	j	.L269
.L325:
.LM1789:
.LM1790:
	call	tcp_recv_null
.LVL309:
	j	.L326
.L330:
.LM1791:
.LM1792:
	lhu	a5,40(s11)
.LM1793:
	li	a4,4096
	addi	a4,a4,-2032
	beq	a5,a4,.L331
.LM1794:
.LM1795:
	addi	a5,a5,1
	sh	a5,40(s11)
.L331:
.LM1796:
.LM1797:
.LM1798:
	lw	a5,132(s11)
.LM1799:
	beq	a5,zero,.L329
.LM1800:
.LM1801:
	lw	a0,16(s11)
	li	a3,0
	li	a2,0
	mv	a1,s11
	jalr	a5
.LVL310:
.LM1802:
.LM1803:
.LM1804:
	li	a5,-13
	bne	a0,a5,.L329
	j	.L269
.LVL311:
.L278:
.LBB94:
.LBB83:
.LM1805:
	li	a2,7
	bgtu	a5,a2,.L273
	lui	a2,%hi(.L335)
	slli	a5,a5,2
	addi	a2,a2,%lo(.L335)
	add	a5,a5,a2
	lw	a5,0(a5)
	jr	a5
	.section	.rodata.tcp_input,"a",@progbits
	.align	2
	.align	2
.L335:
	.word	.L280
	.word	.L291
	.word	.L301
	.word	.L302
	.word	.L308
	.word	.L301
	.word	.L312
	.word	.L316
	.section	.text.tcp_input
.LBE83:
.LBE94:
	.cfi_endproc
.LFE51:
	.size	tcp_input, .-tcp_input
	.section	.text.tcp_trigger_input_pcb_close,"ax",@progbits
	.align	1
	.globl	tcp_trigger_input_pcb_close
	.type	tcp_trigger_input_pcb_close, @function
tcp_trigger_input_pcb_close:
.LFB61:
.LM1806:
	.cfi_startproc
.LM1807:
.LM1808:
	lui	a4,%hi(recv_flags)
	lbu	a5,%lo(recv_flags)(a4)
	ori	a5,a5,16
	sb	a5,%lo(recv_flags)(a4)
.LM1809:
	ret
	.cfi_endproc
.LFE61:
	.size	tcp_trigger_input_pcb_close, .-tcp_trigger_input_pcb_close
	.globl	tcp_input_pcb
	.section	.sbss.tcp_input_pcb,"aw",@nobits
	.align	2
	.type	tcp_input_pcb, @object
	.size	tcp_input_pcb, 4
tcp_input_pcb:
	.zero	4
	.section	.sbss.recv_data,"aw",@nobits
	.align	2
	.type	recv_data, @object
	.size	recv_data, 4
recv_data:
	.zero	4
	.section	.sbss.recv_flags,"aw",@nobits
	.type	recv_flags, @object
	.size	recv_flags, 1
recv_flags:
	.zero	1
	.section	.sbss.flags,"aw",@nobits
	.type	flags, @object
	.size	flags, 1
flags:
	.zero	1
	.section	.sbss.tcplen,"aw",@nobits
	.align	1
	.type	tcplen, @object
	.size	tcplen, 2
tcplen:
	.zero	2
	.section	.sbss.recv_acked,"aw",@nobits
	.align	1
	.type	recv_acked, @object
	.size	recv_acked, 2
recv_acked:
	.zero	2
	.section	.sbss.ackno,"aw",@nobits
	.align	2
	.type	ackno, @object
	.size	ackno, 4
ackno:
	.zero	4
	.section	.sbss.seqno,"aw",@nobits
	.align	2
	.type	seqno, @object
	.size	seqno, 4
seqno:
	.zero	4
	.section	.sbss.tcp_optidx,"aw",@nobits
	.align	1
	.type	tcp_optidx, @object
	.size	tcp_optidx, 2
tcp_optidx:
	.zero	2
	.section	.sbss.tcphdr_opt2,"aw",@nobits
	.align	2
	.type	tcphdr_opt2, @object
	.size	tcphdr_opt2, 4
tcphdr_opt2:
	.zero	4
	.section	.sbss.tcphdr_opt1len,"aw",@nobits
	.align	1
	.type	tcphdr_opt1len, @object
	.size	tcphdr_opt1len, 2
tcphdr_opt1len:
	.zero	2
	.section	.sbss.tcphdr_optlen,"aw",@nobits
	.align	1
	.type	tcphdr_optlen, @object
	.size	tcphdr_optlen, 2
tcphdr_optlen:
	.zero	2
	.section	.sbss.tcphdr,"aw",@nobits
	.align	2
	.type	tcphdr, @object
	.size	tcphdr, 4
tcphdr:
	.zero	4
	.section	.bss.inseg,"aw",@nobits
	.align	2
	.type	inseg, @object
	.size	inseg, 20
inseg:
	.zero	20
	.text
.Letext0:
	.section	.note.GNU-stack,"",@progbits
