	.file	"bl_utils.c"
	.option nopic
	.attribute arch, "rv32i2p1_m2p0_f2p2_c2p0_zicsr2p0_zmmul1p0_zca1p0_zcf1p0"
	.attribute unaligned_access, 0
	.attribute stack_align, 16
	.text
.Ltext0:
	.cfi_sections	.debug_frame
	.section	.text.bl_radarind,"ax",@progbits
	.align	1
	.globl	bl_radarind
	.type	bl_radarind, @function
bl_radarind:
.LVL0:
.LFB104:
.LM1:
	.cfi_startproc
.LM2:
.LM3:
.LM4:
.LM5:
.LM6:
	li	a0,0
.LVL1:
.LM7:
	ret
	.cfi_endproc
.LFE104:
	.size	bl_radarind, .-bl_radarind
	.section	.text.bl_msgackind,"ax",@progbits
	.align	1
	.globl	bl_msgackind
	.type	bl_msgackind, @function
bl_msgackind:
.LVL2:
.LFB105:
.LM8:
	.cfi_startproc
.LM9:
.LM10:
.LM11:
.LM12:
.LM13:
.LM14:
	addi	sp,sp,-16
	.cfi_def_cfa_offset 16
	sw	ra,12(sp)
	.cfi_offset 1, -4
.LM15:
	lw	a5,36(a0)
	addi	a0,a0,4
.LVL3:
.LM16:
	jalr	a5
.LVL4:
.LM17:
.LM18:
	lw	ra,12(sp)
	.cfi_restore 1
	li	a0,0
	addi	sp,sp,16
	.cfi_def_cfa_offset 0
	jr	ra
	.cfi_endproc
.LFE105:
	.size	bl_msgackind, .-bl_msgackind
	.section	.text.bl_prim_tbtt_ind,"ax",@progbits
	.align	1
	.globl	bl_prim_tbtt_ind
	.type	bl_prim_tbtt_ind, @function
bl_prim_tbtt_ind:
.LVL5:
.LFB107:
.LM19:
	.cfi_startproc
.LM20:
.LM21:
.LM22:
.LM23:
.LM24:
	ret
	.cfi_endproc
.LFE107:
	.size	bl_prim_tbtt_ind, .-bl_prim_tbtt_ind
	.section	.text.my_pbuf_free_custom,"ax",@progbits
	.align	1
	.type	my_pbuf_free_custom, @function
my_pbuf_free_custom:
.LVL6:
.LFB97:
.LM25:
	.cfi_startproc
.LM26:
.LM27:
.LM28:
	lw	a0,20(a0)
.LVL7:
.LM29:
	tail	bl60x_firmwre_mpdu_free
.LVL8:
	.cfi_endproc
.LFE97:
	.size	my_pbuf_free_custom, .-my_pbuf_free_custom
	.section	.text.bl_dbgind,"ax",@progbits
	.align	1
	.globl	bl_dbgind
	.type	bl_dbgind, @function
bl_dbgind:
.LFB117:
	.cfi_startproc
.LM30:
	li	a0,0
	ret
	.cfi_endproc
.LFE117:
	.size	bl_dbgind, .-bl_dbgind
	.section	.text.bl_sec_tbtt_ind,"ax",@progbits
	.align	1
	.globl	bl_sec_tbtt_ind
	.type	bl_sec_tbtt_ind, @function
bl_sec_tbtt_ind:
.LFB113:
	.cfi_startproc
.LM31:
	ret
	.cfi_endproc
.LFE113:
	.size	bl_sec_tbtt_ind, .-bl_sec_tbtt_ind
	.section	.text.my_pbuf_free_custom_fake,"ax",@progbits
	.align	1
	.type	my_pbuf_free_custom_fake, @function
my_pbuf_free_custom_fake:
.LFB115:
	.cfi_startproc
.LM32:
	ret
	.cfi_endproc
.LFE115:
	.size	my_pbuf_free_custom_fake, .-my_pbuf_free_custom_fake
	.section	.rodata.tcpip_stack_input.str1.4,"aMS",@progbits,1
	.align	2
.LC0:
	.string	"[RX] %04X QOS DATA %02X:%02X:%02X:%02X:%02X:%02X\r\n"
	.align	2
.LC1:
	.string	"[RX] Trigger 4addr unexpected frame\r\n"
	.align	2
.LC2:
	.string	"[11n] %04d bytes[%03lu], rssi %d, %04x, lna %02u, rbb %02u, dg %02d; evm3_4 %03d, freq_offset %d, ppm %f\r\n"
	.align	2
.LC3:
	.string	"[11g] %04d bytes[%03lu], rssi %d, %04x, lna %02u, rbb %02u, dg %02d; evm3_4 %03d, freq_offset %d, ppm %f\r\n"
	.align	2
.LC5:
	.string	"[11b] %04d bytes[%03lu], fcs_err %d, rssi %d, %04x, lna %02u, rbb %02u, dg %02d; evm3 %04u:%03d, freq_offset %d, ppm %f\r\n"
	.align	2
.LC6:
	.string	"------ Frame received but no active vif (%d)\r\n"
	.section	.text.tcpip_stack_input,"ax",@progbits
	.align	1
	.globl	tcpip_stack_input
	.type	tcpip_stack_input, @function
tcpip_stack_input:
.LVL9:
.LFB103:
.LM33:
	.cfi_startproc
.LM34:
.LM35:
.LM36:
.LM37:
.LM38:
	andi	a1,a1,1
.LVL10:
.LM39:
	bne	a1,zero,.L10
.LM40:
	li	a0,-1
.LVL11:
.LM41:
	ret
.LVL12:
.L10:
.LM42:
	addi	sp,sp,-144
	.cfi_def_cfa_offset 144
	sw	ra,140(sp)
.LVL13:
.LM43:
	sw	s0,136(sp)
	sw	s1,132(sp)
	sw	s2,128(sp)
	sw	s3,124(sp)
	sw	s4,120(sp)
	sw	s5,116(sp)
	sw	s6,112(sp)
	sw	s7,108(sp)
	sw	s8,104(sp)
	sw	s9,100(sp)
	sw	s10,96(sp)
	sw	s11,92(sp)
	fsw	fs0,76(sp)
	.cfi_offset 1, -4
	.cfi_offset 8, -8
	.cfi_offset 9, -12
	.cfi_offset 18, -16
	.cfi_offset 19, -20
	.cfi_offset 20, -24
	.cfi_offset 21, -28
	.cfi_offset 22, -32
	.cfi_offset 23, -36
	.cfi_offset 24, -40
	.cfi_offset 25, -44
	.cfi_offset 26, -48
	.cfi_offset 27, -52
	.cfi_offset 40, -68
.LM44:
	lbu	a5,49(a2)
.LBB28:
.LBB29:
.LM45:
	li	a1,255
.LBE29:
.LBE28:
.LM46:
	lw	s1,0(a4)
.LM47:
.LVL14:
.LBB32:
.LBI28:
.LM48:
.LBB30:
.LM49:
.LM50:
.LM51:
.LM52:
	bne	a5,a1,.L12
.LM53:
.LM54:
	lui	a5,%hi(wifi_hw+856)
.LVL15:
.LM55:
	lw	s3,%lo(wifi_hw+856)(a5)
.LVL16:
.LM56:
	addi	a5,a5,%lo(wifi_hw+856)
.LVL17:
.L13:
.LM57:
	bne	s3,a5,.L15
.LM58:
	li	s3,0
.LVL18:
.L14:
.LM59:
.LBE30:
.LBE32:
.LM60:
	lw	a5,48(a2)
	mv	s4,a4
	mv	s5,a3
	andi	a4,a5,2
.LVL19:
.LM61:
	mv	s0,a2
	mv	s7,a0
.LVL20:
.LM62:
.LM63:
	add	s1,s1,a3
.LVL21:
.LM64:
.LM65:
	beq	a4,zero,.L16
.LVL22:
.LM66:
	lhu	a1,0(a2)
	mv	a0,s1
.LVL23:
.LM67:
	call	bl_rx_pkt_cb
.LVL24:
.LM68:
.LBB33:
.LBI33:
.LM69:
.LBB34:
.LM70:
.LM71:
.LM72:
.LM73:
.LM74:
	lhu	a1,0(s1)
.LVL25:
.LM75:
	li	a5,128
	andi	a4,a1,252
.LVL26:
.LM76:
	beq	a4,a5,.L20
.LM77:
.LM78:
	addi	a5,a4,-160
	andi	a5,a5,-33
	slli	a5,a5,16
	srli	a5,a5,16
	bne	a5,zero,.L18
.LM79:
	lhu	a5,24(s1)
.LM80:
	li	a4,1
.LM81:
	addi	a5,a5,-6
.LM82:
	slli	a5,a5,16
	srli	a5,a5,16
	bgtu	a5,a4,.L19
.LVL27:
.L20:
.LM83:
.LBE34:
.LBE33:
.LM84:
	li	a0,-1
.L9:
.LM85:
	lw	ra,140(sp)
	.cfi_remember_state
	.cfi_restore 1
	lw	s0,136(sp)
	.cfi_restore 8
	lw	s1,132(sp)
	.cfi_restore 9
	lw	s2,128(sp)
	.cfi_restore 18
	lw	s3,124(sp)
	.cfi_restore 19
.LVL28:
.LM86:
	lw	s4,120(sp)
	.cfi_restore 20
	lw	s5,116(sp)
	.cfi_restore 21
	lw	s6,112(sp)
	.cfi_restore 22
	lw	s7,108(sp)
	.cfi_restore 23
.LVL29:
.LM87:
	lw	s8,104(sp)
	.cfi_restore 24
	lw	s9,100(sp)
	.cfi_restore 25
	lw	s10,96(sp)
	.cfi_restore 26
	lw	s11,92(sp)
	.cfi_restore 27
	flw	fs0,76(sp)
	.cfi_restore 40
	addi	sp,sp,144
	.cfi_def_cfa_offset 0
	jr	ra
.LVL30:
.L15:
	.cfi_restore_state
.LBB36:
.LBB31:
.LM88:
.LM89:
	lbu	a1,111(s3)
	bne	a1,zero,.L14
.LM90:
	lw	s3,0(s3)
.LVL31:
.LM91:
	j	.L13
.LVL32:
.L12:
.LM92:
.LM93:
	li	a1,1
.LM94:
	li	s3,0
.LM95:
	bgt	a5,a1,.L14
.LM96:
.LVL33:
.LM97:
.LM98:
	li	a1,196
	mul	a1,a5,a1
	lui	a6,%hi(wifi_hw)
	addi	a6,a6,%lo(wifi_hw)
	add	a1,a6,a1
.LM99:
	lbu	a1,975(a1)
	beq	a1,zero,.L14
.LM100:
	neg	a5,a5
.LVL34:
.LM101:
	andi	a5,a5,196
.LVL35:
.LM102:
	addi	a5,a5,864
	add	s3,a5,a6
	j	.L14
.LVL36:
.L18:
.LM103:
.LBE31:
.LBE36:
.LBB37:
.LBB35:
.LM104:
.LM105:
	li	a5,208
	bne	a4,a5,.L19
.LM106:
	lbu	a4,24(s1)
	li	a5,6
	beq	a4,a5,.L20
.L19:
.LM107:
.LM108:
	andi	a5,a1,12
	li	a4,8
	beq	a5,a4,.L20
.LM109:
.LM110:
	andi	a5,a1,140
	li	a4,136
	bne	a5,a4,.L20
.LM111:
	lbu	a7,9(s1)
	lbu	a6,8(s1)
	lbu	a5,7(s1)
	lbu	a4,6(s1)
	lbu	a3,5(s1)
	lbu	a2,4(s1)
	lui	a0,%hi(.LC0)
	addi	a0,a0,%lo(.LC0)
	call	printf
.LVL37:
.LM112:
	j	.L20
.LVL38:
.L16:
.LM113:
.LBE35:
.LBE37:
.LBB38:
.LM114:
.LM115:
.LM116:
.LM117:
	lbu	a3,50(a2)
.LVL39:
.LM118:
	li	a4,255
	beq	a3,a4,.L21
.LM119:
.LM120:
	andi	a5,a5,4
.LM121:
	beq	a5,zero,.L21
.LM122:
	lbu	a5,112(s3)
	bne	a5,zero,.L21
.LM123:
	lui	a0,%hi(.LC1)
.LVL40:
.LM124:
	addi	a0,a0,%lo(.LC1)
	call	printf
.LVL41:
.L21:
.LM125:
.LM126:
.LM127:
.LM128:
.LM129:
.LM130:
.LM131:
.LM132:
.LM133:
.LM134:
.LM135:
.LM136:
.LM137:
.LM138:
.LM139:
.LM140:
.LM141:
	call	wifi_mgmr_ext_dump_needed
.LVL42:
.LM142:
	beq	a0,zero,.L22
.LM143:
.LVL43:
.LBB39:
.LBI39:
.LM144:
.LBB40:
.LM145:
.LM146:
.LM147:
.LM148:
.LM149:
.LM150:
.LM151:
	lb	s2,26(s0)
.LM152:
	lb	a5,25(s0)
.LM153:
	lui	s9,%hi(packets_lasttime.2)
.LM154:
	slli	s2,s2,8
	or	s2,s2,a5
.LM155:
	call	xTaskGetTickCount
.LVL44:
.LM156:
	lw	a5,%lo(packets_lasttime.2)(s9)
.LM157:
	slli	s8,s2,16
.LM158:
	slli	s2,s2,16
.LM159:
	sub	a0,a0,a5
.LM160:
	li	a5,4096
	addi	a5,a5,-96
.LM161:
	srai	s8,s8,16
.LM162:
	srli	s2,s2,16
.LVL45:
.LM163:
	lui	s6,%hi(packets_num.1)
	lui	s11,%hi(freq_offset_all.0)
.LM164:
	ble	a0,a5,.L23
.LM165:
.LM166:
	sw	zero,%lo(packets_num.1)(s6)
.LM167:
.LM168:
	sw	zero,%lo(freq_offset_all.0)(s11)
.L23:
.LM169:
.LM170:
	lw	a5,%lo(packets_num.1)(s6)
	addi	a5,a5,1
	sw	a5,%lo(packets_num.1)(s6)
.LM171:
.LM172:
	call	xTaskGetTickCount
.LVL46:
.LM173:
	lhu	a5,0(s0)
	lw	s6,%lo(packets_num.1)(s6)
.LM174:
	sw	a0,%lo(packets_lasttime.2)(s9)
.LM175:
.LM176:
	sw	a5,36(sp)
	lb	a5,23(s0)
.LM177:
	li	a4,1
.LM178:
	lw	s9,%lo(freq_offset_all.0)(s11)
.LM179:
	sw	a5,40(sp)
	andi	a5,s8,15
	sw	a5,44(sp)
	srli	a5,s2,4
	andi	a5,a5,31
	sw	a5,48(sp)
.LM180:
	lhu	a5,18(s0)
.LM181:
	fcvt.s.wu	fs0,s6
.LM182:
	srli	s8,s2,9
.LM183:
	andi	a5,a5,7
	bleu	a5,a4,.L24
.LM184:
.LVL47:
.LM185:
.LM186:
	lbu	s10,32(s0)
	lbu	a5,31(s0)
	slli	s10,s10,8
	or	s10,s10,a5
.LM187:
	slli	s10,s10,16
	srai	s10,s10,16
	li	a5,122
	div	a5,s10,a5
.LM188:
	add	s9,a5,s9
.LM189:
	fcvt.s.w	fa0,s9
.LM190:
	sw	a5,52(sp)
	sw	s9,%lo(freq_offset_all.0)(s11)
.LM191:
	fdiv.s	fa0,fa0,fs0
	call	__extendsfdf2
.LVL48:
.LM192:
	lw	a5,52(sp)
	sw	a1,12(sp)
	lw	a6,48(sp)
	sw	a5,4(sp)
	lw	a3,40(sp)
	lw	a5,44(sp)
	lw	a1,36(sp)
	sw	a0,8(sp)
	lui	a0,%hi(.LC2)
	sw	s10,0(sp)
	mv	a7,s8
	mv	a4,s2
	mv	a2,s6
	addi	a0,a0,%lo(.LC2)
.LVL49:
.L46:
.LM193:
	call	printf
.LVL50:
.L22:
.LM194:
.LBE40:
.LBE39:
.LM195:
.LM196:
	beq	s3,zero,.L26
.LBB42:
.LM197:
.LM198:
.LM199:
.LM200:
.LM201:
	lw	a3,16(s4)
.LVL51:
.LM202:
	li	a2,24
	li	a1,0
	mv	a0,a3
	sw	a3,36(sp)
	call	memset
.LVL52:
.LM203:
.LM204:
	lw	a3,36(sp)
	lui	a5,%hi(my_pbuf_free_custom)
	addi	a5,a5,%lo(my_pbuf_free_custom)
	sw	a5,16(a3)
.LM205:
.LM206:
	sw	s7,20(a3)
.LM207:
.LM208:
	lhu	a5,32(s4)
.LM209:
	lw	a4,0(s4)
.LM210:
	li	a2,65
	sub	a5,a5,s5
	slli	a5,a5,16
	srli	a5,a5,16
	add	a4,s5,a4
	mv	a1,a5
	li	a0,0
	call	pbuf_alloced_custom
.LVL53:
.LM211:
	lui	s6,%hi(my_pbuf_free_custom_fake)
	addi	s0,s4,34
.LVL54:
.LM212:
	addi	s2,s4,4
.LM213:
	mv	s5,a0
.LVL55:
.LM214:
.LM215:
.LM216:
	addi	s4,s4,40
.LVL56:
.LM217:
	addi	s6,s6,%lo(my_pbuf_free_custom_fake)
.LVL57:
.L29:
.LM218:
.LM219:
	lhu	a5,0(s0)
	bne	a5,zero,.L27
.L30:
.LM220:
.LVL58:
.LM221:
.LM222:
	lw	a1,8(s3)
.LM223:
	beq	a1,zero,.L20
.LVL59:
.LBB43:
.LBI43:
.LM224:
.LBB44:
.LM225:
.LM226:
.LM227:
	addi	a5,s1,6
	addi	a4,a1,62
.LVL60:
.LM228:
	addi	s1,s1,12
.LVL61:
.L32:
.LM229:
.LM230:
	lbu	a2,0(a5)
	lbu	a3,0(a4)
	bne	a2,a3,.L31
.LM231:
.LVL62:
.LM232:
	addi	a5,a5,1
.LVL63:
.LM233:
	addi	a4,a4,1
	bne	a5,s1,.L32
	j	.L20
.LVL64:
.L24:
.LM234:
.LBE44:
.LBE43:
.LBE42:
.LBB45:
.LBB41:
.LM235:
.LM236:
	lw	a5,12(s0)
.LM237:
	li	a4,3
.LM238:
	srli	a5,a5,12
.LM239:
	andi	a5,a5,15
	bleu	a5,a4,.L25
.LM240:
.LVL65:
.LM241:
.LM242:
	lbu	s10,32(s0)
	lbu	a5,31(s0)
	slli	s10,s10,8
	or	s10,s10,a5
.LM243:
	slli	s10,s10,16
	srai	s10,s10,16
	li	a5,122
	div	a5,s10,a5
.LM244:
	add	s9,a5,s9
.LM245:
	fcvt.s.w	fa0,s9
.LM246:
	sw	a5,52(sp)
	sw	s9,%lo(freq_offset_all.0)(s11)
.LM247:
	fdiv.s	fa0,fa0,fs0
	call	__extendsfdf2
.LVL66:
.LM248:
	lw	a5,52(sp)
	sw	a0,8(sp)
	lui	a0,%hi(.LC3)
	sw	a1,12(sp)
	sw	a5,4(sp)
	lw	a6,48(sp)
	lw	a5,44(sp)
	lw	a3,40(sp)
	lw	a1,36(sp)
	sw	s10,0(sp)
	mv	a7,s8
	mv	a4,s2
	mv	a2,s6
	addi	a0,a0,%lo(.LC3)
	j	.L46
.LVL67:
.L25:
.LM249:
	lbu	a5,31(s0)
.LM250:
.LM251:
	slli	s10,a5,24
	srai	s10,s10,24
	neg	s10,s10
	slli	s10,s10,16
	srai	s10,s10,16
.LVL68:
.LM252:
.LM253:
	mv	a0,s10
.LM254:
	sw	a5,60(sp)
.LM255:
	call	__floatsidf
.LVL69:
	lui	a4,%hi(.LC4)
	lw	a2,%lo(.LC4)(a4)
	lw	a3,%lo(.LC4+4)(a4)
	call	__muldf3
.LVL70:
.LM256:
	call	__fixdfsi
.LVL71:
.LM257:
	add	s9,a0,s9
.LM258:
	fcvt.s.w	fa0,s9
.LM259:
	lw	a3,36(s0)
.LM260:
	sw	a0,56(sp)
.LM261:
	fdiv.s	fa0,fa0,fs0
.LM262:
	srli	a3,a3,8
.LM263:
	andi	a3,a3,1
	sw	a3,52(sp)
.LM264:
	sw	s9,%lo(freq_offset_all.0)(s11)
.LM265:
	call	__extendsfdf2
.LVL72:
	lw	a4,56(sp)
	lw	a5,60(sp)
	sw	a1,20(sp)
	sw	a4,12(sp)
	lw	a7,48(sp)
	lw	a6,44(sp)
	lw	a4,40(sp)
	lw	a3,52(sp)
	lw	a1,36(sp)
	sw	a0,16(sp)
	lui	a0,%hi(.LC5)
	sw	a5,4(sp)
	sw	s10,8(sp)
	sw	s8,0(sp)
	mv	a5,s2
	mv	a2,s6
	addi	a0,a0,%lo(.LC5)
	call	printf
.LVL73:
	j	.L22
.LVL74:
.L27:
.LM266:
.LBE41:
.LBE45:
.LBB46:
.LM267:
.LM268:
	lw	a3,16(s2)
.LVL75:
.LM269:
	li	a2,24
	li	a1,0
	mv	a0,a3
	sw	a3,36(sp)
	call	memset
.LVL76:
.LM270:
.LM271:
	lw	a3,36(sp)
.LM272:
	li	a2,65
	li	a0,0
.LM273:
	sw	s6,16(a3)
.LM274:
.LM275:
	lhu	a5,0(s0)
.LM276:
	lw	a4,0(s2)
.LM277:
	addi	s0,s0,2
.LM278:
	mv	a1,a5
	call	pbuf_alloced_custom
.LVL77:
	mv	a1,a0
.LVL78:
.LM279:
	mv	a0,s5
.LVL79:
.LM280:
	call	pbuf_cat
.LVL80:
.LM281:
.LM282:
	addi	s2,s2,4
	bne	s0,s4,.L29
	j	.L30
.LVL81:
.L26:
.LM283:
.LBE46:
.LM284:
	lbu	a1,49(s0)
	lui	a0,%hi(.LC6)
	addi	a0,a0,%lo(.LC6)
	call	printf
.LVL82:
	j	.L20
.LVL83:
.L31:
.LBB47:
.LM285:
	lw	a5,16(a1)
	mv	a0,s5
	jalr	a5
.LVL84:
.LM286:
	snez	a0,a0
	neg	a0,a0
	j	.L9
.LBE47:
.LBE38:
	.cfi_endproc
.LFE103:
	.size	tcpip_stack_input, .-tcpip_stack_input
	.section	.text.bl_utils_idx_lookup,"ax",@progbits
	.align	1
	.globl	bl_utils_idx_lookup
	.type	bl_utils_idx_lookup, @function
bl_utils_idx_lookup:
.LVL85:
.LFB109:
.LM287:
	.cfi_startproc
.LM288:
.LM289:
.LM290:
.LM291:
.LM292:
	addi	sp,sp,-32
	.cfi_def_cfa_offset 32
	sw	s0,24(sp)
	.cfi_offset 8, -8
	addi	s0,a0,2047
	sw	s1,20(sp)
	sw	s2,16(sp)
	sw	ra,28(sp)
	.cfi_offset 9, -12
	.cfi_offset 18, -16
	.cfi_offset 1, -4
	addi	s0,s0,1169
.LM293:
	li	s1,0
.LM294:
	li	s2,12
.LVL86:
.L49:
.LM295:
.LM296:
.LM297:
	lbu	a5,8(s0)
	bne	a5,zero,.L48
.L51:
.LM298:
	addi	s1,s1,1
.LVL87:
.LM299:
	addi	s0,s0,28
	bne	s1,s2,.L49
.LM300:
.LM301:
	lui	a5,%hi(wifi_hw+3624)
	lw	s1,%lo(wifi_hw+3624)(a5)
.LVL88:
.LM302:
	j	.L47
.LVL89:
.L48:
.LM303:
.LM304:
	li	a2,6
	mv	a0,s0
	sw	a1,12(sp)
	call	memcmp
.LVL90:
.LM305:
	lw	a1,12(sp)
	bne	a0,zero,.L51
.LVL91:
.L47:
.LM306:
	lw	ra,28(sp)
	.cfi_restore 1
	lw	s0,24(sp)
	.cfi_restore 8
	lw	s2,16(sp)
	.cfi_restore 18
	mv	a0,s1
	lw	s1,20(sp)
	.cfi_restore 9
	addi	sp,sp,32
	.cfi_def_cfa_offset 0
	jr	ra
	.cfi_endproc
.LFE109:
	.size	bl_utils_idx_lookup, .-bl_utils_idx_lookup
	.section	.text.bl_ipc_init,"ax",@progbits
	.align	1
	.globl	bl_ipc_init
	.type	bl_ipc_init, @function
bl_ipc_init:
.LVL92:
.LFB110:
.LM307:
	.cfi_startproc
.LM308:
.LM309:
.LM310:
	addi	sp,sp,-48
	.cfi_def_cfa_offset 48
	sw	s0,40(sp)
	sw	s1,36(sp)
	.cfi_offset 8, -8
	.cfi_offset 9, -12
	mv	s0,a0
	mv	s1,a1
.LM311:
	li	a2,32
	li	a1,0
.LVL93:
.LM312:
	mv	a0,sp
.LVL94:
.LM313:
	sw	ra,44(sp)
	.cfi_offset 1, -4
.LM314:
	call	memset
.LVL95:
.LM315:
.LM316:
	lui	a5,%hi(bl_radarind)
	addi	a5,a5,%lo(bl_radarind)
	sw	a5,8(sp)
.LM317:
	lui	a5,%hi(bl_msgackind)
	addi	a5,a5,%lo(bl_msgackind)
	sw	a5,16(sp)
.LM318:
	lui	a5,%hi(bl_dbgind)
	addi	a5,a5,%lo(bl_dbgind)
	sw	a5,20(sp)
.LM319:
	lui	a5,%hi(bl_txdatacfm)
	addi	a5,a5,%lo(bl_txdatacfm)
	sw	a5,0(sp)
.LM320:
	lui	a5,%hi(bl_prim_tbtt_ind)
	addi	a5,a5,%lo(bl_prim_tbtt_ind)
	sw	a5,24(sp)
.LM321:
	lui	a5,%hi(bl_sec_tbtt_ind)
	addi	a5,a5,%lo(bl_sec_tbtt_ind)
.LM322:
	li	a0,228
.LM323:
	sw	a5,28(sp)
.LM324:
	sw	zero,4(sp)
.LM325:
.LM326:
.LM327:
	sw	zero,12(sp)
.LM328:
.LM329:
.LM330:
.LM331:
.LM332:
.LM333:
.LM334:
	call	pvPortMalloc
.LVL96:
.LM335:
	sw	a0,52(s0)
.LM336:
.LM337:
	lui	a5,%hi(ipc_env)
.LM338:
	mv	a3,s0
	mv	a2,s1
	mv	a1,sp
.LM339:
	sw	a0,%lo(ipc_env)(a5)
.LM340:
	call	ipc_host_init
.LVL97:
.LM341:
	addi	a0,s0,4
	call	bl_cmd_mgr_init
.LVL98:
.LM342:
.LM343:
	lw	ra,44(sp)
	.cfi_restore 1
	lw	s0,40(sp)
	.cfi_restore 8
.LVL99:
.LM344:
	lw	s1,36(sp)
	.cfi_restore 9
.LVL100:
.LM345:
	li	a0,0
	addi	sp,sp,48
	.cfi_def_cfa_offset 0
	jr	ra
	.cfi_endproc
.LFE110:
	.size	bl_ipc_init, .-bl_ipc_init
	.section	.rodata.bl_utils_dump.str1.4,"aMS",@progbits,1
	.align	2
.LC7:
	.string	"---------- bl_utils_dump -----------\r\n"
	.align	2
.LC8:
	.string	"txdesc_free_idx: %lu(%lu)\r\n"
	.align	2
.LC9:
	.string	"txdesc_used_idx: %lu(%lu)\r\n"
	.align	2
.LC10:
	.string	"tx_host_id0 cnt: %d(used %ld)\r\n"
	.align	2
.LC11:
	.string	"  list:   pbuf    status ptr  status\r\n"
	.align	2
.LC12:
	.string	"    [%lu]%p(%p:%08lX)\r\n"
	.align	2
.LC13:
	.string	"========== bl_utils_dump End =======\r\n"
	.section	.text.bl_utils_dump,"ax",@progbits
	.align	1
	.globl	bl_utils_dump
	.type	bl_utils_dump, @function
bl_utils_dump:
.LFB111:
.LM346:
	.cfi_startproc
.LM347:
.LM348:
.LM349:
.LM350:
	lui	a0,%hi(.LC7)
.LM351:
	addi	sp,sp,-32
	.cfi_def_cfa_offset 32
.LM352:
	addi	a0,a0,%lo(.LC7)
.LM353:
	sw	ra,28(sp)
	sw	s0,24(sp)
	sw	s1,20(sp)
	sw	s2,16(sp)
	.cfi_offset 1, -4
	.cfi_offset 8, -8
	.cfi_offset 9, -12
	.cfi_offset 18, -16
.LM354:
	lui	s1,%hi(ipc_env)
.LM355:
	sw	s3,12(sp)
	.cfi_offset 19, -20
.LM356:
	call	puts
.LVL101:
.LM357:
	lw	a5,%lo(ipc_env)(s1)
	lui	a0,%hi(.LC8)
	addi	a0,a0,%lo(.LC8)
	lw	a1,64(a5)
.LM358:
	li	s0,0
.LM359:
	li	s2,4
.LM360:
	andi	a2,a1,3
	call	printf
.LVL102:
.LM361:
	lw	a5,%lo(ipc_env)(s1)
	lui	a0,%hi(.LC9)
	addi	a0,a0,%lo(.LC9)
	lw	a1,68(a5)
	andi	a2,a1,3
	call	printf
.LVL103:
.LM362:
.LM363:
.LM364:
	lw	a5,%lo(ipc_env)(s1)
.LM365:
	lui	a0,%hi(.LC10)
	li	a1,4
	lw	a2,64(a5)
	lw	a5,68(a5)
	addi	a0,a0,%lo(.LC10)
	sub	a2,a2,a5
	call	printf
.LVL104:
.LM366:
	lui	a0,%hi(.LC11)
	addi	a0,a0,%lo(.LC11)
	call	puts
.LVL105:
.LM367:
.LM368:
.LM369:
	lui	a5,%hi(.LC12)
	addi	s3,a5,%lo(.LC12)
.LVL106:
.L60:
.LM370:
.LM371:
	lw	a5,%lo(ipc_env)(s1)
.LM372:
	lw	a1,68(a5)
.LM373:
	lw	a4,64(a5)
.LM374:
	add	a1,s0,a1
.LM375:
	beq	a1,a4,.L59
.LM376:
.LM377:
	andi	a1,a1,3
.LM378:
	addi	a4,a1,16
	slli	a4,a4,2
	add	a5,a5,a4
	lw	a2,8(a5)
.LVL107:
.LM379:
.LM380:
	mv	a0,s3
.LM381:
	addi	s0,s0,1
.LVL108:
.LM382:
	lw	a4,4(a2)
.LM383:
	neg	a5,a4
	andi	a5,a5,3
.LM384:
	add	a5,a5,a4
.LVL109:
.LM385:
.LM386:
	lw	a4,4(a5)
	lw	a3,24(a5)
	call	printf
.LVL110:
.LM387:
.LM388:
	bne	s0,s2,.L60
.LVL111:
.L59:
.LM389:
.LM390:
	lw	s0,24(sp)
	.cfi_restore 8
.LVL112:
.LM391:
	lw	ra,28(sp)
	.cfi_restore 1
	lw	s1,20(sp)
	.cfi_restore 9
	lw	s2,16(sp)
	.cfi_restore 18
	lw	s3,12(sp)
	.cfi_restore 19
.LM392:
	lui	a0,%hi(.LC13)
.LM393:
.LM394:
	addi	a0,a0,%lo(.LC13)
.LM395:
	addi	sp,sp,32
	.cfi_def_cfa_offset 0
.LM396:
	tail	puts
.LVL113:
	.cfi_endproc
.LFE111:
	.size	bl_utils_dump, .-bl_utils_dump
	.section	.sbss.freq_offset_all.0,"aw",@nobits
	.align	2
	.type	freq_offset_all.0, @object
	.size	freq_offset_all.0, 4
freq_offset_all.0:
	.zero	4
	.section	.sbss.packets_num.1,"aw",@nobits
	.align	2
	.type	packets_num.1, @object
	.size	packets_num.1, 4
packets_num.1:
	.zero	4
	.section	.sbss.packets_lasttime.2,"aw",@nobits
	.align	2
	.type	packets_lasttime.2, @object
	.size	packets_lasttime.2, 4
packets_lasttime.2:
	.zero	4
	.section	.sbss.ipc_env,"aw",@nobits
	.align	2
	.type	ipc_env, @object
	.size	ipc_env, 4
ipc_env:
	.zero	4
	.section	.srodata.cst8,"aM",@progbits,8
	.align	3
.LC4:
	.word	1717986918
	.word	1072064102
	.text
.Letext0:
	.section	.note.GNU-stack,"",@progbits
