	.file	"wifi_mgmr.c"
	.option nopic
	.attribute arch, "rv32i2p1_m2p0_f2p2_c2p0_zicsr2p0_zmmul1p0_zca1p0_zcf1p0"
	.attribute unaligned_access, 0
	.attribute stack_align, 16
	.text
.Ltext0:
	.cfi_sections	.debug_frame
	.section	.text.stateSnifferGuard,"ax",@progbits
	.align	1
	.type	stateSnifferGuard, @function
stateSnifferGuard:
.LVL0:
.LFB68:
.LM1:
	.cfi_startproc
.LM2:
.LM3:
.LM4:
.LM5:
	lw	a5,4(a1)
	lbu	a5,0(a5)
.LM6:
	sub	a0,a0,a5
.LVL1:
.LM7:
	seqz	a0,a0
	ret
	.cfi_endproc
.LFE68:
	.size	stateSnifferGuard, .-stateSnifferGuard
	.section	.text.stateConnectedIPYesGuard_ip_update,"ax",@progbits
	.align	1
	.type	stateConnectedIPYesGuard_ip_update, @function
stateConnectedIPYesGuard_ip_update:
.LVL2:
.LFB107:
.LM8:
	.cfi_startproc
.LM9:
.LM10:
.LM11:
.LM12:
	lw	a5,4(a1)
	lbu	a5,0(a5)
.LM13:
	sub	a0,a0,a5
.LVL3:
.LM14:
	seqz	a0,a0
	ret
	.cfi_endproc
.LFE107:
	.size	stateConnectedIPYesGuard_ip_update, .-stateConnectedIPYesGuard_ip_update
	.section	.rodata.printErrMsg.str1.4,"aMS",@progbits,1
	.align	2
.LC0:
	.string	"ENTERED ERROR STATE!"
	.section	.text.printErrMsg,"ax",@progbits
	.align	1
	.type	printErrMsg, @function
printErrMsg:
.LVL4:
.LFB52:
.LM15:
	.cfi_startproc
.LM16:
	lui	a0,%hi(.LC0)
.LVL5:
.LM17:
	addi	a0,a0,%lo(.LC0)
	tail	printf
.LVL6:
.LM18:
	.cfi_endproc
.LFE52:
	.size	printErrMsg, .-printErrMsg
	.section	.rodata.stateSnifferExit.str1.4,"aMS",@progbits,1
	.align	2
.LC1:
	.string	"[WF][SM] Exiting %s state\r\n"
	.section	.text.stateSnifferExit,"ax",@progbits
	.align	1
	.type	stateSnifferExit, @function
stateSnifferExit:
.LVL7:
.LFB74:
.LM19:
	.cfi_startproc
.LM20:
.LM21:
	mv	a1,a0
.LVL8:
.LM22:
	lui	a0,%hi(.LC1)
.LVL9:
.LM23:
	addi	a0,a0,%lo(.LC1)
	tail	printf
.LVL10:
.LM24:
	.cfi_endproc
.LFE74:
	.size	stateSnifferExit, .-stateSnifferExit
	.section	.rodata.stateSnifferAction.str1.4,"aMS",@progbits,1
	.align	2
.LC2:
	.string	"[WF][SM] State Action ###%s### --->>> ###%s###\r\n"
	.section	.text.stateSnifferAction,"ax",@progbits
	.align	1
	.type	stateSnifferAction, @function
stateSnifferAction:
.LVL11:
.LFB69:
.LM25:
	.cfi_startproc
.LM26:
.LM27:
	mv	a1,a0
.LVL12:
.LM28:
	lui	a0,%hi(.LC2)
.LVL13:
.LM29:
	addi	a0,a0,%lo(.LC2)
	tail	printf
.LVL14:
.LM30:
	.cfi_endproc
.LFE69:
	.size	stateSnifferAction, .-stateSnifferAction
	.section	.rodata.stateConnectedIPNoAction_ipgot.str1.4,"aMS",@progbits,1
	.align	2
.LC3:
	.string	"[WF][SM] IP GOT IP:%u.%u.%u.%u, MASK: %u.%u.%u.%u, Gateway: %u.%u.%u.%u, dns1: %u.%u.%u.%u, dns2: %u.%u.%u.%u\r\n"
	.section	.text.stateConnectedIPNoAction_ipgot,"ax",@progbits
	.align	1
	.type	stateConnectedIPNoAction_ipgot, @function
stateConnectedIPNoAction_ipgot:
.LVL15:
.LFB97:
.LM31:
	.cfi_startproc
.LM32:
.LM33:
.LM34:
.LM35:
.LM36:
	addi	sp,sp,-80
	.cfi_def_cfa_offset 80
	sw	ra,76(sp)
	sw	s0,72(sp)
	sw	s1,68(sp)
	.cfi_offset 1, -4
	.cfi_offset 8, -8
	.cfi_offset 9, -12
.LM37:
	mv	s1,a2
.LM38:
	lw	a2,4(a1)
.LVL16:
.LM39:
.LM40:
.LM41:
	mv	s0,a0
.LM42:
	lbu	a5,14(a2)
	lbu	a4,13(a2)
	lbu	a3,15(a2)
	slli	a5,a5,8
	or	a5,a5,a4
	slli	a3,a3,16
	or	a3,a3,a5
.LM43:
	lbu	a5,18(a2)
	lbu	a1,17(a2)
.LVL17:
.LM44:
	lbu	a0,21(a2)
.LVL18:
.LM45:
	slli	a5,a5,8
	or	a5,a5,a1
.LM46:
	lbu	a1,22(a2)
	lbu	t5,23(a2)
.LM47:
	lbu	t6,27(a2)
.LM48:
	slli	a1,a1,8
	or	a1,a1,a0
	lbu	a0,24(a2)
	slli	t5,t5,16
	or	t5,t5,a1
.LM49:
	lbu	a1,26(a2)
.LM50:
	slli	t3,a0,24
.LM51:
	lbu	a0,25(a2)
	slli	a1,a1,8
	slli	t6,t6,16
	or	a1,a1,a0
	lbu	a0,28(a2)
	or	t6,t6,a1
.LM52:
	lbu	a1,30(a2)
.LM53:
	slli	t4,a0,24
.LM54:
	lbu	a0,29(a2)
	lbu	t1,31(a2)
	slli	a1,a1,8
	or	a1,a1,a0
	lbu	a0,32(a2)
.LM55:
	lbu	a7,19(a2)
.LM56:
	slli	t1,t1,16
	or	t1,t1,a1
	slli	a0,a0,24
.LM57:
	srli	t0,a0,24
.LM58:
	slli	a7,a7,16
.LM59:
	or	a0,a0,t1
.LM60:
	srli	t1,t1,16
.LM61:
	lbu	a4,16(a2)
.LM62:
	or	a7,a7,a5
	lbu	a5,20(a2)
.LM63:
	sw	t1,44(sp)
.LM64:
	srli	t1,a0,8
.LM65:
	andi	a0,a0,255
	sw	a0,36(sp)
.LM66:
	srli	a0,t4,24
.LM67:
	sw	a0,32(sp)
	andi	t1,t1,255
.LM68:
	or	a0,t4,t6
.LM69:
	sw	t1,40(sp)
.LM70:
	srli	t1,a0,8
.LM71:
	srli	t6,t6,16
	andi	t1,t1,255
	sw	t0,48(sp)
	sw	t6,28(sp)
	sw	t1,24(sp)
	andi	a0,a0,255
	sw	a0,20(sp)
.LM72:
	srli	a0,t3,24
.LM73:
	sw	a0,16(sp)
.LM74:
	slli	a5,a5,24
.LM75:
	or	a0,t3,t5
.LM76:
	or	a5,a5,a7
.LM77:
	slli	a4,a4,24
.LM78:
	srli	t1,a0,8
.LM79:
	andi	a0,a0,255
.LM80:
	or	a1,a4,a3
.LM81:
	sw	a0,4(sp)
.LM82:
	srli	a0,a5,24
.LM83:
	sw	a0,0(sp)
.LM84:
	srli	a6,a5,8
.LM85:
	srli	a2,a1,8
.LVL19:
.LM86:
	srli	t5,t5,16
	andi	t1,t1,255
	lui	a0,%hi(.LC3)
	sw	t5,12(sp)
	sw	t1,8(sp)
	andi	a2,a2,0xff
	andi	a1,a1,0xff
	srli	a7,a7,16
	andi	a6,a6,0xff
	andi	a5,a5,0xff
	srli	a4,a4,24
	srli	a3,a3,16
	addi	a0,a0,%lo(.LC3)
	call	printf
.LVL20:
.LM87:
	mv	a1,s0
.LM88:
	lw	s0,72(sp)
	.cfi_restore 8
.LVL21:
.LM89:
	lw	ra,76(sp)
	.cfi_restore 1
.LM90:
	mv	a2,s1
.LM91:
	lw	s1,68(sp)
	.cfi_restore 9
.LVL22:
.LM92:
	lui	a0,%hi(.LC2)
.LM93:
.LM94:
	addi	a0,a0,%lo(.LC2)
.LM95:
	addi	sp,sp,80
	.cfi_def_cfa_offset 0
.LM96:
	tail	printf
.LVL23:
.LM97:
	.cfi_endproc
.LFE97:
	.size	stateConnectedIPNoAction_ipgot, .-stateConnectedIPNoAction_ipgot
	.section	.rodata.stateGlobalEnter.str1.4,"aMS",@progbits,1
	.align	2
.LC4:
	.string	"[WF][SM] Entering %s state\r\n"
	.section	.text.stateGlobalEnter,"ax",@progbits
	.align	1
	.type	stateGlobalEnter, @function
stateGlobalEnter:
.LVL24:
.LFB66:
.LM98:
	.cfi_startproc
.LM99:
.LM100:
	mv	a1,a0
.LVL25:
.LM101:
	lui	a0,%hi(.LC4)
.LVL26:
.LM102:
	addi	a0,a0,%lo(.LC4)
	tail	printf
.LVL27:
.LM103:
	.cfi_endproc
.LFE66:
	.size	stateGlobalEnter, .-stateGlobalEnter
	.section	.rodata.stateGlobalAction.str1.4,"aMS",@progbits,1
	.align	2
.LC5:
	.string	"[WF][SM] Global Action\r\n"
	.section	.text.stateGlobalAction,"ax",@progbits
	.align	1
	.type	stateGlobalAction, @function
stateGlobalAction:
.LVL28:
.LFB65:
.LM104:
	.cfi_startproc
.LM105:
	lui	a0,%hi(.LC5)
.LVL29:
.LM106:
	addi	a0,a0,%lo(.LC5)
	tail	printf
.LVL30:
.LM107:
	.cfi_endproc
.LFE65:
	.size	stateGlobalAction, .-stateGlobalAction
	.section	.text.stateConnectingEnter,"ax",@progbits
	.align	1
	.type	stateConnectingEnter, @function
stateConnectingEnter:
.LVL31:
.LFB78:
.LM108:
	.cfi_startproc
.LM109:
.LM110:
	mv	a1,a0
.LVL32:
.LM111:
	lui	a0,%hi(.LC4)
.LVL33:
.LM112:
	addi	sp,sp,-16
	.cfi_def_cfa_offset 16
.LM113:
	addi	a0,a0,%lo(.LC4)
.LM114:
	sw	ra,12(sp)
	.cfi_offset 1, -4
.LM115:
	call	printf
.LVL34:
.LM116:
.LM117:
	lw	ra,12(sp)
	.cfi_restore 1
.LM118:
	li	a2,0
.LM119:
.LM120:
	li	a1,8
	li	a0,2
.LM121:
	addi	sp,sp,16
	.cfi_def_cfa_offset 0
.LM122:
	tail	aos_post_event
.LVL35:
	.cfi_endproc
.LFE78:
	.size	stateConnectingEnter, .-stateConnectingEnter
	.section	.text.stateSnifferGuard_ChannelSet,"ax",@progbits
	.align	1
	.type	stateSnifferGuard_ChannelSet, @function
stateSnifferGuard_ChannelSet:
.LVL36:
.LFB70:
.LM123:
	.cfi_startproc
.LM124:
.LM125:
.LM126:
	lw	a5,4(a1)
.LVL37:
.LM127:
.LM128:
	lbu	a4,0(a5)
.LM129:
	bne	a0,a4,.L15
.LM130:
.LM131:
	addi	sp,sp,-16
	.cfi_def_cfa_offset 16
	sw	ra,12(sp)
	.cfi_offset 1, -4
.LM132:
	lbu	a4,6(a5)
	lbu	a3,5(a5)
.LM133:
	lbu	a2,2(a5)
.LM134:
	slli	a4,a4,8
	or	a4,a4,a3
	lbu	a3,7(a5)
.LM135:
	slli	a2,a2,8
.LM136:
	lbu	a1,8(a5)
.LVL38:
.LM137:
	slli	a3,a3,16
	or	a3,a3,a4
.LM138:
	lbu	a4,1(a5)
	lbu	a0,4(a5)
.LVL39:
.LM139:
	slli	a1,a1,24
.LM140:
	or	a2,a2,a4
	lbu	a4,3(a5)
	slli	a0,a0,24
.LM141:
	or	a1,a1,a3
.LM142:
	slli	a4,a4,16
	or	a4,a4,a2
.LM143:
	or	a0,a0,a4
	call	bl_main_monitor_channel_set
.LVL40:
.LM144:
.LM145:
	lw	ra,12(sp)
	.cfi_restore 1
	li	a0,0
	addi	sp,sp,16
	.cfi_def_cfa_offset 0
	jr	ra
.LVL41:
.L15:
.LM146:
	li	a0,0
.LVL42:
.LM147:
	ret
	.cfi_endproc
.LFE70:
	.size	stateSnifferGuard_ChannelSet, .-stateSnifferGuard_ChannelSet
	.section	.text.stateIdleGuard_sniffer,"ax",@progbits
	.align	1
	.type	stateIdleGuard_sniffer, @function
stateIdleGuard_sniffer:
.LVL43:
.LFB86:
.LM148:
	.cfi_startproc
.LM149:
.LM150:
.LM151:
.LM152:
	lw	a5,4(a1)
	lbu	a5,0(a5)
.LM153:
	bne	a0,a5,.L20
.LM154:
.LM155:
	addi	sp,sp,-16
	.cfi_def_cfa_offset 16
	sw	ra,12(sp)
.LVL44:
	.cfi_offset 1, -4
.LM156:
	call	bl_main_monitor
.LVL45:
.LM157:
.LM158:
	lw	ra,12(sp)
	.cfi_restore 1
.LM159:
	li	a0,1
.LM160:
	addi	sp,sp,16
	.cfi_def_cfa_offset 0
	jr	ra
.LVL46:
.L20:
.LM161:
	li	a0,0
.LVL47:
.LM162:
	ret
	.cfi_endproc
.LFE86:
	.size	stateIdleGuard_sniffer, .-stateIdleGuard_sniffer
	.section	.text.stateConnectedIPNoExit,"ax",@progbits
	.align	1
	.type	stateConnectedIPNoExit, @function
stateConnectedIPNoExit:
.LVL48:
.LFB105:
.LM163:
	.cfi_startproc
.LM164:
.LM165:
.LM166:
.LM167:
	addi	sp,sp,-32
	.cfi_def_cfa_offset 32
	mv	a1,a0
.LVL49:
.LM168:
	sw	a0,12(sp)
	lui	a0,%hi(.LC1)
.LVL50:
.LM169:
	addi	a0,a0,%lo(.LC1)
.LM170:
	sw	ra,28(sp)
	sw	s0,24(sp)
	.cfi_offset 1, -4
	.cfi_offset 8, -8
.LM171:
	call	printf
.LVL51:
.LM172:
.LM173:
.LM174:
	lw	a1,12(sp)
.LM175:
	li	a4,0
	li	a3,0
.LM176:
	addi	s0,a1,32
.LM177:
	li	a2,0
	li	a1,3
	mv	a0,s0
	call	xTimerGenericCommand
.LVL52:
.LM178:
	mv	a0,s0
.LM179:
	lw	s0,24(sp)
	.cfi_restore 8
	lw	ra,28(sp)
	.cfi_restore 1
.LM180:
	li	a4,0
.LM181:
.LM182:
	li	a3,0
	li	a2,0
	li	a1,5
.LM183:
	addi	sp,sp,32
	.cfi_def_cfa_offset 0
.LVL53:
.LM184:
	tail	xTimerGenericCommand
.LVL54:
	.cfi_endproc
.LFE105:
	.size	stateConnectedIPNoExit, .-stateConnectedIPNoExit
	.section	.rodata.stateDisconnect_action_idle.str1.4,"aMS",@progbits,1
	.align	2
.LC6:
	.string	"[WF][SM] Removing STA interface...\r\n"
	.section	.text.stateDisconnect_action_idle,"ax",@progbits
	.align	1
	.type	stateDisconnect_action_idle, @function
stateDisconnect_action_idle:
.LVL55:
.LFB115:
.LM185:
	.cfi_startproc
.LM186:
.LM187:
	mv	a1,a0
.LVL56:
.LM188:
	lui	a0,%hi(.LC2)
.LVL57:
.LM189:
	addi	sp,sp,-16
	.cfi_def_cfa_offset 16
.LM190:
	addi	a0,a0,%lo(.LC2)
.LM191:
	sw	ra,12(sp)
	.cfi_offset 1, -4
.LM192:
	call	printf
.LVL58:
.LM193:
	lui	a0,%hi(.LC6)
	addi	a0,a0,%lo(.LC6)
	call	printf
.LVL59:
.LM194:
	lui	a5,%hi(wifiMgmr+16)
.LM195:
	lw	ra,12(sp)
	.cfi_restore 1
.LM196:
	lbu	a0,%lo(wifiMgmr+16)(a5)
.LM197:
	addi	sp,sp,16
	.cfi_def_cfa_offset 0
.LM198:
	tail	bl_main_if_remove
.LVL60:
	.cfi_endproc
.LFE115:
	.size	stateDisconnect_action_idle, .-stateDisconnect_action_idle
	.section	.rodata.stateDisconnect_action_reconnect.str1.4,"aMS",@progbits,1
	.align	2
.LC7:
	.string	"[WF][SM]  Action Connect\r\n"
	.align	2
.LC8:
	.string	"           ssid %s\r\n"
	.align	2
.LC9:
	.string	"           ssid len %u\r\n"
	.align	2
.LC10:
	.string	"           psk %s\r\n"
	.align	2
.LC11:
	.string	"           psk len %u\r\n"
	.align	2
.LC12:
	.string	"           pmk %s\r\n"
	.align	2
.LC13:
	.string	"           pmk len %u\r\n"
	.align	2
.LC14:
	.string	"           mac %02X:%02X:%02X:%02X:%02X:%02X\r\n"
	.section	.text.stateDisconnect_action_reconnect,"ax",@progbits
	.align	1
	.type	stateDisconnect_action_reconnect, @function
stateDisconnect_action_reconnect:
.LVL61:
.LFB114:
.LM199:
	.cfi_startproc
.LM200:
.LM201:
.LM202:
.LM203:
.LM204:
.LM205:
	addi	sp,sp,-48
	.cfi_def_cfa_offset 48
	sw	s0,40(sp)
.LM206:
	mv	a1,a0
.LVL62:
	.cfi_offset 8, -8
.LM207:
	mv	s0,a0
.LM208:
	lui	a0,%hi(.LC2)
.LVL63:
.LM209:
	addi	a0,a0,%lo(.LC2)
.LM210:
	sw	ra,44(sp)
	sw	s1,36(sp)
	sw	s2,32(sp)
	sw	s3,28(sp)
	.cfi_offset 1, -4
	.cfi_offset 9, -12
	.cfi_offset 18, -16
	.cfi_offset 19, -20
.LM211:
	call	printf
.LVL64:
.LM212:
	lui	a0,%hi(.LC7)
	addi	a0,a0,%lo(.LC7)
	call	printf
.LVL65:
.LM213:
	lui	a0,%hi(.LC8)
	addi	a1,s0,77
.LVL66:
.LM214:
	addi	a0,a0,%lo(.LC8)
	call	printf
.LVL67:
.LM215:
.LM216:
	lbu	a4,111(s0)
	lbu	a5,110(s0)
	lbu	a1,113(s0)
	slli	a4,a4,8
	or	a4,a4,a5
	lbu	a5,112(s0)
	slli	a1,a1,24
.LM217:
	lui	a0,%hi(.LC9)
.LM218:
	slli	a5,a5,16
	or	a5,a5,a4
.LM219:
	or	a1,a1,a5
	addi	a0,a0,%lo(.LC9)
	call	printf
.LVL68:
.LM220:
	lui	a0,%hi(.LC10)
	addi	a1,s0,114
	addi	a0,a0,%lo(.LC10)
	call	printf
.LVL69:
.LM221:
.LM222:
	lbu	a4,245(s0)
	lbu	a5,244(s0)
	lbu	a1,247(s0)
	slli	a4,a4,8
	or	a4,a4,a5
	lbu	a5,246(s0)
	slli	a1,a1,24
.LM223:
	lui	a0,%hi(.LC11)
.LM224:
	slli	a5,a5,16
	or	a5,a5,a4
.LM225:
	or	a1,a1,a5
	addi	a0,a0,%lo(.LC11)
	call	printf
.LVL70:
.LM226:
	lui	a0,%hi(.LC12)
	addi	a1,s0,179
	addi	a0,a0,%lo(.LC12)
	call	printf
.LVL71:
.LM227:
.LM228:
	lbu	a4,249(s0)
	lbu	a5,248(s0)
	lbu	a1,251(s0)
	slli	a4,a4,8
	or	a4,a4,a5
	lbu	a5,250(s0)
	slli	a1,a1,24
.LM229:
	lui	a0,%hi(.LC13)
.LM230:
	slli	a5,a5,16
	or	a5,a5,a4
.LM231:
	or	a1,a1,a5
	addi	a0,a0,%lo(.LC13)
	call	printf
.LVL72:
.LM232:
	lbu	a6,252(s0)
	lbu	a5,253(s0)
	lbu	a4,254(s0)
	lbu	a3,255(s0)
	lbu	a2,256(s0)
	lbu	a1,257(s0)
	lui	a0,%hi(.LC14)
	addi	a0,a0,%lo(.LC14)
	call	printf
.LVL73:
.LM233:
.LM234:
	lbu	a5,249(s0)
.LM235:
	lbu	a3,245(s0)
.LM236:
	lbu	a1,111(s0)
.LM237:
	lbu	a4,248(s0)
.LM238:
	lbu	a2,244(s0)
.LM239:
	lbu	a0,110(s0)
.LM240:
	slli	a5,a5,8
.LM241:
	slli	a3,a3,8
.LM242:
	slli	a1,a1,8
.LM243:
	or	a5,a5,a4
.LM244:
	or	a3,a3,a2
.LM245:
	lbu	a4,250(s0)
.LM246:
	lbu	a2,246(s0)
.LM247:
	or	a1,a1,a0
	lbu	a0,112(s0)
.LM248:
	slli	a4,a4,16
.LM249:
	slli	a2,a2,16
.LM250:
	slli	a0,a0,16
.LM251:
	or	a4,a4,a5
.LM252:
	or	a2,a2,a3
.LM253:
	lbu	a5,251(s0)
.LM254:
	lbu	a3,247(s0)
.LM255:
	or	a0,a0,a1
	lbu	a1,113(s0)
.LM256:
	slli	a5,a5,24
.LM257:
	slli	a3,a3,24
.LM258:
	slli	a1,a1,24
.LM259:
	or	a1,a1,a0
	sw	zero,0(sp)
	addi	a6,s0,252
	or	a5,a5,a4
	or	a3,a3,a2
	addi	a4,s0,179
	addi	a2,s0,114
	addi	a0,s0,77
.LVL74:
.LM260:
	li	a7,0
	call	bl_main_connect
.LVL75:
.LM261:
.LM262:
	lw	s0,40(sp)
	.cfi_restore 8
.LVL76:
.LM263:
	lw	ra,44(sp)
	.cfi_restore 1
	lw	s1,36(sp)
	.cfi_restore 9
	lw	s2,32(sp)
	.cfi_restore 18
	lw	s3,28(sp)
	.cfi_restore 19
.LM264:
	li	a2,0
.LM265:
.LM266:
	li	a1,3
	li	a0,2
.LM267:
	addi	sp,sp,48
	.cfi_def_cfa_offset 0
.LM268:
	tail	aos_post_event
.LVL77:
	.cfi_endproc
.LFE114:
	.size	stateDisconnect_action_reconnect, .-stateDisconnect_action_reconnect
	.section	.rodata.ip_obtaining_timeout.str1.4,"aMS",@progbits,1
	.align	2
.LC15:
	.string	"[WF][SM] IP obtaining timeout\r\n"
	.section	.text.ip_obtaining_timeout,"ax",@progbits
	.align	1
	.type	ip_obtaining_timeout, @function
ip_obtaining_timeout:
.LVL78:
.LFB99:
.LM269:
	.cfi_startproc
.LM270:
.LM271:
	addi	sp,sp,-16
	.cfi_def_cfa_offset 16
	sw	ra,12(sp)
	.cfi_offset 1, -4
.LM272:
	call	pvTimerGetTimerID
.LVL79:
.LM273:
.LM274:
	lui	a0,%hi(.LC15)
	addi	a0,a0,%lo(.LC15)
	call	printf
.LVL80:
.LM275:
.LM276:
	lw	ra,12(sp)
	.cfi_restore 1
	addi	sp,sp,16
	.cfi_def_cfa_offset 0
.LM277:
	tail	wifi_mgmr_api_fw_disconnect
.LVL81:
	.cfi_endproc
.LFE99:
	.size	ip_obtaining_timeout, .-ip_obtaining_timeout
	.section	.rodata.stateConnectedIPNoEnter.str1.4,"aMS",@progbits,1
	.align	2
.LC16:
	.string	"wifi IP obtaining"
	.align	2
.LC17:
	.string	"[WF][SM] Static IP Starting...%p\r\n"
	.align	2
.LC18:
	.string	"[WF][SM] DHCP Starting...%p\r\n"
	.section	.text.stateConnectedIPNoEnter,"ax",@progbits
	.align	1
	.type	stateConnectedIPNoEnter, @function
stateConnectedIPNoEnter:
.LVL82:
.LFB103:
.LM278:
	.cfi_startproc
.LM279:
.LM280:
.LM281:
.LM282:
	addi	sp,sp,-64
	.cfi_def_cfa_offset 64
.LM283:
	mv	a1,a0
.LVL83:
.LM284:
	sw	a0,12(sp)
	lui	a0,%hi(.LC4)
.LVL84:
.LM285:
	addi	a0,a0,%lo(.LC4)
.LM286:
	sw	ra,60(sp)
	sw	s0,56(sp)
	sw	s1,52(sp)
	sw	s2,48(sp)
	sw	s3,44(sp)
	sw	s4,40(sp)
	sw	s5,36(sp)
	.cfi_offset 1, -4
	.cfi_offset 8, -8
	.cfi_offset 9, -12
	.cfi_offset 18, -16
	.cfi_offset 19, -20
	.cfi_offset 20, -24
	.cfi_offset 21, -28
.LM287:
	call	printf
.LVL85:
.LM288:
.LM289:
	lw	a3,12(sp)
.LM290:
	lui	a4,%hi(ip_obtaining_timeout)
	li	a1,16384
.LM291:
	addi	s0,a3,32
.LM292:
	lui	a0,%hi(.LC16)
	mv	a5,s0
	addi	a4,a4,%lo(ip_obtaining_timeout)
	li	a2,0
	addi	a1,a1,-1384
	addi	a0,a0,%lo(.LC16)
	call	xTimerCreateStatic
.LVL86:
.LM293:
.LM294:
	call	xTaskGetTickCount
.LVL87:
	mv	a2,a0
.LM295:
	li	a1,1
	li	a4,-1
	li	a3,0
	mv	a0,s0
	call	xTimerGenericCommand
.LVL88:
.LM296:
.LM297:
.LBB16:
.LBI16:
.LM298:
.LBB17:
.LM299:
.LM300:
.LM301:
.LM302:
.LM303:
	call	vTaskEnterCritical
.LVL89:
.LM304:
.LM305:
	lui	a5,%hi(wifiMgmr)
	addi	a5,a5,%lo(wifiMgmr)
	lw	s1,24(a5)
.LVL90:
.LM306:
.LM307:
	lw	s3,28(a5)
.LVL91:
.LM308:
.LM309:
	lw	s2,32(a5)
.LVL92:
.LM310:
.LM311:
	lw	s5,36(a5)
.LVL93:
.LM312:
.LM313:
	lw	s4,40(a5)
.LVL94:
.LM314:
	lui	s0,%hi(wifiMgmr+44)
	call	vTaskExitCritical
.LVL95:
.LM315:
.LM316:
	addi	a1,s0,%lo(wifiMgmr+44)
.LM317:
	beq	s1,zero,.L34
.LM318:
	lui	a0,%hi(.LC17)
	addi	a0,a0,%lo(.LC17)
	call	printf
.LVL96:
.LM319:
.LM320:
	addi	a1,sp,20
	li	a0,0
.LM321:
	sw	s5,20(sp)
.LM322:
	call	dns_setserver
.LVL97:
.LM323:
.LM324:
	addi	a1,sp,20
	li	a0,1
.LM325:
	sw	s4,20(sp)
.LM326:
	call	dns_setserver
.LVL98:
.LM327:
.LM328:
	lui	a1,%hi(dhcp_stop)
	li	a2,0
	addi	a1,a1,%lo(dhcp_stop)
	addi	a0,s0,%lo(wifiMgmr+44)
.LM329:
	sw	s1,20(sp)
.LM330:
.LM331:
	sw	s3,24(sp)
.LM332:
.LM333:
	sw	s2,28(sp)
.LM334:
	call	netifapi_netif_common
.LVL99:
.LM335:
	addi	a3,sp,28
	addi	a2,sp,24
	addi	a1,sp,20
	addi	a0,s0,%lo(wifiMgmr+44)
	call	netifapi_netif_set_addr
.LVL100:
.L35:
.LM336:
.LBE17:
.LBE16:
.LM337:
.LM338:
	lw	s0,56(sp)
	.cfi_remember_state
	.cfi_restore 8
	lw	ra,60(sp)
	.cfi_restore 1
	lw	s1,52(sp)
	.cfi_restore 9
	lw	s2,48(sp)
	.cfi_restore 18
	lw	s3,44(sp)
	.cfi_restore 19
	lw	s4,40(sp)
	.cfi_restore 20
	lw	s5,36(sp)
	.cfi_restore 21
.LM339:
	li	a2,0
.LM340:
.LM341:
	li	a1,4
	li	a0,2
.LM342:
	addi	sp,sp,64
	.cfi_def_cfa_offset 0
.LVL101:
.LM343:
	tail	aos_post_event
.LVL102:
.L34:
	.cfi_restore_state
.LBB19:
.LBB18:
.LM344:
	lui	a0,%hi(.LC18)
	addi	a0,a0,%lo(.LC18)
	call	printf
.LVL103:
.LM345:
	addi	a0,s0,%lo(wifiMgmr+44)
	call	wifi_netif_dhcp_start
.LVL104:
	j	.L35
.LBE18:
.LBE19:
	.cfi_endproc
.LFE103:
	.size	stateConnectedIPNoEnter, .-stateConnectedIPNoEnter
	.section	.text.stateConnectedIPNoGuard_disconnect,"ax",@progbits
	.align	1
	.type	stateConnectedIPNoGuard_disconnect, @function
stateConnectedIPNoGuard_disconnect:
.LVL105:
.LFB96:
.LM346:
	.cfi_startproc
.LM347:
.LM348:
.LM349:
.LM350:
	lw	a5,4(a1)
	lbu	a5,0(a5)
.LM351:
	bne	a0,a5,.L40
.LM352:
.LM353:
	addi	sp,sp,-16
	.cfi_def_cfa_offset 16
	sw	ra,12(sp)
.LVL106:
	.cfi_offset 1, -4
.LM354:
	call	bl_main_disconnect
.LVL107:
.LM355:
.LM356:
	lw	ra,12(sp)
	.cfi_restore 1
	li	a0,0
	addi	sp,sp,16
	.cfi_def_cfa_offset 0
	jr	ra
.LVL108:
.L40:
.LM357:
	li	a0,0
.LVL109:
.LM358:
	ret
	.cfi_endproc
.LFE96:
	.size	stateConnectedIPNoGuard_disconnect, .-stateConnectedIPNoGuard_disconnect
	.section	.text.stateConnectedIPYesGuard_disconnect,"ax",@progbits
	.align	1
	.type	stateConnectedIPYesGuard_disconnect, @function
stateConnectedIPYesGuard_disconnect:
.LFB182:
	.cfi_startproc
.LM359:
	tail	stateConnectedIPNoGuard_disconnect
	.cfi_endproc
.LFE182:
	.size	stateConnectedIPYesGuard_disconnect, .-stateConnectedIPYesGuard_disconnect
	.section	.rodata.stateConnectedIPYesGuard_rcconfig.str1.4,"aMS",@progbits,1
	.align	2
.LC19:
	.string	"[WF][SM] rate config, use sta_idx 0, rate_config %04X\r\n"
	.section	.text.stateConnectedIPYesGuard_rcconfig,"ax",@progbits
	.align	1
	.type	stateConnectedIPYesGuard_rcconfig, @function
stateConnectedIPYesGuard_rcconfig:
.LVL110:
.LFB109:
.LM360:
	.cfi_startproc
.LM361:
.LM362:
.LM363:
	addi	sp,sp,-16
	.cfi_def_cfa_offset 16
	sw	ra,12(sp)
	sw	s0,8(sp)
	.cfi_offset 1, -4
	.cfi_offset 8, -8
.LM364:
	lw	s0,4(a1)
.LVL111:
.LM365:
.LM366:
	lbu	a5,0(s0)
.LM367:
	bne	a0,a5,.L45
.LM368:
.LM369:
	lbu	a4,2(s0)
	lbu	a5,1(s0)
	lbu	a1,4(s0)
.LVL112:
.LM370:
	slli	a4,a4,8
	or	a4,a4,a5
	lbu	a5,3(s0)
	slli	a1,a1,24
.LM371:
	lui	a0,%hi(.LC19)
.LVL113:
.LM372:
	slli	a5,a5,16
	or	a5,a5,a4
.LM373:
	or	a1,a1,a5
	addi	a0,a0,%lo(.LC19)
	call	printf
.LVL114:
.LM374:
.LM375:
	lbu	a5,2(s0)
	lbu	a1,1(s0)
.LM376:
	li	a0,0
.LM377:
	slli	a5,a5,8
.LM378:
	or	a1,a5,a1
	call	bl_main_rate_config
.LVL115:
.LM379:
.L45:
.LM380:
	lw	ra,12(sp)
	.cfi_restore 1
	lw	s0,8(sp)
	.cfi_restore 8
.LVL116:
.LM381:
	li	a0,0
	addi	sp,sp,16
	.cfi_def_cfa_offset 0
	jr	ra
	.cfi_endproc
.LFE109:
	.size	stateConnectedIPYesGuard_rcconfig, .-stateConnectedIPYesGuard_rcconfig
	.section	.rodata.stateIdleAction_connect.str1.4,"aMS",@progbits,1
	.align	2
.LC20:
	.string	"true"
	.align	2
.LC21:
	.string	"false"
	.align	2
.LC22:
	.string	"[WF][SM] Action Connect\r\n"
	.align	2
.LC23:
	.string	"           channel band %d\r\n"
	.align	2
.LC24:
	.string	"           channel freq %d\r\n"
	.align	2
.LC25:
	.string	"           dhcp status: %s\r\n"
	.section	.text.stateIdleAction_connect,"ax",@progbits
	.align	1
	.type	stateIdleAction_connect, @function
stateIdleAction_connect:
.LVL117:
.LFB87:
.LM382:
	.cfi_startproc
.LM383:
.LM384:
.LM385:
.LM386:
	addi	sp,sp,-48
	.cfi_def_cfa_offset 48
	sw	ra,44(sp)
	sw	s4,24(sp)
	sw	s5,20(sp)
	sw	s0,40(sp)
	sw	s1,36(sp)
	sw	s2,32(sp)
	sw	s3,28(sp)
	.cfi_offset 1, -4
	.cfi_offset 20, -24
	.cfi_offset 21, -28
	.cfi_offset 8, -8
	.cfi_offset 9, -12
	.cfi_offset 18, -16
	.cfi_offset 19, -20
.LM387:
	lw	s0,4(a1)
.LVL118:
.LM388:
.LM389:
.LM390:
	mv	s4,a0
.LM391:
	lui	a0,%hi(.LC22)
.LVL119:
.LM392:
	sb	zero,45(s0)
.LM393:
.LM394:
	sb	zero,114(s0)
.LM395:
	addi	a0,a0,%lo(.LC22)
.LM396:
	mv	s5,a2
.LM397:
	call	printf
.LVL120:
.LM398:
	lui	a0,%hi(.LC8)
	addi	a1,s0,13
.LVL121:
.LM399:
	addi	a0,a0,%lo(.LC8)
	call	printf
.LVL122:
.LM400:
.LM401:
	lbu	a4,47(s0)
	lbu	a5,46(s0)
	lbu	a1,49(s0)
	slli	a4,a4,8
	or	a4,a4,a5
	lbu	a5,48(s0)
	slli	a1,a1,24
.LM402:
	lui	a0,%hi(.LC9)
.LM403:
	slli	a5,a5,16
	or	a5,a5,a4
.LM404:
	or	a1,a1,a5
	addi	a0,a0,%lo(.LC9)
	call	printf
.LVL123:
.LM405:
	lui	a0,%hi(.LC10)
	addi	a1,s0,50
	addi	a0,a0,%lo(.LC10)
	call	printf
.LVL124:
.LM406:
.LM407:
	lbu	a4,181(s0)
	lbu	a5,180(s0)
	lbu	a1,183(s0)
	slli	a4,a4,8
	or	a4,a4,a5
	lbu	a5,182(s0)
	slli	a1,a1,24
.LM408:
	lui	a0,%hi(.LC11)
.LM409:
	slli	a5,a5,16
	or	a5,a5,a4
.LM410:
	or	a1,a1,a5
	addi	a0,a0,%lo(.LC11)
	call	printf
.LVL125:
.LM411:
	lui	a0,%hi(.LC12)
	addi	a1,s0,115
	addi	a0,a0,%lo(.LC12)
	call	printf
.LVL126:
.LM412:
.LM413:
	lbu	a4,185(s0)
	lbu	a5,184(s0)
	lbu	a1,187(s0)
	slli	a4,a4,8
	or	a4,a4,a5
	lbu	a5,186(s0)
	slli	a1,a1,24
.LM414:
	lui	a0,%hi(.LC13)
.LM415:
	slli	a5,a5,16
	or	a5,a5,a4
.LM416:
	or	a1,a1,a5
	addi	a0,a0,%lo(.LC13)
	call	printf
.LVL127:
.LM417:
	lbu	a1,194(s0)
	lui	a0,%hi(.LC23)
	addi	a0,a0,%lo(.LC23)
	call	printf
.LVL128:
.LM418:
.LM419:
	lbu	a5,196(s0)
	lbu	a1,195(s0)
.LM420:
	lui	a0,%hi(.LC24)
.LM421:
	slli	a5,a5,8
.LM422:
	or	a1,a5,a1
	addi	a0,a0,%lo(.LC24)
	call	printf
.LVL129:
.LM423:
	lbu	a5,189(s0)
	lbu	a6,188(s0)
	lbu	a4,190(s0)
	lbu	a3,191(s0)
	lbu	a2,192(s0)
	lbu	a1,193(s0)
	lui	a0,%hi(.LC14)
	addi	a0,a0,%lo(.LC14)
	call	printf
.LVL130:
.LM424:
	lbu	a5,197(s0)
	beq	a5,zero,.L49
.LM425:
	lui	a1,%hi(.LC20)
	addi	a1,a1,%lo(.LC20)
.L48:
.LM426:
	lui	a0,%hi(.LC25)
	addi	a0,a0,%lo(.LC25)
	call	printf
.LVL131:
.LM427:
	lui	a0,%hi(wifiMgmr)
	addi	a1,s0,13
	li	a2,-1
	addi	a0,a0,%lo(wifiMgmr)
	call	wifi_mgmr_profile_add
.LVL132:
.LM428:
	lui	a0,%hi(.LC2)
	mv	a2,s5
	mv	a1,s4
	addi	a0,a0,%lo(.LC2)
	call	printf
.LVL133:
.LM429:
.LM430:
	lbu	a5,185(s0)
.LM431:
	lbu	a3,181(s0)
.LM432:
	lbu	a1,47(s0)
.LM433:
	lbu	a4,184(s0)
.LM434:
	lbu	a2,180(s0)
.LM435:
	lbu	a0,46(s0)
.LM436:
	slli	a5,a5,8
.LM437:
	slli	a3,a3,8
.LM438:
	slli	a1,a1,8
.LM439:
	or	a5,a5,a4
.LM440:
	or	a3,a3,a2
.LM441:
	lbu	a4,186(s0)
.LM442:
	lbu	a2,182(s0)
.LM443:
	or	a1,a1,a0
	lbu	a0,48(s0)
.LM444:
	lbu	a6,196(s0)
.LM445:
	slli	a4,a4,16
.LM446:
	slli	a2,a2,16
.LM447:
	slli	a0,a0,16
.LM448:
	lbu	t1,195(s0)
.LM449:
	or	a4,a4,a5
.LM450:
	or	a2,a2,a3
.LM451:
	lbu	a5,187(s0)
.LM452:
	lbu	a3,183(s0)
.LM453:
	or	a0,a0,a1
	lbu	a1,49(s0)
.LM454:
	lbu	a7,194(s0)
.LM455:
	slli	a6,a6,8
.LM456:
	or	a6,a6,t1
.LM457:
	slli	a5,a5,24
.LM458:
	slli	a3,a3,24
.LM459:
	slli	a1,a1,24
.LM460:
	sw	a6,0(sp)
	or	a5,a5,a4
	addi	a6,s0,188
	addi	a4,s0,115
	or	a3,a3,a2
	or	a1,a1,a0
	addi	a2,s0,50
	addi	a0,s0,13
	call	bl_main_connect
.LVL134:
.LM461:
	lw	ra,44(sp)
	.cfi_remember_state
	.cfi_restore 1
	lw	s0,40(sp)
	.cfi_restore 8
.LVL135:
.LM462:
	lw	s1,36(sp)
	.cfi_restore 9
	lw	s2,32(sp)
	.cfi_restore 18
	lw	s3,28(sp)
	.cfi_restore 19
	lw	s4,24(sp)
	.cfi_restore 20
.LVL136:
.LM463:
	lw	s5,20(sp)
	.cfi_restore 21
.LVL137:
.LM464:
	addi	sp,sp,48
	.cfi_def_cfa_offset 0
	jr	ra
.LVL138:
.L49:
	.cfi_restore_state
.LM465:
	lui	a1,%hi(.LC21)
	addi	a1,a1,%lo(.LC21)
	j	.L48
	.cfi_endproc
.LFE87:
	.size	stateIdleAction_connect, .-stateIdleAction_connect
	.section	.rodata.stateIdleGuard_connect.str1.4,"aMS",@progbits,1
	.align	2
.LC26:
	.string	"[WF][SM] %s: add STA iface failed\r\n"
	.section	.text.stateIdleGuard_connect,"ax",@progbits
	.align	1
	.type	stateIdleGuard_connect, @function
stateIdleGuard_connect:
.LVL139:
.LFB85:
.LM466:
	.cfi_startproc
.LM467:
.LM468:
.LM469:
.LM470:
	lw	a5,4(a1)
	lbu	a5,0(a5)
.LM471:
	bne	a0,a5,.L57
.LM472:
.LM473:
	lui	a2,%hi(wifiMgmr+16)
	lui	a1,%hi(wifiMgmr+44)
.LVL140:
.LM474:
	addi	sp,sp,-16
	.cfi_def_cfa_offset 16
.LM475:
	addi	a2,a2,%lo(wifiMgmr+16)
	addi	a1,a1,%lo(wifiMgmr+44)
	li	a0,1
.LVL141:
.LM476:
	sw	ra,12(sp)
.LVL142:
	.cfi_offset 1, -4
.LM477:
	call	bl_main_if_add
.LVL143:
.LM478:
	li	a5,1
.LM479:
	beq	a0,zero,.L53
.LM480:
	lui	a1,%hi(__func__.1)
	lui	a0,%hi(.LC26)
	addi	a1,a1,%lo(__func__.1)
	addi	a0,a0,%lo(.LC26)
	call	printf
.LVL144:
.LM481:
.LM482:
	li	a5,0
.L53:
.LM483:
	lw	ra,12(sp)
	.cfi_restore 1
	mv	a0,a5
	addi	sp,sp,16
	.cfi_def_cfa_offset 0
	jr	ra
.LVL145:
.L57:
.LM484:
	li	a5,0
.LM485:
	mv	a0,a5
.LVL146:
.LM486:
	ret
	.cfi_endproc
.LFE85:
	.size	stateIdleGuard_connect, .-stateIdleGuard_connect
	.section	.rodata.stateIfaceDownGuard_phyup.str1.4,"aMS",@progbits,1
	.align	2
.LC27:
	.string	"[WF][SM] state mismatch\r\n"
	.section	.text.stateIfaceDownGuard_phyup,"ax",@progbits
	.align	1
	.type	stateIfaceDownGuard_phyup, @function
stateIfaceDownGuard_phyup:
.LVL147:
.LFB91:
.LM487:
	.cfi_startproc
.LM488:
.LM489:
.LM490:
.LM491:
.LM492:
	lw	a5,4(a1)
.LM493:
	addi	sp,sp,-16
	.cfi_def_cfa_offset 16
	sw	ra,12(sp)
.LVL148:
	.cfi_offset 1, -4
.LM494:
	lbu	a5,0(a5)
.LVL149:
.LM495:
	beq	a0,a5,.L62
.LM496:
	lui	a0,%hi(.LC27)
.LVL150:
.LM497:
	addi	a0,a0,%lo(.LC27)
	call	printf
.LVL151:
.LM498:
.LM499:
	li	a0,0
.L63:
.LM500:
	lw	ra,12(sp)
	.cfi_remember_state
	.cfi_restore 1
	addi	sp,sp,16
	.cfi_def_cfa_offset 0
	jr	ra
.LVL152:
.L62:
	.cfi_restore_state
.LM501:
.LM502:
	call	bl_main_phy_up
.LVL153:
.LM503:
.LM504:
	seqz	a0,a0
.LVL154:
.LM505:
	j	.L63
	.cfi_endproc
.LFE91:
	.size	stateIfaceDownGuard_phyup, .-stateIfaceDownGuard_phyup
	.section	.text.stateGlobal_cfg_req,"ax",@progbits
	.align	1
	.type	stateGlobal_cfg_req, @function
stateGlobal_cfg_req:
.LVL155:
.LFB72:
.LM506:
	.cfi_startproc
.LM507:
.LM508:
.LM509:
.LM510:
	lw	a4,4(a1)
.LVL156:
.LM511:
.LM512:
	li	a5,22
	lbu	a3,0(a4)
	bne	a3,a5,.L68
.LM513:
.LM514:
.LM515:
	addi	sp,sp,-16
	.cfi_def_cfa_offset 16
	sw	ra,12(sp)
	.cfi_offset 1, -4
.LM516:
	lbu	a5,26(a4)
	lbu	a3,25(a4)
	lbu	t3,27(a4)
	slli	a5,a5,8
	or	a5,a5,a3
	slli	t3,t3,16
	or	t3,t3,a5
	lbu	a5,22(a4)
	lbu	a2,21(a4)
	lbu	t1,23(a4)
	slli	a5,a5,8
	or	a5,a5,a2
	slli	t1,t1,16
	or	t1,t1,a5
	lbu	a5,18(a4)
	lbu	a1,17(a4)
.LVL157:
.LM517:
	lbu	a7,19(a4)
	slli	a5,a5,8
	or	a5,a5,a1
	slli	a7,a7,16
	or	a7,a7,a5
	lbu	a5,14(a4)
	lbu	a0,13(a4)
.LVL158:
.LM518:
	lbu	a6,15(a4)
	slli	a5,a5,8
	lbu	a3,28(a4)
	lbu	a2,24(a4)
	lbu	a1,20(a4)
	or	a5,a5,a0
	lbu	a0,16(a4)
	slli	a6,a6,16
	or	a6,a6,a5
	slli	a3,a3,24
	slli	a2,a2,24
	slli	a1,a1,24
	slli	a0,a0,24
	li	a5,0
	addi	a4,a4,33
.LVL159:
.LM519:
	or	a3,a3,t3
	or	a2,a2,t1
	or	a1,a1,a7
	or	a0,a0,a6
	call	bl_main_cfg_task_req
.LVL160:
.LM520:
.LM521:
	lw	ra,12(sp)
	.cfi_restore 1
	li	a0,0
	addi	sp,sp,16
	.cfi_def_cfa_offset 0
	jr	ra
.LVL161:
.L68:
.LM522:
.LM523:
	li	a0,0
.LVL162:
.LM524:
	ret
	.cfi_endproc
.LFE72:
	.size	stateGlobal_cfg_req, .-stateGlobal_cfg_req
	.section	.rodata.stateGlobalGuard_fw_powersaving.str1.4,"aMS",@progbits,1
	.align	2
.LC28:
	.string	"------>>>>>> Powersaving CMD, mode: %u\r\n"
	.section	.text.stateGlobalGuard_fw_powersaving,"ax",@progbits
	.align	1
	.type	stateGlobalGuard_fw_powersaving, @function
stateGlobalGuard_fw_powersaving:
.LVL163:
.LFB63:
.LM525:
	.cfi_startproc
.LM526:
.LM527:
.LM528:
	addi	sp,sp,-16
	.cfi_def_cfa_offset 16
	sw	ra,12(sp)
	sw	s0,8(sp)
	.cfi_offset 1, -4
	.cfi_offset 8, -8
.LM529:
	lw	s0,4(a1)
.LVL164:
.LM530:
.LM531:
	li	a5,16
	lbu	a4,0(s0)
	bne	a4,a5,.L72
.LM532:
.LM533:
	lbu	a4,2(s0)
	lbu	a5,1(s0)
	lbu	a1,4(s0)
.LVL165:
.LM534:
	slli	a4,a4,8
	or	a4,a4,a5
	lbu	a5,3(s0)
	slli	a1,a1,24
.LM535:
	lui	a0,%hi(.LC28)
.LVL166:
.LM536:
	slli	a5,a5,16
	or	a5,a5,a4
.LM537:
	or	a1,a1,a5
	addi	a0,a0,%lo(.LC28)
	call	printf
.LVL167:
.LM538:
.LM539:
	lbu	a4,2(s0)
	lbu	a5,1(s0)
	lbu	a0,4(s0)
	slli	a4,a4,8
	or	a4,a4,a5
	lbu	a5,3(s0)
	slli	a0,a0,24
	slli	a5,a5,16
	or	a5,a5,a4
.LM540:
	or	a0,a0,a5
	call	bl_main_powersaving
.LVL168:
.L72:
.LM541:
.LM542:
	lw	ra,12(sp)
	.cfi_restore 1
	lw	s0,8(sp)
	.cfi_restore 8
.LVL169:
.LM543:
	li	a0,0
	addi	sp,sp,16
	.cfi_def_cfa_offset 0
	jr	ra
	.cfi_endproc
.LFE63:
	.size	stateGlobalGuard_fw_powersaving, .-stateGlobalGuard_fw_powersaving
	.section	.rodata.stateGlobalGuard_conf_max_sta.str1.4,"aMS",@progbits,1
	.align	2
.LC29:
	.string	"[WF][SM] Conf max sta supported %lu...\r\n"
	.section	.text.stateGlobalGuard_conf_max_sta,"ax",@progbits
	.align	1
	.type	stateGlobalGuard_conf_max_sta, @function
stateGlobalGuard_conf_max_sta:
.LVL170:
.LFB82:
.LM544:
	.cfi_startproc
.LM545:
.LM546:
.LM547:
	addi	sp,sp,-16
	.cfi_def_cfa_offset 16
	sw	ra,12(sp)
	sw	s0,8(sp)
	.cfi_offset 1, -4
	.cfi_offset 8, -8
.LM548:
	lw	s0,4(a1)
.LVL171:
.LM549:
.LM550:
	li	a5,10
	lbu	a4,0(s0)
	bne	a4,a5,.L75
.LM551:
.LM552:
	lbu	a4,2(s0)
	lbu	a5,1(s0)
	lbu	a1,4(s0)
.LVL172:
.LM553:
	slli	a4,a4,8
	or	a4,a4,a5
	lbu	a5,3(s0)
	slli	a1,a1,24
.LM554:
	lui	a0,%hi(.LC29)
.LVL173:
.LM555:
	slli	a5,a5,16
	or	a5,a5,a4
.LM556:
	or	a1,a1,a5
	addi	a0,a0,%lo(.LC29)
	call	printf
.LVL174:
.LM557:
	lbu	a0,1(s0)
	call	bl_main_conf_max_sta
.LVL175:
.LM558:
.L75:
.LM559:
	lw	ra,12(sp)
	.cfi_restore 1
	lw	s0,8(sp)
	.cfi_restore 8
.LVL176:
.LM560:
	li	a0,0
	addi	sp,sp,16
	.cfi_def_cfa_offset 0
	jr	ra
	.cfi_endproc
.LFE82:
	.size	stateGlobalGuard_conf_max_sta, .-stateGlobalGuard_conf_max_sta
	.section	.rodata.stateGlobalGuard_AP.str1.4,"aMS",@progbits,1
	.align	2
.LC30:
	.string	"[WF][SM] %s: add AP iface failed\r\n"
	.align	2
.LC31:
	.string	"[WF][SM] start AP with ssid %s;\r\n"
	.align	2
.LC32:
	.string	"[WF][SM]               pwd  %s;\r\n"
	.align	2
.LC33:
	.string	"[WF][SM]               channel  %ld;\r\n"
	.section	.text.stateGlobalGuard_AP,"ax",@progbits
	.align	1
	.type	stateGlobalGuard_AP, @function
stateGlobalGuard_AP:
.LVL177:
.LFB80:
.LM561:
	.cfi_startproc
.LM562:
.LM563:
.LM564:
.LM565:
	addi	sp,sp,-32
	.cfi_def_cfa_offset 32
	sw	ra,28(sp)
	sw	s0,24(sp)
	sw	s1,20(sp)
	sw	s2,16(sp)
	sw	s3,12(sp)
	.cfi_offset 1, -4
	.cfi_offset 8, -8
	.cfi_offset 9, -12
	.cfi_offset 18, -16
	.cfi_offset 19, -20
.LM566:
	lw	s0,4(a1)
.LVL178:
.LM567:
.LM568:
	li	a5,8
	lbu	a4,0(s0)
	bne	a4,a5,.L78
.LM569:
.LM570:
	lui	a2,%hi(wifiMgmr+136)
	lui	s1,%hi(wifiMgmr+164)
	addi	a2,a2,%lo(wifiMgmr+136)
	addi	a1,s1,%lo(wifiMgmr+164)
.LVL179:
.LM571:
	li	a0,0
.LVL180:
.LM572:
	call	bl_main_if_add
.LVL181:
.LM573:
	beq	a0,zero,.L79
.LM574:
	lui	a1,%hi(__func__.0)
	lui	a0,%hi(.LC30)
	addi	a1,a1,%lo(__func__.0)
	addi	a0,a0,%lo(.LC30)
	call	printf
.LVL182:
.LM575:
.L78:
.LM576:
	lw	ra,28(sp)
	.cfi_remember_state
	.cfi_restore 1
	lw	s0,24(sp)
	.cfi_restore 8
.LVL183:
.LM577:
	lw	s1,20(sp)
	.cfi_restore 9
	lw	s2,16(sp)
	.cfi_restore 18
	lw	s3,12(sp)
	.cfi_restore 19
	li	a0,0
	addi	sp,sp,32
	.cfi_def_cfa_offset 0
	jr	ra
.LVL184:
.L79:
	.cfi_restore_state
.LM578:
	lui	a1,%hi(netif_set_link_up)
	li	a2,0
	addi	a1,a1,%lo(netif_set_link_up)
	addi	a0,s1,%lo(wifiMgmr+164)
	call	netifapi_netif_common
.LVL185:
.LM579:
.LM580:
	lui	a1,%hi(dhcpd_start)
	li	a2,0
	addi	a1,a1,%lo(dhcpd_start)
	addi	a0,s1,%lo(wifiMgmr+164)
	call	netifapi_netif_common
.LVL186:
.LM581:
.LM582:
	lui	a0,%hi(.LC31)
	addi	a1,s0,17
	addi	a0,a0,%lo(.LC31)
	call	printf
.LVL187:
.LM583:
	lui	a0,%hi(.LC32)
	addi	a1,s0,55
	addi	a0,a0,%lo(.LC32)
	call	printf
.LVL188:
.LM584:
	lbu	a4,14(s0)
	lbu	a5,13(s0)
	lbu	a1,16(s0)
	slli	a4,a4,8
	or	a4,a4,a5
	lbu	a5,15(s0)
	slli	a1,a1,24
	lui	a0,%hi(.LC33)
	slli	a5,a5,16
	or	a5,a5,a4
	or	a1,a1,a5
	addi	a0,a0,%lo(.LC33)
	call	printf
.LVL189:
.LM585:
.LM586:
	lbu	a4,14(s0)
	lbu	a5,13(s0)
	lbu	a2,16(s0)
	slli	a4,a4,8
	or	a4,a4,a5
	lbu	a5,15(s0)
.LM587:
	lui	s1,%hi(wifiMgmr)
	addi	s1,s1,%lo(wifiMgmr)
.LM588:
	slli	a5,a5,16
	or	a5,a5,a4
.LM589:
	lbu	a3,136(s1)
	lbu	a4,50(s0)
.LM590:
	slli	a2,a2,24
.LM591:
	or	a2,a2,a5
	addi	a1,s0,55
	addi	a0,s0,17
	call	bl_main_apm_start
.LVL190:
.LM592:
.LM593:
	li	a5,1
	sw	a5,8(s1)
.LM594:
	call	dns_server_init
.LVL191:
.LM595:
	li	a2,0
	li	a1,11
	li	a0,2
	call	aos_post_event
.LVL192:
.LM596:
.LM597:
	j	.L78
	.cfi_endproc
.LFE80:
	.size	stateGlobalGuard_AP, .-stateGlobalGuard_AP
	.section	.text.stateGlobalGuard_scan_beacon,"ax",@progbits
	.align	1
	.type	stateGlobalGuard_scan_beacon, @function
stateGlobalGuard_scan_beacon:
.LVL193:
.LFB59:
.LM598:
	.cfi_startproc
.LM599:
.LM600:
.LM601:
.LM602:
.LM603:
.LM604:
.LM605:
.LM606:
	addi	sp,sp,-80
	.cfi_def_cfa_offset 80
	sw	ra,76(sp)
	sw	s0,72(sp)
	sw	s1,68(sp)
	sw	s2,64(sp)
	sw	s3,60(sp)
	sw	s4,56(sp)
	sw	s5,52(sp)
	sw	s6,48(sp)
	sw	s7,44(sp)
	sw	s8,40(sp)
	sw	s9,36(sp)
	sw	s10,32(sp)
	sw	s11,28(sp)
	.cfi_offset 1, -4
	.cfi_offset 8, -8
	.cfi_offset 9, -12
	.cfi_offset 18, -16
	.cfi_offset 19, -20
	.cfi_offset 20, -24
	.cfi_offset 21, -28
	.cfi_offset 22, -32
	.cfi_offset 23, -36
	.cfi_offset 24, -40
	.cfi_offset 25, -44
	.cfi_offset 26, -48
	.cfi_offset 27, -52
.LM607:
	lw	s0,4(a1)
.LVL194:
.LM608:
.LM609:
.LM610:
	lbu	a5,0(s0)
.LM611:
	bne	a0,a5,.L83
.LM612:
.LM613:
	lui	s2,%hi(wifiMgmr)
	addi	s2,s2,%lo(wifiMgmr)
	li	s6,4096
	add	s6,s2,s6
.LM614:
	lbu	a5,59(s0)
.LM615:
	lw	a4,2004(s6)
.LM616:
	bgt	a5,a4,.L83
	beq	a5,zero,.L83
.LM617:
.LM618:
	lbu	a5,13(s0)
	bne	a5,zero,.L85
.LVL195:
.LBB20:
.LBI20:
.LM619:
.LBB21:
.LM620:
.LM621:
	lw	a5,2012(s6)
	andi	a5,a5,1
.LBE21:
.LBE20:
.LM622:
	beq	a5,zero,.L83
.L85:
.LM623:
.LM624:
	call	xTaskGetTickCount
.LVL196:
.LM625:
	li	s8,-1
.LM626:
	addi	a5,s0,53
.LM627:
	mv	s5,a0
.LVL197:
.LM628:
.LM629:
	addi	s3,s2,652
.LM630:
	li	s10,0
.LM631:
	mv	s1,s8
.LM632:
	mv	s7,s8
.LM633:
	li	s4,0
.LM634:
	sw	a5,12(sp)
.LM635:
	li	s9,50
.LVL198:
.L95:
.LM636:
.LM637:
	lbu	a4,46(s3)
.LM638:
	lw	a5,2004(s6)
	ble	a4,a5,.L86
.LM639:
	li	a2,60
	li	a1,0
	mv	a0,s3
	call	memset
.LVL199:
.LM640:
.LM641:
	sb	zero,52(s3)
.LM642:
.L88:
.LM643:
	mv	s7,s4
.LVL200:
.L87:
.LM644:
	addi	s4,s4,1
.LVL201:
.LM645:
	addi	s3,s3,60
	bne	s4,s9,.L95
.LM646:
.LM647:
.LM648:
	li	a5,-1
	bne	s7,a5,.L97
.LVL202:
.LM649:
.LM650:
	beq	s1,s7,.L83
.LVL203:
.L96:
.LM651:
	li	a2,60
	mul	s1,s1,a2
	li	a1,0
.LM652:
	addi	s4,s1,652
.LM653:
	add	a0,s2,s4
	call	memset
.LVL204:
.LM654:
	li	a2,32
	addi	a1,s0,13
	add	a0,s2,s4
	call	strncpy
.LVL205:
.LM655:
.LM656:
	add	s3,s2,s1
.LM657:
	add	a0,s2,s4
.LM658:
	sb	zero,684(s3)
.LM659:
.LM660:
	addi	s1,s1,692
.LM661:
	call	strlen
.LVL206:
.LM662:
	sw	a0,688(s3)
.LM663:
	li	a2,6
	addi	a1,s0,53
	add	a0,s2,s1
	call	memcpy
.LVL207:
.LM664:
.LM665:
	lbu	a5,59(s0)
.LM666:
	sb	a5,698(s3)
.LM667:
.LM668:
	lb	a5,60(s0)
.LM669:
	sw	s5,708(s3)
.LM670:
	sb	a5,699(s3)
.LM671:
.LM672:
.LM673:
	lbu	a5,63(s0)
.LM674:
	sb	a5,702(s3)
.LM675:
.LM676:
	lbu	a5,64(s0)
.LM677:
	sb	a5,703(s3)
.LM678:
.LM679:
	li	a5,1
	sb	a5,704(s3)
	j	.L83
.LVL208:
.L86:
.LM680:
.LM681:
	lbu	a5,52(s3)
	beq	a5,zero,.L88
.LM682:
	lw	a5,56(s3)
.LM683:
	beq	s10,zero,.L89
.LM684:
	bge	a5,s8,.L90
.L89:
.LM685:
.LVL209:
.LM686:
.LM687:
	mv	s8,a5
.LVL210:
.LM688:
.LM689:
	mv	s1,s4
.LVL211:
.L90:
.LM690:
.LM691:
	lw	a1,12(sp)
	li	a2,6
	addi	a0,s3,40
	call	memcmp
.LVL212:
.LM692:
	bne	a0,zero,.L91
.LM693:
	mv	a1,s3
	addi	a0,s0,13
	call	strcmp
.LVL213:
.LM694:
	beq	a0,zero,.L92
.L91:
.LM695:
	li	s10,1
	j	.L87
.L92:
.LM696:
.LM697:
	li	s1,60
	mul	s1,s4,s1
.LM698:
	lb	a4,60(s0)
.LM699:
	add	s1,s2,s1
.LM700:
	lb	a5,699(s1)
	blt	a4,a5,.L93
.L94:
.LM701:
.LM702:
	li	a5,60
	mul	a5,s4,a5
.LM703:
	lbu	a4,59(s0)
.LM704:
	add	a5,s2,a5
	sb	a4,698(a5)
.LM705:
.LM706:
	lb	a4,60(s0)
.LM707:
	sb	a4,699(a5)
.LM708:
.LM709:
	lb	a4,61(s0)
.LM710:
	sb	a4,700(a5)
.LM711:
.LM712:
	lb	a4,62(s0)
.LM713:
	sw	s5,708(a5)
.LM714:
	sb	a4,701(a5)
.LM715:
.LM716:
.LM717:
	lbu	a4,63(s0)
.LM718:
	sb	a4,702(a5)
.LM719:
.LM720:
	lbu	a4,64(s0)
.LM721:
	sb	a4,703(a5)
.LM722:
.LVL214:
.L83:
.LM723:
	lw	ra,76(sp)
	.cfi_remember_state
	.cfi_restore 1
	lw	s0,72(sp)
	.cfi_restore 8
.LVL215:
.LM724:
	lw	s1,68(sp)
	.cfi_restore 9
	lw	s2,64(sp)
	.cfi_restore 18
	lw	s3,60(sp)
	.cfi_restore 19
	lw	s4,56(sp)
	.cfi_restore 20
	lw	s5,52(sp)
	.cfi_restore 21
	lw	s6,48(sp)
	.cfi_restore 22
	lw	s7,44(sp)
	.cfi_restore 23
	lw	s8,40(sp)
	.cfi_restore 24
	lw	s9,36(sp)
	.cfi_restore 25
	lw	s10,32(sp)
	.cfi_restore 26
	lw	s11,28(sp)
	.cfi_restore 27
	li	a0,0
	addi	sp,sp,80
	.cfi_def_cfa_offset 0
	jr	ra
.LVL216:
.L93:
	.cfi_restore_state
.LM725:
	call	xTaskGetTickCount
.LVL217:
.LM726:
	lw	a5,708(s1)
	sub	a0,a0,a5
.LM727:
	li	a5,4096
	addi	a5,a5,-1097
	ble	a0,a5,.L83
	j	.L94
.LVL218:
.L97:
.LM728:
	mv	s1,s7
	j	.L96
	.cfi_endproc
.LFE59:
	.size	stateGlobalGuard_scan_beacon, .-stateGlobalGuard_scan_beacon
	.section	.text.__reload_tsen,"ax",@progbits
	.align	1
	.type	__reload_tsen, @function
__reload_tsen:
.LVL219:
.LFB100:
.LM729:
	.cfi_startproc
.LM730:
.LM731:
	addi	sp,sp,-16
	.cfi_def_cfa_offset 16
	sw	ra,12(sp)
	.cfi_offset 1, -4
.LM732:
	call	pvTimerGetTimerID
.LVL220:
.LM733:
.LM734:
.LM735:
	lw	ra,12(sp)
	.cfi_restore 1
	addi	sp,sp,16
	.cfi_def_cfa_offset 0
.LM736:
	tail	wifi_mgmr_api_fw_tsen_reload
.LVL221:
	.cfi_endproc
.LFE100:
	.size	__reload_tsen, .-__reload_tsen
	.section	.text.event_cb_wifi_event_mgmr,"ax",@progbits
	.align	1
	.type	event_cb_wifi_event_mgmr, @function
event_cb_wifi_event_mgmr:
.LVL222:
.LFB120:
.LM737:
	.cfi_startproc
.LM738:
	lhu	a4,6(a0)
	li	a5,20
	bne	a4,a5,.L111
.LBB24:
.LBI24:
.LM739:
.LVL223:
.LBB25:
.LM740:
	lui	a1,%hi(trigger_auto_denoise)
.LVL224:
.LM741:
	li	a2,0
	addi	a1,a1,%lo(trigger_auto_denoise)
	li	a0,85
.LVL225:
.LM742:
	tail	aos_post_delayed_action
.LVL226:
.L111:
.LM743:
.LBE25:
.LBE24:
.LM744:
	ret
	.cfi_endproc
.LFE120:
	.size	event_cb_wifi_event_mgmr, .-event_cb_wifi_event_mgmr
	.section	.text.trigger_auto_denoise,"ax",@progbits
	.align	1
	.type	trigger_auto_denoise, @function
trigger_auto_denoise:
.LVL227:
.LFB83:
.LM745:
	.cfi_startproc
.LM746:
.LM747:
	lui	a5,%hi(auto_repeat)
.LM748:
	lw	a5,%lo(auto_repeat)(a5)
	beq	a5,zero,.L113
.LBB30:
.LBI30:
.LM749:
.LVL228:
.LBB31:
.LBB32:
.LM750:
.LM751:
.LBE32:
.LBE31:
.LBE30:
.LM752:
	addi	sp,sp,-16
	.cfi_def_cfa_offset 16
	sw	ra,12(sp)
	.cfi_offset 1, -4
.LBB41:
.LBB37:
.LBB33:
.LM753:
	call	wifi_mgmr_api_denoise_enable
.LVL229:
.LM754:
.LBE33:
.LBE37:
.LBE41:
.LM755:
	lw	ra,12(sp)
	.cfi_restore 1
.LBB42:
.LBB38:
.LBB34:
.LM756:
	lui	a1,%hi(trigger_auto_denoise)
.LBE34:
.LBE38:
.LBE42:
.LM757:
.LBB43:
.LBB39:
.LBB35:
.LM758:
	li	a2,0
	addi	a1,a1,%lo(trigger_auto_denoise)
	li	a0,85
.LBE35:
.LBE39:
.LBE43:
.LM759:
	addi	sp,sp,16
	.cfi_def_cfa_offset 0
.LBB44:
.LBB40:
.LBB36:
.LM760:
	tail	aos_post_delayed_action
.LVL230:
.L113:
.LM761:
	ret
.LBE36:
.LBE40:
.LBE44:
	.cfi_endproc
.LFE83:
	.size	trigger_auto_denoise, .-trigger_auto_denoise
	.section	.rodata.stateDisconnect_exit.str1.4,"aMS",@progbits,1
	.align	2
.LC34:
	.string	"Delete Timer.\r\n"
	.align	2
.LC35:
	.string	"Delete Timer Skipped\r\n"
	.section	.text.stateDisconnect_exit,"ax",@progbits
	.align	1
	.type	stateDisconnect_exit, @function
stateDisconnect_exit:
.LVL231:
.LFB118:
.LM762:
	.cfi_startproc
.LM763:
.LM764:
.LM765:
	addi	sp,sp,-16
	.cfi_def_cfa_offset 16
	sw	s0,8(sp)
.LM766:
	mv	a1,a0
.LVL232:
	.cfi_offset 8, -8
.LM767:
	mv	s0,a0
.LM768:
	lui	a0,%hi(.LC1)
.LVL233:
.LM769:
	addi	a0,a0,%lo(.LC1)
.LM770:
	sw	ra,12(sp)
	sw	s1,4(sp)
	.cfi_offset 1, -4
	.cfi_offset 9, -12
.LM771:
	call	printf
.LVL234:
.LM772:
.LM773:
	lbu	a5,76(s0)
	beq	a5,zero,.L119
.LVL235:
.LBB47:
.LBI47:
.LM774:
.LBB48:
.LM775:
	lui	a0,%hi(.LC34)
	addi	a0,a0,%lo(.LC34)
	call	printf
.LVL236:
.LM776:
.LM777:
	li	a4,0
	li	a3,0
	li	a2,0
	li	a1,3
	addi	a0,s0,32
	call	xTimerGenericCommand
.LVL237:
.LM778:
	addi	a0,s0,32
	li	a4,0
	li	a3,0
	li	a2,0
	li	a1,5
	call	xTimerGenericCommand
.LVL238:
.LM779:
.LM780:
.LM781:
	sb	zero,76(s0)
.LVL239:
.LM782:
.LBE48:
.LBE47:
.LM783:
	lw	ra,12(sp)
	.cfi_remember_state
	.cfi_restore 1
	lw	s0,8(sp)
	.cfi_restore 8
.LVL240:
.LM784:
	lw	s1,4(sp)
	.cfi_restore 9
	addi	sp,sp,16
	.cfi_def_cfa_offset 0
	jr	ra
.LVL241:
.L119:
	.cfi_restore_state
.LM785:
.LM786:
	lw	s0,8(sp)
	.cfi_restore 8
.LVL242:
.LM787:
	lw	ra,12(sp)
	.cfi_restore 1
	lw	s1,4(sp)
	.cfi_restore 9
.LM788:
	lui	a0,%hi(.LC35)
.LM789:
.LM790:
	addi	a0,a0,%lo(.LC35)
.LM791:
	addi	sp,sp,16
	.cfi_def_cfa_offset 0
.LM792:
	tail	printf
.LVL243:
	.cfi_endproc
.LFE118:
	.size	stateDisconnect_exit, .-stateDisconnect_exit
	.section	.rodata.disconnect_retry.str1.4,"aMS",@progbits,1
	.align	2
.LC36:
	.string	"[WF][SM] Retry Again --->>> retry Abort, since profile copy failed\r\n"
	.align	2
.LC37:
	.string	"[WF][SM] Retry Again --->>> retry connect\r\n"
	.section	.text.disconnect_retry,"ax",@progbits
	.align	1
	.type	disconnect_retry, @function
disconnect_retry:
.LVL244:
.LFB116:
.LM793:
	.cfi_startproc
.LM794:
.LM795:
	addi	sp,sp,-16
	.cfi_def_cfa_offset 16
	sw	ra,12(sp)
	.cfi_offset 1, -4
.LM796:
	call	pvTimerGetTimerID
.LVL245:
.LM797:
.LM798:
	addi	a1,a0,77
	lui	a0,%hi(wifiMgmr)
.LVL246:
.LM799:
	addi	a0,a0,%lo(wifiMgmr)
	call	wifi_mgmr_profile_get
.LVL247:
.LM800:
	beq	a0,zero,.L124
.LM801:
.LM802:
	lw	ra,12(sp)
	.cfi_remember_state
	.cfi_restore 1
.LM803:
	lui	a0,%hi(.LC36)
.LM804:
.LM805:
	addi	a0,a0,%lo(.LC36)
.LM806:
	addi	sp,sp,16
	.cfi_def_cfa_offset 0
.LM807:
	tail	printf
.LVL248:
.L124:
	.cfi_restore_state
.LBB51:
.LBI51:
.LM808:
.LBB52:
.LM809:
	lui	a0,%hi(.LC37)
	addi	a0,a0,%lo(.LC37)
	call	printf
.LVL249:
.LM810:
.LBE52:
.LBE51:
.LM811:
	lw	ra,12(sp)
	.cfi_restore 1
	addi	sp,sp,16
	.cfi_def_cfa_offset 0
.LBB54:
.LBB53:
.LM812:
	tail	wifi_mgmr_api_reconnect
.LVL250:
.LBE53:
.LBE54:
	.cfi_endproc
.LFE116:
	.size	disconnect_retry, .-disconnect_retry
	.section	.rodata.stateGlobalGuard_fw_disconnect.str1.4,"aMS",@progbits,1
	.align	2
.LC38:
	.string	"Disconnect CMD\r\n"
	.section	.text.stateGlobalGuard_fw_disconnect,"ax",@progbits
	.align	1
	.type	stateGlobalGuard_fw_disconnect, @function
stateGlobalGuard_fw_disconnect:
.LVL251:
.LFB62:
.LM813:
	.cfi_startproc
.LM814:
.LM815:
.LM816:
.LM817:
	lw	a5,4(a1)
.LM818:
	lbu	a4,0(a5)
	li	a5,15
	bne	a4,a5,.L129
.LBB57:
.LBI57:
.LM819:
.LVL252:
.LBB58:
.LM820:
	lui	a0,%hi(.LC38)
.LVL253:
.LM821:
.LBE58:
.LBE57:
.LM822:
	addi	sp,sp,-16
	.cfi_def_cfa_offset 16
.LBB61:
.LBB59:
.LM823:
	addi	a0,a0,%lo(.LC38)
.LBE59:
.LBE61:
.LM824:
	sw	ra,12(sp)
.LVL254:
	.cfi_offset 1, -4
.LBB62:
.LBB60:
.LM825:
	call	printf
.LVL255:
.LM826:
	call	bl_main_disconnect
.LVL256:
.LM827:
.LBE60:
.LBE62:
.LM828:
.LM829:
	lw	ra,12(sp)
	.cfi_restore 1
	li	a0,0
	addi	sp,sp,16
	.cfi_def_cfa_offset 0
	jr	ra
.LVL257:
.L129:
.LM830:
.LM831:
	li	a0,0
.LVL258:
.LM832:
	ret
	.cfi_endproc
.LFE62:
	.size	stateGlobalGuard_fw_disconnect, .-stateGlobalGuard_fw_disconnect
	.section	.text.stateConnectedIPYes_exit,"ax",@progbits
	.align	1
	.type	stateConnectedIPYes_exit, @function
stateConnectedIPYes_exit:
.LVL259:
.LFB112:
.LM833:
	.cfi_startproc
.LM834:
.LM835:
.LM836:
	mv	a1,a0
.LVL260:
.LM837:
	lui	a0,%hi(.LC1)
.LVL261:
.LM838:
	addi	sp,sp,-32
	.cfi_def_cfa_offset 32
.LM839:
	addi	a0,a0,%lo(.LC1)
.LM840:
	sw	ra,28(sp)
	sw	s0,24(sp)
	.cfi_offset 1, -4
	.cfi_offset 8, -8
.LM841:
	sw	zero,12(sp)
.LM842:
	call	printf
.LVL262:
.LM843:
	lui	s0,%hi(wifiMgmr+44)
	lui	a1,%hi(dhcp_stop)
	li	a2,0
	addi	a1,a1,%lo(dhcp_stop)
	addi	a0,s0,%lo(wifiMgmr+44)
	call	netifapi_netif_common
.LVL263:
.LM844:
	addi	a3,sp,12
	mv	a2,a3
	mv	a1,a3
	addi	a0,s0,%lo(wifiMgmr+44)
	call	netifapi_netif_set_addr
.LVL264:
.LM845:
.LM846:
	lui	a5,%hi(auto_repeat)
.LM847:
	lw	a4,%lo(auto_repeat)(a5)
	beq	a4,zero,.L132
.LBB65:
.LBI65:
.LM848:
.LVL265:
.LBB66:
.LM849:
.LM850:
	li	a0,0
.LM851:
	sw	zero,%lo(auto_repeat)(a5)
.LM852:
	call	bl_main_denoise
.LVL266:
.L132:
.LM853:
.LBE66:
.LBE65:
.LM854:
	lw	ra,28(sp)
	.cfi_restore 1
	lw	s0,24(sp)
	.cfi_restore 8
	addi	sp,sp,32
	.cfi_def_cfa_offset 0
	jr	ra
	.cfi_endproc
.LFE112:
	.size	stateConnectedIPYes_exit, .-stateConnectedIPYes_exit
	.section	.text.stateGlobalGuard_denoise,"ax",@progbits
	.align	1
	.type	stateGlobalGuard_denoise, @function
stateGlobalGuard_denoise:
.LVL267:
.LFB84:
.LM855:
	.cfi_startproc
.LM856:
.LM857:
.LM858:
	lw	a5,4(a1)
.LVL268:
.LM859:
.LM860:
	li	a4,12
	lbu	a3,0(a5)
	bne	a3,a4,.L143
.LM861:
.LM862:
	addi	sp,sp,-16
	.cfi_def_cfa_offset 16
	sw	ra,12(sp)
	.cfi_offset 1, -4
.LM863:
	lbu	a3,2(a5)
	lbu	a4,1(a5)
	slli	a3,a3,8
	or	a3,a3,a4
	lbu	a4,3(a5)
	lbu	a5,4(a5)
.LVL269:
.LM864:
	slli	a4,a4,16
	or	a4,a4,a3
	slli	a5,a5,24
	or	a5,a5,a4
.LM865:
	beq	a5,zero,.L140
.LM866:
.LM867:
	lui	a5,%hi(wifiMgmr+5928)
.LM868:
	lw	a4,%lo(wifiMgmr+5928)(a5)
	lui	a5,%hi(stateConnectedIPYes)
	addi	a5,a5,%lo(stateConnectedIPYes)
	bne	a4,a5,.L139
.LM869:
.LM870:
	lui	a5,%hi(auto_repeat)
.LM871:
	lw	a4,%lo(auto_repeat)(a5)
.LM872:
	li	a0,3
.LVL270:
.LM873:
	bne	a4,zero,.L146
.LBB69:
.LBI69:
.LM874:
.LVL271:
.LBB70:
.LM875:
.LM876:
	li	a0,1
	sw	a0,%lo(auto_repeat)(a5)
.LM877:
	call	bl_main_denoise
.LVL272:
.LM878:
	li	a2,0
	li	a1,20
	li	a0,2
	call	aos_post_event
.LVL273:
.L139:
.LM879:
.LBE70:
.LBE69:
.LM880:
	lw	ra,12(sp)
	.cfi_remember_state
	.cfi_restore 1
	li	a0,0
	addi	sp,sp,16
	.cfi_def_cfa_offset 0
	jr	ra
.LVL274:
.L140:
	.cfi_restore_state
.LM881:
.LM882:
	lui	a5,%hi(auto_repeat)
	sw	zero,%lo(auto_repeat)(a5)
.LM883:
	li	a0,0
.LVL275:
.L146:
.LM884:
	call	bl_main_denoise
.LVL276:
.LM885:
	j	.L139
.LVL277:
.L143:
	.cfi_def_cfa_offset 0
	.cfi_restore 1
.LM886:
	li	a0,0
.LVL278:
.LM887:
	ret
	.cfi_endproc
.LFE84:
	.size	stateGlobalGuard_denoise, .-stateGlobalGuard_denoise
	.section	.rodata.stateGlobalGuard_stop.str1.4,"aMS",@progbits,1
	.align	2
.LC39:
	.string	"[WF][SM] Stoping AP interface...\r\n"
	.align	2
.LC40:
	.string	"[WF][SM] Removing and deauth all sta client...\r\n"
	.align	2
.LC41:
	.string	"[WF][SM] Removing AP interface...\r\n"
	.align	2
.LC42:
	.string	"[WF][SM] Stopping DHCP on AP interface...\r\n"
	.align	2
.LC43:
	.string	"[WF][SM] Removing ETH interface ...\r\n"
	.section	.text.stateGlobalGuard_stop,"ax",@progbits
	.align	1
	.type	stateGlobalGuard_stop, @function
stateGlobalGuard_stop:
.LVL279:
.LFB81:
.LM888:
	.cfi_startproc
.LM889:
.LM890:
.LM891:
.LM892:
	lw	a5,4(a1)
.LM893:
	lbu	a4,0(a5)
	li	a5,9
	bne	a4,a5,.L150
.LBB73:
.LBI73:
.LM894:
.LVL280:
.LBB74:
.LM895:
.LBE74:
.LBE73:
.LM896:
	addi	sp,sp,-16
	.cfi_def_cfa_offset 16
.LBB78:
.LBB75:
.LM897:
	lui	a0,%hi(.LC39)
.LVL281:
.LM898:
.LBE75:
.LBE78:
.LM899:
	sw	s0,8(sp)
.LVL282:
.LBB79:
.LBB76:
.LM900:
	addi	a0,a0,%lo(.LC39)
	.cfi_offset 8, -8
.LM901:
	lui	s0,%hi(wifiMgmr)
.LBE76:
.LBE79:
.LM902:
	sw	ra,12(sp)
	sw	s1,4(sp)
	.cfi_offset 1, -4
	.cfi_offset 9, -12
.LBB80:
.LBB77:
.LM903:
	addi	s0,s0,%lo(wifiMgmr)
.LM904:
	call	printf
.LVL283:
.LM905:
	lbu	a0,136(s0)
.LM906:
	lui	s1,%hi(wifiMgmr+164)
.LM907:
	call	bl_main_apm_stop
.LVL284:
.LM908:
	lui	a0,%hi(.LC40)
	addi	a0,a0,%lo(.LC40)
	call	printf
.LVL285:
.LM909:
	call	bl_main_apm_remove_all_sta
.LVL286:
.LM910:
	lui	a0,%hi(.LC41)
	addi	a0,a0,%lo(.LC41)
	call	printf
.LVL287:
.LM911:
	lbu	a0,136(s0)
	call	bl_main_if_remove
.LVL288:
.LM912:
	lui	a0,%hi(.LC42)
	addi	a0,a0,%lo(.LC42)
	call	printf
.LVL289:
.LM913:
.LM914:
	lui	a2,%hi(dhcp_server_stop)
	addi	a2,a2,%lo(dhcp_server_stop)
	li	a1,0
	addi	a0,s1,%lo(wifiMgmr+164)
	call	netifapi_netif_common
.LVL290:
.LM915:
	lui	a0,%hi(.LC43)
	addi	a0,a0,%lo(.LC43)
	call	printf
.LVL291:
.LM916:
	lui	a1,%hi(netif_remove)
	li	a2,0
	addi	a1,a1,%lo(netif_remove)
	addi	a0,s1,%lo(wifiMgmr+164)
	call	netifapi_netif_common
.LVL292:
.LM917:
.LM918:
	li	a2,0
	li	a1,12
	li	a0,2
.LM919:
	sw	zero,8(s0)
.LM920:
	call	aos_post_event
.LVL293:
.LM921:
.LM922:
.LBE77:
.LBE80:
.LM923:
	lw	ra,12(sp)
	.cfi_restore 1
	lw	s0,8(sp)
	.cfi_restore 8
	lw	s1,4(sp)
	.cfi_restore 9
	li	a0,0
	addi	sp,sp,16
	.cfi_def_cfa_offset 0
	jr	ra
.LVL294:
.L150:
.LM924:
	li	a0,0
.LVL295:
.LM925:
	ret
	.cfi_endproc
.LFE81:
	.size	stateGlobalGuard_stop, .-stateGlobalGuard_stop
	.section	.rodata.stateGlobalGuard_enable_autoreconnect.str1.4,"aMS",@progbits,1
	.align	2
.LC44:
	.string	"Enable Auto Reconnect\r\n"
	.section	.text.stateGlobalGuard_enable_autoreconnect,"ax",@progbits
	.align	1
	.type	stateGlobalGuard_enable_autoreconnect, @function
stateGlobalGuard_enable_autoreconnect:
.LVL296:
.LFB61:
.LM926:
	.cfi_startproc
.LM927:
.LM928:
.LM929:
.LM930:
	lw	a5,4(a1)
	lbu	a5,0(a5)
.LM931:
	bne	a0,a5,.L156
.LBB83:
.LBI83:
.LM932:
.LVL297:
.LBB84:
.LM933:
	lui	a0,%hi(.LC44)
.LVL298:
.LM934:
.LBE84:
.LBE83:
.LM935:
	addi	sp,sp,-16
	.cfi_def_cfa_offset 16
.LBB87:
.LBB85:
.LM936:
	addi	a0,a0,%lo(.LC44)
.LBE85:
.LBE87:
.LM937:
	sw	ra,12(sp)
.LVL299:
	.cfi_offset 1, -4
.LBB88:
.LBB86:
.LM938:
	call	printf
.LVL300:
.LM939:
	lui	a0,%hi(wifiMgmr)
	li	a1,-1
	addi	a0,a0,%lo(wifiMgmr)
	call	wifi_mgmr_profile_autoreconnect_enable
.LVL301:
.LM940:
.LM941:
.LBE86:
.LBE88:
.LM942:
	lw	ra,12(sp)
	.cfi_restore 1
	li	a0,0
	addi	sp,sp,16
	.cfi_def_cfa_offset 0
	jr	ra
.LVL302:
.L156:
.LM943:
	li	a0,0
.LVL303:
.LM944:
	ret
	.cfi_endproc
.LFE61:
	.size	stateGlobalGuard_enable_autoreconnect, .-stateGlobalGuard_enable_autoreconnect
	.section	.rodata.stateGlobalGuard_disable_autoreconnect.str1.4,"aMS",@progbits,1
	.align	2
.LC45:
	.string	"Disable Autoreconnect in Disconnec State\r\n"
	.align	2
.LC46:
	.string	"Disable Auto Reconnect\r\n"
	.section	.text.stateGlobalGuard_disable_autoreconnect,"ax",@progbits
	.align	1
	.type	stateGlobalGuard_disable_autoreconnect, @function
stateGlobalGuard_disable_autoreconnect:
.LVL304:
.LFB60:
.LM945:
	.cfi_startproc
.LM946:
.LM947:
.LM948:
.LM949:
	lw	a5,4(a1)
	lbu	a5,0(a5)
.LM950:
	bne	a0,a5,.L164
.LM951:
.LM952:
	addi	sp,sp,-16
	.cfi_def_cfa_offset 16
	sw	s0,8(sp)
.LVL305:
	.cfi_offset 8, -8
.LM953:
	lui	s0,%hi(wifiMgmr)
	addi	s0,s0,%lo(wifiMgmr)
	li	a5,4096
	add	a5,s0,a5
.LM954:
	sw	ra,12(sp)
	.cfi_offset 1, -4
.LM955:
	lw	a4,1832(a5)
	lui	a5,%hi(stateDisconnect)
	addi	a5,a5,%lo(stateDisconnect)
	bne	a4,a5,.L161
.LBB91:
.LBI91:
.LM956:
.LVL306:
.LBB92:
.LM957:
	lui	a0,%hi(.LC45)
.LVL307:
.LM958:
	addi	a0,a0,%lo(.LC45)
	call	printf
.LVL308:
.LM959:
	lui	a0,%hi(.LC6)
	addi	a0,a0,%lo(.LC6)
	call	printf
.LVL309:
.LM960:
	lbu	a0,16(s0)
	call	bl_main_if_remove
.LVL310:
.LM961:
.LM962:
	li	a0,1
.L162:
.LBE92:
.LBE91:
.LM963:
	lw	ra,12(sp)
	.cfi_remember_state
	.cfi_restore 1
	lw	s0,8(sp)
	.cfi_restore 8
	addi	sp,sp,16
	.cfi_def_cfa_offset 0
	jr	ra
.LVL311:
.L161:
	.cfi_restore_state
.LM964:
	lui	a0,%hi(.LC46)
.LVL312:
.LM965:
	addi	a0,a0,%lo(.LC46)
	call	printf
.LVL313:
.LM966:
	li	a1,-1
	mv	a0,s0
	call	wifi_mgmr_profile_autoreconnect_disable
.LVL314:
.LM967:
.LM968:
	li	a0,0
	j	.L162
.LVL315:
.L164:
	.cfi_def_cfa_offset 0
	.cfi_restore 1
	.cfi_restore 8
.LM969:
	li	a0,0
.LVL316:
.LM970:
	ret
	.cfi_endproc
.LFE60:
	.size	stateGlobalGuard_disable_autoreconnect, .-stateGlobalGuard_disable_autoreconnect
	.section	.rodata.stateDisconnect_enter.str1.4,"aMS",@progbits,1
	.align	2
.LC47:
	.string	"wifi disconnect"
	.align	2
.LC48:
	.string	"[WF][SM] Will retry in 2000 ticks\r\n"
	.align	2
.LC49:
	.string	"[WF][SM] Will NOT retry connect\r\n"
	.align	2
.LC50:
	.string	"[WF][SM] Pending Scan Sent\r\n"
	.section	.text.stateDisconnect_enter,"ax",@progbits
	.align	1
	.type	stateDisconnect_enter, @function
stateDisconnect_enter:
.LVL317:
.LFB117:
.LM971:
	.cfi_startproc
.LM972:
.LM973:
	addi	sp,sp,-48
	.cfi_def_cfa_offset 48
	sw	s1,36(sp)
.LM974:
	mv	a1,a0
.LVL318:
	.cfi_offset 9, -12
.LM975:
	mv	s1,a0
.LM976:
	lui	a0,%hi(.LC4)
.LVL319:
.LM977:
	addi	a0,a0,%lo(.LC4)
.LM978:
	sw	s0,40(sp)
	sw	ra,44(sp)
	.cfi_offset 8, -8
	.cfi_offset 1, -4
.LM979:
	sw	zero,28(sp)
.LM980:
.LM981:
.LM982:
.LM983:
	lui	s0,%hi(wifiMgmr)
.LM984:
	call	printf
.LVL320:
.LM985:
.LM986:
	li	a1,-1
	addi	a0,s0,%lo(wifiMgmr)
	call	wifi_mgmr_profile_autoreconnect_is_enabled
.LVL321:
.LM987:
	beq	a0,zero,.L169
.LM988:
	lui	a4,%hi(disconnect_retry)
	lui	a0,%hi(.LC47)
.LM989:
	addi	a5,s1,32
.LM990:
	addi	a4,a4,%lo(disconnect_retry)
	mv	a3,s1
	li	a2,0
	li	a1,2000
	addi	a0,a0,%lo(.LC47)
	sw	a5,12(sp)
	call	xTimerCreateStatic
.LVL322:
.LM991:
	lui	a0,%hi(.LC48)
	addi	a0,a0,%lo(.LC48)
	call	printf
.LVL323:
.LM992:
.LM993:
	call	xTaskGetTickCount
.LVL324:
	mv	a2,a0
.LM994:
	lw	a0,12(sp)
	li	a4,-1
	li	a3,0
	li	a1,1
	call	xTimerGenericCommand
.LVL325:
.LM995:
.LM996:
.LM997:
	li	a5,1
	sb	a5,76(s1)
.L170:
.LM998:
.LM999:
	li	a5,4096
	addi	s0,s0,%lo(wifiMgmr)
	add	s0,s0,a5
.LM1000:
	lhu	a2,1888(s0)
	li	a1,5
	li	a0,2
	call	aos_post_event
.LVL326:
.LM1001:
.LM1002:
	addi	a0,sp,28
	call	bl60x_check_mac_status
.LVL327:
.LM1003:
	lw	a5,28(sp)
	or	a0,a0,a5
	bne	a0,zero,.L171
.LBB98:
.LM1004:
	li	a2,0
	li	a1,23
	li	a0,2
	call	aos_post_event
.LVL328:
.LM1005:
.LM1006:
	call	helper_record_dump
.LVL329:
.L171:
.LBE98:
.LM1007:
.LBB99:
.LBI99:
.LM1008:
.LBB100:
.LM1009:
.LM1010:
	lw	a5,2008(s0)
	andi	a5,a5,1
.LBE100:
.LBE99:
.LM1011:
	beq	a5,zero,.L168
.LM1012:
	lui	a0,%hi(.LC50)
	addi	a0,a0,%lo(.LC50)
	call	printf
.LVL330:
.LM1013:
	call	bl_main_scan
.LVL331:
.LM1014:
.LBB101:
.LBI101:
.LM1015:
.LBB102:
.LM1016:
.LM1017:
	lw	a5,2008(s0)
	andi	a5,a5,-2
	sw	a5,2008(s0)
.LVL332:
.L168:
.LM1018:
.LBE102:
.LBE101:
.LM1019:
	lw	ra,44(sp)
	.cfi_remember_state
	.cfi_restore 1
	lw	s0,40(sp)
	.cfi_restore 8
	lw	s1,36(sp)
	.cfi_restore 9
.LVL333:
.LM1020:
	addi	sp,sp,48
	.cfi_def_cfa_offset 0
	jr	ra
.LVL334:
.L169:
	.cfi_restore_state
.LM1021:
	lui	a0,%hi(.LC49)
	addi	a0,a0,%lo(.LC49)
	call	printf
.LVL335:
	j	.L170
	.cfi_endproc
.LFE117:
	.size	stateDisconnect_enter, .-stateDisconnect_enter
	.section	.rodata.stateGlobalGuard_fw_scan.str1.4,"aMS",@progbits,1
	.align	2
.LC51:
	.string	"------>>>>>> Scan CMD Pending\r\n"
	.align	2
.LC52:
	.string	"------>>>>>> FW busy\r\n"
	.align	2
.LC53:
	.string	"------>>>>>> Scan CMD\r\n"
	.section	.text.stateGlobalGuard_fw_scan,"ax",@progbits
	.align	1
	.type	stateGlobalGuard_fw_scan, @function
stateGlobalGuard_fw_scan:
.LVL336:
.LFB64:
.LM1022:
	.cfi_startproc
.LM1023:
.LM1024:
.LM1025:
.LM1026:
	lw	a5,4(a1)
.LM1027:
	lbu	a4,0(a5)
	li	a5,18
	bne	a4,a5,.L190
.LBB107:
.LBI107:
.LM1028:
.LVL337:
.LBB108:
.LM1029:
.LBE108:
.LBE107:
.LM1030:
	addi	sp,sp,-16
	.cfi_def_cfa_offset 16
	sw	s0,8(sp)
.LVL338:
	.cfi_offset 8, -8
.LBB114:
.LBB111:
.LM1031:
	lui	s0,%hi(wifiMgmr+4096)
.LBE111:
.LBE114:
.LM1032:
	sw	ra,12(sp)
	.cfi_offset 1, -4
.LBB115:
.LBB112:
.LM1033:
	addi	s0,s0,%lo(wifiMgmr+4096)
	lw	a3,1832(s0)
.LM1034:
	lui	a5,%hi(stateConnecting)
.LM1035:
	lui	a4,%hi(stateConnectedIPNo)
.LM1036:
	addi	a5,a5,%lo(stateConnecting)
.LM1037:
	addi	a4,a4,%lo(stateConnectedIPNo)
.LM1038:
	sub	a5,a3,a5
.LM1039:
	sub	a4,a3,a4
.LM1040:
	seqz	a5,a5
.LM1041:
	seqz	a4,a4
.LM1042:
	or	a5,a5,a4
	bne	a5,zero,.L182
	lui	a5,%hi(stateDisconnect)
	addi	a5,a5,%lo(stateDisconnect)
	bne	a3,a5,.L179
.L182:
.LM1043:
	lui	a0,%hi(.LC51)
.LVL339:
.LM1044:
	addi	a0,a0,%lo(.LC51)
	call	printf
.LVL340:
.LM1045:
.LBB109:
.LBI109:
.LM1046:
.LBB110:
.LM1047:
.LM1048:
	lw	a5,2008(s0)
	ori	a5,a5,1
	sw	a5,2008(s0)
.LVL341:
.LM1049:
.LBE110:
.LBE109:
.LM1050:
.L178:
.LM1051:
.LBE112:
.LBE115:
.LM1052:
	lw	ra,12(sp)
	.cfi_remember_state
	.cfi_restore 1
	lw	s0,8(sp)
	.cfi_restore 8
	li	a0,0
	addi	sp,sp,16
	.cfi_def_cfa_offset 0
	jr	ra
.LVL342:
.L179:
	.cfi_restore_state
.LBB116:
.LBB113:
.LM1053:
.LM1054:
	lui	a5,%hi(stateConnectedIPYes)
.LM1055:
	lui	a4,%hi(stateIdle)
.LM1056:
	addi	a5,a5,%lo(stateConnectedIPYes)
.LM1057:
	addi	a4,a4,%lo(stateIdle)
.LM1058:
	sub	a5,a3,a5
.LM1059:
	sub	a4,a3,a4
.LM1060:
	snez	a5,a5
.LM1061:
	snez	a4,a4
.LM1062:
	and	a5,a5,a4
	beq	a5,zero,.L181
	lui	a5,%hi(stateSniffer)
	addi	a5,a5,%lo(stateSniffer)
	beq	a3,a5,.L181
.LM1063:
	lui	a0,%hi(.LC52)
.LVL343:
.LM1064:
	addi	a0,a0,%lo(.LC52)
	call	printf
.LVL344:
.LM1065:
	li	a2,1
	li	a1,9
	li	a0,2
	call	aos_post_event
.LVL345:
.LM1066:
.LM1067:
	j	.L178
.LVL346:
.L181:
.LM1068:
	lui	a0,%hi(.LC53)
.LVL347:
.LM1069:
	addi	a0,a0,%lo(.LC53)
	call	printf
.LVL348:
.LM1070:
	call	bl_main_scan
.LVL349:
.LM1071:
.LM1072:
	j	.L178
.LVL350:
.L190:
	.cfi_def_cfa_offset 0
	.cfi_restore 1
	.cfi_restore 8
.LM1073:
.LBE113:
.LBE116:
.LM1074:
	li	a0,0
.LVL351:
.LM1075:
	ret
	.cfi_endproc
.LFE64:
	.size	stateGlobalGuard_fw_scan, .-stateGlobalGuard_fw_scan
	.section	.text.stateSnifferGuard_raw_send,"ax",@progbits
	.align	1
	.type	stateSnifferGuard_raw_send, @function
stateSnifferGuard_raw_send:
.LVL352:
.LFB71:
.LM1076:
	.cfi_startproc
.LM1077:
.LM1078:
.LM1079:
.LM1080:
.LM1081:
	lui	a5,%hi(wifiMgmr+5928)
	lw	a4,%lo(wifiMgmr+5928)(a5)
.LM1082:
	lui	a5,%hi(stateIdle)
	addi	a5,a5,%lo(stateIdle)
.LM1083:
	beq	a4,a5,.L196
	lui	a5,%hi(stateIfaceDown)
	addi	a5,a5,%lo(stateIfaceDown)
	beq	a4,a5,.L196
	lw	a5,4(a1)
.LBB119:
.LBI119:
.LM1084:
.LVL353:
.LBB120:
.LM1085:
.LM1086:
.LM1087:
	li	a4,21
	lbu	a3,0(a5)
	bne	a3,a4,.L196
.LM1088:
.LVL354:
.LM1089:
.LM1090:
.LM1091:
.LBE120:
.LBE119:
.LM1092:
	addi	sp,sp,-16
	.cfi_def_cfa_offset 16
	sw	ra,12(sp)
.LVL355:
	.cfi_offset 1, -4
.LBB122:
.LBB121:
.LM1093:
	lbu	a4,6(a5)
	lbu	a3,5(a5)
.LM1094:
	lbu	a2,2(a5)
.LM1095:
	slli	a4,a4,8
	or	a4,a4,a3
	lbu	a3,7(a5)
.LM1096:
	slli	a2,a2,8
.LM1097:
	lbu	a1,8(a5)
.LVL356:
.LM1098:
	slli	a3,a3,16
	or	a3,a3,a4
.LM1099:
	lbu	a4,1(a5)
	lbu	a0,4(a5)
.LVL357:
.LM1100:
	slli	a1,a1,24
.LM1101:
	or	a2,a2,a4
	lbu	a4,3(a5)
	slli	a0,a0,24
.LM1102:
	or	a1,a1,a3
.LM1103:
	slli	a4,a4,16
	or	a4,a4,a2
.LM1104:
	or	a0,a0,a4
	call	bl_main_raw_send
.LVL358:
.LM1105:
.LBE121:
.LBE122:
.LM1106:
	lw	ra,12(sp)
	.cfi_restore 1
	li	a0,0
	addi	sp,sp,16
	.cfi_def_cfa_offset 0
	jr	ra
.LVL359:
.L196:
.LM1107:
	li	a0,0
.LVL360:
.LM1108:
	ret
	.cfi_endproc
.LFE71:
	.size	stateSnifferGuard_raw_send, .-stateSnifferGuard_raw_send
	.section	.text.stateGlobalExit,"ax",@progbits
	.align	1
	.type	stateGlobalExit, @function
stateGlobalExit:
.LFB148:
	.cfi_startproc
.LM1109:
	mv	a1,a0
	lui	a0,%hi(.LC4)
	addi	a0,a0,%lo(.LC4)
	tail	printf
	.cfi_endproc
.LFE148:
	.size	stateGlobalExit, .-stateGlobalExit
	.section	.text.stateSnifferEnter,"ax",@progbits
	.align	1
	.type	stateSnifferEnter, @function
stateSnifferEnter:
.LFB150:
	.cfi_startproc
.LM1110:
	mv	a1,a0
	lui	a0,%hi(.LC4)
	addi	a0,a0,%lo(.LC4)
	tail	printf
	.cfi_endproc
.LFE150:
	.size	stateSnifferEnter, .-stateSnifferEnter
	.section	.text.stateIdleEnter,"ax",@progbits
	.align	1
	.type	stateIdleEnter, @function
stateIdleEnter:
.LFB152:
	.cfi_startproc
.LM1111:
	mv	a1,a0
	lui	a0,%hi(.LC4)
	addi	a0,a0,%lo(.LC4)
	tail	printf
	.cfi_endproc
.LFE152:
	.size	stateIdleEnter, .-stateIdleEnter
	.section	.text.stateIdleExit,"ax",@progbits
	.align	1
	.type	stateIdleExit, @function
stateIdleExit:
.LFB154:
	.cfi_startproc
.LM1112:
	mv	a1,a0
	lui	a0,%hi(.LC4)
	addi	a0,a0,%lo(.LC4)
	tail	printf
	.cfi_endproc
.LFE154:
	.size	stateIdleExit, .-stateIdleExit
	.section	.text.stateIfaceDownEnter,"ax",@progbits
	.align	1
	.type	stateIfaceDownEnter, @function
stateIfaceDownEnter:
.LFB156:
	.cfi_startproc
.LM1113:
	mv	a1,a0
	lui	a0,%hi(.LC4)
	addi	a0,a0,%lo(.LC4)
	tail	printf
	.cfi_endproc
.LFE156:
	.size	stateIfaceDownEnter, .-stateIfaceDownEnter
	.section	.text.stateConnectingGuard,"ax",@progbits
	.align	1
	.type	stateConnectingGuard, @function
stateConnectingGuard:
.LFB158:
	.cfi_startproc
.LM1114:
	lw	a5,4(a1)
	lbu	a5,0(a5)
	sub	a0,a0,a5
	seqz	a0,a0
	ret
	.cfi_endproc
.LFE158:
	.size	stateConnectingGuard, .-stateConnectingGuard
	.section	.text.stateConnectedIPNoGuard,"ax",@progbits
	.align	1
	.type	stateConnectedIPNoGuard, @function
stateConnectedIPNoGuard:
.LFB160:
	.cfi_startproc
.LM1115:
	lw	a5,4(a1)
	lbu	a5,0(a5)
	sub	a0,a0,a5
	seqz	a0,a0
	ret
	.cfi_endproc
.LFE160:
	.size	stateConnectedIPNoGuard, .-stateConnectedIPNoGuard
	.section	.text.stateConnectedIPYesGuard,"ax",@progbits
	.align	1
	.type	stateConnectedIPYesGuard, @function
stateConnectedIPYesGuard:
.LFB162:
	.cfi_startproc
.LM1116:
	lw	a5,4(a1)
	lbu	a5,0(a5)
	sub	a0,a0,a5
	seqz	a0,a0
	ret
	.cfi_endproc
.LFE162:
	.size	stateConnectedIPYesGuard, .-stateConnectedIPYesGuard
	.section	.text.stateDisconnect_guard,"ax",@progbits
	.align	1
	.type	stateDisconnect_guard, @function
stateDisconnect_guard:
.LFB164:
	.cfi_startproc
.LM1117:
	lw	a5,4(a1)
	lbu	a5,0(a5)
	sub	a0,a0,a5
	seqz	a0,a0
	ret
	.cfi_endproc
.LFE164:
	.size	stateDisconnect_guard, .-stateDisconnect_guard
	.section	.text.stateConnectingAction_connected,"ax",@progbits
	.align	1
	.type	stateConnectingAction_connected, @function
stateConnectingAction_connected:
.LFB166:
	.cfi_startproc
.LM1118:
	mv	a1,a0
	lui	a0,%hi(.LC2)
	addi	a0,a0,%lo(.LC2)
	tail	printf
	.cfi_endproc
.LFE166:
	.size	stateConnectingAction_connected, .-stateConnectingAction_connected
	.section	.text.stateConnectingAction_disconnect,"ax",@progbits
	.align	1
	.type	stateConnectingAction_disconnect, @function
stateConnectingAction_disconnect:
.LFB168:
	.cfi_startproc
.LM1119:
	mv	a1,a0
	lui	a0,%hi(.LC2)
	addi	a0,a0,%lo(.LC2)
	tail	printf
	.cfi_endproc
.LFE168:
	.size	stateConnectingAction_disconnect, .-stateConnectingAction_disconnect
	.section	.text.stateIdleAction_sniffer,"ax",@progbits
	.align	1
	.type	stateIdleAction_sniffer, @function
stateIdleAction_sniffer:
.LFB170:
	.cfi_startproc
.LM1120:
	mv	a1,a0
	lui	a0,%hi(.LC2)
	addi	a0,a0,%lo(.LC2)
	tail	printf
	.cfi_endproc
.LFE170:
	.size	stateIdleAction_sniffer, .-stateIdleAction_sniffer
	.section	.text.stateIfaceDownAction_phyup,"ax",@progbits
	.align	1
	.type	stateIfaceDownAction_phyup, @function
stateIfaceDownAction_phyup:
.LFB172:
	.cfi_startproc
.LM1121:
	mv	a1,a0
	lui	a0,%hi(.LC2)
	addi	a0,a0,%lo(.LC2)
	tail	printf
	.cfi_endproc
.LFE172:
	.size	stateIfaceDownAction_phyup, .-stateIfaceDownAction_phyup
	.section	.text.stateConnectedIPNoAction_disconnect,"ax",@progbits
	.align	1
	.type	stateConnectedIPNoAction_disconnect, @function
stateConnectedIPNoAction_disconnect:
.LFB174:
	.cfi_startproc
.LM1122:
	mv	a1,a0
	lui	a0,%hi(.LC2)
	addi	a0,a0,%lo(.LC2)
	tail	printf
	.cfi_endproc
.LFE174:
	.size	stateConnectedIPNoAction_disconnect, .-stateConnectedIPNoAction_disconnect
	.section	.text.stateConnectedIPYes_action,"ax",@progbits
	.align	1
	.type	stateConnectedIPYes_action, @function
stateConnectedIPYes_action:
.LFB176:
	.cfi_startproc
.LM1123:
	mv	a1,a0
	lui	a0,%hi(.LC2)
	addi	a0,a0,%lo(.LC2)
	tail	printf
	.cfi_endproc
.LFE176:
	.size	stateConnectedIPYes_action, .-stateConnectedIPYes_action
	.section	.text.stateConnectingExit,"ax",@progbits
	.align	1
	.type	stateConnectingExit, @function
stateConnectingExit:
.LFB178:
	.cfi_startproc
.LM1124:
	mv	a1,a0
	lui	a0,%hi(.LC1)
	addi	a0,a0,%lo(.LC1)
	tail	printf
	.cfi_endproc
.LFE178:
	.size	stateConnectingExit, .-stateConnectingExit
	.section	.text.stateIfaceDownExit,"ax",@progbits
	.align	1
	.type	stateIfaceDownExit, @function
stateIfaceDownExit:
.LFB180:
	.cfi_startproc
.LM1125:
	mv	a1,a0
	lui	a0,%hi(.LC1)
	addi	a0,a0,%lo(.LC1)
	tail	printf
	.cfi_endproc
.LFE180:
	.size	stateIfaceDownExit, .-stateIfaceDownExit
	.section	.text.stateConnectedIPYes_enter,"ax",@progbits
	.align	1
	.type	stateConnectedIPYes_enter, @function
stateConnectedIPYes_enter:
.LVL361:
.LFB111:
.LM1126:
	.cfi_startproc
.LM1127:
.LM1128:
	mv	a1,a0
.LVL362:
.LM1129:
	lui	a0,%hi(.LC4)
.LVL363:
.LM1130:
	addi	sp,sp,-16
	.cfi_def_cfa_offset 16
.LM1131:
	addi	a0,a0,%lo(.LC4)
.LM1132:
	sw	ra,12(sp)
	sw	s0,8(sp)
	.cfi_offset 1, -4
	.cfi_offset 8, -8
.LM1133:
	call	printf
.LVL364:
.LM1134:
	li	a2,0
	li	a1,7
	li	a0,2
.LBB131:
.LBB132:
.LM1135:
	lui	s0,%hi(wifiMgmr+4096)
.LBE132:
.LBE131:
.LM1136:
	call	aos_post_event
.LVL365:
.LM1137:
.LBB134:
.LBI131:
.LM1138:
.LBB133:
.LM1139:
.LM1140:
	addi	s0,s0,%lo(wifiMgmr+4096)
.LM1141:
	lw	a5,2008(s0)
	andi	a5,a5,1
.LBE133:
.LBE134:
.LM1142:
	beq	a5,zero,.L216
.LBB135:
.LBI135:
.LM1143:
.LVL366:
.LBB136:
.LM1144:
	lui	a0,%hi(.LC50)
	addi	a0,a0,%lo(.LC50)
	call	printf
.LVL367:
.LM1145:
	call	bl_main_scan
.LVL368:
.LM1146:
.LBB137:
.LBI137:
.LM1147:
.LBB138:
.LM1148:
.LM1149:
	lw	a5,2008(s0)
	andi	a5,a5,-2
	sw	a5,2008(s0)
.LVL369:
.L216:
.LM1150:
.LBE138:
.LBE137:
.LBE136:
.LBE135:
.LM1151:
	lw	ra,12(sp)
	.cfi_restore 1
	lw	s0,8(sp)
	.cfi_restore 8
	addi	sp,sp,16
	.cfi_def_cfa_offset 0
	jr	ra
	.cfi_endproc
.LFE111:
	.size	stateConnectedIPYes_enter, .-stateConnectedIPYes_enter
	.section	.rodata.wifi_mgmr_auth_to_str.str1.4,"aMS",@progbits,1
	.align	2
.LC54:
	.string	"Unknown"
	.section	.text.wifi_mgmr_auth_to_str,"ax",@progbits
	.align	1
	.globl	wifi_mgmr_auth_to_str
	.type	wifi_mgmr_auth_to_str, @function
wifi_mgmr_auth_to_str:
.LVL370:
.LFB57:
.LM1152:
	.cfi_startproc
.LM1153:
	li	a5,5
	bgtu	a0,a5,.L224
	lui	a5,%hi(CSWTCH.82)
	slli	a0,a0,2
.LVL371:
.LM1154:
	addi	a5,a5,%lo(CSWTCH.82)
	add	a5,a5,a0
	lw	a0,0(a5)
	ret
.LVL372:
.L224:
.LM1155:
	lui	a0,%hi(.LC54)
.LVL373:
.LM1156:
	addi	a0,a0,%lo(.LC54)
.LM1157:
	ret
	.cfi_endproc
.LFE57:
	.size	wifi_mgmr_auth_to_str, .-wifi_mgmr_auth_to_str
	.section	.text.wifi_mgmr_cipher_to_str,"ax",@progbits
	.align	1
	.globl	wifi_mgmr_cipher_to_str
	.type	wifi_mgmr_cipher_to_str, @function
wifi_mgmr_cipher_to_str:
.LVL374:
.LFB58:
.LM1158:
	.cfi_startproc
.LM1159:
	li	a5,4
	bgtu	a0,a5,.L227
	lui	a5,%hi(CSWTCH.84)
	slli	a0,a0,2
.LVL375:
.LM1160:
	addi	a5,a5,%lo(CSWTCH.84)
	add	a5,a5,a0
	lw	a0,0(a5)
	ret
.LVL376:
.L227:
.LM1161:
	lui	a0,%hi(.LC54)
.LVL377:
.LM1162:
	addi	a0,a0,%lo(.LC54)
.LM1163:
	ret
	.cfi_endproc
.LFE58:
	.size	wifi_mgmr_cipher_to_str, .-wifi_mgmr_cipher_to_str
	.section	.rodata.wifi_mgmr_event_notify.str1.4,"aMS",@progbits,1
	.align	2
.LC55:
	.string	"Wait Wi-Fi Mgmr Start up...\r\n"
	.align	2
.LC56:
	.string	"Failed when send msg 0x%p, len dec:%u\r\n"
	.section	.text.wifi_mgmr_event_notify,"ax",@progbits
	.align	1
	.globl	wifi_mgmr_event_notify
	.type	wifi_mgmr_event_notify, @function
wifi_mgmr_event_notify:
.LVL378:
.LFB119:
.LM1164:
	.cfi_startproc
.LM1165:
.LM1166:
	addi	sp,sp,-32
	.cfi_def_cfa_offset 32
.LM1167:
	lui	a5,%hi(.LC55)
.LM1168:
	sw	s0,24(sp)
	sw	s1,20(sp)
	sw	ra,28(sp)
	.cfi_offset 8, -8
	.cfi_offset 9, -12
	.cfi_offset 1, -4
.LM1169:
	mv	a1,a0
.LM1170:
	lui	s0,%hi(wifiMgmr)
.LM1171:
	addi	s1,a5,%lo(.LC55)
.LVL379:
.L229:
.LM1172:
	lbu	a5,%lo(wifiMgmr)(s0)
	beq	a5,zero,.L230
.LM1173:
.LM1174:
	lbu	a4,10(a1)
	lbu	a5,9(a1)
	lbu	a2,12(a1)
	slli	a4,a4,8
	or	a4,a4,a5
	lbu	a5,11(a1)
	slli	a2,a2,24
.LM1175:
	lui	a0,%hi(wifiMgmr+3652)
.LM1176:
	slli	a5,a5,16
	or	a5,a5,a4
.LM1177:
	or	a2,a2,a5
	li	a3,-1
	addi	a0,a0,%lo(wifiMgmr+3652)
	sw	a1,12(sp)
	call	xStreamBufferSend
.LVL380:
.LM1178:
	lw	a1,12(sp)
.LM1179:
	li	a5,0
.LM1180:
	bne	a0,zero,.L228
.LM1181:
.LM1182:
	lbu	a4,10(a1)
	lbu	a5,9(a1)
	lbu	a2,12(a1)
	slli	a4,a4,8
	or	a4,a4,a5
	lbu	a5,11(a1)
	slli	a2,a2,24
.LM1183:
	lui	a0,%hi(.LC56)
.LM1184:
	slli	a5,a5,16
	or	a5,a5,a4
.LM1185:
	or	a2,a2,a5
	addi	a0,a0,%lo(.LC56)
	call	printf
.LVL381:
.LM1186:
.LM1187:
	li	a5,-1
.L228:
.LM1188:
	lw	ra,28(sp)
	.cfi_remember_state
	.cfi_restore 1
	lw	s0,24(sp)
	.cfi_restore 8
	lw	s1,20(sp)
	.cfi_restore 9
	mv	a0,a5
	addi	sp,sp,32
	.cfi_def_cfa_offset 0
	jr	ra
.L230:
	.cfi_restore_state
.LM1189:
	mv	a0,s1
	sw	a1,12(sp)
.LM1190:
	call	printf
.LVL382:
.LM1191:
	li	a0,20
	call	vTaskDelay
.LVL383:
	lw	a1,12(sp)
	j	.L229
	.cfi_endproc
.LFE119:
	.size	wifi_mgmr_event_notify, .-wifi_mgmr_event_notify
	.section	.rodata.wifi_mgmr_start.str1.4,"aMS",@progbits,1
	.align	2
.LC57:
	.string	"[WF][SM] reload tsen \r\n"
	.align	2
.LC58:
	.string	"wifi reload tsen"
	.section	.text.wifi_mgmr_start,"ax",@progbits
	.align	1
	.globl	wifi_mgmr_start
	.type	wifi_mgmr_start, @function
wifi_mgmr_start:
.LFB121:
.LM1192:
	.cfi_startproc
.LM1193:
.LM1194:
.LM1195:
.LM1196:
.LM1197:
	addi	sp,sp,-288
	.cfi_def_cfa_offset 288
.LVL384:
.LM1198:
.LM1199:
	sw	s2,272(sp)
.LM1200:
	lui	a2,%hi(stateError)
	lui	a1,%hi(stateIfaceDown)
	.cfi_offset 18, -16
	lui	s2,%hi(wifiMgmr+5928)
	addi	a2,a2,%lo(stateError)
	addi	a1,a1,%lo(stateIfaceDown)
.LM1201:
	sw	s0,280(sp)
	sw	s3,268(sp)
	.cfi_offset 8, -8
	.cfi_offset 19, -20
.LM1202:
	li	s0,1
.LM1203:
	addi	a0,s2,%lo(wifiMgmr+5928)
.LM1204:
	addi	s3,sp,25
.LVL385:
.LM1205:
	sw	ra,284(sp)
	sw	s1,276(sp)
	sw	s4,264(sp)
	.cfi_offset 1, -4
	.cfi_offset 9, -12
	.cfi_offset 20, -24
.LM1206:
	sw	s0,16(sp)
.LM1207:
.LM1208:
	sw	s3,20(sp)
.LM1209:
	call	stateM_init
.LVL386:
.LM1210:
	call	wifi_mgmr_event_init
.LVL387:
.LM1211:
	lui	a1,%hi(event_cb_wifi_event_mgmr)
	li	a2,0
	addi	a1,a1,%lo(event_cb_wifi_event_mgmr)
	li	a0,2
	call	aos_register_event_filter
.LVL388:
.LM1212:
	li	a1,2
	li	a2,0
	mv	a0,a1
	call	aos_post_event
.LVL389:
.LM1213:
	li	a1,255
	mv	a0,a1
	call	hal_sys_capcode_update
.LVL390:
.LM1214:
.LBB143:
.LBI143:
.LM1215:
.LBB144:
.LM1216:
.LM1217:
.LM1218:
	lui	a0,%hi(.LC57)
	addi	a0,a0,%lo(.LC57)
	call	printf
.LVL391:
.LM1219:
	lui	s1,%hi(state_tsen_reload_data+32)
	lui	a4,%hi(__reload_tsen)
	lui	a3,%hi(state_tsen_reload_data)
	li	a1,8192
	lui	a0,%hi(.LC58)
	addi	a5,s1,%lo(state_tsen_reload_data+32)
	mv	a2,s0
	addi	a4,a4,%lo(__reload_tsen)
	addi	a3,a3,%lo(state_tsen_reload_data)
	addi	a1,a1,1808
	addi	a0,a0,%lo(.LC58)
	call	xTimerCreateStatic
.LVL392:
.LM1220:
.LM1221:
	call	xTaskGetTickCount
.LVL393:
	mv	a2,a0
.LM1222:
	mv	a1,s0
	addi	a0,s1,%lo(state_tsen_reload_data+32)
	li	a4,-1
	li	a3,0
	call	xTimerGenericCommand
.LVL394:
.LM1223:
.LM1224:
.LBE144:
.LBE143:
.LM1225:
	lui	a5,%hi(wifiMgmr+3652)
.LBB145:
.LBB146:
.LM1226:
	lui	s0,%hi(wifiMgmr+4096)
.LM1227:
	lui	s1,%hi(stateConnecting)
.LBE146:
.LBE145:
.LM1228:
	addi	s4,a5,%lo(wifiMgmr+3652)
.LBB149:
.LBB147:
.LM1229:
	addi	s0,s0,%lo(wifiMgmr+4096)
.LM1230:
	addi	s1,s1,%lo(stateConnecting)
.L236:
.LBE147:
.LBE149:
.LM1231:
.LM1232:
.LM1233:
	li	a3,-1
	li	a2,224
	mv	a1,s3
	mv	a0,s4
	call	xStreamBufferReceive
.LVL395:
.LM1234:
	beq	a0,zero,.L236
.LM1235:
.LM1236:
	lbu	a5,25(sp)
.LM1237:
	li	a3,13
	bne	a5,a3,.L237
.LM1238:
.LBB150:
.LBI145:
.LM1239:
.LBB148:
.LM1240:
.LM1241:
	lw	a3,1832(s0)
.LM1242:
	sh	zero,14(sp)
.LM1243:
.LM1244:
.LM1245:
	sub	a5,a3,s1
	seqz	a4,a5
.LM1246:
	lui	a5,%hi(stateDisconnect)
	addi	a5,a5,%lo(stateDisconnect)
	sub	a5,a3,a5
	seqz	a5,a5
.LM1247:
	or	a5,a4,a5
.LM1248:
	lui	a4,%hi(stateConnectedIPYes)
	addi	a4,a4,%lo(stateConnectedIPYes)
	sub	a4,a3,a4
	seqz	a4,a4
.LM1249:
	or	a4,a4,a5
.LM1250:
	lui	a5,%hi(stateSniffer)
	addi	a5,a5,%lo(stateSniffer)
	sub	a5,a3,a5
	seqz	a5,a5
.LM1251:
	or	a5,a5,a4
	bne	a5,zero,.L243
	lui	a5,%hi(stateConnectedIPNo)
	addi	a5,a5,%lo(stateConnectedIPNo)
	bne	a3,a5,.L236
.L243:
.LM1252:
	li	a1,0
	addi	a0,sp,14
	call	bl_tsen_adc_get
.LVL396:
.LM1253:
	lh	a0,14(sp)
	call	phy_tcal_callback
.LVL397:
.LM1254:
.LBE148:
.LBE150:
.LM1255:
	j	.L236
.L237:
.LM1256:
.LM1257:
	li	a4,1
.LM1258:
	bleu	a5,a3,.L241
.LM1259:
	sltiu	a5,a5,23
	seqz	a5,a5
	slli	a4,a5,1
.L241:
.LM1260:
	addi	a1,sp,16
	addi	a0,s2,%lo(wifiMgmr+5928)
.LM1261:
	sw	a4,16(sp)
.LM1262:
	call	stateM_handleEvent
.LVL398:
	j	.L236
	.cfi_endproc
.LFE121:
	.size	wifi_mgmr_start, .-wifi_mgmr_start
	.section	.text._wifi_mgmr_entry,"ax",@progbits
	.align	1
	.type	_wifi_mgmr_entry, @function
_wifi_mgmr_entry:
.LVL399:
.LFB122:
.LM1263:
	.cfi_startproc
.LM1264:
.LM1265:
	addi	sp,sp,-16
	.cfi_def_cfa_offset 16
	sw	ra,12(sp)
	.cfi_offset 1, -4
.LM1266:
	call	wifi_mgmr_start
.LVL400:
.LM1267:
	.cfi_endproc
.LFE122:
	.size	_wifi_mgmr_entry, .-_wifi_mgmr_entry
	.section	.rodata.wifi_mgmr_start_background.str1.4,"aMS",@progbits,1
	.align	2
.LC59:
	.string	"wifi_mgmr"
	.section	.text.wifi_mgmr_start_background,"ax",@progbits
	.align	1
	.globl	wifi_mgmr_start_background
	.type	wifi_mgmr_start_background, @function
wifi_mgmr_start_background:
.LVL401:
.LFB123:
.LM1268:
	.cfi_startproc
.LM1269:
.LM1270:
	addi	sp,sp,-32
	.cfi_def_cfa_offset 32
	sw	ra,28(sp)
	.cfi_offset 1, -4
.LM1271:
	call	wifi_mgmr_drv_init
.LVL402:
.LM1272:
.LBB151:
.LM1273:
.LM1274:
	lui	a1,%hi(.LC59)
	lui	a0,%hi(_wifi_mgmr_entry)
	addi	a5,sp,12
	li	a4,28
	li	a3,0
	li	a2,768
	addi	a1,a1,%lo(.LC59)
	addi	a0,a0,%lo(_wifi_mgmr_entry)
.LM1275:
	sw	zero,12(sp)
.LM1276:
	call	xTaskCreate
.LVL403:
.LBE151:
.LM1277:
.LM1278:
	lw	ra,28(sp)
	.cfi_restore 1
	addi	sp,sp,32
	.cfi_def_cfa_offset 0
	jr	ra
	.cfi_endproc
.LFE123:
	.size	wifi_mgmr_start_background, .-wifi_mgmr_start_background
	.section	.text.wifi_mgmr_init,"ax",@progbits
	.align	1
	.globl	wifi_mgmr_init
	.type	wifi_mgmr_init, @function
wifi_mgmr_init:
.LFB124:
.LM1279:
	.cfi_startproc
.LM1280:
.LM1281:
.LM1282:
	lui	a4,%hi(wifiMgmr+3652)
	lui	a3,%hi(wifiMgmr+3688)
	li	a0,4096
.LM1283:
	addi	sp,sp,-16
	.cfi_def_cfa_offset 16
.LM1284:
	addi	a4,a4,%lo(wifiMgmr+3652)
	addi	a3,a3,%lo(wifiMgmr+3688)
	li	a2,1
	li	a1,0
	addi	a0,a0,-1856
.LM1285:
	sw	ra,12(sp)
	.cfi_offset 1, -4
.LM1286:
	call	xStreamBufferGenericCreateStatic
.LVL404:
.LM1287:
.LM1288:
	lui	a5,%hi(wifiMgmr)
	addi	a5,a5,%lo(wifiMgmr)
	li	a4,1
	sb	a4,0(a5)
.LM1289:
.LM1290:
	li	a4,4096
	add	a5,a5,a4
	li	a4,16384
	addi	a4,a4,-1384
	sw	a4,2016(a5)
.LM1291:
.LM1292:
	lw	ra,12(sp)
	.cfi_restore 1
	seqz	a0,a0
.LVL405:
.LM1293:
	addi	sp,sp,16
	.cfi_def_cfa_offset 0
	jr	ra
	.cfi_endproc
.LFE124:
	.size	wifi_mgmr_init, .-wifi_mgmr_init
	.section	.text.wifi_mgmr_status_code_get_internal,"ax",@progbits
	.align	1
	.globl	wifi_mgmr_status_code_get_internal
	.type	wifi_mgmr_status_code_get_internal, @function
wifi_mgmr_status_code_get_internal:
.LVL406:
.LFB125:
.LM1294:
	.cfi_startproc
.LM1295:
.LM1296:
	lui	a5,%hi(wifiMgmr+5984)
	lhu	a5,%lo(wifiMgmr+5984)(a5)
	sw	a5,0(a0)
.LM1297:
.LM1298:
	li	a0,0
.LVL407:
.LM1299:
	ret
	.cfi_endproc
.LFE125:
	.size	wifi_mgmr_status_code_get_internal, .-wifi_mgmr_status_code_get_internal
	.section	.text.wifi_mgmr_status_code_clean_internal,"ax",@progbits
	.align	1
	.globl	wifi_mgmr_status_code_clean_internal
	.type	wifi_mgmr_status_code_clean_internal, @function
wifi_mgmr_status_code_clean_internal:
.LFB126:
.LM1300:
	.cfi_startproc
.LM1301:
.LM1302:
	lui	a5,%hi(wifiMgmr+5984)
	sh	zero,%lo(wifiMgmr+5984)(a5)
.LM1303:
.LM1304:
	li	a0,0
	ret
	.cfi_endproc
.LFE126:
	.size	wifi_mgmr_status_code_clean_internal, .-wifi_mgmr_status_code_clean_internal
	.section	.text.wifi_mgmr_state_get_internal,"ax",@progbits
	.align	1
	.globl	wifi_mgmr_state_get_internal
	.type	wifi_mgmr_state_get_internal, @function
wifi_mgmr_state_get_internal:
.LVL408:
.LFB127:
.LM1305:
	.cfi_startproc
.LM1306:
.LM1307:
.LM1308:
.LM1309:
	lui	a5,%hi(wifiMgmr)
	addi	a5,a5,%lo(wifiMgmr)
	li	a3,4096
	add	a3,a5,a3
	lw	a4,1832(a3)
.LVL409:
.LM1310:
.LBB152:
.LBI152:
.LM1311:
.LBB153:
.LM1312:
.LBE153:
.LBE152:
.LM1313:
	lui	a2,%hi(stateIdle)
	addi	a2,a2,%lo(stateIdle)
.LBB155:
.LBB154:
.LM1314:
	lhu	a3,1888(a3)
.LVL410:
.LM1315:
.LM1316:
.LBE154:
.LBE155:
.LM1317:
.LM1318:
	bne	a4,a2,.L259
.LM1319:
.LM1320:
	lw	a5,8(a5)
	beq	a5,zero,.L260
.LM1321:
.LM1322:
	li	a5,17
.L278:
.LM1323:
	sw	a5,0(a0)
.L261:
.LM1324:
.LVL411:
.LM1325:
	li	a0,0
.LVL412:
.LM1326:
	ret
.LVL413:
.L260:
.LM1327:
.LM1328:
	li	a5,1
.L281:
	sw	a5,0(a0)
.LM1329:
.LM1330:
	li	a5,8
	bne	a3,a5,.L262
.LM1331:
.LM1332:
	li	a5,8
	j	.L278
.L262:
.LM1333:
.LM1334:
	li	a5,12
	bne	a3,a5,.L261
.LM1335:
.LM1336:
	li	a5,9
	j	.L278
.L259:
.LM1337:
.LM1338:
	lui	a2,%hi(stateConnecting)
	addi	a2,a2,%lo(stateConnecting)
	bne	a4,a2,.L264
.LM1339:
.LM1340:
	lw	a5,8(a5)
	beq	a5,zero,.L265
.LM1341:
.LM1342:
	li	a5,18
	j	.L278
.L265:
.LM1343:
.LM1344:
	li	a5,2
	j	.L281
.L264:
.LM1345:
.LM1346:
	lui	a2,%hi(stateConnectedIPNo)
	addi	a2,a2,%lo(stateConnectedIPNo)
	bne	a4,a2,.L268
.LM1347:
.LM1348:
	lw	a5,8(a5)
	beq	a5,zero,.L269
.LM1349:
.LM1350:
	li	a5,19
	j	.L278
.L269:
.LM1351:
.LM1352:
	li	a5,3
	j	.L278
.L268:
.LM1353:
.LM1354:
	lui	a2,%hi(stateConnectedIPYes)
	addi	a2,a2,%lo(stateConnectedIPYes)
	bne	a4,a2,.L270
.LM1355:
.LM1356:
	lw	a5,8(a5)
	beq	a5,zero,.L271
.LM1357:
.LM1358:
	li	a5,20
	j	.L278
.L271:
.LM1359:
.LM1360:
	li	a5,4
	j	.L278
.L270:
.LM1361:
.LM1362:
	lui	a2,%hi(stateDisconnect)
	addi	a2,a2,%lo(stateDisconnect)
	bne	a4,a2,.L272
.LM1363:
.LM1364:
	lw	a5,8(a5)
	beq	a5,zero,.L273
.LM1365:
.LM1366:
	li	a5,21
	j	.L278
.L273:
.LM1367:
.LM1368:
	li	a5,5
	j	.L281
.L272:
.LM1369:
.LM1370:
	lui	a5,%hi(stateIfaceDown)
	addi	a5,a5,%lo(stateIfaceDown)
	bne	a4,a5,.L274
.LM1371:
.LM1372:
	li	a5,6
	j	.L278
.L274:
.LM1373:
.LM1374:
	lui	a5,%hi(stateSniffer)
	addi	a5,a5,%lo(stateSniffer)
	bne	a4,a5,.L275
.LM1375:
.LM1376:
	li	a5,7
	j	.L278
.L275:
.LM1377:
.LM1378:
	sw	zero,0(a0)
	j	.L261
	.cfi_endproc
.LFE127:
	.size	wifi_mgmr_state_get_internal, .-wifi_mgmr_state_get_internal
	.section	.text.wifi_mgmr_set_connect_stat_info,"ax",@progbits
	.align	1
	.globl	wifi_mgmr_set_connect_stat_info
	.type	wifi_mgmr_set_connect_stat_info, @function
wifi_mgmr_set_connect_stat_info:
.LVL414:
.LFB128:
.LM1379:
	.cfi_startproc
.LM1380:
.LM1381:
.LM1382:
	lhu	a3,0(a0)
.LM1383:
	lui	a5,%hi(wifiMgmr)
	addi	a5,a5,%lo(wifiMgmr)
	li	a4,4096
	li	a2,4096
	add	a4,a5,a4
	addi	a2,a2,1988
	sh	a3,1888(a4)
.LM1384:
.LVL415:
.LM1385:
	add	a5,a5,a2
	addi	a3,a0,2
	addi	a2,a0,8
.LVL416:
.L283:
.LM1386:
.LM1387:
	lbu	a6,0(a3)
.LM1388:
	addi	a3,a3,1
.LVL417:
.LM1389:
	addi	a5,a5,1
.LM1390:
	sb	a6,-1(a5)
.LM1391:
.LVL418:
.LM1392:
	bne	a3,a2,.L283
.LM1393:
.LM1394:
	lhu	a5,20(a0)
.LM1395:
	sh	a5,1994(a4)
.LM1396:
.LM1397:
	lbu	a5,18(a0)
.LM1398:
	sb	a1,1890(a4)
.LM1399:
	sb	a5,1996(a4)
.LM1400:
.LM1401:
.LM1402:
.LM1403:
.LM1404:
.LM1405:
.LM1406:
.LM1407:
	ret
	.cfi_endproc
.LFE128:
	.size	wifi_mgmr_set_connect_stat_info, .-wifi_mgmr_set_connect_stat_info
	.section	.text.wifi_mgmr_set_country_code_internal,"ax",@progbits
	.align	1
	.globl	wifi_mgmr_set_country_code_internal
	.type	wifi_mgmr_set_country_code_internal, @function
wifi_mgmr_set_country_code_internal:
.LVL419:
.LFB129:
.LM1408:
	.cfi_startproc
.LM1409:
.LM1410:
	addi	sp,sp,-32
	.cfi_def_cfa_offset 32
	sw	ra,28(sp)
	sw	s0,24(sp)
	.cfi_offset 1, -4
	.cfi_offset 8, -8
.LM1411:
	sw	a0,12(sp)
.LM1412:
	call	bl_main_set_country_code
.LVL420:
.LM1413:
	lw	a1,12(sp)
	lui	a0,%hi(wifiMgmr+6094)
	li	a2,3
	addi	a0,a0,%lo(wifiMgmr+6094)
.LM1414:
	lui	s0,%hi(wifiMgmr+4096)
.LM1415:
	call	strncpy
.LVL421:
.LM1416:
.LM1417:
	addi	s0,s0,%lo(wifiMgmr+4096)
	sb	zero,2000(s0)
.LM1418:
.LM1419:
	call	bl_main_get_channel_nums
.LVL422:
.LM1420:
	sw	a0,2004(s0)
.LM1421:
.LM1422:
.LM1423:
	lw	ra,28(sp)
	.cfi_restore 1
	lw	s0,24(sp)
	.cfi_restore 8
	li	a0,0
	addi	sp,sp,32
	.cfi_def_cfa_offset 0
.LVL423:
.LM1424:
	jr	ra
	.cfi_endproc
.LFE129:
	.size	wifi_mgmr_set_country_code_internal, .-wifi_mgmr_set_country_code_internal
	.section	.text.wifi_mgmr_ap_sta_cnt_get_internal,"ax",@progbits
	.align	1
	.globl	wifi_mgmr_ap_sta_cnt_get_internal
	.type	wifi_mgmr_ap_sta_cnt_get_internal, @function
wifi_mgmr_ap_sta_cnt_get_internal:
.LVL424:
.LFB130:
.LM1425:
	.cfi_startproc
.LM1426:
.LM1427:
	addi	sp,sp,-16
	.cfi_def_cfa_offset 16
	sw	ra,12(sp)
	.cfi_offset 1, -4
.LM1428:
	call	bl_main_apm_sta_cnt_get
.LVL425:
.LM1429:
.LM1430:
	lw	ra,12(sp)
	.cfi_restore 1
	li	a0,0
	addi	sp,sp,16
	.cfi_def_cfa_offset 0
	jr	ra
	.cfi_endproc
.LFE130:
	.size	wifi_mgmr_ap_sta_cnt_get_internal, .-wifi_mgmr_ap_sta_cnt_get_internal
	.section	.text.wifi_mgmr_ap_sta_info_get_internal,"ax",@progbits
	.align	1
	.globl	wifi_mgmr_ap_sta_info_get_internal
	.type	wifi_mgmr_ap_sta_info_get_internal, @function
wifi_mgmr_ap_sta_info_get_internal:
.LVL426:
.LFB131:
.LM1431:
	.cfi_startproc
.LM1432:
.LM1433:
.LM1434:
	addi	sp,sp,-48
	.cfi_def_cfa_offset 48
	sw	s0,40(sp)
	sw	s1,36(sp)
	.cfi_offset 8, -8
	.cfi_offset 9, -12
	mv	s0,a0
	mv	s1,a1
.LM1435:
	li	a2,24
	li	a1,0
.LVL427:
.LM1436:
	addi	a0,sp,8
.LVL428:
.LM1437:
	sw	ra,44(sp)
	.cfi_offset 1, -4
.LM1438:
	call	memset
.LVL429:
.LM1439:
	mv	a1,s1
	addi	a0,sp,8
	call	bl_main_apm_sta_info_get
.LVL430:
.LM1440:
.LM1441:
.LM1442:
	lhu	a5,8(sp)
.LM1443:
	addi	a1,sp,10
	addi	a0,s0,2
.LM1444:
	sh	a5,0(s0)
.LM1445:
.LM1446:
	lw	a5,24(sp)
.LM1447:
	li	a2,6
.LM1448:
	sw	a5,16(s0)
.LM1449:
.LM1450:
	lw	a5,20(sp)
	sw	a5,12(s0)
.LM1451:
.LM1452:
	lw	a5,16(sp)
	sw	a5,8(s0)
.LM1453:
.LM1454:
	lbu	a5,28(sp)
	sb	a5,20(s0)
.LM1455:
	call	memcpy
.LVL431:
.LM1456:
.LM1457:
	lw	ra,44(sp)
	.cfi_restore 1
	lw	s0,40(sp)
	.cfi_restore 8
.LVL432:
.LM1458:
	lw	s1,36(sp)
	.cfi_restore 9
.LVL433:
.LM1459:
	li	a0,0
	addi	sp,sp,48
	.cfi_def_cfa_offset 0
	jr	ra
	.cfi_endproc
.LFE131:
	.size	wifi_mgmr_ap_sta_info_get_internal, .-wifi_mgmr_ap_sta_info_get_internal
	.section	.text.wifi_mgmr_ap_sta_delete_internal,"ax",@progbits
	.align	1
	.globl	wifi_mgmr_ap_sta_delete_internal
	.type	wifi_mgmr_ap_sta_delete_internal, @function
wifi_mgmr_ap_sta_delete_internal:
.LVL434:
.LFB132:
.LM1460:
	.cfi_startproc
.LM1461:
.LM1462:
	addi	sp,sp,-16
	.cfi_def_cfa_offset 16
	sw	ra,12(sp)
	.cfi_offset 1, -4
.LM1463:
	call	bl_main_apm_sta_delete
.LVL435:
.LM1464:
.LM1465:
	lw	ra,12(sp)
	.cfi_restore 1
	li	a0,0
	addi	sp,sp,16
	.cfi_def_cfa_offset 0
	jr	ra
	.cfi_endproc
.LFE132:
	.size	wifi_mgmr_ap_sta_delete_internal, .-wifi_mgmr_ap_sta_delete_internal
	.section	.text.wifi_mgmr_scan_complete_notify,"ax",@progbits
	.align	1
	.globl	wifi_mgmr_scan_complete_notify
	.type	wifi_mgmr_scan_complete_notify, @function
wifi_mgmr_scan_complete_notify:
.LFB133:
.LM1466:
	.cfi_startproc
.LM1467:
.LM1468:
	addi	sp,sp,-16
	.cfi_def_cfa_offset 16
	sw	ra,12(sp)
	.cfi_offset 1, -4
.LM1469:
	call	wifi_mgmr_scan_complete_callback
.LVL436:
.LM1470:
.LM1471:
	lw	ra,12(sp)
	.cfi_restore 1
	li	a0,0
	addi	sp,sp,16
	.cfi_def_cfa_offset 0
	jr	ra
	.cfi_endproc
.LFE133:
	.size	wifi_mgmr_scan_complete_notify, .-wifi_mgmr_scan_complete_notify
	.section	.rodata.str1.4,"aMS",@progbits,1
	.align	2
.LC60:
	.string	"NONE"
	.align	2
.LC61:
	.string	"WEP"
	.align	2
.LC62:
	.string	"AES"
	.align	2
.LC63:
	.string	"TKIP"
	.align	2
.LC64:
	.string	"TKIP/AES"
	.section	.rodata.CSWTCH.84,"a"
	.align	2
	.type	CSWTCH.84, @object
	.size	CSWTCH.84, 20
CSWTCH.84:
	.word	.LC60
	.word	.LC61
	.word	.LC62
	.word	.LC63
	.word	.LC64
	.section	.rodata.str1.4
	.align	2
.LC65:
	.string	"Open"
	.align	2
.LC66:
	.string	"WPA-PSK"
	.align	2
.LC67:
	.string	"WPA2-PSK"
	.align	2
.LC68:
	.string	"WPA2-PSK/WPA-PSK"
	.align	2
.LC69:
	.string	"WPA/WPA2-Enterprise"
	.section	.rodata.CSWTCH.82,"a"
	.align	2
	.type	CSWTCH.82, @object
	.size	CSWTCH.82, 24
CSWTCH.82:
	.word	.LC65
	.word	.LC61
	.word	.LC66
	.word	.LC67
	.word	.LC68
	.word	.LC69
	.section	.rodata.__func__.0,"a"
	.align	2
	.type	__func__.0, @object
	.size	__func__.0, 20
__func__.0:
	.string	"stateGlobalGuard_AP"
	.section	.rodata.__func__.1,"a"
	.align	2
	.type	__func__.1, @object
	.size	__func__.1, 23
__func__.1:
	.string	"stateIdleGuard_connect"
	.section	.data.__compound_literal.7,"aw"
	.align	2
	.type	__compound_literal.7, @object
	.size	__compound_literal.7, 40
__compound_literal.7:
	.word	1
	.word	6
	.word	stateDisconnect_guard
	.word	stateDisconnect_action_reconnect
	.word	stateConnecting
	.word	1
	.word	0
	.word	stateDisconnect_guard
	.word	stateDisconnect_action_idle
	.word	stateIdle
	.section	.data.stateDisconnect_data,"aw"
	.align	2
	.type	stateDisconnect_data, @object
	.size	stateDisconnect_data, 264
stateDisconnect_data:
	.string	"disconnect"
	.zero	21
	.zero	232
	.section	.data.__compound_literal.6,"aw"
	.align	2
	.type	__compound_literal.6, @object
	.size	__compound_literal.6, 80
__compound_literal.6:
	.word	2
	.word	30
	.word	stateConnectedIPYesGuard_ip_update
	.word	stateConnectedIPYes_action
	.word	stateConnectedIPNo
	.word	1
	.word	5
	.word	stateConnectedIPYesGuard_disconnect
	.word	stateConnectedIPYes_action
	.word	stateDisconnect
	.word	1
	.word	11
	.word	stateConnectedIPYesGuard_rcconfig
	.word	stateConnectedIPYes_action
	.word	stateDisconnect
	.word	0
	.word	19
	.word	stateConnectedIPYesGuard
	.word	stateConnectedIPYes_action
	.word	stateDisconnect
	.section	.data.__compound_literal.5,"aw"
	.align	2
	.type	__compound_literal.5, @object
	.size	__compound_literal.5, 60
__compound_literal.5:
	.word	1
	.word	4
	.word	stateConnectedIPNoGuard
	.word	stateConnectedIPNoAction_ipgot
	.word	stateConnectedIPYes
	.word	1
	.word	5
	.word	stateConnectedIPNoGuard_disconnect
	.word	stateConnectedIPNoAction_disconnect
	.word	stateDisconnect
	.word	0
	.word	19
	.word	stateConnectedIPNoGuard
	.word	stateConnectedIPNoAction_disconnect
	.word	stateDisconnect
	.section	.data.state_tsen_reload_data,"aw"
	.align	2
	.type	state_tsen_reload_data, @object
	.size	state_tsen_reload_data, 76
state_tsen_reload_data:
	.string	"wifi tsen reload"
	.zero	15
	.zero	44
	.section	.data.stateConnectedIPNo_data,"aw"
	.align	2
	.type	stateConnectedIPNo_data, @object
	.size	stateConnectedIPNo_data, 76
stateConnectedIPNo_data:
	.string	"wifiConnected_ipObtaining"
	.zero	6
	.zero	44
	.section	.data.__compound_literal.4,"aw"
	.align	2
	.type	__compound_literal.4, @object
	.size	__compound_literal.4, 20
__compound_literal.4:
	.word	1
	.word	7
	.word	stateIfaceDownGuard_phyup
	.word	stateIfaceDownAction_phyup
	.word	stateIdle
	.section	.data.__compound_literal.3,"aw"
	.align	2
	.type	__compound_literal.3, @object
	.size	__compound_literal.3, 40
__compound_literal.3:
	.word	1
	.word	1
	.word	stateIdleGuard_connect
	.word	stateIdleAction_connect
	.word	stateConnecting
	.word	1
	.word	2
	.word	stateIdleGuard_sniffer
	.word	stateIdleAction_sniffer
	.word	stateSniffer
	.section	.data.__compound_literal.2,"aw"
	.align	2
	.type	__compound_literal.2, @object
	.size	__compound_literal.2, 40
__compound_literal.2:
	.word	0
	.word	20
	.word	stateConnectingGuard
	.word	stateConnectingAction_connected
	.word	stateConnectedIPNo
	.word	0
	.word	19
	.word	stateConnectingGuard
	.word	stateConnectingAction_disconnect
	.word	stateDisconnect
	.section	.data.__compound_literal.1,"aw"
	.align	2
	.type	__compound_literal.1, @object
	.size	__compound_literal.1, 40
__compound_literal.1:
	.word	1
	.word	0
	.word	stateSnifferGuard
	.word	stateSnifferAction
	.word	stateIdle
	.word	0
	.word	17
	.word	stateSnifferGuard_ChannelSet
	.word	stateSnifferAction
	.word	stateIdle
	.section	.data.__compound_literal.0,"aw"
	.align	2
	.type	__compound_literal.0, @object
	.size	__compound_literal.0, 240
__compound_literal.0:
	.word	2
	.word	24
	.word	stateGlobalGuard_scan_beacon
	.word	stateGlobalAction
	.word	stateIdle
	.word	2
	.word	28
	.word	stateGlobalGuard_disable_autoreconnect
	.word	stateGlobalAction
	.word	stateIdle
	.word	2
	.word	29
	.word	stateGlobalGuard_enable_autoreconnect
	.word	stateGlobalAction
	.word	stateIdle
	.word	1
	.word	8
	.word	stateGlobalGuard_AP
	.word	stateGlobalAction
	.word	stateIdle
	.word	1
	.word	9
	.word	stateGlobalGuard_stop
	.word	stateGlobalAction
	.word	stateIdle
	.word	1
	.word	10
	.word	stateGlobalGuard_conf_max_sta
	.word	stateGlobalAction
	.word	stateIdle
	.word	1
	.word	12
	.word	stateGlobalGuard_denoise
	.word	stateGlobalAction
	.word	stateIdle
	.word	0
	.word	15
	.word	stateGlobalGuard_fw_disconnect
	.word	stateGlobalAction
	.word	stateIdle
	.word	0
	.word	16
	.word	stateGlobalGuard_fw_powersaving
	.word	stateGlobalAction
	.word	stateIdle
	.word	0
	.word	18
	.word	stateGlobalGuard_fw_scan
	.word	stateGlobalAction
	.word	stateIdle
	.word	0
	.word	21
	.word	stateSnifferGuard_raw_send
	.word	stateGlobalAction
	.word	stateIdle
	.word	0
	.word	22
	.word	stateGlobal_cfg_req
	.word	stateGlobalAction
	.word	stateIdle
	.section	.sbss.auto_repeat,"aw",@nobits
	.align	2
	.type	auto_repeat, @object
	.size	auto_repeat, 4
auto_repeat:
	.zero	4
	.section	.rodata.stateError,"a"
	.align	2
	.type	stateError, @object
	.size	stateError, 28
stateError:
	.zero	20
	.word	printErrMsg
	.zero	4
	.section	.rodata.str1.4
	.align	2
.LC70:
	.string	"sniffer"
	.section	.rodata.stateSniffer,"a"
	.align	2
	.type	stateSniffer, @object
	.size	stateSniffer, 28
stateSniffer:
	.word	stateGlobal
	.word	0
	.word	__compound_literal.1
	.word	2
	.word	.LC70
	.word	stateSnifferEnter
	.word	stateSnifferExit
	.section	.rodata.str1.4
	.align	2
.LC71:
	.string	"ifaceDown"
	.section	.rodata.stateIfaceDown,"a"
	.align	2
	.type	stateIfaceDown, @object
	.size	stateIfaceDown, 28
stateIfaceDown:
	.word	stateGlobal
	.word	0
	.word	__compound_literal.4
	.word	1
	.word	.LC71
	.word	stateIfaceDownEnter
	.word	stateIfaceDownExit
	.section	.rodata.stateDisconnect,"a"
	.align	2
	.type	stateDisconnect, @object
	.size	stateDisconnect, 28
stateDisconnect:
	.word	stateGlobal
	.word	0
	.word	__compound_literal.7
	.word	2
	.word	stateDisconnect_data
	.word	stateDisconnect_enter
	.word	stateDisconnect_exit
	.section	.rodata.str1.4
	.align	2
.LC72:
	.string	"wifiConnected_IPOK"
	.section	.rodata.stateConnectedIPYes,"a"
	.align	2
	.type	stateConnectedIPYes, @object
	.size	stateConnectedIPYes, 28
stateConnectedIPYes:
	.word	stateGlobal
	.word	0
	.word	__compound_literal.6
	.word	4
	.word	.LC72
	.word	stateConnectedIPYes_enter
	.word	stateConnectedIPYes_exit
	.section	.rodata.stateConnectedIPNo,"a"
	.align	2
	.type	stateConnectedIPNo, @object
	.size	stateConnectedIPNo, 28
stateConnectedIPNo:
	.word	stateGlobal
	.word	0
	.word	__compound_literal.5
	.word	3
	.word	stateConnectedIPNo_data
	.word	stateConnectedIPNoEnter
	.word	stateConnectedIPNoExit
	.section	.rodata.str1.4
	.align	2
.LC73:
	.string	"connecting"
	.section	.rodata.stateConnecting,"a"
	.align	2
	.type	stateConnecting, @object
	.size	stateConnecting, 28
stateConnecting:
	.word	stateGlobal
	.word	0
	.word	__compound_literal.2
	.word	2
	.word	.LC73
	.word	stateConnectingEnter
	.word	stateConnectingExit
	.section	.rodata.str1.4
	.align	2
.LC74:
	.string	"idle"
	.section	.rodata.stateIdle,"a"
	.align	2
	.type	stateIdle, @object
	.size	stateIdle, 28
stateIdle:
	.word	stateGlobal
	.word	0
	.word	__compound_literal.3
	.word	2
	.word	.LC74
	.word	stateIdleEnter
	.word	stateIdleExit
	.section	.rodata.str1.4
	.align	2
.LC75:
	.string	"group"
	.section	.rodata.stateGlobal,"a"
	.align	2
	.type	stateGlobal, @object
	.size	stateGlobal, 28
stateGlobal:
	.word	0
	.word	0
	.word	__compound_literal.0
	.word	12
	.word	.LC75
	.word	stateGlobalEnter
	.word	stateGlobalExit
	.globl	wifiMgmr
	.section	.bss.wifiMgmr,"aw",@nobits
	.align	2
	.type	wifiMgmr, @object
	.size	wifiMgmr, 6116
wifiMgmr:
	.zero	6116
	.text
.Letext0:
	.section	.note.GNU-stack,"",@progbits
