	.file	"wifi_mgmr_ext.c"
	.option nopic
	.attribute arch, "rv32i2p1_m2p0_f2p2_c2p0_zicsr2p0_zmmul1p0_zca1p0_zcf1p0"
	.attribute unaligned_access, 0
	.attribute stack_align, 16
	.text
.Ltext0:
	.cfi_sections	.debug_frame
	.section	.text.mac_is_unvalid,"ax",@progbits
	.align	1
	.type	mac_is_unvalid, @function
mac_is_unvalid:
.LVL0:
.LFB54:
.LM1:
	.cfi_startproc
.LM2:
.LM3:
.LM4:
.LM5:
	lbu	a5,0(a0)
.LVL1:
.LM6:
.LM7:
.LM8:
	li	a4,1
.LM9:
	li	a3,6
.LVL2:
.L3:
.LM10:
.LM11:
	add	a2,a0,a4
.LM12:
	lbu	a2,0(a2)
	bne	a2,a5,.L5
.LM13:
	addi	a4,a4,1
.LVL3:
.LM14:
	bne	a4,a3,.L3
.LM15:
.LM16:
.LM17:
	addi	a0,a5,-1
.LVL4:
.LM18:
	andi	a0,a0,0xff
	sltiu	a0,a0,254
	seqz	a0,a0
.LM19:
	ret
.LVL5:
.L5:
.LM20:
	li	a0,0
.LVL6:
.LM21:
	ret
	.cfi_endproc
.LFE54:
	.size	mac_is_unvalid, .-mac_is_unvalid
	.section	.text.cb_scan_item_parse,"ax",@progbits
	.align	1
	.type	cb_scan_item_parse, @function
cb_scan_item_parse:
.LVL7:
.LFB53:
.LM22:
	.cfi_startproc
.LM23:
.LM24:
	addi	sp,sp,-32
	.cfi_def_cfa_offset 32
	sw	ra,28(sp)
	sw	s0,24(sp)
	sw	s1,20(sp)
	sw	s2,16(sp)
	sw	s3,12(sp)
	.cfi_offset 1, -4
	.cfi_offset 8, -8
	.cfi_offset 9, -12
	.cfi_offset 18, -16
	.cfi_offset 19, -20
.LM25:
	lw	s2,0(a1)
.LVL8:
.LM26:
.LM27:
	li	a5,49
	bgtu	s2,a5,.L8
.LM28:
	li	a5,52
	mul	a5,s2,a5
	mv	s1,a2
	mv	s3,a1
.LM29:
.LM30:
	addi	a1,s1,40
.LVL9:
.LM31:
	addi	s2,s2,1
.LVL10:
.LM32:
	add	s0,a0,a5
.LVL11:
.LM33:
.LM34:
.LM35:
	lbu	a5,46(a2)
.LM36:
	addi	a0,s0,40
.LVL12:
.LM37:
	sb	a5,46(s0)
.LM38:
.LM39:
	lb	a5,48(a2)
.LM40:
	li	a2,6
.LVL13:
.LM41:
	sb	a5,48(s0)
.LM42:
	call	memcpy
.LVL14:
.LM43:
	li	a2,32
	mv	a1,s1
	mv	a0,s0
	call	memcpy
.LVL15:
.LM44:
.LM45:
	mv	a0,s0
.LM46:
	sb	zero,32(s0)
.LM47:
.LM48:
	call	strlen
.LVL16:
.LM49:
	sw	a0,36(s0)
.LM50:
.LM51:
	lbu	a5,47(s1)
.LM52:
	sb	a5,47(s0)
.LM53:
.LM54:
	sw	s2,0(s3)
.LVL17:
.L8:
.LM55:
	lw	ra,28(sp)
	.cfi_restore 1
	lw	s0,24(sp)
	.cfi_restore 8
	lw	s1,20(sp)
	.cfi_restore 9
	lw	s2,16(sp)
	.cfi_restore 18
	lw	s3,12(sp)
	.cfi_restore 19
	addi	sp,sp,32
	.cfi_def_cfa_offset 0
	jr	ra
	.cfi_endproc
.LFE53:
	.size	cb_scan_item_parse, .-cb_scan_item_parse
	.section	.rodata.cb_scan_complete.str1.4,"aMS",@progbits,1
	.align	2
.LC0:
	.string	"scan complete status: %d, ssid_len = %lu\r\n"
	.section	.text.cb_scan_complete,"ax",@progbits
	.align	1
	.type	cb_scan_complete, @function
cb_scan_complete:
.LVL18:
.LFB52:
.LM56:
	.cfi_startproc
.LM57:
.LM58:
.LM59:
.LM60:
	addi	sp,sp,-16
	.cfi_def_cfa_offset 16
	sw	ra,12(sp)
.LVL19:
	.cfi_offset 1, -4
.LM61:
	lw	a2,36(a0)
	lw	a1,0(a1)
.LVL20:
.LM62:
	lui	a0,%hi(.LC0)
.LVL21:
.LM63:
	addi	a0,a0,%lo(.LC0)
	call	printf
.LVL22:
.LM64:
.LM65:
	lui	a5,%hi(scan_sig)
	lw	a0,%lo(scan_sig)(a5)
.LM66:
	beq	a0,zero,.L11
.LM67:
.LM68:
	lw	ra,12(sp)
	.cfi_remember_state
	.cfi_restore 1
.LM69:
	li	a3,0
.LM70:
.LM71:
	li	a2,0
	li	a1,0
.LM72:
	addi	sp,sp,16
	.cfi_def_cfa_offset 0
.LM73:
	tail	xQueueGenericSend
.LVL23:
.L11:
	.cfi_restore_state
.LM74:
	lw	ra,12(sp)
	.cfi_restore 1
	addi	sp,sp,16
	.cfi_def_cfa_offset 0
	jr	ra
	.cfi_endproc
.LFE52:
	.size	cb_scan_complete, .-cb_scan_complete
	.section	.text.wifi_mgmr_psk_cal,"ax",@progbits
	.align	1
	.globl	wifi_mgmr_psk_cal
	.type	wifi_mgmr_psk_cal, @function
wifi_mgmr_psk_cal:
.LVL24:
.LFB56:
.LM75:
	.cfi_startproc
.LM76:
.LM77:
.LM78:
.LM79:
	addi	sp,sp,-48
	.cfi_def_cfa_offset 48
	sw	s1,36(sp)
	.cfi_offset 9, -12
	mv	s1,a3
.LM80:
	mv	a3,sp
.LVL25:
.LM81:
	sw	s0,40(sp)
	sw	ra,44(sp)
	.cfi_offset 8, -8
	.cfi_offset 1, -4
.LM82:
	call	bl60x_fw_password_hash
.LVL26:
.LM83:
	mv	s0,a0
.LVL27:
.LM84:
.LM85:
	bne	a0,zero,.L14
.LM86:
	li	a2,32
	mv	a1,sp
	mv	a0,s1
	call	utils_bin2hex
.LVL28:
.LM87:
.L14:
.LM88:
	lw	ra,44(sp)
	.cfi_restore 1
	mv	a0,s0
	lw	s0,40(sp)
	.cfi_restore 8
.LVL29:
.LM89:
	lw	s1,36(sp)
	.cfi_restore 9
.LVL30:
.LM90:
	addi	sp,sp,48
	.cfi_def_cfa_offset 0
	jr	ra
	.cfi_endproc
.LFE56:
	.size	wifi_mgmr_psk_cal, .-wifi_mgmr_psk_cal
	.section	.text.wifi_mgmr_drv_init,"ax",@progbits
	.align	1
	.globl	wifi_mgmr_drv_init
	.type	wifi_mgmr_drv_init, @function
wifi_mgmr_drv_init:
.LVL31:
.LFB57:
.LM91:
	.cfi_startproc
.LM92:
.LM93:
	addi	sp,sp,-16
	.cfi_def_cfa_offset 16
	sw	ra,12(sp)
	sw	s0,8(sp)
	.cfi_offset 1, -4
	.cfi_offset 8, -8
.LM94:
	mv	s0,a0
.LM95:
	call	bl606a0_wifi_init
.LVL32:
.LM96:
	mv	a0,s0
	call	wifi_mgmr_api_set_country_code
.LVL33:
.LM97:
	call	wifi_mgmr_init
.LVL34:
.LM98:
	call	wifi_mgmr_api_ifaceup
.LVL35:
.LM99:
.LM100:
	lw	ra,12(sp)
	.cfi_restore 1
	lw	s0,8(sp)
	.cfi_restore 8
.LVL36:
.LM101:
	li	a0,0
	addi	sp,sp,16
	.cfi_def_cfa_offset 0
	jr	ra
	.cfi_endproc
.LFE57:
	.size	wifi_mgmr_drv_init, .-wifi_mgmr_drv_init
	.section	.text.wifi_mgmr_get_wifi_channel_conf,"ax",@progbits
	.align	1
	.globl	wifi_mgmr_get_wifi_channel_conf
	.type	wifi_mgmr_get_wifi_channel_conf, @function
wifi_mgmr_get_wifi_channel_conf:
.LVL37:
.LFB58:
.LM102:
	.cfi_startproc
.LM103:
	lui	a1,%hi(wifiMgmr+6094)
.LM104:
	addi	sp,sp,-16
	.cfi_def_cfa_offset 16
.LM105:
	li	a2,3
	addi	a1,a1,%lo(wifiMgmr+6094)
.LM106:
	sw	s0,8(sp)
	sw	ra,12(sp)
	.cfi_offset 8, -8
	.cfi_offset 1, -4
.LM107:
	mv	s0,a0
.LM108:
	call	strncpy
.LVL38:
.LM109:
.LM110:
	lui	a5,%hi(wifiMgmr+6100)
	lw	a5,%lo(wifiMgmr+6100)(a5)
.LM111:
	sw	a5,4(s0)
.LM112:
	lw	ra,12(sp)
	.cfi_restore 1
	lw	s0,8(sp)
	.cfi_restore 8
.LVL39:
.LM113:
	addi	sp,sp,16
	.cfi_def_cfa_offset 0
	jr	ra
	.cfi_endproc
.LFE58:
	.size	wifi_mgmr_get_wifi_channel_conf, .-wifi_mgmr_get_wifi_channel_conf
	.section	.rodata.wifi_mgmr_sta_enable.str1.4,"aMS",@progbits,1
	.align	2
.LC1:
	.string	"----- BUG FIXME? NOT do STA enable again\r\n"
	.align	2
.LC2:
	.string	"---------STA enable\r\n"
	.section	.text.wifi_mgmr_sta_enable,"ax",@progbits
	.align	1
	.globl	wifi_mgmr_sta_enable
	.type	wifi_mgmr_sta_enable, @function
wifi_mgmr_sta_enable:
.LFB59:
.LM114:
	.cfi_startproc
.LM115:
.LM116:
.LM117:
	lui	a5,%hi(done.2)
.LM118:
	lw	a3,%lo(done.2)(a5)
.LM119:
	addi	sp,sp,-32
	.cfi_def_cfa_offset 32
	sw	ra,28(sp)
	sw	s0,24(sp)
	sw	s1,20(sp)
	sw	s2,16(sp)
	.cfi_offset 1, -4
	.cfi_offset 8, -8
	.cfi_offset 9, -12
	.cfi_offset 18, -16
.LM120:
	li	a4,1
	bne	a3,a4,.L22
.LM121:
	lui	a0,%hi(.LC1)
	addi	a0,a0,%lo(.LC1)
	call	printf
.LVL40:
.LM122:
.L23:
.LM123:
	lw	ra,28(sp)
	.cfi_remember_state
	.cfi_restore 1
	lw	s0,24(sp)
	.cfi_restore 8
	lui	a0,%hi(wifiMgmr+12)
	lw	s1,20(sp)
	.cfi_restore 9
	lw	s2,16(sp)
	.cfi_restore 18
	addi	a0,a0,%lo(wifiMgmr+12)
	addi	sp,sp,32
	.cfi_def_cfa_offset 0
	jr	ra
.L22:
	.cfi_restore_state
.LM124:
.LM125:
	lui	a0,%hi(.LC2)
	addi	a0,a0,%lo(.LC2)
.LM126:
	sw	a4,%lo(done.2)(a5)
.LM127:
.LBB6:
.LBB7:
.LM128:
	lui	s1,%hi(wifiMgmr+106)
.LBE7:
.LBE6:
.LM129:
	call	printf
.LVL41:
.LM130:
.LM131:
	lui	s0,%hi(wifiMgmr)
.LBB12:
.LBB8:
.LM132:
	lui	s2,%hi(wifiMgmr+17)
.LBE8:
.LBE12:
.LM133:
	addi	s0,s0,%lo(wifiMgmr)
.LBB13:
.LBB9:
.LM134:
	li	a2,6
	addi	a1,s2,%lo(wifiMgmr+17)
	addi	a0,s1,%lo(wifiMgmr+106)
.LBE9:
.LBE13:
.LM135:
	sw	zero,12(s0)
.LM136:
.LBB14:
.LBI6:
.LM137:
.LVL42:
.LBB10:
.LM138:
.LM139:
.LM140:
.LM141:
.LM142:
	sw	zero,4(sp)
.LM143:
.LM144:
	sw	zero,8(sp)
.LM145:
.LM146:
	sw	zero,12(sp)
.LM147:
	call	memcpy
.LVL43:
.LM148:
.LM149:
	addi	a0,s1,%lo(wifiMgmr+106)
	call	mac_is_unvalid
.LVL44:
.LM150:
	beq	a0,zero,.L24
.LM151:
	addi	a0,s1,%lo(wifiMgmr+106)
	call	bl_wifi_mac_addr_get
.LVL45:
.LM152:
.LM153:
	addi	a0,s1,%lo(wifiMgmr+106)
	call	mac_is_unvalid
.LVL46:
.LM154:
	beq	a0,zero,.L25
.LM155:
.LM156:
.LM157:
.LM158:
.LM159:
.LM160:
.LM161:
	li	a5,20480
	addi	a5,a5,192
	sh	a5,106(s0)
.LM162:
	li	a5,16830464
	addi	a5,a5,-1725
	sw	a5,108(s0)
.L25:
.LM163:
	li	a2,6
	addi	a1,s1,%lo(wifiMgmr+106)
	addi	a0,s2,%lo(wifiMgmr+17)
	call	memcpy
.LVL47:
.L24:
.LM164:
	lui	s1,%hi(wifiMgmr+44)
	lui	a6,%hi(tcpip_input)
	lui	a5,%hi(bl606a0_wifi_netif_init)
	addi	a6,a6,%lo(tcpip_input)
	li	a4,0
	addi	a3,sp,12
	addi	a2,sp,8
	addi	a1,sp,4
	addi	a5,a5,%lo(bl606a0_wifi_netif_init)
	addi	a0,s1,%lo(wifiMgmr+44)
	call	netifapi_netif_add
.LVL48:
.LM165:
.LM166:
.LM167:
	li	a5,28672
	addi	a5,a5,1139
	sh	a5,114(s0)
.LM168:
.LM169:
	lbu	a5,113(s0)
.LM170:
	addi	a0,s1,%lo(wifiMgmr+44)
.LM171:
	ori	a5,a5,36
	sb	a5,113(s0)
.LM172:
	call	netif_set_default
.LVL49:
.LM173:
	addi	a0,s1,%lo(wifiMgmr+44)
	call	netif_set_up
.LVL50:
.LM174:
.LBE10:
.LBE14:
.LM175:
.LBB15:
.LBB11:
.LM176:
	j	.L23
.LBE11:
.LBE15:
	.cfi_endproc
.LFE59:
	.size	wifi_mgmr_sta_enable, .-wifi_mgmr_sta_enable
	.section	.text.wifi_mgmr_sta_disable,"ax",@progbits
	.align	1
	.globl	wifi_mgmr_sta_disable
	.type	wifi_mgmr_sta_disable, @function
wifi_mgmr_sta_disable:
.LVL51:
.LFB60:
.LM177:
	.cfi_startproc
.LM178:
.LM179:
	addi	sp,sp,-16
	.cfi_def_cfa_offset 16
	sw	ra,12(sp)
	.cfi_offset 1, -4
.LM180:
	call	wifi_mgmr_api_idle
.LVL52:
.LM181:
.LM182:
	lw	ra,12(sp)
	.cfi_restore 1
	li	a0,0
	addi	sp,sp,16
	.cfi_def_cfa_offset 0
	jr	ra
	.cfi_endproc
.LFE60:
	.size	wifi_mgmr_sta_disable, .-wifi_mgmr_sta_disable
	.section	.text.wifi_mgmr_sta_mac_set,"ax",@progbits
	.align	1
	.globl	wifi_mgmr_sta_mac_set
	.type	wifi_mgmr_sta_mac_set, @function
wifi_mgmr_sta_mac_set:
.LVL53:
.LFB61:
.LM183:
	.cfi_startproc
.LM184:
.LM185:
	mv	a1,a0
.LM186:
	lui	a0,%hi(wifiMgmr+17)
.LVL54:
.LM187:
	addi	sp,sp,-16
	.cfi_def_cfa_offset 16
.LM188:
	li	a2,6
	addi	a0,a0,%lo(wifiMgmr+17)
.LM189:
	sw	ra,12(sp)
	.cfi_offset 1, -4
.LM190:
	call	memcpy
.LVL55:
.LM191:
.LM192:
	lw	ra,12(sp)
	.cfi_restore 1
	li	a0,0
	addi	sp,sp,16
	.cfi_def_cfa_offset 0
	jr	ra
	.cfi_endproc
.LFE61:
	.size	wifi_mgmr_sta_mac_set, .-wifi_mgmr_sta_mac_set
	.section	.text.wifi_mgmr_sta_mac_get,"ax",@progbits
	.align	1
	.globl	wifi_mgmr_sta_mac_get
	.type	wifi_mgmr_sta_mac_get, @function
wifi_mgmr_sta_mac_get:
.LVL56:
.LFB62:
.LM193:
	.cfi_startproc
.LM194:
.LM195:
	addi	sp,sp,-16
	.cfi_def_cfa_offset 16
	sw	s0,8(sp)
	.cfi_offset 8, -8
.LM196:
	lui	s0,%hi(wifiMgmr+17)
.LM197:
	sw	s1,4(sp)
	.cfi_offset 9, -12
	mv	s1,a0
.LM198:
	addi	a0,s0,%lo(wifiMgmr+17)
.LVL57:
.LM199:
	sw	ra,12(sp)
	.cfi_offset 1, -4
.LM200:
	call	mac_is_unvalid
.LVL58:
.LM201:
	beq	a0,zero,.L39
.LM202:
	addi	a0,s0,%lo(wifiMgmr+17)
	call	bl_wifi_mac_addr_get
.LVL59:
.LM203:
.LM204:
	addi	a0,s0,%lo(wifiMgmr+17)
	call	mac_is_unvalid
.LVL60:
.LM205:
	beq	a0,zero,.L39
.LM206:
.LM207:
.LM208:
.LM209:
.LM210:
.LM211:
.LM212:
	lui	a5,%hi(wifiMgmr)
	addi	a5,a5,%lo(wifiMgmr)
	li	a4,24
	sb	a4,17(a5)
.LM213:
	li	a4,1465
	sh	a4,18(a5)
.LM214:
	li	a4,1
.LM215:
	sh	zero,20(a5)
.LM216:
	sb	a4,22(a5)
.L39:
.LM217:
	addi	a1,s0,%lo(wifiMgmr+17)
	mv	a0,s1
	li	a2,6
	call	memcpy
.LVL61:
.LM218:
.LM219:
	lw	ra,12(sp)
	.cfi_restore 1
	lw	s0,8(sp)
	.cfi_restore 8
	lw	s1,4(sp)
	.cfi_restore 9
.LVL62:
.LM220:
	li	a0,0
	addi	sp,sp,16
	.cfi_def_cfa_offset 0
	jr	ra
	.cfi_endproc
.LFE62:
	.size	wifi_mgmr_sta_mac_get, .-wifi_mgmr_sta_mac_get
	.section	.text.wifi_mgmr_sta_ip_get,"ax",@progbits
	.align	1
	.globl	wifi_mgmr_sta_ip_get
	.type	wifi_mgmr_sta_ip_get, @function
wifi_mgmr_sta_ip_get:
.LVL63:
.LFB63:
.LM221:
	.cfi_startproc
.LM222:
.LM223:
	lui	a5,%hi(wifiMgmr)
	addi	a5,a5,%lo(wifiMgmr)
	lw	a4,48(a5)
.LM224:
	sw	a4,0(a0)
.LM225:
.LM226:
	lw	a4,52(a5)
.LM227:
	li	a0,0
.LVL64:
.LM228:
	sw	a4,0(a2)
.LM229:
.LM230:
	lw	a5,56(a5)
.LM231:
	sw	a5,0(a1)
.LM232:
.LM233:
	ret
	.cfi_endproc
.LFE63:
	.size	wifi_mgmr_sta_ip_get, .-wifi_mgmr_sta_ip_get
	.section	.text.wifi_mgmr_sta_dns_get,"ax",@progbits
	.align	1
	.globl	wifi_mgmr_sta_dns_get
	.type	wifi_mgmr_sta_dns_get, @function
wifi_mgmr_sta_dns_get:
.LVL65:
.LFB64:
.LM234:
	.cfi_startproc
.LM235:
.LM236:
.LM237:
	addi	sp,sp,-32
	.cfi_def_cfa_offset 32
	sw	s0,24(sp)
	.cfi_offset 8, -8
	mv	s0,a0
.LM238:
	li	a0,0
.LVL66:
.LM239:
	sw	ra,28(sp)
	.cfi_offset 1, -4
.LM240:
	sw	a1,12(sp)
.LM241:
	call	dns_getserver
.LVL67:
.LM242:
.LM243:
	lw	a5,0(a0)
.LM244:
	li	a0,1
.LVL68:
.LM245:
	sw	a5,0(s0)
.LM246:
.LM247:
.LM248:
	call	dns_getserver
.LVL69:
.LM249:
.LM250:
	lw	a5,0(a0)
.LM251:
	lw	a1,12(sp)
.LM252:
	li	a0,0
.LVL70:
.LM253:
	sw	a5,0(a1)
.LM254:
.LM255:
	lw	ra,28(sp)
	.cfi_restore 1
	lw	s0,24(sp)
	.cfi_restore 8
.LVL71:
.LM256:
	addi	sp,sp,32
	.cfi_def_cfa_offset 0
.LVL72:
.LM257:
	jr	ra
	.cfi_endproc
.LFE64:
	.size	wifi_mgmr_sta_dns_get, .-wifi_mgmr_sta_dns_get
	.section	.text.wifi_mgmr_sta_ip_set,"ax",@progbits
	.align	1
	.globl	wifi_mgmr_sta_ip_set
	.type	wifi_mgmr_sta_ip_set, @function
wifi_mgmr_sta_ip_set:
.LVL73:
.LFB65:
.LM258:
	.cfi_startproc
.LM259:
.LM260:
	addi	sp,sp,-48
	.cfi_def_cfa_offset 48
	sw	ra,44(sp)
	.cfi_offset 1, -4
.LM261:
	sw	a0,28(sp)
	sw	a1,24(sp)
	sw	a2,20(sp)
	sw	a3,16(sp)
	sw	a4,12(sp)
.LM262:
	call	vTaskEnterCritical
.LVL74:
.LM263:
.LM264:
	lw	a0,28(sp)
.LM265:
	lw	a1,24(sp)
.LM266:
	lw	a2,20(sp)
.LM267:
	lw	a3,16(sp)
.LM268:
	lw	a4,12(sp)
.LM269:
	lui	a5,%hi(wifiMgmr)
	addi	a5,a5,%lo(wifiMgmr)
	sw	a0,24(a5)
.LM270:
.LM271:
	sw	a1,28(a5)
.LM272:
.LM273:
	sw	a2,32(a5)
.LM274:
.LM275:
	sw	a3,36(a5)
.LM276:
.LM277:
	sw	a4,40(a5)
.LM278:
	call	vTaskExitCritical
.LVL75:
.LM279:
	call	wifi_mgmr_api_ip_update
.LVL76:
.LM280:
.LM281:
	lw	ra,44(sp)
	.cfi_restore 1
	li	a0,0
	addi	sp,sp,48
	.cfi_def_cfa_offset 0
.LVL77:
.LM282:
	jr	ra
	.cfi_endproc
.LFE65:
	.size	wifi_mgmr_sta_ip_set, .-wifi_mgmr_sta_ip_set
	.section	.text.wifi_mgmr_sta_ip_unset,"ax",@progbits
	.align	1
	.globl	wifi_mgmr_sta_ip_unset
	.type	wifi_mgmr_sta_ip_unset, @function
wifi_mgmr_sta_ip_unset:
.LFB66:
.LM283:
	.cfi_startproc
.LM284:
.LM285:
	li	a4,0
	li	a3,0
	li	a2,0
	li	a1,0
	li	a0,0
	tail	wifi_mgmr_sta_ip_set
.LVL78:
	.cfi_endproc
.LFE66:
	.size	wifi_mgmr_sta_ip_unset, .-wifi_mgmr_sta_ip_unset
	.section	.text.wifi_mgmr_sta_disconnect,"ax",@progbits
	.align	1
	.globl	wifi_mgmr_sta_disconnect
	.type	wifi_mgmr_sta_disconnect, @function
wifi_mgmr_sta_disconnect:
.LFB68:
.LM286:
	.cfi_startproc
.LM287:
.LM288:
	addi	sp,sp,-16
	.cfi_def_cfa_offset 16
	sw	ra,12(sp)
	.cfi_offset 1, -4
.LM289:
	call	wifi_mgmr_api_disconnect
.LVL79:
.LM290:
.LM291:
	lw	ra,12(sp)
	.cfi_restore 1
	li	a0,0
	addi	sp,sp,16
	.cfi_def_cfa_offset 0
	jr	ra
	.cfi_endproc
.LFE68:
	.size	wifi_mgmr_sta_disconnect, .-wifi_mgmr_sta_disconnect
	.section	.text.wifi_mgmr_sta_powersaving,"ax",@progbits
	.align	1
	.globl	wifi_mgmr_sta_powersaving
	.type	wifi_mgmr_sta_powersaving, @function
wifi_mgmr_sta_powersaving:
.LVL80:
.LFB69:
.LM292:
	.cfi_startproc
.LM293:
.LM294:
	addi	sp,sp,-16
	.cfi_def_cfa_offset 16
	sw	ra,12(sp)
	.cfi_offset 1, -4
.LM295:
	li	a4,1
	beq	a0,a4,.L60
	li	a4,2
	beq	a0,a4,.L60
	li	a4,-1
	bne	a0,zero,.L53
.L60:
.LM296:
	call	wifi_mgmr_api_fw_powersaving
.LVL81:
.LM297:
.LM298:
	li	a4,0
.L53:
.LM299:
	lw	ra,12(sp)
	.cfi_restore 1
	mv	a0,a4
	addi	sp,sp,16
	.cfi_def_cfa_offset 0
	jr	ra
	.cfi_endproc
.LFE69:
	.size	wifi_mgmr_sta_powersaving, .-wifi_mgmr_sta_powersaving
	.section	.text.wifi_mgmr_sta_autoconnect_enable,"ax",@progbits
	.align	1
	.globl	wifi_mgmr_sta_autoconnect_enable
	.type	wifi_mgmr_sta_autoconnect_enable, @function
wifi_mgmr_sta_autoconnect_enable:
.LFB70:
.LM300:
	.cfi_startproc
.LM301:
.LM302:
	addi	sp,sp,-16
	.cfi_def_cfa_offset 16
	sw	ra,12(sp)
	.cfi_offset 1, -4
.LM303:
	call	wifi_mgmr_api_enable_autoreconnect
.LVL82:
.LM304:
.LM305:
	lw	ra,12(sp)
	.cfi_restore 1
	li	a0,0
	addi	sp,sp,16
	.cfi_def_cfa_offset 0
	jr	ra
	.cfi_endproc
.LFE70:
	.size	wifi_mgmr_sta_autoconnect_enable, .-wifi_mgmr_sta_autoconnect_enable
	.section	.text.wifi_mgmr_sta_autoconnect_disable,"ax",@progbits
	.align	1
	.globl	wifi_mgmr_sta_autoconnect_disable
	.type	wifi_mgmr_sta_autoconnect_disable, @function
wifi_mgmr_sta_autoconnect_disable:
.LFB71:
.LM306:
	.cfi_startproc
.LM307:
.LM308:
	addi	sp,sp,-16
	.cfi_def_cfa_offset 16
	sw	ra,12(sp)
	.cfi_offset 1, -4
.LM309:
	call	wifi_mgmr_api_disable_autoreconnect
.LVL83:
.LM310:
.LM311:
	lw	ra,12(sp)
	.cfi_restore 1
	li	a0,0
	addi	sp,sp,16
	.cfi_def_cfa_offset 0
	jr	ra
	.cfi_endproc
.LFE71:
	.size	wifi_mgmr_sta_autoconnect_disable, .-wifi_mgmr_sta_autoconnect_disable
	.section	.rodata.wifi_mgmr_sta_connect_ind_stat_get.str1.4,"aMS",@progbits,1
	.align	2
.LC3:
	.string	"wifi mgmr ind status code = %d\r\n"
	.align	2
.LC4:
	.string	"ssid: %s, psk: %s, band: %d, freq: %d, type_ind: %d\r\n"
	.align	2
.LC5:
	.string	"bssid: %02x%02x%02x%02x%02x%02x\r\n"
	.section	.text.wifi_mgmr_sta_connect_ind_stat_get,"ax",@progbits
	.align	1
	.globl	wifi_mgmr_sta_connect_ind_stat_get
	.type	wifi_mgmr_sta_connect_ind_stat_get, @function
wifi_mgmr_sta_connect_ind_stat_get:
.LVL84:
.LFB72:
.LM312:
	.cfi_startproc
.LM313:
.LM314:
	addi	sp,sp,-48
	.cfi_def_cfa_offset 48
	sw	s1,36(sp)
	.cfi_offset 9, -12
.LM315:
	lui	s1,%hi(wifiMgmr+5987)
.LM316:
	sw	s0,40(sp)
	.cfi_offset 8, -8
	mv	s0,a0
.LM317:
	addi	a0,s1,%lo(wifiMgmr+5987)
.LVL85:
.LM318:
	sw	ra,44(sp)
	sw	s2,32(sp)
	sw	s3,28(sp)
	.cfi_offset 1, -4
	.cfi_offset 18, -16
	.cfi_offset 19, -20
.LM319:
	call	strlen
.LVL86:
.LM320:
.LM321:
	ble	a0,zero,.L66
	mv	a2,a0
.LM322:
	sw	a0,12(sp)
	addi	a1,s1,%lo(wifiMgmr+5987)
	addi	a0,s0,3
.LVL87:
.LM323:
	call	memcpy
.LVL88:
.LM324:
.LM325:
	lw	a2,12(sp)
	add	a2,s0,a2
	sb	zero,3(a2)
.LVL89:
.L66:
.LM326:
.LM327:
	lui	s1,%hi(wifiMgmr+6019)
	addi	a0,s1,%lo(wifiMgmr+6019)
	call	strlen
.LVL90:
	mv	a2,a0
.LVL91:
.LM328:
.LM329:
	ble	a0,zero,.L67
.LM330:
	sw	a0,12(sp)
	addi	a1,s1,%lo(wifiMgmr+6019)
	addi	a0,s0,35
.LVL92:
.LM331:
	call	memcpy
.LVL93:
.LM332:
.LM333:
	lw	a2,12(sp)
	add	a2,s0,a2
	sb	zero,35(a2)
.LVL94:
.L67:
.LM334:
	lui	a1,%hi(wifiMgmr+6084)
	li	a2,6
	addi	a1,a1,%lo(wifiMgmr+6084)
	addi	a0,s0,164
	call	memcpy
.LVL95:
.LM335:
.LM336:
	lui	a5,%hi(wifiMgmr+4096)
	addi	a5,a5,%lo(wifiMgmr+4096)
	lhu	a1,1888(a5)
.LM337:
	lui	a0,%hi(.LC3)
	addi	a0,a0,%lo(.LC3)
.LM338:
	sh	a1,0(s0)
.LM339:
.LM340:
	lbu	a4,1996(a5)
.LM341:
	sb	a4,172(s0)
.LM342:
.LM343:
	lhu	a4,1994(a5)
.LM344:
	sh	a4,170(s0)
.LM345:
.LM346:
	lbu	a5,1890(a5)
.LM347:
	sb	a5,2(s0)
.LM348:
	call	printf
.LVL96:
.LM349:
	lbu	a5,2(s0)
	lhu	a4,170(s0)
	lbu	a3,172(s0)
	lui	a0,%hi(.LC4)
	addi	a2,s0,35
	addi	a1,s0,3
	addi	a0,a0,%lo(.LC4)
	call	printf
.LVL97:
.LM350:
	lbu	a6,169(s0)
	lbu	a5,168(s0)
	lbu	a4,167(s0)
	lbu	a3,166(s0)
	lbu	a2,165(s0)
	lbu	a1,164(s0)
.LM351:
	lw	s0,40(sp)
	.cfi_restore 8
.LVL98:
.LM352:
	lw	ra,44(sp)
	.cfi_restore 1
	lw	s1,36(sp)
	.cfi_restore 9
	lw	s2,32(sp)
	.cfi_restore 18
	lw	s3,28(sp)
	.cfi_restore 19
.LM353:
	lui	a0,%hi(.LC5)
.LM354:
.LM355:
	addi	a0,a0,%lo(.LC5)
.LM356:
	addi	sp,sp,48
	.cfi_def_cfa_offset 0
.LM357:
	tail	printf
.LVL99:
	.cfi_endproc
.LFE72:
	.size	wifi_mgmr_sta_connect_ind_stat_get, .-wifi_mgmr_sta_connect_ind_stat_get
	.section	.text.wifi_mgmr_sta_ssid_set,"ax",@progbits
	.align	1
	.globl	wifi_mgmr_sta_ssid_set
	.type	wifi_mgmr_sta_ssid_set, @function
wifi_mgmr_sta_ssid_set:
.LVL100:
.LFB73:
.LM358:
	.cfi_startproc
.LM359:
.LM360:
	addi	sp,sp,-16
	.cfi_def_cfa_offset 16
	sw	s0,8(sp)
	sw	ra,12(sp)
	.cfi_offset 8, -8
	.cfi_offset 1, -4
.LM361:
	mv	s0,a0
.LM362:
	call	strlen
.LVL101:
.LM363:
	beq	a0,zero,.L69
.LVL102:
.LBB18:
.LBI18:
.LM364:
.LBB19:
.LM365:
	mv	a0,s0
	call	strlen
.LVL103:
.LM366:
	mv	a1,s0
.LBE19:
.LBE18:
.LM367:
	lw	s0,8(sp)
	.cfi_remember_state
	.cfi_restore 8
.LVL104:
.LM368:
	lw	ra,12(sp)
	.cfi_restore 1
.LBB23:
.LBB20:
.LM369:
	mv	a2,a0
.LM370:
	lui	a0,%hi(wifiMgmr+5987)
.LBE20:
.LBE23:
.LM371:
.LBB24:
.LBB21:
.LM372:
	addi	a0,a0,%lo(wifiMgmr+5987)
.LBE21:
.LBE24:
.LM373:
	addi	sp,sp,16
	.cfi_def_cfa_offset 0
.LBB25:
.LBB22:
.LM374:
	tail	memcpy
.LVL105:
.L69:
	.cfi_restore_state
.LM375:
.LBE22:
.LBE25:
.LM376:
	lw	ra,12(sp)
	.cfi_restore 1
	lw	s0,8(sp)
	.cfi_restore 8
.LVL106:
.LM377:
	addi	sp,sp,16
	.cfi_def_cfa_offset 0
	jr	ra
	.cfi_endproc
.LFE73:
	.size	wifi_mgmr_sta_ssid_set, .-wifi_mgmr_sta_ssid_set
	.section	.text.wifi_mgmr_sta_psk_set,"ax",@progbits
	.align	1
	.globl	wifi_mgmr_sta_psk_set
	.type	wifi_mgmr_sta_psk_set, @function
wifi_mgmr_sta_psk_set:
.LVL107:
.LFB74:
.LM378:
	.cfi_startproc
.LM379:
.LM380:
	addi	sp,sp,-16
	.cfi_def_cfa_offset 16
	sw	s0,8(sp)
	sw	ra,12(sp)
	.cfi_offset 8, -8
	.cfi_offset 1, -4
.LM381:
	mv	s0,a0
.LM382:
	call	strlen
.LVL108:
.LM383:
	beq	a0,zero,.L72
.LVL109:
.LBB28:
.LBI28:
.LM384:
.LBB29:
.LM385:
	mv	a0,s0
	call	strlen
.LVL110:
.LM386:
	mv	a1,s0
.LBE29:
.LBE28:
.LM387:
	lw	s0,8(sp)
	.cfi_remember_state
	.cfi_restore 8
.LVL111:
.LM388:
	lw	ra,12(sp)
	.cfi_restore 1
.LBB33:
.LBB30:
.LM389:
	mv	a2,a0
.LM390:
	lui	a0,%hi(wifiMgmr+6019)
.LBE30:
.LBE33:
.LM391:
.LBB34:
.LBB31:
.LM392:
	addi	a0,a0,%lo(wifiMgmr+6019)
.LBE31:
.LBE34:
.LM393:
	addi	sp,sp,16
	.cfi_def_cfa_offset 0
.LBB35:
.LBB32:
.LM394:
	tail	memcpy
.LVL112:
.L72:
	.cfi_restore_state
.LM395:
.LBE32:
.LBE35:
.LM396:
	lw	ra,12(sp)
	.cfi_restore 1
	lw	s0,8(sp)
	.cfi_restore 8
.LVL113:
.LM397:
	addi	sp,sp,16
	.cfi_def_cfa_offset 0
	jr	ra
	.cfi_endproc
.LFE74:
	.size	wifi_mgmr_sta_psk_set, .-wifi_mgmr_sta_psk_set
	.section	.text.wifi_mgmr_sta_connect,"ax",@progbits
	.align	1
	.globl	wifi_mgmr_sta_connect
	.type	wifi_mgmr_sta_connect, @function
wifi_mgmr_sta_connect:
.LVL114:
.LFB67:
.LM398:
	.cfi_startproc
.LM399:
.LM400:
	addi	sp,sp,-32
	.cfi_def_cfa_offset 32
.LM401:
	mv	a0,a1
.LVL115:
.LM402:
	sw	ra,28(sp)
	sw	s0,24(sp)
	sw	s1,20(sp)
	.cfi_offset 1, -4
	.cfi_offset 8, -8
	.cfi_offset 9, -12
.LM403:
	mv	s0,a1
	mv	s1,a2
	sw	a3,12(sp)
	sw	a4,8(sp)
	sw	a5,4(sp)
	sw	a6,0(sp)
.LM404:
	call	wifi_mgmr_sta_ssid_set
.LVL116:
.LM405:
	mv	a0,s1
	call	wifi_mgmr_sta_psk_set
.LVL117:
.LM406:
.LM407:
	mv	a0,s0
.LM408:
	lw	s0,24(sp)
	.cfi_restore 8
.LVL118:
.LM409:
	lw	a5,0(sp)
	lw	a4,4(sp)
	lw	a3,8(sp)
	lw	a2,12(sp)
.LM410:
	lw	ra,28(sp)
	.cfi_restore 1
.LM411:
	mv	a1,s1
.LM412:
	lw	s1,20(sp)
	.cfi_restore 9
.LVL119:
.LM413:
	addi	sp,sp,32
	.cfi_def_cfa_offset 0
.LVL120:
.LM414:
	tail	wifi_mgmr_api_connect
.LVL121:
.LM415:
	.cfi_endproc
.LFE67:
	.size	wifi_mgmr_sta_connect, .-wifi_mgmr_sta_connect
	.section	.text.wifi_mgmr_ap_enable,"ax",@progbits
	.align	1
	.globl	wifi_mgmr_ap_enable
	.type	wifi_mgmr_ap_enable, @function
wifi_mgmr_ap_enable:
.LFB76:
.LM416:
	.cfi_startproc
.LM417:
.LM418:
	addi	sp,sp,-32
	.cfi_def_cfa_offset 32
	sw	s0,24(sp)
	.cfi_offset 8, -8
.LM419:
	lui	s0,%hi(wifiMgmr)
.LM420:
	sw	s1,20(sp)
	sw	s2,16(sp)
	sw	ra,28(sp)
	.cfi_offset 9, -12
	.cfi_offset 18, -16
	.cfi_offset 1, -4
.LM421:
	li	a5,1
	addi	s0,s0,%lo(wifiMgmr)
	sw	a5,132(s0)
.LM422:
.LBB38:
.LBI38:
.LM423:
.LVL122:
.LBB39:
.LM424:
.LM425:
.LM426:
.LM427:
.LM428:
	li	a5,17543168
	addi	a5,a5,-1856
	sw	a5,4(sp)
.LM429:
.LM430:
	lui	s1,%hi(wifiMgmr+226)
.LM431:
	li	a5,16777216
.LM432:
	lui	s2,%hi(wifiMgmr+137)
.LM433:
	addi	a5,a5,-1
.LM434:
	li	a2,6
	addi	a1,s2,%lo(wifiMgmr+137)
	addi	a0,s1,%lo(wifiMgmr+226)
.LM435:
	sw	a5,8(sp)
.LM436:
.LM437:
	sw	zero,12(sp)
.LM438:
	call	memcpy
.LVL123:
.LM439:
.LM440:
	addi	a0,s1,%lo(wifiMgmr+226)
	call	mac_is_unvalid
.LVL124:
.LM441:
	beq	a0,zero,.L78
.LM442:
	addi	a0,s1,%lo(wifiMgmr+226)
	call	bl_wifi_mac_addr_get
.LVL125:
.LM443:
.LM444:
	addi	a0,s1,%lo(wifiMgmr+226)
	call	mac_is_unvalid
.LVL126:
.LM445:
	beq	a0,zero,.L79
.LM446:
.LM447:
.LM448:
.LM449:
.LM450:
.LM451:
.LM452:
	li	a5,20480
	addi	a5,a5,192
	sh	a5,226(s0)
.LM453:
	li	a5,16830464
	addi	a5,a5,-1725
	sw	a5,228(s0)
.L79:
.LM454:
	li	a2,6
	addi	a1,s1,%lo(wifiMgmr+226)
	addi	a0,s2,%lo(wifiMgmr+137)
	call	memcpy
.LVL127:
.L78:
.LM455:
	lui	s1,%hi(wifiMgmr+164)
	lui	a6,%hi(tcpip_input)
	lui	a5,%hi(bl606a0_wifi_netif_init)
	addi	a3,sp,12
	addi	a2,sp,8
	addi	a1,sp,4
	addi	a6,a6,%lo(tcpip_input)
	li	a4,0
	addi	a5,a5,%lo(bl606a0_wifi_netif_init)
	addi	a0,s1,%lo(wifiMgmr+164)
	call	netifapi_netif_add
.LVL128:
.LM456:
.LM457:
.LM458:
	li	a5,28672
	addi	a5,a5,97
.LM459:
	addi	a0,s1,%lo(wifiMgmr+164)
.LM460:
	sh	a5,234(s0)
.LM461:
	call	netif_set_default
.LVL129:
.LM462:
	addi	a0,s1,%lo(wifiMgmr+164)
	call	netif_set_up
.LVL130:
.LM463:
.LBE39:
.LBE38:
.LM464:
.LM465:
	lw	ra,28(sp)
	.cfi_restore 1
	lw	s0,24(sp)
	.cfi_restore 8
	lui	a0,%hi(wifiMgmr+132)
	lw	s1,20(sp)
	.cfi_restore 9
	lw	s2,16(sp)
	.cfi_restore 18
	addi	a0,a0,%lo(wifiMgmr+132)
	addi	sp,sp,32
	.cfi_def_cfa_offset 0
	jr	ra
	.cfi_endproc
.LFE76:
	.size	wifi_mgmr_ap_enable, .-wifi_mgmr_ap_enable
	.section	.text.wifi_mgmr_ap_mac_set,"ax",@progbits
	.align	1
	.globl	wifi_mgmr_ap_mac_set
	.type	wifi_mgmr_ap_mac_set, @function
wifi_mgmr_ap_mac_set:
.LVL131:
.LFB77:
.LM466:
	.cfi_startproc
.LM467:
.LM468:
	mv	a1,a0
.LM469:
	lui	a0,%hi(wifiMgmr+137)
.LVL132:
.LM470:
	addi	sp,sp,-16
	.cfi_def_cfa_offset 16
.LM471:
	li	a2,6
	addi	a0,a0,%lo(wifiMgmr+137)
.LM472:
	sw	ra,12(sp)
	.cfi_offset 1, -4
.LM473:
	call	memcpy
.LVL133:
.LM474:
.LM475:
	lw	ra,12(sp)
	.cfi_restore 1
	li	a0,0
	addi	sp,sp,16
	.cfi_def_cfa_offset 0
	jr	ra
	.cfi_endproc
.LFE77:
	.size	wifi_mgmr_ap_mac_set, .-wifi_mgmr_ap_mac_set
	.section	.text.wifi_mgmr_ap_mac_get,"ax",@progbits
	.align	1
	.globl	wifi_mgmr_ap_mac_get
	.type	wifi_mgmr_ap_mac_get, @function
wifi_mgmr_ap_mac_get:
.LVL134:
.LFB78:
.LM476:
	.cfi_startproc
.LM477:
.LM478:
.LM479:
	addi	sp,sp,-16
	.cfi_def_cfa_offset 16
	sw	s0,8(sp)
	.cfi_offset 8, -8
.LM480:
	lui	s0,%hi(wifiMgmr+137)
.LM481:
	sw	s1,4(sp)
	.cfi_offset 9, -12
	mv	s1,a0
.LM482:
	addi	a0,s0,%lo(wifiMgmr+137)
.LVL135:
.LM483:
	sw	ra,12(sp)
	.cfi_offset 1, -4
.LM484:
	call	bl_efuse_read_mac
.LVL136:
.LM485:
.LM486:
	addi	a0,s0,%lo(wifiMgmr+137)
	call	mac_is_unvalid
.LVL137:
.LM487:
	beq	a0,zero,.L90
.LM488:
.LM489:
.LM490:
.LM491:
.LM492:
.LM493:
.LM494:
	lui	a5,%hi(wifiMgmr)
	addi	a5,a5,%lo(wifiMgmr)
	li	a4,-64
	sb	a4,137(a5)
.LM495:
	li	a4,16384
	addi	a4,a4,848
	sh	a4,138(a5)
.LM496:
	li	a4,201
	sh	a4,140(a5)
.LM497:
	li	a4,1
	sb	a4,142(a5)
.L90:
.LM498:
	addi	a1,s0,%lo(wifiMgmr+137)
	mv	a0,s1
	li	a2,6
	call	memcpy
.LVL138:
.LM499:
.LM500:
	lw	ra,12(sp)
	.cfi_restore 1
	lw	s0,8(sp)
	.cfi_restore 8
	lw	s1,4(sp)
	.cfi_restore 9
.LVL139:
.LM501:
	li	a0,0
	addi	sp,sp,16
	.cfi_def_cfa_offset 0
	jr	ra
	.cfi_endproc
.LFE78:
	.size	wifi_mgmr_ap_mac_get, .-wifi_mgmr_ap_mac_get
	.section	.text.wifi_mgmr_ap_ip_get,"ax",@progbits
	.align	1
	.globl	wifi_mgmr_ap_ip_get
	.type	wifi_mgmr_ap_ip_get, @function
wifi_mgmr_ap_ip_get:
.LVL140:
.LFB79:
.LM502:
	.cfi_startproc
.LM503:
.LM504:
	lui	a5,%hi(wifiMgmr)
	addi	a5,a5,%lo(wifiMgmr)
	lw	a4,168(a5)
.LM505:
	sw	a4,0(a0)
.LM506:
.LM507:
	lw	a4,172(a5)
.LM508:
	li	a0,0
.LVL141:
.LM509:
	sw	a4,0(a1)
.LM510:
.LM511:
	lw	a5,176(a5)
.LM512:
	sw	a5,0(a2)
.LM513:
.LM514:
	ret
	.cfi_endproc
.LFE79:
	.size	wifi_mgmr_ap_ip_get, .-wifi_mgmr_ap_ip_get
	.section	.text.wifi_mgmr_ap_start,"ax",@progbits
	.align	1
	.globl	wifi_mgmr_ap_start
	.type	wifi_mgmr_ap_start, @function
wifi_mgmr_ap_start:
.LVL142:
.LFB80:
.LM515:
	.cfi_startproc
.LM516:
.LM517:
	addi	sp,sp,-16
	.cfi_def_cfa_offset 16
	mv	a0,a1
.LVL143:
.LM518:
	mv	a1,a3
.LVL144:
.LM519:
	andi	a3,a2,0xff
.LVL145:
.LM520:
	mv	a2,a4
.LVL146:
.LM521:
	sw	ra,12(sp)
	.cfi_offset 1, -4
.LM522:
	call	wifi_mgmr_api_ap_start
.LVL147:
.LM523:
.LM524:
	lw	ra,12(sp)
	.cfi_restore 1
	li	a0,0
	addi	sp,sp,16
	.cfi_def_cfa_offset 0
	jr	ra
	.cfi_endproc
.LFE80:
	.size	wifi_mgmr_ap_start, .-wifi_mgmr_ap_start
	.section	.text.wifi_mgmr_ap_stop,"ax",@progbits
	.align	1
	.globl	wifi_mgmr_ap_stop
	.type	wifi_mgmr_ap_stop, @function
wifi_mgmr_ap_stop:
.LVL148:
.LFB81:
.LM525:
	.cfi_startproc
.LM526:
.LM527:
	addi	sp,sp,-16
	.cfi_def_cfa_offset 16
	sw	ra,12(sp)
	.cfi_offset 1, -4
.LM528:
	call	wifi_mgmr_api_ap_stop
.LVL149:
.LM529:
.LM530:
	lw	ra,12(sp)
	.cfi_restore 1
	li	a0,0
	addi	sp,sp,16
	.cfi_def_cfa_offset 0
	jr	ra
	.cfi_endproc
.LFE81:
	.size	wifi_mgmr_ap_stop, .-wifi_mgmr_ap_stop
	.section	.text.wifi_mgmr_ap_sta_cnt_get,"ax",@progbits
	.align	1
	.globl	wifi_mgmr_ap_sta_cnt_get
	.type	wifi_mgmr_ap_sta_cnt_get, @function
wifi_mgmr_ap_sta_cnt_get:
.LVL150:
.LFB82:
.LM531:
	.cfi_startproc
.LM532:
.LM533:
	addi	sp,sp,-16
	.cfi_def_cfa_offset 16
	sw	ra,12(sp)
	.cfi_offset 1, -4
.LM534:
	call	wifi_mgmr_ap_sta_cnt_get_internal
.LVL151:
.LM535:
.LM536:
	lw	ra,12(sp)
	.cfi_restore 1
	li	a0,0
	addi	sp,sp,16
	.cfi_def_cfa_offset 0
	jr	ra
	.cfi_endproc
.LFE82:
	.size	wifi_mgmr_ap_sta_cnt_get, .-wifi_mgmr_ap_sta_cnt_get
	.section	.text.wifi_mgmr_ap_sta_info_get,"ax",@progbits
	.align	1
	.globl	wifi_mgmr_ap_sta_info_get
	.type	wifi_mgmr_ap_sta_info_get, @function
wifi_mgmr_ap_sta_info_get:
.LVL152:
.LFB83:
.LM537:
	.cfi_startproc
.LM538:
.LM539:
.LM540:
	addi	sp,sp,-48
	.cfi_def_cfa_offset 48
	sw	s0,40(sp)
	sw	s1,36(sp)
	.cfi_offset 8, -8
	.cfi_offset 9, -12
	mv	s0,a0
	mv	s1,a1
.LM541:
	li	a2,24
	li	a1,0
.LVL153:
.LM542:
	addi	a0,sp,8
.LVL154:
.LM543:
	sw	ra,44(sp)
	.cfi_offset 1, -4
.LM544:
	call	memset
.LVL155:
.LM545:
	mv	a1,s1
	addi	a0,sp,8
	call	wifi_mgmr_ap_sta_info_get_internal
.LVL156:
.LM546:
.LM547:
.LM548:
	lhu	a5,8(sp)
.LM549:
	addi	a1,sp,10
	addi	a0,s0,2
.LM550:
	sh	a5,0(s0)
.LM551:
.LM552:
	lw	a5,24(sp)
.LM553:
	li	a2,6
.LM554:
	sw	a5,16(s0)
.LM555:
.LM556:
	lw	a5,20(sp)
	sw	a5,12(s0)
.LM557:
.LM558:
	lw	a5,16(sp)
	sw	a5,8(s0)
.LM559:
.LM560:
	lbu	a5,28(sp)
	sb	a5,20(s0)
.LM561:
	call	memcpy
.LVL157:
.LM562:
.LM563:
	lw	ra,44(sp)
	.cfi_restore 1
	lw	s0,40(sp)
	.cfi_restore 8
.LVL158:
.LM564:
	lw	s1,36(sp)
	.cfi_restore 9
.LVL159:
.LM565:
	li	a0,0
	addi	sp,sp,48
	.cfi_def_cfa_offset 0
	jr	ra
	.cfi_endproc
.LFE83:
	.size	wifi_mgmr_ap_sta_info_get, .-wifi_mgmr_ap_sta_info_get
	.section	.text.wifi_mgmr_ap_sta_delete,"ax",@progbits
	.align	1
	.globl	wifi_mgmr_ap_sta_delete
	.type	wifi_mgmr_ap_sta_delete, @function
wifi_mgmr_ap_sta_delete:
.LVL160:
.LFB84:
.LM566:
	.cfi_startproc
.LM567:
.LM568:
	addi	sp,sp,-16
	.cfi_def_cfa_offset 16
	sw	ra,12(sp)
	.cfi_offset 1, -4
.LM569:
	call	wifi_mgmr_ap_sta_delete_internal
.LVL161:
.LM570:
.LM571:
	lw	ra,12(sp)
	.cfi_restore 1
	li	a0,0
	addi	sp,sp,16
	.cfi_def_cfa_offset 0
	jr	ra
	.cfi_endproc
.LFE84:
	.size	wifi_mgmr_ap_sta_delete, .-wifi_mgmr_ap_sta_delete
	.section	.text.wifi_mgmr_ap_set_gateway,"ax",@progbits
	.align	1
	.globl	wifi_mgmr_ap_set_gateway
	.type	wifi_mgmr_ap_set_gateway, @function
wifi_mgmr_ap_set_gateway:
.LVL162:
.LFB85:
.LM572:
	.cfi_startproc
.LM573:
.LM574:
	li	a0,0
.LVL163:
.LM575:
	ret
	.cfi_endproc
.LFE85:
	.size	wifi_mgmr_ap_set_gateway, .-wifi_mgmr_ap_set_gateway
	.section	.text.wifi_mgmr_sniffer_register,"ax",@progbits
	.align	1
	.globl	wifi_mgmr_sniffer_register
	.type	wifi_mgmr_sniffer_register, @function
wifi_mgmr_sniffer_register:
.LVL164:
.LFB86:
.LM576:
	.cfi_startproc
.LM577:
.LM578:
	addi	sp,sp,-16
	.cfi_def_cfa_offset 16
	sw	ra,12(sp)
	.cfi_offset 1, -4
.LM579:
	call	bl_rx_pkt_cb_register
.LVL165:
.LM580:
.LM581:
	lw	ra,12(sp)
	.cfi_restore 1
	li	a0,0
	addi	sp,sp,16
	.cfi_def_cfa_offset 0
	jr	ra
	.cfi_endproc
.LFE86:
	.size	wifi_mgmr_sniffer_register, .-wifi_mgmr_sniffer_register
	.section	.text.wifi_mgmr_sniffer_unregister,"ax",@progbits
	.align	1
	.globl	wifi_mgmr_sniffer_unregister
	.type	wifi_mgmr_sniffer_unregister, @function
wifi_mgmr_sniffer_unregister:
.LVL166:
.LFB87:
.LM582:
	.cfi_startproc
.LM583:
.LM584:
	addi	sp,sp,-16
	.cfi_def_cfa_offset 16
	sw	ra,12(sp)
	.cfi_offset 1, -4
.LM585:
	call	bl_rx_pkt_cb_unregister
.LVL167:
.LM586:
.LM587:
	lw	ra,12(sp)
	.cfi_restore 1
	li	a0,0
	addi	sp,sp,16
	.cfi_def_cfa_offset 0
	jr	ra
	.cfi_endproc
.LFE87:
	.size	wifi_mgmr_sniffer_unregister, .-wifi_mgmr_sniffer_unregister
	.section	.text.wifi_mgmr_sniffer_enable,"ax",@progbits
	.align	1
	.globl	wifi_mgmr_sniffer_enable
	.type	wifi_mgmr_sniffer_enable, @function
wifi_mgmr_sniffer_enable:
.LFB88:
.LM588:
	.cfi_startproc
.LM589:
.LM590:
	addi	sp,sp,-16
	.cfi_def_cfa_offset 16
	sw	ra,12(sp)
	.cfi_offset 1, -4
.LM591:
	call	wifi_mgmr_api_sniffer_enable
.LVL168:
.LM592:
.LM593:
	lw	ra,12(sp)
	.cfi_restore 1
	li	a0,0
	addi	sp,sp,16
	.cfi_def_cfa_offset 0
	jr	ra
	.cfi_endproc
.LFE88:
	.size	wifi_mgmr_sniffer_enable, .-wifi_mgmr_sniffer_enable
	.section	.text.wifi_mgmr_sniffer_disable,"ax",@progbits
	.align	1
	.globl	wifi_mgmr_sniffer_disable
	.type	wifi_mgmr_sniffer_disable, @function
wifi_mgmr_sniffer_disable:
.LFB89:
.LM594:
	.cfi_startproc
.LM595:
.LM596:
	addi	sp,sp,-16
	.cfi_def_cfa_offset 16
	sw	ra,12(sp)
	.cfi_offset 1, -4
.LM597:
	call	wifi_mgmr_api_idle
.LVL169:
.LM598:
.LM599:
	lw	ra,12(sp)
	.cfi_restore 1
	li	a0,0
	addi	sp,sp,16
	.cfi_def_cfa_offset 0
	jr	ra
	.cfi_endproc
.LFE89:
	.size	wifi_mgmr_sniffer_disable, .-wifi_mgmr_sniffer_disable
	.section	.text.wifi_mgmr_rate_config,"ax",@progbits
	.align	1
	.globl	wifi_mgmr_rate_config
	.type	wifi_mgmr_rate_config, @function
wifi_mgmr_rate_config:
.LVL170:
.LFB90:
.LM600:
	.cfi_startproc
.LM601:
.LM602:
	tail	wifi_mgmr_api_rate_config
.LVL171:
.LM603:
	.cfi_endproc
.LFE90:
	.size	wifi_mgmr_rate_config, .-wifi_mgmr_rate_config
	.section	.text.wifi_mgmr_conf_max_sta,"ax",@progbits
	.align	1
	.globl	wifi_mgmr_conf_max_sta
	.type	wifi_mgmr_conf_max_sta, @function
wifi_mgmr_conf_max_sta:
.LVL172:
.LFB91:
.LM604:
	.cfi_startproc
.LM605:
.LM606:
	tail	wifi_mgmr_api_conf_max_sta
.LVL173:
.LM607:
	.cfi_endproc
.LFE91:
	.size	wifi_mgmr_conf_max_sta, .-wifi_mgmr_conf_max_sta
	.section	.text.wifi_mgmr_state_get,"ax",@progbits
	.align	1
	.globl	wifi_mgmr_state_get
	.type	wifi_mgmr_state_get, @function
wifi_mgmr_state_get:
.LVL174:
.LFB92:
.LM608:
	.cfi_startproc
.LM609:
.LM610:
	tail	wifi_mgmr_state_get_internal
.LVL175:
.LM611:
	.cfi_endproc
.LFE92:
	.size	wifi_mgmr_state_get, .-wifi_mgmr_state_get
	.section	.text.wifi_mgmr_status_code_get,"ax",@progbits
	.align	1
	.globl	wifi_mgmr_status_code_get
	.type	wifi_mgmr_status_code_get, @function
wifi_mgmr_status_code_get:
.LVL176:
.LFB93:
.LM612:
	.cfi_startproc
.LM613:
.LM614:
	tail	wifi_mgmr_status_code_get_internal
.LVL177:
.LM615:
	.cfi_endproc
.LFE93:
	.size	wifi_mgmr_status_code_get, .-wifi_mgmr_status_code_get
	.section	.text.wifi_mgmr_rssi_get,"ax",@progbits
	.align	1
	.globl	wifi_mgmr_rssi_get
	.type	wifi_mgmr_rssi_get, @function
wifi_mgmr_rssi_get:
.LVL178:
.LFB94:
.LM616:
	.cfi_startproc
.LM617:
.LM618:
	lui	a5,%hi(wifiMgmr+128)
	lb	a5,%lo(wifiMgmr+128)(a5)
	sw	a5,0(a0)
.LM619:
.LM620:
	li	a0,0
.LVL179:
.LM621:
	ret
	.cfi_endproc
.LFE94:
	.size	wifi_mgmr_rssi_get, .-wifi_mgmr_rssi_get
	.section	.text.wifi_mgmr_channel_get,"ax",@progbits
	.align	1
	.globl	wifi_mgmr_channel_get
	.type	wifi_mgmr_channel_get, @function
wifi_mgmr_channel_get:
.LVL180:
.LFB95:
.LM622:
	.cfi_startproc
.LM623:
.LM624:
	lui	a5,%hi(wifiMgmr)
	addi	a5,a5,%lo(wifiMgmr)
	lw	a5,4(a5)
.LM625:
	sw	a5,0(a0)
.LM626:
.LM627:
	li	a0,0
.LVL181:
.LM628:
	ret
	.cfi_endproc
.LFE95:
	.size	wifi_mgmr_channel_get, .-wifi_mgmr_channel_get
	.section	.rodata.wifi_mgmr_channel_set.str1.4,"aMS",@progbits,1
	.align	2
.LC6:
	.string	"set channel %d, 40Mhz %d\r\n"
	.section	.text.wifi_mgmr_channel_set,"ax",@progbits
	.align	1
	.globl	wifi_mgmr_channel_set
	.type	wifi_mgmr_channel_set, @function
wifi_mgmr_channel_set:
.LVL182:
.LFB96:
.LM629:
	.cfi_startproc
.LM630:
.LM631:
	addi	sp,sp,-32
	.cfi_def_cfa_offset 32
.LM632:
	lui	a5,%hi(wifiMgmr+4)
.LM633:
	sw	ra,28(sp)
	sw	s0,24(sp)
	.cfi_offset 1, -4
	.cfi_offset 8, -8
.LM634:
	sw	a1,12(sp)
	mv	s0,a0
.LM635:
	sw	a0,%lo(wifiMgmr+4)(a5)
.LM636:
	call	wifi_mgmr_api_channel_set
.LVL183:
.LM637:
	lw	a2,12(sp)
	lui	a0,%hi(.LC6)
	mv	a1,s0
	addi	a0,a0,%lo(.LC6)
	call	printf
.LVL184:
.LM638:
.LM639:
	lw	ra,28(sp)
	.cfi_restore 1
	lw	s0,24(sp)
	.cfi_restore 8
.LVL185:
.LM640:
	li	a0,0
	addi	sp,sp,32
	.cfi_def_cfa_offset 0
.LVL186:
.LM641:
	jr	ra
	.cfi_endproc
.LFE96:
	.size	wifi_mgmr_channel_set, .-wifi_mgmr_channel_set
	.section	.text.wifi_mgmr_raw_80211_send,"ax",@progbits
	.align	1
	.globl	wifi_mgmr_raw_80211_send
	.type	wifi_mgmr_raw_80211_send, @function
wifi_mgmr_raw_80211_send:
.LVL187:
.LFB97:
.LM642:
	.cfi_startproc
.LM643:
.LM644:
	li	a5,480
	bgt	a1,a5,.L125
.LM645:
.LM646:
	addi	sp,sp,-16
	.cfi_def_cfa_offset 16
	sw	ra,12(sp)
	.cfi_offset 1, -4
.LM647:
	call	wifi_mgmr_api_raw_send
.LVL188:
.LM648:
.LM649:
	lw	ra,12(sp)
	.cfi_restore 1
.LM650:
	li	a0,0
.LM651:
	addi	sp,sp,16
	.cfi_def_cfa_offset 0
	jr	ra
.LVL189:
.L125:
.LM652:
	li	a0,-1
.LVL190:
.LM653:
	ret
	.cfi_endproc
.LFE97:
	.size	wifi_mgmr_raw_80211_send, .-wifi_mgmr_raw_80211_send
	.section	.text.wifi_mgmr_scan,"ax",@progbits
	.align	1
	.globl	wifi_mgmr_scan
	.type	wifi_mgmr_scan, @function
wifi_mgmr_scan:
.LVL191:
.LFB99:
.LM654:
	.cfi_startproc
.LM655:
.LM656:
	lui	a5,%hi(scan_cb)
.LM657:
	addi	sp,sp,-16
	.cfi_def_cfa_offset 16
.LM658:
	sw	a1,%lo(scan_cb)(a5)
.LM659:
.LM660:
	lui	a5,%hi(scan_data)
.LM661:
	sw	ra,12(sp)
	.cfi_offset 1, -4
.LM662:
	sw	a0,%lo(scan_data)(a5)
.LM663:
	call	wifi_mgmr_api_fw_scan
.LVL192:
.LM664:
.LM665:
	lw	ra,12(sp)
	.cfi_restore 1
	li	a0,0
	addi	sp,sp,16
	.cfi_def_cfa_offset 0
	jr	ra
	.cfi_endproc
.LFE99:
	.size	wifi_mgmr_scan, .-wifi_mgmr_scan
	.section	.text.wifi_mgmr_cfg_req,"ax",@progbits
	.align	1
	.globl	wifi_mgmr_cfg_req
	.type	wifi_mgmr_cfg_req, @function
wifi_mgmr_cfg_req:
.LVL193:
.LFB100:
.LM666:
	.cfi_startproc
.LM667:
.LM668:
	tail	wifi_mgmr_api_cfg_req
.LVL194:
.LM669:
	.cfi_endproc
.LFE100:
	.size	wifi_mgmr_cfg_req, .-wifi_mgmr_cfg_req
	.section	.text.wifi_mgmr_scan_filter_hidden_ssid,"ax",@progbits
	.align	1
	.globl	wifi_mgmr_scan_filter_hidden_ssid
	.type	wifi_mgmr_scan_filter_hidden_ssid, @function
wifi_mgmr_scan_filter_hidden_ssid:
.LVL195:
.LFB101:
.LM670:
	.cfi_startproc
.LM671:
.LM672:
	addi	sp,sp,-32
	.cfi_def_cfa_offset 32
	sw	a0,12(sp)
	sw	ra,28(sp)
	.cfi_offset 1, -4
.LM673:
	call	vTaskEnterCritical
.LVL196:
.LM674:
.LM675:
	lui	a5,%hi(wifiMgmr+4096)
	addi	a5,a5,%lo(wifiMgmr+4096)
	lw	a3,2012(a5)
.LM676:
	lw	a0,12(sp)
.LM677:
	andi	a4,a3,-2
.LM678:
	bne	a0,zero,.L135
	ori	a4,a3,1
.L135:
	sw	a4,2012(a5)
.LM679:
	call	vTaskExitCritical
.LVL197:
.LM680:
.LM681:
	lw	ra,28(sp)
	.cfi_restore 1
	li	a0,0
	addi	sp,sp,32
	.cfi_def_cfa_offset 0
.LVL198:
.LM682:
	jr	ra
	.cfi_endproc
.LFE101:
	.size	wifi_mgmr_scan_filter_hidden_ssid, .-wifi_mgmr_scan_filter_hidden_ssid
	.section	.rodata.wifi_mgmr_scan_complete_callback.str1.4,"aMS",@progbits,1
	.align	2
.LC7:
	.string	"%s: scan complete\r\n"
	.section	.text.wifi_mgmr_scan_complete_callback,"ax",@progbits
	.align	1
	.globl	wifi_mgmr_scan_complete_callback
	.type	wifi_mgmr_scan_complete_callback, @function
wifi_mgmr_scan_complete_callback:
.LFB102:
.LM683:
	.cfi_startproc
.LM684:
.LM685:
	lui	a1,%hi(__func__.1)
	lui	a0,%hi(.LC7)
.LM686:
	addi	sp,sp,-32
	.cfi_def_cfa_offset 32
.LM687:
	addi	a1,a1,%lo(__func__.1)
	addi	a0,a0,%lo(.LC7)
.LM688:
	sw	ra,28(sp)
	.cfi_offset 1, -4
.LM689:
	sw	zero,12(sp)
.LM690:
	call	printf
.LVL199:
.LM691:
.LM692:
	lui	a5,%hi(scan_cb)
	lw	a5,%lo(scan_cb)(a5)
.LM693:
	beq	a5,zero,.L140
.LM694:
.LM695:
	li	a4,1
	sw	a4,12(sp)
.LM696:
	lui	a4,%hi(scan_data)
	lw	a0,%lo(scan_data)(a4)
	addi	a1,sp,12
	jalr	a5
.LVL200:
.L140:
.LM697:
.LM698:
	lw	ra,28(sp)
	.cfi_restore 1
	li	a0,0
	addi	sp,sp,32
	.cfi_def_cfa_offset 0
	jr	ra
	.cfi_endproc
.LFE102:
	.size	wifi_mgmr_scan_complete_callback, .-wifi_mgmr_scan_complete_callback
	.section	.text.wifi_mgmr_scan_ap,"ax",@progbits
	.align	1
	.globl	wifi_mgmr_scan_ap
	.type	wifi_mgmr_scan_ap, @function
wifi_mgmr_scan_ap:
.LVL201:
.LFB103:
.LM699:
	.cfi_startproc
.LM700:
.LM701:
.LM702:
.LM703:
.LM704:
.LM705:
	addi	sp,sp,-48
	.cfi_def_cfa_offset 48
	sw	s0,40(sp)
	.cfi_offset 8, -8
	lui	s0,%hi(wifiMgmr)
	addi	s0,s0,%lo(wifiMgmr)
	sw	s5,20(sp)
	.cfi_offset 21, -28
.LBB42:
.LBB43:
.LM706:
	li	s5,4096
.LBE43:
.LBE42:
.LM707:
	sw	s1,36(sp)
	sw	s2,32(sp)
	sw	s4,24(sp)
	sw	s6,16(sp)
	sw	s7,12(sp)
	sw	ra,44(sp)
	sw	s3,28(sp)
	.cfi_offset 9, -12
	.cfi_offset 18, -16
	.cfi_offset 20, -24
	.cfi_offset 22, -32
	.cfi_offset 23, -36
	.cfi_offset 1, -4
	.cfi_offset 19, -20
.LM708:
	mv	s7,a0
	mv	s2,a1
	addi	s4,s0,652
.LM709:
	li	s1,0
.LBB46:
.LBB44:
.LM710:
	add	s5,s0,s5
.LBE44:
.LBE46:
.LM711:
	li	s6,50
.LVL202:
.L147:
.LM712:
.LM713:
	lbu	a5,52(s4)
	bne	a5,zero,.L146
.L149:
.LM714:
	addi	s1,s1,1
.LVL203:
.LM715:
	addi	s4,s4,60
	bne	s1,s6,.L147
.LM716:
	li	s3,-1
.LVL204:
.L145:
.LM717:
	lw	ra,44(sp)
	.cfi_remember_state
	.cfi_restore 1
	lw	s0,40(sp)
	.cfi_restore 8
	lw	s1,36(sp)
	.cfi_restore 9
	lw	s2,32(sp)
	.cfi_restore 18
.LVL205:
.LM718:
	lw	s4,24(sp)
	.cfi_restore 20
	lw	s5,20(sp)
	.cfi_restore 21
	lw	s6,16(sp)
	.cfi_restore 22
	lw	s7,12(sp)
	.cfi_restore 23
.LVL206:
.LM719:
	mv	a0,s3
	lw	s3,28(sp)
	.cfi_restore 19
	addi	sp,sp,48
	.cfi_def_cfa_offset 0
	jr	ra
.LVL207:
.L146:
	.cfi_restore_state
.LBB47:
.LBI42:
.LM720:
.LBB45:
.LM721:
.LM722:
	call	xTaskGetTickCount
.LVL208:
.LM723:
	lw	a5,56(s4)
	sub	a0,a0,a5
.LBE45:
.LBE47:
.LM724:
	lw	a5,2016(s5)
	bgeu	a0,a5,.L149
.LM725:
	mv	a1,s7
	mv	a0,s4
	call	strcmp
.LVL209:
	mv	s3,a0
.LM726:
	bne	a0,zero,.L149
.LM727:
.LVL210:
.LM728:
.LM729:
	li	a5,60
	mul	s1,s1,a5
.LVL211:
.LM730:
	li	a2,32
	mv	a0,s2
.LM731:
	addi	a1,s1,652
.LM732:
	add	a1,s0,a1
	call	memcpy
.LVL212:
.LM733:
.LM734:
	mv	a0,s2
.LM735:
	sb	zero,32(s2)
.LM736:
.LM737:
	call	strlen
.LVL213:
.LM738:
	addi	a1,s1,692
.LM739:
	sw	a0,36(s2)
.LM740:
	add	a1,s0,a1
	li	a2,6
	addi	a0,s2,40
	call	memcpy
.LVL214:
.LM741:
.LM742:
	add	s0,s0,s1
	lbu	a5,698(s0)
.LM743:
	sb	a5,46(s2)
.LM744:
.LM745:
	lb	a5,699(s0)
.LM746:
	sb	a5,48(s2)
.LM747:
.LM748:
	j	.L145
	.cfi_endproc
.LFE103:
	.size	wifi_mgmr_scan_ap, .-wifi_mgmr_scan_ap
	.section	.text.wifi_mgmr_scan_ap_all,"ax",@progbits
	.align	1
	.globl	wifi_mgmr_scan_ap_all
	.type	wifi_mgmr_scan_ap_all, @function
wifi_mgmr_scan_ap_all:
.LVL215:
.LFB104:
.LM749:
	.cfi_startproc
.LM750:
.LM751:
.LM752:
.LM753:
.LM754:
	lui	a5,%hi(wifiMgmr)
.LM755:
	addi	sp,sp,-96
	.cfi_def_cfa_offset 96
	addi	a5,a5,%lo(wifiMgmr)
	sw	s2,80(sp)
.LBB50:
.LBB51:
.LM756:
	li	a4,4096
	.cfi_offset 18, -16
	addi	s2,a5,2047
.LBE51:
.LBE50:
.LM757:
	sw	s0,88(sp)
	sw	s1,84(sp)
	sw	s3,76(sp)
	sw	s4,72(sp)
	sw	s5,68(sp)
	sw	ra,92(sp)
	.cfi_offset 8, -8
	.cfi_offset 9, -12
	.cfi_offset 19, -20
	.cfi_offset 20, -24
	.cfi_offset 21, -28
	.cfi_offset 1, -4
.LM758:
	mv	s4,a0
	mv	s5,a1
	mv	s3,a2
	addi	s0,a5,652
	addi	s2,s2,1605
.LBB54:
.LBB52:
.LM759:
	add	s1,a5,a4
.LVL216:
.L157:
.LM760:
.LBE52:
.LBE54:
.LM761:
.LM762:
.LM763:
	lbu	a5,52(s0)
	beq	a5,zero,.L155
.LBB55:
.LBI50:
.LM764:
.LVL217:
.LBB53:
.LM765:
.LM766:
	call	xTaskGetTickCount
.LVL218:
.LM767:
	lw	a5,56(s0)
	sub	a0,a0,a5
.LBE53:
.LBE55:
.LM768:
	lw	a5,2016(s1)
	bgeu	a0,a5,.L155
.LM769:
	li	a2,32
	mv	a1,s0
	addi	a0,sp,12
	call	memcpy
.LVL219:
.LM770:
.LM771:
	addi	a0,sp,12
.LM772:
	sb	zero,44(sp)
.LM773:
.LM774:
	call	strlen
.LVL220:
.LM775:
	sw	a0,48(sp)
.LM776:
	li	a2,6
	addi	a1,s0,40
	addi	a0,sp,52
	call	memcpy
.LVL221:
.LM777:
.LM778:
	lbu	a5,46(s0)
.LM779:
	addi	a2,sp,12
	mv	a1,s5
.LM780:
	sb	a5,58(sp)
.LM781:
.LM782:
	lbu	a5,47(s0)
.LM783:
	mv	a0,s4
.LM784:
	sb	a5,60(sp)
.LM785:
.LM786:
	lbu	a5,50(s0)
	sb	a5,59(sp)
.LM787:
	jalr	s3
.LVL222:
.L155:
.LM788:
.LM789:
	addi	s0,s0,60
	bne	s0,s2,.L157
.LM790:
.LM791:
	lw	ra,92(sp)
	.cfi_restore 1
	lw	s0,88(sp)
	.cfi_restore 8
	lw	s1,84(sp)
	.cfi_restore 9
	lw	s2,80(sp)
	.cfi_restore 18
	lw	s3,76(sp)
	.cfi_restore 19
.LVL223:
.LM792:
	lw	s4,72(sp)
	.cfi_restore 20
.LVL224:
.LM793:
	lw	s5,68(sp)
	.cfi_restore 21
.LVL225:
.LM794:
	li	a0,0
	addi	sp,sp,96
	.cfi_def_cfa_offset 0
	jr	ra
	.cfi_endproc
.LFE104:
	.size	wifi_mgmr_scan_ap_all, .-wifi_mgmr_scan_ap_all
	.section	.rodata.wifi_mgmr_all_ap_scan.str1.4,"aMS",@progbits,1
	.align	2
.LC8:
	.string	"wifi scan Done\r\n"
	.section	.text.wifi_mgmr_all_ap_scan,"ax",@progbits
	.align	1
	.globl	wifi_mgmr_all_ap_scan
	.type	wifi_mgmr_all_ap_scan, @function
wifi_mgmr_all_ap_scan:
.LVL226:
.LFB98:
.LM795:
	.cfi_startproc
.LM796:
.LM797:
	addi	sp,sp,-48
	.cfi_def_cfa_offset 48
	sw	ra,44(sp)
	sw	s0,40(sp)
	sw	s1,36(sp)
	sw	s2,32(sp)
	sw	s3,28(sp)
	.cfi_offset 1, -4
	.cfi_offset 8, -8
	.cfi_offset 9, -12
	.cfi_offset 18, -16
	.cfi_offset 19, -20
.LM798:
	sw	zero,12(sp)
.LM799:
.LM800:
.LM801:
	beq	a1,zero,.L163
	beq	a0,zero,.L163
	mv	s2,a0
.LM802:
.LM803:
	li	a0,4096
.LVL227:
.LM804:
	addi	a0,a0,-1496
	mv	s3,a1
	call	pvPortMalloc
.LVL228:
.LM805:
	mv	s0,a0
.LVL229:
.LM806:
.LM807:
	beq	a0,zero,.L163
.LM808:
	li	a2,4096
	addi	a2,a2,-1496
	li	a1,0
	call	memset
.LVL230:
.LM809:
.LM810:
	li	a2,3
	li	a1,0
	li	a0,1
	call	xQueueGenericCreate
.LVL231:
.LM811:
	lui	s1,%hi(scan_sig)
	sw	a0,%lo(scan_sig)(s1)
.LM812:
	bne	a0,zero,.L165
.LM813:
	mv	a0,s0
	call	vPortFree
.LVL232:
.LM814:
.L163:
.LM815:
	li	a0,-1
.L160:
.LM816:
	lw	ra,44(sp)
	.cfi_remember_state
	.cfi_restore 1
	lw	s0,40(sp)
	.cfi_restore 8
	lw	s1,36(sp)
	.cfi_restore 9
	lw	s2,32(sp)
	.cfi_restore 18
	lw	s3,28(sp)
	.cfi_restore 19
	addi	sp,sp,48
	.cfi_def_cfa_offset 0
	jr	ra
.LVL233:
.L165:
	.cfi_restore_state
.LM817:
.LBB56:
.LBI56:
.LM818:
.LBB57:
.LM819:
.LM820:
	lui	a5,%hi(cb_scan_complete)
	lui	a4,%hi(scan_cb)
	addi	a5,a5,%lo(cb_scan_complete)
	sw	a5,%lo(scan_cb)(a4)
.LM821:
.LM822:
	lui	a5,%hi(scan_data)
	sw	s0,%lo(scan_data)(a5)
.LM823:
	call	wifi_mgmr_api_fw_scan
.LVL234:
.LM824:
.LM825:
.LBE57:
.LBE56:
.LM826:
.LM827:
	lw	a0,%lo(scan_sig)(s1)
	li	a1,-1
	call	xQueueSemaphoreTake
.LVL235:
.LM828:
	li	a5,1
	bne	a0,a5,.L167
.LM829:
	lui	a0,%hi(.LC8)
	addi	a0,a0,%lo(.LC8)
	call	printf
.LVL236:
.L167:
.LM830:
	call	wifi_mgmr_cli_scanlist
.LVL237:
.LM831:
	lui	a2,%hi(cb_scan_item_parse)
	addi	a2,a2,%lo(cb_scan_item_parse)
	addi	a1,sp,12
	mv	a0,s0
	call	wifi_mgmr_scan_ap_all
.LVL238:
.LM832:
.LM833:
	lw	a5,12(sp)
	sw	a5,0(s3)
.LM834:
.LM835:
	sw	s0,0(s2)
.LM836:
	lw	a0,%lo(scan_sig)(s1)
	call	vQueueDelete
.LVL239:
.LM837:
.LM838:
	li	a0,0
	j	.L160
	.cfi_endproc
.LFE98:
	.size	wifi_mgmr_all_ap_scan, .-wifi_mgmr_all_ap_scan
	.section	.rodata.wifi_mgmr_set_country_code.str1.4,"aMS",@progbits,1
	.align	2
.LC9:
	.string	"%s:code = %s\r\n"
	.section	.text.wifi_mgmr_set_country_code,"ax",@progbits
	.align	1
	.globl	wifi_mgmr_set_country_code
	.type	wifi_mgmr_set_country_code, @function
wifi_mgmr_set_country_code:
.LVL240:
.LFB105:
.LM839:
	.cfi_startproc
.LM840:
.LM841:
	addi	sp,sp,-16
	.cfi_def_cfa_offset 16
	sw	s0,8(sp)
.LM842:
	mv	a2,a0
	.cfi_offset 8, -8
.LM843:
	mv	s0,a0
.LM844:
	lui	a1,%hi(__func__.0)
	lui	a0,%hi(.LC9)
.LVL241:
.LM845:
	addi	a1,a1,%lo(__func__.0)
	addi	a0,a0,%lo(.LC9)
.LM846:
	sw	ra,12(sp)
	.cfi_offset 1, -4
.LM847:
	call	printf
.LVL242:
.LM848:
	mv	a0,s0
	call	wifi_mgmr_api_set_country_code
.LVL243:
.LM849:
.LM850:
	lw	ra,12(sp)
	.cfi_restore 1
	lw	s0,8(sp)
	.cfi_restore 8
.LVL244:
.LM851:
	li	a0,0
	addi	sp,sp,16
	.cfi_def_cfa_offset 0
	jr	ra
	.cfi_endproc
.LFE105:
	.size	wifi_mgmr_set_country_code, .-wifi_mgmr_set_country_code
	.section	.rodata.wifi_mgmr_status_code_str.str1.4,"aMS",@progbits,1
	.align	2
.LC10:
	.string	"Unknown Status Code"
	.section	.text.wifi_mgmr_status_code_str,"ax",@progbits
	.align	1
	.globl	wifi_mgmr_status_code_str
	.type	wifi_mgmr_status_code_str, @function
wifi_mgmr_status_code_str:
.LVL245:
.LFB106:
.LM852:
	.cfi_startproc
.LM853:
	li	a5,16
	bgtu	a0,a5,.L176
	lui	a5,%hi(CSWTCH.71)
	slli	a0,a0,2
.LVL246:
.LM854:
	addi	a5,a5,%lo(CSWTCH.71)
	add	a5,a5,a0
	lw	a0,0(a5)
	ret
.LVL247:
.L176:
.LM855:
	lui	a0,%hi(.LC10)
.LVL248:
.LM856:
	addi	a0,a0,%lo(.LC10)
.LM857:
	ret
	.cfi_endproc
.LFE106:
	.size	wifi_mgmr_status_code_str, .-wifi_mgmr_status_code_str
	.section	.rodata.str1.4,"aMS",@progbits,1
	.align	2
.LC11:
	.string	"Connection OK"
	.align	2
.LC12:
	.string	"tx auth frame alloc failure"
	.align	2
.LC13:
	.string	"Authentication failure"
	.align	2
.LC14:
	.string	"Auth response but auth algo failure"
	.align	2
.LC15:
	.string	"tx assoc frame alloc failure"
	.align	2
.LC16:
	.string	"Association failure"
	.align	2
.LC17:
	.string	"deauth by AP but state error"
	.align	2
.LC18:
	.string	"deauth by AP when connecting"
	.align	2
.LC19:
	.string	"Passwd error, 4-way handshake timeout"
	.align	2
.LC20:
	.string	"Passwd error, tx deauth frame transmit failure"
	.align	2
.LC21:
	.string	"Passwd error, tx deauth frame allocate failure"
	.align	2
.LC22:
	.string	"tx auth or associate frame transmit failure"
	.align	2
.LC23:
	.string	"SSID error, scan no bssid and channel"
	.align	2
.LC24:
	.string	"create channel context failure when join network"
	.align	2
.LC25:
	.string	"join network failure"
	.align	2
.LC26:
	.string	"add sta failure"
	.align	2
.LC27:
	.string	"Beacon Loss"
	.section	.rodata.CSWTCH.71,"a"
	.align	2
	.type	CSWTCH.71, @object
	.size	CSWTCH.71, 68
CSWTCH.71:
	.word	.LC11
	.word	.LC12
	.word	.LC13
	.word	.LC14
	.word	.LC15
	.word	.LC16
	.word	.LC17
	.word	.LC18
	.word	.LC19
	.word	.LC20
	.word	.LC21
	.word	.LC22
	.word	.LC23
	.word	.LC24
	.word	.LC25
	.word	.LC26
	.word	.LC27
	.section	.rodata.__func__.0,"a"
	.align	2
	.type	__func__.0, @object
	.size	__func__.0, 27
__func__.0:
	.string	"wifi_mgmr_set_country_code"
	.section	.rodata.__func__.1,"a"
	.align	2
	.type	__func__.1, @object
	.size	__func__.1, 33
__func__.1:
	.string	"wifi_mgmr_scan_complete_callback"
	.section	.sbss.done.2,"aw",@nobits
	.align	2
	.type	done.2, @object
	.size	done.2, 4
done.2:
	.zero	4
	.section	.sbss.scan_data,"aw",@nobits
	.align	2
	.type	scan_data, @object
	.size	scan_data, 4
scan_data:
	.zero	4
	.section	.sbss.scan_cb,"aw",@nobits
	.align	2
	.type	scan_cb, @object
	.size	scan_cb, 4
scan_cb:
	.zero	4
	.globl	scan_sig
	.section	.sbss.scan_sig,"aw",@nobits
	.align	2
	.type	scan_sig, @object
	.size	scan_sig, 4
scan_sig:
	.zero	4
	.text
.Letext0:
	.section	.note.GNU-stack,"",@progbits
