	.file	"wifi_mgmr_profile.c"
	.option nopic
	.attribute arch, "rv32i2p1_m2p0_f2p2_c2p0_zicsr2p0_zmmul1p0_zca1p0_zcf1p0"
	.attribute unaligned_access, 0
	.attribute stack_align, 16
	.text
.Ltext0:
	.cfi_sections	.debug_frame
	.section	.rodata.wifi_mgmr_profile_add.str1.4,"aMS",@progbits,1
	.align	2
.LC0:
	.string	"[WF][PF] Using free profile, idx is @%d\r\n"
	.section	.text.wifi_mgmr_profile_add,"ax",@progbits
	.align	1
	.globl	wifi_mgmr_profile_add
	.type	wifi_mgmr_profile_add, @function
wifi_mgmr_profile_add:
.LVL0:
.LFB52:
.LM1:
	.cfi_startproc
.LM2:
.LM3:
.LM4:
.LM5:
.LM6:
	addi	sp,sp,-16
	.cfi_def_cfa_offset 16
	sw	s1,4(sp)
	sw	ra,12(sp)
	sw	s0,8(sp)
	.cfi_offset 9, -12
	.cfi_offset 1, -4
	.cfi_offset 8, -8
.LM7:
	li	a5,-1
.LM8:
	mv	s1,a1
.LM9:
	beq	a2,a5,.L2
.LVL1:
.LM10:
.LM11:
.LM12:
	lbu	a4,449(a0)
	beq	a4,zero,.L6
.LM13:
.LVL2:
.LM14:
.LM15:
.LM16:
	lbu	a4,645(a0)
	beq	a4,zero,.L7
.LM17:
	mv	a0,a5
.LVL3:
.L1:
.LM18:
	lw	ra,12(sp)
	.cfi_remember_state
	.cfi_restore 1
	lw	s0,8(sp)
	.cfi_restore 8
	lw	s1,4(sp)
	.cfi_restore 9
.LVL4:
.LM19:
	addi	sp,sp,16
	.cfi_def_cfa_offset 0
	jr	ra
.LVL5:
.L2:
	.cfi_restore_state
.LM20:
.LM21:
	addi	s0,a0,256
.LVL6:
.LM22:
.L5:
.LM23:
	li	a2,196
	li	a1,0
	mv	a0,s0
	call	memset
.LVL7:
.LM24:
.LM25:
.LM26:
	li	a5,256
	sh	a5,192(s0)
.LM27:
.LM28:
	lbu	a5,34(s1)
	lbu	a4,33(s1)
.LM29:
	li	a2,33
.LM30:
	slli	a5,a5,8
	or	a5,a5,a4
	lbu	a4,35(s1)
.LM31:
	mv	a1,s1
	mv	a0,s0
.LM32:
	slli	a4,a4,16
	or	a4,a4,a5
	lbu	a5,36(s1)
	slli	a5,a5,24
	or	a5,a5,a4
.LM33:
	sw	a5,36(s0)
.LM34:
.LM35:
	lbu	a5,168(s1)
	lbu	a4,167(s1)
	slli	a5,a5,8
	or	a5,a5,a4
	lbu	a4,169(s1)
	slli	a4,a4,16
	or	a4,a4,a5
	lbu	a5,170(s1)
	slli	a5,a5,24
	or	a5,a5,a4
.LM36:
	sw	a5,108(s0)
.LM37:
.LM38:
	lbu	a5,172(s1)
	lbu	a4,171(s1)
	slli	a5,a5,8
	or	a5,a5,a4
	lbu	a4,173(s1)
	slli	a4,a4,16
	or	a4,a4,a5
	lbu	a5,174(s1)
	slli	a5,a5,24
	or	a5,a5,a4
.LM39:
	sw	a5,180(s0)
.LM40:
.LM41:
	li	a5,-1
	sb	a5,191(s0)
.LM42:
	call	memcpy
.LVL8:
.LM43:
	li	a2,65
	addi	a1,s1,37
	addi	a0,s0,40
	call	memcpy
.LVL9:
.LM44:
	li	a2,65
	addi	a1,s1,102
	addi	a0,s0,112
	call	memcpy
.LVL10:
.LM45:
	li	a2,6
	addi	a1,s1,175
	addi	a0,s0,184
	call	memcpy
.LVL11:
.LM46:
.LM47:
	lbu	a5,184(s1)
.LM48:
	li	a0,0
.LM49:
	sb	a5,190(s0)
.LM50:
.LVL12:
.LM51:
	j	.L1
.LVL13:
.L6:
.LM52:
	li	a1,0
.LVL14:
.L3:
.LM53:
.LM54:
	neg	s0,a1
	andi	s0,s0,196
	addi	s0,s0,256
	add	s0,a0,s0
.LVL15:
.LM55:
.LM56:
	sw	a1,648(a0)
.LM57:
	lui	a0,%hi(.LC0)
.LVL16:
.LM58:
	addi	a0,a0,%lo(.LC0)
	call	printf
.LVL17:
.LM59:
.LM60:
	j	.L5
.LVL18:
.L7:
.LM61:
	li	a1,1
	j	.L3
	.cfi_endproc
.LFE52:
	.size	wifi_mgmr_profile_add, .-wifi_mgmr_profile_add
	.section	.rodata.wifi_mgmr_profile_del.str1.4,"aMS",@progbits,1
	.align	2
.LC1:
	.string	"[WF][PF] Free profile, idx is @%d\r\n"
	.section	.text.wifi_mgmr_profile_del,"ax",@progbits
	.align	1
	.globl	wifi_mgmr_profile_del
	.type	wifi_mgmr_profile_del, @function
wifi_mgmr_profile_del:
.LVL19:
.LFB53:
.LM62:
	.cfi_startproc
.LM63:
.LM64:
.LM65:
.LM66:
.LM67:
.LM68:
	addi	sp,sp,-48
	.cfi_def_cfa_offset 48
	sw	s0,40(sp)
	sw	s2,32(sp)
	sw	s3,28(sp)
	sw	s4,24(sp)
	sw	s5,20(sp)
	sw	ra,44(sp)
	sw	s1,36(sp)
	.cfi_offset 8, -8
	.cfi_offset 18, -16
	.cfi_offset 19, -20
	.cfi_offset 20, -24
	.cfi_offset 21, -28
	.cfi_offset 1, -4
	.cfi_offset 9, -12
.LM69:
	mv	s3,a0
	addi	s0,a0,256
.LM70:
	li	s2,0
.LM71:
	li	s5,1
.LM72:
	li	s4,2
.LVL20:
.L13:
.LM73:
.LM74:
	lbu	a5,193(s0)
	bne	a5,s5,.L10
.LM75:
	lw	a5,36(s0)
	bne	a5,a2,.L10
.LM76:
	mv	a0,s0
	sw	a2,12(sp)
	sw	a1,8(sp)
	call	memcmp
.LVL21:
.LM77:
	lw	a1,8(sp)
	lw	a2,12(sp)
.LM78:
	mv	s1,a0
.LM79:
	bne	a0,zero,.L10
.LM80:
.LVL22:
.LM81:
.LM82:
	lw	a5,648(s3)
	bne	a5,s2,.L11
.LM83:
.LM84:
	li	a5,-1
	sw	a5,648(s3)
.L11:
.LM85:
	lui	a0,%hi(.LC1)
	mv	a1,s2
	addi	a0,a0,%lo(.LC1)
	call	printf
.LVL23:
.LM86:
.LM87:
.LM88:
	li	a2,196
	li	a1,0
	mv	a0,s0
	call	memset
.LVL24:
.LM89:
.L9:
.LM90:
	lw	ra,44(sp)
	.cfi_remember_state
	.cfi_restore 1
	lw	s0,40(sp)
	.cfi_restore 8
	lw	s2,32(sp)
	.cfi_restore 18
	lw	s3,28(sp)
	.cfi_restore 19
.LVL25:
.LM91:
	lw	s4,24(sp)
	.cfi_restore 20
	lw	s5,20(sp)
	.cfi_restore 21
	mv	a0,s1
	lw	s1,36(sp)
	.cfi_restore 9
	addi	sp,sp,48
	.cfi_def_cfa_offset 0
	jr	ra
.LVL26:
.L10:
	.cfi_restore_state
.LM92:
	addi	a5,s2,1
.LVL27:
.LM93:
	addi	s0,s0,196
	li	s2,1
	bne	a5,s4,.L13
.LM94:
	li	s1,-1
.LVL28:
.LM95:
	j	.L9
	.cfi_endproc
.LFE53:
	.size	wifi_mgmr_profile_del, .-wifi_mgmr_profile_del
	.section	.rodata.wifi_mgmr_profile_get.str1.4,"aMS",@progbits,1
	.align	2
.LC2:
	.string	"[WF][PF] Using profile, idx is @%d\r\n"
	.section	.text.wifi_mgmr_profile_get,"ax",@progbits
	.align	1
	.globl	wifi_mgmr_profile_get
	.type	wifi_mgmr_profile_get, @function
wifi_mgmr_profile_get:
.LVL29:
.LFB54:
.LM96:
	.cfi_startproc
.LM97:
.LM98:
.LM99:
.LM100:
.LM101:
.LM102:
.LM103:
	addi	sp,sp,-16
	.cfi_def_cfa_offset 16
	sw	s2,0(sp)
	sw	ra,12(sp)
	sw	s0,8(sp)
	sw	s1,4(sp)
	.cfi_offset 18, -16
	.cfi_offset 1, -4
	.cfi_offset 8, -8
	.cfi_offset 9, -12
.LM104:
	lbu	a4,449(a0)
	li	a5,1
.LM105:
	mv	s2,a0
.LM106:
	beq	a4,a5,.L19
.LM107:
.LVL30:
.LM108:
.LM109:
.LM110:
	lbu	s1,645(a0)
.LM111:
	li	a0,-1
.LVL31:
.LM112:
	bne	s1,a5,.L16
.LVL32:
.L17:
.LM113:
	lui	a0,%hi(.LC2)
	mv	s0,a1
.LM114:
.LVL33:
.LM115:
	addi	a0,a0,%lo(.LC2)
	mv	a1,s1
.LVL34:
.LM116:
	call	printf
.LVL35:
.LM117:
.LM118:
.LM119:
	li	a2,185
	li	a1,0
	mv	a0,s0
	call	memset
.LVL36:
.LM120:
.LM121:
	li	a5,196
	mul	a5,s1,a5
	neg	s1,s1
.LVL37:
.LM122:
	andi	s1,s1,196
.LVL38:
.LM123:
	addi	a1,s1,256
.LM124:
	li	a2,33
	add	a1,s2,a1
	mv	a0,s0
.LM125:
	add	a5,s2,a5
	lw	a4,292(a5)
.LM126:
	srli	a3,a4,8
	sb	a4,33(s0)
	sb	a3,34(s0)
	srli	a3,a4,16
	srli	a4,a4,24
	sb	a3,35(s0)
	sb	a4,36(s0)
.LM127:
.LM128:
	lw	a4,364(a5)
.LM129:
	srli	a3,a4,8
	sb	a4,167(s0)
	sb	a3,168(s0)
	srli	a3,a4,16
	srli	a4,a4,24
	sb	a3,169(s0)
	sb	a4,170(s0)
.LM130:
.LM131:
	lw	a4,436(a5)
.LM132:
	srli	a3,a4,8
	sb	a4,171(s0)
	sb	a3,172(s0)
	srli	a3,a4,16
	srli	a4,a4,24
	sb	a3,173(s0)
	sb	a4,174(s0)
.LM133:
.LM134:
	lbu	a5,446(a5)
.LM135:
	sb	a5,184(s0)
.LM136:
	call	memcpy
.LVL39:
.LM137:
.LM138:
	addi	a1,s1,296
.LM139:
	li	a2,65
	add	a1,s2,a1
	addi	a0,s0,37
	call	memcpy
.LVL40:
.LM140:
.LM141:
	addi	a1,s1,368
.LM142:
	li	a2,65
	add	a1,s2,a1
	addi	a0,s0,102
	call	memcpy
.LVL41:
.LM143:
.LM144:
	addi	a1,s1,440
.LM145:
	li	a2,6
	add	a1,s2,a1
	addi	a0,s0,175
	call	memcpy
.LVL42:
.LM146:
.LM147:
	li	a0,0
.LVL43:
.L16:
.LM148:
	lw	ra,12(sp)
	.cfi_remember_state
	.cfi_restore 1
	lw	s0,8(sp)
	.cfi_restore 8
	lw	s1,4(sp)
	.cfi_restore 9
	lw	s2,0(sp)
	.cfi_restore 18
.LVL44:
.LM149:
	addi	sp,sp,16
	.cfi_def_cfa_offset 0
	jr	ra
.LVL45:
.L19:
	.cfi_restore_state
.LM150:
	li	s1,0
	j	.L17
	.cfi_endproc
.LFE54:
	.size	wifi_mgmr_profile_get, .-wifi_mgmr_profile_get
	.section	.text.__lookup_profile,"ax",@progbits
	.align	1
	.globl	__lookup_profile
	.type	__lookup_profile, @function
__lookup_profile:
.LVL46:
.LFB55:
.LM151:
	.cfi_startproc
.LM152:
.LM153:
.LM154:
	li	a5,-1
	bne	a1,a5,.L23
.LM155:
.LM156:
	addi	a5,a0,256
.LVL47:
.L22:
.LM157:
	mv	a0,a5
.LVL48:
.LM158:
	ret
.LVL49:
.L23:
.LM159:
.LM160:
	li	a4,1
.LM161:
	li	a5,0
.LM162:
	bgtu	a1,a4,.L22
.LM163:
.LM164:
	li	a5,196
	mul	a1,a1,a5
.LVL50:
.LM165:
	addi	a1,a1,256
	add	a5,a0,a1
.LVL51:
.LM166:
	j	.L22
	.cfi_endproc
.LFE55:
	.size	__lookup_profile, .-__lookup_profile
	.section	.text.wifi_mgmr_profile_autoreconnect_is_enabled,"ax",@progbits
	.align	1
	.globl	wifi_mgmr_profile_autoreconnect_is_enabled
	.type	wifi_mgmr_profile_autoreconnect_is_enabled, @function
wifi_mgmr_profile_autoreconnect_is_enabled:
.LVL52:
.LFB56:
.LM167:
	.cfi_startproc
.LM168:
.LM169:
	li	a5,4096
	add	a0,a0,a5
.LVL53:
.LM170:
	lbu	a0,2001(a0)
.LVL54:
.LM171:
	seqz	a0,a0
	ret
	.cfi_endproc
.LFE56:
	.size	wifi_mgmr_profile_autoreconnect_is_enabled, .-wifi_mgmr_profile_autoreconnect_is_enabled
	.section	.text.wifi_mgmr_profile_autoreconnect_disable,"ax",@progbits
	.align	1
	.globl	wifi_mgmr_profile_autoreconnect_disable
	.type	wifi_mgmr_profile_autoreconnect_disable, @function
wifi_mgmr_profile_autoreconnect_disable:
.LVL55:
.LFB57:
.LM172:
	.cfi_startproc
.LM173:
.LM174:
	li	a5,4096
	add	a0,a0,a5
.LVL56:
.LM175:
	li	a5,1
	sb	a5,2001(a0)
.LM176:
.LM177:
	li	a0,0
.LVL57:
.LM178:
	ret
	.cfi_endproc
.LFE57:
	.size	wifi_mgmr_profile_autoreconnect_disable, .-wifi_mgmr_profile_autoreconnect_disable
	.section	.text.wifi_mgmr_profile_autoreconnect_enable,"ax",@progbits
	.align	1
	.globl	wifi_mgmr_profile_autoreconnect_enable
	.type	wifi_mgmr_profile_autoreconnect_enable, @function
wifi_mgmr_profile_autoreconnect_enable:
.LVL58:
.LFB58:
.LM179:
	.cfi_startproc
.LM180:
.LM181:
	li	a5,4096
	add	a0,a0,a5
.LVL59:
.LM182:
	sb	zero,2001(a0)
.LM183:
.LM184:
	li	a0,0
.LVL60:
.LM185:
	ret
	.cfi_endproc
.LFE58:
	.size	wifi_mgmr_profile_autoreconnect_enable, .-wifi_mgmr_profile_autoreconnect_enable
	.text
.Letext0:
	.section	.note.GNU-stack,"",@progbits
