	.file	"wifi.c"
	.option nopic
	.attribute arch, "rv32i2p1_m2p0_f2p2_c2p0_zicsr2p0_zmmul1p0_zca1p0_zcf1p0"
	.attribute unaligned_access, 0
	.attribute stack_align, 16
	.text
.Ltext0:
	.cfi_sections	.debug_frame
	.section	.rodata.netif_status_callback.str1.4,"aMS",@progbits,1
	.align	2
.LC0:
	.string	"[lwip] netif status callback\r\n  IP: %s\r\n"
	.align	2
.LC1:
	.string	"  MK: %s\r\n"
	.align	2
.LC2:
	.string	"  GW: %s\r\n"
	.align	2
.LC3:
	.string	" SKIP Notify for set Empty Address\r\n"
	.section	.text.netif_status_callback,"ax",@progbits
	.align	1
	.type	netif_status_callback, @function
netif_status_callback:
.LVL0:
.LFB99:
.LM1:
	.cfi_startproc
.LM2:
.LM3:
	addi	sp,sp,-32
	.cfi_def_cfa_offset 32
	sw	s0,24(sp)
	.cfi_offset 8, -8
	mv	s0,a0
.LM4:
	addi	a0,a0,4
.LVL1:
.LM5:
	sw	ra,28(sp)
	sw	s1,20(sp)
	.cfi_offset 1, -4
	.cfi_offset 9, -12
.LM6:
	call	ip4addr_ntoa
.LVL2:
	mv	a1,a0
.LM7:
	lui	a0,%hi(.LC0)
	addi	a0,a0,%lo(.LC0)
	call	printf
.LVL3:
.LM8:
	addi	a0,s0,8
	call	ip4addr_ntoa
.LVL4:
	mv	a1,a0
.LM9:
	lui	a0,%hi(.LC1)
	addi	a0,a0,%lo(.LC1)
	call	printf
.LVL5:
.LM10:
	addi	a0,s0,12
	call	ip4addr_ntoa
.LVL6:
	mv	a1,a0
.LM11:
	lui	a0,%hi(.LC2)
	addi	a0,a0,%lo(.LC2)
	call	printf
.LVL7:
.LM12:
.LM13:
	lw	a5,4(s0)
	bne	a5,zero,.L2
.LM14:
.LM15:
	lw	s0,24(sp)
	.cfi_remember_state
	.cfi_restore 8
.LVL8:
.LM16:
	lw	ra,28(sp)
	.cfi_restore 1
	lw	s1,20(sp)
	.cfi_restore 9
.LM17:
	lui	a0,%hi(.LC3)
.LM18:
.LM19:
	addi	a0,a0,%lo(.LC3)
.LM20:
	addi	sp,sp,32
	.cfi_def_cfa_offset 0
.LM21:
	tail	printf
.LVL9:
.L2:
	.cfi_restore_state
.LM22:
	call	wifi_mgmr_api_ip_update
.LVL10:
.LM23:
.LM24:
	lw	a1,8(s0)
.LM25:
	lw	a2,12(s0)
.LM26:
	lw	a5,4(s0)
.LM27:
	li	a0,0
.LM28:
	sw	a1,12(sp)
.LM29:
	mv	s1,a5
.LM30:
	sw	a2,8(sp)
.LM31:
	call	dns_getserver
.LVL11:
.LM32:
	lw	a3,0(a0)
.LM33:
	li	a0,1
.LM34:
	sw	a3,4(sp)
.LM35:
	call	dns_getserver
.LVL12:
.LM36:
	lw	s0,24(sp)
	.cfi_restore 8
.LVL13:
.LM37:
	lw	a4,0(a0)
	lw	a3,4(sp)
	lw	a2,8(sp)
	lw	a1,12(sp)
.LM38:
	lw	ra,28(sp)
	.cfi_restore 1
.LM39:
	mv	a0,s1
.LM40:
	lw	s1,20(sp)
	.cfi_restore 9
	addi	sp,sp,32
	.cfi_def_cfa_offset 0
.LM41:
	tail	wifi_mgmr_api_ip_got
.LVL14:
	.cfi_endproc
.LFE99:
	.size	netif_status_callback, .-netif_status_callback
	.section	.rodata.wifi_tx.str1.4,"aMS",@progbits,1
	.align	2
.LC4:
	.string	"[TX] %s, TX size too big: %u bytes\r\n"
	.section	.text.wifi_tx,"ax",@progbits
	.align	1
	.type	wifi_tx, @function
wifi_tx:
.LVL15:
.LFB98:
.LM42:
	.cfi_startproc
.LM43:
.LM44:
.LM45:
.LM46:
.LM47:
	addi	sp,sp,-32
	.cfi_def_cfa_offset 32
	sw	ra,28(sp)
	sw	s0,24(sp)
	.cfi_offset 1, -4
	.cfi_offset 8, -8
.LM48:
	lhu	a3,8(a1)
	li	a4,1514
.LM49:
	mv	a2,a1
	mv	a5,a1
.LM50:
	bleu	a3,a4,.L5
	sw	a1,12(sp)
.LVL16:
.LBB4:
.LBI4:
.LM51:
.LBB5:
.LM52:
.LM53:
	lui	s0,%hi(ticks.1)
.LM54:
	call	xTaskGetTickCount
.LVL17:
.LM55:
	lw	a5,%lo(ticks.1)(s0)
.LM56:
	lw	a2,12(sp)
.LM57:
	sub	a0,a0,a5
.LM58:
	li	a5,2000
	bleu	a0,a5,.L6
.LM59:
	lhu	a2,8(a2)
	lui	a1,%hi(__func__.0)
	lui	a0,%hi(.LC4)
	addi	a1,a1,%lo(__func__.0)
	addi	a0,a0,%lo(.LC4)
	call	printf
.LVL18:
.LM60:
.LM61:
	call	xTaskGetTickCount
.LVL19:
.LM62:
	sw	a0,%lo(ticks.1)(s0)
.L6:
.LBE5:
.LBE4:
.LM63:
	li	a0,-12
.LVL20:
.L7:
.LM64:
	lw	ra,28(sp)
	.cfi_remember_state
	.cfi_restore 1
	lw	s0,24(sp)
	.cfi_restore 8
	addi	sp,sp,32
	.cfi_def_cfa_offset 0
	jr	ra
.LVL21:
.L8:
	.cfi_restore_state
.LM65:
.LM66:
	lw	a5,0(a5)
.LVL22:
.L5:
.LM67:
	bne	a5,zero,.L8
.LM68:
.LVL23:
.LM69:
	lw	a3,-32(a0)
	lui	a5,%hi(bl606a0_sta)
.LVL24:
.LM70:
	mv	a1,a0
.LVL25:
.LM71:
	lw	a0,%lo(bl606a0_sta)(a5)
.LVL26:
.LM72:
	seqz	a3,a3
	call	bl_output
.LVL27:
.LM73:
.LM74:
	li	a0,0
	j	.L7
	.cfi_endproc
.LFE98:
	.size	wifi_tx, .-wifi_tx
	.section	.rodata.bl606a0_wifi_netif_init.str1.4,"aMS",@progbits,1
	.align	2
.LC5:
	.string	"bl606a0"
	.section	.text.bl606a0_wifi_netif_init,"ax",@progbits
	.align	1
	.globl	bl606a0_wifi_netif_init
	.type	bl606a0_wifi_netif_init, @function
bl606a0_wifi_netif_init:
.LVL28:
.LFB100:
.LM75:
	.cfi_startproc
.LM76:
.LM77:
	addi	sp,sp,-16
	.cfi_def_cfa_offset 16
.LM78:
	lui	a5,%hi(.LC5)
.LM79:
	sw	ra,12(sp)
	.cfi_offset 1, -4
.LM80:
	addi	a5,a5,%lo(.LC5)
	sw	a5,56(a0)
.LM81:
.LM82:
.LM83:
	li	a5,1500
	sh	a5,60(a0)
.LM84:
.LM85:
	li	a5,4096
	addi	a5,a5,-1530
	sh	a5,68(a0)
.LM86:
.LM87:
	lui	a5,%hi(etharp_output)
	addi	a5,a5,%lo(etharp_output)
	sw	a5,20(a0)
.LM88:
.LM89:
	lui	a5,%hi(wifi_tx)
	addi	a5,a5,%lo(wifi_tx)
.LM90:
	lui	a1,%hi(netif_status_callback)
.LM91:
	sw	a5,24(a0)
.LM92:
	addi	a1,a1,%lo(netif_status_callback)
	call	netif_set_status_callback
.LVL29:
.LM93:
.LM94:
	lw	ra,12(sp)
	.cfi_restore 1
	li	a0,0
	addi	sp,sp,16
	.cfi_def_cfa_offset 0
	jr	ra
	.cfi_endproc
.LFE100:
	.size	bl606a0_wifi_netif_init, .-bl606a0_wifi_netif_init
	.section	.rodata.bl606a0_wifi_init.str1.4,"aMS",@progbits,1
	.align	2
.LC6:
	.string	"\r\n\r\n[BL] Initi Wi-Fi"
	.align	2
.LC7:
	.string	" with MAC #### %02X:%02X:%02X:%02X:%02X:%02X ####\r\n"
	.align	2
.LC8:
	.string	"-----------------------------------------------------\r\n"
	.section	.text.bl606a0_wifi_init,"ax",@progbits
	.align	1
	.globl	bl606a0_wifi_init
	.type	bl606a0_wifi_init, @function
bl606a0_wifi_init:
.LVL30:
.LFB101:
.LM95:
	.cfi_startproc
.LM96:
.LM97:
.LM98:
.LM99:
	addi	sp,sp,-32
	.cfi_def_cfa_offset 32
	sw	s0,24(sp)
	.cfi_offset 8, -8
	mv	s0,a0
.LM100:
	lui	a0,%hi(.LC6)
.LVL31:
.LM101:
	addi	a0,a0,%lo(.LC6)
.LM102:
	sw	ra,28(sp)
	.cfi_offset 1, -4
.LM103:
	call	printf
.LVL32:
.LM104:
	li	a2,6
	li	a1,0
	addi	a0,sp,8
	call	memset
.LVL33:
.LM105:
	addi	a0,sp,8
	call	bl_wifi_mac_addr_get
.LVL34:
.LM106:
	lbu	a6,13(sp)
	lbu	a5,12(sp)
	lbu	a4,11(sp)
	lbu	a3,10(sp)
	lbu	a2,9(sp)
	lbu	a1,8(sp)
	lui	a0,%hi(.LC7)
	addi	a0,a0,%lo(.LC7)
	call	printf
.LVL35:
.LM107:
	mv	a0,s0
	call	bl_msg_update_channel_cfg
.LVL36:
.LM108:
	lui	a0,%hi(.LC8)
	addi	a0,a0,%lo(.LC8)
	call	printf
.LVL37:
.LM109:
	call	bl_wifi_clock_enable
.LVL38:
.LM110:
	lui	s0,%hi(bl606a0_sta)
.LVL39:
.LM111:
	li	a2,4
	li	a1,0
	addi	a0,s0,%lo(bl606a0_sta)
	call	memset
.LVL40:
.LM112:
.LM113:
	addi	a0,s0,%lo(bl606a0_sta)
	call	bl_main_rtthread_start
.LVL41:
.LM114:
.LM115:
	lw	ra,28(sp)
	.cfi_restore 1
	lw	s0,24(sp)
	.cfi_restore 8
	addi	sp,sp,32
	.cfi_def_cfa_offset 0
	jr	ra
	.cfi_endproc
.LFE101:
	.size	bl606a0_wifi_init, .-bl606a0_wifi_init
	.section	.srodata.__func__.0,"a"
	.align	2
	.type	__func__.0, @object
	.size	__func__.0, 8
__func__.0:
	.string	"wifi_tx"
	.section	.sbss.ticks.1,"aw",@nobits
	.align	2
	.type	ticks.1, @object
	.size	ticks.1, 4
ticks.1:
	.zero	4
	.section	.sbss.bl606a0_sta,"aw",@nobits
	.align	2
	.type	bl606a0_sta, @object
	.size	bl606a0_sta, 4
bl606a0_sta:
	.zero	4
	.text
.Letext0:
	.section	.note.GNU-stack,"",@progbits
