	.file	"loopset_led.c"
	.option nopic
	.attribute arch, "rv32i2p1_m2p0_f2p2_c2p0_zicsr2p0_zmmul1p0_zca1p0_zcf1p0"
	.attribute unaligned_access, 0
	.attribute stack_align, 16
	.text
.Ltext0:
	.cfi_sections	.debug_frame
	.file 0 "/home/chandu/sdk/bl602_iot_sdk/customer_app/suas_app_pqkem_gateway/build_out/loopset" "/home/chandu/sdk/bl602_iot_sdk/components/sys/bloop/loopset/src/loopset_led.c"
	.section	.text.__utils_dlist_add,"ax",@progbits
	.align	1
	.type	__utils_dlist_add, @function
__utils_dlist_add:
.LFB9:
	.file 1 "/home/chandu/sdk/bl602_iot_sdk/components/utils/include/utils_list.h"
	.loc 1 286 1
	.cfi_startproc
	addi	sp,sp,-32
	.cfi_def_cfa_offset 32
	sw	ra,28(sp)
	sw	s0,24(sp)
	.cfi_offset 1, -4
	.cfi_offset 8, -8
	addi	s0,sp,32
	.cfi_def_cfa 8, 0
	sw	a0,-20(s0)
	sw	a1,-24(s0)
	sw	a2,-28(s0)
	.loc 1 287 16
	lw	a5,-20(s0)
	lw	a4,-28(s0)
	sw	a4,4(a5)
	.loc 1 288 16
	lw	a5,-20(s0)
	lw	a4,-24(s0)
	sw	a4,0(a5)
	.loc 1 290 16
	lw	a5,-24(s0)
	lw	a4,-20(s0)
	sw	a4,4(a5)
	.loc 1 291 16
	lw	a5,-28(s0)
	lw	a4,-20(s0)
	sw	a4,0(a5)
	.loc 1 292 1
	nop
	lw	ra,28(sp)
	.cfi_restore 1
	lw	s0,24(sp)
	.cfi_restore 8
	.cfi_def_cfa 2, 32
	addi	sp,sp,32
	.cfi_def_cfa_offset 0
	jr	ra
	.cfi_endproc
.LFE9:
	.size	__utils_dlist_add, .-__utils_dlist_add
	.section	.text.utils_dlist_add,"ax",@progbits
	.align	1
	.type	utils_dlist_add, @function
utils_dlist_add:
.LFB10:
	.loc 1 306 1
	.cfi_startproc
	addi	sp,sp,-32
	.cfi_def_cfa_offset 32
	sw	ra,28(sp)
	sw	s0,24(sp)
	.cfi_offset 1, -4
	.cfi_offset 8, -8
	addi	s0,sp,32
	.cfi_def_cfa 8, 0
	sw	a0,-20(s0)
	sw	a1,-24(s0)
	.loc 1 307 41
	lw	a5,-24(s0)
	lw	a5,4(a5)
	.loc 1 307 5
	mv	a2,a5
	lw	a1,-24(s0)
	lw	a0,-20(s0)
	call	__utils_dlist_add
	.loc 1 308 1
	nop
	lw	ra,28(sp)
	.cfi_restore 1
	lw	s0,24(sp)
	.cfi_restore 8
	.cfi_def_cfa 2, 32
	addi	sp,sp,32
	.cfi_def_cfa_offset 0
	jr	ra
	.cfi_endproc
.LFE10:
	.size	utils_dlist_add, .-utils_dlist_add
	.section	.text.utils_dlist_del,"ax",@progbits
	.align	1
	.type	utils_dlist_del, @function
utils_dlist_del:
.LFB12:
	.loc 1 316 1
	.cfi_startproc
	addi	sp,sp,-48
	.cfi_def_cfa_offset 48
	sw	ra,44(sp)
	sw	s0,40(sp)
	.cfi_offset 1, -4
	.cfi_offset 8, -8
	addi	s0,sp,48
	.cfi_def_cfa 8, 0
	sw	a0,-36(s0)
	.loc 1 317 20
	lw	a5,-36(s0)
	lw	a5,0(a5)
	sw	a5,-20(s0)
	.loc 1 318 20
	lw	a5,-36(s0)
	lw	a5,4(a5)
	sw	a5,-24(s0)
	.loc 1 320 16
	lw	a5,-20(s0)
	lw	a4,-24(s0)
	sw	a4,4(a5)
	.loc 1 321 16
	lw	a5,-24(s0)
	lw	a4,-20(s0)
	sw	a4,0(a5)
	.loc 1 322 1
	nop
	lw	ra,44(sp)
	.cfi_restore 1
	lw	s0,40(sp)
	.cfi_restore 8
	.cfi_def_cfa 2, 48
	addi	sp,sp,48
	.cfi_def_cfa_offset 0
	jr	ra
	.cfi_endproc
.LFE12:
	.size	utils_dlist_del, .-utils_dlist_del
	.section	.text.INIT_UTILS_DLIST_HEAD,"ax",@progbits
	.align	1
	.type	INIT_UTILS_DLIST_HEAD, @function
INIT_UTILS_DLIST_HEAD:
.LFB14:
	.loc 1 330 1
	.cfi_startproc
	addi	sp,sp,-32
	.cfi_def_cfa_offset 32
	sw	ra,28(sp)
	sw	s0,24(sp)
	.cfi_offset 1, -4
	.cfi_offset 8, -8
	addi	s0,sp,32
	.cfi_def_cfa 8, 0
	sw	a0,-20(s0)
	.loc 1 331 16
	lw	a5,-20(s0)
	lw	a4,-20(s0)
	sw	a4,4(a5)
	.loc 1 332 16
	lw	a5,-20(s0)
	lw	a4,-20(s0)
	sw	a4,0(a5)
	.loc 1 333 1
	nop
	lw	ra,28(sp)
	.cfi_restore 1
	lw	s0,24(sp)
	.cfi_restore 8
	.cfi_def_cfa 2, 32
	addi	sp,sp,32
	.cfi_def_cfa_offset 0
	jr	ra
	.cfi_endproc
.LFE14:
	.size	INIT_UTILS_DLIST_HEAD, .-INIT_UTILS_DLIST_HEAD
	.section	.bss.led_ctx,"aw",@nobits
	.align	2
	.type	led_ctx, @object
	.size	led_ctx, 16
led_ctx:
	.zero	16
	.section	.text._waiting_queue_handle,"ax",@progbits
	.align	1
	.type	_waiting_queue_handle, @function
_waiting_queue_handle:
.LFB23:
	.file 2 "/home/chandu/sdk/bl602_iot_sdk/components/sys/bloop/loopset/src/loopset_led.c"
	.loc 2 66 1
	.cfi_startproc
	addi	sp,sp,-48
	.cfi_def_cfa_offset 48
	sw	ra,44(sp)
	sw	s0,40(sp)
	.cfi_offset 1, -4
	.cfi_offset 8, -8
	addi	s0,sp,48
	.cfi_def_cfa 8, 0
	sw	a0,-36(s0)
	.loc 2 70 15
	lw	a5,-36(s0)
	lw	a5,12(a5)
	sw	a5,-24(s0)
	.loc 2 70 174
	lw	a5,-36(s0)
	lw	a5,12(a5)
	.loc 2 70 217
	beq	a5,zero,.L6
	.loc 2 70 204 discriminator 1
	lw	a5,-36(s0)
	lw	a5,12(a5)
	.loc 2 70 151 discriminator 1
	lw	a5,4(a5)
	sw	a5,-20(s0)
	j	.L8
.L6:
	.loc 2 70 151 is_stmt 0 discriminator 2
	sw	zero,-20(s0)
	.loc 2 70 5 is_stmt 1
	j	.L8
.L11:
	.loc 2 76 9
	lw	a5,-24(s0)
	addi	a5,a5,8
	mv	a0,a5
	call	looprt_timer_register
	.loc 2 77 9
	lw	a5,-24(s0)
	mv	a0,a5
	call	utils_dlist_del
	.loc 2 78 9
	lw	a5,-24(s0)
	lw	a4,-36(s0)
	mv	a1,a4
	mv	a0,a5
	call	utils_dlist_add
	.loc 2 70 55 discriminator 7
	lw	a5,-20(s0)
	sw	a5,-24(s0)
	.loc 2 70 185 discriminator 7
	lw	a5,-20(s0)
	beq	a5,zero,.L9
	.loc 2 70 167 discriminator 3
	lw	a5,-20(s0)
	lw	a5,4(a5)
	sw	a5,-20(s0)
	j	.L8
.L9:
	.loc 2 70 167 is_stmt 0 discriminator 4
	sw	zero,-20(s0)
.L8:
	.loc 2 70 6 is_stmt 1 discriminator 6
	lw	a4,-24(s0)
	.loc 2 70 28 discriminator 6
	lw	a5,-36(s0)
	addi	a5,a5,8
	.loc 2 70 24 discriminator 6
	bne	a4,a5,.L11
	.loc 2 80 1
	nop
	nop
	lw	ra,44(sp)
	.cfi_restore 1
	lw	s0,40(sp)
	.cfi_restore 8
	.cfi_def_cfa 2, 48
	addi	sp,sp,48
	.cfi_def_cfa_offset 0
	jr	ra
	.cfi_endproc
.LFE23:
	.size	_waiting_queue_handle, .-_waiting_queue_handle
	.section	.rodata
	.align	2
.LC0:
	.string	"loopset_led.c"
	.align	2
.LC1:
	.string	"[ASSERT] [ERR] %s:%d\r\n"
	.section	.text._led_bloop_evt,"ax",@progbits
	.align	1
	.type	_led_bloop_evt, @function
_led_bloop_evt:
.LFB24:
	.loc 2 83 1
	.cfi_startproc
	addi	sp,sp,-48
	.cfi_def_cfa_offset 48
	sw	ra,44(sp)
	sw	s0,40(sp)
	.cfi_offset 1, -4
	.cfi_offset 8, -8
	addi	s0,sp,48
	.cfi_def_cfa 8, 0
	sw	a0,-36(s0)
	sw	a1,-40(s0)
	sw	a2,-44(s0)
	sw	a3,-48(s0)
	.loc 2 84 14
	lw	a5,-48(s0)
	lw	a5,0(a5)
	sw	a5,-20(s0)
	.loc 2 85 37
	lw	a5,-40(s0)
	sw	a5,-24(s0)
.L13:
	.loc 2 88 13
	lw	a5,-20(s0)
	andi	a5,a5,1
	.loc 2 88 8
	beq	a5,zero,.L14
	.loc 2 89 13
	lw	a5,-20(s0)
	andi	a5,a5,-2
	sw	a5,-20(s0)
	j	.L15
.L14:
	.loc 2 90 20
	lw	a5,-20(s0)
	andi	a5,a5,2
	.loc 2 90 15
	beq	a5,zero,.L16
	.loc 2 91 9
	lw	a5,-24(s0)
	lw	a5,12(a5)
	mv	a0,a5
	call	_waiting_queue_handle
	.loc 2 92 13
	lw	a5,-20(s0)
	andi	a5,a5,-3
	sw	a5,-20(s0)
	j	.L15
.L16:
	.loc 2 94 17
	lw	a5,-20(s0)
	beq	a5,zero,.L15
	.loc 2 94 33 discriminator 1
	li	a2,94
	lui	a5,%hi(.LC0)
	addi	a1,a5,%lo(.LC0)
	lui	a5,%hi(.LC1)
	addi	a0,a5,%lo(.LC1)
	call	printf
.L17:
	.loc 2 94 96
	nop
	j	.L17
.L15:
	.loc 2 97 8
	lw	a5,-20(s0)
	beq	a5,zero,.L18
	.loc 2 98 9
	j	.L13
.L18:
	.loc 2 101 19
	lw	a5,-48(s0)
	sw	zero,0(a5)
	.loc 2 102 12
	li	a5,0
	.loc 2 103 1
	mv	a0,a5
	lw	ra,44(sp)
	.cfi_restore 1
	lw	s0,40(sp)
	.cfi_restore 8
	.cfi_def_cfa 2, 48
	addi	sp,sp,48
	.cfi_def_cfa_offset 0
	jr	ra
	.cfi_endproc
.LFE24:
	.size	_led_bloop_evt, .-_led_bloop_evt
	.section	.text._led_bloop_msg,"ax",@progbits
	.align	1
	.type	_led_bloop_msg, @function
_led_bloop_msg:
.LFB25:
	.loc 2 106 1
	.cfi_startproc
	addi	sp,sp,-32
	.cfi_def_cfa_offset 32
	sw	ra,28(sp)
	sw	s0,24(sp)
	.cfi_offset 1, -4
	.cfi_offset 8, -8
	addi	s0,sp,32
	.cfi_def_cfa 8, 0
	sw	a0,-20(s0)
	sw	a1,-24(s0)
	sw	a2,-28(s0)
	.loc 2 121 12
	li	a5,0
	.loc 2 122 1
	mv	a0,a5
	lw	ra,28(sp)
	.cfi_restore 1
	lw	s0,24(sp)
	.cfi_restore 8
	.cfi_def_cfa 2, 32
	addi	sp,sp,32
	.cfi_def_cfa_offset 0
	jr	ra
	.cfi_endproc
.LFE25:
	.size	_led_bloop_msg, .-_led_bloop_msg
	.section	.text.loopset_led_hook_on_looprt,"ax",@progbits
	.align	1
	.globl	loopset_led_hook_on_looprt
	.type	loopset_led_hook_on_looprt, @function
loopset_led_hook_on_looprt:
.LFB26:
	.loc 2 125 1
	.cfi_startproc
	addi	sp,sp,-16
	.cfi_def_cfa_offset 16
	sw	ra,12(sp)
	sw	s0,8(sp)
	.cfi_offset 1, -4
	.cfi_offset 8, -8
	addi	s0,sp,16
	.cfi_def_cfa 8, 0
	.loc 2 135 5
	lui	a5,%hi(led_ctx)
	addi	a0,a5,%lo(led_ctx)
	call	INIT_UTILS_DLIST_HEAD
	.loc 2 136 5
	lui	a5,%hi(led_ctx+8)
	addi	a0,a5,%lo(led_ctx+8)
	call	INIT_UTILS_DLIST_HEAD
	.loc 2 138 12
	li	a1,1
	lui	a5,%hi(_led_bloop_handler_holder.0)
	addi	a0,a5,%lo(_led_bloop_handler_holder.0)
	call	looprt_handler_register
	mv	a5,a0
	.loc 2 139 1
	mv	a0,a5
	lw	ra,12(sp)
	.cfi_restore 1
	lw	s0,8(sp)
	.cfi_restore 8
	.cfi_def_cfa 2, 16
	addi	sp,sp,16
	.cfi_def_cfa_offset 0
	jr	ra
	.cfi_endproc
.LFE26:
	.size	loopset_led_hook_on_looprt, .-loopset_led_hook_on_looprt
	.section	.text._cb_led_trigger,"ax",@progbits
	.align	1
	.type	_cb_led_trigger, @function
_cb_led_trigger:
.LFB27:
	.loc 2 142 1
	.cfi_startproc
	addi	sp,sp,-48
	.cfi_def_cfa_offset 48
	sw	ra,44(sp)
	sw	s0,40(sp)
	.cfi_offset 1, -4
	.cfi_offset 8, -8
	addi	s0,sp,48
	.cfi_def_cfa 8, 0
	sw	a0,-36(s0)
	sw	a1,-40(s0)
	sw	a2,-44(s0)
	.loc 2 143 30
	lw	a5,-44(s0)
	sw	a5,-20(s0)
	.loc 2 145 31
	lw	a5,-20(s0)
	lw	a5,48(a5)
	.loc 2 145 5
	andi	a4,a5,0xff
	.loc 2 145 45
	lw	a5,-20(s0)
	lw	a5,56(a5)
	.loc 2 145 5
	snez	a5,a5
	andi	a5,a5,0xff
	mv	a1,a5
	mv	a0,a4
	call	bl_gpio_output_set
	.loc 2 150 37
	lw	a5,-20(s0)
	lw	a5,56(a5)
	.loc 2 150 28
	seqz	a5,a5
	andi	a5,a5,0xff
	mv	a4,a5
	.loc 2 150 26
	lw	a5,-20(s0)
	sw	a4,56(a5)
	.loc 2 151 1
	nop
	lw	ra,44(sp)
	.cfi_restore 1
	lw	s0,40(sp)
	.cfi_restore 8
	.cfi_def_cfa 2, 48
	addi	sp,sp,48
	.cfi_def_cfa_offset 0
	jr	ra
	.cfi_endproc
.LFE27:
	.size	_cb_led_trigger, .-_cb_led_trigger
	.section	.rodata
	.align	2
.LC2:
	.string	"\033[35mASSERT\033[0m"
	.align	2
.LC3:
	.string	"[%10u][%s: %s:%4d] ASSERT: %s:%d\r\n"
	.section	.text.loopset_led_trigger,"ax",@progbits
	.align	1
	.globl	loopset_led_trigger
	.type	loopset_led_trigger, @function
loopset_led_trigger:
.LFB28:
	.loc 2 154 1
	.cfi_startproc
	addi	sp,sp,-48
	.cfi_def_cfa_offset 48
	sw	ra,44(sp)
	sw	s0,40(sp)
	.cfi_offset 1, -4
	.cfi_offset 8, -8
	addi	s0,sp,48
	.cfi_def_cfa 8, 0
	sw	a0,-36(s0)
	sw	a1,-40(s0)
	.loc 2 157 15
	li	a0,60
	call	pvPortMalloc
	sw	a0,-20(s0)
	.loc 2 158 13
	lw	a5,-20(s0)
	bne	a5,zero,.L26
.LBB4:
.LBB5:
	.file 3 "/home/chandu/sdk/bl602_iot_sdk/components/freertos/portable/GCC/RISC-V/portmacro.h"
	.loc 3 181 31
	lui	a5,%hi(TrapNetCounter)
	lw	a5,%lo(TrapNetCounter)(a5)
	snez	a5,a5
	andi	a5,a5,0xff
.LBE5:
.LBE4:
	.loc 2 158 35 discriminator 2
	beq	a5,zero,.L28
	.loc 2 158 116 discriminator 3
	call	xTaskGetTickCountFromISR
	mv	a1,a0
	j	.L29
.L28:
	.loc 2 158 145 discriminator 4
	call	xTaskGetTickCount
	mv	a1,a0
.L29:
	.loc 2 158 35 discriminator 8
	li	a6,158
	lui	a5,%hi(.LC0)
	addi	a5,a5,%lo(.LC0)
	li	a4,158
	lui	a3,%hi(.LC0)
	addi	a3,a3,%lo(.LC0)
	lui	a2,%hi(.LC2)
	addi	a2,a2,%lo(.LC2)
	lui	a0,%hi(.LC3)
	addi	a0,a0,%lo(.LC3)
	call	bl_printk
.L30:
	.loc 2 158 260
	nop
	j	.L30
.L26:
	.loc 2 159 5
	li	a2,60
	li	a1,0
	lw	a0,-20(s0)
	call	memset
	.loc 2 160 18
	lw	a5,-20(s0)
	lw	a4,-36(s0)
	sw	a4,48(a5)
	.loc 2 162 5
	lw	a5,-20(s0)
	addi	a5,a5,8
	li	a1,0
	mv	a0,a5
	call	bloop_timer_init
	.loc 2 163 5
	lw	a5,-20(s0)
	addi	a5,a5,8
	mv	a0,a5
	call	bloop_timer_repeat_enable
	.loc 2 164 5
	lw	a5,-20(s0)
	addi	a0,a5,8
	li	a5,1
	li	a4,1
	lw	a3,-20(s0)
	lui	a2,%hi(_cb_led_trigger)
	addi	a2,a2,%lo(_cb_led_trigger)
	lw	a1,-40(s0)
	call	bloop_timer_configure
	.loc 2 170 5
	lw	a5,-36(s0)
	andi	a5,a5,0xff
	li	a2,0
	li	a1,0
	mv	a0,a5
	call	bl_gpio_enable_output
	.loc 2 172 5
	call	vTaskEnterCritical
	.loc 2 173 5
	lw	a4,-20(s0)
	lui	a5,%hi(led_ctx+8)
	addi	a1,a5,%lo(led_ctx+8)
	mv	a0,a4
	call	utils_dlist_add
	.loc 2 174 5
	call	vTaskExitCritical
	.loc 2 176 5
	li	a1,2
	li	a0,1
	call	looprt_evt_notify_async
	.loc 2 177 1
	nop
	lw	ra,44(sp)
	.cfi_restore 1
	lw	s0,40(sp)
	.cfi_restore 8
	.cfi_def_cfa 2, 48
	addi	sp,sp,48
	.cfi_def_cfa_offset 0
	jr	ra
	.cfi_endproc
.LFE28:
	.size	loopset_led_trigger, .-loopset_led_trigger
	.section	.rodata
	.align	2
.LC4:
	.string	"Led Trigger"
	.section	.rodata._led_bloop_handler_holder.0,"a"
	.align	2
	.type	_led_bloop_handler_holder.0, @object
	.size	_led_bloop_handler_holder.0, 16
_led_bloop_handler_holder.0:
	.word	.LC4
	.word	_led_bloop_evt
	.word	_led_bloop_msg
	.word	led_ctx
	.text
.Letext0:
	.file 4 "/home/chandu/sdk/bl602_iot_sdk/toolchain/compiler/lib/gcc/riscv32-unknown-elf/15.1.0/include/stddef.h"
	.file 5 "/home/chandu/sdk/bl602_iot_sdk/toolchain/compiler/lib/gcc/riscv32-unknown-elf/15.1.0/include/stdint-gcc.h"
	.file 6 "/home/chandu/sdk/bl602_iot_sdk/components/freertos/include/task.h"
	.file 7 "/home/chandu/sdk/bl602_iot_sdk/components/sys/bloop/bloop/include/bloop.h"
	.file 8 "/home/chandu/sdk/bl602_iot_sdk/components/sys/bloop/looprt/include/looprt.h"
	.file 9 "/home/chandu/sdk/bl602_iot_sdk/components/hal_drv/bl602_hal/bl_gpio.h"
	.file 10 "/home/chandu/sdk/bl602_iot_sdk/toolchain/compiler/riscv32-unknown-elf/include/string.h"
	.file 11 "/home/chandu/sdk/bl602_iot_sdk/components/utils/include/utils_log.h"
	.file 12 "/home/chandu/sdk/bl602_iot_sdk/components/freertos/include/portable.h"
	.file 13 "/home/chandu/sdk/bl602_iot_sdk/toolchain/compiler/riscv32-unknown-elf/include/stdio.h"
	.section	.note.GNU-stack,"",@progbits
