	.file	"loopset_ir.c"
	.option nopic
	.attribute arch, "rv32i2p1_m2p0_f2p2_c2p0_zicsr2p0_zmmul1p0_zca1p0_zcf1p0"
	.attribute unaligned_access, 0
	.attribute stack_align, 16
	.text
.Ltext0:
	.cfi_sections	.debug_frame
	.file 0 "/home/chandu/sdk/bl602_iot_sdk/customer_app/suas_app_pqkem_gateway/build_out/loopset" "/home/chandu/sdk/bl602_iot_sdk/components/sys/bloop/loopset/src/loopset_ir.c"
	.section	.text._ir_bloop_evt,"ax",@progbits
	.align	1
	.type	_ir_bloop_evt, @function
_ir_bloop_evt:
.LFB25:
	.file 1 "/home/chandu/sdk/bl602_iot_sdk/components/sys/bloop/loopset/src/loopset_ir.c"
	.loc 1 52 1
	.cfi_startproc
	addi	sp,sp,-48
	.cfi_def_cfa_offset 48
	sw	ra,44(sp)
	sw	s0,40(sp)
	.cfi_offset 1, -4
	.cfi_offset 8, -8
	addi	s0,sp,48
	.cfi_def_cfa 8, 0
	sw	a0,-36(s0)
	sw	a1,-40(s0)
	sw	a2,-44(s0)
	sw	a3,-48(s0)
	.loc 1 55 12
	call	bl_receivedata
	sw	a0,-20(s0)
	.loc 1 56 8
	lw	a5,-20(s0)
	bne	a5,zero,.L2
	.loc 1 57 9
	li	a2,0
	li	a1,2
	li	a0,6
	call	aos_post_event
	j	.L3
.L2:
	.loc 1 59 9
	lw	a2,-20(s0)
	li	a1,1
	li	a0,6
	call	aos_post_event
.L3:
	.loc 1 61 5
	call	bl_enable_rx_int
	.loc 1 63 12
	li	a5,0
	.loc 1 64 1
	mv	a0,a5
	lw	ra,44(sp)
	.cfi_restore 1
	lw	s0,40(sp)
	.cfi_restore 8
	.cfi_def_cfa 2, 48
	addi	sp,sp,48
	.cfi_def_cfa_offset 0
	jr	ra
	.cfi_endproc
.LFE25:
	.size	_ir_bloop_evt, .-_ir_bloop_evt
	.section	.text._ir_bloop_msg,"ax",@progbits
	.align	1
	.type	_ir_bloop_msg, @function
_ir_bloop_msg:
.LFB26:
	.loc 1 67 1
	.cfi_startproc
	addi	sp,sp,-32
	.cfi_def_cfa_offset 32
	sw	ra,28(sp)
	sw	s0,24(sp)
	.cfi_offset 1, -4
	.cfi_offset 8, -8
	addi	s0,sp,32
	.cfi_def_cfa 8, 0
	sw	a0,-20(s0)
	sw	a1,-24(s0)
	sw	a2,-28(s0)
	.loc 1 70 12
	li	a5,0
	.loc 1 71 1
	mv	a0,a5
	lw	ra,28(sp)
	.cfi_restore 1
	lw	s0,24(sp)
	.cfi_restore 8
	.cfi_def_cfa 2, 32
	addi	sp,sp,32
	.cfi_def_cfa_offset 0
	jr	ra
	.cfi_endproc
.LFE26:
	.size	_ir_bloop_msg, .-_ir_bloop_msg
	.section	.text.loopset_ir_hook_on_looprt,"ax",@progbits
	.align	1
	.globl	loopset_ir_hook_on_looprt
	.type	loopset_ir_hook_on_looprt, @function
loopset_ir_hook_on_looprt:
.LFB27:
	.loc 1 74 1
	.cfi_startproc
	addi	sp,sp,-16
	.cfi_def_cfa_offset 16
	sw	ra,12(sp)
	sw	s0,8(sp)
	.cfi_offset 1, -4
	.cfi_offset 8, -8
	addi	s0,sp,16
	.cfi_def_cfa 8, 0
	.loc 1 84 12
	li	a1,3
	lui	a5,%hi(_ir_bloop_handler_holder.0)
	addi	a0,a5,%lo(_ir_bloop_handler_holder.0)
	call	looprt_handler_register
	mv	a5,a0
	.loc 1 85 1
	mv	a0,a5
	lw	ra,12(sp)
	.cfi_restore 1
	lw	s0,8(sp)
	.cfi_restore 8
	.cfi_def_cfa 2, 16
	addi	sp,sp,16
	.cfi_def_cfa_offset 0
	jr	ra
	.cfi_endproc
.LFE27:
	.size	loopset_ir_hook_on_looprt, .-loopset_ir_hook_on_looprt
	.section	.text.ir_async_post,"ax",@progbits
	.align	1
	.globl	ir_async_post
	.type	ir_async_post, @function
ir_async_post:
.LFB28:
	.loc 1 88 1
	.cfi_startproc
	addi	sp,sp,-16
	.cfi_def_cfa_offset 16
	sw	ra,12(sp)
	sw	s0,8(sp)
	.cfi_offset 1, -4
	.cfi_offset 8, -8
	addi	s0,sp,16
	.cfi_def_cfa 8, 0
	.loc 1 89 5
	li	a1,1
	li	a0,3
	call	looprt_evt_notify_async_fromISR
	.loc 1 91 5
	nop
	.loc 1 92 1
	lw	ra,12(sp)
	.cfi_restore 1
	lw	s0,8(sp)
	.cfi_restore 8
	.cfi_def_cfa 2, 16
	addi	sp,sp,16
	.cfi_def_cfa_offset 0
	jr	ra
	.cfi_endproc
.LFE28:
	.size	ir_async_post, .-ir_async_post
	.section	.rodata
	.align	2
.LC0:
	.string	"IR Trigger"
	.section	.rodata._ir_bloop_handler_holder.0,"a"
	.align	2
	.type	_ir_bloop_handler_holder.0, @object
	.size	_ir_bloop_handler_holder.0, 12
_ir_bloop_handler_holder.0:
	.word	.LC0
	.word	_ir_bloop_evt
	.word	_ir_bloop_msg
	.text
.Letext0:
	.file 2 "/home/chandu/sdk/bl602_iot_sdk/toolchain/compiler/lib/gcc/riscv32-unknown-elf/15.1.0/include/stdint-gcc.h"
	.file 3 "/home/chandu/sdk/bl602_iot_sdk/components/freertos/include/task.h"
	.file 4 "/home/chandu/sdk/bl602_iot_sdk/components/utils/include/utils_list.h"
	.file 5 "/home/chandu/sdk/bl602_iot_sdk/components/sys/bloop/bloop/include/bloop.h"
	.file 6 "/home/chandu/sdk/bl602_iot_sdk/components/sys/bloop/looprt/include/looprt.h"
	.file 7 "/home/chandu/sdk/bl602_iot_sdk/components/stage/yloop/include/aos/yloop.h"
	.file 8 "/home/chandu/sdk/bl602_iot_sdk/components/hal_drv/bl602_hal/bl_ir.h"
	.section	.note.GNU-stack,"",@progbits
