	.file	"altcp_tls_mbedtls.c"
	.option nopic
	.attribute arch, "rv32i2p1_m2p0_f2p2_c2p0_zicsr2p0_zmmul1p0_zca1p0_zcf1p0"
	.attribute unaligned_access, 0
	.attribute stack_align, 16
	.text
.Ltext0:
	.cfi_sections	.debug_frame
	.file 0 "/home/chandu/sdk/bl602_iot_sdk/customer_app/suas_app_pqkem_gateway/build_out/lwip" "/home/chandu/sdk/bl602_iot_sdk/components/network/lwip/src/apps/altcp_tls/altcp_tls_mbedtls.c"
	.section	.sbss.altcp_tls_entropy_rng,"aw",@nobits
	.align	2
	.type	altcp_tls_entropy_rng, @object
	.size	altcp_tls_entropy_rng, 4
altcp_tls_entropy_rng:
	.zero	4
	.section	.text.altcp_mbedtls_flush_output,"ax",@progbits
	.align	1
	.type	altcp_mbedtls_flush_output, @function
altcp_mbedtls_flush_output:
.LFB90:
	.file 1 "/home/chandu/sdk/bl602_iot_sdk/components/network/lwip/src/apps/altcp_tls/altcp_tls_mbedtls.c"
	.loc 1 134 1
	.cfi_startproc
	addi	sp,sp,-48
	.cfi_def_cfa_offset 48
	sw	ra,44(sp)
	sw	s0,40(sp)
	.cfi_offset 1, -4
	.cfi_offset 8, -8
	addi	s0,sp,48
	.cfi_def_cfa 8, 0
	sw	a0,-36(s0)
	.loc 1 135 25
	lw	a5,-36(s0)
	lw	a5,236(a5)
	.loc 1 135 6
	beq	a5,zero,.L3
.LBB2:
	.loc 1 136 19
	lw	a5,-36(s0)
	addi	a5,a5,8
	li	a2,0
	li	a1,0
	mv	a0,a5
	call	mbedtls_ssl_send_alert_message
	sw	a0,-20(s0)
.L3:
.LBE2:
	.loc 1 141 1
	nop
	lw	ra,44(sp)
	.cfi_restore 1
	lw	s0,40(sp)
	.cfi_restore 8
	.cfi_def_cfa 2, 48
	addi	sp,sp,48
	.cfi_def_cfa_offset 0
	jr	ra
	.cfi_endproc
.LFE90:
	.size	altcp_mbedtls_flush_output, .-altcp_mbedtls_flush_output
	.section	.text.altcp_mbedtls_lower_accept,"ax",@progbits
	.align	1
	.type	altcp_mbedtls_lower_accept, @function
altcp_mbedtls_lower_accept:
.LFB91:
	.loc 1 152 1
	.cfi_startproc
	addi	sp,sp,-48
	.cfi_def_cfa_offset 48
	sw	ra,44(sp)
	sw	s0,40(sp)
	.cfi_offset 1, -4
	.cfi_offset 8, -8
	addi	s0,sp,48
	.cfi_def_cfa 8, 0
	sw	a0,-36(s0)
	sw	a1,-40(s0)
	mv	a5,a2
	sb	a5,-41(s0)
	.loc 1 153 21
	lw	a5,-36(s0)
	sw	a5,-20(s0)
	.loc 1 154 6
	lw	a5,-20(s0)
	beq	a5,zero,.L5
	.loc 1 154 33 discriminator 1
	lw	a5,-20(s0)
	lw	a5,12(a5)
	.loc 1 154 19 discriminator 1
	beq	a5,zero,.L5
	.loc 1 154 55 discriminator 2
	lw	a5,-20(s0)
	lw	a5,16(a5)
	.loc 1 154 41 discriminator 2
	beq	a5,zero,.L5
.LBB3:
	.loc 1 156 28
	lw	a5,-20(s0)
	lw	a5,12(a5)
	sw	a5,-24(s0)
	.loc 1 158 34
	call	altcp_alloc
	sw	a0,-28(s0)
	.loc 1 159 8
	lw	a5,-28(s0)
	bne	a5,zero,.L6
	.loc 1 160 14
	li	a5,-1
	j	.L7
.L6:
	.loc 1 162 17
	lw	a5,-24(s0)
	lw	a5,0(a5)
	lw	a2,-40(s0)
	lw	a1,-28(s0)
	mv	a0,a5
	call	altcp_mbedtls_setup
	mv	a5,a0
	sb	a5,-29(s0)
	.loc 1 163 8
	lb	a5,-29(s0)
	beq	a5,zero,.L8
	.loc 1 164 7
	lw	a0,-28(s0)
	call	altcp_free
	.loc 1 165 14
	lb	a5,-29(s0)
	j	.L7
.L8:
	.loc 1 167 23
	lw	a5,-20(s0)
	lw	a5,16(a5)
	.loc 1 167 12
	lw	a4,-20(s0)
	lw	a4,8(a4)
	lb	a3,-41(s0)
	mv	a2,a3
	lw	a1,-28(s0)
	mv	a0,a4
	jalr	a5
.LVL0:
	mv	a5,a0
	j	.L7
.L5:
.LBE3:
	.loc 1 169 10
	li	a5,-16
.L7:
	.loc 1 170 1
	mv	a0,a5
	lw	ra,44(sp)
	.cfi_restore 1
	lw	s0,40(sp)
	.cfi_restore 8
	.cfi_def_cfa 2, 48
	addi	sp,sp,48
	.cfi_def_cfa_offset 0
	jr	ra
	.cfi_endproc
.LFE91:
	.size	altcp_mbedtls_lower_accept, .-altcp_mbedtls_lower_accept
	.section	.text.altcp_mbedtls_lower_connected,"ax",@progbits
	.align	1
	.type	altcp_mbedtls_lower_connected, @function
altcp_mbedtls_lower_connected:
.LFB92:
	.loc 1 177 1
	.cfi_startproc
	addi	sp,sp,-48
	.cfi_def_cfa_offset 48
	sw	ra,44(sp)
	sw	s0,40(sp)
	.cfi_offset 1, -4
	.cfi_offset 8, -8
	addi	s0,sp,48
	.cfi_def_cfa 8, 0
	sw	a0,-36(s0)
	sw	a1,-40(s0)
	mv	a5,a2
	sb	a5,-41(s0)
	.loc 1 178 21
	lw	a5,-36(s0)
	sw	a5,-20(s0)
	.loc 1 180 6
	lw	a5,-20(s0)
	beq	a5,zero,.L10
	.loc 1 180 19 discriminator 1
	lw	a5,-20(s0)
	lw	a5,12(a5)
	.loc 1 180 12 discriminator 1
	beq	a5,zero,.L10
.LBB4:
	.loc 1 184 8
	lb	a5,-41(s0)
	beq	a5,zero,.L11
	.loc 1 185 15
	lw	a5,-20(s0)
	lw	a5,20(a5)
	.loc 1 185 10
	beq	a5,zero,.L11
	.loc 1 186 20
	lw	a5,-20(s0)
	lw	a5,20(a5)
	.loc 1 186 16
	lw	a4,-20(s0)
	lw	a4,8(a4)
	lb	a3,-41(s0)
	mv	a2,a3
	lw	a1,-20(s0)
	mv	a0,a4
	jalr	a5
.LVL1:
	mv	a5,a0
	j	.L12
.L11:
	.loc 1 189 11
	lw	a5,-20(s0)
	lw	a5,12(a5)
	sw	a5,-24(s0)
	.loc 1 191 34
	lw	a5,-24(s0)
	sw	zero,640(a5)
	.loc 1 192 12
	lw	a1,-24(s0)
	lw	a0,-20(s0)
	call	altcp_mbedtls_lower_recv_process
	mv	a5,a0
	j	.L12
.L10:
.LBE4:
	.loc 1 194 10
	li	a5,-6
.L12:
	.loc 1 195 1
	mv	a0,a5
	lw	ra,44(sp)
	.cfi_restore 1
	lw	s0,40(sp)
	.cfi_restore 8
	.cfi_def_cfa 2, 48
	addi	sp,sp,48
	.cfi_def_cfa_offset 0
	jr	ra
	.cfi_endproc
.LFE92:
	.size	altcp_mbedtls_lower_connected, .-altcp_mbedtls_lower_connected
	.section	.text.altcp_mbedtls_lower_recved,"ax",@progbits
	.align	1
	.type	altcp_mbedtls_lower_recved, @function
altcp_mbedtls_lower_recved:
.LFB93:
	.loc 1 200 1
	.cfi_startproc
	addi	sp,sp,-48
	.cfi_def_cfa_offset 48
	sw	ra,44(sp)
	sw	s0,40(sp)
	.cfi_offset 1, -4
	.cfi_offset 8, -8
	addi	s0,sp,48
	.cfi_def_cfa 8, 0
	sw	a0,-36(s0)
	sw	a1,-40(s0)
	.loc 1 201 9
	j	.L14
.L17:
.LBB5:
	.loc 1 202 24
	lw	a4,-40(s0)
	li	a5,65536
	addi	a5,a5,-2
	bgt	a4,a5,.L15
	.loc 1 202 11 discriminator 1
	lw	a5,-40(s0)
	sh	a5,-18(s0)
	j	.L16
.L15:
	.loc 1 202 11 is_stmt 0 discriminator 2
	li	a5,-1
	sh	a5,-18(s0)
.L16:
	.loc 1 203 5 is_stmt 1
	lhu	a5,-18(s0)
	mv	a1,a5
	lw	a0,-36(s0)
	call	altcp_recved
	.loc 1 204 15
	lhu	a5,-18(s0)
	lw	a4,-40(s0)
	sub	a5,a4,a5
	sw	a5,-40(s0)
.L14:
.LBE5:
	.loc 1 201 20
	lw	a5,-40(s0)
	bgt	a5,zero,.L17
	.loc 1 206 1
	nop
	nop
	lw	ra,44(sp)
	.cfi_restore 1
	lw	s0,40(sp)
	.cfi_restore 8
	.cfi_def_cfa 2, 48
	addi	sp,sp,48
	.cfi_def_cfa_offset 0
	jr	ra
	.cfi_endproc
.LFE93:
	.size	altcp_mbedtls_lower_recved, .-altcp_mbedtls_lower_recved
	.section	.text.altcp_mbedtls_lower_recv,"ax",@progbits
	.align	1
	.type	altcp_mbedtls_lower_recv, @function
altcp_mbedtls_lower_recv:
.LFB94:
	.loc 1 214 1
	.cfi_startproc
	addi	sp,sp,-48
	.cfi_def_cfa_offset 48
	sw	ra,44(sp)
	sw	s0,40(sp)
	.cfi_offset 1, -4
	.cfi_offset 8, -8
	addi	s0,sp,48
	.cfi_def_cfa 8, 0
	sw	a0,-36(s0)
	sw	a1,-40(s0)
	sw	a2,-44(s0)
	mv	a5,a3
	sb	a5,-45(s0)
	.loc 1 216 21
	lw	a5,-36(s0)
	sw	a5,-20(s0)
	.loc 1 221 6
	lw	a5,-20(s0)
	bne	a5,zero,.L19
	.loc 1 223 8
	lw	a5,-44(s0)
	beq	a5,zero,.L20
	.loc 1 224 7
	lw	a0,-44(s0)
	call	pbuf_free
.L20:
	.loc 1 226 5
	lw	a0,-40(s0)
	call	altcp_close
	.loc 1 227 12
	li	a5,-15
	j	.L21
.L19:
	.loc 1 229 9
	lw	a5,-20(s0)
	lw	a5,12(a5)
	sw	a5,-24(s0)
	.loc 1 231 6
	lw	a5,-24(s0)
	bne	a5,zero,.L22
	.loc 1 233 8
	lw	a5,-44(s0)
	beq	a5,zero,.L23
	.loc 1 234 7
	lw	a0,-44(s0)
	call	pbuf_free
.L23:
	.loc 1 236 5
	lw	a0,-40(s0)
	call	altcp_close
	.loc 1 237 12
	li	a5,-15
	j	.L21
.L22:
	.loc 1 241 6
	lw	a5,-44(s0)
	bne	a5,zero,.L24
	.loc 1 244 15
	lw	a5,-24(s0)
	lbu	a5,624(a5)
	.loc 1 244 23
	andi	a4,a5,3
	.loc 1 244 8
	li	a5,3
	bne	a4,a5,.L25
	.loc 1 247 17
	lw	a5,-24(s0)
	lw	a5,616(a5)
	.loc 1 247 10
	bne	a5,zero,.L26
	.loc 1 247 39 discriminator 1
	lw	a5,-24(s0)
	lw	a5,620(a5)
	.loc 1 247 30 discriminator 1
	beq	a5,zero,.L27
.L26:
	.loc 1 248 14
	lw	a5,-24(s0)
	lbu	a5,624(a5)
	.loc 1 248 22
	ori	a5,a5,4
	andi	a4,a5,0xff
	lw	a5,-24(s0)
	sb	a4,624(a5)
	.loc 1 250 9
	lw	a1,-24(s0)
	lw	a0,-20(s0)
	call	altcp_mbedtls_handle_rx_appldata
	.loc 1 251 16
	li	a5,0
	j	.L21
.L27:
	.loc 1 253 12
	lw	a5,-24(s0)
	lbu	a5,624(a5)
	.loc 1 253 20
	ori	a5,a5,8
	andi	a4,a5,0xff
	lw	a5,-24(s0)
	sb	a4,624(a5)
	.loc 1 254 15
	lw	a5,-20(s0)
	lw	a5,24(a5)
	.loc 1 254 10
	beq	a5,zero,.L28
	.loc 1 255 20
	lw	a5,-20(s0)
	lw	a5,24(a5)
	.loc 1 255 16
	lw	a4,-20(s0)
	lw	a4,8(a4)
	li	a3,0
	li	a2,0
	lw	a1,-20(s0)
	mv	a0,a4
	jalr	a5
.LVL2:
	mv	a5,a0
	j	.L21
.L25:
	.loc 1 259 15
	lw	a5,-20(s0)
	lw	a5,36(a5)
	.loc 1 259 10
	beq	a5,zero,.L29
	.loc 1 260 13
	lw	a5,-20(s0)
	lw	a5,36(a5)
	.loc 1 260 9
	lw	a4,-20(s0)
	lw	a4,8(a4)
	li	a1,-13
	mv	a0,a4
	jalr	a5
.LVL3:
.L29:
	.loc 1 262 7
	lw	a0,-20(s0)
	call	altcp_close
.L28:
	.loc 1 264 12
	li	a5,0
	j	.L21
.L24:
	.loc 1 269 12
	lw	a5,-24(s0)
	lw	a5,616(a5)
	.loc 1 269 6
	bne	a5,zero,.L30
	.loc 1 270 15
	lw	a5,-24(s0)
	lw	a4,-44(s0)
	sw	a4,616(a5)
	j	.L31
.L30:
	.loc 1 273 5
	lw	a5,-24(s0)
	lw	a5,616(a5)
	lw	a1,-44(s0)
	mv	a0,a5
	call	pbuf_cat
.L31:
	.loc 1 275 10
	lw	a1,-24(s0)
	lw	a0,-20(s0)
	call	altcp_mbedtls_lower_recv_process
	mv	a5,a0
.L21:
	.loc 1 276 1
	mv	a0,a5
	lw	ra,44(sp)
	.cfi_restore 1
	lw	s0,40(sp)
	.cfi_restore 8
	.cfi_def_cfa 2, 48
	addi	sp,sp,48
	.cfi_def_cfa_offset 0
	jr	ra
	.cfi_endproc
.LFE94:
	.size	altcp_mbedtls_lower_recv, .-altcp_mbedtls_lower_recv
	.section	.text.altcp_mbedtls_lower_recv_process,"ax",@progbits
	.align	1
	.type	altcp_mbedtls_lower_recv_process, @function
altcp_mbedtls_lower_recv_process:
.LFB95:
	.loc 1 280 1
	.cfi_startproc
	addi	sp,sp,-48
	.cfi_def_cfa_offset 48
	sw	ra,44(sp)
	sw	s0,40(sp)
	.cfi_offset 1, -4
	.cfi_offset 8, -8
	addi	s0,sp,48
	.cfi_def_cfa 8, 0
	sw	a0,-36(s0)
	sw	a1,-40(s0)
	.loc 1 281 14
	lw	a5,-40(s0)
	lbu	a5,624(a5)
	.loc 1 281 22
	andi	a5,a5,1
	.loc 1 281 6
	bne	a5,zero,.L33
.LBB6:
	.loc 1 283 15
	lw	a5,-40(s0)
	addi	a5,a5,8
	mv	a0,a5
	call	mbedtls_ssl_handshake
	sw	a0,-20(s0)
	.loc 1 285 5
	lw	a5,-36(s0)
	lw	a5,4(a5)
	mv	a0,a5
	call	altcp_output
	.loc 1 286 14
	lw	a5,-40(s0)
	lw	a5,632(a5)
	.loc 1 286 8
	beq	a5,zero,.L34
	.loc 1 288 7
	lw	a5,-36(s0)
	lw	a4,4(a5)
	lw	a5,-40(s0)
	lw	a5,632(a5)
	mv	a1,a5
	mv	a0,a4
	call	altcp_mbedtls_lower_recved
	.loc 1 289 29
	lw	a5,-40(s0)
	sw	zero,632(a5)
.L34:
	.loc 1 292 8
	lw	a4,-20(s0)
	li	a5,-28672
	addi	a5,a5,1792
	beq	a4,a5,.L35
	.loc 1 292 24 discriminator 1
	lw	a4,-20(s0)
	li	a5,-28672
	addi	a5,a5,1920
	bne	a4,a5,.L36
.L35:
	.loc 1 295 14
	li	a5,0
	j	.L37
.L36:
	.loc 1 297 8
	lw	a5,-20(s0)
	beq	a5,zero,.L38
	.loc 1 300 15
	lw	a5,-36(s0)
	lw	a5,36(a5)
	.loc 1 300 10
	beq	a5,zero,.L39
	.loc 1 301 13
	lw	a5,-36(s0)
	lw	a5,36(a5)
	.loc 1 301 9
	lw	a4,-36(s0)
	lw	a4,8(a4)
	li	a1,-15
	mv	a0,a4
	jalr	a5
.LVL4:
.L39:
	.loc 1 304 11
	lw	a0,-36(s0)
	call	altcp_close
	mv	a5,a0
	.loc 1 304 10 discriminator 1
	beq	a5,zero,.L40
	.loc 1 305 9
	lw	a0,-36(s0)
	call	altcp_abort
.L40:
	.loc 1 307 14
	li	a5,0
	j	.L37
.L38:
	.loc 1 312 10
	lw	a5,-40(s0)
	lbu	a5,624(a5)
	.loc 1 312 18
	ori	a5,a5,1
	andi	a4,a5,0xff
	lw	a5,-40(s0)
	sb	a4,624(a5)
	.loc 1 314 13
	lw	a5,-36(s0)
	lw	a5,20(a5)
	.loc 1 314 8
	beq	a5,zero,.L41
.LBB7:
	.loc 1 316 17
	lw	a5,-36(s0)
	lw	a5,20(a5)
	.loc 1 316 13
	lw	a4,-36(s0)
	lw	a4,8(a4)
	li	a2,0
	lw	a1,-36(s0)
	mv	a0,a4
	jalr	a5
.LVL5:
	mv	a5,a0
	sb	a5,-21(s0)
	.loc 1 317 10
	lb	a5,-21(s0)
	beq	a5,zero,.L41
	.loc 1 318 16
	lb	a5,-21(s0)
	j	.L37
.L41:
.LBE7:
	.loc 1 321 14
	lw	a5,-40(s0)
	lw	a5,616(a5)
	.loc 1 321 8
	bne	a5,zero,.L33
	.loc 1 322 14
	li	a5,0
	j	.L37
.L33:
.LBE6:
	.loc 1 326 10
	lw	a1,-40(s0)
	lw	a0,-36(s0)
	call	altcp_mbedtls_handle_rx_appldata
	mv	a5,a0
.L37:
	.loc 1 327 1
	mv	a0,a5
	lw	ra,44(sp)
	.cfi_restore 1
	lw	s0,40(sp)
	.cfi_restore 8
	.cfi_def_cfa 2, 48
	addi	sp,sp,48
	.cfi_def_cfa_offset 0
	jr	ra
	.cfi_endproc
.LFE95:
	.size	altcp_mbedtls_lower_recv_process, .-altcp_mbedtls_lower_recv_process
	.section	.text.altcp_mbedtls_pass_rx_data,"ax",@progbits
	.align	1
	.type	altcp_mbedtls_pass_rx_data, @function
altcp_mbedtls_pass_rx_data:
.LFB96:
	.loc 1 332 1
	.cfi_startproc
	addi	sp,sp,-48
	.cfi_def_cfa_offset 48
	sw	ra,44(sp)
	sw	s0,40(sp)
	.cfi_offset 1, -4
	.cfi_offset 8, -8
	addi	s0,sp,48
	.cfi_def_cfa 8, 0
	sw	a0,-36(s0)
	sw	a1,-40(s0)
	.loc 1 337 7
	lw	a5,-40(s0)
	lw	a5,620(a5)
	sw	a5,-20(s0)
	.loc 1 338 6
	lw	a5,-20(s0)
	beq	a5,zero,.L43
	.loc 1 339 19
	lw	a5,-40(s0)
	sw	zero,620(a5)
	.loc 1 340 13
	lw	a5,-36(s0)
	lw	a5,24(a5)
	.loc 1 340 8
	beq	a5,zero,.L44
.LBB8:
	.loc 1 341 13
	lw	a5,-20(s0)
	lhu	a5,8(a5)
	sh	a5,-22(s0)
	.loc 1 343 12
	lw	a5,-40(s0)
	lw	a4,628(a5)
	.loc 1 343 33
	lhu	a5,-22(s0)
	add	a4,a4,a5
	lw	a5,-40(s0)
	sw	a4,628(a5)
	.loc 1 344 12
	lw	a5,-40(s0)
	lbu	a5,624(a5)
	.loc 1 344 20
	ori	a5,a5,2
	andi	a4,a5,0xff
	lw	a5,-40(s0)
	sb	a4,624(a5)
	.loc 1 345 17
	lw	a5,-36(s0)
	lw	a5,24(a5)
	.loc 1 345 13
	lw	a4,-36(s0)
	lw	a4,8(a4)
	li	a3,0
	lw	a2,-20(s0)
	lw	a1,-36(s0)
	mv	a0,a4
	jalr	a5
.LVL6:
	mv	a5,a0
	sb	a5,-23(s0)
	.loc 1 346 10
	lb	a5,-23(s0)
	beq	a5,zero,.L45
	.loc 1 347 12
	lb	a4,-23(s0)
	li	a5,-13
	bne	a4,a5,.L46
	.loc 1 348 18
	li	a5,-13
	j	.L47
.L46:
	.loc 1 352 23
	lw	a5,-40(s0)
	lw	a4,-20(s0)
	sw	a4,620(a5)
	.loc 1 353 14
	lw	a5,-40(s0)
	lw	a4,628(a5)
	.loc 1 353 35
	lhu	a5,-22(s0)
	sub	a4,a4,a5
	lw	a5,-40(s0)
	sw	a4,628(a5)
	.loc 1 355 18
	lw	a5,-40(s0)
	lw	a5,628(a5)
	.loc 1 355 12
	bge	a5,zero,.L48
	.loc 1 356 37
	lw	a5,-40(s0)
	sw	zero,628(a5)
.L48:
	.loc 1 358 16
	lb	a5,-23(s0)
	j	.L47
.L44:
.LBE8:
	.loc 1 361 7
	lw	a0,-20(s0)
	call	pbuf_free
	j	.L45
.L43:
	.loc 1 363 20
	lw	a5,-40(s0)
	lbu	a5,624(a5)
	.loc 1 363 28
	andi	a4,a5,12
	.loc 1 363 13
	li	a5,4
	bne	a4,a5,.L45
	.loc 1 365 10
	lw	a5,-40(s0)
	lbu	a5,624(a5)
	.loc 1 365 18
	ori	a5,a5,8
	andi	a4,a5,0xff
	lw	a5,-40(s0)
	sb	a4,624(a5)
	.loc 1 366 13
	lw	a5,-36(s0)
	lw	a5,24(a5)
	.loc 1 366 8
	beq	a5,zero,.L45
	.loc 1 367 18
	lw	a5,-36(s0)
	lw	a5,24(a5)
	.loc 1 367 14
	lw	a4,-36(s0)
	lw	a4,8(a4)
	li	a3,0
	li	a2,0
	lw	a1,-36(s0)
	mv	a0,a4
	jalr	a5
.LVL7:
	mv	a5,a0
	j	.L47
.L45:
	.loc 1 372 11
	lw	a5,-36(s0)
	lw	a5,12(a5)
	.loc 1 372 6
	lw	a4,-40(s0)
	beq	a4,a5,.L49
	.loc 1 374 12
	li	a5,-16
	j	.L47
.L49:
	.loc 1 376 10
	li	a5,0
.L47:
	.loc 1 377 1
	mv	a0,a5
	lw	ra,44(sp)
	.cfi_restore 1
	lw	s0,40(sp)
	.cfi_restore 8
	.cfi_def_cfa 2, 48
	addi	sp,sp,48
	.cfi_def_cfa_offset 0
	jr	ra
	.cfi_endproc
.LFE96:
	.size	altcp_mbedtls_pass_rx_data, .-altcp_mbedtls_pass_rx_data
	.section	.text.altcp_mbedtls_handle_rx_appldata,"ax",@progbits
	.align	1
	.type	altcp_mbedtls_handle_rx_appldata, @function
altcp_mbedtls_handle_rx_appldata:
.LFB97:
	.loc 1 382 1
	.cfi_startproc
	addi	sp,sp,-48
	.cfi_def_cfa_offset 48
	sw	ra,44(sp)
	sw	s0,40(sp)
	.cfi_offset 1, -4
	.cfi_offset 8, -8
	addi	s0,sp,48
	.cfi_def_cfa 8, 0
	sw	a0,-36(s0)
	sw	a1,-40(s0)
	.loc 1 385 14
	lw	a5,-40(s0)
	lbu	a5,624(a5)
	.loc 1 385 22
	andi	a5,a5,1
	.loc 1 385 6
	bne	a5,zero,.L51
	.loc 1 387 12
	li	a5,-6
	j	.L52
.L51:
.LBB9:
	.loc 1 391 24
	li	a2,640
	li	a1,760
	li	a0,0
	call	pbuf_alloc
	sw	a0,-20(s0)
	.loc 1 392 8
	lw	a5,-20(s0)
	bne	a5,zero,.L53
	.loc 1 395 14
	li	a5,0
	j	.L52
.L53:
	.loc 1 399 11
	lw	a5,-40(s0)
	addi	a4,a5,8
	.loc 1 399 69
	lw	a5,-20(s0)
	lw	a5,4(a5)
	.loc 1 399 11
	li	a2,760
	mv	a1,a5
	mv	a0,a4
	call	mbedtls_ssl_read
	sw	a0,-24(s0)
	.loc 1 400 8
	lw	a5,-24(s0)
	bge	a5,zero,.L54
	.loc 1 401 10
	lw	a4,-24(s0)
	li	a5,-24576
	addi	a5,a5,-1920
	beq	a4,a5,.L55
	.loc 1 405 17
	lw	a4,-24(s0)
	li	a5,-28672
	addi	a5,a5,1792
	beq	a4,a5,.L56
	.loc 1 405 35 discriminator 1
	lw	a4,-24(s0)
	li	a5,-28672
	addi	a5,a5,1920
	beq	a4,a5,.L56
	.loc 1 411 9
	lw	a0,-20(s0)
	call	pbuf_free
	.loc 1 412 16
	li	a5,0
	j	.L52
.L56:
	.loc 1 414 9
	lw	a0,-20(s0)
	call	pbuf_free
	.loc 1 415 16
	li	a5,0
	j	.L52
.L55:
	.loc 1 417 7
	lw	a0,-20(s0)
	call	pbuf_free
	.loc 1 418 7
	lw	a0,-36(s0)
	call	altcp_abort
	.loc 1 419 14
	li	a5,-13
	j	.L52
.L54:
.LBB10:
	.loc 1 422 10
	lw	a5,-24(s0)
	beq	a5,zero,.L57
	.loc 1 425 9
	lw	a5,-24(s0)
	slli	a5,a5,16
	srli	a5,a5,16
	mv	a1,a5
	lw	a0,-20(s0)
	call	pbuf_realloc
	.loc 1 427 14
	lw	a5,-40(s0)
	lw	a4,636(a5)
	.loc 1 427 31
	lw	a5,-24(s0)
	add	a4,a4,a5
	lw	a5,-40(s0)
	sw	a4,636(a5)
	.loc 1 428 41
	lw	a5,-40(s0)
	addi	a5,a5,8
	.loc 1 428 13
	mv	a0,a5
	call	mbedtls_ssl_get_bytes_avail
	mv	a5,a0
	.loc 1 428 12 discriminator 1
	bne	a5,zero,.L58
.LBB11:
	.loc 1 434 33
	lw	a5,-40(s0)
	lw	a4,632(a5)
	.loc 1 434 57
	lw	a5,-40(s0)
	lw	a5,636(a5)
	.loc 1 434 26
	sub	a5,a4,a5
	sw	a5,-28(s0)
	.loc 1 435 11
	lw	a5,-36(s0)
	lw	a5,4(a5)
	lw	a1,-28(s0)
	mv	a0,a5
	call	altcp_mbedtls_lower_recved
	.loc 1 436 33
	lw	a5,-40(s0)
	sw	zero,632(a5)
	.loc 1 437 33
	lw	a5,-40(s0)
	sw	zero,636(a5)
.L58:
.LBE11:
	.loc 1 440 18
	lw	a5,-40(s0)
	lw	a5,620(a5)
	.loc 1 440 12
	bne	a5,zero,.L59
	.loc 1 441 25
	lw	a5,-40(s0)
	lw	a4,-20(s0)
	sw	a4,620(a5)
	j	.L60
.L59:
	.loc 1 443 11
	lw	a5,-40(s0)
	lw	a5,620(a5)
	lw	a1,-20(s0)
	mv	a0,a5
	call	pbuf_cat
	j	.L60
.L57:
	.loc 1 446 9
	lw	a0,-20(s0)
	call	pbuf_free
	.loc 1 447 13
	sw	zero,-20(s0)
.L60:
	.loc 1 449 13
	lw	a1,-40(s0)
	lw	a0,-36(s0)
	call	altcp_mbedtls_pass_rx_data
	mv	a5,a0
	sb	a5,-29(s0)
	.loc 1 450 10
	lb	a5,-29(s0)
	beq	a5,zero,.L61
	.loc 1 451 12
	lb	a4,-29(s0)
	li	a5,-13
	bne	a4,a5,.L62
	.loc 1 453 18
	li	a5,-13
	j	.L52
.L62:
	.loc 1 456 16
	li	a5,0
	j	.L52
.L61:
.LBE10:
.LBE9:
	.loc 1 459 16
	lw	a5,-24(s0)
	bgt	a5,zero,.L51
	.loc 1 460 10
	li	a5,0
.L52:
	.loc 1 461 1
	mv	a0,a5
	lw	ra,44(sp)
	.cfi_restore 1
	lw	s0,40(sp)
	.cfi_restore 8
	.cfi_def_cfa 2, 48
	addi	sp,sp,48
	.cfi_def_cfa_offset 0
	jr	ra
	.cfi_endproc
.LFE97:
	.size	altcp_mbedtls_handle_rx_appldata, .-altcp_mbedtls_handle_rx_appldata
	.section	.text.altcp_mbedtls_bio_recv,"ax",@progbits
	.align	1
	.type	altcp_mbedtls_bio_recv, @function
altcp_mbedtls_bio_recv:
.LFB98:
	.loc 1 468 1
	.cfi_startproc
	addi	sp,sp,-64
	.cfi_def_cfa_offset 64
	sw	ra,60(sp)
	sw	s0,56(sp)
	.cfi_offset 1, -4
	.cfi_offset 8, -8
	addi	s0,sp,64
	.cfi_def_cfa 8, 0
	sw	a0,-52(s0)
	sw	a1,-56(s0)
	sw	a2,-60(s0)
	.loc 1 469 21
	lw	a5,-52(s0)
	sw	a5,-24(s0)
	.loc 1 477 6
	lw	a5,-24(s0)
	beq	a5,zero,.L64
	.loc 1 477 29 discriminator 1
	lw	a5,-24(s0)
	lw	a5,12(a5)
	.loc 1 477 21 discriminator 1
	bne	a5,zero,.L65
.L64:
	.loc 1 478 12
	li	a5,-69
	j	.L66
.L65:
	.loc 1 480 9
	lw	a5,-24(s0)
	lw	a5,12(a5)
	sw	a5,-28(s0)
	.loc 1 482 5
	lw	a5,-28(s0)
	lw	a5,616(a5)
	sw	a5,-32(s0)
	.loc 1 486 6
	lw	a5,-32(s0)
	beq	a5,zero,.L67
	.loc 1 486 24 discriminator 1
	lw	a5,-32(s0)
	lhu	a5,10(a5)
	.loc 1 486 18 discriminator 1
	bne	a5,zero,.L68
	.loc 1 486 41 discriminator 2
	lw	a5,-32(s0)
	lw	a5,0(a5)
	.loc 1 486 36 discriminator 2
	bne	a5,zero,.L68
.L67:
	.loc 1 487 8
	lw	a5,-32(s0)
	beq	a5,zero,.L69
	.loc 1 488 7
	lw	a0,-32(s0)
	call	pbuf_free
.L69:
	.loc 1 490 15
	lw	a5,-28(s0)
	sw	zero,616(a5)
	.loc 1 491 15
	lw	a5,-28(s0)
	lbu	a5,624(a5)
	.loc 1 491 23
	andi	a4,a5,12
	.loc 1 491 8
	li	a5,4
	bne	a4,a5,.L70
	.loc 1 494 14
	li	a5,0
	j	.L66
.L70:
	.loc 1 496 12
	li	a5,-28672
	addi	a5,a5,1792
	j	.L66
.L68:
	.loc 1 499 33
	lw	a5,-32(s0)
	lhu	a5,10(a5)
	mv	a4,a5
	.loc 1 499 14
	lw	a5,-60(s0)
	bgeu	a5,a4,.L71
	.loc 1 499 12 discriminator 1
	lw	a5,-60(s0)
	sh	a5,-18(s0)
	j	.L72
.L71:
	.loc 1 499 12 is_stmt 0 discriminator 2
	lw	a5,-32(s0)
	lhu	a5,10(a5)
	sh	a5,-18(s0)
.L72:
	.loc 1 501 9 is_stmt 1
	lhu	a5,-18(s0)
	li	a3,0
	mv	a2,a5
	lw	a1,-56(s0)
	lw	a0,-32(s0)
	call	pbuf_copy_partial
	mv	a5,a0
	sh	a5,-34(s0)
	.loc 1 504 9
	lhu	a5,-34(s0)
	mv	a1,a5
	lw	a0,-32(s0)
	call	pbuf_remove_header
	mv	a5,a0
	.loc 1 504 7 discriminator 1
	sb	a5,-35(s0)
	.loc 1 506 8
	lw	a5,-32(s0)
	lhu	a5,10(a5)
	.loc 1 506 6
	bne	a5,zero,.L73
	.loc 1 508 18
	lw	a5,-32(s0)
	lw	a4,0(a5)
	.loc 1 508 15
	lw	a5,-28(s0)
	sw	a4,616(a5)
	.loc 1 509 13
	lw	a5,-32(s0)
	sw	zero,0(a5)
	.loc 1 510 5
	lw	a0,-32(s0)
	call	pbuf_free
.L73:
	.loc 1 513 8
	lw	a5,-28(s0)
	lw	a4,632(a5)
	.loc 1 513 28
	lhu	a5,-34(s0)
	.loc 1 513 25
	add	a4,a4,a5
	lw	a5,-28(s0)
	sw	a4,632(a5)
	.loc 1 514 10
	lhu	a5,-34(s0)
.L66:
	.loc 1 515 1
	mv	a0,a5
	lw	ra,60(sp)
	.cfi_restore 1
	lw	s0,56(sp)
	.cfi_restore 8
	.cfi_def_cfa 2, 64
	addi	sp,sp,64
	.cfi_def_cfa_offset 0
	jr	ra
	.cfi_endproc
.LFE98:
	.size	altcp_mbedtls_bio_recv, .-altcp_mbedtls_bio_recv
	.section	.text.altcp_mbedtls_lower_sent,"ax",@progbits
	.align	1
	.type	altcp_mbedtls_lower_sent, @function
altcp_mbedtls_lower_sent:
.LFB99:
	.loc 1 524 1
	.cfi_startproc
	addi	sp,sp,-48
	.cfi_def_cfa_offset 48
	sw	ra,44(sp)
	sw	s0,40(sp)
	.cfi_offset 1, -4
	.cfi_offset 8, -8
	addi	s0,sp,48
	.cfi_def_cfa 8, 0
	sw	a0,-36(s0)
	sw	a1,-40(s0)
	mv	a5,a2
	sh	a5,-42(s0)
	.loc 1 525 21
	lw	a5,-36(s0)
	sw	a5,-24(s0)
	.loc 1 527 6
	lw	a5,-24(s0)
	beq	a5,zero,.L75
.LBB12:
	.loc 1 530 28
	lw	a5,-24(s0)
	lw	a5,12(a5)
	sw	a5,-28(s0)
	.loc 1 534 21
	lw	a5,-28(s0)
	lw	a5,640(a5)
	mv	a4,a5
	.loc 1 534 65
	lw	a5,-28(s0)
	lw	a5,236(a5)
	.loc 1 534 45
	add	a5,a4,a5
	.loc 1 534 14
	sw	a5,-20(s0)
	.loc 1 535 28
	lhu	a4,-42(s0)
	.loc 1 535 9
	lw	a5,-20(s0)
	.loc 1 535 8
	bgeu	a4,a5,.L76
	.loc 1 536 16
	lhu	a5,-42(s0)
	sw	a5,-20(s0)
.L76:
	.loc 1 539 10
	lw	a5,-28(s0)
	lw	a4,640(a5)
	.loc 1 539 34
	lhu	a5,-42(s0)
	sub	a4,a4,a5
	lw	a5,-28(s0)
	sw	a4,640(a5)
	.loc 1 541 5
	lw	a0,-28(s0)
	call	altcp_mbedtls_flush_output
	.loc 1 543 21
	lw	a5,-20(s0)
	slli	a5,a5,16
	srli	a5,a5,16
	.loc 1 543 13
	lhu	a4,-42(s0)
	sub	a5,a4,a5
	sh	a5,-30(s0)
	.loc 1 545 8
	lhu	a5,-30(s0)
	beq	a5,zero,.L75
	.loc 1 546 12
	lw	a5,-28(s0)
	lw	a4,640(a5)
	.loc 1 546 36
	lhu	a5,-30(s0)
	add	a4,a4,a5
	lw	a5,-28(s0)
	sw	a4,640(a5)
	.loc 1 547 15
	lw	a5,-24(s0)
	lw	a5,28(a5)
	.loc 1 547 10
	beq	a5,zero,.L75
	.loc 1 548 20
	lw	a5,-24(s0)
	lw	a5,28(a5)
	.loc 1 548 16
	lw	a4,-24(s0)
	lw	a4,8(a4)
	lhu	a3,-30(s0)
	mv	a2,a3
	lw	a1,-24(s0)
	mv	a0,a4
	jalr	a5
.LVL8:
	mv	a5,a0
	j	.L77
.L75:
.LBE12:
	.loc 1 551 10
	li	a5,0
.L77:
	.loc 1 552 1
	mv	a0,a5
	lw	ra,44(sp)
	.cfi_restore 1
	lw	s0,40(sp)
	.cfi_restore 8
	.cfi_def_cfa 2, 48
	addi	sp,sp,48
	.cfi_def_cfa_offset 0
	jr	ra
	.cfi_endproc
.LFE99:
	.size	altcp_mbedtls_lower_sent, .-altcp_mbedtls_lower_sent
	.section	.text.altcp_mbedtls_lower_poll,"ax",@progbits
	.align	1
	.type	altcp_mbedtls_lower_poll, @function
altcp_mbedtls_lower_poll:
.LFB100:
	.loc 1 560 1
	.cfi_startproc
	addi	sp,sp,-48
	.cfi_def_cfa_offset 48
	sw	ra,44(sp)
	sw	s0,40(sp)
	.cfi_offset 1, -4
	.cfi_offset 8, -8
	addi	s0,sp,48
	.cfi_def_cfa 8, 0
	sw	a0,-36(s0)
	sw	a1,-40(s0)
	.loc 1 561 21
	lw	a5,-36(s0)
	sw	a5,-20(s0)
	.loc 1 563 6
	lw	a5,-20(s0)
	beq	a5,zero,.L79
	.loc 1 566 13
	lw	a5,-20(s0)
	lw	a5,12(a5)
	.loc 1 566 8
	beq	a5,zero,.L80
.LBB13:
	.loc 1 567 30
	lw	a5,-20(s0)
	lw	a5,12(a5)
	sw	a5,-24(s0)
	.loc 1 569 7
	lw	a0,-24(s0)
	call	altcp_mbedtls_flush_output
	.loc 1 570 11
	lw	a1,-24(s0)
	lw	a0,-20(s0)
	call	altcp_mbedtls_handle_rx_appldata
	mv	a5,a0
	mv	a4,a5
	.loc 1 570 10 discriminator 1
	li	a5,-13
	bne	a4,a5,.L80
	.loc 1 571 16
	li	a5,-13
	j	.L81
.L80:
.LBE13:
	.loc 1 574 13
	lw	a5,-20(s0)
	lw	a5,32(a5)
	.loc 1 574 8
	beq	a5,zero,.L79
	.loc 1 575 18
	lw	a5,-20(s0)
	lw	a5,32(a5)
	.loc 1 575 14
	lw	a4,-20(s0)
	lw	a4,8(a4)
	lw	a1,-20(s0)
	mv	a0,a4
	jalr	a5
.LVL9:
	mv	a5,a0
	j	.L81
.L79:
	.loc 1 578 10
	li	a5,0
.L81:
	.loc 1 579 1
	mv	a0,a5
	lw	ra,44(sp)
	.cfi_restore 1
	lw	s0,40(sp)
	.cfi_restore 8
	.cfi_def_cfa 2, 48
	addi	sp,sp,48
	.cfi_def_cfa_offset 0
	jr	ra
	.cfi_endproc
.LFE100:
	.size	altcp_mbedtls_lower_poll, .-altcp_mbedtls_lower_poll
	.section	.text.altcp_mbedtls_lower_err,"ax",@progbits
	.align	1
	.type	altcp_mbedtls_lower_err, @function
altcp_mbedtls_lower_err:
.LFB101:
	.loc 1 583 1
	.cfi_startproc
	addi	sp,sp,-48
	.cfi_def_cfa_offset 48
	sw	ra,44(sp)
	sw	s0,40(sp)
	.cfi_offset 1, -4
	.cfi_offset 8, -8
	addi	s0,sp,48
	.cfi_def_cfa 8, 0
	sw	a0,-36(s0)
	mv	a5,a1
	sb	a5,-37(s0)
	.loc 1 584 21
	lw	a5,-36(s0)
	sw	a5,-20(s0)
	.loc 1 585 6
	lw	a5,-20(s0)
	beq	a5,zero,.L85
	.loc 1 586 22
	lw	a5,-20(s0)
	sw	zero,4(a5)
	.loc 1 587 13
	lw	a5,-20(s0)
	lw	a5,36(a5)
	.loc 1 587 8
	beq	a5,zero,.L84
	.loc 1 588 11
	lw	a5,-20(s0)
	lw	a5,36(a5)
	.loc 1 588 7
	lw	a4,-20(s0)
	lw	a4,8(a4)
	lb	a3,-37(s0)
	mv	a1,a3
	mv	a0,a4
	jalr	a5
.LVL10:
.L84:
	.loc 1 590 5
	lw	a0,-20(s0)
	call	altcp_free
.L85:
	.loc 1 592 1
	nop
	lw	ra,44(sp)
	.cfi_restore 1
	lw	s0,40(sp)
	.cfi_restore 8
	.cfi_def_cfa 2, 48
	addi	sp,sp,48
	.cfi_def_cfa_offset 0
	jr	ra
	.cfi_endproc
.LFE101:
	.size	altcp_mbedtls_lower_err, .-altcp_mbedtls_lower_err
	.section	.text.altcp_mbedtls_remove_callbacks,"ax",@progbits
	.align	1
	.type	altcp_mbedtls_remove_callbacks, @function
altcp_mbedtls_remove_callbacks:
.LFB102:
	.loc 1 598 1
	.cfi_startproc
	addi	sp,sp,-32
	.cfi_def_cfa_offset 32
	sw	ra,28(sp)
	sw	s0,24(sp)
	.cfi_offset 1, -4
	.cfi_offset 8, -8
	addi	s0,sp,32
	.cfi_def_cfa 8, 0
	sw	a0,-20(s0)
	.loc 1 599 3
	li	a1,0
	lw	a0,-20(s0)
	call	altcp_arg
	.loc 1 600 3
	li	a1,0
	lw	a0,-20(s0)
	call	altcp_recv
	.loc 1 601 3
	li	a1,0
	lw	a0,-20(s0)
	call	altcp_sent
	.loc 1 602 3
	li	a1,0
	lw	a0,-20(s0)
	call	altcp_err
	.loc 1 603 3
	lw	a5,-20(s0)
	lbu	a5,40(a5)
	mv	a2,a5
	li	a1,0
	lw	a0,-20(s0)
	call	altcp_poll
	.loc 1 604 1
	nop
	lw	ra,28(sp)
	.cfi_restore 1
	lw	s0,24(sp)
	.cfi_restore 8
	.cfi_def_cfa 2, 32
	addi	sp,sp,32
	.cfi_def_cfa_offset 0
	jr	ra
	.cfi_endproc
.LFE102:
	.size	altcp_mbedtls_remove_callbacks, .-altcp_mbedtls_remove_callbacks
	.section	.text.altcp_mbedtls_setup_callbacks,"ax",@progbits
	.align	1
	.type	altcp_mbedtls_setup_callbacks, @function
altcp_mbedtls_setup_callbacks:
.LFB103:
	.loc 1 608 1
	.cfi_startproc
	addi	sp,sp,-32
	.cfi_def_cfa_offset 32
	sw	ra,28(sp)
	sw	s0,24(sp)
	.cfi_offset 1, -4
	.cfi_offset 8, -8
	addi	s0,sp,32
	.cfi_def_cfa 8, 0
	sw	a0,-20(s0)
	sw	a1,-24(s0)
	.loc 1 609 3
	lw	a1,-20(s0)
	lw	a0,-24(s0)
	call	altcp_arg
	.loc 1 610 3
	lui	a5,%hi(altcp_mbedtls_lower_recv)
	addi	a1,a5,%lo(altcp_mbedtls_lower_recv)
	lw	a0,-24(s0)
	call	altcp_recv
	.loc 1 611 3
	lui	a5,%hi(altcp_mbedtls_lower_sent)
	addi	a1,a5,%lo(altcp_mbedtls_lower_sent)
	lw	a0,-24(s0)
	call	altcp_sent
	.loc 1 612 3
	lui	a5,%hi(altcp_mbedtls_lower_err)
	addi	a1,a5,%lo(altcp_mbedtls_lower_err)
	lw	a0,-24(s0)
	call	altcp_err
	.loc 1 615 1
	nop
	lw	ra,28(sp)
	.cfi_restore 1
	lw	s0,24(sp)
	.cfi_restore 8
	.cfi_def_cfa 2, 32
	addi	sp,sp,32
	.cfi_def_cfa_offset 0
	jr	ra
	.cfi_endproc
.LFE103:
	.size	altcp_mbedtls_setup_callbacks, .-altcp_mbedtls_setup_callbacks
	.section	.text.altcp_mbedtls_setup,"ax",@progbits
	.align	1
	.type	altcp_mbedtls_setup, @function
altcp_mbedtls_setup:
.LFB104:
	.loc 1 619 1
	.cfi_startproc
	addi	sp,sp,-48
	.cfi_def_cfa_offset 48
	sw	ra,44(sp)
	sw	s0,40(sp)
	.cfi_offset 1, -4
	.cfi_offset 8, -8
	addi	s0,sp,48
	.cfi_def_cfa 8, 0
	sw	a0,-36(s0)
	sw	a1,-40(s0)
	sw	a2,-44(s0)
	.loc 1 621 28
	lw	a5,-36(s0)
	sw	a5,-20(s0)
	.loc 1 623 6
	lw	a5,-36(s0)
	bne	a5,zero,.L89
	.loc 1 624 12
	li	a5,-16
	j	.L90
.L89:
	.loc 1 629 11
	lw	a0,-36(s0)
	call	altcp_mbedtls_alloc
	sw	a0,-24(s0)
	.loc 1 630 6
	lw	a5,-24(s0)
	bne	a5,zero,.L91
	.loc 1 631 12
	li	a5,-1
	j	.L90
.L91:
	.loc 1 634 3
	lw	a5,-24(s0)
	addi	a5,a5,8
	mv	a0,a5
	call	mbedtls_ssl_init
	.loc 1 635 9
	lw	a5,-24(s0)
	addi	a5,a5,8
	.loc 1 635 48
	lw	a4,-20(s0)
	.loc 1 635 9
	mv	a1,a4
	mv	a0,a5
	call	mbedtls_ssl_setup
	sw	a0,-28(s0)
	.loc 1 636 6
	lw	a5,-28(s0)
	beq	a5,zero,.L92
	.loc 1 639 5
	lw	a1,-24(s0)
	lw	a0,-36(s0)
	call	altcp_mbedtls_free
	.loc 1 640 12
	li	a5,-1
	j	.L90
.L92:
	.loc 1 643 3
	lw	a5,-24(s0)
	addi	a0,a5,8
	li	a4,0
	lui	a5,%hi(altcp_mbedtls_bio_recv)
	addi	a3,a5,%lo(altcp_mbedtls_bio_recv)
	lui	a5,%hi(altcp_mbedtls_bio_send)
	addi	a2,a5,%lo(altcp_mbedtls_bio_send)
	lw	a1,-40(s0)
	call	mbedtls_ssl_set_bio
	.loc 1 645 3
	lw	a1,-44(s0)
	lw	a0,-40(s0)
	call	altcp_mbedtls_setup_callbacks
	.loc 1 646 20
	lw	a5,-40(s0)
	lw	a4,-44(s0)
	sw	a4,4(a5)
	.loc 1 647 13
	lw	a5,-40(s0)
	lui	a4,%hi(altcp_mbedtls_functions)
	addi	a4,a4,%lo(altcp_mbedtls_functions)
	sw	a4,0(a5)
	.loc 1 648 15
	lw	a5,-40(s0)
	lw	a4,-24(s0)
	sw	a4,12(a5)
	.loc 1 649 10
	li	a5,0
.L90:
	.loc 1 650 1
	mv	a0,a5
	lw	ra,44(sp)
	.cfi_restore 1
	lw	s0,40(sp)
	.cfi_restore 8
	.cfi_def_cfa 2, 48
	addi	sp,sp,48
	.cfi_def_cfa_offset 0
	jr	ra
	.cfi_endproc
.LFE104:
	.size	altcp_mbedtls_setup, .-altcp_mbedtls_setup
	.section	.text.altcp_tls_wrap,"ax",@progbits
	.align	1
	.globl	altcp_tls_wrap
	.type	altcp_tls_wrap, @function
altcp_tls_wrap:
.LFB105:
	.loc 1 654 1
	.cfi_startproc
	addi	sp,sp,-48
	.cfi_def_cfa_offset 48
	sw	ra,44(sp)
	sw	s0,40(sp)
	.cfi_offset 1, -4
	.cfi_offset 8, -8
	addi	s0,sp,48
	.cfi_def_cfa 8, 0
	sw	a0,-36(s0)
	sw	a1,-40(s0)
	.loc 1 656 6
	lw	a5,-40(s0)
	bne	a5,zero,.L94
	.loc 1 657 11
	li	a5,0
	j	.L95
.L94:
	.loc 1 659 9
	call	altcp_alloc
	sw	a0,-20(s0)
	.loc 1 660 6
	lw	a5,-20(s0)
	beq	a5,zero,.L96
	.loc 1 661 9
	lw	a2,-40(s0)
	lw	a1,-20(s0)
	lw	a0,-36(s0)
	call	altcp_mbedtls_setup
	mv	a5,a0
	.loc 1 661 8 discriminator 1
	beq	a5,zero,.L96
	.loc 1 662 7
	lw	a0,-20(s0)
	call	altcp_free
	.loc 1 663 13
	li	a5,0
	j	.L95
.L96:
	.loc 1 666 10
	lw	a5,-20(s0)
.L95:
	.loc 1 667 1
	mv	a0,a5
	lw	ra,44(sp)
	.cfi_restore 1
	lw	s0,40(sp)
	.cfi_restore 8
	.cfi_def_cfa 2, 48
	addi	sp,sp,48
	.cfi_def_cfa_offset 0
	jr	ra
	.cfi_endproc
.LFE105:
	.size	altcp_tls_wrap, .-altcp_tls_wrap
	.section	.text.altcp_tls_init_session,"ax",@progbits
	.align	1
	.globl	altcp_tls_init_session
	.type	altcp_tls_init_session, @function
altcp_tls_init_session:
.LFB106:
	.loc 1 671 1
	.cfi_startproc
	addi	sp,sp,-32
	.cfi_def_cfa_offset 32
	sw	ra,28(sp)
	sw	s0,24(sp)
	.cfi_offset 1, -4
	.cfi_offset 8, -8
	addi	s0,sp,32
	.cfi_def_cfa 8, 0
	sw	a0,-20(s0)
	.loc 1 672 6
	lw	a5,-20(s0)
	beq	a5,zero,.L99
	.loc 1 673 5
	lw	a5,-20(s0)
	mv	a0,a5
	call	mbedtls_ssl_session_init
.L99:
	.loc 1 674 1
	nop
	lw	ra,28(sp)
	.cfi_restore 1
	lw	s0,24(sp)
	.cfi_restore 8
	.cfi_def_cfa 2, 32
	addi	sp,sp,32
	.cfi_def_cfa_offset 0
	jr	ra
	.cfi_endproc
.LFE106:
	.size	altcp_tls_init_session, .-altcp_tls_init_session
	.section	.text.altcp_tls_free_session,"ax",@progbits
	.align	1
	.globl	altcp_tls_free_session
	.type	altcp_tls_free_session, @function
altcp_tls_free_session:
.LFB107:
	.loc 1 704 1
	.cfi_startproc
	addi	sp,sp,-32
	.cfi_def_cfa_offset 32
	sw	ra,28(sp)
	sw	s0,24(sp)
	.cfi_offset 1, -4
	.cfi_offset 8, -8
	addi	s0,sp,32
	.cfi_def_cfa 8, 0
	sw	a0,-20(s0)
	.loc 1 705 6
	lw	a5,-20(s0)
	beq	a5,zero,.L102
	.loc 1 706 5
	lw	a5,-20(s0)
	mv	a0,a5
	call	mbedtls_ssl_session_free
.L102:
	.loc 1 707 1
	nop
	lw	ra,28(sp)
	.cfi_restore 1
	lw	s0,24(sp)
	.cfi_restore 8
	.cfi_def_cfa 2, 32
	addi	sp,sp,32
	.cfi_def_cfa_offset 0
	jr	ra
	.cfi_endproc
.LFE107:
	.size	altcp_tls_free_session, .-altcp_tls_free_session
	.section	.text.altcp_tls_context,"ax",@progbits
	.align	1
	.globl	altcp_tls_context
	.type	altcp_tls_context, @function
altcp_tls_context:
.LFB108:
	.loc 1 711 1
	.cfi_startproc
	addi	sp,sp,-48
	.cfi_def_cfa_offset 48
	sw	ra,44(sp)
	sw	s0,40(sp)
	.cfi_offset 1, -4
	.cfi_offset 8, -8
	addi	s0,sp,48
	.cfi_def_cfa 8, 0
	sw	a0,-36(s0)
	.loc 1 712 6
	lw	a5,-36(s0)
	beq	a5,zero,.L104
	.loc 1 712 19 discriminator 1
	lw	a5,-36(s0)
	lw	a5,12(a5)
	.loc 1 712 12 discriminator 1
	beq	a5,zero,.L104
.LBB14:
	.loc 1 713 28
	lw	a5,-36(s0)
	lw	a5,12(a5)
	sw	a5,-20(s0)
	.loc 1 714 12
	lw	a5,-20(s0)
	addi	a5,a5,8
	j	.L105
.L104:
.LBE14:
	.loc 1 716 9
	li	a5,0
.L105:
	.loc 1 717 1
	mv	a0,a5
	lw	ra,44(sp)
	.cfi_restore 1
	lw	s0,40(sp)
	.cfi_restore 8
	.cfi_def_cfa 2, 48
	addi	sp,sp,48
	.cfi_def_cfa_offset 0
	jr	ra
	.cfi_endproc
.LFE108:
	.size	altcp_tls_context, .-altcp_tls_context
	.section	.text.altcp_mbedtls_ref_entropy,"ax",@progbits
	.align	1
	.type	altcp_mbedtls_ref_entropy, @function
altcp_mbedtls_ref_entropy:
.LFB109:
	.loc 1 736 1
	.cfi_startproc
	addi	sp,sp,-32
	.cfi_def_cfa_offset 32
	sw	ra,28(sp)
	sw	s0,24(sp)
	.cfi_offset 1, -4
	.cfi_offset 8, -8
	addi	s0,sp,32
	.cfi_def_cfa 8, 0
	.loc 1 739 7
	lui	a5,%hi(altcp_tls_entropy_rng)
	lw	a5,%lo(altcp_tls_entropy_rng)(a5)
	.loc 1 739 6
	bne	a5,zero,.L107
	.loc 1 740 61
	li	a0,744
	call	altcp_mbedtls_alloc_config
	mv	a4,a0
	.loc 1 740 27 discriminator 1
	lui	a5,%hi(altcp_tls_entropy_rng)
	sw	a4,%lo(altcp_tls_entropy_rng)(a5)
	.loc 1 741 9
	lui	a5,%hi(altcp_tls_entropy_rng)
	lw	a5,%lo(altcp_tls_entropy_rng)(a5)
	.loc 1 741 8
	beq	a5,zero,.L108
.LBB15:
	.loc 1 743 28
	lui	a5,%hi(altcp_tls_entropy_rng)
	lw	a5,%lo(altcp_tls_entropy_rng)(a5)
	.loc 1 743 34
	li	a4,1
	sw	a4,740(a5)
	.loc 1 744 50
	lui	a5,%hi(altcp_tls_entropy_rng)
	lw	a5,%lo(altcp_tls_entropy_rng)(a5)
	.loc 1 744 7
	mv	a0,a5
	call	mbedtls_entropy_init
	.loc 1 745 51
	lui	a5,%hi(altcp_tls_entropy_rng)
	lw	a5,%lo(altcp_tls_entropy_rng)(a5)
	.loc 1 745 7
	addi	a5,a5,420
	mv	a0,a5
	call	mbedtls_ctr_drbg_init
	.loc 1 747 57
	lui	a5,%hi(altcp_tls_entropy_rng)
	lw	a5,%lo(altcp_tls_entropy_rng)(a5)
	.loc 1 747 13
	addi	a0,a5,420
	.loc 1 748 79
	lui	a5,%hi(altcp_tls_entropy_rng)
	lw	a5,%lo(altcp_tls_entropy_rng)(a5)
	.loc 1 747 13
	li	a4,0
	li	a3,0
	mv	a2,a5
	lui	a5,%hi(mbedtls_entropy_func)
	addi	a1,a5,%lo(mbedtls_entropy_func)
	call	mbedtls_ctr_drbg_seed
	sw	a0,-20(s0)
	.loc 1 750 10
	lw	a5,-20(s0)
	beq	a5,zero,.L109
	.loc 1 752 53
	lui	a5,%hi(altcp_tls_entropy_rng)
	lw	a5,%lo(altcp_tls_entropy_rng)(a5)
	.loc 1 752 9
	addi	a5,a5,420
	mv	a0,a5
	call	mbedtls_ctr_drbg_free
	.loc 1 753 52
	lui	a5,%hi(altcp_tls_entropy_rng)
	lw	a5,%lo(altcp_tls_entropy_rng)(a5)
	.loc 1 753 9
	mv	a0,a5
	call	mbedtls_entropy_free
	.loc 1 754 9
	lui	a5,%hi(altcp_tls_entropy_rng)
	lw	a5,%lo(altcp_tls_entropy_rng)(a5)
	mv	a0,a5
	call	altcp_mbedtls_free_config
	.loc 1 755 31
	lui	a5,%hi(altcp_tls_entropy_rng)
	sw	zero,%lo(altcp_tls_entropy_rng)(a5)
	.loc 1 756 16
	li	a5,-16
	j	.L110
.L108:
.LBE15:
	.loc 1 759 14
	li	a5,-1
	j	.L110
.L107:
	.loc 1 762 26
	lui	a5,%hi(altcp_tls_entropy_rng)
	lw	a5,%lo(altcp_tls_entropy_rng)(a5)
	lw	a4,740(a5)
	.loc 1 762 31
	addi	a4,a4,1
	sw	a4,740(a5)
.L109:
	.loc 1 764 10
	li	a5,0
.L110:
	.loc 1 765 1
	mv	a0,a5
	lw	ra,28(sp)
	.cfi_restore 1
	lw	s0,24(sp)
	.cfi_restore 8
	.cfi_def_cfa 2, 32
	addi	sp,sp,32
	.cfi_def_cfa_offset 0
	jr	ra
	.cfi_endproc
.LFE109:
	.size	altcp_mbedtls_ref_entropy, .-altcp_mbedtls_ref_entropy
	.section	.text.altcp_mbedtls_unref_entropy,"ax",@progbits
	.align	1
	.type	altcp_mbedtls_unref_entropy, @function
altcp_mbedtls_unref_entropy:
.LFB110:
	.loc 1 769 1
	.cfi_startproc
	addi	sp,sp,-16
	.cfi_def_cfa_offset 16
	sw	ra,12(sp)
	sw	s0,8(sp)
	.cfi_offset 1, -4
	.cfi_offset 8, -8
	addi	s0,sp,16
	.cfi_def_cfa 8, 0
	.loc 1 772 7
	lui	a5,%hi(altcp_tls_entropy_rng)
	lw	a5,%lo(altcp_tls_entropy_rng)(a5)
	.loc 1 772 6
	beq	a5,zero,.L113
	.loc 1 772 53 discriminator 1
	lui	a5,%hi(altcp_tls_entropy_rng)
	lw	a5,%lo(altcp_tls_entropy_rng)(a5)
	lw	a5,740(a5)
	.loc 1 772 29 discriminator 1
	beq	a5,zero,.L113
	.loc 1 773 28
	lui	a5,%hi(altcp_tls_entropy_rng)
	lw	a5,%lo(altcp_tls_entropy_rng)(a5)
	lw	a4,740(a5)
	.loc 1 773 33
	addi	a4,a4,-1
	sw	a4,740(a5)
.L113:
	.loc 1 775 1
	nop
	lw	ra,12(sp)
	.cfi_restore 1
	lw	s0,8(sp)
	.cfi_restore 8
	.cfi_def_cfa 2, 16
	addi	sp,sp,16
	.cfi_def_cfa_offset 0
	jr	ra
	.cfi_endproc
.LFE110:
	.size	altcp_mbedtls_unref_entropy, .-altcp_mbedtls_unref_entropy
	.section	.text.altcp_tls_create_config,"ax",@progbits
	.align	1
	.type	altcp_tls_create_config, @function
altcp_tls_create_config:
.LFB111:
	.loc 1 782 1
	.cfi_startproc
	addi	sp,sp,-48
	.cfi_def_cfa_offset 48
	sw	ra,44(sp)
	sw	s0,40(sp)
	.cfi_offset 1, -4
	.cfi_offset 8, -8
	addi	s0,sp,48
	.cfi_def_cfa 8, 0
	sw	a0,-36(s0)
	mv	a5,a1
	mv	a4,a2
	sw	a3,-44(s0)
	sb	a5,-37(s0)
	mv	a5,a4
	sb	a5,-38(s0)
	.loc 1 793 3
	call	altcp_mbedtls_mem_init
	.loc 1 795 6
	li	a5,260
	sw	a5,-20(s0)
	.loc 1 796 6
	lbu	a5,-37(s0)
	beq	a5,zero,.L115
	.loc 1 797 23
	lbu	a4,-37(s0)
	li	a5,404
	mul	a5,a4,a5
	.loc 1 797 8
	lw	a4,-20(s0)
	add	a5,a4,a5
	sw	a5,-20(s0)
.L115:
	.loc 1 799 6
	lw	a5,-44(s0)
	beq	a5,zero,.L116
	.loc 1 800 8
	lw	a5,-20(s0)
	addi	a5,a5,404
	sw	a5,-20(s0)
.L116:
	.loc 1 802 6
	lbu	a5,-38(s0)
	beq	a5,zero,.L117
	.loc 1 803 23
	lbu	a5,-38(s0)
	slli	a5,a5,3
	.loc 1 803 8
	lw	a4,-20(s0)
	add	a5,a4,a5
	sw	a5,-20(s0)
.L117:
	.loc 1 806 37
	lw	a0,-20(s0)
	call	altcp_mbedtls_alloc_config
	sw	a0,-28(s0)
	.loc 1 807 6
	lw	a5,-28(s0)
	bne	a5,zero,.L118
	.loc 1 808 11
	li	a5,0
	j	.L119
.L118:
	.loc 1 810 18
	lw	a5,-28(s0)
	lbu	a4,-37(s0)
	sb	a4,253(a5)
	.loc 1 811 7
	lw	a5,-28(s0)
	addi	a5,a5,260
	sw	a5,-24(s0)
	.loc 1 812 6
	lbu	a5,-37(s0)
	beq	a5,zero,.L120
	.loc 1 813 16
	lw	a5,-28(s0)
	lw	a4,-24(s0)
	sw	a4,244(a5)
	.loc 1 814 9
	lbu	a4,-37(s0)
	li	a5,404
	mul	a5,a4,a5
	lw	a4,-24(s0)
	add	a5,a4,a5
	sw	a5,-24(s0)
.L120:
	.loc 1 816 6
	lw	a5,-44(s0)
	beq	a5,zero,.L121
	.loc 1 817 14
	lw	a5,-28(s0)
	lw	a4,-24(s0)
	sw	a4,256(a5)
	.loc 1 818 8
	lw	a5,-24(s0)
	addi	a5,a5,404
	sw	a5,-24(s0)
.L121:
	.loc 1 820 18
	lw	a5,-28(s0)
	lbu	a4,-38(s0)
	sb	a4,255(a5)
	.loc 1 821 6
	lbu	a5,-38(s0)
	beq	a5,zero,.L122
	.loc 1 822 16
	lw	a5,-28(s0)
	lw	a4,-24(s0)
	sw	a4,248(a5)
.L122:
	.loc 1 825 3
	lw	a5,-28(s0)
	mv	a0,a5
	call	mbedtls_ssl_config_init
	.loc 1 827 7
	call	altcp_mbedtls_ref_entropy
	mv	a5,a0
	.loc 1 827 6 discriminator 1
	beq	a5,zero,.L123
	.loc 1 828 5
	lw	a0,-28(s0)
	call	altcp_mbedtls_free_config
	.loc 1 829 11
	li	a5,0
	j	.L119
.L123:
	.loc 1 833 9
	lw	a4,-28(s0)
	lw	a5,-36(s0)
	snez	a5,a5
	andi	a5,a5,0xff
	li	a3,0
	li	a2,0
	mv	a1,a5
	mv	a0,a4
	call	mbedtls_ssl_config_defaults
	sw	a0,-32(s0)
	.loc 1 835 6
	lw	a5,-32(s0)
	beq	a5,zero,.L124
	.loc 1 837 5
	call	altcp_mbedtls_unref_entropy
	.loc 1 838 5
	lw	a0,-28(s0)
	call	altcp_mbedtls_free_config
	.loc 1 839 11
	li	a5,0
	j	.L119
.L124:
	.loc 1 841 3
	lw	a5,-28(s0)
	li	a1,1
	mv	a0,a5
	call	mbedtls_ssl_conf_authmode
	.loc 1 843 3
	lw	a4,-28(s0)
	.loc 1 843 84
	lui	a5,%hi(altcp_tls_entropy_rng)
	lw	a5,%lo(altcp_tls_entropy_rng)(a5)
	.loc 1 843 62
	addi	a5,a5,420
	.loc 1 843 3
	mv	a2,a5
	lui	a5,%hi(mbedtls_ctr_drbg_random)
	addi	a1,a5,%lo(mbedtls_ctr_drbg_random)
	mv	a0,a4
	call	mbedtls_ssl_conf_rng
	.loc 1 869 10
	lw	a5,-28(s0)
.L119:
	.loc 1 870 1
	mv	a0,a5
	lw	ra,44(sp)
	.cfi_restore 1
	lw	s0,40(sp)
	.cfi_restore 8
	.cfi_def_cfa 2, 48
	addi	sp,sp,48
	.cfi_def_cfa_offset 0
	jr	ra
	.cfi_endproc
.LFE111:
	.size	altcp_tls_create_config, .-altcp_tls_create_config
	.section	.text.altcp_tls_create_config_server,"ax",@progbits
	.align	1
	.globl	altcp_tls_create_config_server
	.type	altcp_tls_create_config_server, @function
altcp_tls_create_config_server:
.LFB112:
	.loc 1 873 1
	.cfi_startproc
	addi	sp,sp,-48
	.cfi_def_cfa_offset 48
	sw	ra,44(sp)
	sw	s0,40(sp)
	.cfi_offset 1, -4
	.cfi_offset 8, -8
	addi	s0,sp,48
	.cfi_def_cfa 8, 0
	mv	a5,a0
	sb	a5,-33(s0)
	.loc 1 874 35
	lbu	a4,-33(s0)
	lbu	a5,-33(s0)
	li	a3,0
	mv	a2,a4
	mv	a1,a5
	li	a0,1
	call	altcp_tls_create_config
	sw	a0,-20(s0)
	.loc 1 875 6
	lw	a5,-20(s0)
	bne	a5,zero,.L126
	.loc 1 876 11
	li	a5,0
	j	.L127
.L126:
	.loc 1 879 3
	lw	a5,-20(s0)
	li	a2,0
	li	a1,0
	mv	a0,a5
	call	mbedtls_ssl_conf_ca_chain
	.loc 1 880 10
	lw	a5,-20(s0)
.L127:
	.loc 1 881 1
	mv	a0,a5
	lw	ra,44(sp)
	.cfi_restore 1
	lw	s0,40(sp)
	.cfi_restore 8
	.cfi_def_cfa 2, 48
	addi	sp,sp,48
	.cfi_def_cfa_offset 0
	jr	ra
	.cfi_endproc
.LFE112:
	.size	altcp_tls_create_config_server, .-altcp_tls_create_config_server
	.section	.text.altcp_tls_config_server_add_privkey_cert,"ax",@progbits
	.align	1
	.globl	altcp_tls_config_server_add_privkey_cert
	.type	altcp_tls_config_server_add_privkey_cert, @function
altcp_tls_config_server_add_privkey_cert:
.LFB113:
	.loc 1 887 1
	.cfi_startproc
	addi	sp,sp,-64
	.cfi_def_cfa_offset 64
	sw	ra,60(sp)
	sw	s0,56(sp)
	.cfi_offset 1, -4
	.cfi_offset 8, -8
	addi	s0,sp,64
	.cfi_def_cfa 8, 0
	sw	a0,-36(s0)
	sw	a1,-40(s0)
	sw	a2,-44(s0)
	sw	a3,-48(s0)
	sw	a4,-52(s0)
	sw	a5,-56(s0)
	sw	a6,-60(s0)
	.loc 1 892 13
	lw	a5,-36(s0)
	lbu	a4,252(a5)
	.loc 1 892 35
	lw	a5,-36(s0)
	lbu	a5,253(a5)
	.loc 1 892 6
	bltu	a4,a5,.L129
	.loc 1 893 12
	li	a5,-1
	j	.L130
.L129:
	.loc 1 895 13
	lw	a5,-36(s0)
	lbu	a4,254(a5)
	.loc 1 895 35
	lw	a5,-36(s0)
	lbu	a5,255(a5)
	.loc 1 895 6
	bltu	a4,a5,.L131
	.loc 1 896 12
	li	a5,-1
	j	.L130
.L131:
	.loc 1 899 19
	lw	a5,-36(s0)
	lw	a4,244(a5)
	.loc 1 899 34
	lw	a5,-36(s0)
	lbu	a5,252(a5)
	mv	a3,a5
	.loc 1 899 26
	li	a5,404
	mul	a5,a3,a5
	.loc 1 899 11
	add	a5,a4,a5
	sw	a5,-20(s0)
	.loc 1 900 3
	lw	a0,-20(s0)
	call	mbedtls_x509_crt_init
	.loc 1 902 16
	lw	a5,-36(s0)
	lw	a4,248(a5)
	.loc 1 902 31
	lw	a5,-36(s0)
	lbu	a5,254(a5)
	.loc 1 902 23
	slli	a5,a5,3
	.loc 1 902 8
	add	a5,a4,a5
	sw	a5,-24(s0)
	.loc 1 903 3
	lw	a0,-24(s0)
	call	mbedtls_pk_init
	.loc 1 906 9
	lw	a2,-60(s0)
	lw	a1,-56(s0)
	lw	a0,-20(s0)
	call	mbedtls_x509_crt_parse
	sw	a0,-28(s0)
	.loc 1 907 6
	lw	a5,-28(s0)
	beq	a5,zero,.L132
	.loc 1 909 12
	li	a5,-6
	j	.L130
.L132:
	.loc 1 912 161
	lui	a5,%hi(altcp_tls_entropy_rng)
	lw	a5,%lo(altcp_tls_entropy_rng)(a5)
	.loc 1 912 139
	addi	a5,a5,420
	.loc 1 912 9
	mv	a6,a5
	lui	a5,%hi(mbedtls_ctr_drbg_random)
	addi	a5,a5,%lo(mbedtls_ctr_drbg_random)
	lw	a4,-52(s0)
	lw	a3,-48(s0)
	lw	a2,-44(s0)
	lw	a1,-40(s0)
	lw	a0,-24(s0)
	call	mbedtls_pk_parse_key
	sw	a0,-28(s0)
	.loc 1 913 6
	lw	a5,-28(s0)
	beq	a5,zero,.L133
	.loc 1 915 5
	lw	a0,-20(s0)
	call	mbedtls_x509_crt_free
	.loc 1 916 12
	li	a5,-6
	j	.L130
.L133:
	.loc 1 919 9
	lw	a5,-36(s0)
	lw	a2,-24(s0)
	lw	a1,-20(s0)
	mv	a0,a5
	call	mbedtls_ssl_conf_own_cert
	sw	a0,-28(s0)
	.loc 1 920 6
	lw	a5,-28(s0)
	beq	a5,zero,.L134
	.loc 1 922 5
	lw	a0,-20(s0)
	call	mbedtls_x509_crt_free
	.loc 1 923 5
	lw	a0,-24(s0)
	call	mbedtls_pk_free
	.loc 1 924 12
	li	a5,-6
	j	.L130
.L134:
	.loc 1 927 9
	lw	a5,-36(s0)
	lbu	a5,252(a5)
	.loc 1 927 21
	addi	a5,a5,1
	andi	a4,a5,0xff
	lw	a5,-36(s0)
	sb	a4,252(a5)
	.loc 1 928 9
	lw	a5,-36(s0)
	lbu	a5,254(a5)
	.loc 1 928 21
	addi	a5,a5,1
	andi	a4,a5,0xff
	lw	a5,-36(s0)
	sb	a4,254(a5)
	.loc 1 929 10
	li	a5,0
.L130:
	.loc 1 930 1
	mv	a0,a5
	lw	ra,60(sp)
	.cfi_restore 1
	lw	s0,56(sp)
	.cfi_restore 8
	.cfi_def_cfa 2, 64
	addi	sp,sp,64
	.cfi_def_cfa_offset 0
	jr	ra
	.cfi_endproc
.LFE113:
	.size	altcp_tls_config_server_add_privkey_cert, .-altcp_tls_config_server_add_privkey_cert
	.section	.text.altcp_tls_create_config_server_privkey_cert,"ax",@progbits
	.align	1
	.globl	altcp_tls_create_config_server_privkey_cert
	.type	altcp_tls_create_config_server_privkey_cert, @function
altcp_tls_create_config_server_privkey_cert:
.LFB114:
	.loc 1 940 1
	.cfi_startproc
	addi	sp,sp,-64
	.cfi_def_cfa_offset 64
	sw	ra,60(sp)
	sw	s0,56(sp)
	.cfi_offset 1, -4
	.cfi_offset 8, -8
	addi	s0,sp,64
	.cfi_def_cfa 8, 0
	sw	a0,-36(s0)
	sw	a1,-40(s0)
	sw	a2,-44(s0)
	sw	a3,-48(s0)
	sw	a4,-52(s0)
	sw	a5,-56(s0)
	.loc 1 941 35
	li	a0,1
	call	altcp_tls_create_config_server
	sw	a0,-20(s0)
	.loc 1 942 6
	lw	a5,-20(s0)
	bne	a5,zero,.L136
	.loc 1 943 11
	li	a5,0
	j	.L137
.L136:
	.loc 1 946 7
	lw	a6,-56(s0)
	lw	a5,-52(s0)
	lw	a4,-48(s0)
	lw	a3,-44(s0)
	lw	a2,-40(s0)
	lw	a1,-36(s0)
	lw	a0,-20(s0)
	call	altcp_tls_config_server_add_privkey_cert
	mv	a5,a0
	.loc 1 946 6 discriminator 1
	beq	a5,zero,.L138
	.loc 1 948 5
	lw	a0,-20(s0)
	call	altcp_tls_free_config
	.loc 1 949 11
	li	a5,0
	j	.L137
.L138:
	.loc 1 952 10
	lw	a5,-20(s0)
.L137:
	.loc 1 953 1
	mv	a0,a5
	lw	ra,60(sp)
	.cfi_restore 1
	lw	s0,56(sp)
	.cfi_restore 8
	.cfi_def_cfa 2, 64
	addi	sp,sp,64
	.cfi_def_cfa_offset 0
	jr	ra
	.cfi_endproc
.LFE114:
	.size	altcp_tls_create_config_server_privkey_cert, .-altcp_tls_create_config_server_privkey_cert
	.section	.text.altcp_tls_create_config_client_common,"ax",@progbits
	.align	1
	.type	altcp_tls_create_config_client_common, @function
altcp_tls_create_config_client_common:
.LFB115:
	.loc 1 957 1
	.cfi_startproc
	addi	sp,sp,-48
	.cfi_def_cfa_offset 48
	sw	ra,44(sp)
	sw	s0,40(sp)
	.cfi_offset 1, -4
	.cfi_offset 8, -8
	addi	s0,sp,48
	.cfi_def_cfa 8, 0
	sw	a0,-36(s0)
	sw	a1,-40(s0)
	sw	a2,-44(s0)
	.loc 1 959 35
	lw	a5,-44(s0)
	snez	a5,a5
	andi	a5,a5,0xff
	mv	a4,a5
	lw	a5,-44(s0)
	snez	a5,a5
	andi	a5,a5,0xff
	mv	a2,a5
	lw	a5,-36(s0)
	snez	a5,a5
	andi	a5,a5,0xff
	mv	a3,a5
	mv	a1,a4
	li	a0,0
	call	altcp_tls_create_config
	sw	a0,-20(s0)
	.loc 1 960 6
	lw	a5,-20(s0)
	bne	a5,zero,.L140
	.loc 1 961 11
	li	a5,0
	j	.L141
.L140:
	.loc 1 967 6
	lw	a5,-36(s0)
	beq	a5,zero,.L142
	.loc 1 968 5
	lw	a5,-20(s0)
	lw	a5,256(a5)
	mv	a0,a5
	call	mbedtls_x509_crt_init
	.loc 1 969 11
	lw	a5,-20(s0)
	lw	a5,256(a5)
	lw	a2,-40(s0)
	lw	a1,-36(s0)
	mv	a0,a5
	call	mbedtls_x509_crt_parse
	sw	a0,-24(s0)
	.loc 1 970 8
	lw	a5,-24(s0)
	beq	a5,zero,.L143
	.loc 1 972 7
	lw	a0,-20(s0)
	call	altcp_tls_free_config
	.loc 1 973 13
	li	a5,0
	j	.L141
.L143:
	.loc 1 976 5
	lw	a4,-20(s0)
	lw	a5,-20(s0)
	lw	a5,256(a5)
	li	a2,0
	mv	a1,a5
	mv	a0,a4
	call	mbedtls_ssl_conf_ca_chain
.L142:
	.loc 1 978 10
	lw	a5,-20(s0)
.L141:
	.loc 1 979 1
	mv	a0,a5
	lw	ra,44(sp)
	.cfi_restore 1
	lw	s0,40(sp)
	.cfi_restore 8
	.cfi_def_cfa 2, 48
	addi	sp,sp,48
	.cfi_def_cfa_offset 0
	jr	ra
	.cfi_endproc
.LFE115:
	.size	altcp_tls_create_config_client_common, .-altcp_tls_create_config_client_common
	.section	.text.altcp_tls_create_config_client,"ax",@progbits
	.align	1
	.globl	altcp_tls_create_config_client
	.type	altcp_tls_create_config_client, @function
altcp_tls_create_config_client:
.LFB116:
	.loc 1 983 1
	.cfi_startproc
	addi	sp,sp,-32
	.cfi_def_cfa_offset 32
	sw	ra,28(sp)
	sw	s0,24(sp)
	.cfi_offset 1, -4
	.cfi_offset 8, -8
	addi	s0,sp,32
	.cfi_def_cfa 8, 0
	sw	a0,-20(s0)
	sw	a1,-24(s0)
	.loc 1 984 10
	li	a2,0
	lw	a1,-24(s0)
	lw	a0,-20(s0)
	call	altcp_tls_create_config_client_common
	mv	a5,a0
	.loc 1 985 1
	mv	a0,a5
	lw	ra,28(sp)
	.cfi_restore 1
	lw	s0,24(sp)
	.cfi_restore 8
	.cfi_def_cfa 2, 32
	addi	sp,sp,32
	.cfi_def_cfa_offset 0
	jr	ra
	.cfi_endproc
.LFE116:
	.size	altcp_tls_create_config_client, .-altcp_tls_create_config_client
	.section	.text.altcp_tls_create_config_client_2wayauth,"ax",@progbits
	.align	1
	.globl	altcp_tls_create_config_client_2wayauth
	.type	altcp_tls_create_config_client_2wayauth, @function
altcp_tls_create_config_client_2wayauth:
.LFB117:
	.loc 1 991 1
	.cfi_startproc
	addi	sp,sp,-64
	.cfi_def_cfa_offset 64
	sw	ra,60(sp)
	sw	s0,56(sp)
	.cfi_offset 1, -4
	.cfi_offset 8, -8
	addi	s0,sp,64
	.cfi_def_cfa 8, 0
	sw	a0,-36(s0)
	sw	a1,-40(s0)
	sw	a2,-44(s0)
	sw	a3,-48(s0)
	sw	a4,-52(s0)
	sw	a5,-56(s0)
	sw	a6,-60(s0)
	sw	a7,-64(s0)
	.loc 1 995 6
	lw	a5,-60(s0)
	beq	a5,zero,.L147
	.loc 1 995 13 discriminator 1
	lw	a5,-44(s0)
	bne	a5,zero,.L148
.L147:
	.loc 1 997 11
	li	a5,0
	j	.L149
.L148:
	.loc 1 1000 10
	li	a2,1
	lw	a1,-40(s0)
	lw	a0,-36(s0)
	call	altcp_tls_create_config_client_common
	sw	a0,-20(s0)
	.loc 1 1001 6
	lw	a5,-20(s0)
	bne	a5,zero,.L150
	.loc 1 1002 11
	li	a5,0
	j	.L149
.L150:
	.loc 1 1006 3
	lw	a5,-20(s0)
	lw	a5,244(a5)
	mv	a0,a5
	call	mbedtls_x509_crt_init
	.loc 1 1007 9
	lw	a5,-20(s0)
	lw	a5,244(a5)
	lw	a2,-64(s0)
	lw	a1,-60(s0)
	mv	a0,a5
	call	mbedtls_x509_crt_parse
	sw	a0,-24(s0)
	.loc 1 1008 6
	lw	a5,-24(s0)
	beq	a5,zero,.L151
	.loc 1 1010 5
	lw	a0,-20(s0)
	call	altcp_tls_free_config
	.loc 1 1011 11
	li	a5,0
	j	.L149
.L151:
	.loc 1 1014 3
	lw	a5,-20(s0)
	lw	a5,248(a5)
	mv	a0,a5
	call	mbedtls_pk_init
	.loc 1 1015 9
	lw	a5,-20(s0)
	lw	a0,248(a5)
	.loc 1 1015 143
	lui	a5,%hi(altcp_tls_entropy_rng)
	lw	a5,%lo(altcp_tls_entropy_rng)(a5)
	.loc 1 1015 121
	addi	a5,a5,420
	.loc 1 1015 9
	mv	a6,a5
	lui	a5,%hi(mbedtls_ctr_drbg_random)
	addi	a5,a5,%lo(mbedtls_ctr_drbg_random)
	lw	a4,-56(s0)
	lw	a3,-52(s0)
	lw	a2,-48(s0)
	lw	a1,-44(s0)
	call	mbedtls_pk_parse_key
	sw	a0,-24(s0)
	.loc 1 1016 6
	lw	a5,-24(s0)
	beq	a5,zero,.L152
	.loc 1 1018 5
	lw	a0,-20(s0)
	call	altcp_tls_free_config
	.loc 1 1019 11
	li	a5,0
	j	.L149
.L152:
	.loc 1 1022 9
	lw	a4,-20(s0)
	lw	a5,-20(s0)
	lw	a3,244(a5)
	lw	a5,-20(s0)
	lw	a5,248(a5)
	mv	a2,a5
	mv	a1,a3
	mv	a0,a4
	call	mbedtls_ssl_conf_own_cert
	sw	a0,-24(s0)
	.loc 1 1023 6
	lw	a5,-24(s0)
	beq	a5,zero,.L153
	.loc 1 1025 5
	lw	a0,-20(s0)
	call	altcp_tls_free_config
	.loc 1 1026 11
	li	a5,0
	j	.L149
.L153:
	.loc 1 1029 10
	lw	a5,-20(s0)
.L149:
	.loc 1 1030 1
	mv	a0,a5
	lw	ra,60(sp)
	.cfi_restore 1
	lw	s0,56(sp)
	.cfi_restore 8
	.cfi_def_cfa 2, 64
	addi	sp,sp,64
	.cfi_def_cfa_offset 0
	jr	ra
	.cfi_endproc
.LFE117:
	.size	altcp_tls_create_config_client_2wayauth, .-altcp_tls_create_config_client_2wayauth
	.section	.text.altcp_tls_configure_alpn_protocols,"ax",@progbits
	.align	1
	.globl	altcp_tls_configure_alpn_protocols
	.type	altcp_tls_configure_alpn_protocols, @function
altcp_tls_configure_alpn_protocols:
.LFB118:
	.loc 1 1034 1
	.cfi_startproc
	addi	sp,sp,-48
	.cfi_def_cfa_offset 48
	sw	ra,44(sp)
	sw	s0,40(sp)
	.cfi_offset 1, -4
	.cfi_offset 8, -8
	addi	s0,sp,48
	.cfi_def_cfa 8, 0
	sw	a0,-36(s0)
	sw	a1,-40(s0)
	.loc 1 1036 13
	lw	a5,-36(s0)
	lw	a1,-40(s0)
	mv	a0,a5
	call	mbedtls_ssl_conf_alpn_protocols
	sw	a0,-20(s0)
	.loc 1 1041 10
	lw	a5,-20(s0)
	.loc 1 1045 1
	mv	a0,a5
	lw	ra,44(sp)
	.cfi_restore 1
	lw	s0,40(sp)
	.cfi_restore 8
	.cfi_def_cfa 2, 48
	addi	sp,sp,48
	.cfi_def_cfa_offset 0
	jr	ra
	.cfi_endproc
.LFE118:
	.size	altcp_tls_configure_alpn_protocols, .-altcp_tls_configure_alpn_protocols
	.section	.text.altcp_tls_free_config,"ax",@progbits
	.align	1
	.globl	altcp_tls_free_config
	.type	altcp_tls_free_config, @function
altcp_tls_free_config:
.LFB119:
	.loc 1 1049 1
	.cfi_startproc
	addi	sp,sp,-32
	.cfi_def_cfa_offset 32
	sw	ra,28(sp)
	sw	s0,24(sp)
	.cfi_offset 1, -4
	.cfi_offset 8, -8
	addi	s0,sp,32
	.cfi_def_cfa 8, 0
	sw	a0,-20(s0)
	.loc 1 1050 11
	lw	a5,-20(s0)
	lw	a5,248(a5)
	.loc 1 1050 6
	beq	a5,zero,.L157
	.loc 1 1051 5
	lw	a5,-20(s0)
	lw	a5,248(a5)
	mv	a0,a5
	call	mbedtls_pk_free
.L157:
	.loc 1 1053 11
	lw	a5,-20(s0)
	lw	a5,244(a5)
	.loc 1 1053 6
	beq	a5,zero,.L158
	.loc 1 1054 5
	lw	a5,-20(s0)
	lw	a5,244(a5)
	mv	a0,a5
	call	mbedtls_x509_crt_free
.L158:
	.loc 1 1056 11
	lw	a5,-20(s0)
	lw	a5,256(a5)
	.loc 1 1056 6
	beq	a5,zero,.L159
	.loc 1 1057 5
	lw	a5,-20(s0)
	lw	a5,256(a5)
	mv	a0,a5
	call	mbedtls_x509_crt_free
.L159:
	.loc 1 1059 3
	lw	a5,-20(s0)
	mv	a0,a5
	call	mbedtls_ssl_config_free
	.loc 1 1060 3
	lw	a0,-20(s0)
	call	altcp_mbedtls_free_config
	.loc 1 1061 3
	call	altcp_mbedtls_unref_entropy
	.loc 1 1062 1
	nop
	lw	ra,28(sp)
	.cfi_restore 1
	lw	s0,24(sp)
	.cfi_restore 8
	.cfi_def_cfa 2, 32
	addi	sp,sp,32
	.cfi_def_cfa_offset 0
	jr	ra
	.cfi_endproc
.LFE119:
	.size	altcp_tls_free_config, .-altcp_tls_free_config
	.section	.text.altcp_tls_free_entropy,"ax",@progbits
	.align	1
	.globl	altcp_tls_free_entropy
	.type	altcp_tls_free_entropy, @function
altcp_tls_free_entropy:
.LFB120:
	.loc 1 1066 1
	.cfi_startproc
	addi	sp,sp,-16
	.cfi_def_cfa_offset 16
	sw	ra,12(sp)
	sw	s0,8(sp)
	.cfi_offset 1, -4
	.cfi_offset 8, -8
	addi	s0,sp,16
	.cfi_def_cfa 8, 0
	.loc 1 1069 7
	lui	a5,%hi(altcp_tls_entropy_rng)
	lw	a5,%lo(altcp_tls_entropy_rng)(a5)
	.loc 1 1069 6
	beq	a5,zero,.L162
	.loc 1 1069 53 discriminator 1
	lui	a5,%hi(altcp_tls_entropy_rng)
	lw	a5,%lo(altcp_tls_entropy_rng)(a5)
	lw	a5,740(a5)
	.loc 1 1069 29 discriminator 1
	bne	a5,zero,.L162
	.loc 1 1070 49
	lui	a5,%hi(altcp_tls_entropy_rng)
	lw	a5,%lo(altcp_tls_entropy_rng)(a5)
	.loc 1 1070 5
	addi	a5,a5,420
	mv	a0,a5
	call	mbedtls_ctr_drbg_free
	.loc 1 1071 48
	lui	a5,%hi(altcp_tls_entropy_rng)
	lw	a5,%lo(altcp_tls_entropy_rng)(a5)
	.loc 1 1071 5
	mv	a0,a5
	call	mbedtls_entropy_free
	.loc 1 1072 5
	lui	a5,%hi(altcp_tls_entropy_rng)
	lw	a5,%lo(altcp_tls_entropy_rng)(a5)
	mv	a0,a5
	call	altcp_mbedtls_free_config
	.loc 1 1073 27
	lui	a5,%hi(altcp_tls_entropy_rng)
	sw	zero,%lo(altcp_tls_entropy_rng)(a5)
.L162:
	.loc 1 1075 1
	nop
	lw	ra,12(sp)
	.cfi_restore 1
	lw	s0,8(sp)
	.cfi_restore 8
	.cfi_def_cfa 2, 16
	addi	sp,sp,16
	.cfi_def_cfa_offset 0
	jr	ra
	.cfi_endproc
.LFE120:
	.size	altcp_tls_free_entropy, .-altcp_tls_free_entropy
	.section	.text.altcp_mbedtls_set_poll,"ax",@progbits
	.align	1
	.type	altcp_mbedtls_set_poll, @function
altcp_mbedtls_set_poll:
.LFB121:
	.loc 1 1080 1
	.cfi_startproc
	addi	sp,sp,-32
	.cfi_def_cfa_offset 32
	sw	ra,28(sp)
	sw	s0,24(sp)
	.cfi_offset 1, -4
	.cfi_offset 8, -8
	addi	s0,sp,32
	.cfi_def_cfa 8, 0
	sw	a0,-20(s0)
	mv	a5,a1
	sb	a5,-21(s0)
	.loc 1 1081 6
	lw	a5,-20(s0)
	beq	a5,zero,.L165
	.loc 1 1082 5
	lw	a5,-20(s0)
	lw	a4,4(a5)
	lbu	a5,-21(s0)
	mv	a2,a5
	lui	a5,%hi(altcp_mbedtls_lower_poll)
	addi	a1,a5,%lo(altcp_mbedtls_lower_poll)
	mv	a0,a4
	call	altcp_poll
.L165:
	.loc 1 1084 1
	nop
	lw	ra,28(sp)
	.cfi_restore 1
	lw	s0,24(sp)
	.cfi_restore 8
	.cfi_def_cfa 2, 32
	addi	sp,sp,32
	.cfi_def_cfa_offset 0
	jr	ra
	.cfi_endproc
.LFE121:
	.size	altcp_mbedtls_set_poll, .-altcp_mbedtls_set_poll
	.section	.text.altcp_mbedtls_recved,"ax",@progbits
	.align	1
	.type	altcp_mbedtls_recved, @function
altcp_mbedtls_recved:
.LFB122:
	.loc 1 1088 1
	.cfi_startproc
	addi	sp,sp,-48
	.cfi_def_cfa_offset 48
	sw	ra,44(sp)
	sw	s0,40(sp)
	.cfi_offset 1, -4
	.cfi_offset 8, -8
	addi	s0,sp,48
	.cfi_def_cfa 8, 0
	sw	a0,-36(s0)
	mv	a5,a1
	sh	a5,-38(s0)
	.loc 1 1091 6
	lw	a5,-36(s0)
	beq	a5,zero,.L172
	.loc 1 1094 9
	lw	a5,-36(s0)
	lw	a5,12(a5)
	sw	a5,-24(s0)
	.loc 1 1095 6
	lw	a5,-24(s0)
	beq	a5,zero,.L173
	.loc 1 1098 14
	lw	a5,-24(s0)
	lbu	a5,624(a5)
	.loc 1 1098 22
	andi	a5,a5,1
	.loc 1 1098 6
	beq	a5,zero,.L174
	.loc 1 1101 16
	lhu	a5,-38(s0)
	sh	a5,-18(s0)
	.loc 1 1102 20
	lhu	a4,-18(s0)
	.loc 1 1102 27
	lw	a5,-24(s0)
	lw	a5,628(a5)
	.loc 1 1102 6
	ble	a4,a5,.L171
	.loc 1 1105 32
	lw	a5,-24(s0)
	lw	a5,628(a5)
	.loc 1 1105 18
	sh	a5,-18(s0)
.L171:
	.loc 1 1107 8
	lw	a5,-24(s0)
	lw	a4,628(a5)
	.loc 1 1107 29
	lhu	a5,-18(s0)
	sub	a4,a4,a5
	lw	a5,-24(s0)
	sw	a4,628(a5)
	.loc 1 1109 3
	lw	a5,-36(s0)
	lw	a5,4(a5)
	lhu	a4,-18(s0)
	mv	a1,a4
	mv	a0,a5
	call	altcp_recved
	j	.L166
.L172:
	.loc 1 1092 5
	nop
	j	.L166
.L173:
	.loc 1 1096 5
	nop
	j	.L166
.L174:
	.loc 1 1099 5
	nop
.L166:
	.loc 1 1110 1
	lw	ra,44(sp)
	.cfi_restore 1
	lw	s0,40(sp)
	.cfi_restore 8
	.cfi_def_cfa 2, 48
	addi	sp,sp,48
	.cfi_def_cfa_offset 0
	jr	ra
	.cfi_endproc
.LFE122:
	.size	altcp_mbedtls_recved, .-altcp_mbedtls_recved
	.section	.text.altcp_mbedtls_connect,"ax",@progbits
	.align	1
	.type	altcp_mbedtls_connect, @function
altcp_mbedtls_connect:
.LFB123:
	.loc 1 1114 1
	.cfi_startproc
	addi	sp,sp,-32
	.cfi_def_cfa_offset 32
	sw	ra,28(sp)
	sw	s0,24(sp)
	.cfi_offset 1, -4
	.cfi_offset 8, -8
	addi	s0,sp,32
	.cfi_def_cfa 8, 0
	sw	a0,-20(s0)
	sw	a1,-24(s0)
	mv	a5,a2
	sw	a3,-32(s0)
	sh	a5,-26(s0)
	.loc 1 1115 6
	lw	a5,-20(s0)
	bne	a5,zero,.L176
	.loc 1 1116 12
	li	a5,-6
	j	.L177
.L176:
	.loc 1 1118 19
	lw	a5,-20(s0)
	lw	a4,-32(s0)
	sw	a4,20(a5)
	.loc 1 1119 10
	lw	a5,-20(s0)
	lw	a4,4(a5)
	lhu	a2,-26(s0)
	lui	a5,%hi(altcp_mbedtls_lower_connected)
	addi	a3,a5,%lo(altcp_mbedtls_lower_connected)
	lw	a1,-24(s0)
	mv	a0,a4
	call	altcp_connect
	mv	a5,a0
.L177:
	.loc 1 1120 1
	mv	a0,a5
	lw	ra,28(sp)
	.cfi_restore 1
	lw	s0,24(sp)
	.cfi_restore 8
	.cfi_def_cfa 2, 32
	addi	sp,sp,32
	.cfi_def_cfa_offset 0
	jr	ra
	.cfi_endproc
.LFE123:
	.size	altcp_mbedtls_connect, .-altcp_mbedtls_connect
	.section	.text.altcp_mbedtls_listen,"ax",@progbits
	.align	1
	.type	altcp_mbedtls_listen, @function
altcp_mbedtls_listen:
.LFB124:
	.loc 1 1124 1
	.cfi_startproc
	addi	sp,sp,-48
	.cfi_def_cfa_offset 48
	sw	ra,44(sp)
	sw	s0,40(sp)
	.cfi_offset 1, -4
	.cfi_offset 8, -8
	addi	s0,sp,48
	.cfi_def_cfa 8, 0
	sw	a0,-36(s0)
	mv	a5,a1
	sw	a2,-44(s0)
	sb	a5,-37(s0)
	.loc 1 1126 6
	lw	a5,-36(s0)
	bne	a5,zero,.L179
	.loc 1 1127 11
	li	a5,0
	j	.L180
.L179:
	.loc 1 1129 10
	lw	a5,-36(s0)
	lw	a5,4(a5)
	lbu	a4,-37(s0)
	lw	a2,-44(s0)
	mv	a1,a4
	mv	a0,a5
	call	altcp_listen_with_backlog_and_err
	sw	a0,-20(s0)
	.loc 1 1130 6
	lw	a5,-20(s0)
	beq	a5,zero,.L181
.LBB16:
	.loc 1 1131 28
	lw	a5,-36(s0)
	lw	a5,12(a5)
	sw	a5,-24(s0)
	.loc 1 1134 5
	lw	a5,-24(s0)
	addi	a5,a5,8
	mv	a0,a5
	call	mbedtls_ssl_free
	.loc 1 1136 22
	lw	a5,-36(s0)
	lw	a4,-20(s0)
	sw	a4,4(a5)
	.loc 1 1137 5
	lui	a5,%hi(altcp_mbedtls_lower_accept)
	addi	a1,a5,%lo(altcp_mbedtls_lower_accept)
	lw	a0,-20(s0)
	call	altcp_accept
	.loc 1 1138 12
	lw	a5,-36(s0)
	j	.L180
.L181:
.LBE16:
	.loc 1 1140 9
	li	a5,0
.L180:
	.loc 1 1141 1
	mv	a0,a5
	lw	ra,44(sp)
	.cfi_restore 1
	lw	s0,40(sp)
	.cfi_restore 8
	.cfi_def_cfa 2, 48
	addi	sp,sp,48
	.cfi_def_cfa_offset 0
	jr	ra
	.cfi_endproc
.LFE124:
	.size	altcp_mbedtls_listen, .-altcp_mbedtls_listen
	.section	.text.altcp_mbedtls_abort,"ax",@progbits
	.align	1
	.type	altcp_mbedtls_abort, @function
altcp_mbedtls_abort:
.LFB125:
	.loc 1 1145 1
	.cfi_startproc
	addi	sp,sp,-32
	.cfi_def_cfa_offset 32
	sw	ra,28(sp)
	sw	s0,24(sp)
	.cfi_offset 1, -4
	.cfi_offset 8, -8
	addi	s0,sp,32
	.cfi_def_cfa 8, 0
	sw	a0,-20(s0)
	.loc 1 1146 6
	lw	a5,-20(s0)
	beq	a5,zero,.L184
	.loc 1 1147 5
	lw	a5,-20(s0)
	lw	a5,4(a5)
	mv	a0,a5
	call	altcp_abort
.L184:
	.loc 1 1149 1
	nop
	lw	ra,28(sp)
	.cfi_restore 1
	lw	s0,24(sp)
	.cfi_restore 8
	.cfi_def_cfa 2, 32
	addi	sp,sp,32
	.cfi_def_cfa_offset 0
	jr	ra
	.cfi_endproc
.LFE125:
	.size	altcp_mbedtls_abort, .-altcp_mbedtls_abort
	.section	.text.altcp_mbedtls_close,"ax",@progbits
	.align	1
	.type	altcp_mbedtls_close, @function
altcp_mbedtls_close:
.LFB126:
	.loc 1 1153 1
	.cfi_startproc
	addi	sp,sp,-48
	.cfi_def_cfa_offset 48
	sw	ra,44(sp)
	sw	s0,40(sp)
	.cfi_offset 1, -4
	.cfi_offset 8, -8
	addi	s0,sp,48
	.cfi_def_cfa 8, 0
	sw	a0,-36(s0)
	.loc 1 1155 6
	lw	a5,-36(s0)
	bne	a5,zero,.L186
	.loc 1 1156 12
	li	a5,-6
	j	.L187
.L186:
	.loc 1 1158 14
	lw	a5,-36(s0)
	lw	a5,4(a5)
	sw	a5,-20(s0)
	.loc 1 1159 6
	lw	a5,-20(s0)
	beq	a5,zero,.L188
.LBB17:
	.loc 1 1161 19
	lw	a5,-20(s0)
	lw	a5,32(a5)
	sw	a5,-24(s0)
	.loc 1 1162 5
	lw	a5,-36(s0)
	lw	a5,4(a5)
	mv	a0,a5
	call	altcp_mbedtls_remove_callbacks
	.loc 1 1163 11
	lw	a5,-36(s0)
	lw	a5,4(a5)
	mv	a0,a5
	call	altcp_close
	mv	a5,a0
	sb	a5,-25(s0)
	.loc 1 1164 8
	lb	a5,-25(s0)
	beq	a5,zero,.L189
	.loc 1 1166 7
	lw	a1,-20(s0)
	lw	a0,-36(s0)
	call	altcp_mbedtls_setup_callbacks
	.loc 1 1168 7
	lw	a5,-20(s0)
	lbu	a5,40(a5)
	mv	a2,a5
	lw	a1,-24(s0)
	lw	a0,-20(s0)
	call	altcp_poll
	.loc 1 1169 14
	lb	a5,-25(s0)
	j	.L187
.L189:
	.loc 1 1171 22
	lw	a5,-36(s0)
	sw	zero,4(a5)
.L188:
.LBE17:
	.loc 1 1173 3
	lw	a0,-36(s0)
	call	altcp_free
	.loc 1 1174 10
	li	a5,0
.L187:
	.loc 1 1175 1
	mv	a0,a5
	lw	ra,44(sp)
	.cfi_restore 1
	lw	s0,40(sp)
	.cfi_restore 8
	.cfi_def_cfa 2, 48
	addi	sp,sp,48
	.cfi_def_cfa_offset 0
	jr	ra
	.cfi_endproc
.LFE126:
	.size	altcp_mbedtls_close, .-altcp_mbedtls_close
	.section	.text.altcp_mbedtls_sndbuf,"ax",@progbits
	.align	1
	.type	altcp_mbedtls_sndbuf, @function
altcp_mbedtls_sndbuf:
.LFB127:
	.loc 1 1182 1
	.cfi_startproc
	addi	sp,sp,-64
	.cfi_def_cfa_offset 64
	sw	ra,60(sp)
	sw	s0,56(sp)
	.cfi_offset 1, -4
	.cfi_offset 8, -8
	addi	s0,sp,64
	.cfi_def_cfa 8, 0
	sw	a0,-52(s0)
	.loc 1 1183 6
	lw	a5,-52(s0)
	beq	a5,zero,.L191
.LBB18:
	.loc 1 1185 11
	lw	a5,-52(s0)
	lw	a5,12(a5)
	sw	a5,-24(s0)
	.loc 1 1186 8
	lw	a5,-24(s0)
	beq	a5,zero,.L192
	.loc 1 1186 26 discriminator 1
	lw	a5,-24(s0)
	lbu	a5,624(a5)
	.loc 1 1186 34 discriminator 1
	andi	a5,a5,1
	.loc 1 1186 16 discriminator 1
	bne	a5,zero,.L193
.L192:
	.loc 1 1187 14
	li	a5,0
	j	.L194
.L193:
	.loc 1 1189 13
	lw	a5,-52(s0)
	lw	a5,4(a5)
	.loc 1 1189 8
	beq	a5,zero,.L191
.LBB19:
	.loc 1 1190 22
	lw	a5,-52(s0)
	lw	a5,4(a5)
	mv	a0,a5
	call	altcp_sndbuf
	mv	a5,a0
	sh	a5,-26(s0)
	.loc 1 1192 56
	lw	a5,-24(s0)
	addi	a5,a5,8
	.loc 1 1192 23
	mv	a0,a5
	call	mbedtls_ssl_get_record_expansion
	sw	a0,-32(s0)
	.loc 1 1193 10
	lw	a5,-32(s0)
	ble	a5,zero,.L191
.LBB20:
	.loc 1 1194 28
	lw	a4,-32(s0)
	li	a5,65536
	addi	a5,a5,-2
	bgt	a4,a5,.L195
	.loc 1 1194 28 is_stmt 0 discriminator 1
	lw	a5,-32(s0)
	slli	a5,a5,16
	srli	a5,a5,16
	.loc 1 1194 16 is_stmt 1 discriminator 1
	sw	a5,-20(s0)
	j	.L196
.L195:
	.loc 1 1194 16 is_stmt 0 discriminator 2
	li	a5,65536
	addi	a5,a5,-1
	sw	a5,-20(s0)
.L196:
	.loc 1 1196 23 is_stmt 1
	lhu	a5,-26(s0)
	.loc 1 1196 12
	lw	a4,-20(s0)
	bgeu	a4,a5,.L191
.LBB21:
	.loc 1 1197 18
	li	a5,65536
	addi	a5,a5,-1
	sw	a5,-36(s0)
	.loc 1 1201 71
	lw	a5,-24(s0)
	addi	a5,a5,8
	.loc 1 1201 33
	mv	a0,a5
	call	mbedtls_ssl_get_max_in_record_payload
	mv	a5,a0
	.loc 1 1201 18 discriminator 1
	sw	a5,-40(s0)
	.loc 1 1202 19
	lw	a4,-40(s0)
	lw	a5,-36(s0)
	bleu	a5,a4,.L197
	mv	a5,a4
.L197:
	sw	a5,-36(s0)
	.loc 1 1205 27
	lhu	a4,-26(s0)
	lw	a5,-20(s0)
	sub	a4,a4,a5
	.loc 1 1205 15
	lw	a5,-36(s0)
	bleu	a5,a4,.L198
	mv	a5,a4
.L198:
	sw	a5,-44(s0)
	.loc 1 1207 18
	lw	a5,-44(s0)
	slli	a5,a5,16
	srli	a5,a5,16
	j	.L194
.L191:
.LBE21:
.LBE20:
.LBE19:
.LBE18:
	.loc 1 1213 10
	lw	a0,-52(s0)
	call	altcp_default_sndbuf
	mv	a5,a0
.L194:
	.loc 1 1214 1
	mv	a0,a5
	lw	ra,60(sp)
	.cfi_restore 1
	lw	s0,56(sp)
	.cfi_restore 8
	.cfi_def_cfa 2, 64
	addi	sp,sp,64
	.cfi_def_cfa_offset 0
	jr	ra
	.cfi_endproc
.LFE127:
	.size	altcp_mbedtls_sndbuf, .-altcp_mbedtls_sndbuf
	.section	.text.altcp_mbedtls_write,"ax",@progbits
	.align	1
	.type	altcp_mbedtls_write, @function
altcp_mbedtls_write:
.LFB128:
	.loc 1 1221 1
	.cfi_startproc
	addi	sp,sp,-48
	.cfi_def_cfa_offset 48
	sw	ra,44(sp)
	sw	s0,40(sp)
	.cfi_offset 1, -4
	.cfi_offset 8, -8
	addi	s0,sp,48
	.cfi_def_cfa 8, 0
	sw	a0,-36(s0)
	sw	a1,-40(s0)
	mv	a5,a2
	mv	a4,a3
	sh	a5,-42(s0)
	mv	a5,a4
	sb	a5,-43(s0)
	.loc 1 1227 6
	lw	a5,-36(s0)
	bne	a5,zero,.L200
	.loc 1 1228 12
	li	a5,-6
	j	.L201
.L200:
	.loc 1 1231 9
	lw	a5,-36(s0)
	lw	a5,12(a5)
	sw	a5,-20(s0)
	.loc 1 1232 6
	lw	a5,-20(s0)
	bne	a5,zero,.L202
	.loc 1 1234 12
	li	a5,-16
	j	.L201
.L202:
	.loc 1 1236 14
	lw	a5,-20(s0)
	lbu	a5,624(a5)
	.loc 1 1236 22
	andi	a5,a5,1
	.loc 1 1236 6
	bne	a5,zero,.L203
	.loc 1 1238 12
	li	a5,-6
	j	.L201
.L203:
	.loc 1 1244 25
	lw	a5,-20(s0)
	lw	a5,236(a5)
	.loc 1 1244 6
	beq	a5,zero,.L204
	.loc 1 1245 5
	lw	a0,-20(s0)
	call	altcp_mbedtls_flush_output
	.loc 1 1246 27
	lw	a5,-20(s0)
	lw	a5,236(a5)
	.loc 1 1246 8
	beq	a5,zero,.L204
	.loc 1 1247 14
	li	a5,-1
	j	.L201
.L204:
	.loc 1 1250 9
	lw	a5,-20(s0)
	addi	a5,a5,8
	lhu	a4,-42(s0)
	mv	a2,a4
	lw	a1,-40(s0)
	mv	a0,a5
	call	mbedtls_ssl_write
	sw	a0,-24(s0)
	.loc 1 1252 3
	lw	a5,-36(s0)
	lw	a5,4(a5)
	mv	a0,a5
	call	altcp_output
	.loc 1 1253 6
	lw	a5,-24(s0)
	blt	a5,zero,.L205
	.loc 1 1254 13
	lhu	a5,-42(s0)
	.loc 1 1254 8
	lw	a4,-24(s0)
	bne	a4,a5,.L206
	.loc 1 1256 12
	lw	a5,-20(s0)
	lw	a4,640(a5)
	.loc 1 1256 36
	lw	a5,-24(s0)
	sub	a4,a4,a5
	lw	a5,-20(s0)
	sw	a4,640(a5)
	.loc 1 1257 14
	li	a5,0
	j	.L201
.L206:
	.loc 1 1261 14
	li	a5,-1
	j	.L201
.L205:
	.loc 1 1264 8
	lw	a4,-24(s0)
	li	a5,-28672
	addi	a5,a5,1920
	bne	a4,a5,.L207
	.loc 1 1266 14
	li	a5,-1
	j	.L201
.L207:
	.loc 1 1269 12
	li	a5,-6
.L201:
	.loc 1 1271 1
	mv	a0,a5
	lw	ra,44(sp)
	.cfi_restore 1
	lw	s0,40(sp)
	.cfi_restore 8
	.cfi_def_cfa 2, 48
	addi	sp,sp,48
	.cfi_def_cfa_offset 0
	jr	ra
	.cfi_endproc
.LFE128:
	.size	altcp_mbedtls_write, .-altcp_mbedtls_write
	.section	.text.altcp_mbedtls_bio_send,"ax",@progbits
	.align	1
	.type	altcp_mbedtls_bio_send, @function
altcp_mbedtls_bio_send:
.LFB129:
	.loc 1 1279 1
	.cfi_startproc
	addi	sp,sp,-64
	.cfi_def_cfa_offset 64
	sw	ra,60(sp)
	sw	s0,56(sp)
	.cfi_offset 1, -4
	.cfi_offset 8, -8
	addi	s0,sp,64
	.cfi_def_cfa 8, 0
	sw	a0,-52(s0)
	sw	a1,-56(s0)
	sw	a2,-60(s0)
	.loc 1 1280 21
	lw	a5,-52(s0)
	sw	a5,-32(s0)
	.loc 1 1282 7
	sw	zero,-20(s0)
	.loc 1 1283 10
	lw	a5,-60(s0)
	sw	a5,-24(s0)
	.loc 1 1284 8
	li	a5,1
	sb	a5,-33(s0)
	.loc 1 1287 6
	lw	a5,-32(s0)
	beq	a5,zero,.L209
	.loc 1 1287 29 discriminator 1
	lw	a5,-32(s0)
	lw	a5,4(a5)
	.loc 1 1287 21 discriminator 1
	bne	a5,zero,.L210
.L209:
	.loc 1 1288 12
	li	a5,-69
	j	.L211
.L210:
	.loc 1 1290 9
	lw	a5,-32(s0)
	lw	a5,12(a5)
	sw	a5,-40(s0)
	.loc 1 1293 9
	j	.L212
.L218:
.LBB22:
	.loc 1 1294 23
	lw	a4,-24(s0)
	li	a5,65536
	addi	a5,a5,-2
	bgtu	a4,a5,.L213
	.loc 1 1294 11 discriminator 1
	lw	a5,-24(s0)
	sh	a5,-26(s0)
	j	.L214
.L213:
	.loc 1 1294 11 is_stmt 0 discriminator 2
	li	a5,-1
	sh	a5,-26(s0)
.L214:
	.loc 1 1295 17 is_stmt 1
	lw	a5,-32(s0)
	lw	a5,4(a5)
	lbu	a3,-33(s0)
	lhu	a4,-26(s0)
	mv	a2,a4
	lw	a1,-56(s0)
	mv	a0,a5
	call	altcp_write
	mv	a5,a0
	sb	a5,-41(s0)
	.loc 1 1297 5
	lw	a5,-32(s0)
	lw	a5,4(a5)
	mv	a0,a5
	call	altcp_output
	.loc 1 1298 8
	lb	a5,-41(s0)
	bne	a5,zero,.L215
	.loc 1 1299 15
	lhu	a5,-26(s0)
	lw	a4,-20(s0)
	add	a5,a4,a5
	sw	a5,-20(s0)
	.loc 1 1300 17
	lhu	a5,-26(s0)
	lw	a4,-24(s0)
	sub	a5,a4,a5
	sw	a5,-24(s0)
	.loc 1 1301 12
	lw	a5,-40(s0)
	lw	a4,640(a5)
	.loc 1 1301 36
	lhu	a5,-26(s0)
	add	a4,a4,a5
	lw	a5,-40(s0)
	sw	a4,640(a5)
	j	.L212
.L215:
	.loc 1 1302 15
	lb	a4,-41(s0)
	li	a5,-1
	bne	a4,a5,.L216
	.loc 1 1303 10
	lw	a5,-20(s0)
	beq	a5,zero,.L217
	.loc 1 1304 16
	lw	a5,-20(s0)
	j	.L211
.L217:
	.loc 1 1306 14
	li	a5,0
	j	.L211
.L216:
	.loc 1 1310 14
	li	a5,-78
	j	.L211
.L212:
.LBE22:
	.loc 1 1293 10
	lw	a5,-24(s0)
	bne	a5,zero,.L218
	.loc 1 1313 10
	lw	a5,-20(s0)
.L211:
	.loc 1 1314 1
	mv	a0,a5
	lw	ra,60(sp)
	.cfi_restore 1
	lw	s0,56(sp)
	.cfi_restore 8
	.cfi_def_cfa 2, 64
	addi	sp,sp,64
	.cfi_def_cfa_offset 0
	jr	ra
	.cfi_endproc
.LFE129:
	.size	altcp_mbedtls_bio_send, .-altcp_mbedtls_bio_send
	.section	.text.altcp_mbedtls_mss,"ax",@progbits
	.align	1
	.type	altcp_mbedtls_mss, @function
altcp_mbedtls_mss:
.LFB130:
	.loc 1 1318 1
	.cfi_startproc
	addi	sp,sp,-32
	.cfi_def_cfa_offset 32
	sw	ra,28(sp)
	sw	s0,24(sp)
	.cfi_offset 1, -4
	.cfi_offset 8, -8
	addi	s0,sp,32
	.cfi_def_cfa 8, 0
	sw	a0,-20(s0)
	.loc 1 1319 6
	lw	a5,-20(s0)
	bne	a5,zero,.L220
	.loc 1 1320 12
	li	a5,0
	j	.L221
.L220:
	.loc 1 1323 10
	lw	a5,-20(s0)
	lw	a5,4(a5)
	mv	a0,a5
	call	altcp_mss
	mv	a5,a0
.L221:
	.loc 1 1324 1
	mv	a0,a5
	lw	ra,28(sp)
	.cfi_restore 1
	lw	s0,24(sp)
	.cfi_restore 8
	.cfi_def_cfa 2, 32
	addi	sp,sp,32
	.cfi_def_cfa_offset 0
	jr	ra
	.cfi_endproc
.LFE130:
	.size	altcp_mbedtls_mss, .-altcp_mbedtls_mss
	.section	.text.altcp_mbedtls_dealloc,"ax",@progbits
	.align	1
	.type	altcp_mbedtls_dealloc, @function
altcp_mbedtls_dealloc:
.LFB131:
	.loc 1 1328 1
	.cfi_startproc
	addi	sp,sp,-48
	.cfi_def_cfa_offset 48
	sw	ra,44(sp)
	sw	s0,40(sp)
	.cfi_offset 1, -4
	.cfi_offset 8, -8
	addi	s0,sp,48
	.cfi_def_cfa 8, 0
	sw	a0,-36(s0)
	.loc 1 1330 6
	lw	a5,-36(s0)
	beq	a5,zero,.L225
.LBB23:
	.loc 1 1331 28
	lw	a5,-36(s0)
	lw	a5,12(a5)
	sw	a5,-20(s0)
	.loc 1 1332 8
	lw	a5,-20(s0)
	beq	a5,zero,.L225
	.loc 1 1333 7
	lw	a5,-20(s0)
	addi	a5,a5,8
	mv	a0,a5
	call	mbedtls_ssl_free
	.loc 1 1334 20
	lw	a5,-20(s0)
	sb	zero,624(a5)
	.loc 1 1335 16
	lw	a5,-20(s0)
	lw	a5,616(a5)
	.loc 1 1335 10
	beq	a5,zero,.L224
	.loc 1 1337 9
	lw	a5,-20(s0)
	lw	a5,616(a5)
	mv	a0,a5
	call	pbuf_free
	.loc 1 1338 19
	lw	a5,-20(s0)
	sw	zero,616(a5)
.L224:
	.loc 1 1340 7
	lw	a5,-20(s0)
	lw	a5,0(a5)
	lw	a1,-20(s0)
	mv	a0,a5
	call	altcp_mbedtls_free
	.loc 1 1341 19
	lw	a5,-36(s0)
	sw	zero,12(a5)
.L225:
.LBE23:
	.loc 1 1344 1
	nop
	lw	ra,44(sp)
	.cfi_restore 1
	lw	s0,40(sp)
	.cfi_restore 8
	.cfi_def_cfa 2, 48
	addi	sp,sp,48
	.cfi_def_cfa_offset 0
	jr	ra
	.cfi_endproc
.LFE131:
	.size	altcp_mbedtls_dealloc, .-altcp_mbedtls_dealloc
	.globl	altcp_mbedtls_functions
	.section	.rodata.altcp_mbedtls_functions,"a"
	.align	2
	.type	altcp_mbedtls_functions, @object
	.size	altcp_mbedtls_functions, 92
altcp_mbedtls_functions:
	.word	altcp_mbedtls_set_poll
	.word	altcp_mbedtls_recved
	.word	altcp_default_bind
	.word	altcp_mbedtls_connect
	.word	altcp_mbedtls_listen
	.word	altcp_mbedtls_abort
	.word	altcp_mbedtls_close
	.word	altcp_default_shutdown
	.word	altcp_mbedtls_write
	.word	altcp_default_output
	.word	altcp_mbedtls_mss
	.word	altcp_mbedtls_sndbuf
	.word	altcp_default_sndqueuelen
	.word	altcp_default_nagle_disable
	.word	altcp_default_nagle_enable
	.word	altcp_default_nagle_disabled
	.word	altcp_default_setprio
	.word	altcp_mbedtls_dealloc
	.word	altcp_default_get_tcp_addrinfo
	.word	altcp_default_get_ip
	.word	altcp_default_get_port
	.word	altcp_default_keepalive_disable
	.word	altcp_default_keepalive_enable
	.text
.Letext0:
	.file 2 "/home/chandu/sdk/bl602_iot_sdk/toolchain/compiler/lib/gcc/riscv32-unknown-elf/15.1.0/include/stddef.h"
	.file 3 "/home/chandu/sdk/bl602_iot_sdk/toolchain/compiler/lib/gcc/riscv32-unknown-elf/15.1.0/include/stdint-gcc.h"
	.file 4 "/home/chandu/sdk/bl602_iot_sdk/components/network/lwip/src/include/lwip/arch.h"
	.file 5 "/home/chandu/sdk/bl602_iot_sdk/components/network/lwip/src/include/lwip/err.h"
	.file 6 "/home/chandu/sdk/bl602_iot_sdk/components/network/lwip/src/include/lwip/pbuf.h"
	.file 7 "/home/chandu/sdk/bl602_iot_sdk/components/network/lwip/src/include/lwip/ip4_addr.h"
	.file 8 "/home/chandu/sdk/bl602_iot_sdk/components/network/lwip/src/include/lwip/ip_addr.h"
	.file 9 "/home/chandu/sdk/bl602_iot_sdk/components/network/lwip/src/include/lwip/altcp.h"
	.file 10 "/home/chandu/sdk/bl602_iot_sdk/components/network/lwip/src/include/lwip/priv/altcp_priv.h"
	.file 11 "/home/chandu/sdk/bl602_iot_sdk/components/security/mbedtls-bl602/include/mbedtls/platform_util.h"
	.file 12 "/home/chandu/sdk/bl602_iot_sdk/components/security/mbedtls-bl602/include/mbedtls/bignum.h"
	.file 13 "/home/chandu/sdk/bl602_iot_sdk/components/security/mbedtls-bl602/include/mbedtls/md.h"
	.file 14 "/home/chandu/sdk/bl602_iot_sdk/components/security/mbedtls-bl602/include/mbedtls/pk.h"
	.file 15 "/home/chandu/sdk/bl602_iot_sdk/components/security/mbedtls-bl602/include/mbedtls/asn1.h"
	.file 16 "/home/chandu/sdk/bl602_iot_sdk/components/security/mbedtls-bl602/include/mbedtls/x509.h"
	.file 17 "/home/chandu/sdk/bl602_iot_sdk/components/security/mbedtls-bl602/include/mbedtls/x509_crl.h"
	.file 18 "/home/chandu/sdk/bl602_iot_sdk/components/security/mbedtls-bl602/include/mbedtls/x509_crt.h"
	.file 19 "/home/chandu/sdk/bl602_iot_sdk/components/security/mbedtls-bl602/include/mbedtls/ssl.h"
	.file 20 "/home/chandu/sdk/bl602_iot_sdk/components/network/lwip/src/include/lwip/altcp_tls.h"
	.file 21 "/home/chandu/sdk/bl602_iot_sdk/components/network/lwip/src/apps/altcp_tls/altcp_tls_mbedtls_structs.h"
	.file 22 "/home/chandu/sdk/bl602_iot_sdk/components/security/mbedtls-bl602/include/mbedtls/entropy.h"
	.file 23 "/home/chandu/sdk/bl602_iot_sdk/components/security/mbedtls-bl602/include/mbedtls/aes.h"
	.file 24 "/home/chandu/sdk/bl602_iot_sdk/components/security/mbedtls-bl602/include/mbedtls/ctr_drbg.h"
	.file 25 "/home/chandu/sdk/bl602_iot_sdk/components/network/lwip/src/apps/altcp_tls/altcp_tls_mbedtls_mem.h"
	.section	.note.GNU-stack,"",@progbits
