	.file	"altcp_tls_mbedtls_mem.c"
	.option nopic
	.attribute arch, "rv32i2p1_m2p0_f2p2_c2p0_zicsr2p0_zmmul1p0_zca1p0_zcf1p0"
	.attribute unaligned_access, 0
	.attribute stack_align, 16
	.text
.Ltext0:
	.cfi_sections	.debug_frame
	.file 0 "/home/chandu/sdk/bl602_iot_sdk/customer_app/suas_app_pqkem_gateway/build_out/lwip" "/home/chandu/sdk/bl602_iot_sdk/components/network/lwip/src/apps/altcp_tls/altcp_tls_mbedtls_mem.c"
	.section	.text.altcp_mbedtls_mem_init,"ax",@progbits
	.align	1
	.globl	altcp_mbedtls_mem_init
	.type	altcp_mbedtls_mem_init, @function
altcp_mbedtls_mem_init:
.LFB88:
	.file 1 "/home/chandu/sdk/bl602_iot_sdk/components/network/lwip/src/apps/altcp_tls/altcp_tls_mbedtls_mem.c"
	.loc 1 162 1
	.cfi_startproc
	addi	sp,sp,-16
	.cfi_def_cfa_offset 16
	sw	ra,12(sp)
	sw	s0,8(sp)
	.cfi_offset 1, -4
	.cfi_offset 8, -8
	addi	s0,sp,16
	.cfi_def_cfa 8, 0
	.loc 1 169 1
	nop
	lw	ra,12(sp)
	.cfi_restore 1
	lw	s0,8(sp)
	.cfi_restore 8
	.cfi_def_cfa 2, 16
	addi	sp,sp,16
	.cfi_def_cfa_offset 0
	jr	ra
	.cfi_endproc
.LFE88:
	.size	altcp_mbedtls_mem_init, .-altcp_mbedtls_mem_init
	.section	.text.altcp_mbedtls_alloc,"ax",@progbits
	.align	1
	.globl	altcp_mbedtls_alloc
	.type	altcp_mbedtls_alloc, @function
altcp_mbedtls_alloc:
.LFB89:
	.loc 1 173 1
	.cfi_startproc
	addi	sp,sp,-48
	.cfi_def_cfa_offset 48
	sw	ra,44(sp)
	sw	s0,40(sp)
	.cfi_offset 1, -4
	.cfi_offset 8, -8
	addi	s0,sp,48
	.cfi_def_cfa 8, 0
	sw	a0,-36(s0)
	.loc 1 174 57
	li	a1,648
	li	a0,1
	call	mem_calloc
	sw	a0,-20(s0)
	.loc 1 175 6
	lw	a5,-20(s0)
	beq	a5,zero,.L3
	.loc 1 176 15
	lw	a5,-20(s0)
	lw	a4,-36(s0)
	sw	a4,0(a5)
.L3:
	.loc 1 178 10
	lw	a5,-20(s0)
	.loc 1 179 1
	mv	a0,a5
	lw	ra,44(sp)
	.cfi_restore 1
	lw	s0,40(sp)
	.cfi_restore 8
	.cfi_def_cfa 2, 48
	addi	sp,sp,48
	.cfi_def_cfa_offset 0
	jr	ra
	.cfi_endproc
.LFE89:
	.size	altcp_mbedtls_alloc, .-altcp_mbedtls_alloc
	.section	.text.altcp_mbedtls_free,"ax",@progbits
	.align	1
	.globl	altcp_mbedtls_free
	.type	altcp_mbedtls_free, @function
altcp_mbedtls_free:
.LFB90:
	.loc 1 183 1
	.cfi_startproc
	addi	sp,sp,-32
	.cfi_def_cfa_offset 32
	sw	ra,28(sp)
	sw	s0,24(sp)
	.cfi_offset 1, -4
	.cfi_offset 8, -8
	addi	s0,sp,32
	.cfi_def_cfa 8, 0
	sw	a0,-20(s0)
	sw	a1,-24(s0)
	.loc 1 186 3
	lw	a0,-24(s0)
	call	mem_free
	.loc 1 187 1
	nop
	lw	ra,28(sp)
	.cfi_restore 1
	lw	s0,24(sp)
	.cfi_restore 8
	.cfi_def_cfa 2, 32
	addi	sp,sp,32
	.cfi_def_cfa_offset 0
	jr	ra
	.cfi_endproc
.LFE90:
	.size	altcp_mbedtls_free, .-altcp_mbedtls_free
	.section	.text.altcp_mbedtls_alloc_config,"ax",@progbits
	.align	1
	.globl	altcp_mbedtls_alloc_config
	.type	altcp_mbedtls_alloc_config, @function
altcp_mbedtls_alloc_config:
.LFB91:
	.loc 1 191 1
	.cfi_startproc
	addi	sp,sp,-48
	.cfi_def_cfa_offset 48
	sw	ra,44(sp)
	sw	s0,40(sp)
	.cfi_offset 1, -4
	.cfi_offset 8, -8
	addi	s0,sp,48
	.cfi_def_cfa 8, 0
	sw	a0,-36(s0)
	.loc 1 193 25
	lw	a5,-36(s0)
	slli	a5,a5,16
	srli	a5,a5,16
	.loc 1 193 10
	sw	a5,-20(s0)
	.loc 1 194 6
	lw	a4,-36(s0)
	lw	a5,-20(s0)
	beq	a4,a5,.L7
	.loc 1 196 11
	li	a5,0
	j	.L8
.L7:
	.loc 1 198 34
	lw	a5,-36(s0)
	slli	a5,a5,16
	srli	a5,a5,16
	mv	a1,a5
	li	a0,1
	call	mem_calloc
	sw	a0,-24(s0)
	.loc 1 199 10
	lw	a5,-24(s0)
.L8:
	.loc 1 200 1
	mv	a0,a5
	lw	ra,44(sp)
	.cfi_restore 1
	lw	s0,40(sp)
	.cfi_restore 8
	.cfi_def_cfa 2, 48
	addi	sp,sp,48
	.cfi_def_cfa_offset 0
	jr	ra
	.cfi_endproc
.LFE91:
	.size	altcp_mbedtls_alloc_config, .-altcp_mbedtls_alloc_config
	.section	.text.altcp_mbedtls_free_config,"ax",@progbits
	.align	1
	.globl	altcp_mbedtls_free_config
	.type	altcp_mbedtls_free_config, @function
altcp_mbedtls_free_config:
.LFB92:
	.loc 1 204 1
	.cfi_startproc
	addi	sp,sp,-32
	.cfi_def_cfa_offset 32
	sw	ra,28(sp)
	sw	s0,24(sp)
	.cfi_offset 1, -4
	.cfi_offset 8, -8
	addi	s0,sp,32
	.cfi_def_cfa 8, 0
	sw	a0,-20(s0)
	.loc 1 206 3
	lw	a0,-20(s0)
	call	mbedtls_ssl_config_free
	.loc 1 207 3
	lw	a0,-20(s0)
	call	mem_free
	.loc 1 208 1
	nop
	lw	ra,28(sp)
	.cfi_restore 1
	lw	s0,24(sp)
	.cfi_restore 8
	.cfi_def_cfa 2, 32
	addi	sp,sp,32
	.cfi_def_cfa_offset 0
	jr	ra
	.cfi_endproc
.LFE92:
	.size	altcp_mbedtls_free_config, .-altcp_mbedtls_free_config
	.text
.Letext0:
	.file 2 "/home/chandu/sdk/bl602_iot_sdk/toolchain/compiler/lib/gcc/riscv32-unknown-elf/15.1.0/include/stddef.h"
	.file 3 "/home/chandu/sdk/bl602_iot_sdk/toolchain/compiler/lib/gcc/riscv32-unknown-elf/15.1.0/include/stdint-gcc.h"
	.file 4 "/home/chandu/sdk/bl602_iot_sdk/components/network/lwip/src/include/lwip/arch.h"
	.file 5 "/home/chandu/sdk/bl602_iot_sdk/components/network/lwip/src/include/lwip/pbuf.h"
	.file 6 "/home/chandu/sdk/bl602_iot_sdk/components/security/mbedtls-bl602/include/mbedtls/bignum.h"
	.file 7 "/home/chandu/sdk/bl602_iot_sdk/components/security/mbedtls-bl602/include/mbedtls/md.h"
	.file 8 "/home/chandu/sdk/bl602_iot_sdk/components/security/mbedtls-bl602/include/mbedtls/pk.h"
	.file 9 "/home/chandu/sdk/bl602_iot_sdk/components/security/mbedtls-bl602/include/mbedtls/asn1.h"
	.file 10 "/home/chandu/sdk/bl602_iot_sdk/components/security/mbedtls-bl602/include/mbedtls/x509.h"
	.file 11 "/home/chandu/sdk/bl602_iot_sdk/components/security/mbedtls-bl602/include/mbedtls/x509_crl.h"
	.file 12 "/home/chandu/sdk/bl602_iot_sdk/components/security/mbedtls-bl602/include/mbedtls/x509_crt.h"
	.file 13 "/home/chandu/sdk/bl602_iot_sdk/components/security/mbedtls-bl602/include/mbedtls/ssl.h"
	.file 14 "/home/chandu/sdk/bl602_iot_sdk/components/network/lwip/src/apps/altcp_tls/altcp_tls_mbedtls_structs.h"
	.file 15 "/home/chandu/sdk/bl602_iot_sdk/components/network/lwip/src/include/lwip/mem.h"
	.section	.note.GNU-stack,"",@progbits
