	.file	"coap_minimal.c"
	.option nopic
	.attribute arch, "rv32i2p1_m2p0_f2p2_c2p0_zicsr2p0_zmmul1p0_zca1p0_zcf1p0"
	.attribute unaligned_access, 0
	.attribute stack_align, 16
	.text
.Ltext0:
	.cfi_sections	.debug_frame
	.section	.text.coap_parse,"ax",@progbits
	.align	1
	.globl	coap_parse
	.type	coap_parse, @function
coap_parse:
.LVL0:
.LFB2:
.LM1:
	.cfi_startproc
.LM2:
.LM3:
	sltiu	a5,a2,4
.LM4:
	seqz	a4,a1
.LM5:
	or	a5,a5,a4
	bne	a5,zero,.L30
.LM6:
	addi	sp,sp,-80
	.cfi_def_cfa_offset 80
	sw	s0,72(sp)
	sw	ra,76(sp)
	sw	s1,68(sp)
	sw	s2,64(sp)
	sw	s3,60(sp)
	sw	s4,56(sp)
	sw	s5,52(sp)
	sw	s6,48(sp)
	sw	s7,44(sp)
	sw	s8,40(sp)
	sw	s9,36(sp)
	sw	s10,32(sp)
	sw	s11,28(sp)
	.cfi_offset 8, -8
	.cfi_offset 1, -4
	.cfi_offset 9, -12
	.cfi_offset 18, -16
	.cfi_offset 19, -20
	.cfi_offset 20, -24
	.cfi_offset 21, -28
	.cfi_offset 22, -32
	.cfi_offset 23, -36
	.cfi_offset 24, -40
	.cfi_offset 25, -44
	.cfi_offset 26, -48
	.cfi_offset 27, -52
	mv	s0,a0
.LM7:
	bne	a0,zero,.L2
.LVL1:
.L5:
.LM8:
	li	a0,0
.L4:
.LM9:
	lw	ra,76(sp)
	.cfi_remember_state
	.cfi_restore 1
	lw	s0,72(sp)
	.cfi_restore 8
.LVL2:
.LM10:
	lw	s1,68(sp)
	.cfi_restore 9
	lw	s2,64(sp)
	.cfi_restore 18
	lw	s3,60(sp)
	.cfi_restore 19
	lw	s4,56(sp)
	.cfi_restore 20
	lw	s5,52(sp)
	.cfi_restore 21
	lw	s6,48(sp)
	.cfi_restore 22
	lw	s7,44(sp)
	.cfi_restore 23
	lw	s8,40(sp)
	.cfi_restore 24
	lw	s9,36(sp)
	.cfi_restore 25
	lw	s10,32(sp)
	.cfi_restore 26
	lw	s11,28(sp)
	.cfi_restore 27
	addi	sp,sp,80
	.cfi_def_cfa_offset 0
	jr	ra
.LVL3:
.L2:
	.cfi_restore_state
.LM11:
	mv	s1,a1
.LM12:
	mv	s2,a2
	li	a1,0
.LVL4:
.LM13:
	li	a2,56
.LVL5:
.LM14:
	call	memset
.LVL6:
.LM15:
.LM16:
	lbu	a2,0(s1)
.LVL7:
.LM17:
.LM18:
	srli	a5,a2,4
.LM19:
	srli	a3,a2,6
.LM20:
	andi	a5,a5,3
.LM21:
	andi	a2,a2,15
.LVL8:
.LM22:
	sb	a3,0(s0)
.LVL9:
.LM23:
.LM24:
	sb	a5,1(s0)
.LM25:
.LM26:
	sb	a2,2(s0)
.LM27:
.LM28:
	lbu	a5,1(s1)
.LM29:
	addi	a3,a3,-1
.LM30:
	sb	a5,3(s0)
.LM31:
.LM32:
	lbu	a5,3(s1)
	lbu	a4,2(s1)
	slli	a5,a5,8
	or	a4,a5,a4
	slli	a4,a4,8
	srli	a5,a5,8
	add	a5,a5,a4
	sh	a5,4(s0)
.LM33:
.LM34:
	bne	a3,zero,.L5
.LM35:
	sltiu	a5,a2,9
	beq	a5,zero,.L5
.LM36:
.LVL10:
.LM37:
.LM38:
	addi	a5,a2,4
.LM39:
	bgtu	a5,s2,.L5
.LM40:
.LM41:
	li	a3,4
.LM42:
	beq	a2,zero,.L6
.LM43:
	add	a1,s1,a3
	addi	a0,s0,6
	call	memcpy
.LVL11:
.LM44:
.LM45:
	lbu	a3,2(s0)
.LM46:
	addi	a3,a3,4
.LVL12:
.L6:
.LBB2:
.LBB3:
.LM47:
	li	s3,0
	li	s11,0
.LBE3:
.LM48:
	li	s8,255
.LM49:
	li	s5,13
.LM50:
	li	s6,14
.LM51:
	li	s7,15
.LM52:
	li	s9,11
.LBB4:
.LM53:
	li	s10,29
.LM54:
	li	s4,31
.L7:
.LVL13:
.LM55:
.LBE4:
.LBE2:
.LM56:
	bltu	a3,s2,.L18
.LVL14:
.L8:
.LM57:
.LM58:
	li	a5,31
	bgtu	s3,a5,.L19
.LM59:
.LM60:
	add	a5,s0,s3
	sb	zero,14(a5)
.LM61:
.LM62:
	mv	a5,s3
.L20:
.LM63:
	sb	a5,46(s0)
.LM64:
.LM65:
	bleu	a3,s2,.L21
.LVL15:
.L22:
.LM66:
	li	a0,1
	j	.L4
.LVL16:
.L18:
.LBB6:
.LM67:
.LM68:
	add	a5,s1,a3
	lbu	a5,0(a5)
.LVL17:
.LM69:
.LM70:
	addi	a1,a3,1
.LM71:
	beq	a5,s8,.L24
.LM72:
.LM73:
	srli	a4,a5,4
.LVL18:
.LM74:
.LM75:
.LM76:
.LM77:
	bne	a4,s5,.L9
.LM78:
.LM79:
	bleu	s2,a1,.L5
.LM80:
.LVL19:
.LM81:
	add	a1,s1,a1
.LM82:
	lbu	a4,0(a1)
.LVL20:
.LM83:
	addi	a1,a3,2
.LVL21:
.LM84:
	addi	a4,a4,13
	andi	a4,a4,0xff
.LVL22:
.L10:
.LM85:
	andi	a5,a5,15
.LVL23:
.LM86:
.LM87:
	bne	a5,s5,.L12
.LM88:
.LM89:
	bgeu	a1,s2,.L5
.LM90:
.LVL24:
.LM91:
	add	a5,s1,a1
.LM92:
	lbu	a5,0(a5)
.LM93:
	addi	a1,a1,1
.LVL25:
.LM94:
	addi	a5,a5,13
	andi	a5,a5,0xff
.LVL26:
.L13:
.LM95:
.LM96:
.LM97:
	add	a3,a5,a1
.LVL27:
.LM98:
	mv	a2,a5
.LM99:
	bgtu	a3,s2,.L5
.LM100:
	add	a4,a4,s11
.LVL28:
.LM101:
	slli	s11,a4,16
.LVL29:
.LM102:
	srli	s11,s11,16
.LM103:
.LM104:
	bne	s11,s9,.L7
.LBB5:
.LM105:
.LM106:
	addi	a4,s3,-1
.LM107:
	bgtu	a4,s10,.L16
.LM108:
.LVL30:
.LM109:
	add	a4,s0,s3
	li	a0,47
	sb	a0,14(a4)
.LM110:
	addi	s3,s3,1
.LVL31:
.L16:
.LM111:
.LM112:
.LM113:
	add	a5,a5,s3
.LVL32:
.LM114:
	bleu	a5,s4,.L17
.LM115:
.LM116:
	bgtu	s3,s4,.L7
.LM117:
.LM118:
	sub	a2,s4,s3
.LVL33:
.L17:
.LM119:
.LM120:
	beq	a2,zero,.L7
.LM121:
	addi	a0,s0,14
.LM122:
	add	a0,a0,s3
	add	a1,s1,a1
.LVL34:
.LM123:
	sw	a3,12(sp)
.LM124:
	sw	a2,8(sp)
	call	memcpy
.LVL35:
.LM125:
.LM126:
	lw	a2,8(sp)
	lw	a3,12(sp)
	add	s3,s3,a2
.LVL36:
.LM127:
	j	.L7
.LVL37:
.L9:
.LM128:
.LBE5:
.LM129:
.LM130:
	bne	a4,s6,.L11
.LM131:
.LM132:
	addi	a4,a3,2
.LVL38:
.LM133:
	bgeu	a4,s2,.L5
.LM134:
.LM135:
	add	a4,s1,a4
.LM136:
	lbu	a4,0(a4)
.LM137:
	addi	a1,a3,3
.LVL39:
.LM138:
	addi	a4,a4,13
	andi	a4,a4,0xff
.LVL40:
.LM139:
.LM140:
	j	.L10
.L11:
.LM141:
.LM142:
	bne	a4,s7,.L10
	j	.L5
.LVL41:
.L12:
.LM143:
.LM144:
	bne	a5,s6,.L14
.LM145:
.LM146:
	addi	a5,a1,1
.LM147:
	bgeu	a5,s2,.L5
.LM148:
.LM149:
	add	a5,s1,a5
.LM150:
	lbu	a5,0(a5)
.LM151:
	addi	a1,a1,2
.LVL42:
.LM152:
	addi	a5,a5,13
	andi	a5,a5,0xff
.LVL43:
.LM153:
.LM154:
	j	.L13
.LVL44:
.L14:
.LM155:
.LM156:
	bne	a5,s7,.L13
	j	.L5
.LVL45:
.L24:
.LM157:
	mv	a3,a1
.LVL46:
.LM158:
	j	.L8
.LVL47:
.L19:
.LM159:
.LBE6:
.LM160:
.LM161:
	sb	zero,45(s0)
.LM162:
	j	.L20
.L21:
.LM163:
.LM164:
	add	s1,s1,a3
.LVL48:
.LM165:
	sub	s2,s2,a3
.LVL49:
.LM166:
	sw	s1,48(s0)
.LM167:
.LM168:
	sw	s2,52(s0)
	j	.L22
.LVL50:
.L30:
	.cfi_def_cfa_offset 0
	.cfi_restore 1
	.cfi_restore 8
	.cfi_restore 9
	.cfi_restore 18
	.cfi_restore 19
	.cfi_restore 20
	.cfi_restore 21
	.cfi_restore 22
	.cfi_restore 23
	.cfi_restore 24
	.cfi_restore 25
	.cfi_restore 26
	.cfi_restore 27
.LM169:
	li	a0,0
.LVL51:
.LM170:
	ret
	.cfi_endproc
.LFE2:
	.size	coap_parse, .-coap_parse
	.section	.text.coap_build_simple,"ax",@progbits
	.align	1
	.globl	coap_build_simple
	.type	coap_build_simple, @function
coap_build_simple:
.LVL52:
.LFB3:
.LM171:
	.cfi_startproc
.LM172:
.LM173:
	beq	a0,zero,.L73
.LM174:
	addi	sp,sp,-80
	.cfi_def_cfa_offset 80
	sw	s1,68(sp)
	sw	ra,76(sp)
	.cfi_offset 9, -12
	.cfi_offset 1, -4
	mv	s1,a5
	sw	s0,72(sp)
	sw	s2,64(sp)
	sw	s3,60(sp)
	sw	s4,56(sp)
	sw	s5,52(sp)
	sw	s6,48(sp)
	sw	s7,44(sp)
	sw	s8,40(sp)
	sw	s9,36(sp)
	sw	s10,32(sp)
	.cfi_offset 8, -8
	.cfi_offset 18, -16
	.cfi_offset 19, -20
	.cfi_offset 20, -24
	.cfi_offset 21, -28
	.cfi_offset 22, -32
	.cfi_offset 23, -36
	.cfi_offset 24, -40
	.cfi_offset 25, -44
	.cfi_offset 26, -48
.LM175:
	sltiu	a5,a1,4
.LVL53:
.LM176:
	bne	a5,zero,.L36
.LM177:
	slli	a2,a2,4
.LVL54:
.LM178:
	andi	a2,a2,48
.LM179:
	ori	a2,a2,64
.LM180:
	srli	a5,a4,8
.LM181:
	sb	a2,0(a0)
.LM182:
	sb	a3,1(a0)
.LM183:
	sb	a5,2(a0)
.LM184:
	sb	a4,3(a0)
	mv	s2,a7
	mv	s4,a6
	mv	s3,a1
	mv	s0,a0
.LM185:
.LVL55:
.LM186:
.LM187:
.LM188:
.LM189:
.LM190:
.LM191:
.LM192:
.LM193:
	beq	s1,zero,.L53
.LM194:
	lbu	a5,0(s1)
	bne	a5,zero,.L54
.L53:
.LM195:
	li	a0,4
.LVL56:
.LM196:
	j	.L37
.LVL57:
.L39:
.LBB7:
.LBB8:
.LM197:
.LM198:
	addi	s1,s1,1
.LVL58:
.L51:
.LM199:
.LM200:
	lbu	a5,0(s1)
.LM201:
	beq	a5,s5,.L39
.LM202:
.LM203:
	beq	a5,zero,.L37
.LM204:
	mv	s10,s1
.L41:
.LVL59:
.LM205:
.LM206:
	lbu	a5,0(s10)
.LM207:
	addi	a4,a5,-47
	beq	a4,zero,.L55
	bne	a5,zero,.L42
.L55:
.LM208:
.LVL60:
.LM209:
.LM210:
.LM211:
	sub	a5,s10,s1
.LM212:
	slli	s9,a5,16
	srli	s9,s9,16
.LVL61:
.LM213:
.LM214:
.LM215:
.LM216:
.LM217:
.LM218:
.LM219:
	li	a2,0
.LM220:
	bleu	s9,s6,.L45
.LM221:
.LM222:
	bgtu	s9,s7,.L46
.LM223:
.LVL62:
.LM224:
.LM225:
	addi	a5,a5,-13
.LM226:
	sb	a5,28(sp)
.LM227:
	li	a2,1
.LM228:
	li	a5,13
.LVL63:
.L45:
.LM229:
	addi	s8,a0,1
.LM230:
	add	a4,s9,s8
	add	a4,a4,a2
.LM231:
	bleu	a4,s3,.L47
.LVL64:
.L36:
.LM232:
.LBE8:
.LBE7:
.LM233:
	li	a0,0
.L33:
.LM234:
	lw	ra,76(sp)
	.cfi_remember_state
	.cfi_restore 1
	lw	s0,72(sp)
	.cfi_restore 8
	lw	s1,68(sp)
	.cfi_restore 9
	lw	s2,64(sp)
	.cfi_restore 18
	lw	s3,60(sp)
	.cfi_restore 19
	lw	s4,56(sp)
	.cfi_restore 20
	lw	s5,52(sp)
	.cfi_restore 21
	lw	s6,48(sp)
	.cfi_restore 22
	lw	s7,44(sp)
	.cfi_restore 23
	lw	s8,40(sp)
	.cfi_restore 24
	lw	s9,36(sp)
	.cfi_restore 25
	lw	s10,32(sp)
	.cfi_restore 26
	addi	sp,sp,80
	.cfi_def_cfa_offset 0
	jr	ra
.LVL65:
.L42:
	.cfi_restore_state
.LBB12:
.LBB10:
.LM235:
.LM236:
	addi	s10,s10,1
.LVL66:
.LM237:
	j	.L41
.LVL67:
.L46:
.LBB9:
.LM238:
.LM239:
.LM240:
.LM241:
.LM242:
	addi	a5,s9,-269
.LM243:
	slli	a2,a5,16
	srli	a4,a2,24
	slli	a5,a5,8
	add	a5,a4,a5
	sh	a5,28(sp)
.LM244:
	li	a2,2
.LM245:
	li	a5,14
	j	.L45
.LVL68:
.L47:
.LM246:
.LBE9:
.LM247:
.LM248:
	li	a4,11
	sub	a4,a4,a3
.LM249:
	slli	a4,a4,4
	andi	a5,a5,15
.LVL69:
.LM250:
	add	a0,s0,a0
.LM251:
	or	a5,a4,a5
.LM252:
	sb	a5,0(a0)
.LM253:
.LM254:
	beq	a2,zero,.L49
.LM255:
	add	a0,s0,s8
	addi	a1,sp,28
	sw	a2,12(sp)
	call	memcpy
.LVL70:
.LM256:
.LM257:
	lw	a2,12(sp)
	add	s8,s8,a2
.LVL71:
.L49:
.LM258:
	mv	a1,s1
	mv	a2,s9
	add	a0,s0,s8
	call	memcpy
.LVL72:
.LM259:
.LM260:
	add	a0,s9,s8
.LVL73:
.LM261:
.LM262:
.LM263:
	mv	s1,s10
.LM264:
	li	a3,11
.LVL74:
.L38:
.LM265:
.LBE10:
.LM266:
	lbu	a5,0(s1)
	bne	a5,zero,.L51
.LVL75:
.L37:
.LM267:
.LBE12:
.LM268:
.LM269:
	beq	s2,zero,.L33
	beq	s4,zero,.L33
.LM270:
.LM271:
	addi	a5,s2,1
	add	a5,a5,a0
.LM272:
	bgtu	a5,s3,.L36
.LM273:
.LM274:
	addi	s1,a0,1
.LVL76:
.LM275:
	li	a5,-1
	add	a0,s0,a0
	sb	a5,0(a0)
.LM276:
	mv	a2,s2
	mv	a1,s4
	add	a0,s0,s1
	call	memcpy
.LVL77:
.LM277:
.LM278:
	add	a0,s2,s1
.LVL78:
.LM279:
	j	.L33
.LVL79:
.L54:
.LM280:
	li	a3,0
.LVL80:
.LM281:
	li	a0,4
.LBB13:
.LBB11:
.LM282:
	li	s5,47
.LM283:
	li	s6,12
.LM284:
	li	s7,268
	j	.L38
.LVL81:
.L73:
	.cfi_def_cfa_offset 0
	.cfi_restore 1
	.cfi_restore 8
	.cfi_restore 9
	.cfi_restore 18
	.cfi_restore 19
	.cfi_restore 20
	.cfi_restore 21
	.cfi_restore 22
	.cfi_restore 23
	.cfi_restore 24
	.cfi_restore 25
	.cfi_restore 26
.LM285:
.LBE11:
.LBE13:
.LM286:
	li	a0,0
.LVL82:
.LM287:
	ret
	.cfi_endproc
.LFE3:
	.size	coap_build_simple, .-coap_build_simple
	.text
.Letext0:
	.section	.note.GNU-stack,"",@progbits
