	.file	"pqkem_kem.c"
	.option nopic
	.attribute arch, "rv32i2p1_m2p0_f2p2_c2p0_zicsr2p0_zmmul1p0_zca1p0_zcf1p0"
	.attribute unaligned_access, 0
	.attribute stack_align, 16
	.text
.Ltext0:
	.cfi_sections	.debug_frame
	.section	.text.cbd2,"ax",@progbits
	.align	1
	.type	cbd2, @function
cbd2:
.LVL0:
.LFB10:
.LM1:
	.cfi_startproc
.LM2:
.LM3:
.LM4:
.LM5:
.LM6:
.LM7:
	li	t1,1431654400
.LM8:
	li	a7,0
.LM9:
	addi	t1,t1,1365
.LM10:
	li	t4,32
.LM11:
	li	t3,256
.LVL1:
.L3:
.LM12:
.LBB38:
.LBI38:
.LM13:
.LBB39:
.LM14:
.LM15:
.LM16:
	lbu	a5,1(a1)
	lbu	a4,0(a1)
	slli	a3,a7,1
	slli	a5,a5,8
	or	a5,a5,a4
	lbu	a4,2(a1)
	add	a3,a0,a3
	slli	a4,a4,16
	or	a4,a4,a5
	lbu	a5,3(a1)
	slli	a5,a5,24
	or	a5,a5,a4
.LM17:
.LM18:
.LM19:
.LM20:
.LVL2:
.LM21:
.LBE39:
.LBE38:
.LM22:
.LM23:
	and	a4,a5,t1
.LVL3:
.LM24:
.LM25:
	srli	a5,a5,1
.LM26:
	and	a5,a5,t1
.LM27:
	add	a5,a5,a4
.LVL4:
.LM28:
.LM29:
.LM30:
	li	a4,0
.LVL5:
.L2:
.LM31:
.LM32:
.LM33:
.LM34:
	addi	a6,a4,2
.LM35:
	srl	a2,a5,a4
.LM36:
	srl	a6,a5,a6
.LM37:
	andi	a2,a2,3
.LM38:
	andi	a6,a6,3
.LM39:
	sub	a2,a2,a6
.LM40:
	sh	a2,0(a3)
.LM41:
.LM42:
	addi	a4,a4,4
.LVL6:
.LM43:
	addi	a3,a3,2
	bne	a4,t4,.L2
.LM44:
.LM45:
	addi	a7,a7,8
	addi	a1,a1,4
	bne	a7,t3,.L3
.LM46:
	ret
	.cfi_endproc
.LFE10:
	.size	cbd2, .-cbd2
	.section	.text.cbd3,"ax",@progbits
	.align	1
	.type	cbd3, @function
cbd3:
.LVL7:
.LFB11:
.LM47:
	.cfi_startproc
.LM48:
.LM49:
.LM50:
.LM51:
.LM52:
.LM53:
	li	a3,2396160
.LM54:
	li	t1,0
.LM55:
	addi	a3,a3,585
.LM56:
	li	t4,24
.LM57:
	li	t3,256
.LVL8:
.L8:
.LM58:
.LBB42:
.LBI42:
.LM59:
.LBB43:
.LM60:
.LM61:
.LM62:
	lbu	a5,1(a1)
.LM63:
	lbu	a4,2(a1)
.LM64:
	lbu	a2,0(a1)
.LVL9:
.LM65:
.LM66:
.LM67:
	slli	a5,a5,8
.LM68:
	slli	a4,a4,16
.LM69:
	or	a5,a5,a4
	or	a5,a5,a2
.LM70:
.LVL10:
.LM71:
.LBE43:
.LBE42:
.LM72:
.LM73:
	and	a2,a5,a3
.LVL11:
.LM74:
.LM75:
.LM76:
	srli	a4,a5,1
.LM77:
	srli	a5,a5,2
.LVL12:
.LM78:
	and	a4,a4,a3
.LM79:
	and	a5,a5,a3
.LM80:
	add	a5,a4,a5
	add	a5,a5,a2
.LVL13:
.LM81:
.LM82:
	slli	a2,t1,1
	add	a2,a0,a2
.LM83:
	li	a4,0
.LVL14:
.L7:
.LM84:
.LM85:
.LM86:
.LM87:
	addi	a7,a4,3
.LM88:
	srl	a6,a5,a4
.LM89:
	srl	a7,a5,a7
.LM90:
	andi	a6,a6,7
.LM91:
	andi	a7,a7,7
.LM92:
	sub	a6,a6,a7
.LM93:
	sh	a6,0(a2)
.LM94:
.LM95:
	addi	a4,a4,6
.LVL15:
.LM96:
	addi	a2,a2,2
	bne	a4,t4,.L7
.LM97:
.LM98:
	addi	t1,t1,4
	addi	a1,a1,3
	bne	t1,t3,.L8
.LM99:
	ret
	.cfi_endproc
.LFE11:
	.size	cbd3, .-cbd3
	.section	.text.KeccakF1600_StatePermute,"ax",@progbits
	.align	1
	.type	KeccakF1600_StatePermute, @function
KeccakF1600_StatePermute:
.LVL16:
.LFB16:
.LM100:
	.cfi_startproc
.LM101:
.LM102:
.LM103:
.LM104:
.LM105:
.LM106:
.LM107:
.LM108:
.LM109:
.LM110:
.LM111:
.LM112:
.LM113:
.LM114:
.LM115:
	lw	a5,4(a0)
.LM116:
	addi	sp,sp,-256
	.cfi_def_cfa_offset 256
	sw	s0,252(sp)
.LM117:
	sw	a5,12(sp)
.LM118:
	lw	a5,8(a0)
.LM119:
	sw	s4,236(sp)
	sw	s6,228(sp)
.LM120:
	sw	a5,16(sp)
	lw	a5,12(a0)
.LM121:
	sw	s7,224(sp)
	sw	s10,212(sp)
.LM122:
	sw	a5,20(sp)
.LM123:
	lw	a5,16(a0)
.LM124:
	sw	s11,208(sp)
	.cfi_offset 8, -4
	.cfi_offset 20, -20
	.cfi_offset 22, -28
	.cfi_offset 23, -32
	.cfi_offset 26, -44
	.cfi_offset 27, -48
.LM125:
	lw	s10,0(a0)
.LVL17:
.LM126:
.LM127:
.LM128:
	sw	a5,24(sp)
	lw	a5,20(a0)
.LM129:
	sw	s1,248(sp)
	sw	s2,244(sp)
.LM130:
	sw	a5,28(sp)
.LVL18:
.LM131:
.LM132:
	lw	a5,24(a0)
.LVL19:
.LM133:
	sw	s3,240(sp)
	sw	s5,232(sp)
.LM134:
	sw	a5,32(sp)
	lw	a5,28(a0)
.LM135:
	sw	s8,220(sp)
	sw	s9,216(sp)
	.cfi_offset 9, -8
	.cfi_offset 18, -12
	.cfi_offset 19, -16
	.cfi_offset 21, -24
	.cfi_offset 24, -36
	.cfi_offset 25, -40
.LM136:
	sw	a5,36(sp)
.LVL20:
.LM137:
.LM138:
	lw	a5,32(a0)
.LVL21:
.LM139:
	sw	a5,40(sp)
	lw	a5,36(a0)
	sw	a5,44(sp)
.LVL22:
.LM140:
.LM141:
	lw	a5,40(a0)
.LVL23:
.LM142:
	lw	t5,96(a0)
	lw	s7,100(a0)
.LM143:
	sw	a5,48(sp)
	lw	a5,44(a0)
	sw	a5,52(sp)
.LVL24:
.LM144:
.LM145:
	lw	a5,48(a0)
.LVL25:
.LM146:
	sw	a5,56(sp)
	lw	a5,52(a0)
	sw	a5,60(sp)
.LVL26:
.LM147:
.LM148:
	lw	a5,56(a0)
.LVL27:
.LM149:
	sw	a5,64(sp)
	lw	a5,60(a0)
	sw	a5,68(sp)
.LVL28:
.LM150:
.LM151:
	lw	a5,64(a0)
.LVL29:
.LM152:
	sw	a5,72(sp)
	lw	a5,68(a0)
	sw	a5,76(sp)
.LVL30:
.LM153:
.LM154:
	lw	a5,72(a0)
.LVL31:
.LM155:
	sw	a5,80(sp)
	lw	a5,76(a0)
	sw	a5,84(sp)
.LVL32:
.LM156:
.LM157:
	lw	a5,80(a0)
.LVL33:
.LM158:
	sw	a5,88(sp)
	lw	a5,84(a0)
	sw	a5,92(sp)
.LVL34:
.LM159:
.LM160:
	lw	a5,88(a0)
.LVL35:
.LM161:
	sw	a5,96(sp)
	lw	a5,92(a0)
	sw	a5,100(sp)
.LVL36:
.LM162:
.LM163:
.LM164:
	lw	a5,104(a0)
.LVL37:
.LM165:
	sw	a5,104(sp)
	lw	a5,108(a0)
	sw	a5,108(sp)
.LVL38:
.LM166:
.LM167:
	lw	a5,112(a0)
.LVL39:
.LM168:
	sw	a5,112(sp)
	lw	a5,116(a0)
	sw	a5,116(sp)
.LVL40:
.LM169:
.LM170:
	lw	a5,120(a0)
.LVL41:
.LM171:
	sw	a5,120(sp)
	lw	a5,124(a0)
	sw	a5,124(sp)
.LVL42:
.LM172:
.LM173:
	addi	a5,a0,128
.LVL43:
.LM174:
	lw	a4,0(a5)
.LM175:
	lw	t4,16(a5)
	lw	s6,20(a5)
.LM176:
	sw	a4,128(sp)
	lw	a4,4(a5)
	sw	a4,132(sp)
.LVL44:
.LM177:
.LM178:
	lw	a4,8(a5)
.LVL45:
.LM179:
	sw	a4,136(sp)
	lw	a4,12(a5)
	sw	a4,140(sp)
.LVL46:
.LM180:
.LM181:
.LM182:
	lw	a4,24(a5)
.LVL47:
.LM183:
	sw	a4,144(sp)
	lw	a4,28(a5)
	sw	a4,148(sp)
.LVL48:
.LM184:
.LM185:
	lw	a4,32(a5)
.LVL49:
.LM186:
	sw	a4,152(sp)
	lw	a4,36(a5)
	sw	a4,156(sp)
.LVL50:
.LM187:
.LM188:
	lw	a4,40(a5)
.LVL51:
.LM189:
	sw	a4,160(sp)
	lw	a4,44(a5)
	sw	a4,164(sp)
.LVL52:
.LM190:
.LM191:
	lw	t3,48(a5)
.LM192:
	lw	a4,56(a5)
.LVL53:
.LM193:
	lw	s0,52(a5)
.LVL54:
.LM194:
.LM195:
	lw	a2,64(a5)
.LM196:
	sw	a4,168(sp)
	lw	a4,60(a5)
.LM197:
	lw	s4,68(a5)
	lui	a5,%hi(KeccakF_RoundConstants)
.LVL55:
.LM198:
	sw	a4,172(sp)
.LVL56:
.LM199:
.LM200:
.LM201:
	addi	s11,a5,%lo(KeccakF_RoundConstants)
.LVL57:
.L12:
.LM202:
.LM203:
	lw	a5,48(sp)
	lw	a4,52(sp)
.LM204:
	lw	a3,56(sp)
.LM205:
	xor	s1,s10,a5
	lw	a5,12(sp)
.LM206:
	addi	s11,s11,16
.LM207:
	xor	a4,a5,a4
.LM208:
	lw	a5,88(sp)
	xor	s1,s1,a5
	lw	a5,92(sp)
	xor	a4,a4,a5
.LM209:
	lw	a5,120(sp)
	xor	s1,s1,a5
	lw	a5,124(sp)
	xor	a4,a4,a5
.LM210:
	lw	a5,152(sp)
	xor	s1,s1,a5
	lw	a5,156(sp)
	xor	a4,a4,a5
.LVL58:
.LM211:
.LM212:
	lw	a5,16(sp)
	xor	s9,a5,a3
	lw	a5,20(sp)
	lw	a3,60(sp)
	xor	a6,a5,a3
.LM213:
	lw	a5,96(sp)
.LM214:
	lw	a3,64(sp)
.LM215:
	xor	s9,s9,a5
	lw	a5,100(sp)
	xor	a6,a6,a5
.LM216:
	lw	a5,128(sp)
	xor	s9,s9,a5
	lw	a5,132(sp)
	xor	a6,a6,a5
.LM217:
	lw	a5,160(sp)
	xor	s9,s9,a5
	lw	a5,164(sp)
	xor	a6,a6,a5
.LVL59:
.LM218:
.LM219:
	lw	a5,24(sp)
.LM220:
	srli	a7,a6,31
	slli	t0,a6,1
.LM221:
	xor	s8,a5,a3
	lw	a5,28(sp)
	lw	a3,68(sp)
.LM222:
	xor	s8,s8,t5
.LM223:
	xor	s5,a5,a3
.LM224:
	lw	a5,136(sp)
.LM225:
	xor	s5,s5,s7
.LM226:
	lw	a3,72(sp)
.LM227:
	xor	s8,s8,a5
	lw	a5,140(sp)
.LM228:
	xor	s8,s8,t3
.LM229:
	xor	s5,s5,a5
.LM230:
	lw	a5,32(sp)
.LM231:
	xor	s5,s5,s0
.LVL60:
.LM232:
.LM233:
	srli	a1,s5,31
.LM234:
	xor	s3,a5,a3
	lw	a5,36(sp)
	lw	a3,76(sp)
.LM235:
	slli	t6,s5,1
.LM236:
	xor	s2,a5,a3
.LM237:
	lw	a5,104(sp)
	xor	s3,s3,a5
	lw	a5,108(sp)
.LM238:
	xor	s3,s3,t4
.LM239:
	xor	s2,s2,a5
.LM240:
	lw	a5,168(sp)
.LM241:
	xor	s2,s2,s6
.LM242:
	xor	s3,s3,a5
	lw	a5,172(sp)
.LM243:
	lw	a3,80(sp)
.LM244:
	slli	t2,s3,1
.LM245:
	xor	s2,s2,a5
.LVL61:
.LM246:
.LM247:
	lw	a5,40(sp)
	xor	t1,a5,a3
	lw	a5,44(sp)
	lw	a3,84(sp)
	xor	a3,a5,a3
.LM248:
	lw	a5,112(sp)
	xor	t1,t1,a5
	lw	a5,116(sp)
	xor	a3,a3,a5
.LM249:
	lw	a5,144(sp)
	xor	t1,t1,a5
	lw	a5,148(sp)
.LM250:
	xor	t1,t1,a2
.LM251:
	xor	a3,a3,a5
.LM252:
	slli	a5,s9,1
	add	a7,a7,a5
	srli	a5,s9,31
	add	t0,a5,t0
.LM253:
	slli	a5,s8,1
	add	a1,a1,a5
	srli	a5,s8,31
	add	t6,a5,t6
.LM254:
	srli	a5,s2,31
	add	a5,a5,t2
	sw	a5,176(sp)
	slli	t2,s2,1
	srli	a5,s3,31
	add	t2,a5,t2
.LM255:
	lw	a5,176(sp)
.LM256:
	xor	a3,a3,s4
.LVL62:
.LM257:
.LM258:
	xor	a7,a7,t1
	xor	t0,t0,a3
.LVL63:
.LM259:
.LM260:
	xor	a5,a5,s9
	xor	t2,t2,a6
.LM261:
	srli	s9,a3,31
.LVL64:
.LM262:
	slli	a6,t1,1
.LVL65:
.LM263:
	slli	a3,a3,1
.LVL66:
.LM264:
	srli	t1,t1,31
.LVL67:
.LM265:
	add	a3,t1,a3
.LM266:
	xor	a1,a1,s1
	xor	t6,t6,a4
.LVL68:
.LM267:
.LM268:
.LM269:
	xor	a3,a3,s5
.LM270:
	slli	t1,s1,1
	srli	s5,a4,31
.LVL69:
.LM271:
	srli	s1,s1,31
.LVL70:
.LM272:
	slli	a4,a4,1
.LVL71:
.LM273:
	add	a4,s1,a4
.LM274:
	lw	s1,12(sp)
.LM275:
	xor	a4,a4,s2
.LM276:
	add	t1,s5,t1
.LM277:
	xor	s2,t0,s1
.LVL72:
.LM278:
	lw	s5,60(sp)
	lw	s1,56(sp)
.LM279:
	add	a6,s9,a6
.LM280:
	xor	a6,a6,s8
.LVL73:
.LM281:
.LM282:
	xor	s1,a1,s1
	xor	s8,t6,s5
.LVL74:
.LM283:
	srli	s9,s1,20
	slli	s5,s8,12
	slli	s1,s1,12
	srli	s8,s8,20
	add	s1,s1,s8
.LM284:
	xor	t5,a5,t5
.LVL75:
.LM285:
	xor	s8,t2,s7
.LM286:
	add	s5,s5,s9
.LM287:
	slli	s7,s8,11
	srli	s9,t5,21
	srli	s8,s8,21
	slli	t5,t5,11
	add	t5,t5,s8
.LM288:
	xor	t4,a6,t4
.LVL76:
.LM289:
	xor	s8,a3,s6
.LM290:
	xor	t1,t1,s3
.LVL77:
.LM291:
.LM292:
	add	s7,s7,s9
.LM293:
	srli	s6,s8,11
.LVL78:
.LM294:
	slli	s9,t4,21
	slli	s8,s8,21
	srli	t4,t4,11
	add	t4,t4,s8
.LM295:
	xor	a2,t1,a2
.LVL79:
.LM296:
	xor	s8,a4,s4
.LM297:
	add	s6,s6,s9
.LM298:
	srli	s4,s8,18
	slli	s9,a2,14
	slli	s8,s8,14
	srli	a2,a2,18
	add	a2,a2,s8
.LM299:
	lw	s8,-16(s11)
.LM300:
	xor	s3,a7,s10
.LVL80:
.LM301:
.LM302:
.LM303:
.LM304:
.LM305:
.LM306:
.LM307:
.LM308:
.LM309:
.LM310:
	not	s10,s5
.LM311:
	xor	s8,s8,s3
	sw	s8,12(sp)
.LM312:
	not	s8,s1
.LM313:
	and	s8,s8,t5
	sw	s8,56(sp)
.LVL81:
.LM314:
	lw	s8,12(sp)
.LM315:
	add	s4,s4,s9
.LVL82:
.LM316:
.LM317:
.LM318:
	and	s10,s10,s7
.LM319:
	lw	s9,-12(s11)
	xor	s10,s8,s10
	lw	s8,56(sp)
	xor	s9,s9,s2
.LM320:
	xor	t3,a5,t3
.LVL83:
.LM321:
	xor	s8,s9,s8
	sw	s8,12(sp)
.LVL84:
.LM322:
.LM323:
	not	s9,s7
	not	s8,t5
.LVL85:
.LM324:
	and	s9,s9,s6
	and	s8,s8,t4
.LM325:
	xor	s9,s9,s5
	xor	s8,s8,s1
	sw	s9,176(sp)
	sw	s8,180(sp)
.LVL86:
.LM326:
.LM327:
	not	s9,s6
.LVL87:
.LM328:
	not	s8,t4
.LVL88:
.LM329:
	and	s9,s9,s4
	and	s8,s8,a2
.LM330:
	xor	s7,s9,s7
.LVL89:
.LM331:
	xor	t5,s8,t5
	sw	s7,184(sp)
	sw	t5,188(sp)
.LVL90:
.LM332:
.LM333:
	not	s7,s4
.LVL91:
.LM334:
	not	t5,a2
.LVL92:
.LM335:
	and	s7,s7,s3
	and	t5,t5,s2
.LM336:
	not	s3,s3
.LVL93:
.LM337:
	not	s2,s2
.LVL94:
.LM338:
	and	s3,s3,s5
.LVL95:
.LM339:
	and	s2,s2,s1
.LM340:
	xor	a2,s2,a2
.LVL96:
.LM341:
	xor	s1,s3,s4
.LVL97:
.LM342:
	sw	s1,192(sp)
	sw	a2,196(sp)
.LM343:
	lw	s1,36(sp)
	lw	a2,32(sp)
.LM344:
	xor	t4,t5,t4
.LVL98:
.LM345:
	xor	t5,a3,s1
	xor	a2,a6,a2
.LM346:
	slli	s1,a2,28
.LM347:
	sw	t4,60(sp)
.LVL99:
.LM348:
.LM349:
.LM350:
.LM351:
	srli	t4,t5,4
.LVL100:
.LM352:
	add	t4,t4,s1
.LM353:
	lw	s1,80(sp)
.LM354:
	xor	s6,s7,s6
.LM355:
	slli	t5,t5,28
	srli	a2,a2,4
	add	a2,a2,t5
.LVL101:
.LM356:
.LM357:
.LM358:
	sw	s6,56(sp)
.LVL102:
.LM359:
	xor	t5,t1,s1
	lw	s1,84(sp)
.LM360:
	slli	s2,t5,20
	srli	t5,t5,12
.LM361:
	xor	s1,a4,s1
.LM362:
	srli	s3,s1,12
	slli	s1,s1,20
	add	t5,t5,s1
.LM363:
	lw	s1,88(sp)
.LM364:
	add	s3,s3,s2
.LVL103:
.LM365:
.LM366:
.LM367:
	xor	s0,t2,s0
.LM368:
	xor	s2,a7,s1
	lw	s1,92(sp)
.LM369:
	slli	s5,s2,3
	srli	s2,s2,29
.LM370:
	xor	s1,t0,s1
.LM371:
	srli	s4,s1,29
.LM372:
	slli	s1,s1,3
	add	s2,s2,s1
	add	s4,s4,s5
.LVL104:
.LM373:
.LM374:
.LM375:
	lw	s1,128(sp)
	lw	s5,132(sp)
	xor	s1,a1,s1
	xor	s6,t6,s5
.LM376:
	srli	s7,s1,19
	slli	s5,s6,13
	slli	s1,s1,13
	srli	s6,s6,19
	add	s5,s5,s7
	add	s1,s1,s6
.LVL105:
.LM377:
.LM378:
.LM379:
	srli	s7,t3,3
	slli	s6,s0,29
	slli	t3,t3,29
	srli	s0,s0,3
	add	t3,t3,s0
.LM380:
	not	s0,t5
.LM381:
	and	s0,s0,s2
.LM382:
	xor	s0,s0,a2
	sw	s0,132(sp)
.LVL106:
.LM383:
	not	s0,s2
.LM384:
	and	s0,s0,s1
.LM385:
	xor	s0,s0,t5
	sw	s0,36(sp)
.LVL107:
.LM386:
	not	s0,s1
.LM387:
	and	s0,s0,t3
.LM388:
	add	s6,s6,s7
.LVL108:
.LM389:
.LM390:
.LM391:
.LM392:
	xor	s0,s0,s2
.LM393:
	not	s7,s3
.LM394:
	and	s7,s7,s4
.LM395:
	sw	s0,92(sp)
.LVL109:
.LM396:
.LM397:
	not	s2,s6
.LVL110:
.LM398:
	not	s0,t3
.LVL111:
.LM399:
	xor	s7,s7,t4
.LM400:
	and	s2,s2,t4
	and	s0,s0,a2
.LM401:
	not	t4,t4
.LVL112:
.LM402:
	xor	s0,s0,s1
.LM403:
	and	t4,t4,s3
.LVL113:
.LM404:
	not	a2,a2
.LM405:
	sw	s0,204(sp)
.LVL114:
.LM406:
.LM407:
	and	a2,a2,t5
.LM408:
	xor	s0,t4,s6
.LVL115:
.LM409:
	xor	a2,a2,t3
	sw	s0,80(sp)
.LVL116:
.LM410:
	lw	s0,20(sp)
.LM411:
	sw	a2,84(sp)
.LVL117:
.LM412:
.LM413:
.LM414:
	lw	a2,16(sp)
.LVL118:
.LM415:
	xor	t4,t6,s0
.LM416:
	lw	s0,64(sp)
.LM417:
	xor	a2,a1,a2
.LM418:
	slli	t5,a2,1
.LVL119:
.LM419:
	srli	t3,t4,31
.LVL120:
.LM420:
	srli	a2,a2,31
	slli	t4,t4,1
	add	a2,a2,t4
.LM421:
	xor	t4,a5,s0
	lw	s0,68(sp)
.LM422:
	add	t3,t3,t5
.LVL121:
.LM423:
.LM424:
.LM425:
	slli	s1,t4,6
.LVL122:
.LM426:
	xor	s0,t2,s0
.LM427:
	srli	t5,s0,26
	srli	t4,t4,26
	slli	s0,s0,6
	add	t4,t4,s0
.LM428:
	lw	s0,104(sp)
.LM429:
	add	t5,t5,s1
.LVL123:
.LM430:
.LM431:
.LM432:
	sw	s7,128(sp)
.LVL124:
.LM433:
	xor	s1,a6,s0
	lw	s0,108(sp)
.LM434:
	not	s7,s4
.LM435:
	xor	s2,s2,s5
.LM436:
	xor	s0,a3,s0
.LM437:
	and	s7,s7,s5
.LM438:
	xor	s7,s7,s3
.LM439:
	sw	s2,200(sp)
.LVL125:
.LM440:
	slli	s3,s1,25
	srli	s2,s0,7
	srli	s1,s1,7
	slli	s0,s0,25
	add	s1,s1,s0
	add	s2,s2,s3
.LVL126:
.LM441:
.LM442:
.LM443:
	lw	s0,144(sp)
	lw	s3,148(sp)
.LM444:
	sw	s7,32(sp)
.LVL127:
.LM445:
	not	s7,s5
.LM446:
	and	s7,s7,s6
.LM447:
	xor	s4,s7,s4
.LM448:
	xor	s0,t1,s0
.LM449:
	sw	s4,88(sp)
.LVL128:
.LM450:
	xor	s4,a4,s3
.LM451:
	slli	s5,s0,8
.LM452:
	srli	s3,s4,24
	srli	s0,s0,24
	slli	s4,s4,8
	add	s3,s3,s5
	add	s0,s0,s4
.LVL129:
.LM453:
.LM454:
.LM455:
	lw	s5,156(sp)
	lw	s4,152(sp)
	xor	s6,t0,s5
.LM456:
	xor	s4,a7,s4
.LM457:
	slli	s7,s4,18
	srli	s5,s6,14
	srli	s4,s4,14
	slli	s6,s6,18
	add	s5,s5,s7
	add	s4,s4,s6
.LVL130:
.LM458:
.LM459:
	not	s7,t5
	not	s6,t4
.LM460:
	and	s7,s7,s2
	and	s6,s6,s1
.LM461:
	xor	s7,s7,t3
	xor	s6,s6,a2
	sw	s7,64(sp)
.LVL131:
.LM462:
	sw	s6,68(sp)
.LVL132:
.LM463:
.LM464:
	not	s7,s2
.LVL133:
.LM465:
	not	s6,s1
.LVL134:
.LM466:
	and	s7,s7,s3
	and	s6,s6,s0
.LM467:
	xor	s7,s7,t5
	xor	s6,s6,t4
	sw	s7,144(sp)
.LVL135:
.LM468:
	sw	s6,148(sp)
.LVL136:
.LM469:
.LM470:
	not	s7,s3
.LVL137:
.LM471:
	not	s6,s0
.LVL138:
.LM472:
	and	s7,s7,s5
	and	s6,s6,s4
.LM473:
	xor	s6,s6,s1
	xor	s2,s7,s2
.LVL139:
.LM474:
.LM475:
	not	s1,s4
.LVL140:
.LM476:
	not	s7,s5
.LM477:
	and	s7,s7,t3
	and	s1,s1,a2
.LM478:
	not	t3,t3
.LVL141:
.LM479:
	xor	s0,s1,s0
.LVL142:
.LM480:
	and	t3,t3,t5
.LVL143:
.LM481:
	not	a2,a2
.LVL144:
.LM482:
	xor	s3,s7,s3
.LM483:
	sw	s0,108(sp)
.LVL145:
.LM484:
.LM485:
	and	a2,a2,t4
.LVL146:
.LM486:
	xor	s0,t3,s5
.LVL147:
.LM487:
	xor	a2,a2,s4
.LM488:
	sw	s3,104(sp)
.LVL148:
.LM489:
	sw	s0,152(sp)
.LVL149:
.LM490:
	sw	a2,156(sp)
.LVL150:
.LM491:
.LM492:
.LM493:
	lw	s0,44(sp)
.LVL151:
.LM494:
	lw	a2,40(sp)
.LVL152:
.LM495:
	lw	s1,100(sp)
.LM496:
	xor	t4,a4,s0
.LVL153:
.LM497:
	lw	s0,48(sp)
.LM498:
	xor	a2,t1,a2
.LM499:
	slli	t5,a2,27
.LM500:
	srli	t3,t4,5
	add	t3,t3,t5
.LM501:
	xor	t5,a7,s0
	lw	s0,52(sp)
.LM502:
	slli	t4,t4,27
	srli	a2,a2,5
	add	a2,a2,t4
.LVL154:
.LM503:
.LM504:
.LM505:
	xor	t4,t0,s0
.LM506:
	slli	s4,t4,4
.LVL155:
.LM507:
	srli	s0,t5,28
	add	s4,s4,s0
.LM508:
	lw	s0,96(sp)
.LM509:
	srli	t4,t4,28
	slli	t5,t5,4
	add	t5,t5,t4
.LVL156:
.LM510:
.LM511:
.LM512:
	xor	s0,a1,s0
	xor	t4,t6,s1
.LM513:
	slli	s3,s0,10
	srli	s1,t4,22
	srli	s0,s0,22
	slli	t4,t4,10
	add	s0,s0,t4
.LM514:
	lw	t4,136(sp)
.LM515:
	add	s1,s1,s3
.LVL157:
.LM516:
.LM517:
.LM518:
	xor	s3,a5,t4
	lw	t4,140(sp)
.LM519:
	slli	s5,s3,15
.LM520:
	srli	s3,s3,17
.LM521:
	xor	t4,t2,t4
.LM522:
	srli	s7,t4,17
	slli	t4,t4,15
	add	s7,s7,s5
	add	s3,s3,t4
.LVL158:
.LM523:
.LM524:
.LM525:
	lw	s5,172(sp)
	lw	t4,168(sp)
	xor	s8,a3,s5
	xor	t4,a6,t4
.LM526:
	srli	s9,t4,8
	slli	s5,s8,24
	slli	t4,t4,24
	srli	s8,s8,8
	add	t4,t4,s8
.LM527:
	not	s8,t5
.LM528:
	and	s8,s8,s0
.LM529:
	xor	s8,s8,a2
	sw	s8,172(sp)
.LVL159:
.LM530:
	not	s8,s0
.LM531:
	and	s8,s8,s3
.LM532:
	xor	s8,s8,t5
	sw	s8,52(sp)
.LVL160:
.LM533:
	not	s8,s3
.LM534:
	and	s8,s8,t4
.LM535:
	xor	s0,s8,s0
.LVL161:
.LM536:
	sw	s0,140(sp)
.LVL162:
.LM537:
	not	s0,t4
.LM538:
	and	s0,s0,a2
.LM539:
	not	a2,a2
.LVL163:
.LM540:
	and	a2,a2,t5
.LVL164:
.LM541:
	xor	a2,a2,t4
	sw	a2,100(sp)
.LVL165:
.LM542:
	lw	a2,24(sp)
.LM543:
	add	s5,s5,s9
.LVL166:
.LM544:
.LM545:
.LM546:
.LM547:
.LM548:
	not	s9,s4
.LM549:
	xor	a5,a5,a2
.LVL167:
.LM550:
	and	s9,s9,s1
.LM551:
	lw	a2,28(sp)
.LM552:
	xor	s9,s9,t3
	sw	s9,168(sp)
.LVL168:
.LM553:
	not	s9,s1
.LM554:
	xor	t2,t2,a2
.LM555:
	and	s9,s9,s7
.LM556:
	xor	s9,s9,s4
.LM557:
	srli	a2,a5,2
	slli	t4,t2,30
.LVL169:
.LM558:
	add	t4,t4,a2
.LM559:
	sw	s9,48(sp)
.LVL170:
.LM560:
	lw	a2,72(sp)
.LM561:
	not	s9,s7
.LM562:
	and	s9,s9,s5
.LM563:
	xor	s1,s9,s1
.LM564:
	xor	a6,a6,a2
.LVL171:
.LM565:
	sw	s1,136(sp)
.LVL172:
.LM566:
	lw	a2,76(sp)
.LM567:
	not	s1,s5
.LM568:
	and	s1,s1,t3
.LM569:
	not	t3,t3
.LVL173:
.LM570:
	and	t3,t3,s4
.LVL174:
.LM571:
	xor	t3,t3,s5
.LM572:
	xor	a3,a3,a2
.LM573:
	sw	t3,96(sp)
.LM574:
	slli	a2,a3,23
	srli	t3,a6,9
	srli	a3,a3,9
	slli	a6,a6,23
	add	a6,a6,a3
.LM575:
	lw	a3,112(sp)
.LM576:
	add	a2,a2,t3
.LM577:
	srli	t2,t2,2
.LM578:
	xor	t1,t1,a3
.LVL175:
.LM579:
	lw	a3,116(sp)
.LM580:
	srli	t3,t1,25
	slli	t1,t1,7
.LM581:
	xor	a4,a4,a3
.LM582:
	slli	a3,a4,7
	srli	a4,a4,25
	add	t1,t1,a4
.LM583:
	lw	a4,120(sp)
.LM584:
	add	a3,a3,t3
.LM585:
	slli	a5,a5,30
.LM586:
	xor	a7,a7,a4
.LVL176:
.LM587:
	lw	a4,124(sp)
.LM588:
	srli	t3,a7,23
.LM589:
	add	a5,a5,t2
.LM590:
	xor	t0,t0,a4
.LM591:
	slli	a4,t0,9
	add	a4,a4,t3
.LM592:
	lw	t3,160(sp)
.LM593:
	srli	t0,t0,23
	slli	a7,a7,9
.LM594:
	xor	a1,a1,t3
.LVL177:
.LM595:
	lw	t3,164(sp)
.LM596:
	slli	t5,a1,2
.LVL178:
.LM597:
	srli	a1,a1,30
.LM598:
	xor	t6,t6,t3
.LM599:
	srli	t3,t6,30
	slli	t6,t6,2
	add	t3,t3,t5
	add	a1,a1,t6
.LM600:
	not	t5,a6
	not	t6,a2
.LM601:
	and	t6,t6,a3
	and	t5,t5,t1
.LM602:
	xor	t6,t6,t4
	xor	t5,t5,a5
.LM603:
	add	a7,a7,t0
.LM604:
	sw	t6,112(sp)
.LVL179:
.LM605:
	sw	t5,116(sp)
.LM606:
	not	t6,a3
	not	t5,t1
.LM607:
	and	t6,t6,a4
	and	t5,t5,a7
.LM608:
	xor	t6,t6,a2
	xor	t5,t5,a6
	sw	t6,160(sp)
.LVL180:
.LM609:
	sw	t5,164(sp)
.LM610:
	not	t6,a7
	not	t5,a4
.LM611:
	and	t6,t6,a1
	and	t5,t5,t3
.LM612:
	xor	t5,t5,a3
	xor	a3,t6,t1
	sw	a3,72(sp)
.LVL181:
.LM613:
	not	a3,a1
.LM614:
	and	a3,a3,a5
.LM615:
	not	a5,a5
.LM616:
	and	a5,a5,a6
.LM617:
	not	t1,t3
.LM618:
	xor	s8,a5,a1
.LM619:
	and	t1,t1,t4
.LM620:
	lw	a5,128(sp)
.LM621:
	xor	a4,t1,a4
	sw	a4,120(sp)
.LVL182:
.LM622:
	xor	a4,a3,a7
.LM623:
	xor	t0,s10,a5
.LM624:
	sw	a4,124(sp)
.LM625:
	lw	a5,12(sp)
	lw	a4,132(sp)
.LM626:
	lw	a3,32(sp)
.LM627:
	xor	s1,s1,s7
.LM628:
	xor	a5,a5,a4
	lw	a4,64(sp)
.LM629:
	xor	s0,s0,s3
.LVL183:
.LM630:
.LM631:
.LM632:
.LM633:
.LM634:
.LM635:
.LM636:
.LM637:
.LM638:
.LM639:
.LM640:
.LM641:
.LM642:
.LM643:
.LM644:
.LM645:
.LM646:
	not	t4,t4
.LM647:
	xor	t0,t0,a4
	lw	a4,68(sp)
.LM648:
	and	t4,t4,a2
.LM649:
	xor	t4,t4,t3
.LVL184:
.LM650:
.LM651:
	xor	a5,a5,a4
	lw	a4,168(sp)
	xor	t0,t0,a4
	lw	a4,172(sp)
	xor	a5,a5,a4
	lw	a4,112(sp)
	xor	t0,t0,a4
	lw	a4,116(sp)
	xor	a5,a5,a4
.LVL185:
.LM652:
.LM653:
	lw	a4,176(sp)
	xor	s7,a4,a3
	lw	a4,180(sp)
	lw	a3,36(sp)
	xor	a6,a4,a3
.LVL186:
.LM654:
	lw	a4,144(sp)
.LM655:
	lw	a3,88(sp)
.LM656:
	xor	s7,s7,a4
	lw	a4,148(sp)
	xor	a6,a6,a4
.LM657:
	lw	a4,48(sp)
	xor	s7,s7,a4
	lw	a4,52(sp)
	xor	a6,a6,a4
.LM658:
	lw	a4,160(sp)
	xor	s7,s7,a4
	lw	a4,164(sp)
	xor	a6,a6,a4
.LVL187:
.LM659:
.LM660:
	lw	a4,184(sp)
.LM661:
	srli	a7,a6,31
	slli	t6,a6,1
.LM662:
	xor	s5,a4,a3
	lw	a4,188(sp)
	lw	a3,92(sp)
.LM663:
	xor	s5,s5,s2
.LM664:
	xor	s4,a4,a3
.LM665:
	lw	a4,136(sp)
.LM666:
	xor	s4,s4,s6
.LM667:
	lw	a3,200(sp)
.LM668:
	xor	s5,s5,a4
	lw	a4,140(sp)
.LM669:
	xor	s5,s5,t5
.LM670:
	xor	s4,s4,a4
.LM671:
	lw	a4,72(sp)
	xor	s4,s4,a4
.LVL188:
.LM672:
.LM673:
	lw	a4,56(sp)
.LM674:
	srli	a1,s4,31
.LVL189:
.LM675:
	slli	t3,s4,1
.LM676:
	xor	s3,a4,a3
	lw	a3,204(sp)
	lw	a4,60(sp)
	xor	t2,a4,a3
.LM677:
	lw	a4,104(sp)
.LM678:
	lw	a3,152(sp)
.LM679:
	xor	s3,s3,a4
	lw	a4,108(sp)
.LM680:
	xor	s3,s3,s1
.LM681:
	xor	t2,t2,a4
.LM682:
	lw	a4,120(sp)
.LM683:
	xor	t2,t2,s0
.LM684:
	xor	s3,s3,a4
	lw	a4,124(sp)
.LM685:
	slli	a2,s3,1
	srli	s9,s3,31
.LM686:
	xor	t2,t2,a4
.LVL190:
.LM687:
.LM688:
	lw	a4,80(sp)
	xor	t1,a4,a3
	lw	a3,156(sp)
	lw	a4,84(sp)
	xor	a4,a4,a3
	lw	a3,192(sp)
	xor	t1,t1,a3
	lw	a3,196(sp)
	xor	a4,a4,a3
.LM689:
	lw	a3,96(sp)
	xor	t1,t1,a3
	lw	a3,100(sp)
.LM690:
	xor	t1,t1,t4
.LM691:
	xor	a4,a4,a3
.LM692:
	slli	a3,s7,1
	add	a7,a7,a3
	srli	a3,s7,31
	add	t6,a3,t6
.LM693:
	slli	a3,s5,1
	add	a1,a1,a3
	srli	a3,s5,31
	add	t3,a3,t3
.LM694:
	srli	a3,t2,31
	add	a3,a3,a2
	slli	a2,t2,1
.LM695:
	xor	a4,a4,s8
.LVL191:
.LM696:
.LM697:
	add	a2,s9,a2
.LM698:
	xor	a7,a7,t1
	xor	t6,t6,a4
.LVL192:
.LM699:
.LM700:
	xor	a3,a3,s7
	xor	a2,a2,a6
.LM701:
	srli	s7,a4,31
.LVL193:
.LM702:
	slli	a6,t1,1
.LVL194:
.LM703:
	slli	a4,a4,1
.LVL195:
.LM704:
	srli	t1,t1,31
.LVL196:
.LM705:
	add	a4,t1,a4
.LM706:
	xor	a1,a1,t0
	xor	t3,t3,a5
.LVL197:
.LM707:
.LM708:
.LM709:
	xor	a4,a4,s4
.LM710:
	slli	t1,t0,1
	srli	s4,a5,31
.LVL198:
.LM711:
	srli	t0,t0,31
.LVL199:
.LM712:
	slli	a5,a5,1
.LVL200:
.LM713:
	add	a5,t0,a5
.LM714:
	lw	t0,12(sp)
.LM715:
	add	t1,s4,t1
.LM716:
	xor	t1,t1,s3
	xor	a5,a5,t2
.LM717:
	xor	s3,t0,t6
.LVL201:
.LM718:
	lw	t2,36(sp)
.LVL202:
.LM719:
	lw	t0,32(sp)
.LM720:
	add	a6,s7,a6
.LM721:
	xor	t2,t2,t3
	xor	t0,t0,a1
.LM722:
	xor	a6,a6,s5
.LVL203:
.LM723:
.LM724:
.LM725:
	srli	s7,t0,20
	slli	s5,t2,12
.LVL204:
.LM726:
	slli	t0,t0,12
	srli	t2,t2,20
	add	t0,t0,t2
.LM727:
	xor	s2,s2,a3
.LVL205:
.LM728:
	xor	t2,s6,a2
.LM729:
	add	s5,s5,s7
.LM730:
	srli	s6,s2,21
.LM731:
	xor	s1,s1,a6
.LVL206:
.LM732:
	xor	s0,s0,a4
.LM733:
	slli	s7,t2,11
	slli	s2,s2,11
	srli	t2,t2,21
	add	s2,s2,t2
	add	s7,s7,s6
.LM734:
	slli	t2,s1,21
.LM735:
	xor	t4,t4,t1
.LVL207:
.LM736:
	xor	s8,s8,a5
.LM737:
	srli	s6,s0,11
	srli	s1,s1,11
	slli	s0,s0,21
	add	s6,s6,t2
	add	t2,s1,s0
.LM738:
	slli	s1,t4,14
	srli	s0,s8,18
	srli	t4,t4,18
	slli	s8,s8,14
	add	t4,t4,s8
.LM739:
	lw	s8,-4(s11)
.LM740:
	add	s0,s0,s1
.LM741:
	not	s1,t0
.LM742:
	xor	s8,s8,s3
.LM743:
	and	s1,s1,s2
.LM744:
	xor	s1,s8,s1
	sw	s1,12(sp)
.LVL208:
.LM745:
	not	s1,s2
.LM746:
	and	s1,s1,t2
.LM747:
	xor	s1,s1,t0
.LM748:
	xor	s4,s10,a7
.LVL209:
.LM749:
.LM750:
.LM751:
.LM752:
.LM753:
.LM754:
.LM755:
.LM756:
.LM757:
.LM758:
.LM759:
.LM760:
	sw	s1,20(sp)
.LM761:
	lw	s10,-8(s11)
.LM762:
	not	s1,t2
.LM763:
	not	s8,s7
.LM764:
	and	s1,s1,t4
.LM765:
	xor	s1,s1,s2
.LM766:
	and	s8,s8,s6
.LM767:
	not	s2,s0
.LVL210:
.LM768:
	xor	s8,s8,s5
.LM769:
	xor	s10,s10,s4
.LM770:
	sw	s1,28(sp)
.LM771:
	and	s2,s2,s4
.LM772:
	not	s1,t4
.LM773:
	not	s4,s4
.LVL211:
.LM774:
	and	s4,s4,s5
.LVL212:
.LM775:
	sw	s8,16(sp)
.LM776:
	and	s1,s1,s3
.LM777:
	not	s8,s6
.LM778:
	not	s3,s3
.LM779:
	and	s8,s8,s0
.LM780:
	and	s3,s3,t0
.LM781:
	xor	s0,s4,s0
.LVL213:
.LM782:
	sw	s0,40(sp)
	xor	s0,s3,t4
	sw	s0,44(sp)
.LM783:
	lw	s0,56(sp)
.LM784:
	xor	s1,s1,t2
	sw	s1,36(sp)
.LVL214:
.LM785:
	xor	t4,s0,a6
	lw	s0,60(sp)
.LM786:
	xor	s2,s2,s6
.LM787:
	not	s9,s5
.LM788:
	xor	t2,s0,a4
.LVL215:
.LM789:
	srli	t0,t2,4
.LVL216:
.LM790:
	slli	s0,t4,28
	add	t0,t0,s0
.LM791:
	lw	s0,80(sp)
.LM792:
	slli	t2,t2,28
	srli	t4,t4,4
	add	t4,t4,t2
.LM793:
	xor	t2,s0,t1
	lw	s0,84(sp)
.LM794:
	slli	s1,t2,20
	srli	t2,t2,12
.LM795:
	xor	s0,s0,a5
.LM796:
	srli	s3,s0,12
	slli	s0,s0,20
	add	t2,t2,s0
.LM797:
	lw	s0,64(sp)
.LM798:
	add	s3,s3,s1
.LM799:
	and	s9,s9,s7
.LM800:
	xor	s1,s0,a7
	lw	s0,68(sp)
.LM801:
	xor	s7,s8,s7
.LM802:
	sw	s2,32(sp)
.LM803:
	xor	s0,s0,t6
.LM804:
	slli	s2,s1,3
	srli	s5,s0,29
.LM805:
	srli	s1,s1,29
	slli	s0,s0,3
	add	s5,s5,s2
	add	s1,s1,s0
.LM806:
	sw	s7,24(sp)
.LM807:
	lw	s0,48(sp)
	lw	s2,52(sp)
.LM808:
	xor	t5,t5,a3
.LVL217:
.LM809:
	xor	s0,s0,a1
	xor	s2,s2,t3
.LM810:
	srli	s6,s0,19
.LM811:
	slli	s4,s2,13
	slli	s0,s0,13
	srli	s2,s2,19
	add	s0,s0,s2
.LM812:
	lw	s2,72(sp)
.LM813:
	add	s4,s4,s6
.LM814:
	srli	s7,t5,3
.LM815:
	xor	s6,s2,a2
.LM816:
	slli	s2,s6,29
	slli	t5,t5,29
	srli	s6,s6,3
	add	s2,s2,s7
	add	t5,t5,s6
.LM817:
	not	s7,s3
	not	s6,t2
.LM818:
	and	s7,s7,s5
	and	s6,s6,s1
.LM819:
	xor	s7,s7,t0
	xor	s6,s6,t4
	sw	s7,48(sp)
	sw	s6,52(sp)
.LM820:
	not	s7,s5
	not	s6,s1
.LM821:
	and	s7,s7,s4
	and	s6,s6,s0
.LM822:
	xor	s7,s7,s3
	xor	s6,s6,t2
	sw	s7,56(sp)
	sw	s6,60(sp)
.LM823:
	not	s7,s4
	not	s6,s0
.LM824:
	and	s7,s7,s2
	and	s6,s6,t5
.LM825:
	xor	s5,s7,s5
	xor	s1,s6,s1
	sw	s5,64(sp)
.LVL218:
.LM826:
	sw	s1,68(sp)
.LM827:
	not	s5,s2
	not	s1,t5
.LM828:
	and	s5,s5,t0
	and	s1,s1,t4
.LM829:
	not	t0,t0
.LM830:
	xor	s0,s1,s0
.LM831:
	and	t0,t0,s3
.LM832:
	not	t4,t4
.LM833:
	and	t4,t4,t2
.LM834:
	sw	s0,76(sp)
.LM835:
	xor	s0,t0,s2
	sw	s0,80(sp)
.LVL219:
.LM836:
	xor	s0,t4,t5
	sw	s0,84(sp)
.LM837:
	lw	s0,176(sp)
.LM838:
	lw	s1,92(sp)
.LM839:
	xor	s4,s5,s4
.LM840:
	xor	t4,s0,a1
	lw	s0,180(sp)
.LM841:
	slli	t2,t4,1
	srli	t4,t4,31
.LM842:
	xor	t5,s0,t3
.LM843:
	srli	t0,t5,31
	slli	t5,t5,1
	add	t4,t4,t5
.LM844:
	xor	t5,s1,a2
.LM845:
	lw	s1,104(sp)
.LM846:
	lw	s0,88(sp)
.LM847:
	add	t0,t0,t2
.LM848:
	xor	s2,s1,a6
	lw	s1,108(sp)
.LM849:
	xor	s0,s0,a3
.LM850:
	slli	t2,s0,6
.LM851:
	sw	s4,72(sp)
.LM852:
	srli	s0,s0,26
	srli	s4,t5,26
	slli	t5,t5,6
	add	s0,s0,t5
.LM853:
	xor	t5,s1,a4
.LM854:
	add	s4,s4,t2
.LM855:
	srli	s6,t5,7
	slli	t2,s2,25
	slli	t5,t5,25
	srli	s2,s2,7
	add	s2,s2,t5
.LM856:
	lw	s1,96(sp)
	lw	t5,100(sp)
.LM857:
	add	s6,s6,t2
.LM858:
	xor	s1,s1,t1
	xor	t5,t5,a5
.LM859:
	slli	t2,s1,8
	srli	s5,t5,24
	srli	s1,s1,24
	slli	t5,t5,8
	add	s1,s1,t5
.LM860:
	lw	t5,112(sp)
.LM861:
	add	s5,s5,t2
.LM862:
	xor	s10,s10,s9
.LVL220:
.LM863:
.LM864:
.LM865:
.LM866:
.LM867:
.LM868:
.LM869:
.LM870:
.LM871:
.LM872:
.LM873:
.LM874:
.LM875:
.LM876:
.LM877:
.LM878:
.LM879:
.LM880:
.LM881:
.LM882:
.LM883:
.LM884:
.LM885:
.LM886:
.LM887:
.LM888:
.LM889:
.LM890:
.LM891:
.LM892:
	xor	t2,t5,a7
	lw	t5,116(sp)
.LM893:
	slli	s7,t2,18
	srli	t2,t2,14
.LM894:
	xor	t5,t5,t6
.LM895:
	srli	s3,t5,14
	slli	t5,t5,18
	add	t2,t2,t5
.LM896:
	not	t5,s0
.LM897:
	add	s3,s3,s7
.LVL221:
.LM898:
.LM899:
	and	t5,t5,s2
.LM900:
	not	s7,s4
.LM901:
	xor	t5,t5,t4
.LM902:
	and	s7,s7,s6
.LM903:
	xor	s7,s7,t0
	sw	t5,92(sp)
.LVL222:
.LM904:
.LM905:
	not	t5,s2
.LVL223:
.LM906:
	sw	s7,88(sp)
.LVL224:
.LM907:
	and	t5,t5,s1
.LM908:
	not	s7,s6
.LM909:
	xor	t5,t5,s0
.LM910:
	and	s7,s7,s5
.LM911:
	xor	s7,s7,s4
	sw	t5,100(sp)
.LVL225:
.LM912:
.LM913:
	not	t5,s5
.LVL226:
.LM914:
	sw	s7,96(sp)
.LVL227:
.LM915:
	and	t5,t5,s3
.LM916:
	not	s7,s1
.LM917:
	and	s7,s7,t2
.LM918:
	xor	t5,t5,s6
.LM919:
	not	s6,s3
.LVL228:
.LM920:
	and	s6,s6,t0
.LM921:
	xor	s7,s7,s2
.LVL229:
.LM922:
.LM923:
	not	t0,t0
.LVL230:
.LM924:
	not	s2,t2
.LVL231:
.LM925:
	and	s2,s2,t4
.LM926:
	and	t0,t0,s4
.LVL232:
.LM927:
	not	t4,t4
.LVL233:
.LM928:
	and	t4,t4,s0
.LVL234:
.LM929:
	xor	s0,t0,s3
.LVL235:
.LM930:
	sw	s0,112(sp)
.LVL236:
.LM931:
	xor	s0,t4,t2
	sw	s0,116(sp)
.LM932:
	lw	s0,192(sp)
.LM933:
	xor	s5,s6,s5
.LVL237:
.LM934:
	xor	s1,s2,s1
.LM935:
	xor	t0,s0,t1
.LM936:
	sw	s5,104(sp)
.LVL238:
.LM937:
	sw	s1,108(sp)
.LVL239:
.LM938:
.LM939:
.LM940:
.LM941:
	lw	s0,196(sp)
	xor	t4,s0,a5
.LM942:
	srli	t2,t4,5
.LVL240:
.LM943:
	slli	s0,t0,27
	add	t2,t2,s0
.LM944:
	lw	s0,128(sp)
.LM945:
	slli	t4,t4,27
	srli	t0,t0,5
.LM946:
	xor	s1,s0,a7
.LVL241:
.LM947:
	lw	s0,132(sp)
.LM948:
	add	t0,t0,t4
.LVL242:
.LM949:
.LM950:
.LM951:
	xor	t4,s0,t6
.LM952:
	slli	s4,t4,4
.LM953:
	srli	s0,s1,28
	add	s4,s4,s0
.LM954:
	lw	s0,144(sp)
.LM955:
	srli	t4,t4,28
	slli	s1,s1,4
	add	s1,s1,t4
.LVL243:
.LM956:
.LM957:
.LM958:
	xor	t4,s0,a1
	lw	s0,148(sp)
.LM959:
	slli	s2,t4,10
	srli	t4,t4,22
.LM960:
	xor	s0,s0,t3
.LM961:
	srli	s6,s0,22
	slli	s0,s0,10
	add	t4,t4,s0
.LM962:
	lw	s0,136(sp)
.LM963:
	add	s6,s6,s2
.LVL244:
.LM964:
.LM965:
.LM966:
	xor	s2,s0,a3
	lw	s0,140(sp)
.LM967:
	slli	s3,s2,15
.LM968:
	srli	s2,s2,17
.LM969:
	xor	s0,s0,a2
.LM970:
	srli	s5,s0,17
.LVL245:
.LM971:
	slli	s0,s0,15
	add	s5,s5,s3
	add	s2,s2,s0
.LVL246:
.LM972:
.LM973:
.LM974:
	lw	s3,124(sp)
	lw	s0,120(sp)
	xor	s8,s3,a4
	xor	s0,s0,a6
.LM975:
	srli	s9,s0,8
	slli	s3,s8,24
	add	s3,s3,s9
.LM976:
	not	s9,s4
.LM977:
	and	s9,s9,s6
.LM978:
	xor	s9,s9,t2
	sw	s9,120(sp)
.LVL247:
.LM979:
	not	s9,s6
.LM980:
	srli	s8,s8,8
	slli	s0,s0,24
.LM981:
	and	s9,s9,s5
.LM982:
	add	s0,s0,s8
.LVL248:
.LM983:
.LM984:
	xor	s9,s9,s4
.LM985:
	not	s8,s1
.LM986:
	and	s8,s8,t4
.LM987:
	sw	s9,128(sp)
.LVL249:
.LM988:
	not	s9,s5
.LM989:
	xor	s8,s8,t0
.LM990:
	and	s9,s9,s3
.LM991:
	sw	s8,124(sp)
.LVL250:
.LM992:
.LM993:
	xor	s6,s9,s6
.LVL251:
.LM994:
	not	s8,t4
.LVL252:
.LM995:
	sw	s6,136(sp)
.LVL253:
.LM996:
	and	s8,s8,s2
.LM997:
	not	s6,s0
.LM998:
	xor	s8,s8,s1
.LM999:
	and	s6,s6,t0
.LM1000:
	not	t0,t0
.LVL254:
.LM1001:
	and	t0,t0,s1
.LVL255:
.LM1002:
	sw	s8,132(sp)
.LVL256:
.LM1003:
.LM1004:
	not	s8,s2
.LVL257:
.LM1005:
	and	s8,s8,s0
.LM1006:
	xor	s0,t0,s0
.LVL258:
.LM1007:
	sw	s0,148(sp)
.LVL259:
.LM1008:
	lw	s0,184(sp)
.LM1009:
	xor	t4,s8,t4
	sw	t4,140(sp)
.LVL260:
.LM1010:
.LM1011:
	xor	a3,s0,a3
.LVL261:
.LM1012:
	lw	s0,188(sp)
.LM1013:
	not	t4,s3
.LVL262:
.LM1014:
	and	t4,t4,t2
.LM1015:
	not	t2,t2
.LVL263:
.LM1016:
	and	t2,t2,s4
.LVL264:
.LM1017:
	xor	a2,s0,a2
.LM1018:
	xor	s1,t2,s3
.LVL265:
.LM1019:
	slli	t0,a2,30
	srli	t2,a3,2
	srli	a2,a2,2
	slli	a3,a3,30
	add	a3,a3,a2
.LM1020:
	lw	a2,200(sp)
.LM1021:
	add	t0,t0,t2
.LM1022:
	sw	s1,144(sp)
.LM1023:
	xor	a6,a2,a6
.LVL266:
.LM1024:
	lw	a2,204(sp)
.LM1025:
	xor	t4,t4,s5
	xor	s6,s6,s2
.LVL267:
.LM1026:
.LM1027:
.LM1028:
.LM1029:
.LM1030:
.LM1031:
	xor	a4,a2,a4
.LM1032:
	slli	t2,a4,23
	srli	a2,a6,9
	srli	a4,a4,9
	slli	a6,a6,23
	add	a6,a6,a4
.LM1033:
	lw	a4,152(sp)
.LM1034:
	add	t2,t2,a2
.LVL268:
.LM1035:
.LM1036:
.LM1037:
	xor	t1,a4,t1
.LVL269:
.LM1038:
	lw	a4,156(sp)
.LM1039:
	srli	a2,t1,25
	slli	t1,t1,7
.LM1040:
	xor	a5,a4,a5
.LM1041:
	slli	a4,a5,7
	srli	a5,a5,25
	add	t1,t1,a5
.LM1042:
	lw	a5,168(sp)
.LM1043:
	add	a4,a4,a2
.LVL270:
.LM1044:
.LM1045:
.LM1046:
	xor	a7,a5,a7
.LVL271:
.LM1047:
	lw	a5,172(sp)
.LM1048:
	srli	a2,a7,23
	slli	a7,a7,9
.LM1049:
	xor	t6,a5,t6
.LM1050:
	slli	a5,t6,9
	add	a5,a5,a2
.LM1051:
	lw	a2,160(sp)
.LM1052:
	srli	t6,t6,23
	add	a7,a7,t6
.LVL272:
.LM1053:
.LM1054:
.LM1055:
	xor	a1,a2,a1
.LVL273:
.LM1056:
	lw	a2,164(sp)
	xor	t3,a2,t3
.LM1057:
	srli	t6,t3,30
	slli	a2,a1,2
	add	t6,t6,a2
	slli	t3,t3,2
	srli	a1,a1,30
.LM1058:
	not	a2,a6
.LM1059:
	add	a1,a1,t3
.LVL274:
.LM1060:
.LM1061:
	and	a2,a2,t1
.LM1062:
	not	t3,t2
.LM1063:
	and	t3,t3,a4
.LM1064:
	xor	a2,a2,a3
	xor	s0,t3,t0
	sw	a2,156(sp)
.LVL275:
.LM1065:
.LM1066:
	not	t3,a4
	not	a2,t1
.LVL276:
.LM1067:
	and	t3,t3,a5
	and	a2,a2,a7
.LM1068:
	sw	s0,152(sp)
.LVL277:
.LM1069:
	xor	a2,a2,a6
	xor	s0,t3,t2
.LM1070:
	not	t3,a5
.LM1071:
	sw	a2,164(sp)
.LVL278:
.LM1072:
.LM1073:
	and	t3,t3,t6
.LM1074:
	not	a2,t6
.LVL279:
.LM1075:
	and	a2,a2,t0
.LM1076:
	xor	t3,t3,a4
.LM1077:
	not	a4,a1
.LVL280:
.LM1078:
	xor	a5,a2,a5
.LVL281:
.LM1079:
	and	a4,a4,a3
.LM1080:
	sw	s0,160(sp)
.LVL282:
.LM1081:
	sw	a5,168(sp)
.LM1082:
	xor	a5,a4,a7
.LM1083:
	not	s0,a7
.LM1084:
	sw	a5,172(sp)
.LM1085:
	not	t0,t0
.LVL283:
.LM1086:
	not	a3,a3
.LVL284:
.LM1087:
	lui	a5,%hi(KeccakF_RoundConstants+192)
.LM1088:
	and	s0,s0,a1
.LM1089:
	and	t0,t0,t2
.LVL285:
.LM1090:
	and	a3,a3,a6
.LM1091:
	addi	a5,a5,%lo(KeccakF_RoundConstants+192)
.LM1092:
	xor	s0,s0,t1
.LVL286:
.LM1093:
.LM1094:
.LM1095:
	xor	a2,t0,t6
	xor	s4,a3,a1
.LM1096:
.LVL287:
.LM1097:
	bne	a5,s11,.L12
.LM1098:
.LM1099:
	lw	a5,12(sp)
	sw	s10,0(a0)
.LM1100:
	sw	a5,4(a0)
.LM1101:
.LM1102:
	lw	a5,16(sp)
	sw	a5,8(a0)
	lw	a5,20(sp)
	sw	a5,12(a0)
.LM1103:
.LM1104:
	lw	a5,24(sp)
	sw	a5,16(a0)
	lw	a5,28(sp)
	sw	a5,20(a0)
.LM1105:
.LM1106:
	lw	a5,32(sp)
	sw	a5,24(a0)
	lw	a5,36(sp)
	sw	a5,28(a0)
.LM1107:
.LM1108:
	lw	a5,40(sp)
	sw	a5,32(a0)
	lw	a5,44(sp)
	sw	a5,36(a0)
.LM1109:
.LM1110:
	lw	a5,48(sp)
	sw	a5,40(a0)
	lw	a5,52(sp)
	sw	a5,44(a0)
.LM1111:
.LM1112:
	lw	a5,56(sp)
	sw	a5,48(a0)
	lw	a5,60(sp)
	sw	a5,52(a0)
.LM1113:
.LM1114:
	lw	a5,64(sp)
	sw	a5,56(a0)
	lw	a5,68(sp)
	sw	a5,60(a0)
.LM1115:
.LM1116:
	lw	a5,72(sp)
	sw	a5,64(a0)
	lw	a5,76(sp)
.LM1117:
	sw	s7,100(a0)
	sw	t5,96(a0)
.LM1118:
	sw	a5,68(a0)
.LM1119:
.LM1120:
	lw	a5,80(sp)
	sw	a5,72(a0)
	lw	a5,84(sp)
	sw	a5,76(a0)
.LM1121:
.LM1122:
	lw	a5,88(sp)
	sw	a5,80(a0)
	lw	a5,92(sp)
	sw	a5,84(a0)
.LM1123:
.LM1124:
	lw	a5,96(sp)
	sw	a5,88(a0)
	lw	a5,100(sp)
	sw	a5,92(a0)
.LM1125:
.LM1126:
.LM1127:
	lw	a5,104(sp)
	sw	a5,104(a0)
	lw	a5,108(sp)
	sw	a5,108(a0)
.LM1128:
.LM1129:
	lw	a5,112(sp)
	sw	a5,112(a0)
	lw	a5,116(sp)
	sw	a5,116(a0)
.LM1130:
.LM1131:
	lw	a5,120(sp)
	sw	a5,120(a0)
	lw	a5,124(sp)
	sw	a5,124(a0)
.LM1132:
.LM1133:
	lw	a5,128(sp)
	sw	a5,128(a0)
	lw	a5,132(sp)
	sw	a5,132(a0)
.LM1134:
.LM1135:
	lw	a5,136(sp)
.LM1136:
	sw	s0,180(a0)
.LM1137:
	lw	s0,252(sp)
	.cfi_restore 8
.LVL288:
.LM1138:
	sw	a5,136(a0)
	lw	a5,140(sp)
.LM1139:
	lw	s2,244(sp)
	.cfi_restore 18
	lw	s3,240(sp)
	.cfi_restore 19
.LM1140:
	sw	a5,140(a0)
.LM1141:
.LM1142:
	lw	a5,148(sp)
.LM1143:
	lw	s5,232(sp)
	.cfi_restore 21
.LM1144:
	sw	s6,148(a0)
.LM1145:
.LM1146:
	sw	a5,156(a0)
.LM1147:
.LM1148:
	lw	a5,152(sp)
.LM1149:
	lw	s6,228(sp)
	.cfi_restore 22
.LVL289:
.LM1150:
	sw	s1,152(a0)
.LM1151:
	sw	a5,160(a0)
	lw	a5,156(sp)
.LM1152:
	lw	s1,248(sp)
	.cfi_restore 9
.LVL290:
.LM1153:
	sw	s4,196(a0)
.LM1154:
	sw	a5,164(a0)
.LM1155:
.LM1156:
	lw	a5,160(sp)
.LM1157:
	lw	s4,236(sp)
	.cfi_restore 20
.LVL291:
.LM1158:
	sw	t4,144(a0)
.LM1159:
	sw	a5,168(a0)
	lw	a5,164(sp)
.LM1160:
	sw	t3,176(a0)
.LM1161:
	sw	a2,192(a0)
.LM1162:
	sw	a5,172(a0)
.LM1163:
.LM1164:
.LM1165:
	lw	a5,168(sp)
	sw	a5,184(a0)
	lw	a5,172(sp)
	sw	a5,188(a0)
.LM1166:
.LM1167:
	lw	s7,224(sp)
	.cfi_restore 23
.LVL292:
.LM1168:
	lw	s8,220(sp)
	.cfi_restore 24
	lw	s9,216(sp)
	.cfi_restore 25
	lw	s10,212(sp)
	.cfi_restore 26
.LVL293:
.LM1169:
	lw	s11,208(sp)
	.cfi_restore 27
	addi	sp,sp,256
	.cfi_def_cfa_offset 0
.LVL294:
.LM1170:
	jr	ra
	.cfi_endproc
.LFE16:
	.size	KeccakF1600_StatePermute, .-KeccakF1600_StatePermute
	.section	.text.keccak_absorb,"ax",@progbits
	.align	1
	.type	keccak_absorb, @function
keccak_absorb:
.LVL295:
.LFB18:
.LM1171:
	.cfi_startproc
.LM1172:
	addi	sp,sp,-48
	.cfi_def_cfa_offset 48
	sw	s0,40(sp)
	sw	s1,36(sp)
	sw	s3,28(sp)
	sw	s4,24(sp)
	sw	s5,20(sp)
	sw	ra,44(sp)
	sw	s2,32(sp)
	sw	s6,16(sp)
	sw	s7,12(sp)
	.cfi_offset 8, -8
	.cfi_offset 9, -12
	.cfi_offset 19, -20
	.cfi_offset 20, -24
	.cfi_offset 21, -28
	.cfi_offset 1, -4
	.cfi_offset 18, -16
	.cfi_offset 22, -32
	.cfi_offset 23, -36
	mv	s5,a0
	mv	s0,a1
	mv	s4,a2
	mv	s3,a3
	mv	s1,a4
.LM1173:
.LM1174:
.LVL296:
.L16:
.LM1175:
	add	s6,s0,s1
	sltu	s7,s6,s0
	bgeu	s6,s4,.L27
.LM1176:
	mv	s2,s0
.LVL297:
.L23:
.LM1177:
	bgtu	s6,s2,.L24
.LM1178:
.LM1179:
	addi	s7,s7,-1
	and	a0,s1,s7
.LM1180:
	lw	ra,44(sp)
	.cfi_remember_state
	.cfi_restore 1
	add	a0,a0,s0
	lw	s0,40(sp)
	.cfi_restore 8
.LVL298:
.LM1181:
	lw	s1,36(sp)
	.cfi_restore 9
.LVL299:
.LM1182:
	lw	s2,32(sp)
	.cfi_restore 18
.LVL300:
.LM1183:
	lw	s3,28(sp)
	.cfi_restore 19
.LM1184:
	lw	s4,24(sp)
	.cfi_restore 20
	lw	s5,20(sp)
	.cfi_restore 21
.LVL301:
.LM1185:
	lw	s6,16(sp)
	.cfi_restore 22
	lw	s7,12(sp)
	.cfi_restore 23
	addi	sp,sp,48
	.cfi_def_cfa_offset 0
	jr	ra
.LVL302:
.L17:
	.cfi_restore_state
.LM1186:
.LM1187:
	sub	a5,s1,s0
	add	a5,s3,a5
.LM1188:
	lbu	a0,0(a5)
.LM1189:
	andi	a2,s1,7
.LM1190:
	andi	s2,s1,-8
.LM1191:
	slli	a2,a2,3
	li	a1,0
	call	__ashldi3
.LVL303:
.LM1192:
	add	s2,s5,s2
.LM1193:
	lw	a5,0(s2)
.LM1194:
	addi	s1,s1,1
.LVL304:
.LM1195:
	xor	a0,a5,a0
	lw	a5,4(s2)
	sw	a0,0(s2)
	xor	a5,a5,a1
	sw	a5,4(s2)
.LM1196:
.LVL305:
.L22:
.LM1197:
	bltu	s1,s4,.L17
	li	a5,0
	bgtu	s0,s4,.L19
	sub	a5,s4,s0
.L19:
.LM1198:
	mv	a0,s5
	add	s3,s3,a5
.LVL306:
.LM1199:
.LM1200:
	sub	s1,s6,s4
.LVL307:
.LM1201:
	call	KeccakF1600_StatePermute
.LVL308:
.LM1202:
.LM1203:
	li	s0,0
	j	.L16
.LVL309:
.L27:
.LM1204:
	mv	s1,s0
.LVL310:
.LM1205:
	j	.L22
.LVL311:
.L24:
.LM1206:
.LM1207:
	sub	a5,s2,s0
	add	a5,s3,a5
.LM1208:
	lbu	a0,0(a5)
.LM1209:
	andi	a2,s2,7
.LM1210:
	andi	s4,s2,-8
.LM1211:
	slli	a2,a2,3
	li	a1,0
	call	__ashldi3
.LVL312:
.LM1212:
	add	s4,s5,s4
.LM1213:
	lw	a5,0(s4)
.LM1214:
	addi	s2,s2,1
.LVL313:
.LM1215:
	xor	a0,a5,a0
	lw	a5,4(s4)
	sw	a0,0(s4)
	xor	a5,a5,a1
	sw	a5,4(s4)
.LM1216:
	j	.L23
	.cfi_endproc
.LFE18:
	.size	keccak_absorb, .-keccak_absorb
	.section	.text.keccak_squeeze,"ax",@progbits
	.align	1
	.type	keccak_squeeze, @function
keccak_squeeze:
.LVL314:
.LFB20:
.LM1217:
	.cfi_startproc
.LM1218:
.LM1219:
.LM1220:
	addi	sp,sp,-32
	.cfi_def_cfa_offset 32
	sw	s1,20(sp)
	sw	s2,16(sp)
	sw	s3,12(sp)
	sw	s4,8(sp)
	.cfi_offset 9, -12
	.cfi_offset 18, -16
	.cfi_offset 19, -20
	.cfi_offset 20, -24
	mv	s2,a0
	sw	ra,28(sp)
	sw	s0,24(sp)
	.cfi_offset 1, -4
	.cfi_offset 8, -8
.LM1221:
	mv	s1,a1
	mv	s4,a2
	mv	s3,a4
.LM1222:
	mv	a0,a3
.LVL315:
.L31:
.LM1223:
	bne	s1,zero,.L36
.LM1224:
.LM1225:
	lw	ra,28(sp)
	.cfi_remember_state
	.cfi_restore 1
	lw	s0,24(sp)
	.cfi_restore 8
	lw	s1,20(sp)
	.cfi_restore 9
.LVL316:
.LM1226:
	lw	s2,16(sp)
	.cfi_restore 18
.LVL317:
.LM1227:
	lw	s3,12(sp)
	.cfi_restore 19
.LVL318:
.LM1228:
	lw	s4,8(sp)
	.cfi_restore 20
.LVL319:
.LM1229:
	addi	sp,sp,32
	.cfi_def_cfa_offset 0
	jr	ra
.LVL320:
.L36:
	.cfi_restore_state
.LM1230:
.LM1231:
	bne	a0,s3,.L32
.LM1232:
	mv	a0,s4
.LVL321:
.LM1233:
	call	KeccakF1600_StatePermute
.LVL322:
.LM1234:
.LM1235:
	li	a0,0
.LVL323:
.L32:
.LM1236:
.LM1237:
	mv	s0,a0
.LM1238:
	add	s1,s1,a0
.LVL324:
.L33:
.LM1239:
	bgeu	s0,s3,.L34
.LM1240:
	bltu	s0,s1,.L35
.L34:
.LM1241:
.LM1242:
	sub	s1,s1,s0
.LVL325:
.LM1243:
.LM1244:
	mv	a0,s0
	j	.L31
.LVL326:
.L35:
.LM1245:
.LM1246:
	andi	a5,s0,-8
	add	a5,s4,a5
.LM1247:
	lw	a0,0(a5)
	lw	a1,4(a5)
.LM1248:
	andi	a2,s0,7
.LM1249:
	slli	a2,a2,3
.LM1250:
	addi	s2,s2,1
.LVL327:
.LM1251:
	call	__lshrdi3
.LVL328:
.LM1252:
	sb	a0,-1(s2)
.LM1253:
	addi	s0,s0,1
.LVL329:
.LM1254:
	j	.L33
	.cfi_endproc
.LFE20:
	.size	keccak_squeeze, .-keccak_squeeze
	.section	.text.keccak_absorb_once,"ax",@progbits
	.align	1
	.type	keccak_absorb_once, @function
keccak_absorb_once:
.LVL330:
.LFB21:
.LM1255:
	.cfi_startproc
.LM1256:
.LM1257:
.LM1258:
.LM1259:
	addi	sp,sp,-48
	.cfi_def_cfa_offset 48
	sw	s0,40(sp)
	sw	s1,36(sp)
	sw	s4,24(sp)
	sw	s5,20(sp)
	sw	s10,0(sp)
	sw	ra,44(sp)
	.cfi_offset 8, -8
	.cfi_offset 9, -12
	.cfi_offset 20, -24
	.cfi_offset 21, -28
	.cfi_offset 26, -48
	.cfi_offset 1, -4
	mv	s10,a4
	sw	s2,32(sp)
	sw	s3,28(sp)
	sw	s6,16(sp)
	sw	s7,12(sp)
	sw	s8,8(sp)
	sw	s9,4(sp)
	.cfi_offset 18, -16
	.cfi_offset 19, -20
	.cfi_offset 22, -32
	.cfi_offset 23, -36
	.cfi_offset 24, -40
	.cfi_offset 25, -44
.LM1260:
	mv	s0,a0
	mv	s1,a1
	mv	s5,a2
	mv	s4,a3
	mv	a5,a0
	addi	a4,a0,200
.LVL331:
.L39:
.LM1261:
.LM1262:
	li	a2,0
	li	a3,0
	sw	a2,0(a5)
	sw	a3,4(a5)
.LM1263:
.LM1264:
	addi	a5,a5,8
	bne	a5,a4,.L39
.LBB46:
.LBB47:
.LM1265:
	li	s6,64
.LVL332:
.L40:
.LM1266:
.LBE47:
.LBE46:
.LM1267:
	bgeu	s4,s1,.L45
.LM1268:
	li	s3,0
.L43:
.LVL333:
.LM1269:
.LM1270:
	andi	s2,s3,-8
	add	s2,s0,s2
.LM1271:
	andi	a2,s3,7
.LM1272:
	lw	s7,0(s2)
	lw	s6,4(s2)
.LM1273:
	slli	a2,a2,3
.LM1274:
	bne	s4,s3,.L44
.LM1275:
.LM1276:
	mv	a0,s10
	li	a1,0
	call	__ashldi3
.LVL334:
.LM1277:
	addi	s1,s1,-1
.LVL335:
.LM1278:
	xor	a0,a0,s7
	xor	a1,a1,s6
.LM1279:
	andi	s1,s1,-8
.LVL336:
.LM1280:
	sw	a0,0(s2)
	sw	a1,4(s2)
.LM1281:
.LM1282:
	add	s0,s0,s1
.LVL337:
.LM1283:
	lw	a5,4(s0)
	li	a4,-2147483648
	xor	a5,a5,a4
	sw	a5,4(s0)
.LM1284:
	lw	ra,44(sp)
	.cfi_remember_state
	.cfi_restore 1
	lw	s0,40(sp)
	.cfi_restore 8
	lw	s1,36(sp)
	.cfi_restore 9
	lw	s2,32(sp)
	.cfi_restore 18
	lw	s3,28(sp)
	.cfi_restore 19
.LVL338:
.LM1285:
	lw	s4,24(sp)
	.cfi_restore 20
.LVL339:
.LM1286:
	lw	s5,20(sp)
	.cfi_restore 21
.LVL340:
.LM1287:
	lw	s6,16(sp)
	.cfi_restore 22
	lw	s7,12(sp)
	.cfi_restore 23
	lw	s8,8(sp)
	.cfi_restore 24
	lw	s9,4(sp)
	.cfi_restore 25
	lw	s10,0(sp)
	.cfi_restore 26
.LVL341:
.LM1288:
	addi	sp,sp,48
	.cfi_def_cfa_offset 0
	jr	ra
.LVL342:
.L45:
	.cfi_restore_state
.LM1289:
	li	s2,0
.L42:
.LM1290:
.LVL343:
.LBB50:
.LBI46:
.LM1291:
.LBB48:
.LM1292:
.LM1293:
.LM1294:
.LM1295:
	add	s9,s5,s2
.LVL344:
.LM1296:
.LBE48:
.LBE50:
	li	s3,0
.LBB51:
.LBB49:
.LM1297:
	li	s8,0
	li	s7,0
.LVL345:
.L41:
.LM1298:
.LM1299:
	lbu	a0,0(s9)
	mv	a2,s3
	li	a1,0
	call	__ashldi3
.LVL346:
.LM1300:
	addi	s3,s3,8
.LM1301:
	or	s8,s8,a0
.LVL347:
.LM1302:
	or	s7,s7,a1
.LM1303:
.LVL348:
.LM1304:
	addi	s9,s9,1
	bne	s3,s6,.L41
.LM1305:
.LVL349:
.LM1306:
	add	a5,s0,s2
.LBE49:
.LBE51:
.LM1307:
	lw	a3,0(a5)
	lw	a4,4(a5)
.LM1308:
	addi	s2,s2,8
.LM1309:
	xor	a3,a3,s8
	xor	a4,a4,s7
	sw	a3,0(a5)
	sw	a4,4(a5)
.LM1310:
.LM1311:
	bne	s2,s1,.L42
.LM1312:
.LM1313:
	mv	a0,s0
.LM1314:
	add	s5,s5,s1
.LVL350:
.LM1315:
.LM1316:
	sub	s4,s4,s1
.LVL351:
.LM1317:
	call	KeccakF1600_StatePermute
.LVL352:
	j	.L40
.LVL353:
.L44:
.LM1318:
.LM1319:
	add	a5,s5,s3
.LM1320:
	lbu	a0,0(a5)
	li	a1,0
.LM1321:
	addi	s3,s3,1
.LVL354:
.LM1322:
	call	__ashldi3
.LVL355:
.LM1323:
	xor	a0,a0,s7
	xor	a1,a1,s6
	sw	a0,0(s2)
	sw	a1,4(s2)
.LM1324:
	j	.L43
	.cfi_endproc
.LFE21:
	.size	keccak_absorb_once, .-keccak_absorb_once
	.section	.text.keccak_squeezeblocks,"ax",@progbits
	.align	1
	.type	keccak_squeezeblocks, @function
keccak_squeezeblocks:
.LVL356:
.LFB22:
.LM1325:
	.cfi_startproc
.LM1326:
.LM1327:
.LM1328:
	addi	sp,sp,-64
	.cfi_def_cfa_offset 64
	sw	s0,56(sp)
	.cfi_offset 8, -8
.LM1329:
	addi	s0,a3,-136
	snez	s0,s0
	slli	s0,s0,2
.LM1330:
	sw	s1,52(sp)
	sw	s2,48(sp)
	sw	s6,32(sp)
	sw	s7,28(sp)
	sw	s8,24(sp)
	sw	ra,60(sp)
	sw	s3,44(sp)
	sw	s4,40(sp)
	sw	s5,36(sp)
	sw	s9,20(sp)
	sw	s10,16(sp)
	.cfi_offset 9, -12
	.cfi_offset 18, -16
	.cfi_offset 22, -32
	.cfi_offset 23, -36
	.cfi_offset 24, -40
	.cfi_offset 1, -4
	.cfi_offset 19, -20
	.cfi_offset 20, -24
	.cfi_offset 21, -28
	.cfi_offset 25, -44
	.cfi_offset 26, -48
.LM1331:
	mv	s2,a0
	mv	s1,a1
	mv	s8,a2
	mv	s6,a3
.LM1332:
	addi	s0,s0,17
.LBB54:
.LBB55:
.LM1333:
	li	s7,64
.LVL357:
.L53:
.LM1334:
.LBE55:
.LBE54:
.LM1335:
	bne	s1,zero,.L56
.LM1336:
	lw	ra,60(sp)
	.cfi_remember_state
	.cfi_restore 1
	lw	s0,56(sp)
	.cfi_restore 8
	lw	s1,52(sp)
	.cfi_restore 9
.LVL358:
.LM1337:
	lw	s2,48(sp)
	.cfi_restore 18
.LVL359:
.LM1338:
	lw	s3,44(sp)
	.cfi_restore 19
	lw	s4,40(sp)
	.cfi_restore 20
	lw	s5,36(sp)
	.cfi_restore 21
	lw	s6,32(sp)
	.cfi_restore 22
.LVL360:
.LM1339:
	lw	s7,28(sp)
	.cfi_restore 23
	lw	s8,24(sp)
	.cfi_restore 24
.LVL361:
.LM1340:
	lw	s9,20(sp)
	.cfi_restore 25
	lw	s10,16(sp)
	.cfi_restore 26
	addi	sp,sp,64
	.cfi_def_cfa_offset 0
	jr	ra
.LVL362:
.L56:
	.cfi_restore_state
.LM1341:
	mv	a0,s8
	call	KeccakF1600_StatePermute
.LVL363:
.LM1342:
.LM1343:
.LM1344:
	li	s3,0
.LM1345:
	li	s4,0
.LVL364:
.L55:
.LM1346:
	add	a5,s8,s3
	lw	a6,4(a5)
	lw	a5,0(a5)
	add	s5,s2,s3
	mv	s10,a6
.LVL365:
.LM1347:
	mv	s9,a5
.LVL366:
.LBB58:
.LBI54:
.LM1348:
.LBB56:
.LM1349:
.LM1350:
.LM1351:
.LBE56:
.LBE58:
.LM1352:
	li	a2,0
.LVL367:
.L54:
.LBB59:
.LBB57:
.LM1353:
.LM1354:
	mv	a0,s9
	mv	a1,s10
	sw	a2,12(sp)
	call	__lshrdi3
.LVL368:
.LM1355:
	lw	a2,12(sp)
.LM1356:
	sb	a0,0(s5)
.LM1357:
.LVL369:
.LM1358:
	addi	s5,s5,1
.LVL370:
.LM1359:
	addi	a2,a2,8
	bne	a2,s7,.L54
.LVL371:
.LM1360:
.LBE57:
.LBE59:
.LM1361:
	addi	s4,s4,1
.LVL372:
.LM1362:
	addi	s3,s3,8
	bltu	s4,s0,.L55
.LM1363:
.LM1364:
	add	s2,s2,s6
.LVL373:
.LM1365:
.LM1366:
	addi	s1,s1,-1
.LVL374:
.LM1367:
	j	.L53
	.cfi_endproc
.LFE22:
	.size	keccak_squeezeblocks, .-keccak_squeezeblocks
	.section	.text.rej_uniform,"ax",@progbits
	.align	1
	.type	rej_uniform, @function
rej_uniform:
.LVL375:
.LFB45:
.LM1368:
	.cfi_startproc
.LM1369:
.LM1370:
.LM1371:
.LM1372:
.LM1373:
	li	t3,4096
.LM1374:
	li	t4,4096
.LM1375:
	li	t5,4096
.LM1376:
	li	t1,3
.LM1377:
	li	a5,0
	addi	t3,t3,-1
.LM1378:
	addi	t4,t4,-768
.LM1379:
	addi	t5,t5,-767
.LM1380:
	sub	t1,t1,a2
.LVL376:
.L64:
.LM1381:
.LM1382:
	lbu	a7,1(a2)
.LM1383:
	lbu	a4,0(a2)
.LM1384:
	slli	a6,a7,8
	or	a6,a6,a4
.LM1385:
	lbu	a4,2(a2)
	and	a6,a6,t3
	slli	a6,a6,16
	andi	a4,a4,255
	srli	a7,a7,4
	slli	a4,a4,4
	srai	a6,a6,16
.LVL377:
.LM1386:
.LM1387:
	or	a4,a4,a7
.LVL378:
.LM1388:
.LM1389:
.LM1390:
	bgt	a6,t4,.L61
.LM1391:
.LVL379:
.LM1392:
	slli	a7,a5,1
	add	a7,a0,a7
	sh	a6,0(a7)
.LM1393:
	addi	a5,a5,1
.LVL380:
.L61:
.LM1394:
.LM1395:
	bgeu	a5,a1,.L62
.LM1396:
	bge	a4,t5,.L62
.LM1397:
.LVL381:
.LM1398:
	slli	a6,a5,1
.LVL382:
.LM1399:
	add	a6,a0,a6
	sh	a4,0(a6)
.LM1400:
	addi	a5,a5,1
.LVL383:
.L62:
.LM1401:
	bleu	a1,a5,.L60
.LM1402:
	addi	a2,a2,3
.LVL384:
.LM1403:
	add	a4,t1,a2
.LVL385:
.LM1404:
	bgeu	a3,a4,.L64
.LVL386:
.L60:
.LM1405:
	mv	a0,a5
.LVL387:
.LM1406:
	ret
	.cfi_endproc
.LFE45:
	.size	rej_uniform, .-rej_uniform
	.section	.rodata.ensure_drbg.str1.4,"aMS",@progbits,1
	.align	2
.LC0:
	.string	"pqkem_demo"
	.align	2
.LC1:
	.string	"[pqkem] mbedtls_ctr_drbg_seed failed, ret=%d\r\n"
	.section	.text.ensure_drbg,"ax",@progbits
	.align	1
	.type	ensure_drbg, @function
ensure_drbg:
.LFB5:
.LM1407:
	.cfi_startproc
.LM1408:
.LM1409:
	addi	sp,sp,-32
	.cfi_def_cfa_offset 32
	sw	s0,24(sp)
	.cfi_offset 8, -8
.LM1410:
	lui	s0,%hi(g_drbg_ready)
.LM1411:
	lw	a5,%lo(g_drbg_ready)(s0)
.LM1412:
	sw	ra,28(sp)
	sw	s1,20(sp)
	sw	s2,16(sp)
	sw	s3,12(sp)
	.cfi_offset 1, -4
	.cfi_offset 9, -12
	.cfi_offset 18, -16
	.cfi_offset 19, -20
.LM1413:
	bne	a5,zero,.L72
.LBB62:
.LBI62:
.LM1414:
.LBB63:
.LM1415:
	lui	s2,%hi(g_entropy)
	addi	a0,s2,%lo(g_entropy)
	call	mbedtls_entropy_init
.LVL388:
.LM1416:
	lui	s1,%hi(g_ctr_drbg)
	addi	a0,s1,%lo(g_ctr_drbg)
	call	mbedtls_ctr_drbg_init
.LVL389:
.LM1417:
.LM1418:
.LM1419:
	lui	s3,%hi(.LC0)
	addi	a0,s3,%lo(.LC0)
	call	strlen
.LVL390:
.LM1420:
	lui	a1,%hi(mbedtls_entropy_func)
.LM1421:
	mv	a4,a0
.LM1422:
	addi	a1,a1,%lo(mbedtls_entropy_func)
	addi	a3,s3,%lo(.LC0)
	addi	a2,s2,%lo(g_entropy)
	addi	a0,s1,%lo(g_ctr_drbg)
	call	mbedtls_ctr_drbg_seed
.LVL391:
	mv	a1,a0
.LVL392:
.LM1423:
.LM1424:
	bne	a0,zero,.L74
.LM1425:
.LM1426:
	li	a5,1
	sw	a5,%lo(g_drbg_ready)(s0)
.LVL393:
.L72:
.LM1427:
.LBE63:
.LBE62:
.LM1428:
	lw	ra,28(sp)
	.cfi_remember_state
	.cfi_restore 1
	lw	s0,24(sp)
	.cfi_restore 8
	lw	s1,20(sp)
	.cfi_restore 9
	lw	s2,16(sp)
	.cfi_restore 18
	lw	s3,12(sp)
	.cfi_restore 19
	addi	sp,sp,32
	.cfi_def_cfa_offset 0
	jr	ra
.LVL394:
.L74:
	.cfi_restore_state
.LBB68:
.LBB64:
.LM1429:
.LM1430:
	sw	zero,%lo(g_drbg_ready)(s0)
.LM1431:
.LBE64:
.LBE68:
.LM1432:
	lw	s0,24(sp)
	.cfi_restore 8
	lw	ra,28(sp)
	.cfi_restore 1
	lw	s1,20(sp)
	.cfi_restore 9
	lw	s2,16(sp)
	.cfi_restore 18
	lw	s3,12(sp)
	.cfi_restore 19
.LBB69:
.LBB65:
.LM1433:
	lui	a0,%hi(.LC1)
.LVL395:
.LM1434:
.LBE65:
.LBE69:
.LM1435:
.LBB70:
.LBB66:
.LM1436:
	addi	a0,a0,%lo(.LC1)
.LBE66:
.LBE70:
.LM1437:
	addi	sp,sp,32
	.cfi_def_cfa_offset 0
.LBB71:
.LBB67:
.LM1438:
	tail	printf
.LVL396:
.LM1439:
.LBE67:
.LBE71:
	.cfi_endproc
.LFE5:
	.size	ensure_drbg, .-ensure_drbg
	.section	.rodata.pqkem_random_bytes.part.0.str1.4,"aMS",@progbits,1
	.align	2
.LC2:
	.string	"[pqkem] ctr_drbg_random failed, ret=%d\r\n"
	.section	.text.pqkem_random_bytes.part.0,"ax",@progbits
	.align	1
	.type	pqkem_random_bytes.part.0, @function
pqkem_random_bytes.part.0:
.LVL397:
.LFB95:
.LM1440:
	.cfi_startproc
.LM1441:
.LM1442:
	addi	sp,sp,-32
	.cfi_def_cfa_offset 32
	sw	ra,28(sp)
	.cfi_offset 1, -4
.LM1443:
	sw	a0,12(sp)
	sw	a1,8(sp)
.LM1444:
	call	ensure_drbg
.LVL398:
.LM1445:
.LM1446:
	lw	a2,8(sp)
	lw	a1,12(sp)
	lui	a0,%hi(g_ctr_drbg)
	addi	a0,a0,%lo(g_ctr_drbg)
	call	mbedtls_ctr_drbg_random
.LVL399:
.LM1447:
.LM1448:
	beq	a0,zero,.L76
.LM1449:
	lw	ra,28(sp)
	.cfi_remember_state
	.cfi_restore 1
	mv	a1,a0
.LM1450:
	lui	a0,%hi(.LC2)
.LVL400:
.LM1451:
.LM1452:
	addi	a0,a0,%lo(.LC2)
.LM1453:
	addi	sp,sp,32
	.cfi_def_cfa_offset 0
.LVL401:
.LM1454:
	tail	printf
.LVL402:
.L76:
	.cfi_restore_state
.LM1455:
	lw	ra,28(sp)
	.cfi_restore 1
	addi	sp,sp,32
	.cfi_def_cfa_offset 0
.LVL403:
.LM1456:
	jr	ra
	.cfi_endproc
.LFE95:
	.size	pqkem_random_bytes.part.0, .-pqkem_random_bytes.part.0
	.section	.text.keccak_finalize.constprop.0,"ax",@progbits
	.align	1
	.type	keccak_finalize.constprop.0, @function
keccak_finalize.constprop.0:
.LVL404:
.LFB98:
.LM1457:
	.cfi_startproc
.LM1458:
.LM1459:
	addi	sp,sp,-16
	.cfi_def_cfa_offset 16
	sw	s0,8(sp)
	.cfi_offset 8, -8
.LM1460:
	andi	s0,a1,-8
.LM1461:
	andi	a1,a1,7
.LVL405:
.LM1462:
	sw	s1,4(sp)
	sw	s2,0(sp)
.LM1463:
	add	s0,a0,s0
	.cfi_offset 9, -12
	.cfi_offset 18, -16
.LM1464:
	mv	s2,a2
	mv	s1,a0
.LM1465:
	slli	a2,a1,3
.LVL406:
.LM1466:
	li	a0,31
.LVL407:
.LM1467:
	li	a1,0
.LM1468:
	sw	ra,12(sp)
	.cfi_offset 1, -4
.LM1469:
	call	__ashldi3
.LVL408:
.LM1470:
	lw	a5,0(s0)
.LM1471:
	li	a4,-2147483648
.LM1472:
	xor	a0,a5,a0
	lw	a5,4(s0)
	sw	a0,0(s0)
	xor	a5,a5,a1
	sw	a5,4(s0)
.LM1473:
.LM1474:
	addi	a5,s2,-8
	add	s1,s1,a5
.LVL409:
.LM1475:
	lw	a5,4(s1)
	xor	a5,a5,a4
	sw	a5,4(s1)
.LM1476:
	lw	ra,12(sp)
	.cfi_restore 1
	lw	s0,8(sp)
	.cfi_restore 8
	lw	s1,4(sp)
	.cfi_restore 9
	lw	s2,0(sp)
	.cfi_restore 18
.LVL410:
.LM1477:
	addi	sp,sp,16
	.cfi_def_cfa_offset 0
	jr	ra
	.cfi_endproc
.LFE98:
	.size	keccak_finalize.constprop.0, .-keccak_finalize.constprop.0
	.section	.text.pqkem_random_bytes,"ax",@progbits
	.align	1
	.globl	pqkem_random_bytes
	.type	pqkem_random_bytes, @function
pqkem_random_bytes:
.LVL411:
.LFB6:
.LM1478:
	.cfi_startproc
.LM1479:
.LM1480:
	beq	a1,zero,.L81
	beq	a0,zero,.L81
	tail	pqkem_random_bytes.part.0
.LVL412:
.L81:
.LM1481:
	ret
	.cfi_endproc
.LFE6:
	.size	pqkem_random_bytes, .-pqkem_random_bytes
	.section	.text.randombytes,"ax",@progbits
	.align	1
	.globl	randombytes
	.type	randombytes, @function
randombytes:
.LVL413:
.LFB7:
.LM1482:
	.cfi_startproc
.LM1483:
	tail	pqkem_random_bytes
.LVL414:
.LM1484:
	.cfi_endproc
.LFE7:
	.size	randombytes, .-randombytes
	.section	.text.pqcrystals_kyber512_ref_poly_cbd_eta1,"ax",@progbits
	.align	1
	.globl	pqcrystals_kyber512_ref_poly_cbd_eta1
	.type	pqcrystals_kyber512_ref_poly_cbd_eta1, @function
pqcrystals_kyber512_ref_poly_cbd_eta1:
.LVL415:
.LFB12:
.LM1485:
	.cfi_startproc
.LM1486:
	tail	cbd3
.LVL416:
.LM1487:
	.cfi_endproc
.LFE12:
	.size	pqcrystals_kyber512_ref_poly_cbd_eta1, .-pqcrystals_kyber512_ref_poly_cbd_eta1
	.section	.text.pqcrystals_kyber512_ref_poly_cbd_eta2,"ax",@progbits
	.align	1
	.globl	pqcrystals_kyber512_ref_poly_cbd_eta2
	.type	pqcrystals_kyber512_ref_poly_cbd_eta2, @function
pqcrystals_kyber512_ref_poly_cbd_eta2:
.LVL417:
.LFB13:
.LM1488:
	.cfi_startproc
.LM1489:
	tail	cbd2
.LVL418:
.LM1490:
	.cfi_endproc
.LFE13:
	.size	pqcrystals_kyber512_ref_poly_cbd_eta2, .-pqcrystals_kyber512_ref_poly_cbd_eta2
	.section	.text.pqcrystals_kyber_fips202_ref_shake128_init,"ax",@progbits
	.align	1
	.globl	pqcrystals_kyber_fips202_ref_shake128_init
	.type	pqcrystals_kyber_fips202_ref_shake128_init, @function
pqcrystals_kyber_fips202_ref_shake128_init:
.LVL419:
.LFB23:
.LM1491:
	.cfi_startproc
.LM1492:
.LBB74:
.LBI74:
.LM1493:
.LBB75:
.LM1494:
.LM1495:
.LM1496:
	mv	a5,a0
	addi	a4,a0,200
.LVL420:
.L87:
.LM1497:
.LM1498:
	li	a2,0
	li	a3,0
	sw	a2,0(a5)
	sw	a3,4(a5)
.LM1499:
.LM1500:
	addi	a5,a5,8
	bne	a5,a4,.L87
.LVL421:
.LM1501:
.LBE75:
.LBE74:
.LM1502:
.LM1503:
	sw	zero,200(a0)
.LM1504:
	ret
	.cfi_endproc
.LFE23:
	.size	pqcrystals_kyber_fips202_ref_shake128_init, .-pqcrystals_kyber_fips202_ref_shake128_init
	.section	.text.pqcrystals_kyber_fips202_ref_shake128_absorb,"ax",@progbits
	.align	1
	.globl	pqcrystals_kyber_fips202_ref_shake128_absorb
	.type	pqcrystals_kyber_fips202_ref_shake128_absorb, @function
pqcrystals_kyber_fips202_ref_shake128_absorb:
.LVL422:
.LFB24:
.LM1505:
	.cfi_startproc
.LM1506:
.LM1507:
	addi	sp,sp,-16
	.cfi_def_cfa_offset 16
	sw	s0,8(sp)
	sw	ra,12(sp)
	.cfi_offset 8, -8
	.cfi_offset 1, -4
.LM1508:
	mv	a3,a1
.LM1509:
	lw	a1,200(a0)
.LVL423:
.LM1510:
	mv	a4,a2
.LM1511:
	li	a2,168
.LVL424:
.LM1512:
	mv	s0,a0
.LM1513:
	call	keccak_absorb
.LVL425:
.LM1514:
	sw	a0,200(s0)
.LM1515:
	lw	ra,12(sp)
	.cfi_restore 1
	lw	s0,8(sp)
	.cfi_restore 8
.LVL426:
.LM1516:
	addi	sp,sp,16
	.cfi_def_cfa_offset 0
	jr	ra
	.cfi_endproc
.LFE24:
	.size	pqcrystals_kyber_fips202_ref_shake128_absorb, .-pqcrystals_kyber_fips202_ref_shake128_absorb
	.section	.text.pqcrystals_kyber_fips202_ref_shake128_finalize,"ax",@progbits
	.align	1
	.globl	pqcrystals_kyber_fips202_ref_shake128_finalize
	.type	pqcrystals_kyber_fips202_ref_shake128_finalize, @function
pqcrystals_kyber_fips202_ref_shake128_finalize:
.LVL427:
.LFB25:
.LM1517:
	.cfi_startproc
.LM1518:
.LM1519:
	addi	sp,sp,-32
	.cfi_def_cfa_offset 32
	sw	ra,28(sp)
	.cfi_offset 1, -4
.LM1520:
	lw	a1,200(a0)
	li	a2,168
	sw	a0,12(sp)
	call	keccak_finalize.constprop.0
.LVL428:
.LM1521:
.LM1522:
	lw	a0,12(sp)
	li	a5,168
	sw	a5,200(a0)
.LM1523:
	lw	ra,28(sp)
	.cfi_restore 1
	addi	sp,sp,32
	.cfi_def_cfa_offset 0
.LVL429:
.LM1524:
	jr	ra
	.cfi_endproc
.LFE25:
	.size	pqcrystals_kyber_fips202_ref_shake128_finalize, .-pqcrystals_kyber_fips202_ref_shake128_finalize
	.section	.text.pqcrystals_kyber_fips202_ref_shake128_squeeze,"ax",@progbits
	.align	1
	.globl	pqcrystals_kyber_fips202_ref_shake128_squeeze
	.type	pqcrystals_kyber_fips202_ref_shake128_squeeze, @function
pqcrystals_kyber_fips202_ref_shake128_squeeze:
.LVL430:
.LFB26:
.LM1525:
	.cfi_startproc
.LM1526:
.LM1527:
	addi	sp,sp,-32
	.cfi_def_cfa_offset 32
	sw	ra,28(sp)
	.cfi_offset 1, -4
.LM1528:
	lw	a3,200(a2)
	li	a4,168
	sw	a2,12(sp)
	call	keccak_squeeze
.LVL431:
.LM1529:
	lw	a2,12(sp)
	sw	a0,200(a2)
.LM1530:
	lw	ra,28(sp)
	.cfi_restore 1
	addi	sp,sp,32
	.cfi_def_cfa_offset 0
.LVL432:
.LM1531:
	jr	ra
	.cfi_endproc
.LFE26:
	.size	pqcrystals_kyber_fips202_ref_shake128_squeeze, .-pqcrystals_kyber_fips202_ref_shake128_squeeze
	.section	.text.pqcrystals_kyber_fips202_ref_shake128_absorb_once,"ax",@progbits
	.align	1
	.globl	pqcrystals_kyber_fips202_ref_shake128_absorb_once
	.type	pqcrystals_kyber_fips202_ref_shake128_absorb_once, @function
pqcrystals_kyber_fips202_ref_shake128_absorb_once:
.LVL433:
.LFB27:
.LM1532:
	.cfi_startproc
.LM1533:
.LM1534:
	addi	sp,sp,-32
	.cfi_def_cfa_offset 32
	mv	a3,a2
.LM1535:
	li	a4,31
	mv	a2,a1
.LVL434:
.LM1536:
	li	a1,168
.LVL435:
.LM1537:
	sw	ra,28(sp)
	.cfi_offset 1, -4
.LM1538:
	sw	a0,12(sp)
.LM1539:
	call	keccak_absorb_once
.LVL436:
.LM1540:
.LM1541:
	lw	a0,12(sp)
	li	a5,168
	sw	a5,200(a0)
.LM1542:
	lw	ra,28(sp)
	.cfi_restore 1
	addi	sp,sp,32
	.cfi_def_cfa_offset 0
.LVL437:
.LM1543:
	jr	ra
	.cfi_endproc
.LFE27:
	.size	pqcrystals_kyber_fips202_ref_shake128_absorb_once, .-pqcrystals_kyber_fips202_ref_shake128_absorb_once
	.section	.text.pqcrystals_kyber_fips202_ref_shake128_squeezeblocks,"ax",@progbits
	.align	1
	.globl	pqcrystals_kyber_fips202_ref_shake128_squeezeblocks
	.type	pqcrystals_kyber_fips202_ref_shake128_squeezeblocks, @function
pqcrystals_kyber_fips202_ref_shake128_squeezeblocks:
.LVL438:
.LFB28:
.LM1544:
	.cfi_startproc
.LM1545:
	li	a3,168
	tail	keccak_squeezeblocks
.LVL439:
.LM1546:
	.cfi_endproc
.LFE28:
	.size	pqcrystals_kyber_fips202_ref_shake128_squeezeblocks, .-pqcrystals_kyber_fips202_ref_shake128_squeezeblocks
	.section	.text.pqcrystals_kyber_fips202_ref_shake256_init,"ax",@progbits
	.align	1
	.globl	pqcrystals_kyber_fips202_ref_shake256_init
	.type	pqcrystals_kyber_fips202_ref_shake256_init, @function
pqcrystals_kyber_fips202_ref_shake256_init:
.LFB97:
	.cfi_startproc
.LM1547:
	tail	pqcrystals_kyber_fips202_ref_shake128_init
	.cfi_endproc
.LFE97:
	.size	pqcrystals_kyber_fips202_ref_shake256_init, .-pqcrystals_kyber_fips202_ref_shake256_init
	.section	.text.pqcrystals_kyber_fips202_ref_shake256_absorb,"ax",@progbits
	.align	1
	.globl	pqcrystals_kyber_fips202_ref_shake256_absorb
	.type	pqcrystals_kyber_fips202_ref_shake256_absorb, @function
pqcrystals_kyber_fips202_ref_shake256_absorb:
.LVL440:
.LFB30:
.LM1548:
	.cfi_startproc
.LM1549:
.LM1550:
	addi	sp,sp,-16
	.cfi_def_cfa_offset 16
	sw	s0,8(sp)
	sw	ra,12(sp)
	.cfi_offset 8, -8
	.cfi_offset 1, -4
.LM1551:
	mv	a3,a1
.LM1552:
	lw	a1,200(a0)
.LVL441:
.LM1553:
	mv	a4,a2
.LM1554:
	li	a2,136
.LVL442:
.LM1555:
	mv	s0,a0
.LM1556:
	call	keccak_absorb
.LVL443:
.LM1557:
	sw	a0,200(s0)
.LM1558:
	lw	ra,12(sp)
	.cfi_restore 1
	lw	s0,8(sp)
	.cfi_restore 8
.LVL444:
.LM1559:
	addi	sp,sp,16
	.cfi_def_cfa_offset 0
	jr	ra
	.cfi_endproc
.LFE30:
	.size	pqcrystals_kyber_fips202_ref_shake256_absorb, .-pqcrystals_kyber_fips202_ref_shake256_absorb
	.section	.text.pqcrystals_kyber_fips202_ref_shake256_finalize,"ax",@progbits
	.align	1
	.globl	pqcrystals_kyber_fips202_ref_shake256_finalize
	.type	pqcrystals_kyber_fips202_ref_shake256_finalize, @function
pqcrystals_kyber_fips202_ref_shake256_finalize:
.LVL445:
.LFB31:
.LM1560:
	.cfi_startproc
.LM1561:
.LM1562:
	addi	sp,sp,-32
	.cfi_def_cfa_offset 32
	sw	ra,28(sp)
	.cfi_offset 1, -4
.LM1563:
	lw	a1,200(a0)
	li	a2,136
	sw	a0,12(sp)
	call	keccak_finalize.constprop.0
.LVL446:
.LM1564:
.LM1565:
	lw	a0,12(sp)
	li	a5,136
	sw	a5,200(a0)
.LM1566:
	lw	ra,28(sp)
	.cfi_restore 1
	addi	sp,sp,32
	.cfi_def_cfa_offset 0
.LVL447:
.LM1567:
	jr	ra
	.cfi_endproc
.LFE31:
	.size	pqcrystals_kyber_fips202_ref_shake256_finalize, .-pqcrystals_kyber_fips202_ref_shake256_finalize
	.section	.text.pqcrystals_kyber_fips202_ref_shake256_squeeze,"ax",@progbits
	.align	1
	.globl	pqcrystals_kyber_fips202_ref_shake256_squeeze
	.type	pqcrystals_kyber_fips202_ref_shake256_squeeze, @function
pqcrystals_kyber_fips202_ref_shake256_squeeze:
.LVL448:
.LFB32:
.LM1568:
	.cfi_startproc
.LM1569:
.LM1570:
	addi	sp,sp,-32
	.cfi_def_cfa_offset 32
	sw	ra,28(sp)
	.cfi_offset 1, -4
.LM1571:
	lw	a3,200(a2)
	li	a4,136
	sw	a2,12(sp)
	call	keccak_squeeze
.LVL449:
.LM1572:
	lw	a2,12(sp)
	sw	a0,200(a2)
.LM1573:
	lw	ra,28(sp)
	.cfi_restore 1
	addi	sp,sp,32
	.cfi_def_cfa_offset 0
.LVL450:
.LM1574:
	jr	ra
	.cfi_endproc
.LFE32:
	.size	pqcrystals_kyber_fips202_ref_shake256_squeeze, .-pqcrystals_kyber_fips202_ref_shake256_squeeze
	.section	.text.pqcrystals_kyber_fips202_ref_shake256_absorb_once,"ax",@progbits
	.align	1
	.globl	pqcrystals_kyber_fips202_ref_shake256_absorb_once
	.type	pqcrystals_kyber_fips202_ref_shake256_absorb_once, @function
pqcrystals_kyber_fips202_ref_shake256_absorb_once:
.LVL451:
.LFB33:
.LM1575:
	.cfi_startproc
.LM1576:
.LM1577:
	addi	sp,sp,-32
	.cfi_def_cfa_offset 32
	mv	a3,a2
.LM1578:
	li	a4,31
	mv	a2,a1
.LVL452:
.LM1579:
	li	a1,136
.LVL453:
.LM1580:
	sw	ra,28(sp)
	.cfi_offset 1, -4
.LM1581:
	sw	a0,12(sp)
.LM1582:
	call	keccak_absorb_once
.LVL454:
.LM1583:
.LM1584:
	lw	a0,12(sp)
	li	a5,136
	sw	a5,200(a0)
.LM1585:
	lw	ra,28(sp)
	.cfi_restore 1
	addi	sp,sp,32
	.cfi_def_cfa_offset 0
.LVL455:
.LM1586:
	jr	ra
	.cfi_endproc
.LFE33:
	.size	pqcrystals_kyber_fips202_ref_shake256_absorb_once, .-pqcrystals_kyber_fips202_ref_shake256_absorb_once
	.section	.text.pqcrystals_kyber_fips202_ref_shake256_squeezeblocks,"ax",@progbits
	.align	1
	.globl	pqcrystals_kyber_fips202_ref_shake256_squeezeblocks
	.type	pqcrystals_kyber_fips202_ref_shake256_squeezeblocks, @function
pqcrystals_kyber_fips202_ref_shake256_squeezeblocks:
.LVL456:
.LFB34:
.LM1587:
	.cfi_startproc
.LM1588:
	li	a3,136
	tail	keccak_squeezeblocks
.LVL457:
.LM1589:
	.cfi_endproc
.LFE34:
	.size	pqcrystals_kyber_fips202_ref_shake256_squeezeblocks, .-pqcrystals_kyber_fips202_ref_shake256_squeezeblocks
	.section	.text.pqcrystals_kyber_fips202_ref_shake128,"ax",@progbits
	.align	1
	.globl	pqcrystals_kyber_fips202_ref_shake128
	.type	pqcrystals_kyber_fips202_ref_shake128, @function
pqcrystals_kyber_fips202_ref_shake128:
.LVL458:
.LFB35:
.LM1590:
	.cfi_startproc
.LM1591:
.LM1592:
.LM1593:
.LM1594:
	addi	sp,sp,-240
	.cfi_def_cfa_offset 240
	sw	s1,228(sp)
	sw	s2,224(sp)
	.cfi_offset 9, -12
	.cfi_offset 18, -16
	mv	s1,a1
	mv	s2,a0
	mv	a1,a2
.LVL459:
.LM1595:
	addi	a0,sp,16
.LVL460:
.LM1596:
	mv	a2,a3
.LVL461:
.LM1597:
	sw	ra,236(sp)
	sw	s0,232(sp)
	.cfi_offset 1, -4
	.cfi_offset 8, -8
.LM1598:
	call	pqcrystals_kyber_fips202_ref_shake128_absorb_once
.LVL462:
.LM1599:
.LM1600:
	li	s0,168
	divu	a1,s1,s0
.LVL463:
.LM1601:
	addi	a2,sp,16
	mv	a0,s2
	sw	a1,12(sp)
	call	pqcrystals_kyber_fips202_ref_shake128_squeezeblocks
.LVL464:
.LM1602:
.LM1603:
.LM1604:
.LM1605:
	lw	a1,12(sp)
.LM1606:
	addi	a2,sp,16
.LM1607:
	mul	a0,a1,s0
.LM1608:
	remu	a1,s1,s0
.LVL465:
.LM1609:
	add	a0,s2,a0
.LVL466:
.LM1610:
	call	pqcrystals_kyber_fips202_ref_shake128_squeeze
.LVL467:
.LM1611:
	lw	ra,236(sp)
	.cfi_restore 1
	lw	s0,232(sp)
	.cfi_restore 8
	lw	s1,228(sp)
	.cfi_restore 9
.LVL468:
.LM1612:
	lw	s2,224(sp)
	.cfi_restore 18
.LVL469:
.LM1613:
	addi	sp,sp,240
	.cfi_def_cfa_offset 0
.LVL470:
.LM1614:
	jr	ra
	.cfi_endproc
.LFE35:
	.size	pqcrystals_kyber_fips202_ref_shake128, .-pqcrystals_kyber_fips202_ref_shake128
	.section	.text.pqcrystals_kyber_fips202_ref_shake256,"ax",@progbits
	.align	1
	.globl	pqcrystals_kyber_fips202_ref_shake256
	.type	pqcrystals_kyber_fips202_ref_shake256, @function
pqcrystals_kyber_fips202_ref_shake256:
.LVL471:
.LFB36:
.LM1615:
	.cfi_startproc
.LM1616:
.LM1617:
.LM1618:
.LM1619:
	addi	sp,sp,-240
	.cfi_def_cfa_offset 240
	sw	s1,228(sp)
	sw	s2,224(sp)
	.cfi_offset 9, -12
	.cfi_offset 18, -16
	mv	s1,a1
	mv	s2,a0
	mv	a1,a2
.LVL472:
.LM1620:
	addi	a0,sp,16
.LVL473:
.LM1621:
	mv	a2,a3
.LVL474:
.LM1622:
	sw	ra,236(sp)
	sw	s0,232(sp)
	.cfi_offset 1, -4
	.cfi_offset 8, -8
.LM1623:
	call	pqcrystals_kyber_fips202_ref_shake256_absorb_once
.LVL475:
.LM1624:
.LM1625:
	li	s0,136
	divu	a1,s1,s0
.LVL476:
.LM1626:
	addi	a2,sp,16
	mv	a0,s2
	sw	a1,12(sp)
	call	pqcrystals_kyber_fips202_ref_shake256_squeezeblocks
.LVL477:
.LM1627:
.LM1628:
.LM1629:
.LM1630:
	lw	a1,12(sp)
.LM1631:
	addi	a2,sp,16
.LM1632:
	mul	a0,a1,s0
.LM1633:
	remu	a1,s1,s0
.LVL478:
.LM1634:
	add	a0,s2,a0
.LVL479:
.LM1635:
	call	pqcrystals_kyber_fips202_ref_shake256_squeeze
.LVL480:
.LM1636:
	lw	ra,236(sp)
	.cfi_restore 1
	lw	s0,232(sp)
	.cfi_restore 8
	lw	s1,228(sp)
	.cfi_restore 9
.LVL481:
.LM1637:
	lw	s2,224(sp)
	.cfi_restore 18
.LVL482:
.LM1638:
	addi	sp,sp,240
	.cfi_def_cfa_offset 0
.LVL483:
.LM1639:
	jr	ra
	.cfi_endproc
.LFE36:
	.size	pqcrystals_kyber_fips202_ref_shake256, .-pqcrystals_kyber_fips202_ref_shake256
	.section	.text.pqcrystals_kyber_fips202_ref_sha3_256,"ax",@progbits
	.align	1
	.globl	pqcrystals_kyber_fips202_ref_sha3_256
	.type	pqcrystals_kyber_fips202_ref_sha3_256, @function
pqcrystals_kyber_fips202_ref_sha3_256:
.LVL484:
.LFB37:
.LM1640:
	.cfi_startproc
.LM1641:
.LM1642:
.LM1643:
.LM1644:
	addi	sp,sp,-272
	.cfi_def_cfa_offset 272
	sw	s1,260(sp)
	.cfi_offset 9, -12
.LM1645:
	addi	s1,sp,24
.LM1646:
	mv	a3,a2
	sw	s7,236(sp)
.LM1647:
	mv	a2,a1
.LVL485:
.LM1648:
	li	a4,6
	li	a1,136
.LVL486:
	.cfi_offset 23, -36
.LM1649:
	mv	s7,a0
.LM1650:
	mv	a0,s1
.LVL487:
.LM1651:
	sw	ra,268(sp)
	sw	s0,264(sp)
	sw	s3,252(sp)
	sw	s4,248(sp)
	sw	s2,256(sp)
	sw	s5,244(sp)
	sw	s6,240(sp)
	.cfi_offset 1, -4
	.cfi_offset 8, -8
	.cfi_offset 19, -20
	.cfi_offset 20, -24
	.cfi_offset 18, -16
	.cfi_offset 21, -28
	.cfi_offset 22, -32
.LM1652:
	call	keccak_absorb_once
.LVL488:
.LM1653:
	mv	a0,s1
	call	KeccakF1600_StatePermute
.LVL489:
.LM1654:
.LM1655:
.LM1656:
	li	s0,0
.LBB78:
.LBB79:
.LM1657:
	li	s4,64
.LBE79:
.LBE78:
.LM1658:
	li	s3,32
.LVL490:
.L114:
.LM1659:
	add	a5,s1,s0
	lw	a6,4(a5)
	lw	a5,0(a5)
	add	s2,s7,s0
	mv	s6,a6
.LVL491:
.LM1660:
	mv	s5,a5
.LVL492:
.LBB82:
.LBI78:
.LM1661:
.LBB80:
.LM1662:
.LM1663:
.LM1664:
.LBE80:
.LBE82:
.LM1665:
	li	a2,0
.LVL493:
.L113:
.LBB83:
.LBB81:
.LM1666:
.LM1667:
	mv	a0,s5
	mv	a1,s6
	sw	a2,12(sp)
	call	__lshrdi3
.LVL494:
.LM1668:
	lw	a2,12(sp)
.LM1669:
	sb	a0,0(s2)
.LM1670:
.LM1671:
	addi	s2,s2,1
	addi	a2,a2,8
	bne	a2,s4,.L113
.LVL495:
.LM1672:
.LBE81:
.LBE83:
.LM1673:
.LM1674:
	addi	s0,s0,8
	bne	s0,s3,.L114
.LM1675:
	lw	ra,268(sp)
	.cfi_restore 1
	lw	s0,264(sp)
	.cfi_restore 8
	lw	s1,260(sp)
	.cfi_restore 9
	lw	s2,256(sp)
	.cfi_restore 18
	lw	s3,252(sp)
	.cfi_restore 19
	lw	s4,248(sp)
	.cfi_restore 20
	lw	s5,244(sp)
	.cfi_restore 21
	lw	s6,240(sp)
	.cfi_restore 22
	lw	s7,236(sp)
	.cfi_restore 23
.LVL496:
.LM1676:
	addi	sp,sp,272
	.cfi_def_cfa_offset 0
	jr	ra
	.cfi_endproc
.LFE37:
	.size	pqcrystals_kyber_fips202_ref_sha3_256, .-pqcrystals_kyber_fips202_ref_sha3_256
	.section	.text.pqcrystals_kyber_fips202_ref_sha3_512,"ax",@progbits
	.align	1
	.globl	pqcrystals_kyber_fips202_ref_sha3_512
	.type	pqcrystals_kyber_fips202_ref_sha3_512, @function
pqcrystals_kyber_fips202_ref_sha3_512:
.LVL497:
.LFB38:
.LM1677:
	.cfi_startproc
.LM1678:
.LM1679:
.LM1680:
.LM1681:
	addi	sp,sp,-256
	.cfi_def_cfa_offset 256
	sw	s1,244(sp)
	.cfi_offset 9, -12
.LM1682:
	addi	s1,sp,24
.LM1683:
	mv	a3,a2
	sw	s6,224(sp)
.LM1684:
	mv	a2,a1
.LVL498:
.LM1685:
	li	a4,6
	li	a1,72
.LVL499:
	.cfi_offset 22, -32
.LM1686:
	mv	s6,a0
.LM1687:
	mv	a0,s1
.LVL500:
.LM1688:
	sw	ra,252(sp)
	sw	s0,248(sp)
	sw	s3,236(sp)
	sw	s2,240(sp)
	sw	s4,232(sp)
	sw	s5,228(sp)
	.cfi_offset 1, -4
	.cfi_offset 8, -8
	.cfi_offset 19, -20
	.cfi_offset 18, -16
	.cfi_offset 20, -24
	.cfi_offset 21, -28
.LM1689:
	call	keccak_absorb_once
.LVL501:
.LM1690:
	mv	a0,s1
	call	KeccakF1600_StatePermute
.LVL502:
.LM1691:
.LM1692:
.LM1693:
	li	s0,0
.LBB86:
.LBB87:
.LM1694:
	li	s3,64
.LVL503:
.L120:
.LM1695:
.LBE87:
.LBE86:
.LM1696:
	add	a5,s1,s0
	lw	a6,4(a5)
	lw	a5,0(a5)
	add	s2,s6,s0
	mv	s5,a6
.LVL504:
.LM1697:
	mv	s4,a5
.LVL505:
.LBB90:
.LBI86:
.LM1698:
.LBB88:
.LM1699:
.LM1700:
.LM1701:
.LBE88:
.LBE90:
.LM1702:
	li	a2,0
.LVL506:
.L119:
.LBB91:
.LBB89:
.LM1703:
.LM1704:
	mv	a0,s4
	mv	a1,s5
	sw	a2,12(sp)
	call	__lshrdi3
.LVL507:
.LM1705:
	lw	a2,12(sp)
.LM1706:
	sb	a0,0(s2)
.LM1707:
.LM1708:
	addi	s2,s2,1
	addi	a2,a2,8
	bne	a2,s3,.L119
.LVL508:
.LM1709:
.LBE89:
.LBE91:
.LM1710:
.LM1711:
	addi	s0,s0,8
	bne	s0,a2,.L120
.LM1712:
	lw	ra,252(sp)
	.cfi_restore 1
	lw	s0,248(sp)
	.cfi_restore 8
	lw	s1,244(sp)
	.cfi_restore 9
	lw	s2,240(sp)
	.cfi_restore 18
	lw	s3,236(sp)
	.cfi_restore 19
	lw	s4,232(sp)
	.cfi_restore 20
	lw	s5,228(sp)
	.cfi_restore 21
	lw	s6,224(sp)
	.cfi_restore 22
.LVL509:
.LM1713:
	addi	sp,sp,256
	.cfi_def_cfa_offset 0
	jr	ra
	.cfi_endproc
.LFE38:
	.size	pqcrystals_kyber_fips202_ref_sha3_512, .-pqcrystals_kyber_fips202_ref_sha3_512
	.section	.text.pqcrystals_kyber512_ref_poly_compress,"ax",@progbits
	.align	1
	.globl	pqcrystals_kyber512_ref_poly_compress
	.type	pqcrystals_kyber512_ref_poly_compress, @function
pqcrystals_kyber512_ref_poly_compress:
.LVL510:
.LFB59:
.LM1714:
	.cfi_startproc
.LM1715:
.LM1716:
.LM1717:
.LM1718:
.LM1719:
.LM1720:
.LM1721:
	addi	sp,sp,-16
	.cfi_def_cfa_offset 16
.LM1722:
	li	a2,4096
.LM1723:
	li	a6,81920
.LM1724:
	li	a3,0
.LM1725:
	addi	a2,a2,-767
.LM1726:
	addi	a6,a6,-1285
.LM1727:
	addi	a7,sp,8
.LM1728:
	li	t1,8
.LM1729:
	li	t3,256
.LVL511:
.L125:
.LM1730:
	slli	a4,a3,1
	add	a4,a1,a4
.LM1731:
	li	t4,0
.LVL512:
.L126:
.LM1732:
.LM1733:
	lh	t5,0(a4)
.LVL513:
.LM1734:
.LM1735:
	addi	a4,a4,2
.LM1736:
	srai	a5,t5,15
	and	a5,a5,a2
.LM1737:
	add	a5,a5,t5
.LVL514:
.LM1738:
.LM1739:
	slli	a5,a5,16
.LVL515:
.LM1740:
	srai	a5,a5,16
.LM1741:
	slli	a5,a5,4
.LVL516:
.LM1742:
.LM1743:
	addi	a5,a5,1665
.LVL517:
.LM1744:
.LM1745:
	mul	a5,a5,a6
.LVL518:
.LM1746:
.LM1747:
.LM1748:
	add	t5,a7,t4
.LVL519:
.LM1749:
	addi	t4,t4,1
.LVL520:
.LM1750:
	srli	a5,a5,28
.LVL521:
.LM1751:
	sb	a5,0(t5)
.LM1752:
.LVL522:
.LM1753:
	bne	t4,t1,.L126
.LM1754:
.LM1755:
	lbu	a5,9(sp)
.LVL523:
.LM1756:
	lbu	a4,8(sp)
.LVL524:
.LM1757:
	addi	a3,a3,8
.LM1758:
	slli	a5,a5,4
	or	a5,a5,a4
.LM1759:
	sb	a5,0(a0)
.LM1760:
.LM1761:
	lbu	a5,11(sp)
	lbu	a4,10(sp)
.LM1762:
	addi	a0,a0,4
.LVL525:
.LM1763:
	slli	a5,a5,4
	or	a5,a5,a4
.LM1764:
	sb	a5,-3(a0)
.LM1765:
.LM1766:
	lbu	a5,13(sp)
	lbu	a4,12(sp)
	slli	a5,a5,4
	or	a5,a5,a4
.LM1767:
	sb	a5,-2(a0)
.LM1768:
.LM1769:
	lbu	a5,15(sp)
	lbu	a4,14(sp)
	slli	a5,a5,4
	or	a5,a5,a4
.LM1770:
	sb	a5,-1(a0)
.LM1771:
.LM1772:
.LVL526:
.LM1773:
	bne	a3,t3,.L125
.LM1774:
	addi	sp,sp,16
	.cfi_def_cfa_offset 0
	jr	ra
	.cfi_endproc
.LFE59:
	.size	pqcrystals_kyber512_ref_poly_compress, .-pqcrystals_kyber512_ref_poly_compress
	.section	.text.pqcrystals_kyber512_ref_poly_decompress,"ax",@progbits
	.align	1
	.globl	pqcrystals_kyber512_ref_poly_decompress
	.type	pqcrystals_kyber512_ref_poly_decompress, @function
pqcrystals_kyber512_ref_poly_decompress:
.LVL527:
.LFB60:
.LM1775:
	.cfi_startproc
.LM1776:
.LM1777:
.LM1778:
.LM1779:
	li	a4,4096
	addi	a3,a0,512
	addi	a4,a4,-767
.LVL528:
.L131:
.LM1780:
.LM1781:
	lbu	a5,0(a1)
.LM1782:
	addi	a0,a0,4
.LM1783:
	addi	a1,a1,1
.LVL529:
.LM1784:
	andi	a5,a5,15
.LM1785:
	mul	a5,a5,a4
.LM1786:
	addi	a5,a5,8
.LM1787:
	srai	a5,a5,4
.LM1788:
	sh	a5,-4(a0)
.LM1789:
.LM1790:
	lbu	a5,-1(a1)
	srli	a5,a5,4
.LM1791:
	mul	a5,a5,a4
.LM1792:
	addi	a5,a5,8
.LM1793:
	srai	a5,a5,4
.LM1794:
	sh	a5,-2(a0)
.LM1795:
.LM1796:
.LVL530:
.LM1797:
	bne	a3,a0,.L131
.LM1798:
	ret
	.cfi_endproc
.LFE60:
	.size	pqcrystals_kyber512_ref_poly_decompress, .-pqcrystals_kyber512_ref_poly_decompress
	.section	.text.pqcrystals_kyber512_ref_poly_tobytes,"ax",@progbits
	.align	1
	.globl	pqcrystals_kyber512_ref_poly_tobytes
	.type	pqcrystals_kyber512_ref_poly_tobytes, @function
pqcrystals_kyber512_ref_poly_tobytes:
.LVL531:
.LFB61:
.LM1799:
	.cfi_startproc
.LM1800:
.LM1801:
.LM1802:
.LM1803:
.LM1804:
	li	a3,4096
	addi	a6,a0,384
	addi	a3,a3,-767
.LVL532:
.L134:
.LM1805:
.LM1806:
	lh	a5,0(a1)
.LVL533:
.LM1807:
.LM1808:
	addi	a0,a0,3
	addi	a1,a1,4
.LM1809:
	srai	a4,a5,15
	and	a4,a4,a3
.LM1810:
	add	a5,a5,a4
.LVL534:
.LM1811:
.LM1812:
	lh	a4,-2(a1)
.LVL535:
.LM1813:
.LM1814:
	sb	a5,-3(a0)
.LM1815:
	srli	a5,a5,8
.LVL536:
.LM1816:
	srai	a2,a4,15
	and	a2,a2,a3
.LM1817:
	add	a4,a4,a2
.LVL537:
.LM1818:
.LM1819:
.LM1820:
	slli	a2,a4,4
	or	a5,a5,a2
.LM1821:
	srli	a4,a4,4
.LVL538:
.LM1822:
	sb	a5,-2(a0)
.LM1823:
.LM1824:
	sb	a4,-1(a0)
.LM1825:
.LM1826:
	bne	a6,a0,.L134
.LM1827:
	ret
	.cfi_endproc
.LFE61:
	.size	pqcrystals_kyber512_ref_poly_tobytes, .-pqcrystals_kyber512_ref_poly_tobytes
	.section	.text.pqcrystals_kyber512_ref_poly_frombytes,"ax",@progbits
	.align	1
	.globl	pqcrystals_kyber512_ref_poly_frombytes
	.type	pqcrystals_kyber512_ref_poly_frombytes, @function
pqcrystals_kyber512_ref_poly_frombytes:
.LVL539:
.LFB62:
.LM1828:
	.cfi_startproc
.LM1829:
.LM1830:
.LM1831:
.LM1832:
	li	a3,4096
	addi	a2,a1,384
	addi	a3,a3,-1
.LVL540:
.L137:
.LM1833:
.LM1834:
	lbu	a5,1(a1)
.LM1835:
	lbu	a4,0(a1)
.LM1836:
	addi	a1,a1,3
.LM1837:
	slli	a5,a5,8
	or	a5,a5,a4
.LM1838:
	and	a5,a5,a3
.LM1839:
	sh	a5,0(a0)
.LM1840:
.LM1841:
	lbu	a4,-2(a1)
	lbu	a5,-1(a1)
.LM1842:
	addi	a0,a0,4
.LM1843:
	srli	a4,a4,4
	slli	a5,a5,4
	or	a5,a5,a4
.LM1844:
	sh	a5,-2(a0)
.LM1845:
.LM1846:
	bne	a2,a1,.L137
.LM1847:
	ret
	.cfi_endproc
.LFE62:
	.size	pqcrystals_kyber512_ref_poly_frombytes, .-pqcrystals_kyber512_ref_poly_frombytes
	.section	.text.pqcrystals_kyber512_ref_poly_tomsg,"ax",@progbits
	.align	1
	.globl	pqcrystals_kyber512_ref_poly_tomsg
	.type	pqcrystals_kyber512_ref_poly_tomsg, @function
pqcrystals_kyber512_ref_poly_tomsg:
.LVL541:
.LFB64:
.LM1848:
	.cfi_startproc
.LM1849:
.LM1850:
.LM1851:
.LM1852:
.LM1853:
	li	a6,81920
.LM1854:
	li	a3,0
.LM1855:
	addi	a6,a6,-1285
.LM1856:
	li	t3,8
.LM1857:
	li	t1,256
.LVL542:
.L141:
.LM1858:
	slli	a4,a3,1
.LM1859:
	sb	zero,0(a0)
.LM1860:
.LVL543:
.LM1861:
	add	a4,a1,a4
.LM1862:
	li	a7,0
.LM1863:
	li	a2,0
.LVL544:
.L140:
.LM1864:
.LM1865:
	lh	a5,0(a4)
.LVL545:
.LM1866:
.LM1867:
	addi	a4,a4,2
.LM1868:
	slli	a5,a5,1
.LVL546:
.LM1869:
.LM1870:
	addi	a5,a5,1665
.LVL547:
.LM1871:
.LM1872:
	mul	a5,a5,a6
.LVL548:
.LM1873:
.LM1874:
	srli	a5,a5,28
.LVL549:
.LM1875:
.LM1876:
.LM1877:
	andi	a5,a5,1
.LVL550:
.LM1878:
	sll	a5,a5,a2
.LVL551:
.LM1879:
	or	a7,a7,a5
	sb	a7,0(a0)
.LVL552:
.LM1880:
	addi	a2,a2,1
.LVL553:
.LM1881:
	bne	a2,t3,.L140
.LM1882:
.LVL554:
.LM1883:
	addi	a3,a3,8
	addi	a0,a0,1
.LVL555:
.LM1884:
	bne	a3,t1,.L141
.LM1885:
	ret
	.cfi_endproc
.LFE64:
	.size	pqcrystals_kyber512_ref_poly_tomsg, .-pqcrystals_kyber512_ref_poly_tomsg
	.section	.text.pqcrystals_kyber512_ref_poly_add,"ax",@progbits
	.align	1
	.globl	pqcrystals_kyber512_ref_poly_add
	.type	pqcrystals_kyber512_ref_poly_add, @function
pqcrystals_kyber512_ref_poly_add:
.LVL556:
.LFB72:
.LM1886:
	.cfi_startproc
.LM1887:
.LM1888:
.LM1889:
.LM1890:
	li	a5,0
.LM1891:
	li	a3,512
.LVL557:
.L145:
.LM1892:
.LM1893:
	add	a4,a1,a5
.LM1894:
	add	a7,a2,a5
.LM1895:
	lhu	a4,0(a4)
	lhu	a7,0(a7)
.LM1896:
	add	a6,a0,a5
.LM1897:
	addi	a5,a5,2
.LM1898:
	add	a4,a4,a7
.LM1899:
	sh	a4,0(a6)
.LM1900:
.LM1901:
	bne	a5,a3,.L145
.LM1902:
	ret
	.cfi_endproc
.LFE72:
	.size	pqcrystals_kyber512_ref_poly_add, .-pqcrystals_kyber512_ref_poly_add
	.section	.text.pqcrystals_kyber512_ref_poly_sub,"ax",@progbits
	.align	1
	.globl	pqcrystals_kyber512_ref_poly_sub
	.type	pqcrystals_kyber512_ref_poly_sub, @function
pqcrystals_kyber512_ref_poly_sub:
.LVL558:
.LFB73:
.LM1903:
	.cfi_startproc
.LM1904:
.LM1905:
.LM1906:
.LM1907:
	li	a5,0
.LM1908:
	li	a3,512
.LVL559:
.L148:
.LM1909:
.LM1910:
	add	a4,a1,a5
.LM1911:
	add	a7,a2,a5
.LM1912:
	lhu	a4,0(a4)
	lhu	a7,0(a7)
.LM1913:
	add	a6,a0,a5
.LM1914:
	addi	a5,a5,2
.LM1915:
	sub	a4,a4,a7
.LM1916:
	sh	a4,0(a6)
.LM1917:
.LM1918:
	bne	a5,a3,.L148
.LM1919:
	ret
	.cfi_endproc
.LFE73:
	.size	pqcrystals_kyber512_ref_poly_sub, .-pqcrystals_kyber512_ref_poly_sub
	.section	.text.pqcrystals_kyber512_ref_polyvec_compress,"ax",@progbits
	.align	1
	.globl	pqcrystals_kyber512_ref_polyvec_compress
	.type	pqcrystals_kyber512_ref_polyvec_compress, @function
pqcrystals_kyber512_ref_polyvec_compress:
.LVL560:
.LFB74:
.LM1920:
	.cfi_startproc
.LM1921:
.LM1922:
.LM1923:
.LM1924:
.LM1925:
.LM1926:
	addi	sp,sp,-32
	.cfi_def_cfa_offset 32
.LM1927:
	li	t1,4096
.LM1928:
	li	t3,1290240
.LM1929:
	sw	s0,28(sp)
	.cfi_offset 8, -4
	li	a6,0
	li	t4,5
.LM1930:
	addi	t1,t1,-767
.LM1931:
	addi	t3,t3,-73
.LM1932:
	addi	t5,sp,8
.LM1933:
	li	t6,8
.LM1934:
	li	t0,256
	li	t2,64
.LVL561:
.L151:
.LM1935:
	mul	a4,a6,t4
	slli	a2,a6,3
	add	a2,a1,a2
.LM1936:
	li	a7,0
	add	a4,a0,a4
.LVL562:
.LM1937:
	j	.L155
.LVL563:
.L152:
.LM1938:
.LM1939:
	add	a5,a2,a3
	lh	s0,0(a5)
.LM1940:
.LM1941:
.LM1942:
	srai	a5,s0,15
	and	a5,a5,t1
.LM1943:
	add	a5,a5,s0
.LM1944:
	slli	a5,a5,16
	srli	a5,a5,16
.LVL564:
.LM1945:
.LM1946:
	slli	a5,a5,10
.LVL565:
.LM1947:
.LM1948:
.LM1949:
.LM1950:
	addi	a5,a5,1665
.LVL566:
.LM1951:
	mulhu	a5,a5,t3
.LVL567:
.LM1952:
.LM1953:
	add	s0,t5,a3
.LM1954:
	addi	a3,a3,2
.LM1955:
	andi	a5,a5,1023
.LVL568:
.LM1956:
	sh	a5,0(s0)
.LM1957:
.LM1958:
	bne	a3,t6,.L152
.LM1959:
.LM1960:
	lhu	a5,8(sp)
.LM1961:
	lhu	a3,10(sp)
.LVL569:
.LM1962:
	addi	a7,a7,4
.LM1963:
	sb	a5,0(a4)
.LM1964:
.LM1965:
	slli	s0,a3,2
	srli	a5,a5,8
	or	a5,a5,s0
.LM1966:
	sb	a5,1(a4)
.LM1967:
.LM1968:
	lhu	a5,12(sp)
.LM1969:
	srli	a3,a3,6
.LM1970:
	addi	a4,a4,5
.LVL570:
.LM1971:
	slli	s0,a5,4
	or	a3,a3,s0
.LM1972:
	sb	a3,-3(a4)
.LM1973:
.LM1974:
	lhu	a3,14(sp)
.LM1975:
	srli	a5,a5,4
.LM1976:
	addi	a2,a2,8
.LM1977:
	slli	s0,a3,6
	or	a5,a5,s0
.LM1978:
	srli	a3,a3,2
.LM1979:
	sb	a5,-2(a4)
.LM1980:
.LM1981:
	sb	a3,-1(a4)
.LM1982:
.LM1983:
.LVL571:
.LM1984:
	beq	a7,t0,.L153
.LVL572:
.L155:
.LM1985:
.LM1986:
	li	a3,0
	j	.L152
.LVL573:
.L153:
.LM1987:
.LM1988:
	beq	a6,t2,.L150
	li	a6,64
	j	.L151
.L150:
.LM1989:
	lw	s0,28(sp)
	.cfi_restore 8
	addi	sp,sp,32
	.cfi_def_cfa_offset 0
	jr	ra
	.cfi_endproc
.LFE74:
	.size	pqcrystals_kyber512_ref_polyvec_compress, .-pqcrystals_kyber512_ref_polyvec_compress
	.section	.text.pqcrystals_kyber512_ref_polyvec_decompress,"ax",@progbits
	.align	1
	.globl	pqcrystals_kyber512_ref_polyvec_decompress
	.type	pqcrystals_kyber512_ref_polyvec_decompress, @function
pqcrystals_kyber512_ref_polyvec_decompress:
.LVL574:
.LFB75:
.LM1990:
	.cfi_startproc
.LM1991:
.LM1992:
.LM1993:
.LM1994:
.LM1995:
	addi	sp,sp,-16
	.cfi_def_cfa_offset 16
.LM1996:
	li	t1,4096
	li	a6,0
	li	t3,5
.LM1997:
	addi	t4,sp,8
.LM1998:
	addi	t1,t1,-767
.LM1999:
	li	t5,8
.LM2000:
	li	t6,256
	li	t0,64
.LVL575:
.L159:
.LM2001:
	mul	a5,a6,t3
	slli	a3,a6,3
	add	a3,a0,a3
.LM2002:
	li	a7,0
	add	a5,a1,a5
.LVL576:
.LM2003:
.L161:
.LM2004:
.LM2005:
	lbu	a2,1(a5)
.LM2006:
	lbu	t2,0(a5)
.LM2007:
	addi	a5,a5,5
.LVL577:
.LM2008:
	slli	a4,a2,8
	or	a4,a4,t2
	sh	a4,8(sp)
.LM2009:
.LM2010:
	lbu	a4,-3(a5)
.LM2011:
	srli	a2,a2,2
	slli	t2,a4,6
	or	a2,t2,a2
.LM2012:
	sh	a2,10(sp)
.LM2013:
.LM2014:
	lbu	a2,-2(a5)
.LM2015:
	srli	a4,a4,4
	slli	t2,a2,4
	or	a4,t2,a4
.LM2016:
	sh	a4,12(sp)
.LM2017:
.LM2018:
	lbu	a4,-1(a5)
	srli	a2,a2,6
	slli	a4,a4,2
	or	a4,a4,a2
.LM2019:
	sh	a4,14(sp)
.LM2020:
.LVL578:
.LM2021:
.LM2022:
.LM2023:
	li	a2,0
.LVL579:
.L160:
.LM2024:
.LM2025:
	add	a4,t4,a2
.LM2026:
	lhu	a4,0(a4)
.LM2027:
	add	t2,a3,a2
.LM2028:
	addi	a2,a2,2
.LM2029:
	andi	a4,a4,1023
.LM2030:
	mul	a4,a4,t1
.LM2031:
	addi	a4,a4,512
.LM2032:
	srli	a4,a4,10
.LM2033:
	sh	a4,0(t2)
.LM2034:
.LM2035:
	bne	a2,t5,.L160
.LM2036:
.LM2037:
	addi	a7,a7,4
	addi	a3,a3,8
	bne	a7,t6,.L161
.LM2038:
.LVL580:
.LM2039:
	beq	a6,t0,.L158
	li	a6,64
	j	.L159
.L158:
.LM2040:
	addi	sp,sp,16
	.cfi_def_cfa_offset 0
	jr	ra
	.cfi_endproc
.LFE75:
	.size	pqcrystals_kyber512_ref_polyvec_decompress, .-pqcrystals_kyber512_ref_polyvec_decompress
	.section	.text.pqcrystals_kyber512_ref_polyvec_tobytes,"ax",@progbits
	.align	1
	.globl	pqcrystals_kyber512_ref_polyvec_tobytes
	.type	pqcrystals_kyber512_ref_polyvec_tobytes, @function
pqcrystals_kyber512_ref_polyvec_tobytes:
.LVL581:
.LFB76:
.LM2041:
	.cfi_startproc
.LM2042:
.LM2043:
.LM2044:
.LM2045:
.LM2046:
	addi	sp,sp,-32
	.cfi_def_cfa_offset 32
	sw	ra,28(sp)
	.cfi_offset 1, -4
.LM2047:
	sw	a0,12(sp)
	sw	a1,8(sp)
.LM2048:
	call	pqcrystals_kyber512_ref_poly_tobytes
.LVL582:
.LM2049:
.LM2050:
.LM2051:
	lw	a1,8(sp)
	lw	a0,12(sp)
.LM2052:
	lw	ra,28(sp)
	.cfi_restore 1
.LM2053:
	addi	a1,a1,512
.LM2054:
.LM2055:
	addi	a0,a0,384
.LM2056:
	addi	sp,sp,32
	.cfi_def_cfa_offset 0
.LVL583:
.LM2057:
	tail	pqcrystals_kyber512_ref_poly_tobytes
.LVL584:
	.cfi_endproc
.LFE76:
	.size	pqcrystals_kyber512_ref_polyvec_tobytes, .-pqcrystals_kyber512_ref_polyvec_tobytes
	.section	.text.pqcrystals_kyber512_ref_polyvec_frombytes,"ax",@progbits
	.align	1
	.globl	pqcrystals_kyber512_ref_polyvec_frombytes
	.type	pqcrystals_kyber512_ref_polyvec_frombytes, @function
pqcrystals_kyber512_ref_polyvec_frombytes:
.LVL585:
.LFB77:
.LM2058:
	.cfi_startproc
.LM2059:
.LM2060:
.LM2061:
.LM2062:
.LM2063:
	addi	sp,sp,-32
	.cfi_def_cfa_offset 32
	sw	ra,28(sp)
	.cfi_offset 1, -4
.LM2064:
	sw	a0,12(sp)
	sw	a1,8(sp)
.LM2065:
	call	pqcrystals_kyber512_ref_poly_frombytes
.LVL586:
.LM2066:
.LM2067:
.LM2068:
	lw	a1,8(sp)
	lw	a0,12(sp)
.LM2069:
	lw	ra,28(sp)
	.cfi_restore 1
.LM2070:
	addi	a1,a1,384
.LM2071:
.LM2072:
	addi	a0,a0,512
.LM2073:
	addi	sp,sp,32
	.cfi_def_cfa_offset 0
.LVL587:
.LM2074:
	tail	pqcrystals_kyber512_ref_poly_frombytes
.LVL588:
	.cfi_endproc
.LFE77:
	.size	pqcrystals_kyber512_ref_polyvec_frombytes, .-pqcrystals_kyber512_ref_polyvec_frombytes
	.section	.text.pqcrystals_kyber512_ref_polyvec_add,"ax",@progbits
	.align	1
	.globl	pqcrystals_kyber512_ref_polyvec_add
	.type	pqcrystals_kyber512_ref_polyvec_add, @function
pqcrystals_kyber512_ref_polyvec_add:
.LVL589:
.LFB82:
.LM2075:
	.cfi_startproc
.LM2076:
.LM2077:
.LM2078:
.LM2079:
.LM2080:
	addi	sp,sp,-32
	.cfi_def_cfa_offset 32
	sw	ra,28(sp)
	.cfi_offset 1, -4
.LM2081:
	sw	a0,12(sp)
	sw	a1,8(sp)
	sw	a2,4(sp)
.LM2082:
	call	pqcrystals_kyber512_ref_poly_add
.LVL590:
.LM2083:
.LM2084:
.LM2085:
	lw	a2,4(sp)
	lw	a1,8(sp)
	lw	a0,12(sp)
.LM2086:
	lw	ra,28(sp)
	.cfi_restore 1
.LM2087:
	addi	a2,a2,512
.LM2088:
.LM2089:
	addi	a1,a1,512
	addi	a0,a0,512
.LM2090:
	addi	sp,sp,32
	.cfi_def_cfa_offset 0
.LVL591:
.LM2091:
	tail	pqcrystals_kyber512_ref_poly_add
.LVL592:
	.cfi_endproc
.LFE82:
	.size	pqcrystals_kyber512_ref_polyvec_add, .-pqcrystals_kyber512_ref_polyvec_add
	.section	.text.pqcrystals_kyber512_ref_montgomery_reduce,"ax",@progbits
	.align	1
	.globl	pqcrystals_kyber512_ref_montgomery_reduce
	.type	pqcrystals_kyber512_ref_montgomery_reduce, @function
pqcrystals_kyber512_ref_montgomery_reduce:
.LVL593:
.LFB83:
.LM2092:
	.cfi_startproc
.LM2093:
.LM2094:
.LM2095:
.LM2096:
	li	a5,-4096
	addi	a5,a5,769
	mul	a5,a0,a5
.LM2097:
	li	a4,-4096
	addi	a4,a4,767
.LM2098:
	slli	a5,a5,16
	srai	a5,a5,16
.LM2099:
	mul	a5,a5,a4
.LM2100:
	add	a0,a5,a0
.LVL594:
.LM2101:
.LM2102:
	srai	a0,a0,16
.LVL595:
.LM2103:
	ret
	.cfi_endproc
.LFE83:
	.size	pqcrystals_kyber512_ref_montgomery_reduce, .-pqcrystals_kyber512_ref_montgomery_reduce
	.section	.text.pqcrystals_kyber512_ref_ntt,"ax",@progbits
	.align	1
	.globl	pqcrystals_kyber512_ref_ntt
	.type	pqcrystals_kyber512_ref_ntt, @function
pqcrystals_kyber512_ref_ntt:
.LVL596:
.LFB56:
.LM2104:
	.cfi_startproc
.LM2105:
.LM2106:
.LM2107:
.LM2108:
.LM2109:
.LM2110:
	addi	sp,sp,-80
	.cfi_def_cfa_offset 80
	sw	s5,52(sp)
	.cfi_offset 21, -28
.LM2111:
	lui	s5,%hi(pqcrystals_kyber512_ref_zetas)
.LM2112:
	sw	s2,64(sp)
	sw	s3,60(sp)
	sw	s4,56(sp)
	sw	ra,76(sp)
	sw	s0,72(sp)
	sw	s1,68(sp)
	sw	s6,48(sp)
	sw	s7,44(sp)
	sw	s8,40(sp)
	sw	s9,36(sp)
	sw	s10,32(sp)
	sw	s11,28(sp)
	.cfi_offset 18, -16
	.cfi_offset 19, -20
	.cfi_offset 20, -24
	.cfi_offset 1, -4
	.cfi_offset 8, -8
	.cfi_offset 9, -12
	.cfi_offset 22, -32
	.cfi_offset 23, -36
	.cfi_offset 24, -40
	.cfi_offset 25, -44
	.cfi_offset 26, -48
	.cfi_offset 27, -52
.LM2113:
	sw	a0,8(sp)
.LM2114:
	li	s4,7
.LM2115:
	li	s3,1
.LM2116:
	li	s2,128
.LM2117:
	addi	s5,s5,%lo(pqcrystals_kyber512_ref_zetas)
.LVL597:
.L174:
.LM2118:
	slli	s11,s2,1
.LM2119:
	li	s0,0
	addi	s10,s2,-1
	addi	s9,s2,1
.LVL598:
.L178:
.LM2120:
.LM2121:
	slli	a5,s3,1
	add	a5,a5,s5
	lh	a4,0(a5)
.LVL599:
.LM2122:
.LM2123:
	lw	a5,8(sp)
	slli	s1,s0,1
.LM2124:
	addi	s3,s3,1
.LVL600:
.LM2125:
	add	s7,s2,s0
	add	s1,a5,s1
.LM2126:
	mv	s6,s0
.LVL601:
.L175:
.LM2127:
	add	s8,s1,s11
.LVL602:
.LBB92:
.LBI92:
.LM2128:
.LBB93:
.LM2129:
.LM2130:
	lh	a0,0(s8)
	sw	a4,12(sp)
.LBE93:
.LBE92:
.LM2131:
	addi	s6,s6,1
.LVL603:
.LBB96:
.LBB94:
.LM2132:
	mul	a0,a0,a4
.LBE94:
.LBE96:
.LM2133:
	addi	s1,s1,2
.LBB97:
.LBB95:
.LM2134:
	call	pqcrystals_kyber512_ref_montgomery_reduce
.LVL604:
.LM2135:
.LBE95:
.LBE97:
.LM2136:
.LM2137:
	lhu	a5,-2(s1)
.LM2138:
	lw	a4,12(sp)
	li	a3,255
.LM2139:
	sub	a5,a5,a0
.LM2140:
	sh	a5,0(s8)
.LM2141:
.LM2142:
	lhu	a5,-2(s1)
	add	a0,a0,a5
.LVL605:
.LM2143:
	sh	a0,-2(s1)
.LM2144:
.LVL606:
.LM2145:
	bltu	s6,s7,.L175
.LVL607:
.LM2146:
	addi	a5,s0,1
	li	a4,0
.LVL608:
.LM2147:
	bltu	s7,a5,.L177
	mv	a4,s10
.L177:
	add	s0,s9,s0
.LVL609:
.LM2148:
	add	s0,a4,s0
.LVL610:
.LM2149:
	bleu	s0,a3,.L178
.LM2150:
.LM2151:
	addi	s4,s4,-1
.LM2152:
	srli	s2,s2,1
.LVL611:
.LM2153:
	bne	s4,zero,.L174
.LM2154:
	lw	ra,76(sp)
	.cfi_restore 1
	lw	s0,72(sp)
	.cfi_restore 8
.LVL612:
.LM2155:
	lw	s1,68(sp)
	.cfi_restore 9
	lw	s2,64(sp)
	.cfi_restore 18
.LVL613:
.LM2156:
	lw	s3,60(sp)
	.cfi_restore 19
.LVL614:
.LM2157:
	lw	s4,56(sp)
	.cfi_restore 20
	lw	s5,52(sp)
	.cfi_restore 21
	lw	s6,48(sp)
	.cfi_restore 22
.LVL615:
.LM2158:
	lw	s7,44(sp)
	.cfi_restore 23
	lw	s8,40(sp)
	.cfi_restore 24
	lw	s9,36(sp)
	.cfi_restore 25
.LVL616:
.LM2159:
	lw	s10,32(sp)
	.cfi_restore 26
.LVL617:
.LM2160:
	lw	s11,28(sp)
	.cfi_restore 27
	addi	sp,sp,80
	.cfi_def_cfa_offset 0
.LVL618:
.LM2161:
	jr	ra
	.cfi_endproc
.LFE56:
	.size	pqcrystals_kyber512_ref_ntt, .-pqcrystals_kyber512_ref_ntt
	.section	.text.pqcrystals_kyber512_ref_basemul,"ax",@progbits
	.align	1
	.globl	pqcrystals_kyber512_ref_basemul
	.type	pqcrystals_kyber512_ref_basemul, @function
pqcrystals_kyber512_ref_basemul:
.LVL619:
.LFB58:
.LM2162:
	.cfi_startproc
.LM2163:
.LBB98:
.LBI98:
.LM2164:
.LBB99:
.LM2165:
.LBE99:
.LBE98:
.LM2166:
	addi	sp,sp,-48
	.cfi_def_cfa_offset 48
.LBB104:
.LBB100:
.LM2167:
	lh	a5,2(a2)
.LBE100:
.LBE104:
.LM2168:
	sw	s0,40(sp)
.LVL620:
	.cfi_offset 8, -8
.LM2169:
	mv	s0,a0
.LBB105:
.LBB101:
.LM2170:
	lh	a0,2(a1)
.LVL621:
.LM2171:
.LBE101:
.LBE105:
.LM2172:
	sw	ra,44(sp)
	sw	s1,36(sp)
.LBB106:
.LBB102:
.LM2173:
	mul	a0,a0,a5
.LVL622:
.LM2174:
.LBE102:
.LBE106:
.LM2175:
	sw	s2,32(sp)
	sw	s3,28(sp)
	.cfi_offset 1, -4
	.cfi_offset 9, -12
	.cfi_offset 18, -16
	.cfi_offset 19, -20
.LM2176:
	mv	s2,a1
	mv	s3,a2
	sw	a3,12(sp)
.LBB107:
.LBB103:
.LM2177:
	call	pqcrystals_kyber512_ref_montgomery_reduce
.LVL623:
.LM2178:
.LBE103:
.LBE107:
.LM2179:
.LBB108:
.LBI108:
.LM2180:
.LBB109:
.LM2181:
.LM2182:
	lw	a3,12(sp)
	mul	a0,a0,a3
.LVL624:
.LM2183:
	call	pqcrystals_kyber512_ref_montgomery_reduce
.LVL625:
.LBE109:
.LBE108:
.LM2184:
	sh	a0,0(s0)
.LBB111:
.LBB112:
.LM2185:
	lh	a5,0(s3)
.LBE112:
.LBE111:
.LBB114:
.LBB110:
	mv	s1,a0
.LVL626:
.LM2186:
.LBE110:
.LBE114:
.LM2187:
.LBB115:
.LBI111:
.LM2188:
.LBB113:
.LM2189:
.LM2190:
	lh	a0,0(s2)
.LM2191:
	mul	a0,a0,a5
	call	pqcrystals_kyber512_ref_montgomery_reduce
.LVL627:
.LM2192:
.LBE113:
.LBE115:
.LM2193:
	add	s1,s1,a0
	sh	s1,0(s0)
.LM2194:
.LVL628:
.LBB116:
.LBI116:
.LM2195:
.LBB117:
.LM2196:
.LM2197:
	lh	a5,2(s3)
.LM2198:
	lh	a0,0(s2)
.LM2199:
	mul	a0,a0,a5
	call	pqcrystals_kyber512_ref_montgomery_reduce
.LVL629:
.LM2200:
.LBE117:
.LBE116:
.LM2201:
	sh	a0,2(s0)
.LBB119:
.LBB120:
.LM2202:
	lh	a5,2(s2)
.LBE120:
.LBE119:
.LBB122:
.LBB118:
.LM2203:
	mv	s1,a0
.LVL630:
.LM2204:
.LBE118:
.LBE122:
.LM2205:
.LBB123:
.LBI119:
.LM2206:
.LBB121:
.LM2207:
.LM2208:
	lh	a0,0(s3)
	mul	a0,a0,a5
	call	pqcrystals_kyber512_ref_montgomery_reduce
.LVL631:
.LM2209:
.LBE121:
.LBE123:
.LM2210:
	add	s1,s1,a0
	sh	s1,2(s0)
.LM2211:
	lw	ra,44(sp)
	.cfi_restore 1
	lw	s0,40(sp)
	.cfi_restore 8
.LVL632:
.LM2212:
	lw	s1,36(sp)
	.cfi_restore 9
	lw	s2,32(sp)
	.cfi_restore 18
.LVL633:
.LM2213:
	lw	s3,28(sp)
	.cfi_restore 19
.LVL634:
.LM2214:
	addi	sp,sp,48
	.cfi_def_cfa_offset 0
.LVL635:
.LM2215:
	jr	ra
	.cfi_endproc
.LFE58:
	.size	pqcrystals_kyber512_ref_basemul, .-pqcrystals_kyber512_ref_basemul
	.section	.text.pqcrystals_kyber512_ref_poly_basemul_montgomery,"ax",@progbits
	.align	1
	.globl	pqcrystals_kyber512_ref_poly_basemul_montgomery
	.type	pqcrystals_kyber512_ref_poly_basemul_montgomery, @function
pqcrystals_kyber512_ref_poly_basemul_montgomery:
.LVL636:
.LFB69:
.LM2216:
	.cfi_startproc
.LM2217:
.LM2218:
.LM2219:
.LM2220:
	addi	sp,sp,-48
	.cfi_def_cfa_offset 48
	sw	s3,28(sp)
	.cfi_offset 19, -20
	lui	s3,%hi(pqcrystals_kyber512_ref_zetas)
	sw	s0,40(sp)
	sw	s1,36(sp)
	sw	s2,32(sp)
	sw	s4,24(sp)
	sw	ra,44(sp)
	.cfi_offset 8, -8
	.cfi_offset 9, -12
	.cfi_offset 18, -16
	.cfi_offset 20, -24
	.cfi_offset 1, -4
	addi	s3,s3,%lo(pqcrystals_kyber512_ref_zetas)
	mv	s0,a0
	mv	s2,a1
	mv	s1,a2
	addi	s4,a0,512
.LVL637:
.L187:
.LM2221:
.LM2222:
	lh	a3,128(s3)
.LM2223:
	mv	a2,s1
	mv	a1,s2
	mv	a0,s0
	sw	a3,12(sp)
	call	pqcrystals_kyber512_ref_basemul
.LVL638:
.LM2224:
	lw	a3,12(sp)
	addi	a2,s1,4
	addi	a1,s2,4
	neg	a3,a3
	slli	a3,a3,16
	addi	a0,s0,4
	srai	a3,a3,16
.LM2225:
	addi	s0,s0,8
.LM2226:
	call	pqcrystals_kyber512_ref_basemul
.LVL639:
.LM2227:
.LM2228:
	addi	s3,s3,2
	addi	s2,s2,8
	addi	s1,s1,8
	bne	s0,s4,.L187
.LM2229:
	lw	ra,44(sp)
	.cfi_restore 1
	lw	s0,40(sp)
	.cfi_restore 8
	lw	s1,36(sp)
	.cfi_restore 9
	lw	s2,32(sp)
	.cfi_restore 18
	lw	s3,28(sp)
	.cfi_restore 19
	lw	s4,24(sp)
	.cfi_restore 20
.LVL640:
.LM2230:
	addi	sp,sp,48
	.cfi_def_cfa_offset 0
	jr	ra
	.cfi_endproc
.LFE69:
	.size	pqcrystals_kyber512_ref_poly_basemul_montgomery, .-pqcrystals_kyber512_ref_poly_basemul_montgomery
	.section	.text.pqcrystals_kyber512_ref_poly_tomont,"ax",@progbits
	.align	1
	.globl	pqcrystals_kyber512_ref_poly_tomont
	.type	pqcrystals_kyber512_ref_poly_tomont, @function
pqcrystals_kyber512_ref_poly_tomont:
.LVL641:
.LFB70:
.LM2231:
	.cfi_startproc
.LM2232:
.LM2233:
.LM2234:
.LM2235:
.LM2236:
	addi	sp,sp,-16
	.cfi_def_cfa_offset 16
	sw	s0,8(sp)
	sw	s1,4(sp)
	sw	s2,0(sp)
	sw	ra,12(sp)
	.cfi_offset 8, -8
	.cfi_offset 9, -12
	.cfi_offset 18, -16
	.cfi_offset 1, -4
.LM2237:
	mv	s0,a0
	addi	s1,a0,512
.LM2238:
	li	s2,1353
.LVL642:
.L191:
.LM2239:
.LM2240:
	lh	a0,0(s0)
.LM2241:
	addi	s0,s0,2
.LM2242:
	mul	a0,a0,s2
	call	pqcrystals_kyber512_ref_montgomery_reduce
.LVL643:
.LM2243:
	sh	a0,-2(s0)
.LM2244:
.LM2245:
	bne	s0,s1,.L191
.LM2246:
	lw	ra,12(sp)
	.cfi_restore 1
	lw	s0,8(sp)
	.cfi_restore 8
	lw	s1,4(sp)
	.cfi_restore 9
.LVL644:
.LM2247:
	lw	s2,0(sp)
	.cfi_restore 18
	addi	sp,sp,16
	.cfi_def_cfa_offset 0
	jr	ra
	.cfi_endproc
.LFE70:
	.size	pqcrystals_kyber512_ref_poly_tomont, .-pqcrystals_kyber512_ref_poly_tomont
	.section	.text.pqcrystals_kyber512_ref_barrett_reduce,"ax",@progbits
	.align	1
	.globl	pqcrystals_kyber512_ref_barrett_reduce
	.type	pqcrystals_kyber512_ref_barrett_reduce, @function
pqcrystals_kyber512_ref_barrett_reduce:
.LVL645:
.LFB84:
.LM2248:
	.cfi_startproc
.LM2249:
.LM2250:
.LM2251:
.LM2252:
.LM2253:
.LM2254:
	li	a5,20480
	addi	a5,a5,-321
	mul	a5,a0,a5
.LM2255:
	li	a4,33554432
	add	a5,a5,a4
.LM2256:
	li	a4,4096
	addi	a4,a4,-767
.LM2257:
	srai	a5,a5,26
.LM2258:
	mul	a5,a5,a4
.LM2259:
	sub	a0,a0,a5
.LVL646:
.LM2260:
	slli	a0,a0,16
	srai	a0,a0,16
	ret
	.cfi_endproc
.LFE84:
	.size	pqcrystals_kyber512_ref_barrett_reduce, .-pqcrystals_kyber512_ref_barrett_reduce
	.section	.text.pqcrystals_kyber512_ref_invntt,"ax",@progbits
	.align	1
	.globl	pqcrystals_kyber512_ref_invntt
	.type	pqcrystals_kyber512_ref_invntt, @function
pqcrystals_kyber512_ref_invntt:
.LVL647:
.LFB57:
.LM2261:
	.cfi_startproc
.LM2262:
.LM2263:
.LM2264:
.LM2265:
.LM2266:
.LM2267:
.LM2268:
	addi	sp,sp,-64
	.cfi_def_cfa_offset 64
	sw	s9,20(sp)
	.cfi_offset 25, -44
.LM2269:
	lui	s9,%hi(pqcrystals_kyber512_ref_zetas)
.LM2270:
	sw	s2,48(sp)
	sw	s5,36(sp)
	sw	s7,28(sp)
	sw	s8,24(sp)
	sw	ra,60(sp)
	sw	s0,56(sp)
	sw	s1,52(sp)
	sw	s3,44(sp)
	sw	s4,40(sp)
	sw	s6,32(sp)
	sw	s10,16(sp)
	sw	s11,12(sp)
	.cfi_offset 18, -16
	.cfi_offset 21, -28
	.cfi_offset 23, -36
	.cfi_offset 24, -40
	.cfi_offset 1, -4
	.cfi_offset 8, -8
	.cfi_offset 9, -12
	.cfi_offset 19, -20
	.cfi_offset 20, -24
	.cfi_offset 22, -32
	.cfi_offset 26, -48
	.cfi_offset 27, -52
.LM2271:
	mv	s2,a0
.LM2272:
	li	s7,7
.LM2273:
	li	s8,127
.LM2274:
	li	s5,2
.LM2275:
	addi	s9,s9,%lo(pqcrystals_kyber512_ref_zetas)
.LM2276:
	li	a4,255
.LVL648:
.L196:
.LM2277:
.LM2278:
	li	s0,0
.LVL649:
.L199:
.LM2279:
.LM2280:
	slli	a5,s8,1
	add	a5,a5,s9
	add	s10,s0,s5
	lh	s6,0(a5)
.LVL650:
.LM2281:
.LM2282:
	slli	s3,s0,1
	slli	s1,s10,1
.LM2283:
	addi	s8,s8,-1
.LVL651:
.LM2284:
	mv	s4,s2
	add	s3,s2,s3
	add	s1,s2,s1
.LVL652:
.L197:
.LM2285:
	bltu	s0,s10,.L198
.LM2286:
	add	s0,s5,s10
.LVL653:
.LM2287:
.LM2288:
	bleu	s0,a4,.L199
.LM2289:
.LM2290:
	addi	s7,s7,-1
.LM2291:
	slli	s5,s5,1
.LVL654:
.LM2292:
	bne	s7,zero,.L196
	addi	s2,s2,512
.LVL655:
.LBB124:
.LBB125:
.LM2293:
	li	s0,1441
.LVL656:
.L201:
.LM2294:
.LBE125:
.LBE124:
.LM2295:
.LBB128:
.LBI124:
.LM2296:
.LBB126:
.LM2297:
.LM2298:
	lh	a0,0(s4)
.LBE126:
.LBE128:
.LM2299:
	addi	s4,s4,2
.LVL657:
.LBB129:
.LBB127:
.LM2300:
	mul	a0,a0,s0
	call	pqcrystals_kyber512_ref_montgomery_reduce
.LVL658:
.LM2301:
.LBE127:
.LBE129:
.LM2302:
	sh	a0,-2(s4)
.LM2303:
.LM2304:
	bne	s4,s2,.L201
.LM2305:
	lw	ra,60(sp)
	.cfi_remember_state
	.cfi_restore 1
	lw	s0,56(sp)
	.cfi_restore 8
	lw	s1,52(sp)
	.cfi_restore 9
	lw	s2,48(sp)
	.cfi_restore 18
.LVL659:
.LM2306:
	lw	s3,44(sp)
	.cfi_restore 19
	lw	s4,40(sp)
	.cfi_restore 20
	lw	s5,36(sp)
	.cfi_restore 21
.LVL660:
.LM2307:
	lw	s6,32(sp)
	.cfi_restore 22
.LVL661:
.LM2308:
	lw	s7,28(sp)
	.cfi_restore 23
	lw	s8,24(sp)
	.cfi_restore 24
.LVL662:
.LM2309:
	lw	s9,20(sp)
	.cfi_restore 25
	lw	s10,16(sp)
	.cfi_restore 26
	lw	s11,12(sp)
	.cfi_restore 27
	addi	sp,sp,64
	.cfi_def_cfa_offset 0
	jr	ra
.LVL663:
.L198:
	.cfi_restore_state
.LM2310:
.LM2311:
.LM2312:
	lhu	s11,0(s3)
	lhu	a0,0(s1)
.LM2313:
	addi	s0,s0,1
.LVL664:
.LM2314:
	addi	s3,s3,2
.LVL665:
.LM2315:
	add	a0,s11,a0
.LM2316:
	slli	a0,a0,16
	srai	a0,a0,16
	call	pqcrystals_kyber512_ref_barrett_reduce
.LVL666:
.LM2317:
	sh	a0,-2(s3)
.LM2318:
.LM2319:
.LVL667:
.LBB130:
.LBI130:
.LM2320:
.LBB131:
.LM2321:
.LBE131:
.LBE130:
.LM2322:
	lhu	a0,0(s1)
	addi	s1,s1,2
.LVL668:
.LM2323:
	sub	a0,a0,s11
.LBB133:
.LBB132:
.LM2324:
	slli	a0,a0,16
	srai	a0,a0,16
	mul	a0,a0,s6
	call	pqcrystals_kyber512_ref_montgomery_reduce
.LVL669:
.LM2325:
.LBE132:
.LBE133:
.LM2326:
	sh	a0,-2(s1)
.LM2327:
.LVL670:
.LM2328:
	li	a4,255
	j	.L197
	.cfi_endproc
.LFE57:
	.size	pqcrystals_kyber512_ref_invntt, .-pqcrystals_kyber512_ref_invntt
	.section	.text.pqcrystals_kyber512_ref_poly_invntt_tomont,"ax",@progbits
	.align	1
	.globl	pqcrystals_kyber512_ref_poly_invntt_tomont
	.type	pqcrystals_kyber512_ref_poly_invntt_tomont, @function
pqcrystals_kyber512_ref_poly_invntt_tomont:
.LVL671:
.LFB68:
.LM2329:
	.cfi_startproc
.LM2330:
	tail	pqcrystals_kyber512_ref_invntt
.LVL672:
.LM2331:
	.cfi_endproc
.LFE68:
	.size	pqcrystals_kyber512_ref_poly_invntt_tomont, .-pqcrystals_kyber512_ref_poly_invntt_tomont
	.section	.text.pqcrystals_kyber512_ref_polyvec_invntt_tomont,"ax",@progbits
	.align	1
	.globl	pqcrystals_kyber512_ref_polyvec_invntt_tomont
	.type	pqcrystals_kyber512_ref_polyvec_invntt_tomont, @function
pqcrystals_kyber512_ref_polyvec_invntt_tomont:
.LVL673:
.LFB79:
.LM2332:
	.cfi_startproc
.LM2333:
.LM2334:
.LM2335:
.LM2336:
.LM2337:
	addi	sp,sp,-32
	.cfi_def_cfa_offset 32
.LVL674:
.LBB134:
.LBI134:
.LM2338:
.LBB135:
.LM2339:
.LBE135:
.LBE134:
.LM2340:
	sw	ra,28(sp)
	.cfi_offset 1, -4
.LM2341:
	sw	a0,12(sp)
.LVL675:
.LBB140:
.LBB136:
.LM2342:
	call	pqcrystals_kyber512_ref_invntt
.LVL676:
.LM2343:
.LBE136:
.LBE140:
.LM2344:
.LM2345:
.LM2346:
.LBB141:
.LM2347:
.LBB137:
.LM2348:
	lw	a0,12(sp)
.LBE137:
.LBE141:
.LM2349:
	lw	ra,28(sp)
	.cfi_restore 1
.LBB142:
.LBB138:
.LM2350:
	addi	a0,a0,512
.LVL677:
.LM2351:
.LBE138:
.LBE142:
.LM2352:
	addi	sp,sp,32
	.cfi_def_cfa_offset 0
.LVL678:
.LBB143:
.LBB139:
.LM2353:
	tail	pqcrystals_kyber512_ref_invntt
.LVL679:
.LM2354:
.LBE139:
.LBE143:
	.cfi_endproc
.LFE79:
	.size	pqcrystals_kyber512_ref_polyvec_invntt_tomont, .-pqcrystals_kyber512_ref_polyvec_invntt_tomont
	.section	.text.pqcrystals_kyber512_ref_poly_reduce,"ax",@progbits
	.align	1
	.globl	pqcrystals_kyber512_ref_poly_reduce
	.type	pqcrystals_kyber512_ref_poly_reduce, @function
pqcrystals_kyber512_ref_poly_reduce:
.LVL680:
.LFB71:
.LM2355:
	.cfi_startproc
.LM2356:
.LM2357:
.LM2358:
.LM2359:
	addi	sp,sp,-16
	.cfi_def_cfa_offset 16
	sw	s0,8(sp)
	sw	s1,4(sp)
	sw	ra,12(sp)
	.cfi_offset 8, -8
	.cfi_offset 9, -12
	.cfi_offset 1, -4
.LM2360:
	mv	s0,a0
	addi	s1,a0,512
.LVL681:
.L209:
.LM2361:
.LM2362:
	lh	a0,0(s0)
.LM2363:
	addi	s0,s0,2
.LM2364:
	call	pqcrystals_kyber512_ref_barrett_reduce
.LVL682:
.LM2365:
	sh	a0,-2(s0)
.LM2366:
.LM2367:
	bne	s0,s1,.L209
.LM2368:
	lw	ra,12(sp)
	.cfi_restore 1
	lw	s0,8(sp)
	.cfi_restore 8
	lw	s1,4(sp)
	.cfi_restore 9
.LVL683:
.LM2369:
	addi	sp,sp,16
	.cfi_def_cfa_offset 0
	jr	ra
	.cfi_endproc
.LFE71:
	.size	pqcrystals_kyber512_ref_poly_reduce, .-pqcrystals_kyber512_ref_poly_reduce
	.section	.text.pqcrystals_kyber512_ref_poly_ntt,"ax",@progbits
	.align	1
	.globl	pqcrystals_kyber512_ref_poly_ntt
	.type	pqcrystals_kyber512_ref_poly_ntt, @function
pqcrystals_kyber512_ref_poly_ntt:
.LVL684:
.LFB67:
.LM2370:
	.cfi_startproc
.LM2371:
.LM2372:
	addi	sp,sp,-32
	.cfi_def_cfa_offset 32
	sw	ra,28(sp)
	.cfi_offset 1, -4
.LM2373:
	sw	a0,12(sp)
.LM2374:
	call	pqcrystals_kyber512_ref_ntt
.LVL685:
.LM2375:
	lw	a0,12(sp)
.LM2376:
	lw	ra,28(sp)
	.cfi_restore 1
	addi	sp,sp,32
	.cfi_def_cfa_offset 0
.LVL686:
.LM2377:
	tail	pqcrystals_kyber512_ref_poly_reduce
.LVL687:
	.cfi_endproc
.LFE67:
	.size	pqcrystals_kyber512_ref_poly_ntt, .-pqcrystals_kyber512_ref_poly_ntt
	.section	.text.pqcrystals_kyber512_ref_polyvec_ntt,"ax",@progbits
	.align	1
	.globl	pqcrystals_kyber512_ref_polyvec_ntt
	.type	pqcrystals_kyber512_ref_polyvec_ntt, @function
pqcrystals_kyber512_ref_polyvec_ntt:
.LVL688:
.LFB78:
.LM2378:
	.cfi_startproc
.LM2379:
.LM2380:
.LM2381:
.LM2382:
.LM2383:
	addi	sp,sp,-32
	.cfi_def_cfa_offset 32
	sw	ra,28(sp)
	.cfi_offset 1, -4
.LM2384:
	sw	a0,12(sp)
.LM2385:
	call	pqcrystals_kyber512_ref_poly_ntt
.LVL689:
.LM2386:
.LM2387:
.LM2388:
	lw	a0,12(sp)
.LM2389:
	lw	ra,28(sp)
	.cfi_restore 1
.LM2390:
	addi	a0,a0,512
.LM2391:
	addi	sp,sp,32
	.cfi_def_cfa_offset 0
.LVL690:
.LM2392:
	tail	pqcrystals_kyber512_ref_poly_ntt
.LVL691:
	.cfi_endproc
.LFE78:
	.size	pqcrystals_kyber512_ref_polyvec_ntt, .-pqcrystals_kyber512_ref_polyvec_ntt
	.section	.text.pqcrystals_kyber512_ref_polyvec_basemul_acc_montgomery,"ax",@progbits
	.align	1
	.globl	pqcrystals_kyber512_ref_polyvec_basemul_acc_montgomery
	.type	pqcrystals_kyber512_ref_polyvec_basemul_acc_montgomery, @function
pqcrystals_kyber512_ref_polyvec_basemul_acc_montgomery:
.LVL692:
.LFB80:
.LM2393:
	.cfi_startproc
.LM2394:
.LM2395:
.LM2396:
.LM2397:
	addi	sp,sp,-544
	.cfi_def_cfa_offset 544
	sw	ra,540(sp)
	sw	s0,536(sp)
	.cfi_offset 1, -4
	.cfi_offset 8, -8
.LM2398:
	sw	a1,12(sp)
	mv	s0,a0
	sw	a2,8(sp)
.LM2399:
	call	pqcrystals_kyber512_ref_poly_basemul_montgomery
.LVL693:
.LM2400:
.LM2401:
.LM2402:
	lw	a2,8(sp)
	lw	a1,12(sp)
	addi	a0,sp,16
	addi	a2,a2,512
	addi	a1,a1,512
	call	pqcrystals_kyber512_ref_poly_basemul_montgomery
.LVL694:
.LM2403:
	mv	a0,s0
	addi	a2,sp,16
	mv	a1,s0
	call	pqcrystals_kyber512_ref_poly_add
.LVL695:
.LM2404:
.LM2405:
.LM2406:
	mv	a0,s0
.LM2407:
	lw	s0,536(sp)
	.cfi_restore 8
.LVL696:
.LM2408:
	lw	ra,540(sp)
	.cfi_restore 1
	addi	sp,sp,544
	.cfi_def_cfa_offset 0
.LVL697:
.LM2409:
	tail	pqcrystals_kyber512_ref_poly_reduce
.LVL698:
.LM2410:
	.cfi_endproc
.LFE80:
	.size	pqcrystals_kyber512_ref_polyvec_basemul_acc_montgomery, .-pqcrystals_kyber512_ref_polyvec_basemul_acc_montgomery
	.section	.text.pqcrystals_kyber512_ref_indcpa_dec,"ax",@progbits
	.align	1
	.globl	pqcrystals_kyber512_ref_indcpa_dec
	.type	pqcrystals_kyber512_ref_indcpa_dec, @function
pqcrystals_kyber512_ref_indcpa_dec:
.LVL699:
.LFB49:
.LM2411:
	.cfi_startproc
.LM2412:
.LM2413:
.LM2414:
.LM2415:
	addi	sp,sp,-2032
	.cfi_def_cfa_offset 2032
	sw	ra,2028(sp)
	sw	s0,2024(sp)
	sw	s2,2016(sp)
	sw	s1,2020(sp)
	addi	sp,sp,-1072
	.cfi_def_cfa_offset 3104
	.cfi_offset 1, -4
	.cfi_offset 8, -8
	.cfi_offset 18, -16
	.cfi_offset 9, -12
.LVL700:
.LM2416:
	mv	s2,a0
.LBB150:
.LBB151:
.LM2417:
	addi	a0,sp,1040
.LVL701:
.LM2418:
.LBE151:
.LBE150:
.LM2419:
	sw	a2,12(sp)
	mv	s0,a1
.LVL702:
.LBB153:
.LBI150:
.LM2420:
.LBB152:
.LM2421:
	call	pqcrystals_kyber512_ref_polyvec_decompress
.LVL703:
.LM2422:
	addi	a1,s0,640
	addi	a0,sp,16
.LVL704:
.LM2423:
	call	pqcrystals_kyber512_ref_poly_decompress
.LVL705:
.LM2424:
.LBE152:
.LBE153:
.LM2425:
.LBB154:
.LBI154:
.LM2426:
.LBB155:
.LM2427:
	lw	a1,12(sp)
	addi	a0,sp,2047
	addi	a0,a0,17
	call	pqcrystals_kyber512_ref_polyvec_frombytes
.LVL706:
.LM2428:
.LBE155:
.LBE154:
.LM2429:
	addi	a0,sp,1040
	call	pqcrystals_kyber512_ref_polyvec_ntt
.LVL707:
.LM2430:
	addi	s0,sp,528
.LVL708:
.LM2431:
	addi	a1,sp,2047
	addi	a2,sp,1040
	addi	a1,a1,17
	mv	a0,s0
	call	pqcrystals_kyber512_ref_polyvec_basemul_acc_montgomery
.LVL709:
.LM2432:
.LBB156:
.LBI156:
.LM2433:
.LBB157:
.LM2434:
	mv	a0,s0
	call	pqcrystals_kyber512_ref_invntt
.LVL710:
.LM2435:
.LBE157:
.LBE156:
.LM2436:
	mv	a2,s0
	addi	a1,sp,16
	mv	a0,s0
	call	pqcrystals_kyber512_ref_poly_sub
.LVL711:
.LM2437:
	mv	a0,s0
	call	pqcrystals_kyber512_ref_poly_reduce
.LVL712:
.LM2438:
	mv	a1,s0
	mv	a0,s2
	call	pqcrystals_kyber512_ref_poly_tomsg
.LVL713:
.LM2439:
	addi	sp,sp,1072
	.cfi_def_cfa_offset 2032
	lw	ra,2028(sp)
	.cfi_restore 1
	lw	s0,2024(sp)
	.cfi_restore 8
	lw	s1,2020(sp)
	.cfi_restore 9
	lw	s2,2016(sp)
	.cfi_restore 18
.LVL714:
.LM2440:
	addi	sp,sp,2032
	.cfi_def_cfa_offset 0
.LVL715:
.LM2441:
	jr	ra
	.cfi_endproc
.LFE49:
	.size	pqcrystals_kyber512_ref_indcpa_dec, .-pqcrystals_kyber512_ref_indcpa_dec
	.section	.text.pqcrystals_kyber512_ref_polyvec_reduce,"ax",@progbits
	.align	1
	.globl	pqcrystals_kyber512_ref_polyvec_reduce
	.type	pqcrystals_kyber512_ref_polyvec_reduce, @function
pqcrystals_kyber512_ref_polyvec_reduce:
.LVL716:
.LFB81:
.LM2442:
	.cfi_startproc
.LM2443:
.LM2444:
.LM2445:
.LM2446:
.LM2447:
	addi	sp,sp,-32
	.cfi_def_cfa_offset 32
	sw	ra,28(sp)
	.cfi_offset 1, -4
.LM2448:
	sw	a0,12(sp)
.LM2449:
	call	pqcrystals_kyber512_ref_poly_reduce
.LVL717:
.LM2450:
.LM2451:
.LM2452:
	lw	a0,12(sp)
.LM2453:
	lw	ra,28(sp)
	.cfi_restore 1
.LM2454:
	addi	a0,a0,512
.LM2455:
	addi	sp,sp,32
	.cfi_def_cfa_offset 0
.LVL718:
.LM2456:
	tail	pqcrystals_kyber512_ref_poly_reduce
.LVL719:
	.cfi_endproc
.LFE81:
	.size	pqcrystals_kyber512_ref_polyvec_reduce, .-pqcrystals_kyber512_ref_polyvec_reduce
	.section	.text.pqcrystals_kyber512_ref_kyber_shake128_absorb,"ax",@progbits
	.align	1
	.globl	pqcrystals_kyber512_ref_kyber_shake128_absorb
	.type	pqcrystals_kyber512_ref_kyber_shake128_absorb, @function
pqcrystals_kyber512_ref_kyber_shake128_absorb:
.LVL720:
.LFB85:
.LM2457:
	.cfi_startproc
.LM2458:
.LM2459:
.LM2460:
	addi	sp,sp,-80
	.cfi_def_cfa_offset 80
	sw	s0,72(sp)
	sw	s1,68(sp)
	.cfi_offset 8, -8
	.cfi_offset 9, -12
	mv	s0,a0
	mv	s1,a2
.LM2461:
	addi	a0,sp,28
.LVL721:
.LM2462:
	li	a2,32
.LVL722:
.LM2463:
	sw	ra,76(sp)
	.cfi_offset 1, -4
.LM2464:
	sw	a3,12(sp)
.LM2465:
	call	memcpy
.LVL723:
.LM2466:
.LM2467:
	lw	a3,12(sp)
.LM2468:
	addi	a1,sp,28
	mv	a0,s0
	li	a2,34
.LM2469:
	sb	s1,60(sp)
.LM2470:
.LM2471:
	sb	a3,61(sp)
.LM2472:
	call	pqcrystals_kyber_fips202_ref_shake128_absorb_once
.LVL724:
.LM2473:
	lw	ra,76(sp)
	.cfi_restore 1
	lw	s0,72(sp)
	.cfi_restore 8
.LVL725:
.LM2474:
	lw	s1,68(sp)
	.cfi_restore 9
.LVL726:
.LM2475:
	addi	sp,sp,80
	.cfi_def_cfa_offset 0
.LVL727:
.LM2476:
	jr	ra
	.cfi_endproc
.LFE85:
	.size	pqcrystals_kyber512_ref_kyber_shake128_absorb, .-pqcrystals_kyber512_ref_kyber_shake128_absorb
	.section	.text.pqcrystals_kyber512_ref_gen_matrix,"ax",@progbits
	.align	1
	.globl	pqcrystals_kyber512_ref_gen_matrix
	.type	pqcrystals_kyber512_ref_gen_matrix, @function
pqcrystals_kyber512_ref_gen_matrix:
.LVL728:
.LFB46:
.LM2477:
	.cfi_startproc
.LM2478:
.LM2479:
.LM2480:
.LM2481:
.LM2482:
.LM2483:
.LM2484:
	addi	sp,sp,-768
	.cfi_def_cfa_offset 768
	sw	s2,752(sp)
	sw	s5,740(sp)
	sw	s8,728(sp)
	sw	s9,724(sp)
	sw	s10,720(sp)
	sw	ra,764(sp)
	sw	s0,760(sp)
	sw	s1,756(sp)
	sw	s3,748(sp)
	sw	s4,744(sp)
	sw	s6,736(sp)
	sw	s7,732(sp)
	.cfi_offset 18, -16
	.cfi_offset 21, -28
	.cfi_offset 24, -40
	.cfi_offset 25, -44
	.cfi_offset 26, -48
	.cfi_offset 1, -4
	.cfi_offset 8, -8
	.cfi_offset 9, -12
	.cfi_offset 19, -20
	.cfi_offset 20, -24
	.cfi_offset 22, -32
	.cfi_offset 23, -36
.LM2485:
	mv	s9,a0
	mv	s8,a1
	mv	s10,a2
.LM2486:
	li	s2,0
.LM2487:
	li	s5,256
.LVL729:
.L225:
.LM2488:
	slli	s4,s2,10
	add	s4,s9,s4
.LM2489:
	li	s1,0
	andi	s7,s2,0xff
.LVL730:
.L230:
.LM2490:
	andi	a2,s1,0xff
.LM2491:
	mv	a3,s7
.LM2492:
	beq	s10,zero,.L234
.LM2493:
	mv	a3,a2
	mv	a2,s7
.L234:
.LM2494:
	mv	a1,s8
	addi	a0,sp,8
	call	pqcrystals_kyber512_ref_kyber_shake128_absorb
.LVL731:
.LM2495:
	addi	a2,sp,8
	li	a1,3
	addi	a0,sp,216
.LM2496:
	slli	s3,s1,9
.LM2497:
	call	pqcrystals_kyber_fips202_ref_shake128_squeezeblocks
.LVL732:
.LM2498:
.LM2499:
.LM2500:
	add	s3,s3,s4
.LM2501:
	li	a3,504
	addi	a2,sp,216
	li	a1,256
	mv	a0,s3
	call	rej_uniform
.LVL733:
	mv	s0,a0
.LVL734:
.LM2502:
.LM2503:
	li	s6,255
.LVL735:
.L228:
.LM2504:
	bleu	s0,s6,.L229
.LM2505:
	addi	a5,s1,1
.LVL736:
.LM2506:
	li	a4,2
	li	s1,1
	bne	a5,a4,.L230
.LM2507:
	add	a4,s2,s1
.LVL737:
.LM2508:
	mv	s2,s1
	bne	a4,a5,.L225
.LM2509:
	lw	ra,764(sp)
	.cfi_remember_state
	.cfi_restore 1
	lw	s0,760(sp)
	.cfi_restore 8
.LVL738:
.LM2510:
	lw	s1,756(sp)
	.cfi_restore 9
	lw	s2,752(sp)
	.cfi_restore 18
	lw	s3,748(sp)
	.cfi_restore 19
	lw	s4,744(sp)
	.cfi_restore 20
	lw	s5,740(sp)
	.cfi_restore 21
	lw	s6,736(sp)
	.cfi_restore 22
	lw	s7,732(sp)
	.cfi_restore 23
	lw	s8,728(sp)
	.cfi_restore 24
.LVL739:
.LM2511:
	lw	s9,724(sp)
	.cfi_restore 25
.LVL740:
.LM2512:
	lw	s10,720(sp)
	.cfi_restore 26
.LVL741:
.LM2513:
	addi	sp,sp,768
	.cfi_def_cfa_offset 0
	jr	ra
.LVL742:
.L229:
	.cfi_restore_state
.LM2514:
	addi	a2,sp,8
	li	a1,1
	addi	a0,sp,216
	call	pqcrystals_kyber_fips202_ref_shake128_squeezeblocks
.LVL743:
.LM2515:
.LM2516:
.LM2517:
	slli	a0,s0,1
.LM2518:
	sub	a1,s5,s0
	li	a3,168
	addi	a2,sp,216
	add	a0,s3,a0
	call	rej_uniform
.LVL744:
.LM2519:
	add	s0,s0,a0
.LVL745:
.LM2520:
	j	.L228
	.cfi_endproc
.LFE46:
	.size	pqcrystals_kyber512_ref_gen_matrix, .-pqcrystals_kyber512_ref_gen_matrix
	.section	.text.pqcrystals_kyber512_ref_kyber_shake256_prf,"ax",@progbits
	.align	1
	.globl	pqcrystals_kyber512_ref_kyber_shake256_prf
	.type	pqcrystals_kyber512_ref_kyber_shake256_prf, @function
pqcrystals_kyber512_ref_kyber_shake256_prf:
.LVL746:
.LFB86:
.LM2521:
	.cfi_startproc
.LM2522:
.LM2523:
.LM2524:
	addi	sp,sp,-80
	.cfi_def_cfa_offset 80
	sw	s0,72(sp)
	sw	s1,68(sp)
	.cfi_offset 8, -8
	.cfi_offset 9, -12
	mv	s0,a0
	mv	s1,a1
.LM2525:
	addi	a0,sp,28
.LVL747:
.LM2526:
	mv	a1,a2
.LVL748:
.LM2527:
	li	a2,32
.LVL749:
.LM2528:
	sw	ra,76(sp)
	.cfi_offset 1, -4
.LM2529:
	sw	a3,12(sp)
.LM2530:
	call	memcpy
.LVL750:
.LM2531:
.LM2532:
	lw	a3,12(sp)
.LM2533:
	addi	a2,sp,28
	mv	a1,s1
.LM2534:
	sb	a3,60(sp)
.LM2535:
	mv	a0,s0
	li	a3,33
	call	pqcrystals_kyber_fips202_ref_shake256
.LVL751:
.LM2536:
	lw	ra,76(sp)
	.cfi_restore 1
	lw	s0,72(sp)
	.cfi_restore 8
.LVL752:
.LM2537:
	lw	s1,68(sp)
	.cfi_restore 9
.LVL753:
.LM2538:
	addi	sp,sp,80
	.cfi_def_cfa_offset 0
.LVL754:
.LM2539:
	jr	ra
	.cfi_endproc
.LFE86:
	.size	pqcrystals_kyber512_ref_kyber_shake256_prf, .-pqcrystals_kyber512_ref_kyber_shake256_prf
	.section	.text.pqcrystals_kyber512_ref_poly_getnoise_eta1,"ax",@progbits
	.align	1
	.globl	pqcrystals_kyber512_ref_poly_getnoise_eta1
	.type	pqcrystals_kyber512_ref_poly_getnoise_eta1, @function
pqcrystals_kyber512_ref_poly_getnoise_eta1:
.LVL755:
.LFB65:
.LM2540:
	.cfi_startproc
.LM2541:
.LM2542:
.LM2543:
	addi	sp,sp,-208
	.cfi_def_cfa_offset 208
	sw	s0,200(sp)
	mv	a3,a2
	.cfi_offset 8, -8
	mv	s0,a0
.LM2544:
	mv	a2,a1
.LVL756:
.LM2545:
	mv	a0,sp
.LVL757:
.LM2546:
	li	a1,192
.LVL758:
.LM2547:
	sw	ra,204(sp)
	.cfi_offset 1, -4
.LM2548:
	call	pqcrystals_kyber512_ref_kyber_shake256_prf
.LVL759:
.LM2549:
.LBB158:
.LBI158:
.LM2550:
.LBB159:
.LM2551:
	mv	a1,sp
	mv	a0,s0
	call	cbd3
.LVL760:
.LM2552:
.LBE159:
.LBE158:
.LM2553:
	lw	ra,204(sp)
	.cfi_restore 1
	lw	s0,200(sp)
	.cfi_restore 8
.LVL761:
.LM2554:
	addi	sp,sp,208
	.cfi_def_cfa_offset 0
	jr	ra
	.cfi_endproc
.LFE65:
	.size	pqcrystals_kyber512_ref_poly_getnoise_eta1, .-pqcrystals_kyber512_ref_poly_getnoise_eta1
	.section	.text.pqcrystals_kyber512_ref_indcpa_keypair_derand,"ax",@progbits
	.align	1
	.globl	pqcrystals_kyber512_ref_indcpa_keypair_derand
	.type	pqcrystals_kyber512_ref_indcpa_keypair_derand, @function
pqcrystals_kyber512_ref_indcpa_keypair_derand:
.LVL762:
.LFB47:
.LM2555:
	.cfi_startproc
.LM2556:
.LM2557:
.LM2558:
.LM2559:
	addi	sp,sp,-1136
	.cfi_def_cfa_offset 1136
	sw	ra,1132(sp)
	sw	s0,1128(sp)
	sw	s2,1120(sp)
	sw	s4,1112(sp)
	sw	s5,1108(sp)
	sw	s6,1104(sp)
	sw	s1,1124(sp)
	sw	s3,1116(sp)
	addi	sp,sp,-2048
	.cfi_def_cfa_offset 3184
	.cfi_offset 1, -4
	.cfi_offset 8, -8
	.cfi_offset 18, -16
	.cfi_offset 20, -24
	.cfi_offset 21, -28
	.cfi_offset 22, -32
	.cfi_offset 9, -12
	.cfi_offset 19, -20
	addi	sp,sp,-2048
	.cfi_def_cfa_offset 5232
.LVL763:
.LM2560:
.LM2561:
.LM2562:
.LM2563:
	addi	s0,sp,16
.LVL764:
.LM2564:
	mv	s5,a0
	mv	s6,a1
.LM2565:
	mv	a0,s0
.LVL765:
.LM2566:
	mv	a1,a2
.LVL766:
.LM2567:
	li	a2,32
.LVL767:
.LM2568:
	call	memcpy
.LVL768:
.LM2569:
.LM2570:
	li	s4,2
.LM2571:
	mv	a1,s0
	mv	a0,s0
	li	a2,33
.LM2572:
	sb	s4,48(sp)
.LM2573:
	call	pqcrystals_kyber_fips202_ref_sha3_512
.LVL769:
.LM2574:
	addi	a0,sp,2047
	mv	a1,s0
	li	a2,0
	addi	a0,a0,1105
.LM2575:
	addi	s2,sp,2047
.LM2576:
	call	pqcrystals_kyber512_ref_gen_matrix
.LVL770:
.LM2577:
.LM2578:
.LM2579:
.LM2580:
	addi	s2,s2,81
	addi	a1,sp,48
.LVL771:
.LM2581:
	mv	a0,s2
	li	a2,0
	sw	a1,12(sp)
	call	pqcrystals_kyber512_ref_poly_getnoise_eta1
.LVL772:
.LM2582:
.LM2583:
.LM2584:
.LM2585:
	lw	a1,12(sp)
	addi	a0,s2,512
	li	a2,1
	call	pqcrystals_kyber512_ref_poly_getnoise_eta1
.LVL773:
.LM2586:
.LM2587:
.LM2588:
.LM2589:
.LM2590:
	lw	a1,12(sp)
	mv	a2,s4
	addi	a0,sp,80
	call	pqcrystals_kyber512_ref_poly_getnoise_eta1
.LVL774:
.LM2591:
.LM2592:
.LM2593:
.LM2594:
	lw	a1,12(sp)
	li	a2,3
	addi	a0,sp,592
	call	pqcrystals_kyber512_ref_poly_getnoise_eta1
.LVL775:
.LM2595:
.LM2596:
.LM2597:
	mv	a0,s2
	call	pqcrystals_kyber512_ref_polyvec_ntt
.LVL776:
.LM2598:
	addi	a0,sp,80
	call	pqcrystals_kyber512_ref_polyvec_ntt
.LVL777:
.LM2599:
.LM2600:
.LM2601:
	addi	a1,sp,2047
	mv	a2,s2
	addi	a1,a1,1105
	addi	a0,sp,1104
	call	pqcrystals_kyber512_ref_polyvec_basemul_acc_montgomery
.LVL778:
.LM2602:
	addi	a0,sp,1104
	call	pqcrystals_kyber512_ref_poly_tomont
.LVL779:
.LM2603:
.LM2604:
.LM2605:
	li	a5,4096
	addi	a5,a5,80
	add	a1,a5,sp
	addi	a0,sp,1616
	mv	a2,s2
	sw	a0,12(sp)
.LVL780:
.LM2606:
	call	pqcrystals_kyber512_ref_polyvec_basemul_acc_montgomery
.LVL781:
.LM2607:
	lw	a0,12(sp)
	call	pqcrystals_kyber512_ref_poly_tomont
.LVL782:
.LM2608:
.LM2609:
.LM2610:
	addi	a2,sp,80
	addi	a1,sp,1104
	addi	a0,sp,1104
	call	pqcrystals_kyber512_ref_polyvec_add
.LVL783:
.LM2611:
	addi	a0,sp,1104
	call	pqcrystals_kyber512_ref_polyvec_reduce
.LVL784:
.LM2612:
.LBB164:
.LBI164:
.LM2613:
.LBB165:
.LM2614:
	mv	a1,s2
	mv	a0,s6
	call	pqcrystals_kyber512_ref_polyvec_tobytes
.LVL785:
.LM2615:
.LBE165:
.LBE164:
.LM2616:
.LBB166:
.LBI166:
.LM2617:
.LBB167:
.LM2618:
	addi	a1,sp,1104
.LVL786:
.LM2619:
	mv	a0,s5
	call	pqcrystals_kyber512_ref_polyvec_tobytes
.LVL787:
.LM2620:
	mv	a1,s0
	addi	a0,s5,768
	li	a2,32
	call	memcpy
.LVL788:
.LM2621:
.LBE167:
.LBE166:
.LM2622:
	li	t0,4096
	add	sp,sp,t0
	.cfi_def_cfa_offset 1136
	lw	ra,1132(sp)
	.cfi_restore 1
	lw	s0,1128(sp)
	.cfi_restore 8
.LVL789:
.LM2623:
	lw	s1,1124(sp)
	.cfi_restore 9
	lw	s2,1120(sp)
	.cfi_restore 18
	lw	s3,1116(sp)
	.cfi_restore 19
	lw	s4,1112(sp)
	.cfi_restore 20
	lw	s5,1108(sp)
	.cfi_restore 21
.LVL790:
.LM2624:
	lw	s6,1104(sp)
	.cfi_restore 22
.LVL791:
.LM2625:
	addi	sp,sp,1136
	.cfi_def_cfa_offset 0
	jr	ra
	.cfi_endproc
.LFE47:
	.size	pqcrystals_kyber512_ref_indcpa_keypair_derand, .-pqcrystals_kyber512_ref_indcpa_keypair_derand
	.section	.text.pqcrystals_kyber512_ref_keypair_derand,"ax",@progbits
	.align	1
	.globl	pqcrystals_kyber512_ref_keypair_derand
	.type	pqcrystals_kyber512_ref_keypair_derand, @function
pqcrystals_kyber512_ref_keypair_derand:
.LVL792:
.LFB50:
.LM2626:
	.cfi_startproc
.LM2627:
.LM2628:
	addi	sp,sp,-16
	.cfi_def_cfa_offset 16
	sw	ra,12(sp)
	sw	s0,8(sp)
	sw	s1,4(sp)
	sw	s2,0(sp)
	.cfi_offset 1, -4
	.cfi_offset 8, -8
	.cfi_offset 9, -12
	.cfi_offset 18, -16
.LM2629:
	mv	s0,a1
	mv	s1,a0
	mv	s2,a2
.LM2630:
	call	pqcrystals_kyber512_ref_indcpa_keypair_derand
.LVL793:
.LM2631:
	mv	a1,s1
	li	a2,800
	addi	a0,s0,768
	call	memcpy
.LVL794:
.LM2632:
	mv	a1,s1
	addi	a0,s0,1568
	li	a2,800
	call	pqcrystals_kyber_fips202_ref_sha3_256
.LVL795:
.LM2633:
	li	a2,32
	add	a1,s2,a2
	addi	a0,s0,1600
	call	memcpy
.LVL796:
.LM2634:
.LM2635:
	lw	ra,12(sp)
	.cfi_restore 1
	lw	s0,8(sp)
	.cfi_restore 8
.LVL797:
.LM2636:
	lw	s1,4(sp)
	.cfi_restore 9
.LVL798:
.LM2637:
	lw	s2,0(sp)
	.cfi_restore 18
.LVL799:
.LM2638:
	li	a0,0
	addi	sp,sp,16
	.cfi_def_cfa_offset 0
	jr	ra
	.cfi_endproc
.LFE50:
	.size	pqcrystals_kyber512_ref_keypair_derand, .-pqcrystals_kyber512_ref_keypair_derand
	.section	.text.pqcrystals_kyber512_ref_keypair,"ax",@progbits
	.align	1
	.globl	pqcrystals_kyber512_ref_keypair
	.type	pqcrystals_kyber512_ref_keypair, @function
pqcrystals_kyber512_ref_keypair:
.LVL800:
.LFB51:
.LM2639:
	.cfi_startproc
.LM2640:
.LM2641:
.LM2642:
	addi	sp,sp,-80
	.cfi_def_cfa_offset 80
.LVL801:
.LBB172:
.LBI172:
.LM2643:
.LM2644:
.LBB173:
.LBI173:
.LM2645:
.LBB174:
.LM2646:
.LBE174:
.LBE173:
.LBE172:
.LM2647:
	sw	s0,72(sp)
	sw	s1,68(sp)
	.cfi_offset 8, -8
	.cfi_offset 9, -12
	mv	s0,a0
	mv	s1,a1
.LBB179:
.LBB177:
.LBB175:
	mv	a0,sp
.LVL802:
.LM2648:
	li	a1,64
.LVL803:
.LM2649:
.LBE175:
.LBE177:
.LBE179:
	sw	ra,76(sp)
	.cfi_offset 1, -4
.LBB180:
.LBB178:
.LBB176:
	call	pqkem_random_bytes.part.0
.LVL804:
.LM2650:
.LBE176:
.LBE178:
.LBE180:
.LM2651:
	mv	a2,sp
	mv	a1,s1
	mv	a0,s0
	call	pqcrystals_kyber512_ref_keypair_derand
.LVL805:
.LM2652:
.LM2653:
	lw	ra,76(sp)
	.cfi_restore 1
	lw	s0,72(sp)
	.cfi_restore 8
.LVL806:
.LM2654:
	lw	s1,68(sp)
	.cfi_restore 9
.LVL807:
.LM2655:
	li	a0,0
	addi	sp,sp,80
	.cfi_def_cfa_offset 0
	jr	ra
	.cfi_endproc
.LFE51:
	.size	pqcrystals_kyber512_ref_keypair, .-pqcrystals_kyber512_ref_keypair
	.section	.text.pqcrystals_kyber512_ref_poly_getnoise_eta2,"ax",@progbits
	.align	1
	.globl	pqcrystals_kyber512_ref_poly_getnoise_eta2
	.type	pqcrystals_kyber512_ref_poly_getnoise_eta2, @function
pqcrystals_kyber512_ref_poly_getnoise_eta2:
.LVL808:
.LFB66:
.LM2656:
	.cfi_startproc
.LM2657:
.LM2658:
.LM2659:
	addi	sp,sp,-144
	.cfi_def_cfa_offset 144
	sw	s0,136(sp)
	mv	a3,a2
	.cfi_offset 8, -8
	mv	s0,a0
.LM2660:
	mv	a2,a1
.LVL809:
.LM2661:
	mv	a0,sp
.LVL810:
.LM2662:
	li	a1,128
.LVL811:
.LM2663:
	sw	ra,140(sp)
	.cfi_offset 1, -4
.LM2664:
	call	pqcrystals_kyber512_ref_kyber_shake256_prf
.LVL812:
.LM2665:
.LBB181:
.LBI181:
.LM2666:
.LBB182:
.LM2667:
	mv	a1,sp
	mv	a0,s0
	call	cbd2
.LVL813:
.LM2668:
.LBE182:
.LBE181:
.LM2669:
	lw	ra,140(sp)
	.cfi_restore 1
	lw	s0,136(sp)
	.cfi_restore 8
.LVL814:
.LM2670:
	addi	sp,sp,144
	.cfi_def_cfa_offset 0
	jr	ra
	.cfi_endproc
.LFE66:
	.size	pqcrystals_kyber512_ref_poly_getnoise_eta2, .-pqcrystals_kyber512_ref_poly_getnoise_eta2
	.section	.text.pqcrystals_kyber512_ref_kyber_shake256_rkprf,"ax",@progbits
	.align	1
	.globl	pqcrystals_kyber512_ref_kyber_shake256_rkprf
	.type	pqcrystals_kyber512_ref_kyber_shake256_rkprf, @function
pqcrystals_kyber512_ref_kyber_shake256_rkprf:
.LVL815:
.LFB87:
.LM2671:
	.cfi_startproc
.LM2672:
.LM2673:
.LM2674:
	addi	sp,sp,-224
	.cfi_def_cfa_offset 224
.LVL816:
.LBB187:
.LBI187:
.LM2675:
.LBB188:
.LM2676:
.LBB189:
.LBI189:
.LM2677:
.LBB190:
.LM2678:
.LM2679:
.LM2680:
.LBE190:
.LBE189:
.LBE188:
.LBE187:
.LM2681:
	sw	s0,216(sp)
	sw	s1,212(sp)
	sw	ra,220(sp)
	.cfi_offset 8, -8
	.cfi_offset 9, -12
	.cfi_offset 1, -4
.LM2682:
	mv	s0,a0
	mv	s1,a2
	mv	a5,sp
	addi	a4,sp,200
.LVL817:
.L248:
.LBB195:
.LBB193:
.LBB192:
.LBB191:
.LM2683:
.LM2684:
	li	a2,0
	li	a3,0
	sw	a2,0(a5)
	sw	a3,4(a5)
.LM2685:
.LM2686:
	addi	a5,a5,8
	bne	a5,a4,.L248
.LVL818:
.LM2687:
.LBE191:
.LBE192:
.LM2688:
.LBE193:
.LBE195:
.LM2689:
	mv	a0,sp
.LVL819:
.LM2690:
	li	a2,32
.LBB196:
.LBB194:
.LM2691:
	sw	zero,200(sp)
.LVL820:
.LM2692:
.LBE194:
.LBE196:
.LM2693:
	call	pqcrystals_kyber_fips202_ref_shake256_absorb
.LVL821:
.LM2694:
	mv	a1,s1
	li	a2,768
	mv	a0,sp
	call	pqcrystals_kyber_fips202_ref_shake256_absorb
.LVL822:
.LM2695:
	mv	a0,sp
	call	pqcrystals_kyber_fips202_ref_shake256_finalize
.LVL823:
.LM2696:
	mv	a2,sp
	mv	a0,s0
	li	a1,32
	call	pqcrystals_kyber_fips202_ref_shake256_squeeze
.LVL824:
.LM2697:
	lw	ra,220(sp)
	.cfi_restore 1
	lw	s0,216(sp)
	.cfi_restore 8
.LVL825:
.LM2698:
	lw	s1,212(sp)
	.cfi_restore 9
.LVL826:
.LM2699:
	addi	sp,sp,224
	.cfi_def_cfa_offset 0
	jr	ra
	.cfi_endproc
.LFE87:
	.size	pqcrystals_kyber512_ref_kyber_shake256_rkprf, .-pqcrystals_kyber512_ref_kyber_shake256_rkprf
	.section	.text.pqcrystals_kyber512_ref_verify,"ax",@progbits
	.align	1
	.globl	pqcrystals_kyber512_ref_verify
	.type	pqcrystals_kyber512_ref_verify, @function
pqcrystals_kyber512_ref_verify:
.LVL827:
.LFB88:
.LM2700:
	.cfi_startproc
.LM2701:
.LM2702:
.LM2703:
.LM2704:
	li	a4,0
.LM2705:
	li	a5,0
.LVL828:
.L252:
.LM2706:
	bne	a5,a2,.L253
.LM2707:
.LM2708:
	snez	a0,a4
.LVL829:
.LM2709:
	ret
.LVL830:
.L253:
.LM2710:
.LM2711:
	add	a3,a0,a5
.LM2712:
	add	a6,a1,a5
.LM2713:
	lbu	a3,0(a3)
	lbu	a6,0(a6)
.LM2714:
	addi	a5,a5,1
.LVL831:
.LM2715:
	xor	a3,a3,a6
	or	a4,a4,a3
.LVL832:
.LM2716:
	j	.L252
	.cfi_endproc
.LFE88:
	.size	pqcrystals_kyber512_ref_verify, .-pqcrystals_kyber512_ref_verify
	.section	.text.pqcrystals_kyber512_ref_cmov,"ax",@progbits
	.align	1
	.globl	pqcrystals_kyber512_ref_cmov
	.type	pqcrystals_kyber512_ref_cmov, @function
pqcrystals_kyber512_ref_cmov:
.LVL833:
.LFB89:
.LM2717:
	.cfi_startproc
.LM2718:
.LM2719:
.LVL834:
.LM2720:
.LM2721:
	li	a5,0
.LM2722:
	neg	a3,a3
.LVL835:
.LM2723:
.L255:
.LM2724:
	bne	a5,a2,.L256
.LM2725:
	ret
.L256:
.LM2726:
	add	a7,a0,a5
.LM2727:
	add	a4,a1,a5
.LM2728:
	lbu	a6,0(a7)
.LM2729:
	lbu	a4,0(a4)
.LM2730:
	addi	a5,a5,1
.LVL836:
.LM2731:
	xor	a4,a6,a4
	and	a4,a3,a4
	xor	a6,a6,a4
	sb	a6,0(a7)
.LM2732:
	j	.L255
	.cfi_endproc
.LFE89:
	.size	pqcrystals_kyber512_ref_cmov, .-pqcrystals_kyber512_ref_cmov
	.section	.text.pqcrystals_kyber512_ref_cmov_int16,"ax",@progbits
	.align	1
	.globl	pqcrystals_kyber512_ref_cmov_int16
	.type	pqcrystals_kyber512_ref_cmov_int16, @function
pqcrystals_kyber512_ref_cmov_int16:
.LVL837:
.LFB90:
.LM2733:
	.cfi_startproc
.LM2734:
.LM2735:
	lh	a5,0(a0)
.LM2736:
	neg	a2,a2
.LVL838:
.LM2737:
	xor	a1,a5,a1
.LVL839:
.LM2738:
	and	a1,a1,a2
.LM2739:
	xor	a5,a5,a1
	sh	a5,0(a0)
.LM2740:
	ret
	.cfi_endproc
.LFE90:
	.size	pqcrystals_kyber512_ref_cmov_int16, .-pqcrystals_kyber512_ref_cmov_int16
	.section	.text.pqcrystals_kyber512_ref_poly_frommsg,"ax",@progbits
	.align	1
	.globl	pqcrystals_kyber512_ref_poly_frommsg
	.type	pqcrystals_kyber512_ref_poly_frommsg, @function
pqcrystals_kyber512_ref_poly_frommsg:
.LVL840:
.LFB63:
.LM2741:
	.cfi_startproc
.LM2742:
.LM2743:
.LM2744:
.LM2745:
	addi	sp,sp,-48
	.cfi_def_cfa_offset 48
	sw	s0,40(sp)
	sw	s3,28(sp)
	sw	s4,24(sp)
	sw	s5,20(sp)
	sw	s6,16(sp)
	sw	ra,44(sp)
	sw	s1,36(sp)
	sw	s2,32(sp)
	.cfi_offset 8, -8
	.cfi_offset 19, -20
	.cfi_offset 20, -24
	.cfi_offset 21, -28
	.cfi_offset 22, -32
	.cfi_offset 1, -4
	.cfi_offset 9, -12
	.cfi_offset 18, -16
.LM2746:
	mv	s5,a0
	mv	s6,a1
.LM2747:
	li	s0,0
.LM2748:
	li	s3,8
.LM2749:
	li	s4,32
.LVL841:
.L259:
.LM2750:
	slli	a0,s0,4
	add	a0,s5,a0
.LM2751:
	li	s1,0
.LM2752:
	add	s2,s6,s0
.LVL842:
.L260:
.LM2753:
.LM2754:
	sh	zero,0(a0)
.LM2755:
.LM2756:
	lbu	a2,0(s2)
.LM2757:
	li	a1,1665
	sw	a0,12(sp)
.LM2758:
	sra	a2,a2,s1
.LM2759:
	andi	a2,a2,1
	call	pqcrystals_kyber512_ref_cmov_int16
.LVL843:
.LM2760:
.LM2761:
	lw	a0,12(sp)
.LM2762:
	addi	s1,s1,1
.LVL844:
.LM2763:
	addi	a0,a0,2
	bne	s1,s3,.L260
.LM2764:
	addi	s0,s0,1
.LVL845:
.LM2765:
	bne	s0,s4,.L259
.LM2766:
	lw	ra,44(sp)
	.cfi_restore 1
	lw	s0,40(sp)
	.cfi_restore 8
.LVL846:
.LM2767:
	lw	s1,36(sp)
	.cfi_restore 9
.LVL847:
.LM2768:
	lw	s2,32(sp)
	.cfi_restore 18
	lw	s3,28(sp)
	.cfi_restore 19
	lw	s4,24(sp)
	.cfi_restore 20
	lw	s5,20(sp)
	.cfi_restore 21
.LVL848:
.LM2769:
	lw	s6,16(sp)
	.cfi_restore 22
.LVL849:
.LM2770:
	addi	sp,sp,48
	.cfi_def_cfa_offset 0
	jr	ra
	.cfi_endproc
.LFE63:
	.size	pqcrystals_kyber512_ref_poly_frommsg, .-pqcrystals_kyber512_ref_poly_frommsg
	.section	.text.pqcrystals_kyber512_ref_indcpa_enc,"ax",@progbits
	.align	1
	.globl	pqcrystals_kyber512_ref_indcpa_enc
	.type	pqcrystals_kyber512_ref_indcpa_enc, @function
pqcrystals_kyber512_ref_indcpa_enc:
.LVL850:
.LFB48:
.LM2771:
	.cfi_startproc
.LM2772:
.LM2773:
.LM2774:
.LM2775:
.LM2776:
.LM2777:
.LM2778:
	li	t0,-8192
	addi	t0,t0,480
	addi	sp,sp,-32
	.cfi_def_cfa_offset 32
	sw	ra,28(sp)
	sw	s0,24(sp)
	sw	s1,20(sp)
	sw	s2,16(sp)
	sw	s3,12(sp)
	sw	s4,8(sp)
	add	sp,sp,t0
	.cfi_def_cfa_offset 7744
	.cfi_offset 1, -4
	.cfi_offset 8, -8
	.cfi_offset 9, -12
	.cfi_offset 18, -16
	.cfi_offset 19, -20
	.cfi_offset 20, -24
.LVL851:
.LBB203:
.LBI203:
.LM2779:
.LBB204:
.LM2780:
.LBE204:
.LBE203:
.LM2781:
	mv	s4,a0
.LBB208:
.LBB205:
.LM2782:
	addi	a0,sp,2047
.LVL852:
.LM2783:
.LBE205:
.LBE208:
.LM2784:
	mv	s2,a1
.LBB209:
.LBB206:
.LM2785:
	addi	a0,a0,545
	mv	a1,a2
.LVL853:
.LM2786:
.LBE206:
.LBE209:
.LM2787:
	mv	s3,a3
	mv	s1,a2
.LBB210:
.LBB207:
.LM2788:
	call	pqcrystals_kyber512_ref_polyvec_frombytes
.LVL854:
.LM2789:
	li	a2,32
	addi	a1,s1,768
	mv	a0,sp
.LVL855:
.LM2790:
	call	memcpy
.LVL856:
.LM2791:
.LBE207:
.LBE210:
.LM2792:
	mv	a1,s2
	addi	a0,sp,544
	call	pqcrystals_kyber512_ref_poly_frommsg
.LVL857:
.LM2793:
	li	a0,4096
	addi	a0,a0,1568
	mv	a1,sp
	add	a0,a0,sp
	li	a2,1
	call	pqcrystals_kyber512_ref_gen_matrix
.LVL858:
.LM2794:
.LM2795:
.LM2796:
.LM2797:
	addi	s0,sp,1568
	mv	a1,s3
	mv	a0,s0
	li	a2,0
	call	pqcrystals_kyber512_ref_poly_getnoise_eta1
.LVL859:
.LM2798:
.LM2799:
.LM2800:
.LM2801:
	mv	a1,s3
	addi	a0,s0,512
	li	a2,1
	call	pqcrystals_kyber512_ref_poly_getnoise_eta1
.LVL860:
.LM2802:
.LM2803:
.LM2804:
.LM2805:
.LM2806:
	li	a5,4096
	addi	a5,a5,1568
	add	s2,sp,a5
.LVL861:
.LM2807:
	mv	a1,s3
	addi	a0,s2,-2048
	li	a2,2
	call	pqcrystals_kyber512_ref_poly_getnoise_eta2
.LVL862:
.LM2808:
.LM2809:
.LM2810:
.LM2811:
	mv	a1,s3
	addi	a0,s2,-1536
	li	a2,3
	call	pqcrystals_kyber512_ref_poly_getnoise_eta2
.LVL863:
.LM2812:
.LM2813:
.LM2814:
.LM2815:
	mv	a1,s3
	li	a2,4
	addi	a0,sp,1056
	call	pqcrystals_kyber512_ref_poly_getnoise_eta2
.LVL864:
.LM2816:
	mv	a0,s0
	call	pqcrystals_kyber512_ref_polyvec_ntt
.LVL865:
.LM2817:
.LM2818:
.LM2819:
	li	a4,4096
	addi	a4,a4,1568
	add	s1,sp,a4
.LVL866:
.LM2820:
	add	a1,sp,a4
	mv	a2,s0
	addi	a0,s1,-1024
	call	pqcrystals_kyber512_ref_polyvec_basemul_acc_montgomery
.LVL867:
.LM2821:
.LM2822:
.LM2823:
	li	a5,8192
	addi	a5,a5,-1504
	add	a1,sp,a5
	mv	a2,s0
	addi	a0,s1,-512
	call	pqcrystals_kyber512_ref_polyvec_basemul_acc_montgomery
.LVL868:
.LM2824:
.LM2825:
.LM2826:
	addi	a1,sp,2047
	mv	a2,s0
	addi	a1,a1,545
	addi	a0,sp,32
	call	pqcrystals_kyber512_ref_polyvec_basemul_acc_montgomery
.LVL869:
.LM2827:
	addi	a0,s1,-1024
	call	pqcrystals_kyber512_ref_polyvec_invntt_tomont
.LVL870:
.LM2828:
.LBB211:
.LBI211:
.LM2829:
.LBB212:
.LM2830:
	addi	a0,sp,32
.LVL871:
.LM2831:
	call	pqcrystals_kyber512_ref_invntt
.LVL872:
.LM2832:
.LBE212:
.LBE211:
.LM2833:
	addi	a2,s2,-2048
	addi	a1,s1,-1024
	addi	a0,s1,-1024
	call	pqcrystals_kyber512_ref_polyvec_add
.LVL873:
.LM2834:
	addi	a1,sp,32
	addi	a2,sp,1056
	mv	a0,a1
	call	pqcrystals_kyber512_ref_poly_add
.LVL874:
.LM2835:
	addi	a1,sp,32
	addi	a2,sp,544
	mv	a0,a1
	call	pqcrystals_kyber512_ref_poly_add
.LVL875:
.LM2836:
	addi	a0,s1,-1024
	call	pqcrystals_kyber512_ref_polyvec_reduce
.LVL876:
.LM2837:
	addi	a0,sp,32
	call	pqcrystals_kyber512_ref_poly_reduce
.LVL877:
.LM2838:
.LBB213:
.LBI213:
.LM2839:
.LBB214:
.LM2840:
	addi	a1,s1,-1024
	mv	a0,s4
	call	pqcrystals_kyber512_ref_polyvec_compress
.LVL878:
.LM2841:
	addi	a1,sp,32
.LVL879:
.LM2842:
	addi	a0,s4,640
	call	pqcrystals_kyber512_ref_poly_compress
.LVL880:
.LM2843:
.LBE214:
.LBE213:
.LM2844:
	li	t0,8192
	addi	t0,t0,-480
	add	sp,sp,t0
	.cfi_def_cfa_offset 32
	lw	ra,28(sp)
	.cfi_restore 1
	lw	s0,24(sp)
	.cfi_restore 8
	lw	s1,20(sp)
	.cfi_restore 9
	lw	s2,16(sp)
	.cfi_restore 18
	lw	s3,12(sp)
	.cfi_restore 19
.LVL881:
.LM2845:
	lw	s4,8(sp)
	.cfi_restore 20
.LVL882:
.LM2846:
	addi	sp,sp,32
	.cfi_def_cfa_offset 0
	jr	ra
	.cfi_endproc
.LFE48:
	.size	pqcrystals_kyber512_ref_indcpa_enc, .-pqcrystals_kyber512_ref_indcpa_enc
	.section	.text.pqcrystals_kyber512_ref_enc_derand,"ax",@progbits
	.align	1
	.globl	pqcrystals_kyber512_ref_enc_derand
	.type	pqcrystals_kyber512_ref_enc_derand, @function
pqcrystals_kyber512_ref_enc_derand:
.LVL883:
.LFB52:
.LM2847:
	.cfi_startproc
.LM2848:
.LM2849:
.LM2850:
.LM2851:
	addi	sp,sp,-144
	.cfi_def_cfa_offset 144
	sw	s0,136(sp)
	sw	s1,132(sp)
	sw	s2,128(sp)
	.cfi_offset 8, -8
	.cfi_offset 9, -12
	.cfi_offset 18, -16
	mv	s0,a2
	mv	s1,a0
	mv	s2,a1
.LM2852:
	li	a2,32
.LVL884:
.LM2853:
	mv	a1,a3
.LVL885:
.LM2854:
	mv	a0,sp
.LVL886:
.LM2855:
	sw	ra,140(sp)
	.cfi_offset 1, -4
.LM2856:
	call	memcpy
.LVL887:
.LM2857:
	mv	a1,s0
	addi	a0,sp,32
	li	a2,800
	call	pqcrystals_kyber_fips202_ref_sha3_256
.LVL888:
.LM2858:
	li	a2,64
	add	a0,sp,a2
	mv	a1,sp
	call	pqcrystals_kyber_fips202_ref_sha3_512
.LVL889:
.LM2859:
	addi	a3,sp,96
	mv	a2,s0
	mv	a1,sp
	mv	a0,s1
	call	pqcrystals_kyber512_ref_indcpa_enc
.LVL890:
.LM2860:
	addi	a1,sp,64
	mv	a0,s2
	li	a2,32
	call	memcpy
.LVL891:
.LM2861:
.LM2862:
	lw	ra,140(sp)
	.cfi_restore 1
	lw	s0,136(sp)
	.cfi_restore 8
.LVL892:
.LM2863:
	lw	s1,132(sp)
	.cfi_restore 9
.LVL893:
.LM2864:
	lw	s2,128(sp)
	.cfi_restore 18
.LVL894:
.LM2865:
	li	a0,0
	addi	sp,sp,144
	.cfi_def_cfa_offset 0
	jr	ra
	.cfi_endproc
.LFE52:
	.size	pqcrystals_kyber512_ref_enc_derand, .-pqcrystals_kyber512_ref_enc_derand
	.section	.text.pqcrystals_kyber512_ref_enc,"ax",@progbits
	.align	1
	.globl	pqcrystals_kyber512_ref_enc
	.type	pqcrystals_kyber512_ref_enc, @function
pqcrystals_kyber512_ref_enc:
.LVL895:
.LFB53:
.LM2866:
	.cfi_startproc
.LM2867:
.LM2868:
.LM2869:
	addi	sp,sp,-64
	.cfi_def_cfa_offset 64
.LVL896:
.LBB219:
.LBI219:
.LM2870:
.LM2871:
.LBB220:
.LBI220:
.LM2872:
.LBB221:
.LM2873:
.LBE221:
.LBE220:
.LBE219:
.LM2874:
	sw	s0,56(sp)
	sw	s1,52(sp)
	.cfi_offset 8, -8
	.cfi_offset 9, -12
	mv	s0,a0
	mv	s1,a1
.LBB226:
.LBB224:
.LBB222:
	addi	a0,sp,16
.LVL897:
.LM2875:
	li	a1,32
.LVL898:
.LM2876:
.LBE222:
.LBE224:
.LBE226:
	sw	ra,60(sp)
	.cfi_offset 1, -4
.LM2877:
	sw	a2,12(sp)
.LBB227:
.LBB225:
.LBB223:
	call	pqkem_random_bytes.part.0
.LVL899:
.LM2878:
.LBE223:
.LBE225:
.LBE227:
.LM2879:
	lw	a2,12(sp)
	addi	a3,sp,16
	mv	a1,s1
	mv	a0,s0
	call	pqcrystals_kyber512_ref_enc_derand
.LVL900:
.LM2880:
.LM2881:
	lw	ra,60(sp)
	.cfi_restore 1
	lw	s0,56(sp)
	.cfi_restore 8
.LVL901:
.LM2882:
	lw	s1,52(sp)
	.cfi_restore 9
.LVL902:
.LM2883:
	li	a0,0
	addi	sp,sp,64
	.cfi_def_cfa_offset 0
.LVL903:
.LM2884:
	jr	ra
	.cfi_endproc
.LFE53:
	.size	pqcrystals_kyber512_ref_enc, .-pqcrystals_kyber512_ref_enc
	.section	.text.pqcrystals_kyber512_ref_dec,"ax",@progbits
	.align	1
	.globl	pqcrystals_kyber512_ref_dec
	.type	pqcrystals_kyber512_ref_dec, @function
pqcrystals_kyber512_ref_dec:
.LVL904:
.LFB54:
.LM2885:
	.cfi_startproc
.LM2886:
.LM2887:
.LM2888:
.LM2889:
.LM2890:
.LM2891:
	addi	sp,sp,-928
	.cfi_def_cfa_offset 928
	sw	s1,916(sp)
	.cfi_offset 9, -12
	mv	s1,a0
.LM2892:
	mv	a0,sp
.LVL905:
.LM2893:
	sw	ra,924(sp)
	sw	s0,920(sp)
	sw	s2,912(sp)
	sw	s3,908(sp)
	.cfi_offset 1, -4
	.cfi_offset 8, -8
	.cfi_offset 18, -16
	.cfi_offset 19, -20
.LM2894:
	mv	s0,a2
.LVL906:
.LM2895:
.LM2896:
	mv	s2,a1
.LM2897:
	call	pqcrystals_kyber512_ref_indcpa_dec
.LVL907:
.LM2898:
	li	a2,32
	addi	a1,s0,1568
	add	a0,sp,a2
	call	memcpy
.LVL908:
.LM2899:
	li	a2,64
	add	a0,sp,a2
	mv	a1,sp
	call	pqcrystals_kyber_fips202_ref_sha3_512
.LVL909:
.LM2900:
	addi	a3,sp,96
	addi	a2,s0,768
.LVL910:
.LM2901:
	mv	a1,sp
	addi	a0,sp,128
	call	pqcrystals_kyber512_ref_indcpa_enc
.LVL911:
.LM2902:
.LM2903:
	addi	a1,sp,128
	li	a2,768
	mv	a0,s2
	call	pqcrystals_kyber512_ref_verify
.LVL912:
	mv	s3,a0
.LVL913:
.LM2904:
	mv	a2,s2
	addi	a1,s0,1600
	mv	a0,s1
.LVL914:
.LM2905:
	call	pqcrystals_kyber512_ref_kyber_shake256_rkprf
.LVL915:
.LM2906:
	xori	a3,s3,1
	mv	a0,s1
	addi	a1,sp,64
	andi	a3,a3,0xff
	li	a2,32
	call	pqcrystals_kyber512_ref_cmov
.LVL916:
.LM2907:
.LM2908:
	lw	ra,924(sp)
	.cfi_restore 1
	lw	s0,920(sp)
	.cfi_restore 8
.LVL917:
.LM2909:
	lw	s1,916(sp)
	.cfi_restore 9
.LVL918:
.LM2910:
	lw	s2,912(sp)
	.cfi_restore 18
.LVL919:
.LM2911:
	lw	s3,908(sp)
	.cfi_restore 19
.LVL920:
.LM2912:
	li	a0,0
	addi	sp,sp,928
	.cfi_def_cfa_offset 0
	jr	ra
	.cfi_endproc
.LFE54:
	.size	pqcrystals_kyber512_ref_dec, .-pqcrystals_kyber512_ref_dec
	.section	.text.pqkem_keygen,"ax",@progbits
	.align	1
	.globl	pqkem_keygen
	.type	pqkem_keygen, @function
pqkem_keygen:
.LVL921:
.LFB91:
.LM2913:
	.cfi_startproc
.LM2914:
.LM2915:
	beq	a1,zero,.L274
	beq	a0,zero,.L274
.LM2916:
	addi	sp,sp,-32
	.cfi_def_cfa_offset 32
	sw	ra,28(sp)
	.cfi_offset 1, -4
	sw	a1,12(sp)
	sw	a0,8(sp)
.LM2917:
	call	ensure_drbg
.LVL922:
.LM2918:
.LM2919:
	lw	a1,12(sp)
	lw	a0,8(sp)
	call	pqcrystals_kyber512_ref_keypair
.LVL923:
.LM2920:
.LM2921:
	lw	ra,28(sp)
	.cfi_restore 1
.LM2922:
	li	a0,1
.LM2923:
	addi	sp,sp,32
	.cfi_def_cfa_offset 0
.LVL924:
.LM2924:
	jr	ra
.LVL925:
.L274:
.LM2925:
	li	a0,0
.LVL926:
.LM2926:
	ret
	.cfi_endproc
.LFE91:
	.size	pqkem_keygen, .-pqkem_keygen
	.section	.text.pqkem_encapsulate,"ax",@progbits
	.align	1
	.globl	pqkem_encapsulate
	.type	pqkem_encapsulate, @function
pqkem_encapsulate:
.LVL927:
.LFB92:
.LM2927:
	.cfi_startproc
.LM2928:
.LM2929:
	seqz	a4,a1
.LM2930:
	seqz	a3,a2
	or	a4,a4,a3
	bne	a4,zero,.L281
	beq	a0,zero,.L281
.LM2931:
	addi	sp,sp,-32
	.cfi_def_cfa_offset 32
	sw	ra,28(sp)
	sw	s0,24(sp)
	sw	s1,20(sp)
	.cfi_offset 1, -4
	.cfi_offset 8, -8
	.cfi_offset 9, -12
	mv	s0,a1
	mv	s1,a2
	sw	a0,12(sp)
.LM2932:
	call	ensure_drbg
.LVL928:
.LM2933:
.LM2934:
	lw	a2,12(sp)
	mv	a1,s1
	mv	a0,s0
	call	pqcrystals_kyber512_ref_enc
.LVL929:
.LM2935:
.LM2936:
	lw	ra,28(sp)
	.cfi_restore 1
	lw	s0,24(sp)
	.cfi_restore 8
.LVL930:
.LM2937:
	lw	s1,20(sp)
	.cfi_restore 9
.LVL931:
.LM2938:
	li	a0,1
.LM2939:
	addi	sp,sp,32
	.cfi_def_cfa_offset 0
.LVL932:
.LM2940:
	jr	ra
.LVL933:
.L281:
.LM2941:
	li	a0,0
.LVL934:
.LM2942:
	ret
	.cfi_endproc
.LFE92:
	.size	pqkem_encapsulate, .-pqkem_encapsulate
	.section	.text.pqkem_decapsulate,"ax",@progbits
	.align	1
	.globl	pqkem_decapsulate
	.type	pqkem_decapsulate, @function
pqkem_decapsulate:
.LVL935:
.LFB93:
.LM2943:
	.cfi_startproc
.LM2944:
.LM2945:
	seqz	a5,a1
.LM2946:
	seqz	a4,a2
	or	a5,a5,a4
	bne	a5,zero,.L288
	beq	a0,zero,.L288
.LM2947:
	addi	sp,sp,-32
	.cfi_def_cfa_offset 32
	sw	ra,28(sp)
	sw	s0,24(sp)
	.cfi_offset 1, -4
	.cfi_offset 8, -8
	sw	a1,12(sp)
	mv	s0,a2
	sw	a0,8(sp)
.LM2948:
	call	ensure_drbg
.LVL936:
.LM2949:
.LM2950:
	lw	a2,12(sp)
	lw	a1,8(sp)
	mv	a0,s0
	call	pqcrystals_kyber512_ref_dec
.LVL937:
.LM2951:
.LM2952:
	lw	ra,28(sp)
	.cfi_restore 1
	lw	s0,24(sp)
	.cfi_restore 8
.LVL938:
.LM2953:
	li	a0,1
.LM2954:
	addi	sp,sp,32
	.cfi_def_cfa_offset 0
.LVL939:
.LM2955:
	jr	ra
.LVL940:
.L288:
.LM2956:
	li	a0,0
.LVL941:
.LM2957:
	ret
	.cfi_endproc
.LFE93:
	.size	pqkem_decapsulate, .-pqkem_decapsulate
	.globl	pqcrystals_kyber512_ref_zetas
	.section	.rodata.pqcrystals_kyber512_ref_zetas,"a"
	.align	2
	.type	pqcrystals_kyber512_ref_zetas, @object
	.size	pqcrystals_kyber512_ref_zetas, 256
pqcrystals_kyber512_ref_zetas:
	.half	-1044
	.half	-758
	.half	-359
	.half	-1517
	.half	1493
	.half	1422
	.half	287
	.half	202
	.half	-171
	.half	622
	.half	1577
	.half	182
	.half	962
	.half	-1202
	.half	-1474
	.half	1468
	.half	573
	.half	-1325
	.half	264
	.half	383
	.half	-829
	.half	1458
	.half	-1602
	.half	-130
	.half	-681
	.half	1017
	.half	732
	.half	608
	.half	-1542
	.half	411
	.half	-205
	.half	-1571
	.half	1223
	.half	652
	.half	-552
	.half	1015
	.half	-1293
	.half	1491
	.half	-282
	.half	-1544
	.half	516
	.half	-8
	.half	-320
	.half	-666
	.half	-1618
	.half	-1162
	.half	126
	.half	1469
	.half	-853
	.half	-90
	.half	-271
	.half	830
	.half	107
	.half	-1421
	.half	-247
	.half	-951
	.half	-398
	.half	961
	.half	-1508
	.half	-725
	.half	448
	.half	-1065
	.half	677
	.half	-1275
	.half	-1103
	.half	430
	.half	555
	.half	843
	.half	-1251
	.half	871
	.half	1550
	.half	105
	.half	422
	.half	587
	.half	177
	.half	-235
	.half	-291
	.half	-460
	.half	1574
	.half	1653
	.half	-246
	.half	778
	.half	1159
	.half	-147
	.half	-777
	.half	1483
	.half	-602
	.half	1119
	.half	-1590
	.half	644
	.half	-872
	.half	349
	.half	418
	.half	329
	.half	-156
	.half	-75
	.half	817
	.half	1097
	.half	603
	.half	610
	.half	1322
	.half	-1285
	.half	-1465
	.half	384
	.half	-1215
	.half	-136
	.half	1218
	.half	-1335
	.half	-874
	.half	220
	.half	-1187
	.half	-1659
	.half	-1185
	.half	-1530
	.half	-1278
	.half	794
	.half	-1510
	.half	-854
	.half	-870
	.half	478
	.half	-108
	.half	-308
	.half	996
	.half	991
	.half	958
	.half	-1460
	.half	1522
	.half	1628
	.section	.rodata.KeccakF_RoundConstants,"a"
	.align	3
	.type	KeccakF_RoundConstants, @object
	.size	KeccakF_RoundConstants, 192
KeccakF_RoundConstants:
	.word	1
	.word	0
	.word	32898
	.word	0
	.word	32906
	.word	-2147483648
	.word	-2147450880
	.word	-2147483648
	.word	32907
	.word	0
	.word	-2147483647
	.word	0
	.word	-2147450751
	.word	-2147483648
	.word	32777
	.word	-2147483648
	.word	138
	.word	0
	.word	136
	.word	0
	.word	-2147450871
	.word	0
	.word	-2147483638
	.word	0
	.word	-2147450741
	.word	0
	.word	139
	.word	-2147483648
	.word	32905
	.word	-2147483648
	.word	32771
	.word	-2147483648
	.word	32770
	.word	-2147483648
	.word	128
	.word	-2147483648
	.word	32778
	.word	0
	.word	-2147483638
	.word	-2147483648
	.word	-2147450751
	.word	-2147483648
	.word	32896
	.word	-2147483648
	.word	-2147483647
	.word	0
	.word	-2147450872
	.word	-2147483648
	.section	.sbss.g_drbg_ready,"aw",@nobits
	.align	2
	.type	g_drbg_ready, @object
	.size	g_drbg_ready, 4
g_drbg_ready:
	.zero	4
	.section	.bss.g_ctr_drbg,"aw",@nobits
	.align	2
	.type	g_ctr_drbg, @object
	.size	g_ctr_drbg, 320
g_ctr_drbg:
	.zero	320
	.section	.bss.g_entropy,"aw",@nobits
	.align	2
	.type	g_entropy, @object
	.size	g_entropy, 420
g_entropy:
	.zero	420
	.text
.Letext0:
	.section	.note.GNU-stack,"",@progbits
