	.file	"wifi.cpp"
	.option nopic
	.attribute arch, "rv32i2p1_m2p0_f2p2_c2p0_zicsr2p0_zmmul1p0_zca1p0_zcf1p0"
	.attribute unaligned_access, 0
	.attribute stack_align, 16
	.text
.Ltext0:
	.cfi_sections	.debug_frame
	.section	.rodata.task_wifi.str1.4,"aMS",@progbits,1
	.align	2
.LC0:
	.string	"12345678910"
	.align	2
.LC1:
	.string	"Chandu"
	.align	2
.LC2:
	.string	"[wifi] Connected to \"%s\"!\r\n"
	.align	2
.LC3:
	.string	"[wifi] IP  : %s\r\n"
	.align	2
.LC4:
	.string	"[wifi] GW  : %s\r\n"
	.align	2
.LC5:
	.string	"[wifi] MASK: %s\r\n"
	.section	.text.task_wifi,"ax",@progbits
	.align	1
	.globl	task_wifi
	.type	task_wifi, @function
task_wifi:
.LVL0:
.LFB26:
.LM1:
	.cfi_startproc
.LM2:
.LM3:
.LM4:
	addi	sp,sp,-48
	.cfi_def_cfa_offset 48
	sw	ra,44(sp)
	sw	s0,40(sp)
	sw	s1,36(sp)
	sw	s2,32(sp)
	sw	s3,28(sp)
	sw	s4,24(sp)
	.cfi_offset 1, -4
	.cfi_offset 8, -8
	.cfi_offset 9, -12
	.cfi_offset 18, -16
	.cfi_offset 19, -20
	.cfi_offset 20, -24
.LM5:
	call	bl_sys_init
.LVL1:
.LM6:
.LM7:
	call	easyflash_init
.LVL2:
.LM8:
.LM9:
	call	vfs_init
.LVL3:
.LM10:
.LM11:
	call	hal_wifi_start_firmware_task
.LVL4:
.LM12:
.LM13:
	li	a0,2000
	call	vTaskDelay
.LVL5:
.LM14:
.LM15:
	lui	a0,%hi(_ZL14wifi_mgmr_conf)
	addi	a0,a0,%lo(_ZL14wifi_mgmr_conf)
	call	wifi_mgmr_start_background
.LVL6:
.LM16:
.LM17:
	li	a0,1000
	call	vTaskDelay
.LVL7:
.LM18:
.LM19:
	call	wifi_mgmr_sta_enable
.LVL8:
.LM20:
	lui	a2,%hi(.LC0)
	lui	s1,%hi(.LC1)
.LM21:
	sw	a0,0(sp)
.LM22:
.LM23:
	li	a5,0
	li	a6,0
	li	a4,0
	li	a3,0
	addi	a2,a2,%lo(.LC0)
	addi	a1,s1,%lo(.LC1)
	mv	a0,sp
	call	wifi_mgmr_sta_connect
.LVL9:
.LM24:
.LM25:
.LM26:
	lui	a5,%hi(.LC2)
	addi	s2,a5,%lo(.LC2)
.LM27:
	lui	a5,%hi(.LC3)
	addi	s3,a5,%lo(.LC3)
.LM28:
	lui	a5,%hi(.LC4)
.LM29:
	li	s0,0
.LM30:
	addi	s4,a5,%lo(.LC4)
.LVL10:
.L4:
.LM31:
.LM32:
.LM33:
	li	a2,4
	li	a1,0
	add	a0,sp,a2
	call	memset
.LVL11:
.LM34:
.LM35:
	li	a2,4
	li	a1,0
	addi	a0,sp,8
	call	memset
.LVL12:
.LM36:
.LM37:
	li	a2,4
	li	a1,0
	addi	a0,sp,12
	call	memset
.LVL13:
.LM38:
.LM39:
	addi	a2,sp,12
	addi	a1,sp,8
	addi	a0,sp,4
	call	wifi_mgmr_sta_ip_get
.LVL14:
.LM40:
	bne	s0,zero,.L2
.LVL15:
.LM41:
	lw	a5,4(sp)
	beq	a5,zero,.L3
.LM42:
.LVL16:
.LM43:
.LM44:
	addi	a1,s1,%lo(.LC1)
	mv	a0,s2
	call	printf
.LVL17:
.LM45:
.LM46:
	addi	a0,sp,4
	call	ip4addr_ntoa
.LVL18:
	mv	a1,a0
.LM47:
	mv	a0,s3
	call	printf
.LVL19:
.LM48:
.LM49:
	addi	a0,sp,8
	call	ip4addr_ntoa
.LVL20:
	mv	a1,a0
.LM50:
	mv	a0,s4
	call	printf
.LVL21:
.LM51:
.LM52:
	addi	a0,sp,12
	call	ip4addr_ntoa
.LVL22:
	mv	a1,a0
.LM53:
	lui	a0,%hi(.LC5)
	addi	a0,a0,%lo(.LC5)
	call	printf
.LVL23:
.LM54:
.LM55:
	lui	a5,%hi(g_wifi_ready)
	li	a4,1
	sb	a4,%lo(g_wifi_ready)(a5)
.LVL24:
.L2:
.LM56:
	li	s0,1
.L3:
.LVL25:
.LM57:
.LM58:
	li	a0,1000
	call	vTaskDelay
.LVL26:
.LM59:
.LM60:
	j	.L4
	.cfi_endproc
.LFE26:
	.size	task_wifi, .-task_wifi
	.section	.sdata._ZL14wifi_mgmr_conf,"aw"
	.align	2
	.type	_ZL14wifi_mgmr_conf, @object
	.size	_ZL14wifi_mgmr_conf, 8
_ZL14wifi_mgmr_conf:
	.string	"CN"
	.zero	1
	.word	13
	.globl	g_wifi_ready
	.section	.sbss.g_wifi_ready,"aw",@nobits
	.type	g_wifi_ready, @object
	.size	g_wifi_ready, 1
g_wifi_ready:
	.zero	1
	.text
.Letext0:
	.section	.note.GNU-stack,"",@progbits
