	.file	"asn1parse.c"
	.option nopic
	.attribute arch, "rv32i2p1_m2p0_f2p2_c2p0_zicsr2p0_zmmul1p0_zca1p0_zcf1p0"
	.attribute unaligned_access, 0
	.attribute stack_align, 16
	.text
.Ltext0:
	.cfi_sections	.debug_frame
	.section	.text.asn1_get_sequence_of_cb,"ax",@progbits
	.align	1
	.type	asn1_get_sequence_of_cb, @function
asn1_get_sequence_of_cb:
.LVL0:
.LFB26:
.LM1:
	.cfi_startproc
.LM2:
.LM3:
.LM4:
	addi	sp,sp,-32
	.cfi_def_cfa_offset 32
	sw	s1,20(sp)
	sw	s2,16(sp)
	sw	ra,28(sp)
	sw	s0,24(sp)
	.cfi_offset 9, -12
	.cfi_offset 18, -16
	.cfi_offset 1, -4
	.cfi_offset 8, -8
.LM5:
	lw	s0,4(a0)
.LVL1:
.LM6:
.LM7:
	mv	s1,a0
	mv	s2,a1
.LM8:
	lw	a5,8(s0)
	beq	a5,zero,.L2
.LM9:
	li	a1,16
.LVL2:
.LM10:
	li	a0,1
.LVL3:
.LM11:
	sw	a3,12(sp)
	sw	a2,8(sp)
.LM12:
.LM13:
	call	calloc
.LVL4:
.LM14:
	mv	a5,a0
.LM15:
	sw	a0,12(s0)
.LM16:
.LM17:
	li	a0,-106
.LM18:
	beq	a5,zero,.L1
.LM19:
	lw	a3,12(sp)
	lw	a2,8(sp)
	mv	s0,a5
.LVL5:
.L2:
.LM20:
.LM21:
	sw	a2,8(s0)
.LM22:
.LM23:
	sw	a3,4(s0)
.LM24:
.LM25:
	sw	s2,0(s0)
.LM26:
.LM27:
	sw	s0,4(s1)
.LM28:
.LM29:
	li	a0,0
.L1:
.LM30:
	lw	ra,28(sp)
	.cfi_restore 1
	lw	s0,24(sp)
	.cfi_restore 8
.LVL6:
.LM31:
	lw	s1,20(sp)
	.cfi_restore 9
.LVL7:
.LM32:
	lw	s2,16(sp)
	.cfi_restore 18
.LVL8:
.LM33:
	addi	sp,sp,32
	.cfi_def_cfa_offset 0
	jr	ra
	.cfi_endproc
.LFE26:
	.size	asn1_get_sequence_of_cb, .-asn1_get_sequence_of_cb
	.section	.text.mbedtls_asn1_get_len,"ax",@progbits
	.align	1
	.globl	mbedtls_asn1_get_len
	.type	mbedtls_asn1_get_len, @function
mbedtls_asn1_get_len:
.LVL9:
.LFB15:
.LM34:
	.cfi_startproc
.LM35:
.LM36:
	lw	a4,0(a0)
.LM37:
	mv	a3,a0
.LM38:
	sub	a6,a1,a4
.LM39:
	bgt	a6,zero,.L10
.LVL10:
.L14:
.LM40:
	li	a0,-96
	ret
.LVL11:
.L10:
.LM41:
.LM42:
	lbu	a5,0(a4)
.LM43:
	slli	a0,a5,24
.LVL12:
.LM44:
	srai	a0,a0,24
	blt	a0,zero,.L12
.LM45:
.LM46:
	addi	a5,a4,1
	sw	a5,0(a3)
.LM47:
	lbu	a5,0(a4)
	sw	a5,0(a2)
.L13:
.LM48:
.LM49:
	lw	a5,0(a3)
	sub	a1,a1,a5
.LVL13:
.LM50:
	lw	a5,0(a2)
	bgtu	a5,a1,.L14
.LM51:
	li	a0,0
.L9:
.LM52:
	ret
.LVL14:
.L12:
.LBB2:
.LM53:
	andi	a5,a5,127
.LVL15:
.LM54:
.LM55:
	addi	a4,a5,-1
	andi	a4,a4,0xff
	li	a7,3
.LM56:
	li	a0,-100
.LM57:
	bgtu	a4,a7,.L9
.LM58:
.LM59:
	ble	a6,a5,.L14
.LM60:
.LM61:
	sw	zero,0(a2)
.LM62:
.LVL16:
.L18:
.LM63:
.LM64:
	lw	a4,0(a3)
	addi	a4,a4,1
.LM65:
	sw	a4,0(a3)
.LM66:
.LVL17:
.LM67:
	beq	a5,zero,.L13
.LM68:
	lw	a0,0(a2)
.LM69:
	lbu	a4,0(a4)
.LM70:
	addi	a5,a5,-1
.LVL18:
.LM71:
.LM72:
	slli	a0,a0,8
.LM73:
	or	a4,a0,a4
.LM74:
	sw	a4,0(a2)
	j	.L18
.LBE2:
	.cfi_endproc
.LFE15:
	.size	mbedtls_asn1_get_len, .-mbedtls_asn1_get_len
	.section	.text.mbedtls_asn1_get_tag,"ax",@progbits
	.align	1
	.globl	mbedtls_asn1_get_tag
	.type	mbedtls_asn1_get_tag, @function
mbedtls_asn1_get_tag:
.LVL19:
.LFB16:
.LM75:
	.cfi_startproc
.LM76:
.LM77:
	lw	a5,0(a0)
.LM78:
	sub	a4,a1,a5
.LM79:
	ble	a4,zero,.L21
.LM80:
.LM81:
	lbu	a4,0(a5)
.LM82:
	bne	a4,a3,.L22
.LM83:
.LM84:
	addi	a5,a5,1
	sw	a5,0(a0)
.LM85:
.LM86:
	tail	mbedtls_asn1_get_len
.LVL20:
.L21:
.LM87:
	li	a0,-96
.LVL21:
.LM88:
	ret
.LVL22:
.L22:
.LM89:
	li	a0,-98
.LVL23:
.LM90:
	ret
	.cfi_endproc
.LFE16:
	.size	mbedtls_asn1_get_tag, .-mbedtls_asn1_get_tag
	.section	.text.asn1_get_tagged_int,"ax",@progbits
	.align	1
	.type	asn1_get_tagged_int, @function
asn1_get_tagged_int:
.LVL24:
.LFB18:
.LM91:
	.cfi_startproc
.LM92:
.LM93:
.LM94:
.LM95:
	addi	sp,sp,-32
	.cfi_def_cfa_offset 32
	sw	s1,20(sp)
	.cfi_offset 9, -12
	mv	s1,a3
.LM96:
	mv	a3,a2
.LVL25:
.LM97:
	addi	a2,sp,12
.LVL26:
.LM98:
	sw	s0,24(sp)
	sw	ra,28(sp)
	.cfi_offset 8, -8
	.cfi_offset 1, -4
.LM99:
	mv	s0,a0
.LM100:
	call	mbedtls_asn1_get_tag
.LVL27:
.LM101:
	bne	a0,zero,.L23
.LM102:
.LM103:
	lw	a5,12(sp)
.LM104:
	bne	a5,zero,.L25
.L26:
.LM105:
	li	a0,-100
.LVL28:
.L23:
.LM106:
	lw	ra,28(sp)
	.cfi_remember_state
	.cfi_restore 1
	lw	s0,24(sp)
	.cfi_restore 8
.LVL29:
.LM107:
	lw	s1,20(sp)
	.cfi_restore 9
.LVL30:
.LM108:
	addi	sp,sp,32
	.cfi_def_cfa_offset 0
	jr	ra
.LVL31:
.L25:
	.cfi_restore_state
.LM109:
.LM110:
	lw	a4,0(s0)
	li	a3,0
.LM111:
	lb	a4,0(a4)
	blt	a4,zero,.L26
.L27:
.LM112:
	lw	a4,0(s0)
.LM113:
	lbu	a2,0(a4)
	beq	a2,zero,.L29
	bne	a3,zero,.L30
.L32:
.LM114:
.LM115:
	li	a3,4
	bgtu	a5,a3,.L26
.LM116:
.LM117:
	bne	a5,a3,.L28
.LM118:
	lb	a5,0(a4)
	bge	a5,zero,.L28
	j	.L26
.L29:
.LM119:
	addi	a4,a4,1
	sw	a4,0(s0)
.LM120:
	addi	a5,a5,-1
.LM121:
	li	a3,1
	bne	a5,zero,.L27
	sw	zero,12(sp)
.LM122:
.L28:
.LM123:
	lw	a4,12(sp)
.LM124:
	sw	zero,0(s1)
.LM125:
.LM126:
	li	a3,-1
.L33:
.LM127:
.LM128:
	addi	a4,a4,-1
.LM129:
	beq	a4,a3,.L23
.LM130:
.LM131:
	lw	a2,0(s0)
.LM132:
	lw	a5,0(s1)
.LM133:
	lbu	a2,0(a2)
.LM134:
	slli	a5,a5,8
.LM135:
	or	a5,a5,a2
.LM136:
	sw	a5,0(s1)
.LM137:
.LM138:
	lw	a5,0(s0)
	addi	a5,a5,1
	sw	a5,0(s0)
	j	.L33
.L30:
.LM139:
	sw	a5,12(sp)
	j	.L32
	.cfi_endproc
.LFE18:
	.size	asn1_get_tagged_int, .-asn1_get_tagged_int
	.section	.text.mbedtls_asn1_get_bool,"ax",@progbits
	.align	1
	.globl	mbedtls_asn1_get_bool
	.type	mbedtls_asn1_get_bool, @function
mbedtls_asn1_get_bool:
.LVL32:
.LFB17:
.LM140:
	.cfi_startproc
.LM141:
.LM142:
.LM143:
.LM144:
	addi	sp,sp,-32
	.cfi_def_cfa_offset 32
	sw	s1,20(sp)
.LM145:
	li	a3,1
	.cfi_offset 9, -12
.LM146:
	mv	s1,a2
.LM147:
	addi	a2,sp,12
.LVL33:
.LM148:
	sw	s0,24(sp)
	sw	ra,28(sp)
	.cfi_offset 8, -8
	.cfi_offset 1, -4
.LM149:
	mv	s0,a0
.LM150:
	call	mbedtls_asn1_get_tag
.LVL34:
.LM151:
	bne	a0,zero,.L38
.LM152:
.LM153:
	lw	a4,12(sp)
	li	a5,1
	bne	a4,a5,.L40
.LM154:
.LM155:
	lw	a5,0(s0)
.LM156:
	lbu	a5,0(a5)
	snez	a5,a5
.LM157:
	sw	a5,0(s1)
.LM158:
.LM159:
	lw	a5,0(s0)
	addi	a5,a5,1
	sw	a5,0(s0)
.LM160:
.LVL35:
.L38:
.LM161:
	lw	ra,28(sp)
	.cfi_remember_state
	.cfi_restore 1
	lw	s0,24(sp)
	.cfi_restore 8
.LVL36:
.LM162:
	lw	s1,20(sp)
	.cfi_restore 9
.LVL37:
.LM163:
	addi	sp,sp,32
	.cfi_def_cfa_offset 0
	jr	ra
.LVL38:
.L40:
	.cfi_restore_state
.LM164:
	li	a0,-100
.LVL39:
.LM165:
	j	.L38
	.cfi_endproc
.LFE17:
	.size	mbedtls_asn1_get_bool, .-mbedtls_asn1_get_bool
	.section	.text.mbedtls_asn1_get_int,"ax",@progbits
	.align	1
	.globl	mbedtls_asn1_get_int
	.type	mbedtls_asn1_get_int, @function
mbedtls_asn1_get_int:
.LVL40:
.LFB19:
.LM166:
	.cfi_startproc
.LM167:
.LM168:
	mv	a3,a2
.LM169:
	li	a2,2
.LVL41:
.LM170:
	tail	asn1_get_tagged_int
.LVL42:
.LM171:
	.cfi_endproc
.LFE19:
	.size	mbedtls_asn1_get_int, .-mbedtls_asn1_get_int
	.section	.text.mbedtls_asn1_get_enum,"ax",@progbits
	.align	1
	.globl	mbedtls_asn1_get_enum
	.type	mbedtls_asn1_get_enum, @function
mbedtls_asn1_get_enum:
.LVL43:
.LFB20:
.LM172:
	.cfi_startproc
.LM173:
.LM174:
	mv	a3,a2
.LM175:
	li	a2,10
.LVL44:
.LM176:
	tail	asn1_get_tagged_int
.LVL45:
.LM177:
	.cfi_endproc
.LFE20:
	.size	mbedtls_asn1_get_enum, .-mbedtls_asn1_get_enum
	.section	.text.mbedtls_asn1_get_mpi,"ax",@progbits
	.align	1
	.globl	mbedtls_asn1_get_mpi
	.type	mbedtls_asn1_get_mpi, @function
mbedtls_asn1_get_mpi:
.LVL46:
.LFB21:
.LM178:
	.cfi_startproc
.LM179:
.LM180:
.LM181:
.LM182:
	addi	sp,sp,-48
	.cfi_def_cfa_offset 48
	sw	s1,36(sp)
.LM183:
	li	a3,2
	.cfi_offset 9, -12
.LM184:
	mv	s1,a2
.LM185:
	addi	a2,sp,28
.LVL47:
.LM186:
	sw	s0,40(sp)
	sw	ra,44(sp)
	.cfi_offset 8, -8
	.cfi_offset 1, -4
.LM187:
	mv	s0,a0
.LM188:
	call	mbedtls_asn1_get_tag
.LVL48:
.LM189:
	bne	a0,zero,.L44
.LM190:
.LM191:
	lw	a2,28(sp)
	lw	a1,0(s0)
	mv	a0,s1
.LVL49:
.LM192:
	sw	a2,12(sp)
	call	mbedtls_mpi_read_binary
.LVL50:
.LM193:
.LM194:
	lw	a5,0(s0)
	lw	a2,12(sp)
	add	a5,a5,a2
	sw	a5,0(s0)
.LM195:
.L44:
.LM196:
	lw	ra,44(sp)
	.cfi_restore 1
	lw	s0,40(sp)
	.cfi_restore 8
.LVL51:
.LM197:
	lw	s1,36(sp)
	.cfi_restore 9
.LVL52:
.LM198:
	addi	sp,sp,48
	.cfi_def_cfa_offset 0
	jr	ra
	.cfi_endproc
.LFE21:
	.size	mbedtls_asn1_get_mpi, .-mbedtls_asn1_get_mpi
	.section	.text.mbedtls_asn1_get_bitstring,"ax",@progbits
	.align	1
	.globl	mbedtls_asn1_get_bitstring
	.type	mbedtls_asn1_get_bitstring, @function
mbedtls_asn1_get_bitstring:
.LVL53:
.LFB22:
.LM199:
	.cfi_startproc
.LM200:
.LM201:
.LM202:
	addi	sp,sp,-32
	.cfi_def_cfa_offset 32
.LM203:
	li	a3,3
.LM204:
	sw	s0,24(sp)
	sw	ra,28(sp)
	.cfi_offset 8, -8
	.cfi_offset 1, -4
.LM205:
	mv	s0,a0
	sw	a1,12(sp)
	sw	a2,8(sp)
.LM206:
	call	mbedtls_asn1_get_tag
.LVL54:
.LM207:
	bne	a0,zero,.L47
.LM208:
.LM209:
	lw	a2,8(sp)
	lw	a5,0(a2)
.LM210:
	beq	a5,zero,.L49
.LM211:
.LM212:
	addi	a5,a5,-1
	sw	a5,0(a2)
.LM213:
.LM214:
	lw	a5,0(s0)
.LM215:
	li	a4,7
.LM216:
	lbu	a5,0(a5)
.LM217:
	sb	a5,4(a2)
.LM218:
.LM219:
	bgtu	a5,a4,.L50
.LM220:
.LM221:
	lw	a5,0(s0)
.LM222:
	lw	a1,12(sp)
.LM223:
	addi	a5,a5,1
	sw	a5,0(s0)
.LM224:
.LM225:
	lw	a4,0(a2)
.LM226:
	sw	a5,8(a2)
.LM227:
.LM228:
	add	a5,a5,a4
	sw	a5,0(s0)
.LM229:
.LM230:
	beq	a5,a1,.L47
.LM231:
	li	a0,-102
.LVL55:
.LM232:
	j	.L47
.LVL56:
.L49:
.LM233:
	li	a0,-96
.LVL57:
.L47:
.LM234:
	lw	ra,28(sp)
	.cfi_remember_state
	.cfi_restore 1
	lw	s0,24(sp)
	.cfi_restore 8
.LVL58:
.LM235:
	addi	sp,sp,32
	.cfi_def_cfa_offset 0
.LVL59:
.LM236:
	jr	ra
.LVL60:
.L50:
	.cfi_restore_state
.LM237:
	li	a0,-100
.LVL61:
.LM238:
	j	.L47
	.cfi_endproc
.LFE22:
	.size	mbedtls_asn1_get_bitstring, .-mbedtls_asn1_get_bitstring
	.section	.text.mbedtls_asn1_traverse_sequence_of,"ax",@progbits
	.align	1
	.globl	mbedtls_asn1_traverse_sequence_of
	.type	mbedtls_asn1_traverse_sequence_of, @function
mbedtls_asn1_traverse_sequence_of:
.LVL62:
.LFB23:
.LM239:
	.cfi_startproc
.LM240:
.LM241:
.LM242:
.LM243:
	addi	sp,sp,-80
	.cfi_def_cfa_offset 80
	sw	s5,52(sp)
	sw	s6,48(sp)
	.cfi_offset 21, -28
	.cfi_offset 22, -32
	mv	s5,a2
	mv	s6,a3
.LM244:
	addi	a2,sp,28
.LVL63:
.LM245:
	li	a3,48
.LVL64:
.LM246:
	sw	s0,72(sp)
	sw	s1,68(sp)
	sw	s2,64(sp)
	sw	s3,60(sp)
	sw	s7,44(sp)
	sw	s8,40(sp)
	sw	s9,36(sp)
	sw	ra,76(sp)
	sw	s4,56(sp)
	.cfi_offset 8, -8
	.cfi_offset 9, -12
	.cfi_offset 18, -16
	.cfi_offset 19, -20
	.cfi_offset 23, -36
	.cfi_offset 24, -40
	.cfi_offset 25, -44
	.cfi_offset 1, -4
	.cfi_offset 20, -24
.LM247:
	mv	s1,a0
	mv	s2,a1
	mv	s7,a4
	mv	s8,a5
	mv	s3,a6
	mv	s9,a7
.LM248:
	call	mbedtls_asn1_get_tag
.LVL65:
.LM249:
	mv	s0,a0
.LVL66:
.LM250:
	bne	a0,zero,.L53
.LM251:
.LM252:
	lw	a3,0(s1)
.LM253:
	lw	a5,28(sp)
	add	a5,a3,a5
.LM254:
	beq	s2,a5,.L55
.LM255:
	li	s0,-102
.LVL67:
.LM256:
	j	.L53
.L59:
.LBB3:
.LM257:
.LM258:
	addi	a5,a3,1
	sw	a5,0(s1)
.LM259:
	lbu	s4,0(a3)
.LVL68:
.LM260:
.LM261:
	and	a5,s4,s5
	bne	a5,s6,.L61
.LM262:
.LM263:
	addi	a2,sp,28
	mv	a1,s2
	mv	a0,s1
.LVL69:
.LM264:
	call	mbedtls_asn1_get_len
.LVL70:
.LM265:
	bne	a0,zero,.L63
.LM266:
.LM267:
.LM268:
	and	a5,s4,s7
.LM269:
	lw	a3,28(sp)
.LM270:
	bne	a5,s8,.L58
	bne	s3,zero,.L56
.L58:
.LM271:
.LM272:
	lw	a5,0(s1)
	add	a3,a5,a3
	sw	a3,0(s1)
.LVL71:
.L55:
.LM273:
.LBE3:
.LM274:
	bgtu	s2,a3,.L59
.L53:
.LM275:
	lw	ra,76(sp)
	.cfi_remember_state
	.cfi_restore 1
	mv	a0,s0
.LVL72:
.LM276:
	lw	s0,72(sp)
	.cfi_restore 8
	lw	s1,68(sp)
	.cfi_restore 9
.LVL73:
.LM277:
	lw	s2,64(sp)
	.cfi_restore 18
.LVL74:
.LM278:
	lw	s3,60(sp)
	.cfi_restore 19
.LVL75:
.LM279:
	lw	s4,56(sp)
	.cfi_restore 20
	lw	s5,52(sp)
	.cfi_restore 21
.LVL76:
.LM280:
	lw	s6,48(sp)
	.cfi_restore 22
.LVL77:
.LM281:
	lw	s7,44(sp)
	.cfi_restore 23
.LVL78:
.LM282:
	lw	s8,40(sp)
	.cfi_restore 24
.LVL79:
.LM283:
	lw	s9,36(sp)
	.cfi_restore 25
.LVL80:
.LM284:
	addi	sp,sp,80
	.cfi_def_cfa_offset 0
	jr	ra
.LVL81:
.L56:
	.cfi_restore_state
.LBB4:
.LM285:
.LM286:
	lw	a2,0(s1)
	mv	a1,s4
	mv	a0,s9
.LVL82:
.LM287:
	sw	a3,12(sp)
	jalr	s3
.LVL83:
.LM288:
.LM289:
	lw	a3,12(sp)
	beq	a0,zero,.L58
.L63:
.LM290:
	mv	s0,a0
	j	.L53
.L61:
.LM291:
	li	s0,-98
	j	.L53
.LBE4:
	.cfi_endproc
.LFE23:
	.size	mbedtls_asn1_traverse_sequence_of, .-mbedtls_asn1_traverse_sequence_of
	.section	.text.mbedtls_asn1_get_bitstring_null,"ax",@progbits
	.align	1
	.globl	mbedtls_asn1_get_bitstring_null
	.type	mbedtls_asn1_get_bitstring_null, @function
mbedtls_asn1_get_bitstring_null:
.LVL84:
.LFB24:
.LM292:
	.cfi_startproc
.LM293:
.LM294:
.LM295:
	addi	sp,sp,-32
	.cfi_def_cfa_offset 32
.LM296:
	li	a3,3
.LM297:
	sw	s0,24(sp)
	sw	ra,28(sp)
	.cfi_offset 8, -8
	.cfi_offset 1, -4
.LM298:
	mv	s0,a0
	sw	a2,12(sp)
.LM299:
	call	mbedtls_asn1_get_tag
.LVL85:
.LM300:
	bne	a0,zero,.L68
.LM301:
.LM302:
	lw	a2,12(sp)
	lw	a5,0(a2)
.LM303:
	bne	a5,zero,.L70
.L71:
.LM304:
	li	a0,-104
.LVL86:
.L68:
.LM305:
	lw	ra,28(sp)
	.cfi_remember_state
	.cfi_restore 1
	lw	s0,24(sp)
	.cfi_restore 8
.LVL87:
.LM306:
	addi	sp,sp,32
	.cfi_def_cfa_offset 0
.LVL88:
.LM307:
	jr	ra
.LVL89:
.L70:
	.cfi_restore_state
.LM308:
	addi	a5,a5,-1
	sw	a5,0(a2)
.LM309:
.LM310:
	lw	a5,0(s0)
.LM311:
	lbu	a4,0(a5)
	bne	a4,zero,.L71
.LM312:
	addi	a5,a5,1
	sw	a5,0(s0)
.LM313:
.LM314:
	j	.L68
	.cfi_endproc
.LFE24:
	.size	mbedtls_asn1_get_bitstring_null, .-mbedtls_asn1_get_bitstring_null
	.section	.text.mbedtls_asn1_sequence_free,"ax",@progbits
	.align	1
	.globl	mbedtls_asn1_sequence_free
	.type	mbedtls_asn1_sequence_free, @function
mbedtls_asn1_sequence_free:
.LVL90:
.LFB25:
.LM315:
	.cfi_startproc
.LM316:
.LM317:
	bne	a0,zero,.L78
	ret
.L78:
.LM318:
	addi	sp,sp,-16
	.cfi_def_cfa_offset 16
	sw	ra,12(sp)
	sw	s0,8(sp)
	.cfi_offset 1, -4
	.cfi_offset 8, -8
.L75:
.LBB5:
.LM319:
.LM320:
	lw	s0,12(a0)
.LVL91:
.LM321:
	call	free
.LVL92:
.LM322:
.LM323:
	mv	a0,s0
.LM324:
.LBE5:
.LM325:
	bne	s0,zero,.L75
.LM326:
	lw	ra,12(sp)
	.cfi_restore 1
	lw	s0,8(sp)
	.cfi_restore 8
.LVL93:
.LM327:
	addi	sp,sp,16
	.cfi_def_cfa_offset 0
	jr	ra
	.cfi_endproc
.LFE25:
	.size	mbedtls_asn1_sequence_free, .-mbedtls_asn1_sequence_free
	.section	.text.mbedtls_asn1_get_sequence_of,"ax",@progbits
	.align	1
	.globl	mbedtls_asn1_get_sequence_of
	.type	mbedtls_asn1_get_sequence_of, @function
mbedtls_asn1_get_sequence_of:
.LVL94:
.LFB27:
.LM328:
	.cfi_startproc
.LM329:
.LM330:
	addi	sp,sp,-48
	.cfi_def_cfa_offset 48
	sw	s0,40(sp)
	sw	s1,36(sp)
	.cfi_offset 8, -8
	.cfi_offset 9, -12
	mv	s0,a0
	mv	s1,a1
.LM331:
	sw	a2,28(sp)
.LM332:
.LM333:
	mv	a0,a2
.LVL95:
.LM334:
	li	a1,0
.LVL96:
.LM335:
	li	a2,16
.LVL97:
.LM336:
	sw	ra,44(sp)
	.cfi_offset 1, -4
.LM337:
	sw	a3,24(sp)
	sw	a3,12(sp)
.LM338:
	call	memset
.LVL98:
.LM339:
.LM340:
	lbu	a3,12(sp)
	lui	a6,%hi(asn1_get_sequence_of_cb)
	addi	a7,sp,24
	mv	a1,s1
	mv	a0,s0
	addi	a6,a6,%lo(asn1_get_sequence_of_cb)
	li	a5,0
	li	a4,0
	li	a2,255
	call	mbedtls_asn1_traverse_sequence_of
.LVL99:
.LM341:
	lw	ra,44(sp)
	.cfi_restore 1
	lw	s0,40(sp)
	.cfi_restore 8
.LVL100:
.LM342:
	lw	s1,36(sp)
	.cfi_restore 9
.LVL101:
.LM343:
	addi	sp,sp,48
	.cfi_def_cfa_offset 0
.LVL102:
.LM344:
	jr	ra
	.cfi_endproc
.LFE27:
	.size	mbedtls_asn1_get_sequence_of, .-mbedtls_asn1_get_sequence_of
	.section	.text.mbedtls_asn1_get_alg,"ax",@progbits
	.align	1
	.globl	mbedtls_asn1_get_alg
	.type	mbedtls_asn1_get_alg, @function
mbedtls_asn1_get_alg:
.LVL103:
.LFB28:
.LM345:
	.cfi_startproc
.LM346:
.LM347:
.LM348:
.LM349:
	addi	sp,sp,-48
	.cfi_def_cfa_offset 48
	sw	s3,28(sp)
	sw	s4,24(sp)
	.cfi_offset 19, -20
	.cfi_offset 20, -24
	mv	s3,a3
	mv	s4,a2
.LM350:
	li	a3,48
.LVL104:
.LM351:
	addi	a2,sp,12
.LVL105:
.LM352:
	sw	s0,40(sp)
	sw	s1,36(sp)
	sw	s2,32(sp)
	sw	ra,44(sp)
	.cfi_offset 8, -8
	.cfi_offset 9, -12
	.cfi_offset 18, -16
	.cfi_offset 1, -4
.LM353:
	mv	s1,a0
	mv	s2,a1
.LM354:
	call	mbedtls_asn1_get_tag
.LVL106:
.LM355:
	mv	s0,a0
.LVL107:
.LM356:
	bne	a0,zero,.L81
.LM357:
.LM358:
	lw	a5,0(s1)
.LM359:
	li	s0,-96
.LVL108:
.LM360:
	sub	s2,s2,a5
.LVL109:
.LM361:
	ble	s2,zero,.L81
.LM362:
.LM363:
	lbu	a5,0(a5)
.LM364:
	li	a3,6
	addi	a2,s4,4
.LM365:
	sw	a5,0(s4)
.LM366:
.LM367:
	lw	s2,0(s1)
	lw	a5,12(sp)
.LM368:
	mv	a0,s1
.LVL110:
.LM369:
	add	s2,s2,a5
.LVL111:
.LM370:
.LM371:
	mv	a1,s2
	call	mbedtls_asn1_get_tag
.LVL112:
	mv	s0,a0
.LVL113:
.LM372:
	bne	a0,zero,.L81
.LM373:
.LM374:
	lw	a5,0(s1)
.LM375:
	lw	a4,4(s4)
.LM376:
	sw	a5,8(s4)
.LM377:
.LM378:
	add	a5,a5,a4
	sw	a5,0(s1)
.LM379:
.LM380:
	bne	a5,s2,.L83
.LM381:
	li	a1,12
	mv	a0,s3
	call	mbedtls_platform_zeroize
.LVL114:
.LM382:
.L81:
.LM383:
	lw	ra,44(sp)
	.cfi_remember_state
	.cfi_restore 1
	mv	a0,s0
	lw	s0,40(sp)
	.cfi_restore 8
	lw	s1,36(sp)
	.cfi_restore 9
.LVL115:
.LM384:
	lw	s2,32(sp)
	.cfi_restore 18
	lw	s3,28(sp)
	.cfi_restore 19
.LVL116:
.LM385:
	lw	s4,24(sp)
	.cfi_restore 20
.LVL117:
.LM386:
	addi	sp,sp,48
	.cfi_def_cfa_offset 0
	jr	ra
.LVL118:
.L83:
	.cfi_restore_state
.LM387:
.LM388:
	lbu	a5,0(a5)
.LM389:
	addi	a2,s3,4
	mv	a1,s2
.LM390:
	sw	a5,0(s3)
.LM391:
.LM392:
	lw	a5,0(s1)
.LM393:
	mv	a0,s1
.LM394:
	addi	a5,a5,1
	sw	a5,0(s1)
.LM395:
.LM396:
	call	mbedtls_asn1_get_len
.LVL119:
.LM397:
	bne	a0,zero,.L86
.LM398:
.LM399:
	lw	a5,0(s1)
.LM400:
	lw	a4,4(s3)
.LM401:
	sw	a5,8(s3)
.LM402:
.LM403:
	add	a5,a5,a4
	sw	a5,0(s1)
.LM404:
.LM405:
	beq	a5,s2,.L81
.LM406:
	li	s0,-102
	j	.L81
.L86:
.LM407:
	mv	s0,a0
	j	.L81
	.cfi_endproc
.LFE28:
	.size	mbedtls_asn1_get_alg, .-mbedtls_asn1_get_alg
	.section	.text.mbedtls_asn1_get_alg_null,"ax",@progbits
	.align	1
	.globl	mbedtls_asn1_get_alg_null
	.type	mbedtls_asn1_get_alg_null, @function
mbedtls_asn1_get_alg_null:
.LVL120:
.LFB29:
.LM408:
	.cfi_startproc
.LM409:
.LM410:
.LM411:
.LM412:
	addi	sp,sp,-32
	.cfi_def_cfa_offset 32
	sw	s0,24(sp)
	sw	s1,20(sp)
	sw	s2,16(sp)
	.cfi_offset 8, -8
	.cfi_offset 9, -12
	.cfi_offset 18, -16
	mv	s0,a0
	mv	s1,a1
	mv	s2,a2
.LM413:
	li	a1,0
.LVL121:
.LM414:
	li	a2,12
.LVL122:
.LM415:
	addi	a0,sp,4
.LVL123:
.LM416:
	sw	ra,28(sp)
	.cfi_offset 1, -4
.LM417:
	call	memset
.LVL124:
.LM418:
.LM419:
	addi	a3,sp,4
	mv	a2,s2
	mv	a1,s1
	mv	a0,s0
	call	mbedtls_asn1_get_alg
.LVL125:
.LM420:
	bne	a0,zero,.L89
.LM421:
.LM422:
	lw	a5,4(sp)
.LM423:
	beq	a5,zero,.L94
.LM424:
	addi	a5,a5,-5
.LM425:
	bne	a5,zero,.L93
.L94:
.LM426:
	lw	a5,8(sp)
	beq	a5,zero,.L89
.L93:
.LM427:
	li	a0,-104
.LVL126:
.L89:
.LM428:
	lw	ra,28(sp)
	.cfi_restore 1
	lw	s0,24(sp)
	.cfi_restore 8
.LVL127:
.LM429:
	lw	s1,20(sp)
	.cfi_restore 9
.LVL128:
.LM430:
	lw	s2,16(sp)
	.cfi_restore 18
.LVL129:
.LM431:
	addi	sp,sp,32
	.cfi_def_cfa_offset 0
	jr	ra
	.cfi_endproc
.LFE29:
	.size	mbedtls_asn1_get_alg_null, .-mbedtls_asn1_get_alg_null
	.section	.text.mbedtls_asn1_free_named_data_list,"ax",@progbits
	.align	1
	.globl	mbedtls_asn1_free_named_data_list
	.type	mbedtls_asn1_free_named_data_list, @function
mbedtls_asn1_free_named_data_list:
.LVL130:
.LFB30:
.LM432:
	.cfi_startproc
.LM433:
	addi	sp,sp,-16
	.cfi_def_cfa_offset 16
	sw	s1,4(sp)
	sw	ra,12(sp)
	sw	s0,8(sp)
	.cfi_offset 9, -12
	.cfi_offset 1, -4
	.cfi_offset 8, -8
	mv	s1,a0
.LM434:
.LM435:
.LVL131:
.L100:
.LM436:
.LM437:
	lw	s0,0(s1)
.LVL132:
.LM438:
	bne	s0,zero,.L101
.LM439:
	lw	ra,12(sp)
	.cfi_remember_state
	.cfi_restore 1
	lw	s0,8(sp)
	.cfi_restore 8
.LVL133:
.LM440:
	lw	s1,4(sp)
	.cfi_restore 9
.LVL134:
.LM441:
	addi	sp,sp,16
	.cfi_def_cfa_offset 0
	jr	ra
.LVL135:
.L101:
	.cfi_restore_state
.LM442:
.LM443:
	lw	a5,24(s0)
.LM444:
	sw	a5,0(s1)
.LM445:
	lw	a0,8(s0)
	call	free
.LVL136:
.LM446:
	lw	a0,20(s0)
	call	free
.LVL137:
.LM447:
	mv	a0,s0
	call	free
.LVL138:
	j	.L100
	.cfi_endproc
.LFE30:
	.size	mbedtls_asn1_free_named_data_list, .-mbedtls_asn1_free_named_data_list
	.section	.text.mbedtls_asn1_free_named_data_list_shallow,"ax",@progbits
	.align	1
	.globl	mbedtls_asn1_free_named_data_list_shallow
	.type	mbedtls_asn1_free_named_data_list_shallow, @function
mbedtls_asn1_free_named_data_list_shallow:
.LVL139:
.LFB31:
.LM448:
	.cfi_startproc
.LM449:
.LBB6:
.LM450:
.LM451:
	bne	a0,zero,.L108
	ret
.L108:
.LBE6:
.LM452:
	addi	sp,sp,-16
	.cfi_def_cfa_offset 16
	sw	ra,12(sp)
	sw	s0,8(sp)
	.cfi_offset 1, -4
	.cfi_offset 8, -8
.L105:
.LBB7:
.LM453:
.LM454:
	lw	s0,24(a0)
.LVL140:
.LM455:
	call	free
.LVL141:
.LM456:
.LM457:
	mv	a0,s0
.LM458:
	bne	s0,zero,.L105
.LBE7:
.LM459:
	lw	ra,12(sp)
	.cfi_restore 1
	lw	s0,8(sp)
	.cfi_restore 8
.LVL142:
.LM460:
	addi	sp,sp,16
	.cfi_def_cfa_offset 0
	jr	ra
	.cfi_endproc
.LFE31:
	.size	mbedtls_asn1_free_named_data_list_shallow, .-mbedtls_asn1_free_named_data_list_shallow
	.section	.text.mbedtls_asn1_find_named_data,"ax",@progbits
	.align	1
	.globl	mbedtls_asn1_find_named_data
	.type	mbedtls_asn1_find_named_data, @function
mbedtls_asn1_find_named_data:
.LVL143:
.LFB32:
.LM461:
	.cfi_startproc
.LM462:
.LM463:
	addi	sp,sp,-32
	.cfi_def_cfa_offset 32
	sw	s0,24(sp)
	sw	ra,28(sp)
	.cfi_offset 8, -8
	.cfi_offset 1, -4
.LM464:
	mv	s0,a0
.LVL144:
.L110:
.LM465:
	beq	s0,zero,.L109
.LM466:
.LM467:
	lw	a5,4(s0)
	beq	a5,a2,.L111
.L112:
.LM468:
.LM469:
	lw	s0,24(s0)
.LVL145:
.LM470:
	j	.L110
.L111:
.LM471:
	lw	a0,8(s0)
	sw	a2,12(sp)
	sw	a1,8(sp)
	call	memcmp
.LVL146:
.LM472:
	lw	a1,8(sp)
	lw	a2,12(sp)
	bne	a0,zero,.L112
.L109:
.LM473:
	lw	ra,28(sp)
	.cfi_restore 1
	mv	a0,s0
	lw	s0,24(sp)
	.cfi_restore 8
.LVL147:
.LM474:
	addi	sp,sp,32
	.cfi_def_cfa_offset 0
	jr	ra
	.cfi_endproc
.LFE32:
	.size	mbedtls_asn1_find_named_data, .-mbedtls_asn1_find_named_data
	.text
.Letext0:
	.section	.note.GNU-stack,"",@progbits
