	.file	"base64.c"
	.option nopic
	.attribute arch, "rv32i2p1_m2p0_f2p2_c2p0_zicsr2p0_zmmul1p0_zca1p0_zcf1p0"
	.attribute unaligned_access, 0
	.attribute stack_align, 16
	.text
.Ltext0:
	.cfi_sections	.debug_frame
	.section	.text.mbedtls_ct_uchar_in_range_if,"ax",@progbits
	.align	1
	.type	mbedtls_ct_uchar_in_range_if, @function
mbedtls_ct_uchar_in_range_if:
.LVL0:
.LFB16:
.LM1:
	.cfi_startproc
.LM2:
.LBB6:
.LBI6:
.LM3:
.LBB7:
.LM4:
.LVL1:
.LM5:
.LM6:
.LBE7:
.LBE6:
.LM7:
.LBB8:
.LBI8:
.LM8:
.LBB9:
.LM9:
.LVL2:
.LM10:
.LM11:
.LBE9:
.LBE8:
.LM12:
	andi	a2,a2,255
.LVL3:
.LM13:
.LM14:
.LM15:
	sub	a5,a2,a0
.LM16:
	sub	a0,a1,a2
.LVL4:
.LM17:
	or	a0,a0,a5
.LM18:
	srli	a0,a0,8
.LM19:
	not	a0,a0
.LM20:
	and	a0,a0,a3
.LM21:
	andi	a0,a0,0xff
	ret
	.cfi_endproc
.LFE16:
	.size	mbedtls_ct_uchar_in_range_if, .-mbedtls_ct_uchar_in_range_if
	.section	.text.mbedtls_ct_base64_enc_char,"ax",@progbits
	.align	1
	.type	mbedtls_ct_base64_enc_char, @function
mbedtls_ct_base64_enc_char:
.LVL5:
.LFB39:
.LM22:
	.cfi_startproc
.LM23:
.LM24:
.LM25:
	addi	sp,sp,-16
	.cfi_def_cfa_offset 16
.LM26:
	addi	a3,a0,65
.LM27:
	sw	s1,4(sp)
.LM28:
	mv	a2,a0
	.cfi_offset 9, -12
.LM29:
	mv	s1,a0
.LM30:
	andi	a3,a3,0xff
	li	a1,25
	li	a0,0
.LVL6:
.LM31:
	sw	ra,12(sp)
	sw	s0,8(sp)
	.cfi_offset 1, -4
	.cfi_offset 8, -8
.LM32:
	call	mbedtls_ct_uchar_in_range_if
.LVL7:
.LM33:
	addi	a3,s1,71
	mv	a2,s1
.LM34:
	mv	s0,a0
.LVL8:
.LM35:
.LM36:
	andi	a3,a3,0xff
	li	a1,51
	li	a0,26
	call	mbedtls_ct_uchar_in_range_if
.LVL9:
.LM37:
	addi	a3,s1,-4
	mv	a2,s1
.LM38:
	or	s0,s0,a0
.LVL10:
.LM39:
.LM40:
	andi	a3,a3,0xff
	li	a1,61
	li	a0,52
	call	mbedtls_ct_uchar_in_range_if
.LVL11:
.LM41:
	li	a1,62
	mv	a2,s1
.LM42:
	or	s0,s0,a0
.LVL12:
.LM43:
.LM44:
	li	a3,43
	mv	a0,a1
	call	mbedtls_ct_uchar_in_range_if
.LVL13:
.LM45:
	li	a1,63
.LM46:
	or	s0,s0,a0
.LVL14:
.LM47:
.LM48:
	mv	a2,s1
	li	a3,47
	mv	a0,a1
	call	mbedtls_ct_uchar_in_range_if
.LVL15:
.LM49:
.LM50:
	lw	ra,12(sp)
	.cfi_restore 1
.LM51:
	or	a0,s0,a0
.LVL16:
.LM52:
	lw	s0,8(sp)
	.cfi_restore 8
.LM53:
	lw	s1,4(sp)
	.cfi_restore 9
.LVL17:
.LM54:
	andi	a0,a0,0xff
	addi	sp,sp,16
	.cfi_def_cfa_offset 0
	jr	ra
	.cfi_endproc
.LFE39:
	.size	mbedtls_ct_base64_enc_char, .-mbedtls_ct_base64_enc_char
	.section	.text.mbedtls_ct_base64_dec_value,"ax",@progbits
	.align	1
	.type	mbedtls_ct_base64_dec_value, @function
mbedtls_ct_base64_dec_value:
.LVL18:
.LFB40:
.LM55:
	.cfi_startproc
.LM56:
.LM57:
.LM58:
	addi	sp,sp,-16
	.cfi_def_cfa_offset 16
.LM59:
	addi	a3,a0,-64
.LM60:
	sw	s1,4(sp)
.LM61:
	mv	a2,a0
	.cfi_offset 9, -12
.LM62:
	mv	s1,a0
.LM63:
	andi	a3,a3,0xff
	li	a1,90
	li	a0,65
.LVL19:
.LM64:
	sw	ra,12(sp)
	sw	s0,8(sp)
	.cfi_offset 1, -4
	.cfi_offset 8, -8
.LM65:
	call	mbedtls_ct_uchar_in_range_if
.LVL20:
.LM66:
	addi	a3,s1,-70
	mv	a2,s1
.LM67:
	mv	s0,a0
.LVL21:
.LM68:
.LM69:
	andi	a3,a3,0xff
	li	a1,122
	li	a0,97
	call	mbedtls_ct_uchar_in_range_if
.LVL22:
.LM70:
	addi	a3,s1,5
	mv	a2,s1
.LM71:
	or	s0,s0,a0
.LVL23:
.LM72:
.LM73:
	andi	a3,a3,0xff
	li	a1,57
	li	a0,48
	call	mbedtls_ct_uchar_in_range_if
.LVL24:
.LM74:
	li	a1,43
	addi	a3,s1,20
	mv	a2,s1
.LM75:
	or	s0,s0,a0
.LVL25:
.LM76:
.LM77:
	andi	a3,a3,0xff
	mv	a0,a1
	call	mbedtls_ct_uchar_in_range_if
.LVL26:
.LM78:
	addi	a3,s1,17
	li	a1,47
.LM79:
	or	s0,s0,a0
.LVL27:
.LM80:
.LM81:
	mv	a2,s1
	andi	a3,a3,0xff
	mv	a0,a1
	call	mbedtls_ct_uchar_in_range_if
.LVL28:
.LM82:
.LM83:
	lw	ra,12(sp)
	.cfi_restore 1
.LM84:
	or	a0,s0,a0
.LVL29:
.LM85:
	lw	s0,8(sp)
	.cfi_restore 8
.LM86:
	addi	a0,a0,-1
.LM87:
	slli	a0,a0,24
	lw	s1,4(sp)
	.cfi_restore 9
.LVL30:
.LM88:
	srai	a0,a0,24
	addi	sp,sp,16
	.cfi_def_cfa_offset 0
	jr	ra
	.cfi_endproc
.LFE40:
	.size	mbedtls_ct_base64_dec_value, .-mbedtls_ct_base64_dec_value
	.section	.text.mbedtls_base64_encode,"ax",@progbits
	.align	1
	.globl	mbedtls_base64_encode
	.type	mbedtls_base64_encode, @function
mbedtls_base64_encode:
.LVL31:
.LFB41:
.LM89:
	.cfi_startproc
.LM90:
.LM91:
.LM92:
.LM93:
.LM94:
	bne	a4,zero,.L7
.LM95:
.LM96:
	sw	zero,0(a2)
.LM97:
.LM98:
	li	a0,0
.LVL32:
.LM99:
	ret
.LVL33:
.L7:
.LM100:
	li	a6,3
.LM101:
	addi	sp,sp,-48
	.cfi_def_cfa_offset 48
.LM102:
	remu	a5,a4,a6
.LM103:
	sw	s1,36(sp)
	.cfi_offset 9, -12
	mv	s1,a3
.LM104:
.LM105:
	sw	ra,44(sp)
	sw	s0,40(sp)
	sw	s2,32(sp)
	sw	s3,28(sp)
	sw	s4,24(sp)
	sw	s5,20(sp)
	sw	s6,16(sp)
	sw	s7,12(sp)
	sw	s8,8(sp)
	sw	s9,4(sp)
	.cfi_offset 1, -4
	.cfi_offset 8, -8
	.cfi_offset 18, -16
	.cfi_offset 19, -20
	.cfi_offset 20, -24
	.cfi_offset 21, -28
	.cfi_offset 22, -32
	.cfi_offset 23, -36
	.cfi_offset 24, -40
	.cfi_offset 25, -44
.LM106:
	li	a7,1073741824
.LM107:
	divu	a3,a4,a6
.LVL34:
.LM108:
	snez	a5,a5
.LM109:
	add	a5,a5,a3
.LVL35:
.LM110:
.LM111:
	bgeu	a5,a7,.L18
.LM112:
.LVL36:
.LM113:
.LM114:
	slli	a5,a5,2
.LVL37:
.LM115:
	addi	a5,a5,1
.LVL38:
.LM116:
	bgtu	a5,a1,.L9
	bne	a0,zero,.L10
.LVL39:
.L9:
.LM117:
	sw	a5,0(a2)
.LM118:
	li	a0,-42
.LVL40:
.L6:
.LM119:
	lw	ra,44(sp)
	.cfi_remember_state
	.cfi_restore 1
	lw	s0,40(sp)
	.cfi_restore 8
	lw	s1,36(sp)
	.cfi_restore 9
	lw	s2,32(sp)
	.cfi_restore 18
	lw	s3,28(sp)
	.cfi_restore 19
	lw	s4,24(sp)
	.cfi_restore 20
	lw	s5,20(sp)
	.cfi_restore 21
	lw	s6,16(sp)
	.cfi_restore 22
	lw	s7,12(sp)
	.cfi_restore 23
	lw	s8,8(sp)
	.cfi_restore 24
	lw	s9,4(sp)
	.cfi_restore 25
	addi	sp,sp,48
	.cfi_def_cfa_offset 0
	jr	ra
.LVL41:
.L18:
	.cfi_restore_state
.LM120:
	li	a5,-1
.LVL42:
.LM121:
	j	.L9
.LVL43:
.L10:
.LM122:
	mul	s8,a3,a6
	mv	s9,a4
	mv	s5,a2
	mv	s3,a0
.LM123:
.LVL44:
.LM124:
.LM125:
	mv	s0,a0
.LM126:
	li	s2,0
.LVL45:
.L13:
.LM127:
	bltu	s2,s8,.L14
.LM128:
.LM129:
	bgeu	s2,s9,.L15
.LM130:
.LVL46:
.LM131:
	addi	s2,s2,1
.LVL47:
.LM132:
	lbu	s4,0(s1)
.LVL48:
.LM133:
.LM134:
	li	s6,0
.LM135:
	bgeu	s2,s9,.L16
.LVL49:
.LM136:
	lbu	s6,1(s1)
.LVL50:
.L16:
.LM137:
.LM138:
	srli	a0,s4,2
	call	mbedtls_ct_base64_enc_char
.LVL51:
.LM139:
	slli	s4,s4,4
.LVL52:
.LM140:
	sb	a0,0(s0)
.LM141:
.LVL53:
.LM142:
	andi	s4,s4,48
.LM143:
	srai	a0,s6,4
.LM144:
	add	a0,s4,a0
	call	mbedtls_ct_base64_enc_char
.LVL54:
.LM145:
	sb	a0,1(s0)
.LM146:
	li	a0,61
.LM147:
	bgeu	s2,s9,.L17
.LM148:
.LVL55:
.LM149:
	slli	a0,s6,2
.LM150:
	andi	a0,a0,60
	call	mbedtls_ct_base64_enc_char
.LVL56:
.L17:
.LM151:
	li	a5,61
.LM152:
	sb	a0,2(s0)
.LVL57:
.LM153:
.LM154:
	sb	a5,3(s0)
.LM155:
	addi	s0,s0,4
.LVL58:
.L15:
.LM156:
.LM157:
	sub	s3,s0,s3
.LVL59:
.LM158:
	sw	s3,0(s5)
.LM159:
.LM160:
	sb	zero,0(s0)
.LM161:
.LM162:
	li	a0,0
	j	.L6
.LVL60:
.L14:
.LM163:
.LM164:
	lbu	s6,0(s1)
.LVL61:
.LM165:
.LM166:
	lbu	s4,1(s1)
.LVL62:
.LM167:
.LM168:
	addi	s0,s0,4
.LVL63:
.LM169:
	srli	a0,s6,2
.LM170:
	lbu	s7,2(s1)
.LM171:
	slli	s6,s6,4
.LVL64:
.LM172:
	call	mbedtls_ct_base64_enc_char
.LVL65:
.LM173:
	sb	a0,-4(s0)
.LM174:
	andi	s6,s6,48
.LM175:
	srai	a0,s4,4
.LM176:
	add	a0,s6,a0
	call	mbedtls_ct_base64_enc_char
.LVL66:
.LM177:
	slli	s4,s4,2
.LVL67:
.LM178:
	sb	a0,-3(s0)
.LM179:
	andi	s4,s4,60
.LM180:
	srai	a0,s7,6
.LM181:
	add	a0,s4,a0
	call	mbedtls_ct_base64_enc_char
.LVL68:
.LM182:
	sb	a0,-2(s0)
.LM183:
	andi	a0,s7,63
	call	mbedtls_ct_base64_enc_char
.LVL69:
.LM184:
	addi	s1,s1,3
.LVL70:
.LM185:
.LM186:
.LM187:
.LM188:
.LM189:
	sb	a0,-1(s0)
.LM190:
	addi	s2,s2,3
.LVL71:
.LM191:
	j	.L13
	.cfi_endproc
.LFE41:
	.size	mbedtls_base64_encode, .-mbedtls_base64_encode
	.section	.text.mbedtls_base64_decode,"ax",@progbits
	.align	1
	.globl	mbedtls_base64_decode
	.type	mbedtls_base64_decode, @function
mbedtls_base64_decode:
.LVL72:
.LFB42:
.LM192:
	.cfi_startproc
.LM193:
.LM194:
.LM195:
.LM196:
.LM197:
.LM198:
.LM199:
.LM200:
.LM201:
	addi	sp,sp,-80
	.cfi_def_cfa_offset 80
	sw	s0,72(sp)
	sw	s1,68(sp)
	sw	s2,64(sp)
	sw	s3,60(sp)
	sw	s4,56(sp)
	sw	s5,52(sp)
	sw	s6,48(sp)
	sw	s7,44(sp)
	sw	s8,40(sp)
	sw	s9,36(sp)
	sw	s10,32(sp)
	sw	s11,28(sp)
	sw	ra,76(sp)
	.cfi_offset 8, -8
	.cfi_offset 9, -12
	.cfi_offset 18, -16
	.cfi_offset 19, -20
	.cfi_offset 20, -24
	.cfi_offset 21, -28
	.cfi_offset 22, -32
	.cfi_offset 23, -36
	.cfi_offset 24, -40
	.cfi_offset 25, -44
	.cfi_offset 26, -48
	.cfi_offset 27, -52
	.cfi_offset 1, -4
.LM202:
	mv	s2,a0
	mv	s3,a2
	mv	s5,a3
.LM203:
	li	s4,0
.LM204:
	li	s0,0
.LM205:
	li	s1,0
.LM206:
	li	s7,32
	li	s8,1
	li	s6,10
.LM207:
	li	s9,61
.LM208:
	li	s10,2
.LM209:
	li	s11,13
.LVL73:
.L26:
.LM210:
	bgeu	s1,a4,.L27
.LM211:
	li	a5,0
.L38:
.LVL74:
.LM212:
	add	a3,s5,s1
.LM213:
	lbu	a0,0(a3)
	beq	a0,s7,.L28
.LM214:
.LM215:
.LM216:
	sub	a2,a4,s1
.LM217:
	beq	a2,s8,.L29
.LM218:
	bne	a0,s11,.L29
.LM219:
	lbu	a3,1(a3)
	bne	a3,s6,.L31
.LVL75:
.L30:
.LM220:
.LM221:
	addi	s1,s1,1
.LVL76:
.LM222:
	j	.L26
.LVL77:
.L28:
.LM223:
.LM224:
	addi	s1,s1,1
.LVL78:
.LM225:
.LM226:
	li	a5,1
	bne	a4,s1,.L38
.LVL79:
.L27:
.LM227:
.LM228:
	sub	a5,s0,s4
.LM229:
	andi	a5,a5,3
.LM230:
	li	a4,1
	beq	a5,a4,.L36
.LM231:
.LM232:
	andi	a5,s0,3
.LM233:
	bne	a5,zero,.L36
.LM234:
.LM235:
	srli	s0,s0,2
.LVL80:
.LM236:
	li	a5,3
	mul	s0,s0,a5
.LM237:
	sub	s0,s0,s4
.LM238:
	sw	s0,0(s3)
.LM239:
.LM240:
	bne	s0,zero,.L39
.L41:
.LM241:
	li	s7,-4194304
	add	s4,s5,s1
.LVL81:
.LM242:
	li	s6,0
	mv	s1,s2
	li	a5,0
.LM243:
	li	s8,22
.LM244:
	li	s9,4
.LM245:
	addi	s7,s7,-10
.LM246:
	li	s10,61
.LVL82:
.L40:
.LM247:
	beq	s5,s4,.L43
.LM248:
.LM249:
	lbu	a0,0(s5)
.LM250:
	addi	a4,a0,-10
	andi	a4,a4,0xff
	bleu	a4,s8,.L42
.LM251:
.LM252:
	bne	a0,s10,.L44
.L43:
.LM253:
.LM254:
	li	a4,3
	bne	s6,a4,.L47
.LM255:
.LM256:
	slli	a5,a5,6
.LVL83:
.LM257:
	srli	a4,a5,16
.LM258:
	srli	a5,a5,8
.LM259:
	sb	a4,0(s1)
.LM260:
.LVL84:
.LM261:
	sb	a5,1(s1)
.LM262:
	addi	s1,s1,2
.LVL85:
.L48:
.LM263:
.LM264:
	lw	a5,0(s3)
.LM265:
	sub	s1,s1,s2
.LVL86:
.LM266:
	li	a0,-110
.LM267:
	bne	a5,s1,.L25
.LM268:
	li	a0,0
	j	.L25
.LVL87:
.L29:
.LM269:
.LM270:
	beq	a0,s6,.L30
.L31:
.LM271:
.LM272:
.LM273:
	srli	a3,a0,7
	bne	a3,zero,.L36
	beq	a5,zero,.L32
.LVL88:
.L36:
.LM274:
	li	a0,-44
.LVL89:
.L25:
.LM275:
	lw	ra,76(sp)
	.cfi_remember_state
	.cfi_restore 1
	lw	s0,72(sp)
	.cfi_restore 8
	lw	s1,68(sp)
	.cfi_restore 9
	lw	s2,64(sp)
	.cfi_restore 18
.LVL90:
.LM276:
	lw	s3,60(sp)
	.cfi_restore 19
.LVL91:
.LM277:
	lw	s4,56(sp)
	.cfi_restore 20
	lw	s5,52(sp)
	.cfi_restore 21
.LVL92:
.LM278:
	lw	s6,48(sp)
	.cfi_restore 22
	lw	s7,44(sp)
	.cfi_restore 23
	lw	s8,40(sp)
	.cfi_restore 24
	lw	s9,36(sp)
	.cfi_restore 25
	lw	s10,32(sp)
	.cfi_restore 26
	lw	s11,28(sp)
	.cfi_restore 27
	addi	sp,sp,80
	.cfi_def_cfa_offset 0
	jr	ra
.LVL93:
.L32:
	.cfi_restore_state
.LM279:
.LM280:
	bne	a0,s9,.L35
.LM281:
.LM282:
	addi	s4,s4,1
.LVL94:
.LM283:
	bgtu	s4,s10,.L36
.LVL95:
.L37:
.LM284:
.LM285:
	addi	s0,s0,1
.LVL96:
.LM286:
	j	.L30
.LVL97:
.L35:
.LM287:
.LM288:
	bne	s4,zero,.L36
.LM289:
.LM290:
	sw	a1,8(sp)
	sw	a4,12(sp)
	call	mbedtls_ct_base64_dec_value
.LVL98:
.LM291:
	lw	a1,8(sp)
	lw	a4,12(sp)
	bge	a0,zero,.L37
	j	.L36
.LVL99:
.L39:
.LM292:
	beq	s2,zero,.L51
	bleu	s0,a1,.L41
.L51:
.LM293:
	li	a0,-42
	j	.L25
.LVL100:
.L42:
.LM294:
	sra	a4,s7,a4
.LM295:
	andi	a4,a4,1
	beq	a4,zero,.L45
.L44:
.LM296:
.LM297:
	slli	s0,a5,6
.LVL101:
.LM298:
.LM299:
	addi	s6,s6,1
.LVL102:
.LM300:
	call	mbedtls_ct_base64_dec_value
.LVL103:
.LM301:
	or	a5,a0,s0
.LVL104:
.LM302:
.LM303:
	bne	s6,s9,.L45
.LM304:
.LVL105:
.LM305:
.LM306:
	srli	a4,a5,16
.LM307:
	sb	a4,0(s1)
.LM308:
.LVL106:
.LM309:
	srli	a4,a5,8
.LM310:
	sb	a4,1(s1)
.LM311:
.LVL107:
.LM312:
	sb	a5,2(s1)
.LM313:
	li	s6,0
.LM314:
	addi	s1,s1,3
.LVL108:
.L45:
.LM315:
.LM316:
	addi	s5,s5,1
.LVL109:
.LM317:
	j	.L40
.LVL110:
.L47:
.LM318:
.LM319:
	li	a4,2
	bne	s6,a4,.L48
.LM320:
.LVL111:
.LM321:
	slli	a5,a5,12
.LVL112:
.LM322:
	srli	a5,a5,16
.LM323:
	sb	a5,0(s1)
.LM324:
	addi	s1,s1,1
.LVL113:
.LM325:
	j	.L48
	.cfi_endproc
.LFE42:
	.size	mbedtls_base64_decode, .-mbedtls_base64_decode
	.section	.rodata.mbedtls_base64_self_test.str1.4,"aMS",@progbits,1
	.align	2
.LC0:
	.string	"  Base64 encoding test: "
	.align	2
.LC1:
	.string	"failed\n"
	.align	2
.LC2:
	.string	"passed\n  Base64 decoding test: "
	.align	2
.LC3:
	.string	"passed\n\n"
	.section	.text.mbedtls_base64_self_test,"ax",@progbits
	.align	1
	.globl	mbedtls_base64_self_test
	.type	mbedtls_base64_self_test, @function
mbedtls_base64_self_test:
.LVL114:
.LFB43:
.LM326:
	.cfi_startproc
.LM327:
.LM328:
.LM329:
.LM330:
.LM331:
	addi	sp,sp,-160
	.cfi_def_cfa_offset 160
	sw	s1,148(sp)
	sw	ra,156(sp)
	sw	s0,152(sp)
	sw	s2,144(sp)
	.cfi_offset 9, -12
	.cfi_offset 1, -4
	.cfi_offset 8, -8
	.cfi_offset 18, -16
.LM332:
	mv	s1,a0
.LM333:
	beq	a0,zero,.L58
.LM334:
	lui	a0,%hi(.LC0)
.LVL115:
.LM335:
	addi	a0,a0,%lo(.LC0)
	call	printf
.LVL116:
.L58:
.LM336:
.LM337:
.LM338:
	lui	s0,%hi(base64_test_dec)
	li	a4,64
	addi	a3,s0,%lo(base64_test_dec)
	addi	a2,sp,12
	li	a1,128
	addi	a0,sp,16
	call	mbedtls_base64_encode
.LVL117:
.LM339:
	bne	a0,zero,.L60
.LM340:
	lui	s2,%hi(base64_test_enc)
	li	a2,88
	addi	a1,sp,16
	addi	a0,s2,%lo(base64_test_enc)
	call	memcmp
.LVL118:
.LM341:
	beq	a0,zero,.L79
.LVL119:
.L60:
.LM342:
.LM343:
	beq	s1,zero,.L63
.LM344:
	lui	a0,%hi(.LC1)
	addi	a0,a0,%lo(.LC1)
	call	printf
.LVL120:
.L63:
.LM345:
	li	s0,1
	j	.L57
.LVL121:
.L79:
.LM346:
.LM347:
	beq	s1,zero,.L64
.LM348:
	lui	a0,%hi(.LC2)
	addi	a0,a0,%lo(.LC2)
	call	printf
.LVL122:
.L64:
.LM349:
.LM350:
.LM351:
	li	a4,88
	addi	a3,s2,%lo(base64_test_enc)
	addi	a2,sp,12
	li	a1,128
	addi	a0,sp,16
	call	mbedtls_base64_decode
.LVL123:
.LM352:
	bne	a0,zero,.L60
.LM353:
	addi	a0,s0,%lo(base64_test_dec)
	li	a2,64
	addi	a1,sp,16
	call	memcmp
.LVL124:
	mv	s0,a0
.LM354:
	bne	a0,zero,.L60
.LM355:
.LM356:
	beq	s1,zero,.L57
.LM357:
	lui	a0,%hi(.LC3)
	addi	a0,a0,%lo(.LC3)
	call	printf
.LVL125:
.L57:
.LM358:
	lw	ra,156(sp)
	.cfi_restore 1
	mv	a0,s0
	lw	s0,152(sp)
	.cfi_restore 8
	lw	s1,148(sp)
	.cfi_restore 9
.LVL126:
.LM359:
	lw	s2,144(sp)
	.cfi_restore 18
	addi	sp,sp,160
	.cfi_def_cfa_offset 0
	jr	ra
	.cfi_endproc
.LFE43:
	.size	mbedtls_base64_self_test, .-mbedtls_base64_self_test
	.section	.rodata.base64_test_enc,"a"
	.align	2
	.type	base64_test_enc, @object
	.size	base64_test_enc, 89
base64_test_enc:
	.string	"JEhuVodiWr2/F9mixBcaAZTtjx4Rs9cJDLbpEG8i7hPKswcFdsn6MWwINP+Nwmw4AEPpVJevUEvRQbqVMVoLlw=="
	.section	.rodata.base64_test_dec,"a"
	.align	2
	.type	base64_test_dec, @object
	.size	base64_test_dec, 64
base64_test_dec:
	.base64	"JEhuVodiWr2/F9mixBcaAZTtjx4Rs9cJDLbpEG8i7hPKswcFdsn6MWwINP+Nwmw4AEPpVJevUEvRQbqVMVoLlw=="
	.text
.Letext0:
	.section	.note.GNU-stack,"",@progbits
