	.file	"bignum_core.c"
	.option nopic
	.attribute arch, "rv32i2p1_m2p0_f2p2_c2p0_zicsr2p0_zmmul1p0_zca1p0_zcf1p0"
	.attribute unaligned_access, 0
	.attribute stack_align, 16
	.text
.Ltext0:
	.cfi_sections	.debug_frame
	.section	.text.mbedtls_ct_bool,"ax",@progbits
	.align	1
	.type	mbedtls_ct_bool, @function
mbedtls_ct_bool:
.LVL0:
.LFB13:
.LM1:
	.cfi_startproc
.LM2:
.LBB121:
.LBI121:
.LM3:
.LBB122:
.LM4:
.LVL1:
.LM5:
.LM6:
.LBE122:
.LBE121:
.LM7:
.LM8:
.LM9:
.LM10:
	srli	a5,a0,1
.LM11:
	neg	a5,a5
.LM12:
	neg	a0,a0
.LVL2:
.LM13:
	or	a0,a5,a0
.LVL3:
.LM14:
	srai	a0,a0,31
	ret
	.cfi_endproc
.LFE13:
	.size	mbedtls_ct_bool, .-mbedtls_ct_bool
	.section	.text.mbedtls_ct_uint_lt,"ax",@progbits
	.align	1
	.type	mbedtls_ct_uint_lt, @function
mbedtls_ct_uint_lt:
.LVL4:
.LFB15:
.LM15:
	.cfi_startproc
.LM16:
.LBB123:
.LBI123:
.LM17:
.LBB124:
.LM18:
.LBE124:
.LBE123:
.LM19:
	addi	sp,sp,-32
	.cfi_def_cfa_offset 32
	sw	s0,24(sp)
	sw	ra,28(sp)
	.cfi_offset 8, -8
	.cfi_offset 1, -4
.LBB126:
.LBB125:
.LM20:
	mv	s0,a0
.LVL5:
.LM21:
.LM22:
.LBE125:
.LBE126:
.LM23:
.LBB127:
.LBI127:
.LM24:
.LBB128:
.LM25:
.LVL6:
.LM26:
.LM27:
.LBE128:
.LBE127:
.LM28:
.LM29:
	xor	a0,a1,s0
.LVL7:
.LM30:
	srli	a0,a0,31
.LM31:
	sw	a1,12(sp)
.LM32:
	call	mbedtls_ct_bool
.LVL8:
.LM33:
.LBB129:
.LBI129:
.LM34:
.LBB130:
.LM35:
.LBB131:
.LBI131:
.LM36:
.LBB132:
.LM37:
	mv	a5,a0
.LVL9:
.LM38:
.LM39:
.LBE132:
.LBE131:
.LM40:
.LM41:
.LBE130:
.LBE129:
.LM42:
.LM43:
.LM44:
	lw	a1,12(sp)
.LBB135:
.LBB133:
.LM45:
	not	a5,a5
.LVL10:
.LM46:
.LBE133:
.LBE135:
.LM47:
	lw	ra,28(sp)
	.cfi_restore 1
.LM48:
	sub	s0,s0,a1
.LVL11:
.LBB136:
.LBB134:
.LM49:
	and	s0,s0,a5
.LM50:
	and	a0,a0,a1
.LVL12:
.LM51:
	or	a0,s0,a0
.LBE134:
.LBE136:
.LM52:
	lw	s0,24(sp)
	.cfi_restore 8
.LM53:
	srli	a0,a0,31
.LVL13:
.LM54:
	addi	sp,sp,32
	.cfi_def_cfa_offset 0
.LVL14:
.LM55:
	tail	mbedtls_ct_bool
.LVL15:
.LM56:
	.cfi_endproc
.LFE15:
	.size	mbedtls_ct_uint_lt, .-mbedtls_ct_uint_lt
	.section	.text.mbedtls_mpi_core_clz,"ax",@progbits
	.align	1
	.globl	mbedtls_mpi_core_clz
	.type	mbedtls_mpi_core_clz, @function
mbedtls_mpi_core_clz:
.LVL16:
.LFB40:
.LM57:
	.cfi_startproc
.LM58:
.LM59:
	addi	sp,sp,-16
	.cfi_def_cfa_offset 16
	sw	ra,12(sp)
	.cfi_offset 1, -4
.LM60:
	call	__clzsi2
.LVL17:
.LM61:
	lw	ra,12(sp)
	.cfi_restore 1
	addi	sp,sp,16
	.cfi_def_cfa_offset 0
	jr	ra
	.cfi_endproc
.LFE40:
	.size	mbedtls_mpi_core_clz, .-mbedtls_mpi_core_clz
	.section	.text.mbedtls_mpi_core_bitlen,"ax",@progbits
	.align	1
	.globl	mbedtls_mpi_core_bitlen
	.type	mbedtls_mpi_core_bitlen, @function
mbedtls_mpi_core_bitlen:
.LVL18:
.LFB41:
.LM62:
	.cfi_startproc
.LM63:
.LM64:
.LM65:
.LM66:
	addi	sp,sp,-16
	.cfi_def_cfa_offset 16
	sw	s0,8(sp)
	sw	ra,12(sp)
	.cfi_offset 8, -8
	.cfi_offset 1, -4
.LM67:
	addi	s0,a1,-1
.LVL19:
.L7:
.LM68:
	bge	s0,zero,.L10
.LM69:
	li	a0,0
.LVL20:
.LM70:
	j	.L6
.LVL21:
.L10:
.LM71:
.LM72:
	slli	a5,s0,2
	add	a5,a0,a5
	lw	a5,0(a5)
.LM73:
	beq	a5,zero,.L8
.LM74:
.LVL22:
.LBB137:
.LBI137:
.LM75:
.LBB138:
.LM76:
.LM77:
	mv	a0,a5
.LVL23:
.LM78:
.LBE138:
.LBE137:
.LM79:
	addi	s0,s0,1
.LVL24:
.LBB140:
.LBB139:
.LM80:
	call	__clzsi2
.LVL25:
.LM81:
.LBE139:
.LBE140:
.LM82:
.LM83:
	slli	s0,s0,5
.LVL26:
.LM84:
	sub	a0,s0,a0
.LVL27:
.L6:
.LM85:
	lw	ra,12(sp)
	.cfi_remember_state
	.cfi_restore 1
	lw	s0,8(sp)
	.cfi_restore 8
	addi	sp,sp,16
	.cfi_def_cfa_offset 0
	jr	ra
.LVL28:
.L8:
	.cfi_restore_state
.LM86:
	addi	s0,s0,-1
.LVL29:
.LM87:
	j	.L7
	.cfi_endproc
.LFE41:
	.size	mbedtls_mpi_core_bitlen, .-mbedtls_mpi_core_bitlen
	.section	.text.mbedtls_mpi_core_bigendian_to_host,"ax",@progbits
	.align	1
	.globl	mbedtls_mpi_core_bigendian_to_host
	.type	mbedtls_mpi_core_bigendian_to_host, @function
mbedtls_mpi_core_bigendian_to_host:
.LVL30:
.LFB43:
.LM88:
	.cfi_startproc
.LM89:
.LM90:
.LM91:
.LM92:
	beq	a1,zero,.L18
.LM93:
	addi	sp,sp,-16
	.cfi_def_cfa_offset 16
	sw	s0,8(sp)
	.cfi_offset 8, -8
.LBB148:
.LBB149:
.LM94:
	slli	s0,a1,2
	addi	s0,s0,-4
.LBE149:
.LBE148:
.LM95:
	sw	s1,4(sp)
	sw	ra,12(sp)
	sw	s2,0(sp)
	.cfi_offset 9, -12
	.cfi_offset 1, -4
	.cfi_offset 18, -16
	mv	s1,a0
.LVL31:
.LBB160:
.LBI148:
.LM96:
.LBB158:
.LM97:
.LM98:
	add	s0,a0,s0
.LVL32:
.L14:
.LM99:
	bleu	s1,s0,.L15
.LM100:
.LBE158:
.LBE160:
.LM101:
	lw	ra,12(sp)
	.cfi_remember_state
	.cfi_restore 1
	lw	s0,8(sp)
	.cfi_restore 8
.LVL33:
.LM102:
	lw	s1,4(sp)
	.cfi_restore 9
.LVL34:
.LM103:
	lw	s2,0(sp)
	.cfi_restore 18
	addi	sp,sp,16
	.cfi_def_cfa_offset 0
	jr	ra
.LVL35:
.L15:
	.cfi_restore_state
.LBB161:
.LBB159:
.LBB150:
.LM104:
.LM105:
.LBB151:
.LBI151:
.LM106:
.LBB152:
.LM107:
.LM108:
.LM109:
	lw	a0,0(s1)
.LBE152:
.LBE151:
.LBE150:
.LM110:
	addi	s0,s0,-4
.LVL36:
.LBB157:
.LBB154:
.LBB153:
.LM111:
	call	__bswapsi2
.LVL37:
.LM112:
	mv	s2,a0
.LVL38:
.LM113:
.LBE153:
.LBE154:
.LM114:
.LBB155:
.LBI155:
.LM115:
.LBB156:
.LM116:
.LM117:
.LM118:
	lw	a0,4(s0)
.LVL39:
.LM119:
	call	__bswapsi2
.LVL40:
.LBE156:
.LBE155:
.LM120:
	sw	a0,0(s1)
.LM121:
.LM122:
	sw	s2,4(s0)
.LBE157:
.LM123:
.LM124:
	addi	s1,s1,4
.LVL41:
.LM125:
	j	.L14
.LVL42:
.L18:
	.cfi_def_cfa_offset 0
	.cfi_restore 1
	.cfi_restore 8
	.cfi_restore 9
	.cfi_restore 18
.LM126:
	ret
.LBE159:
.LBE161:
	.cfi_endproc
.LFE43:
	.size	mbedtls_mpi_core_bigendian_to_host, .-mbedtls_mpi_core_bigendian_to_host
	.section	.text.mbedtls_mpi_core_uint_le_mpi,"ax",@progbits
	.align	1
	.globl	mbedtls_mpi_core_uint_le_mpi
	.type	mbedtls_mpi_core_uint_le_mpi, @function
mbedtls_mpi_core_uint_le_mpi:
.LVL43:
.LFB44:
.LM127:
	.cfi_startproc
.LM128:
.LM129:
	addi	sp,sp,-32
	.cfi_def_cfa_offset 32
	sw	s0,24(sp)
	sw	s2,16(sp)
	sw	s3,12(sp)
	sw	s4,8(sp)
	sw	ra,28(sp)
	sw	s1,20(sp)
	.cfi_offset 8, -8
	.cfi_offset 18, -16
	.cfi_offset 19, -20
	.cfi_offset 20, -24
	.cfi_offset 1, -4
	.cfi_offset 9, -12
.LM130:
	mv	s3,a1
.LVL44:
.LBB171:
.LBI171:
.LM131:
.LBB172:
.LM132:
.LM133:
	mv	a1,a0
.LVL45:
.LM134:
	lw	a0,0(s3)
.LVL46:
.LM135:
.LBE172:
.LBE171:
.LM136:
	mv	s4,a2
.LBB174:
.LBB175:
.LM137:
	li	s0,0
.LBE175:
.LBE174:
.LBB177:
.LBB173:
.LM138:
	call	mbedtls_ct_uint_lt
.LVL47:
.LM139:
	not	s2,a0
.LVL48:
.LM140:
.LBE173:
.LBE177:
.LM141:
.LBB178:
.LBI174:
.LM142:
.LBB176:
.LM143:
.LVL49:
.LM144:
.LM145:
.LBE176:
.LBE178:
.LM146:
.LBB179:
.LM147:
.LM148:
	li	s1,1
.LVL50:
.L22:
.LM149:
	bltu	s1,s4,.L23
.LM150:
.LBE179:
.LM151:
.LVL51:
.LBB182:
.LBI182:
.LM152:
.LBB183:
.LM153:
.LM154:
.LBE183:
.LBE182:
.LM155:
	or	a0,s0,s2
	lw	ra,28(sp)
	.cfi_remember_state
	.cfi_restore 1
	lw	s0,24(sp)
	.cfi_restore 8
.LVL52:
.LM156:
	lw	s1,20(sp)
	.cfi_restore 9
.LVL53:
.LM157:
	lw	s2,16(sp)
	.cfi_restore 18
.LVL54:
.LM158:
	lw	s3,12(sp)
	.cfi_restore 19
.LVL55:
.LM159:
	lw	s4,8(sp)
	.cfi_restore 20
.LVL56:
.LM160:
	addi	sp,sp,32
	.cfi_def_cfa_offset 0
	jr	ra
.LVL57:
.L23:
	.cfi_restore_state
.LBB184:
.LM161:
.LM162:
	slli	a5,s1,2
	add	a5,s3,a5
	lw	a0,0(a5)
.LM163:
	addi	s1,s1,1
.LVL58:
.LM164:
	call	mbedtls_ct_bool
.LVL59:
.LBB180:
.LBI180:
.LM165:
.LBB181:
.LM166:
.LM167:
	or	s0,s0,a0
.LVL60:
.LM168:
.LBE181:
.LBE180:
.LM169:
	j	.L22
.LBE184:
	.cfi_endproc
.LFE44:
	.size	mbedtls_mpi_core_uint_le_mpi, .-mbedtls_mpi_core_uint_le_mpi
	.section	.text.mbedtls_mpi_core_lt_ct,"ax",@progbits
	.align	1
	.globl	mbedtls_mpi_core_lt_ct
	.type	mbedtls_mpi_core_lt_ct, @function
mbedtls_mpi_core_lt_ct:
.LVL61:
.LFB45:
.LM170:
	.cfi_startproc
.LM171:
.LBB185:
.LBI185:
.LM172:
.LBB186:
.LM173:
.LBE186:
.LBE185:
.LM174:
	addi	sp,sp,-48
	.cfi_def_cfa_offset 48
	sw	s0,40(sp)
	.cfi_offset 8, -8
.LBB189:
.LBB187:
.LM175:
	li	s0,0
.LBE187:
.LBE189:
.LM176:
	sw	s2,32(sp)
	sw	s6,16(sp)
	sw	s7,12(sp)
	sw	ra,44(sp)
	sw	s1,36(sp)
	sw	s3,28(sp)
	sw	s4,24(sp)
	sw	s5,20(sp)
	.cfi_offset 18, -16
	.cfi_offset 22, -32
	.cfi_offset 23, -36
	.cfi_offset 1, -4
	.cfi_offset 9, -12
	.cfi_offset 19, -20
	.cfi_offset 20, -24
	.cfi_offset 21, -28
.LM177:
	mv	s6,a0
	mv	s7,a1
.LBB190:
.LBB188:
.LM178:
	mv	s2,s0
.LM179:
.LVL62:
.LM180:
.LBE188:
.LBE190:
.LBB191:
.LBI191:
.LM181:
.LBB192:
.LM182:
	mv	a5,s0
.LVL63:
.LM183:
.LM184:
.LBE192:
.LBE191:
.LBB193:
.LBI193:
.LM185:
.LBB194:
.LM186:
.LVL64:
.LM187:
.LM188:
.LBE194:
.LBE193:
.LM189:
.LBB195:
.LM190:
.LM191:
	li	s3,-1
	addi	s1,a2,-1
.LVL65:
.L26:
.LM192:
	bne	s1,s3,.L27
.LM193:
.LBE195:
.LM194:
.LM195:
	lw	ra,44(sp)
	.cfi_remember_state
	.cfi_restore 1
	lw	s0,40(sp)
	.cfi_restore 8
.LVL66:
.LM196:
	lw	s1,36(sp)
	.cfi_restore 9
.LVL67:
.LM197:
	lw	s3,28(sp)
	.cfi_restore 19
	lw	s4,24(sp)
	.cfi_restore 20
	lw	s5,20(sp)
	.cfi_restore 21
	lw	s6,16(sp)
	.cfi_restore 22
.LVL68:
.LM198:
	lw	s7,12(sp)
	.cfi_restore 23
.LVL69:
.LM199:
	mv	a0,s2
	lw	s2,32(sp)
	.cfi_restore 18
.LVL70:
.LM200:
	addi	sp,sp,48
	.cfi_def_cfa_offset 0
	jr	ra
.LVL71:
.L27:
	.cfi_restore_state
.LBB212:
.LM201:
	slli	a5,s1,2
.LM202:
	add	a4,s7,a5
	add	a5,s6,a5
	lw	a5,0(a5)
	lw	a4,0(a4)
	addi	s1,s1,-1
.LVL72:
.LM203:
	mv	a1,a5
	mv	a0,a4
	mv	s5,a5
	mv	s4,a4
	call	mbedtls_ct_uint_lt
.LVL73:
.LM204:
.LBB196:
.LBI196:
.LM205:
.LBB197:
.LM206:
.LM207:
	or	s0,s0,a0
.LVL74:
.LM208:
.LBE197:
.LBE196:
.LM209:
.LM210:
	mv	a1,s4
	mv	a0,s5
.LVL75:
.LM211:
	call	mbedtls_ct_uint_lt
.LVL76:
.LM212:
.LBB198:
.LBI198:
.LM213:
.LBB199:
.LM214:
.LM215:
.LBE199:
.LBE198:
.LBB201:
.LBI201:
.LM216:
.LBB202:
.LM217:
.LM218:
.LBE202:
.LBE201:
.LBB204:
.LBI204:
.LM219:
.LBB205:
.LM220:
.LBE205:
.LBE204:
.LBB207:
.LBB200:
.LM221:
	not	a5,s0
.LBE200:
.LBE207:
.LBB208:
.LBB203:
.LM222:
	and	a5,a5,a0
.LVL77:
.LM223:
.LBE203:
.LBE208:
.LBB209:
.LBB206:
.LM224:
	or	s2,s2,a5
.LVL78:
.LM225:
.LBE206:
.LBE209:
.LM226:
.LBB210:
.LBI210:
.LM227:
.LBB211:
.LM228:
.LM229:
	or	s0,a0,s0
.LVL79:
.LM230:
.LBE211:
.LBE210:
.LM231:
.LM232:
	j	.L26
.LBE212:
	.cfi_endproc
.LFE45:
	.size	mbedtls_mpi_core_lt_ct, .-mbedtls_mpi_core_lt_ct
	.section	.text.mbedtls_mpi_core_cond_assign,"ax",@progbits
	.align	1
	.globl	mbedtls_mpi_core_cond_assign
	.type	mbedtls_mpi_core_cond_assign, @function
mbedtls_mpi_core_cond_assign:
.LVL80:
.LFB46:
.LM233:
	.cfi_startproc
.LM234:
.LBB222:
.LBB223:
.LM235:
	li	a6,0
.LBE223:
.LBE222:
.LM236:
	bne	a0,a1,.L31
.L29:
.LM237:
	ret
.LVL81:
.L32:
.LBB233:
.LBB232:
.LM238:
.LBB224:
.LBI224:
.LM239:
.LM240:
.LBB225:
.LBI225:
.LM241:
.LBB226:
.LM242:
.LBB227:
.LBI227:
.LM243:
.LBB228:
.LM244:
	mv	a5,a3
.LVL82:
.LM245:
.LM246:
.LBE228:
.LBE227:
.LM247:
.LM248:
.LBE226:
.LBE225:
.LBE224:
.LM249:
	slli	a4,a6,2
	add	a4,a1,a4
.LBB231:
.LBB230:
.LBB229:
.LM250:
	lw	a7,0(a0)
.LM251:
	lw	a4,0(a4)
.LM252:
	not	a5,a5
.LM253:
	and	a5,a5,a7
.LM254:
	and	a4,a3,a4
.LM255:
	or	a5,a4,a5
.LBE229:
.LBE230:
.LBE231:
.LM256:
	sw	a5,0(a0)
.LM257:
	addi	a6,a6,1
.LVL83:
.LM258:
	addi	a0,a0,4
.LVL84:
.L31:
.LM259:
	bne	a2,a6,.L32
	ret
.LBE232:
.LBE233:
	.cfi_endproc
.LFE46:
	.size	mbedtls_mpi_core_cond_assign, .-mbedtls_mpi_core_cond_assign
	.section	.text.mbedtls_mpi_core_cond_swap,"ax",@progbits
	.align	1
	.globl	mbedtls_mpi_core_cond_swap
	.type	mbedtls_mpi_core_cond_swap, @function
mbedtls_mpi_core_cond_swap:
.LVL85:
.LFB47:
.LM260:
	.cfi_startproc
.LM261:
.LBB249:
.LBB250:
.LM262:
	li	a7,0
.LBE250:
.LBE249:
.LM263:
	bne	a0,a1,.L35
.L33:
.LM264:
	ret
.LVL86:
.L36:
.LBB263:
.LBB262:
.LBB251:
.LM265:
.LM266:
	lw	a6,0(a0)
.LVL87:
.LM267:
.LBB252:
.LBI252:
.LM268:
.LM269:
.LBB253:
.LBI253:
.LM270:
.LBB254:
.LM271:
.LBB255:
.LBI255:
.LM272:
.LBB256:
.LM273:
	mv	a5,a3
.LVL88:
.LM274:
.LM275:
.LBE256:
.LBE255:
.LM276:
.LM277:
	lw	a4,0(a1)
.LM278:
	not	a5,a5
.LM279:
	and	a5,a5,a6
.LM280:
	and	a4,a3,a4
.LM281:
	or	a5,a4,a5
.LBE254:
.LBE253:
.LBE252:
.LM282:
	sw	a5,0(a0)
.LM283:
.LVL89:
.LBB257:
.LBI257:
.LM284:
.LM285:
.LBB258:
.LBI258:
.LM286:
.LBB259:
.LM287:
.LBB260:
.LBI260:
.LM288:
.LBB261:
.LM289:
	mv	a5,a3
.LVL90:
.LM290:
.LM291:
.LBE261:
.LBE260:
.LM292:
.LM293:
	lw	a4,0(a1)
.LM294:
	not	a5,a5
.LM295:
	and	a6,a3,a6
.LVL91:
.LM296:
	and	a5,a5,a4
.LM297:
	or	a5,a5,a6
.LBE259:
.LBE258:
.LBE257:
.LM298:
	sw	a5,0(a1)
.LBE251:
.LM299:
	addi	a7,a7,1
.LVL92:
.LM300:
	addi	a0,a0,4
	addi	a1,a1,4
.LVL93:
.L35:
.LM301:
	bne	a2,a7,.L36
	ret
.LBE262:
.LBE263:
	.cfi_endproc
.LFE47:
	.size	mbedtls_mpi_core_cond_swap, .-mbedtls_mpi_core_cond_swap
	.section	.text.mbedtls_mpi_core_read_le,"ax",@progbits
	.align	1
	.globl	mbedtls_mpi_core_read_le
	.type	mbedtls_mpi_core_read_le, @function
mbedtls_mpi_core_read_le:
.LVL94:
.LFB48:
.LM302:
	.cfi_startproc
.LM303:
.LM304:
.LM305:
	andi	a5,a3,3
.LM306:
	snez	a5,a5
.LM307:
	srli	a6,a3,2
.LM308:
	add	a5,a5,a6
.LM309:
	bgtu	a5,a1,.L43
.LM310:
.LM311:
	bne	a0,zero,.L39
.LM312:
	li	a0,0
.LVL95:
.LM313:
	ret
.LVL96:
.L39:
.LM314:
	addi	sp,sp,-32
	.cfi_def_cfa_offset 32
	sw	s0,24(sp)
	.cfi_offset 8, -8
	mv	s0,a2
.LM315:
	slli	a2,a1,2
.LVL97:
.LM316:
	li	a1,0
.LVL98:
.LM317:
	sw	a3,12(sp)
.LM318:
	sw	ra,28(sp)
	.cfi_offset 1, -4
	sw	a0,8(sp)
.LM319:
	call	memset
.LVL99:
.LM320:
.LBB264:
.LM321:
.LM322:
	lw	a4,8(sp)
	lw	a3,12(sp)
.LM323:
	li	a5,0
.LVL100:
.L40:
.LM324:
	bne	a5,a3,.L41
.LBE264:
.LM325:
	lw	ra,28(sp)
	.cfi_remember_state
	.cfi_restore 1
	lw	s0,24(sp)
	.cfi_restore 8
.LVL101:
.LM326:
	li	a0,0
.LM327:
	addi	sp,sp,32
	.cfi_def_cfa_offset 0
.LVL102:
.LM328:
	jr	ra
.LVL103:
.L41:
	.cfi_restore_state
.LBB267:
.LBB265:
.LM329:
.LM330:
.LM331:
	add	a2,s0,a5
.LM332:
	lbu	a0,0(a2)
.LM333:
	andi	a1,a5,-4
.LM334:
	slli	a2,a5,3
.LM335:
	add	a1,a4,a1
.LM336:
	andi	a2,a2,24
.LVL104:
.LM337:
	sll	a0,a0,a2
.LM338:
	lw	a2,0(a1)
.LVL105:
.LM339:
.LBE265:
.LM340:
	addi	a5,a5,1
.LVL106:
.LBB266:
.LM341:
	or	a2,a2,a0
	sw	a2,0(a1)
.LBE266:
.LM342:
	j	.L40
.LVL107:
.L43:
	.cfi_def_cfa_offset 0
	.cfi_restore 1
	.cfi_restore 8
.LM343:
.LBE267:
.LM344:
	li	a0,-8
.LVL108:
.LM345:
	ret
	.cfi_endproc
.LFE48:
	.size	mbedtls_mpi_core_read_le, .-mbedtls_mpi_core_read_le
	.section	.text.mbedtls_mpi_core_read_be,"ax",@progbits
	.align	1
	.globl	mbedtls_mpi_core_read_be
	.type	mbedtls_mpi_core_read_be, @function
mbedtls_mpi_core_read_be:
.LVL109:
.LFB49:
.LM346:
	.cfi_startproc
.LM347:
.LM348:
.LM349:
	andi	a5,a3,3
.LM350:
	snez	a5,a5
.LM351:
	srli	a4,a3,2
.LM352:
	add	a5,a5,a4
.LM353:
	bgtu	a5,a1,.L52
.LM354:
.LM355:
	beq	a1,zero,.L60
.LM356:
	addi	sp,sp,-48
	.cfi_def_cfa_offset 48
	sw	s1,36(sp)
	sw	s3,28(sp)
	.cfi_offset 9, -12
	.cfi_offset 19, -20
	mv	s1,a1
.LM357:
	mv	s3,a2
	slli	a2,a1,2
.LVL110:
.LM358:
	li	a1,0
.LVL111:
.LM359:
	sw	s0,40(sp)
	sw	s2,32(sp)
.LM360:
	sw	a2,12(sp)
.LM361:
	sw	ra,44(sp)
	.cfi_offset 8, -8
	.cfi_offset 18, -16
	.cfi_offset 1, -4
	mv	s2,a0
	mv	s0,a3
.LM362:
	call	memset
.LVL112:
.LM363:
.LM364:
	lw	a2,12(sp)
	beq	s0,zero,.L51
.LBB268:
.LM365:
.LVL113:
.LM366:
.LM367:
.LM368:
	sub	a0,a2,s0
.LVL114:
.LM369:
	mv	a1,s3
	mv	a2,s0
	add	a0,s2,a0
.LVL115:
.LM370:
	call	memcpy
.LVL116:
.L51:
.LM371:
.LBE268:
.LM372:
	mv	a0,s2
	mv	a1,s1
	call	mbedtls_mpi_core_bigendian_to_host
.LVL117:
.LM373:
.LM374:
	lw	ra,44(sp)
	.cfi_restore 1
	lw	s0,40(sp)
	.cfi_restore 8
.LVL118:
.LM375:
	lw	s1,36(sp)
	.cfi_restore 9
.LVL119:
.LM376:
	lw	s2,32(sp)
	.cfi_restore 18
.LVL120:
.LM377:
	lw	s3,28(sp)
	.cfi_restore 19
.LVL121:
.LM378:
	li	a0,0
.LM379:
	addi	sp,sp,48
	.cfi_def_cfa_offset 0
	jr	ra
.LVL122:
.L52:
.LM380:
	li	a0,-8
.LVL123:
.LM381:
	ret
.LVL124:
.L60:
.LM382:
	li	a0,0
.LVL125:
.LM383:
	ret
	.cfi_endproc
.LFE49:
	.size	mbedtls_mpi_core_read_be, .-mbedtls_mpi_core_read_be
	.section	.text.mbedtls_mpi_core_write_le,"ax",@progbits
	.align	1
	.globl	mbedtls_mpi_core_write_le
	.type	mbedtls_mpi_core_write_le, @function
mbedtls_mpi_core_write_le:
.LVL126:
.LFB50:
.LM384:
	.cfi_startproc
.LM385:
.LM386:
	slli	a5,a1,2
.LVL127:
.LM387:
.LM388:
.LBB269:
.LM389:
	mv	a4,a3
.LBE269:
.LM390:
	bgeu	a5,a3,.L66
.LM391:
	mv	a7,a5
	j	.L65
.LVL128:
.L68:
.LBB270:
.LM392:
.LM393:
	andi	a1,a4,-4
	add	a1,a0,a1
.LM394:
	lw	a1,0(a1)
.LM395:
	andi	a6,a4,3
.LM396:
	slli	a6,a6,3
.LM397:
	srl	a1,a1,a6
.LM398:
	andi	a1,a1,255
.LM399:
	bne	a1,zero,.L74
.LM400:
	addi	a4,a4,1
.LVL129:
.L66:
.LM401:
	bltu	a4,a5,.L68
.LBE270:
.LM402:
	mv	a7,a3
.LVL130:
.L65:
.LM403:
.LBB271:
.LM404:
.LM405:
	li	a4,0
.LVL131:
.L69:
.LM406:
	bne	a7,a4,.L70
.LBE271:
.LM407:
.LM408:
	bgeu	a5,a3,.L76
.LM409:
	addi	sp,sp,-16
	.cfi_def_cfa_offset 16
.LM410:
	add	a0,a2,a5
.LVL132:
.LM411:
	li	a1,0
	sub	a2,a3,a5
.LVL133:
.LM412:
	sw	ra,12(sp)
	.cfi_offset 1, -4
.LM413:
	call	memset
.LVL134:
.LM414:
	lw	ra,12(sp)
	.cfi_restore 1
.LM415:
	li	a0,0
.LM416:
	addi	sp,sp,16
	.cfi_def_cfa_offset 0
	jr	ra
.LVL135:
.L70:
.LBB272:
.LM417:
.LM418:
	andi	a1,a4,-4
	add	a1,a0,a1
.LM419:
	lw	a1,0(a1)
.LM420:
	andi	a6,a4,3
.LM421:
	slli	a6,a6,3
.LM422:
	add	t1,a2,a4
.LM423:
	srl	a1,a1,a6
.LM424:
	sb	a1,0(t1)
.LM425:
	addi	a4,a4,1
.LVL136:
.LM426:
	j	.L69
.LVL137:
.L74:
.LM427:
.LBE272:
.LBB273:
.LM428:
	li	a0,-8
.LVL138:
.LM429:
	ret
.LVL139:
.L76:
.LM430:
.LBE273:
.LM431:
	li	a0,0
.LVL140:
.LM432:
	ret
	.cfi_endproc
.LFE50:
	.size	mbedtls_mpi_core_write_le, .-mbedtls_mpi_core_write_le
	.section	.text.mbedtls_mpi_core_write_be,"ax",@progbits
	.align	1
	.globl	mbedtls_mpi_core_write_be
	.type	mbedtls_mpi_core_write_be, @function
mbedtls_mpi_core_write_be:
.LVL141:
.LFB51:
.LM433:
	.cfi_startproc
.LM434:
.LM435:
.LM436:
.LM437:
.LM438:
	addi	sp,sp,-16
	.cfi_def_cfa_offset 16
	sw	s0,8(sp)
	sw	s1,4(sp)
	sw	ra,12(sp)
	sw	s2,0(sp)
	.cfi_offset 8, -8
	.cfi_offset 9, -12
	.cfi_offset 1, -4
	.cfi_offset 18, -16
.LM439:
	slli	s0,a1,2
.LVL142:
.LM440:
.LM441:
	mv	s1,a0
	mv	a5,a3
	mv	a0,a2
.LVL143:
.LM442:
	bgeu	s0,a3,.L80
.LM443:
.LVL144:
.LM444:
.LM445:
	sub	a2,a3,s0
.LVL145:
.LM446:
	li	a1,0
.LVL146:
.LM447:
	add	s2,a0,a2
.LVL147:
.LM448:
	call	memset
.LVL148:
.LM449:
	mv	a0,s2
.LM450:
	mv	a3,s0
.LVL149:
.L81:
.LM451:
.LBB274:
.LM452:
.LM453:
	add	a0,a0,a3
.LVL150:
.LM454:
	li	a5,0
.LVL151:
.L84:
.LM455:
	bne	a3,a5,.L85
.LBE274:
.LM456:
	li	a0,0
.LVL152:
.L79:
.LM457:
	lw	ra,12(sp)
	.cfi_remember_state
	.cfi_restore 1
	lw	s0,8(sp)
	.cfi_restore 8
.LVL153:
.LM458:
	lw	s1,4(sp)
	.cfi_restore 9
.LVL154:
.LM459:
	lw	s2,0(sp)
	.cfi_restore 18
	addi	sp,sp,16
	.cfi_def_cfa_offset 0
	jr	ra
.LVL155:
.L83:
	.cfi_restore_state
.LBB275:
.LM460:
.LM461:
	andi	a4,a5,-4
	add	a4,s1,a4
.LM462:
	lw	a4,0(a4)
.LM463:
	andi	a2,a5,3
.LM464:
	slli	a2,a2,3
.LM465:
	srl	a4,a4,a2
.LM466:
	andi	a4,a4,255
.LM467:
	bne	a4,zero,.L87
.LM468:
	addi	a5,a5,1
.LVL156:
.L80:
.LM469:
	bltu	a5,s0,.L83
	j	.L81
.LVL157:
.L85:
.LM470:
.LBE275:
.LBB276:
.LM471:
	andi	a4,a5,-4
	add	a4,s1,a4
.LM472:
	lw	a4,0(a4)
.LM473:
	andi	a2,a5,3
.LM474:
	slli	a2,a2,3
.LM475:
	addi	a0,a0,-1
.LM476:
.LM477:
	srl	a4,a4,a2
.LM478:
	sb	a4,0(a0)
.LM479:
	addi	a5,a5,1
.LVL158:
.LM480:
	j	.L84
.LVL159:
.L87:
.LM481:
.LBE276:
.LBB277:
.LM482:
	li	a0,-8
.LVL160:
.LM483:
	j	.L79
.LBE277:
	.cfi_endproc
.LFE51:
	.size	mbedtls_mpi_core_write_be, .-mbedtls_mpi_core_write_be
	.section	.text.mbedtls_mpi_core_shift_r,"ax",@progbits
	.align	1
	.globl	mbedtls_mpi_core_shift_r
	.type	mbedtls_mpi_core_shift_r, @function
mbedtls_mpi_core_shift_r:
.LVL161:
.LFB52:
.LM484:
	.cfi_startproc
.LM485:
.LM486:
.LM487:
.LM488:
	srli	a4,a2,5
.LVL162:
.LM489:
.LM490:
.LM491:
	bgtu	a4,a1,.L92
.LM492:
	andi	a2,a2,31
.LVL163:
.LM493:
	beq	a2,zero,.L93
	bne	a4,a1,.L93
.LVL164:
.L92:
.LM494:
	slli	a2,a1,2
	li	a1,0
.LVL165:
.LM495:
	tail	memset
.LVL166:
.L93:
.LM496:
.LM497:
	beq	a4,zero,.L94
	mv	a3,a0
	slli	a7,a4,2
.LM498:
	li	a6,0
.L95:
.LVL167:
.LM499:
.LM500:
	sub	a5,a1,a4
.LM501:
	bgtu	a5,a6,.L98
.LVL168:
.L99:
.LM502:
	bltu	a5,a1,.L100
.LVL169:
.L94:
.LM503:
.LM504:
	beq	a2,zero,.L91
	slli	a1,a1,2
.LVL170:
.LM505:
	li	a5,32
	add	a1,a0,a1
.LM506:
	li	a3,0
.LM507:
	sub	a5,a5,a2
.LVL171:
.L97:
.LM508:
	bne	a0,a1,.L102
.LVL172:
.L91:
.LM509:
	ret
.LVL173:
.L98:
.LM510:
.LM511:
	add	a5,a3,a7
	lw	a5,0(a5)
.LM512:
	addi	a6,a6,1
.LVL174:
.LM513:
	sw	a5,0(a3)
.LM514:
.LVL175:
.LM515:
	addi	a3,a3,4
	j	.L95
.LVL176:
.L100:
.LM516:
.LM517:
	slli	a4,a5,2
	add	a4,a0,a4
	sw	zero,0(a4)
.LM518:
	addi	a5,a5,1
.LVL177:
.LM519:
	j	.L99
.LVL178:
.L102:
.LM520:
.LM521:
	lw	a6,-4(a1)
.LVL179:
.LM522:
.LM523:
	addi	a1,a1,-4
.LM524:
	srl	a4,a6,a2
.LM525:
	or	a4,a4,a3
	sw	a4,0(a1)
.LM526:
.LVL180:
.LM527:
.LM528:
	sll	a3,a6,a5
.LVL181:
.LM529:
	j	.L97
	.cfi_endproc
.LFE52:
	.size	mbedtls_mpi_core_shift_r, .-mbedtls_mpi_core_shift_r
	.section	.text.mbedtls_mpi_core_shift_l,"ax",@progbits
	.align	1
	.globl	mbedtls_mpi_core_shift_l
	.type	mbedtls_mpi_core_shift_l, @function
mbedtls_mpi_core_shift_l:
.LVL182:
.LFB53:
.LM530:
	.cfi_startproc
.LM531:
.LM532:
.LM533:
.LM534:
	srli	a4,a2,5
.LVL183:
.LM535:
.LM536:
	andi	a2,a2,31
.LVL184:
.LM537:
.LM538:
	beq	a4,zero,.L116
	li	a6,-4
	mul	a6,a4,a6
	slli	a5,a1,2
	add	a5,a0,a5
.LM539:
	mv	a3,a1
.L117:
.LVL185:
.LM540:
	bgtu	a3,a4,.L120
	li	a5,0
	bgtu	a4,a1,.L122
	sub	a5,a4,a1
.L122:
.LM541:
	add	a5,a5,a1
	slli	a5,a5,2
	add	a5,a0,a5
.LVL186:
.L123:
.LM542:
	bne	a0,a5,.L124
.L116:
.LM543:
.LM544:
	beq	a2,zero,.L115
	slli	a5,a4,2
	add	a0,a0,a5
.LVL187:
.LM545:
	li	a5,32
.LM546:
	li	a6,0
.LM547:
	sub	a5,a5,a2
.LVL188:
.L119:
.LM548:
	bltu	a4,a1,.L125
.LVL189:
.L115:
.LM549:
	ret
.LVL190:
.L120:
.LM550:
	addi	a5,a5,-4
.LM551:
.LM552:
	add	a7,a5,a6
	lw	a7,0(a7)
.LM553:
	addi	a3,a3,-1
.LVL191:
.LM554:
	sw	a7,0(a5)
.LM555:
	j	.L117
.LVL192:
.L124:
.LM556:
.LM557:
	sw	zero,-4(a5)
.LM558:
	addi	a5,a5,-4
	j	.L123
.LVL193:
.L125:
.LM559:
.LM560:
	lw	a7,0(a0)
.LVL194:
.LM561:
.LM562:
.LM563:
	addi	a4,a4,1
.LVL195:
.LM564:
	sll	a3,a7,a2
.LM565:
	or	a3,a3,a6
	sw	a3,0(a0)
.LM566:
.LVL196:
.LM567:
.LM568:
	srl	a6,a7,a5
.LVL197:
.LM569:
	addi	a0,a0,4
	j	.L119
	.cfi_endproc
.LFE53:
	.size	mbedtls_mpi_core_shift_l, .-mbedtls_mpi_core_shift_l
	.section	.text.mbedtls_mpi_core_add,"ax",@progbits
	.align	1
	.globl	mbedtls_mpi_core_add
	.type	mbedtls_mpi_core_add, @function
mbedtls_mpi_core_add:
.LVL198:
.LFB54:
.LM570:
	.cfi_startproc
.LM571:
.LM572:
.LBB278:
.LM573:
.LM574:
.LBE278:
.LM575:
	mv	t1,a0
	slli	a3,a3,2
.LVL199:
.LBB280:
.LM576:
	li	a4,0
.LBE280:
.LM577:
	li	a0,0
.LVL200:
.L134:
.LBB281:
.LM578:
	bne	a4,a3,.L139
.LBE281:
.LM579:
.LM580:
	ret
.L139:
.LBB282:
.LBB279:
.LM581:
.LM582:
	add	a5,a1,a4
	lw	a6,0(a5)
	add	a5,a6,a0
.LVL201:
.LM583:
.LM584:
	add	a0,a2,a4
.LVL202:
.LM585:
	lw	a7,0(a0)
.LM586:
	sltu	a6,a5,a6
.LVL203:
.LM587:
	add	a5,a7,a5
.LVL204:
.LM588:
.LM589:
	sltu	a7,a5,a7
.LM590:
	add	a0,a7,a6
.LVL205:
.LM591:
.LM592:
	add	a6,t1,a4
	sw	a5,0(a6)
.LBE279:
.LM593:
	addi	a4,a4,4
	j	.L134
.LBE282:
	.cfi_endproc
.LFE54:
	.size	mbedtls_mpi_core_add, .-mbedtls_mpi_core_add
	.section	.text.mbedtls_mpi_core_add_if,"ax",@progbits
	.align	1
	.globl	mbedtls_mpi_core_add_if
	.type	mbedtls_mpi_core_add_if, @function
mbedtls_mpi_core_add_if:
.LVL206:
.LFB55:
.LM594:
	.cfi_startproc
.LM595:
.LM596:
.LM597:
	addi	sp,sp,-32
	.cfi_def_cfa_offset 32
	sw	s0,24(sp)
	.cfi_offset 8, -8
	mv	s0,a0
.LM598:
	mv	a0,a3
.LVL207:
.LM599:
	sw	a1,12(sp)
	sw	a2,8(sp)
	sw	ra,28(sp)
	.cfi_offset 1, -4
.LM600:
	call	mbedtls_ct_bool
.LVL208:
.LM601:
	lw	a2,8(sp)
.LBB283:
.LM602:
	lw	a1,12(sp)
.LBE283:
.LM603:
	mv	t1,a0
.LVL209:
.LM604:
.LBB289:
.LM605:
.LM606:
	slli	a2,a2,2
.LM607:
	li	a3,0
.LBE289:
.LM608:
	li	a0,0
.LVL210:
.L141:
.LBB290:
.LM609:
	bne	a3,a2,.L146
.LBE290:
.LM610:
.LM611:
	lw	ra,28(sp)
	.cfi_remember_state
	.cfi_restore 1
	lw	s0,24(sp)
	.cfi_restore 8
.LVL211:
.LM612:
	addi	sp,sp,32
	.cfi_def_cfa_offset 0
.LVL212:
.LM613:
	jr	ra
.LVL213:
.L146:
	.cfi_restore_state
.LBB291:
.LBB284:
.LM614:
.LBB285:
.LBI285:
.LM615:
.LBB286:
.LM616:
.LBE286:
.LBE285:
.LM617:
	add	a5,a1,a3
.LVL214:
.LM618:
	add	a7,s0,a3
.LBB288:
.LBB287:
.LM619:
	lw	a4,0(a5)
	lw	a6,0(a7)
	addi	a3,a3,4
	and	a4,t1,a4
.LVL215:
.LM620:
.LBE287:
.LBE288:
.LM621:
	add	a5,a6,a0
.LVL216:
.LM622:
.LM623:
	sltu	a6,a5,a6
.LVL217:
.LM624:
	add	a5,a4,a5
.LVL218:
.LM625:
.LM626:
	sltu	a4,a5,a4
.LVL219:
.LM627:
	add	a0,a4,a6
.LVL220:
.LM628:
.LM629:
	sw	a5,0(a7)
.LVL221:
.LM630:
.LBE284:
.LM631:
	j	.L141
.LBE291:
	.cfi_endproc
.LFE55:
	.size	mbedtls_mpi_core_add_if, .-mbedtls_mpi_core_add_if
	.section	.text.mbedtls_mpi_core_sub,"ax",@progbits
	.align	1
	.globl	mbedtls_mpi_core_sub
	.type	mbedtls_mpi_core_sub, @function
mbedtls_mpi_core_sub:
.LVL222:
.LFB56:
.LM632:
	.cfi_startproc
.LM633:
.LM634:
.LBB292:
.LM635:
.LM636:
	slli	a3,a3,2
.LVL223:
.LM637:
	li	a6,0
.LBE292:
.LM638:
	li	a4,0
.LVL224:
.L149:
.LBB294:
.LM639:
	bne	a6,a3,.L150
.LBE294:
.LM640:
.LM641:
	mv	a0,a4
.LVL225:
.LM642:
	ret
.LVL226:
.L150:
.LBB295:
.LBB293:
.LM643:
.LM644:
	add	a5,a1,a6
	lw	a5,0(a5)
.LM645:
	sltu	t1,a5,a4
.LVL227:
.LM646:
.LM647:
	sub	a5,a5,a4
.LVL228:
.LM648:
.LM649:
	add	a4,a2,a6
.LVL229:
.LM650:
	lw	a7,0(a4)
.LM651:
	sgtu	a4,a7,a5
.LM652:
	add	a4,a4,t1
.LVL230:
.LM653:
.LM654:
	sub	a5,a5,a7
.LVL231:
.LM655:
	add	t1,a0,a6
.LVL232:
.LM656:
	sw	a5,0(t1)
.LM657:
.LBE293:
.LM658:
	addi	a6,a6,4
	j	.L149
.LBE295:
	.cfi_endproc
.LFE56:
	.size	mbedtls_mpi_core_sub, .-mbedtls_mpi_core_sub
	.section	.text.mbedtls_mpi_core_mla,"ax",@progbits
	.align	1
	.globl	mbedtls_mpi_core_mla
	.type	mbedtls_mpi_core_mla, @function
mbedtls_mpi_core_mla:
.LVL233:
.LFB57:
.LM659:
	.cfi_startproc
.LM660:
.LM661:
.LM662:
	addi	sp,sp,-16
	.cfi_def_cfa_offset 16
	sw	s0,12(sp)
	sw	s1,8(sp)
	sw	s2,4(sp)
	.cfi_offset 8, -4
	.cfi_offset 9, -8
	.cfi_offset 18, -12
.LM663:
	mv	t5,a3
	bgtu	a1,a3,.L152
	mv	t5,a1
.L152:
.LVL234:
.LM664:
.LM665:
	srli	t6,t5,3
.LBB296:
.LM666:
	slli	a6,a4,16
.LBE296:
.LM667:
	sub	a1,a1,t5
.LVL235:
.LM668:
.LM669:
.LM670:
	mv	t3,t6
.LM671:
	andi	t5,t5,7
.LVL236:
.LM672:
.LM673:
	mv	t4,a2
	mv	a3,a0
.LM674:
	li	a5,0
.LBB297:
.LM675:
	srli	a6,a6,16
.LM676:
	srli	a7,a4,16
.LVL237:
.L153:
.LM677:
.LBE297:
.LM678:
.LM679:
	bne	t3,zero,.L218
.LM680:
	slli	t6,t6,5
.LBB298:
.LM681:
	slli	t1,a4,16
	add	a2,a2,t6
	slli	t5,t5,2
.LVL238:
.LM682:
	add	t6,a0,t6
	srli	t1,t1,16
.LM683:
	srli	t4,a4,16
.LVL239:
.L219:
.LM684:
.LBE298:
.LM685:
	add	a4,t6,t3
.LVL240:
.LM686:
	bne	t3,t5,.L228
.LVL241:
.L229:
.LM687:
.LM688:
	bne	a1,zero,.L232
.LM689:
.LM690:
	lw	s0,12(sp)
	.cfi_remember_state
	.cfi_restore 8
	lw	s1,8(sp)
	.cfi_restore 9
	lw	s2,4(sp)
	.cfi_restore 18
	mv	a0,a5
	addi	sp,sp,16
	.cfi_def_cfa_offset 0
	jr	ra
.LVL242:
.L218:
	.cfi_restore_state
.LBB299:
.LM691:
	lw	s0,0(t4)
.LBE299:
.LM692:
	addi	t3,t3,-1
.LVL243:
.LBB300:
.LM693:
.LM694:
.LM695:
.LM696:
.LM697:
.LM698:
	addi	t4,t4,32
.LVL244:
.LM699:
	slli	t2,s0,16
	srli	t2,t2,16
.LVL245:
.LM700:
.LM701:
	srli	s0,s0,16
.LVL246:
.LM702:
.LM703:
.LM704:
	mul	t1,a7,t2
.LVL247:
.LM705:
.LM706:
.LM707:
	mul	t0,a6,s0
.LVL248:
.LM708:
.LM709:
	srli	s1,t1,16
.LM710:
	slli	t1,t1,16
.LVL249:
.LM711:
	mul	t2,a6,t2
.LVL250:
.LM712:
	srli	s2,t0,16
.LM713:
	add	s1,s1,s2
.LM714:
	slli	t0,t0,16
.LVL251:
.LM715:
	mul	s0,a7,s0
.LVL252:
.LM716:
.LM717:
	add	t1,t2,t1
.LM718:
	sltu	t2,t1,t2
	add	t1,t0,t1
.LM719:
	sltu	t0,t1,t0
	add	t1,a5,t1
.LM720:
	sltu	a5,t1,a5
.LVL253:
.LM721:
	add	s0,s1,s0
.LVL254:
.LM722:
.LM723:
.LM724:
.LM725:
.LM726:
	add	t2,t2,s0
.LVL255:
.LM727:
.LM728:
.LM729:
	add	t0,t0,t2
.LVL256:
.LM730:
.LM731:
.LM732:
	add	a5,a5,t0
.LVL257:
.LM733:
	lw	t0,0(a3)
	add	t1,t0,t1
.LVL258:
.LM734:
.LM735:
	sw	t1,0(a3)
.LVL259:
.LM736:
	lw	s0,-28(t4)
.LM737:
	sltu	t0,t1,t0
.LM738:
	add	t0,t0,a5
.LVL260:
.LM739:
.LM740:
.LM741:
.LM742:
	slli	t2,s0,16
	srli	t2,t2,16
.LVL261:
.LM743:
.LM744:
	srli	s0,s0,16
.LVL262:
.LM745:
.LM746:
.LM747:
	mul	a5,a7,t2
.LVL263:
.LM748:
.LM749:
.LM750:
	mul	t1,a6,s0
.LVL264:
.LM751:
.LM752:
	srli	s1,a5,16
.LM753:
	slli	a5,a5,16
.LVL265:
.LM754:
	mul	t2,a6,t2
.LVL266:
.LM755:
	srli	s2,t1,16
.LM756:
	add	s1,s1,s2
.LM757:
	slli	t1,t1,16
.LVL267:
.LM758:
	mul	s0,a7,s0
.LVL268:
.LM759:
.LM760:
	add	a5,t2,a5
.LM761:
	sltu	t2,a5,t2
	add	a5,t1,a5
.LM762:
	sltu	t1,a5,t1
	add	a5,t0,a5
.LM763:
	sltu	t0,a5,t0
.LVL269:
.LM764:
	add	s0,s1,s0
.LVL270:
.LM765:
.LM766:
.LM767:
.LM768:
.LM769:
	add	t2,t2,s0
.LVL271:
.LM770:
.LM771:
.LM772:
	add	t1,t1,t2
.LVL272:
.LM773:
.LM774:
.LM775:
	add	t0,t0,t1
.LVL273:
.LM776:
	lw	t1,4(a3)
	add	a5,t1,a5
.LVL274:
.LM777:
.LM778:
	sw	a5,4(a3)
.LVL275:
.LM779:
	lw	s0,-24(t4)
.LM780:
	sltu	t1,a5,t1
.LM781:
	add	t1,t1,t0
.LVL276:
.LM782:
.LM783:
.LM784:
.LM785:
	slli	t2,s0,16
	srli	t2,t2,16
.LVL277:
.LM786:
.LM787:
	srli	s0,s0,16
.LVL278:
.LM788:
.LM789:
.LM790:
	mul	a5,a7,t2
.LVL279:
.LM791:
.LM792:
.LM793:
	mul	t0,a6,s0
.LVL280:
.LM794:
.LM795:
	srli	s1,a5,16
.LM796:
	slli	a5,a5,16
.LVL281:
.LM797:
	mul	t2,a6,t2
.LVL282:
.LM798:
	srli	s2,t0,16
.LM799:
	add	s1,s1,s2
.LM800:
	slli	t0,t0,16
.LVL283:
.LM801:
	mul	s0,a7,s0
.LVL284:
.LM802:
.LM803:
	add	a5,t2,a5
.LM804:
	sltu	t2,a5,t2
	add	a5,t0,a5
.LM805:
	sltu	t0,a5,t0
	add	a5,t1,a5
.LM806:
	sltu	t1,a5,t1
.LVL285:
.LM807:
	add	s0,s1,s0
.LVL286:
.LM808:
.LM809:
.LM810:
.LM811:
.LM812:
	add	t2,t2,s0
.LVL287:
.LM813:
.LM814:
.LM815:
	add	t0,t0,t2
.LVL288:
.LM816:
.LM817:
.LM818:
	add	t0,t1,t0
.LVL289:
.LM819:
	lw	t1,8(a3)
	add	a5,t1,a5
.LVL290:
.LM820:
.LM821:
	sw	a5,8(a3)
.LVL291:
.LM822:
	lw	s0,-20(t4)
.LM823:
	sltu	t1,a5,t1
.LM824:
	add	t1,t1,t0
.LVL292:
.LM825:
.LM826:
.LM827:
.LM828:
	slli	t2,s0,16
	srli	t2,t2,16
.LVL293:
.LM829:
.LM830:
	srli	s0,s0,16
.LVL294:
.LM831:
.LM832:
.LM833:
	mul	a5,a7,t2
.LVL295:
.LM834:
.LM835:
.LM836:
	mul	t0,a6,s0
.LVL296:
.LM837:
.LM838:
	srli	s1,a5,16
.LM839:
	slli	a5,a5,16
.LVL297:
.LM840:
	mul	t2,a6,t2
.LVL298:
.LM841:
	srli	s2,t0,16
.LM842:
	add	s1,s1,s2
.LM843:
	slli	t0,t0,16
.LVL299:
.LM844:
	mul	s0,a7,s0
.LVL300:
.LM845:
.LM846:
	add	a5,t2,a5
.LM847:
	sltu	t2,a5,t2
	add	a5,t0,a5
.LM848:
	sltu	t0,a5,t0
	add	a5,t1,a5
.LM849:
	sltu	t1,a5,t1
.LVL301:
.LM850:
	add	s0,s1,s0
.LVL302:
.LM851:
.LM852:
.LM853:
.LM854:
.LM855:
	add	t2,t2,s0
.LVL303:
.LM856:
.LM857:
.LM858:
	add	t0,t0,t2
.LVL304:
.LM859:
.LM860:
.LM861:
	add	t0,t1,t0
.LVL305:
.LM862:
	lw	t1,12(a3)
	add	a5,t1,a5
.LVL306:
.LM863:
.LM864:
	sw	a5,12(a3)
.LVL307:
.LM865:
	lw	s0,-16(t4)
.LM866:
	sltu	t1,a5,t1
.LM867:
	add	t1,t1,t0
.LVL308:
.LM868:
.LM869:
.LM870:
.LM871:
	slli	t2,s0,16
	srli	t2,t2,16
.LVL309:
.LM872:
.LM873:
	srli	s0,s0,16
.LVL310:
.LM874:
.LM875:
.LM876:
	mul	a5,a7,t2
.LVL311:
.LM877:
.LM878:
.LM879:
	mul	t0,a6,s0
.LVL312:
.LM880:
.LM881:
	srli	s1,a5,16
.LM882:
	slli	a5,a5,16
.LVL313:
.LM883:
	mul	t2,a6,t2
.LVL314:
.LM884:
	srli	s2,t0,16
.LM885:
	add	s1,s1,s2
.LM886:
	slli	t0,t0,16
.LVL315:
.LM887:
	mul	s0,a7,s0
.LVL316:
.LM888:
.LM889:
	add	a5,t2,a5
.LM890:
	sltu	t2,a5,t2
	add	a5,t0,a5
.LM891:
	sltu	t0,a5,t0
	add	a5,t1,a5
.LM892:
	sltu	t1,a5,t1
.LVL317:
.LM893:
	add	s0,s1,s0
.LVL318:
.LM894:
.LM895:
.LM896:
.LM897:
.LM898:
	add	t2,t2,s0
.LVL319:
.LM899:
.LM900:
.LM901:
	add	t0,t0,t2
.LVL320:
.LM902:
.LM903:
.LM904:
	add	t0,t1,t0
.LVL321:
.LM905:
	lw	t1,16(a3)
	add	a5,t1,a5
.LVL322:
.LM906:
.LM907:
	sw	a5,16(a3)
.LVL323:
.LM908:
	lw	s0,-12(t4)
.LM909:
	sltu	t1,a5,t1
.LM910:
	add	t1,t1,t0
.LVL324:
.LM911:
.LM912:
.LM913:
.LM914:
	slli	t2,s0,16
	srli	t2,t2,16
.LVL325:
.LM915:
.LM916:
	srli	s0,s0,16
.LVL326:
.LM917:
.LM918:
.LM919:
	mul	a5,a7,t2
.LVL327:
.LM920:
.LM921:
.LM922:
	mul	t0,a6,s0
.LVL328:
.LM923:
.LM924:
	srli	s1,a5,16
.LM925:
	slli	a5,a5,16
.LVL329:
.LM926:
	mul	t2,a6,t2
.LVL330:
.LM927:
	srli	s2,t0,16
.LM928:
	add	s1,s1,s2
.LM929:
	slli	t0,t0,16
.LVL331:
.LM930:
	mul	s0,a7,s0
.LVL332:
.LM931:
.LM932:
	add	a5,t2,a5
.LM933:
	sltu	t2,a5,t2
	add	a5,t0,a5
.LM934:
	sltu	t0,a5,t0
	add	a5,t1,a5
.LM935:
	sltu	t1,a5,t1
.LVL333:
.LM936:
	add	s0,s1,s0
.LVL334:
.LM937:
.LM938:
.LM939:
.LM940:
.LM941:
	add	t2,t2,s0
.LVL335:
.LM942:
.LM943:
.LM944:
	add	t0,t0,t2
.LVL336:
.LM945:
.LM946:
.LM947:
	add	t0,t1,t0
.LVL337:
.LM948:
	lw	t1,20(a3)
	add	a5,t1,a5
.LVL338:
.LM949:
.LM950:
	sw	a5,20(a3)
.LVL339:
.LM951:
	lw	s0,-8(t4)
.LM952:
	sltu	t1,a5,t1
.LM953:
	add	t1,t1,t0
.LVL340:
.LM954:
.LM955:
.LM956:
.LM957:
	slli	t2,s0,16
	srli	t2,t2,16
.LVL341:
.LM958:
.LM959:
	srli	s0,s0,16
.LVL342:
.LM960:
.LM961:
.LM962:
	mul	a5,a7,t2
.LVL343:
.LM963:
.LM964:
.LM965:
	mul	t0,a6,s0
.LVL344:
.LM966:
.LM967:
	srli	s1,a5,16
.LM968:
	slli	a5,a5,16
.LVL345:
.LM969:
	mul	t2,a6,t2
.LVL346:
.LM970:
	srli	s2,t0,16
.LM971:
	add	s1,s1,s2
.LM972:
	slli	t0,t0,16
.LVL347:
.LM973:
	mul	s0,a7,s0
.LVL348:
.LM974:
.LM975:
	add	a5,t2,a5
.LM976:
	sltu	t2,a5,t2
	add	a5,t0,a5
.LM977:
	sltu	t0,a5,t0
	add	a5,t1,a5
.LM978:
	sltu	t1,a5,t1
.LVL349:
.LM979:
	add	s0,s1,s0
.LVL350:
.LM980:
.LM981:
.LM982:
.LM983:
.LM984:
	add	t2,t2,s0
.LVL351:
.LM985:
.LM986:
.LM987:
	add	t0,t0,t2
.LVL352:
.LM988:
.LM989:
.LM990:
	add	t1,t1,t0
.LVL353:
.LM991:
	lw	t0,24(a3)
	add	a5,t0,a5
.LVL354:
.LM992:
.LM993:
	sw	a5,24(a3)
.LVL355:
.LM994:
	lw	s0,-4(t4)
.LM995:
	sltu	t0,a5,t0
.LM996:
	add	t0,t0,t1
.LVL356:
.LM997:
.LM998:
.LM999:
.LM1000:
	slli	t2,s0,16
	srli	t2,t2,16
.LVL357:
.LM1001:
.LM1002:
	srli	s0,s0,16
.LVL358:
.LM1003:
.LM1004:
.LM1005:
	mul	t1,a7,t2
.LVL359:
.LM1006:
.LM1007:
.LM1008:
	mul	a5,a6,s0
.LVL360:
.LM1009:
.LM1010:
	srli	s1,t1,16
.LM1011:
	slli	t1,t1,16
.LVL361:
.LM1012:
	mul	t2,a6,t2
.LVL362:
.LM1013:
	srli	s2,a5,16
.LM1014:
	add	s1,s1,s2
.LM1015:
	slli	a5,a5,16
.LVL363:
.LM1016:
	mul	s0,a7,s0
.LVL364:
.LM1017:
.LM1018:
	add	t1,t2,t1
.LM1019:
	sltu	t2,t1,t2
	add	t1,a5,t1
.LM1020:
	sltu	a5,t1,a5
	add	t1,t0,t1
.LM1021:
	sltu	t0,t1,t0
.LVL365:
.LM1022:
	add	s0,s1,s0
.LVL366:
.LM1023:
.LM1024:
.LM1025:
.LM1026:
.LM1027:
	add	t2,t2,s0
.LVL367:
.LM1028:
.LM1029:
.LM1030:
	add	a5,a5,t2
.LVL368:
.LM1031:
.LM1032:
.LM1033:
	add	t0,t0,a5
.LVL369:
.LM1034:
	lw	a5,28(a3)
.LM1035:
	addi	a3,a3,32
.LVL370:
.LM1036:
	add	t1,a5,t1
.LVL371:
.LM1037:
.LM1038:
	sltu	a5,t1,a5
.LM1039:
	add	a5,a5,t0
.LVL372:
.LM1040:
.LM1041:
.LM1042:
	sw	t1,-4(a3)
.LVL373:
.LM1043:
	j	.L153
.LVL374:
.L228:
.LM1044:
.LBE300:
.LBB301:
.LM1045:
.LM1046:
.LM1047:
.LM1048:
.LM1049:
.LM1050:
	add	a3,a2,t3
	lw	a7,0(a3)
	addi	t3,t3,4
.LVL375:
.LM1051:
	slli	a6,a7,16
	srli	a6,a6,16
.LVL376:
.LM1052:
.LM1053:
	srli	a7,a7,16
.LVL377:
.LM1054:
.LM1055:
.LM1056:
	mul	a3,t4,a6
.LVL378:
.LM1057:
.LM1058:
.LM1059:
	mul	a0,t1,a7
.LVL379:
.LM1060:
.LM1061:
	srli	t0,a3,16
.LM1062:
	slli	a3,a3,16
.LVL380:
.LM1063:
	mul	a6,t1,a6
.LVL381:
.LM1064:
	srli	t2,a0,16
.LM1065:
	add	t0,t0,t2
.LM1066:
	slli	a0,a0,16
.LVL382:
.LM1067:
	mul	a7,t4,a7
.LVL383:
.LM1068:
.LM1069:
	add	a3,a6,a3
.LM1070:
	sltu	a6,a3,a6
	add	a3,a0,a3
.LM1071:
	sltu	a0,a3,a0
	add	a3,a5,a3
.LM1072:
	sltu	a5,a3,a5
.LVL384:
.LM1073:
	add	a7,t0,a7
.LVL385:
.LM1074:
.LM1075:
.LM1076:
.LM1077:
.LM1078:
	add	a6,a6,a7
.LVL386:
.LM1079:
.LM1080:
.LM1081:
	add	a0,a0,a6
.LVL387:
.LM1082:
.LM1083:
.LM1084:
	add	a5,a5,a0
.LVL388:
.LM1085:
	lw	a0,0(a4)
	add	a3,a0,a3
.LVL389:
.LM1086:
.LM1087:
	sltu	a0,a3,a0
.LM1088:
	add	a5,a0,a5
.LVL390:
.LM1089:
.LM1090:
.LM1091:
	sw	a3,0(a4)
.LVL391:
.LM1092:
	j	.L219
.LVL392:
.L232:
.LM1093:
	lw	a3,0(a4)
.LBE301:
.LM1094:
	addi	a1,a1,-1
.LVL393:
.LM1095:
	add	a5,a3,a5
.LVL394:
.LM1096:
	sw	a5,0(a4)
.LM1097:
.LM1098:
	sltu	a5,a5,a3
.LVL395:
.LM1099:
.LM1100:
	addi	a4,a4,4
.LVL396:
.LM1101:
	j	.L229
	.cfi_endproc
.LFE57:
	.size	mbedtls_mpi_core_mla, .-mbedtls_mpi_core_mla
	.section	.text.mbedtls_mpi_core_mul,"ax",@progbits
	.align	1
	.globl	mbedtls_mpi_core_mul
	.type	mbedtls_mpi_core_mul, @function
mbedtls_mpi_core_mul:
.LVL397:
.LFB58:
.LM1102:
	.cfi_startproc
.LM1103:
.LM1104:
	addi	sp,sp,-48
	.cfi_def_cfa_offset 48
	sw	s1,36(sp)
	.cfi_offset 9, -12
	mv	s1,a2
.LM1105:
	add	a2,a2,a4
.LVL398:
.LM1106:
	sw	s4,24(sp)
.LM1107:
	slli	a2,a2,2
	.cfi_offset 20, -24
.LM1108:
	mv	s4,a1
.LM1109:
	li	a1,0
.LVL399:
.LM1110:
	sw	s0,40(sp)
	sw	s2,32(sp)
	sw	s3,28(sp)
	sw	s5,20(sp)
	sw	ra,44(sp)
	.cfi_offset 8, -8
	.cfi_offset 18, -16
	.cfi_offset 19, -20
	.cfi_offset 21, -28
	.cfi_offset 1, -4
.LM1111:
	mv	s3,a0
	mv	s5,a3
	mv	s2,a4
.LM1112:
	call	memset
.LVL400:
.LM1113:
.LBB302:
.LM1114:
.LM1115:
	li	s0,0
.LM1116:
	addi	a1,s1,1
.LVL401:
.L236:
.LM1117:
	bne	s0,s2,.L237
.LBE302:
.LM1118:
	lw	ra,44(sp)
	.cfi_remember_state
	.cfi_restore 1
	lw	s0,40(sp)
	.cfi_restore 8
.LVL402:
.LM1119:
	lw	s1,36(sp)
	.cfi_restore 9
.LVL403:
.LM1120:
	lw	s2,32(sp)
	.cfi_restore 18
.LVL404:
.LM1121:
	lw	s3,28(sp)
	.cfi_restore 19
.LVL405:
.LM1122:
	lw	s4,24(sp)
	.cfi_restore 20
.LVL406:
.LM1123:
	lw	s5,20(sp)
	.cfi_restore 21
.LVL407:
.LM1124:
	addi	sp,sp,48
	.cfi_def_cfa_offset 0
	jr	ra
.LVL408:
.L237:
	.cfi_restore_state
.LBB303:
.LM1125:
	slli	a0,s0,2
.LM1126:
	add	a5,s5,a0
	lw	a4,0(a5)
	mv	a3,s1
	mv	a2,s4
	add	a0,s3,a0
	sw	a1,12(sp)
	call	mbedtls_mpi_core_mla
.LVL409:
.LM1127:
	lw	a1,12(sp)
	addi	s0,s0,1
.LVL410:
.LM1128:
	j	.L236
.LBE303:
	.cfi_endproc
.LFE58:
	.size	mbedtls_mpi_core_mul, .-mbedtls_mpi_core_mul
	.section	.text.mbedtls_mpi_core_montmul_init,"ax",@progbits
	.align	1
	.globl	mbedtls_mpi_core_montmul_init
	.type	mbedtls_mpi_core_montmul_init, @function
mbedtls_mpi_core_montmul_init:
.LVL411:
.LFB59:
.LM1129:
	.cfi_startproc
.LM1130:
.LM1131:
	lw	a0,0(a0)
.LVL412:
.LM1132:
.LBB304:
.LM1133:
	li	a4,2
.LBE304:
.LM1134:
	addi	a5,a0,2
.LM1135:
	slli	a5,a5,1
	andi	a5,a5,8
.LM1136:
	add	a5,a5,a0
.LM1137:
.LBB305:
.LM1138:
.LVL413:
.LM1139:
.LM1140:
.LM1141:
	mul	a3,a0,a5
.LM1142:
	sub	a3,a4,a3
.LM1143:
	mul	a5,a5,a3
.LVL414:
.LM1144:
.LM1145:
.LM1146:
.LM1147:
	mul	a3,a0,a5
.LM1148:
	sub	a3,a4,a3
.LM1149:
	mul	a5,a5,a3
.LVL415:
.LM1150:
.LM1151:
.LM1152:
.LM1153:
	mul	a0,a0,a5
.LM1154:
.LVL416:
.LM1155:
.LBE305:
.LM1156:
.LBB306:
.LM1157:
	sub	a0,a0,a4
.LVL417:
.LM1158:
.LBE306:
.LM1159:
	mul	a0,a0,a5
.LVL418:
.LM1160:
	ret
	.cfi_endproc
.LFE59:
	.size	mbedtls_mpi_core_montmul_init, .-mbedtls_mpi_core_montmul_init
	.section	.text.mbedtls_mpi_core_montmul,"ax",@progbits
	.align	1
	.globl	mbedtls_mpi_core_montmul
	.type	mbedtls_mpi_core_montmul, @function
mbedtls_mpi_core_montmul:
.LVL419:
.LFB60:
.LM1161:
	.cfi_startproc
.LM1162:
.LM1163:
	addi	sp,sp,-80
	.cfi_def_cfa_offset 80
	sw	s2,64(sp)
	.cfi_offset 18, -16
	mv	s2,a2
.LM1164:
	slli	a2,a5,3
.LVL420:
.LM1165:
	sw	s0,72(sp)
	sw	s1,68(sp)
	sw	s6,48(sp)
	sw	s9,36(sp)
	.cfi_offset 8, -8
	.cfi_offset 9, -12
	.cfi_offset 22, -32
	.cfi_offset 25, -44
	mv	s1,a5
	mv	s0,a7
	mv	s6,a0
	mv	s9,a1
.LM1166:
	addi	a2,a2,4
	li	a1,0
.LVL421:
.LM1167:
	mv	a0,a7
.LVL422:
.LM1168:
	sw	s3,60(sp)
	sw	s4,56(sp)
	sw	s5,52(sp)
	sw	s7,44(sp)
	sw	s10,32(sp)
	sw	s11,28(sp)
	sw	ra,76(sp)
	sw	s8,40(sp)
	.cfi_offset 19, -20
	.cfi_offset 20, -24
	.cfi_offset 21, -28
	.cfi_offset 23, -36
	.cfi_offset 26, -48
	.cfi_offset 27, -52
	.cfi_offset 1, -4
	.cfi_offset 24, -40
.LM1169:
	mv	s10,a3
	mv	s7,a4
	mv	s11,a6
.LBB307:
.LM1170:
	mv	s4,s0
.LBE307:
.LM1171:
	call	memset
.LVL423:
.LM1172:
.LBB311:
.LM1173:
.LM1174:
	li	s3,0
.LBB308:
.LM1175:
	addi	s5,s1,2
.LVL424:
.L241:
.LM1176:
.LBE308:
.LM1177:
	slli	a4,s3,2
	bne	s3,s1,.L242
.LM1178:
	add	s0,s0,a4
.LBE311:
.LM1179:
.LM1180:
	add	a5,s0,a4
	lw	s1,0(a5)
.LVL425:
.LM1181:
.LM1182:
	mv	a3,s3
	mv	a2,s7
	mv	a1,s0
	mv	a0,s6
.LM1183:
	sw	a4,12(sp)
.LM1184:
	call	mbedtls_mpi_core_sub
.LVL426:
.LM1185:
	xor	a0,s1,a0
.LVL427:
.LM1186:
	call	mbedtls_ct_bool
.LVL428:
.LM1187:
	mv	a2,s0
.LM1188:
	lw	s0,72(sp)
	.cfi_remember_state
	.cfi_restore 8
.LM1189:
	lw	a4,12(sp)
.LM1190:
	lw	ra,76(sp)
	.cfi_restore 1
	lw	s1,68(sp)
	.cfi_restore 9
.LVL429:
.LM1191:
	lw	s2,64(sp)
	.cfi_restore 18
.LVL430:
.LM1192:
	lw	s3,60(sp)
	.cfi_restore 19
.LVL431:
.LM1193:
	lw	s4,56(sp)
	.cfi_restore 20
.LVL432:
.LM1194:
	lw	s5,52(sp)
	.cfi_restore 21
.LVL433:
.LM1195:
	lw	s7,44(sp)
	.cfi_restore 23
.LVL434:
.LM1196:
	lw	s8,40(sp)
	.cfi_restore 24
	lw	s9,36(sp)
	.cfi_restore 25
.LVL435:
.LM1197:
	lw	s10,32(sp)
	.cfi_restore 26
.LVL436:
.LM1198:
	lw	s11,28(sp)
	.cfi_restore 27
.LVL437:
.LM1199:
	mv	a1,s6
.LM1200:
	lw	s6,48(sp)
	.cfi_restore 22
.LVL438:
.LM1201:
	li	a3,0
.LM1202:
	addi	sp,sp,80
	.cfi_def_cfa_offset 0
.LM1203:
	tail	mbedtls_ct_memcpy_if
.LVL439:
.L242:
	.cfi_restore_state
.LBB312:
.LBB309:
.LM1204:
.LM1205:
	add	a4,s9,a4
	lw	a4,0(a4)
.LVL440:
.LM1206:
.LM1207:
	lw	a5,0(s2)
.LM1208:
	lw	a3,0(s4)
.LM1209:
	mv	a2,s2
.LM1210:
	mul	a5,a4,a5
.LM1211:
	mv	a1,s5
	mv	a0,s4
.LBE309:
.LM1212:
	addi	s3,s3,1
.LVL441:
.LBB310:
.LM1213:
	add	a5,a5,a3
.LM1214:
	mul	s8,a5,s11
.LVL442:
.LM1215:
.LM1216:
	mv	a3,s10
	call	mbedtls_mpi_core_mla
.LVL443:
.LM1217:
.LM1218:
	mv	a0,s4
	mv	a3,s1
	mv	a2,s7
	mv	a1,s5
.LM1219:
	addi	s4,s4,4
.LVL444:
.LM1220:
	mv	a4,s8
	call	mbedtls_mpi_core_mla
.LVL445:
.LM1221:
.LM1222:
.LBE310:
.LM1223:
	j	.L241
.LBE312:
	.cfi_endproc
.LFE60:
	.size	mbedtls_mpi_core_montmul, .-mbedtls_mpi_core_montmul
	.section	.text.mbedtls_mpi_core_exp_mod_optionally_safe,"ax",@progbits
	.align	1
	.type	mbedtls_mpi_core_exp_mod_optionally_safe, @function
mbedtls_mpi_core_exp_mod_optionally_safe:
.LVL446:
.LFB70:
.LM1224:
	.cfi_startproc
.LM1225:
.LM1226:
	addi	sp,sp,-96
	.cfi_def_cfa_offset 96
	sw	s2,80(sp)
	.cfi_offset 18, -16
	mv	s2,a5
.LVL447:
.LM1227:
.LM1228:
.LBB337:
.LBI337:
.LM1229:
.LBB338:
.LM1230:
.LM1231:
	li	a5,707407872
.LVL448:
.LM1232:
.LBE338:
.LBE337:
.LM1233:
	sw	s0,88(sp)
	sw	s1,84(sp)
	sw	s4,72(sp)
	sw	s6,64(sp)
	sw	s7,60(sp)
	sw	s8,56(sp)
	sw	ra,92(sp)
	sw	s3,76(sp)
	sw	s5,68(sp)
	sw	s9,52(sp)
	sw	s10,48(sp)
	sw	s11,44(sp)
	.cfi_offset 8, -8
	.cfi_offset 9, -12
	.cfi_offset 20, -24
	.cfi_offset 22, -32
	.cfi_offset 23, -36
	.cfi_offset 24, -40
	.cfi_offset 1, -4
	.cfi_offset 19, -20
	.cfi_offset 21, -28
	.cfi_offset 25, -44
	.cfi_offset 26, -48
	.cfi_offset 27, -52
.LM1234:
	sw	a0,8(sp)
	sw	a2,12(sp)
	sw	a4,24(sp)
.LVL449:
.LBB342:
.LBB340:
.LM1235:
	addi	a5,a5,-1494
.LBE340:
.LBE342:
.LM1236:
	lw	s4,96(sp)
	mv	s6,a1
	mv	s1,a3
	mv	s8,a6
	mv	s7,a7
	li	s0,0
.LBB343:
.LBB341:
.LM1237:
	bne	a6,a5,.L245
.LBB339:
.LM1238:
.LM1239:
	mv	a1,s2
.LVL450:
.LM1240:
	mv	a0,a4
.LVL451:
.LM1241:
	call	mbedtls_mpi_core_bitlen
.LVL452:
.LM1242:
.LM1243:
	bne	a0,zero,.L246
	li	a0,1
.LVL453:
.L246:
.LM1244:
.LM1245:
	srli	s2,a0,5
.LVL454:
.LM1246:
.LM1247:
	andi	s0,a0,31
.LVL455:
.L245:
.LM1248:
.LBE339:
.LBE341:
.LBE343:
.LM1249:
.LBB344:
.LBI344:
.LM1250:
.LBB345:
.LM1251:
.LBE345:
.LBE344:
.LM1252:
	slli	a5,s2,5
.LVL456:
.LBB347:
.LBB346:
.LM1253:
	li	a4,79
.LM1254:
	li	s5,1
.LM1255:
	bleu	a5,a4,.L247
.LM1256:
	li	s5,3
.L247:
.LVL457:
.LM1257:
.LBE346:
.LBE347:
.LM1258:
.LM1259:
	sll	a5,s1,s5
.LM1260:
	lw	a0,12(sp)
.LM1261:
	slli	a5,a5,2
.LM1262:
	slli	s3,s1,2
.LM1263:
	add	s9,s4,a5
.LM1264:
	add	a5,s9,s3
	sw	a5,20(sp)
.LM1265:
	call	mbedtls_mpi_core_montmul_init
.LVL458:
	sw	a0,16(sp)
.LBB348:
.LBB349:
.LM1266:
	mv	a2,s3
	li	a1,0
	mv	a0,s4
	call	memset
.LVL459:
.LM1267:
	lw	a6,16(sp)
	lw	a4,12(sp)
.LM1268:
	li	a5,1
	sw	a5,0(s4)
.LM1269:
	add	a7,s9,s3
	mv	a5,s1
	mv	a3,s1
	mv	a2,s7
	mv	a1,s4
	mv	a0,s4
.LBE349:
.LBE348:
.LM1270:
	addi	s10,s5,-1
.LBB361:
.LBB355:
.LM1271:
	call	mbedtls_mpi_core_montmul
.LVL460:
.LBE355:
.LBE361:
.LM1272:
	snez	s10,s10
.LBB362:
.LBB356:
.LM1273:
	mv	a1,s6
.LBE356:
.LBE362:
.LM1274:
	neg	s10,s10
.LBB363:
.LBB357:
.LM1275:
	mv	a2,s3
	add	a0,s4,s3
.LBE357:
.LBE363:
.LM1276:
	andi	s10,s10,6
.LBB364:
.LBB358:
.LM1277:
	call	memcpy
.LVL461:
.LBE358:
.LBE364:
.LM1278:
	addi	s10,s10,2
.LVL462:
.LM1279:
.LM1280:
.LM1281:
.LM1282:
.LM1283:
.LM1284:
.LM1285:
.LBB365:
.LBI348:
.LM1286:
.LBB359:
.LM1287:
.LM1288:
.LM1289:
.LM1290:
.LM1291:
.LM1292:
.LM1293:
.LBB350:
.LM1294:
.LM1295:
.LBE350:
.LM1296:
	add	a1,s4,s3
.LVL463:
.LBB353:
.LM1297:
	li	s6,2
.LVL464:
.L250:
.LM1298:
	bne	s10,s6,.L251
.LVL465:
.LM1299:
.LBE353:
.LBE359:
.LBE365:
.LM1300:
	lw	a0,8(sp)
	mv	a2,s3
	mv	a1,s4
.LBB366:
.LBB367:
.LM1301:
	li	s7,707407872
.LVL466:
.LM1302:
.LBE367:
.LBE366:
.LM1303:
	call	memcpy
.LVL467:
.LM1304:
.LM1305:
.LM1306:
	li	s10,0
.LM1307:
	li	s11,0
.LBB382:
.LBB379:
.LM1308:
	addi	s7,s7,-1494
.LVL468:
.L252:
.LM1309:
.LBE379:
.LBE382:
.LM1310:
.LM1311:
	lw	a2,8(sp)
	lw	a7,20(sp)
	lw	a6,16(sp)
	lw	a4,12(sp)
	mv	a5,s1
	mv	a3,s1
	mv	a1,a2
	mv	a0,a2
	call	mbedtls_mpi_core_montmul
.LVL469:
.LM1312:
.LM1313:
	bne	s0,zero,.L253
.LM1314:
	addi	s2,s2,-1
.LVL470:
.LM1315:
.LM1316:
	li	s0,31
.LVL471:
.L254:
.LM1317:
.LM1318:
	lw	a4,24(sp)
	slli	a5,s2,2
.LM1319:
	slli	s10,s10,1
.LVL472:
.LM1320:
	add	a5,a4,a5
.LM1321:
	lw	a5,0(a5)
.LM1322:
	addi	s11,s11,1
.LVL473:
.LM1323:
.LM1324:
.LM1325:
	srl	a5,a5,s0
.LM1326:
	andi	a5,a5,1
.LM1327:
	or	s10,a5,s10
.LVL474:
.LM1328:
.LM1329:
	beq	s5,s11,.L255
.LM1330:
	or	a5,s2,s0
	bne	a5,zero,.L252
.L255:
.LM1331:
.LVL475:
.LBB383:
.LBI366:
.LM1332:
.LBB380:
.LM1333:
.LM1334:
	bne	s8,s7,.L261
.LM1335:
.LM1336:
	mul	a1,s3,s10
.LM1337:
	mv	a2,s3
	mv	a0,s9
	add	a1,s4,a1
	call	memcpy
.LVL476:
.L258:
.LM1338:
.LBE380:
.LBE383:
.LM1339:
	lw	a1,8(sp)
	lw	a7,20(sp)
	lw	a6,16(sp)
	lw	a4,12(sp)
	mv	a5,s1
	mv	a3,s1
	mv	a2,s9
	mv	a0,a1
	call	mbedtls_mpi_core_montmul
.LVL477:
.LM1340:
.LM1341:
.LM1342:
.LM1343:
	or	a5,s2,s0
	bne	a5,zero,.L262
.LM1344:
	lw	ra,92(sp)
	.cfi_remember_state
	.cfi_restore 1
	lw	s0,88(sp)
	.cfi_restore 8
.LVL478:
.LM1345:
	lw	s1,84(sp)
	.cfi_restore 9
.LVL479:
.LM1346:
	lw	s2,80(sp)
	.cfi_restore 18
.LVL480:
.LM1347:
	lw	s3,76(sp)
	.cfi_restore 19
	lw	s4,72(sp)
	.cfi_restore 20
	lw	s5,68(sp)
	.cfi_restore 21
.LVL481:
.LM1348:
	lw	s6,64(sp)
	.cfi_restore 22
	lw	s7,60(sp)
	.cfi_restore 23
	lw	s8,56(sp)
	.cfi_restore 24
.LVL482:
.LM1349:
	lw	s9,52(sp)
	.cfi_restore 25
.LVL483:
.LM1350:
	lw	s10,48(sp)
	.cfi_restore 26
	lw	s11,44(sp)
	.cfi_restore 27
	addi	sp,sp,96
	.cfi_def_cfa_offset 0
.LVL484:
.LM1351:
	jr	ra
.LVL485:
.L251:
	.cfi_restore_state
.LBB384:
.LBB360:
.LBB354:
.LBB351:
.LM1352:
.LM1353:
	lw	a7,20(sp)
	lw	a6,16(sp)
	lw	a4,12(sp)
.LM1354:
	add	s11,a1,s3
.LVL486:
.LM1355:
	mv	a5,s1
	mv	a3,s1
	add	a2,s4,s3
	mv	a0,s11
	call	mbedtls_mpi_core_montmul
.LVL487:
.LM1356:
.LM1357:
.LBE351:
.LM1358:
	addi	s6,s6,1
.LVL488:
.LBB352:
.LM1359:
	mv	a1,s11
	j	.L250
.LVL489:
.L262:
.LM1360:
.LBE352:
.LBE354:
.LBE360:
.LBE384:
	li	s10,0
	li	s11,0
	j	.L252
.LVL490:
.L253:
.LM1361:
	addi	s0,s0,-1
.LVL491:
.LM1362:
	j	.L254
.LVL492:
.L261:
.LBB385:
.LBB381:
.LM1363:
	mv	s11,s4
.LVL493:
.LBB368:
.LBB369:
.LM1364:
	li	a5,0
.L257:
.LVL494:
.LBB370:
.LM1365:
.LBB371:
.LBI371:
.LM1366:
.LBB372:
.LM1367:
.LBB373:
.LBI373:
.LM1368:
.LBB374:
.LM1369:
.LBB375:
.LBI375:
.LM1370:
.LBB376:
.LM1371:
	mv	a0,a5
	sw	a5,28(sp)
.LVL495:
.LM1372:
.LM1373:
.LBE376:
.LBE375:
.LBB377:
.LBI377:
.LM1374:
.LBB378:
.LM1375:
	mv	a4,s10
.LVL496:
.LM1376:
.LM1377:
.LBE378:
.LBE377:
.LM1378:
.LM1379:
	xor	a0,a0,a4
.LVL497:
.LM1380:
	call	mbedtls_ct_bool
.LVL498:
.LM1381:
.LBE374:
.LBE373:
.LBE372:
.LBE371:
.LM1382:
	not	a3,a0
.LVL499:
.LM1383:
	mv	a1,s11
	mv	a2,s1
	mv	a0,s9
	call	mbedtls_mpi_core_cond_assign
.LVL500:
.LM1384:
.LBE370:
.LM1385:
.LM1386:
	lw	a5,28(sp)
.LM1387:
	add	s11,s11,s3
.LVL501:
.LM1388:
	addi	a5,a5,1
.LVL502:
.LM1389:
	bne	s6,a5,.L257
	j	.L258
.LBE369:
.LBE368:
.LBE381:
.LBE385:
	.cfi_endproc
.LFE70:
	.size	mbedtls_mpi_core_exp_mod_optionally_safe, .-mbedtls_mpi_core_exp_mod_optionally_safe
	.section	.text.mbedtls_mpi_core_get_mont_r2_unsafe,"ax",@progbits
	.align	1
	.globl	mbedtls_mpi_core_get_mont_r2_unsafe
	.type	mbedtls_mpi_core_get_mont_r2_unsafe, @function
mbedtls_mpi_core_get_mont_r2_unsafe:
.LVL503:
.LFB61:
.LM1390:
	.cfi_startproc
.LM1391:
.LM1392:
.LM1393:
.LM1394:
	addi	sp,sp,-16
	.cfi_def_cfa_offset 16
	sw	s0,8(sp)
	.cfi_offset 8, -8
	mv	s0,a1
.LM1395:
	li	a1,1
.LVL504:
.LM1396:
	sw	s1,4(sp)
	sw	ra,12(sp)
	.cfi_offset 9, -12
	.cfi_offset 1, -4
.LM1397:
	mv	s1,a0
.LM1398:
	call	mbedtls_mpi_lset
.LVL505:
.LM1399:
	bne	a0,zero,.L266
.LM1400:
.LM1401:
.LM1402:
.LM1403:
	lhu	a1,6(s0)
.LM1404:
	mv	a0,s1
.LVL506:
.LM1405:
	slli	a1,a1,6
	call	mbedtls_mpi_shift_l
.LVL507:
.LM1406:
	bne	a0,zero,.L266
.LM1407:
.LM1408:
.LM1409:
.LM1410:
	mv	a2,s0
	mv	a1,s1
	mv	a0,s1
.LVL508:
.LM1411:
	call	mbedtls_mpi_mod_mpi
.LVL509:
.LM1412:
	bne	a0,zero,.L266
.LM1413:
.LM1414:
.LM1415:
.LM1416:
	lhu	a1,6(s0)
.LM1417:
	lw	s0,8(sp)
	.cfi_remember_state
	.cfi_restore 8
.LVL510:
.LM1418:
	lw	ra,12(sp)
	.cfi_restore 1
.LM1419:
	mv	a0,s1
.LVL511:
.LM1420:
	lw	s1,4(sp)
	.cfi_restore 9
.LVL512:
.LM1421:
	addi	sp,sp,16
	.cfi_def_cfa_offset 0
.LM1422:
	tail	mbedtls_mpi_shrink
.LVL513:
.L267:
.L266:
	.cfi_restore_state
.LM1423:
	lw	ra,12(sp)
	.cfi_restore 1
	lw	s0,8(sp)
	.cfi_restore 8
.LVL514:
.LM1424:
	lw	s1,4(sp)
	.cfi_restore 9
.LVL515:
.LM1425:
	addi	sp,sp,16
	.cfi_def_cfa_offset 0
	jr	ra
	.cfi_endproc
.LFE61:
	.size	mbedtls_mpi_core_get_mont_r2_unsafe, .-mbedtls_mpi_core_get_mont_r2_unsafe
	.section	.text.mbedtls_mpi_core_fill_random,"ax",@progbits
	.align	1
	.globl	mbedtls_mpi_core_fill_random
	.type	mbedtls_mpi_core_fill_random, @function
mbedtls_mpi_core_fill_random:
.LVL516:
.LFB63:
.LM1426:
	.cfi_startproc
.LM1427:
.LM1428:
.LM1429:
	addi	sp,sp,-48
	.cfi_def_cfa_offset 48
	sw	s0,40(sp)
	.cfi_offset 8, -8
.LM1430:
	andi	s0,a2,3
.LM1431:
	snez	s0,s0
.LM1432:
	srli	a5,a2,2
.LM1433:
	sw	s1,36(sp)
	sw	ra,44(sp)
	sw	s2,32(sp)
	sw	s3,28(sp)
	sw	s4,24(sp)
	sw	s5,20(sp)
	sw	s6,16(sp)
	.cfi_offset 9, -12
	.cfi_offset 1, -4
	.cfi_offset 18, -16
	.cfi_offset 19, -20
	.cfi_offset 20, -24
	.cfi_offset 21, -28
	.cfi_offset 22, -32
.LM1434:
	add	s0,s0,a5
.LVL517:
.LM1435:
.LM1436:
.LM1437:
	li	s1,-4
.LM1438:
	bgtu	s0,a1,.L269
.LM1439:
	slli	s5,s0,2
.LVL518:
.LM1440:
	sub	s4,s5,a2
.LM1441:
	mv	s1,a2
	mv	s2,a1
	mv	a2,s4
.LVL519:
.LM1442:
	li	a1,0
.LVL520:
.LM1443:
	mv	s6,a4
	mv	s3,a0
	sw	a3,12(sp)
	call	memset
.LVL521:
.LM1444:
.LM1445:
	sub	a2,s2,s0
.LM1446:
	slli	a2,a2,2
	li	a1,0
	add	a0,s3,s5
	call	memset
.LVL522:
.LM1447:
.LM1448:
.LM1449:
	lw	a3,12(sp)
	mv	a2,s1
	add	a1,s3,s4
	mv	a0,s6
	jalr	a3
.LVL523:
	mv	s1,a0
.LVL524:
.LM1450:
	bne	a0,zero,.L269
.LM1451:
.LM1452:
	mv	a1,s0
	mv	a0,s3
	call	mbedtls_mpi_core_bigendian_to_host
.LVL525:
.L269:
.LM1453:
	lw	ra,44(sp)
	.cfi_restore 1
	lw	s0,40(sp)
	.cfi_restore 8
.LVL526:
.LM1454:
	lw	s2,32(sp)
	.cfi_restore 18
	lw	s3,28(sp)
	.cfi_restore 19
	lw	s4,24(sp)
	.cfi_restore 20
	lw	s5,20(sp)
	.cfi_restore 21
	lw	s6,16(sp)
	.cfi_restore 22
	mv	a0,s1
	lw	s1,36(sp)
	.cfi_restore 9
	addi	sp,sp,48
	.cfi_def_cfa_offset 0
	jr	ra
	.cfi_endproc
.LFE63:
	.size	mbedtls_mpi_core_fill_random, .-mbedtls_mpi_core_fill_random
	.section	.text.mbedtls_mpi_core_random,"ax",@progbits
	.align	1
	.globl	mbedtls_mpi_core_random
	.type	mbedtls_mpi_core_random, @function
mbedtls_mpi_core_random:
.LVL527:
.LFB64:
.LM1455:
	.cfi_startproc
.LM1456:
.LBB386:
.LBI386:
.LM1457:
.LBB387:
.LM1458:
.LBE387:
.LBE386:
.LM1459:
	addi	sp,sp,-48
	.cfi_def_cfa_offset 48
	sw	s3,28(sp)
	sw	s4,24(sp)
	sw	s5,20(sp)
	sw	s7,12(sp)
	sw	s8,8(sp)
	sw	s9,4(sp)
	sw	ra,44(sp)
	.cfi_offset 19, -20
	.cfi_offset 20, -24
	.cfi_offset 21, -28
	.cfi_offset 23, -36
	.cfi_offset 24, -40
	.cfi_offset 25, -44
	.cfi_offset 1, -4
	mv	s9,a5
	sw	s0,40(sp)
	sw	s1,36(sp)
	sw	s2,32(sp)
	sw	s6,16(sp)
	sw	s10,0(sp)
	.cfi_offset 8, -8
	.cfi_offset 9, -12
	.cfi_offset 18, -16
	.cfi_offset 22, -32
	.cfi_offset 26, -48
.LM1460:
	mv	s4,a0
	mv	s7,a1
	mv	s5,a2
	mv	s3,a3
	mv	s8,a4
.LBB389:
.LBB388:
.LM1461:
	li	a5,-1
.LVL528:
.LM1462:
.LVL529:
.LM1463:
.LM1464:
.LBE388:
.LBE389:
.LBB390:
.LBI390:
.LM1465:
.LBB391:
.LM1466:
	li	a5,0
.LVL530:
.LM1467:
.LM1468:
.LBE391:
.LBE390:
.LM1469:
.LM1470:
	mv	a1,a3
.LVL531:
.LM1471:
	mv	a0,a2
.LVL532:
.LM1472:
	call	mbedtls_mpi_core_bitlen
.LVL533:
.LM1473:
.LM1474:
	addi	s1,a0,7
.LM1475:
	srli	s1,s1,3
.LVL534:
.LM1476:
.LM1477:
.LM1478:
	li	a5,4
.LM1479:
	li	s2,30
.LM1480:
	bgtu	s1,a5,.L276
	li	s2,250
.L276:
.LM1481:
	slli	a5,s1,3
.LM1482:
	sub	s6,a5,a0
.LVL535:
.L278:
.LM1483:
.LM1484:
.LM1485:
.LM1486:
	mv	a4,s9
	mv	a3,s8
	mv	a2,s1
	mv	a1,s3
	mv	a0,s4
	call	mbedtls_mpi_core_fill_random
.LVL536:
	mv	s0,a0
.LVL537:
.LM1487:
	bne	a0,zero,.L275
.LM1488:
.LM1489:
	mv	a2,s6
	mv	a1,s3
	mv	a0,s4
.LM1490:
	addi	s2,s2,-1
.LVL538:
.LM1491:
	call	mbedtls_mpi_core_shift_r
.LVL539:
.LM1492:
.LM1493:
	beq	s2,zero,.L280
.LM1494:
.LM1495:
	mv	a2,s3
	mv	a1,s4
	mv	a0,s7
	call	mbedtls_mpi_core_uint_le_mpi
.LVL540:
	mv	s10,a0
.LVL541:
.LM1496:
.LM1497:
	mv	a2,s3
	mv	a1,s5
	mv	a0,s4
.LVL542:
.LM1498:
	call	mbedtls_mpi_core_lt_ct
.LVL543:
.LM1499:
.LBB392:
.LBI392:
.LM1500:
.LBB393:
.LM1501:
.LM1502:
.LBE393:
.LBE392:
.LBB395:
.LBI395:
.LM1503:
.LBB396:
.LM1504:
	mv	a5,s0
.LVL544:
.LM1505:
.LBE396:
.LBE395:
.LBB397:
.LBB394:
.LM1506:
	and	a0,s10,a0
.LVL545:
.LM1507:
.LBE394:
.LBE397:
.LM1508:
	beq	a5,a0,.L278
.LVL546:
.L275:
.LM1509:
	lw	ra,44(sp)
	.cfi_remember_state
	.cfi_restore 1
	mv	a0,s0
	lw	s0,40(sp)
	.cfi_restore 8
	lw	s1,36(sp)
	.cfi_restore 9
.LVL547:
.LM1510:
	lw	s2,32(sp)
	.cfi_restore 18
.LVL548:
.LM1511:
	lw	s3,28(sp)
	.cfi_restore 19
.LVL549:
.LM1512:
	lw	s4,24(sp)
	.cfi_restore 20
.LVL550:
.LM1513:
	lw	s5,20(sp)
	.cfi_restore 21
.LVL551:
.LM1514:
	lw	s6,16(sp)
	.cfi_restore 22
	lw	s7,12(sp)
	.cfi_restore 23
.LVL552:
.LM1515:
	lw	s8,8(sp)
	.cfi_restore 24
.LVL553:
.LM1516:
	lw	s9,4(sp)
	.cfi_restore 25
.LVL554:
.LM1517:
	lw	s10,0(sp)
	.cfi_restore 26
	addi	sp,sp,48
	.cfi_def_cfa_offset 0
	jr	ra
.LVL555:
.L280:
	.cfi_restore_state
.L277:
.LM1518:
.LM1519:
	li	s0,-14
.LM1520:
	j	.L275
	.cfi_endproc
.LFE64:
	.size	mbedtls_mpi_core_random, .-mbedtls_mpi_core_random
	.section	.text.mbedtls_mpi_core_exp_mod_working_limbs,"ax",@progbits
	.align	1
	.globl	mbedtls_mpi_core_exp_mod_working_limbs
	.type	mbedtls_mpi_core_exp_mod_working_limbs, @function
mbedtls_mpi_core_exp_mod_working_limbs:
.LVL556:
.LFB66:
.LM1521:
	.cfi_startproc
.LM1522:
.LBB398:
.LBI398:
.LM1523:
.LBB399:
.LM1524:
.LBE399:
.LBE398:
.LM1525:
	slli	a1,a1,5
.LVL557:
.LBB402:
.LBB400:
.LM1526:
	li	a4,79
	li	a5,1
	bleu	a1,a4,.L286
.LM1527:
	li	a4,3
.L285:
.LVL558:
.LM1528:
.LBE400:
.LBE402:
.LM1529:
.LM1530:
.LM1531:
.LM1532:
.LM1533:
.LM1534:
	sll	a5,a5,a4
.LM1535:
	addi	a5,a5,3
	mul	a0,a5,a0
.LVL559:
.LM1536:
	addi	a0,a0,1
	ret
.LVL560:
.L286:
.LBB403:
.LBB401:
.LM1537:
	mv	a4,a5
	j	.L285
.LBE401:
.LBE403:
	.cfi_endproc
.LFE66:
	.size	mbedtls_mpi_core_exp_mod_working_limbs, .-mbedtls_mpi_core_exp_mod_working_limbs
	.section	.text.mbedtls_mpi_core_exp_mod,"ax",@progbits
	.align	1
	.globl	mbedtls_mpi_core_exp_mod
	.type	mbedtls_mpi_core_exp_mod, @function
mbedtls_mpi_core_exp_mod:
.LVL561:
.LFB71:
.LM1538:
	.cfi_startproc
.LM1539:
.LM1540:
	addi	sp,sp,-32
	.cfi_def_cfa_offset 32
.LM1541:
	sw	a7,0(sp)
	mv	a7,a6
.LVL562:
.LM1542:
	li	a6,0
.LVL563:
.LM1543:
	sw	ra,28(sp)
	.cfi_offset 1, -4
.LM1544:
	call	mbedtls_mpi_core_exp_mod_optionally_safe
.LVL564:
.LM1545:
	lw	ra,28(sp)
	.cfi_restore 1
	addi	sp,sp,32
	.cfi_def_cfa_offset 0
	jr	ra
	.cfi_endproc
.LFE71:
	.size	mbedtls_mpi_core_exp_mod, .-mbedtls_mpi_core_exp_mod
	.section	.text.mbedtls_mpi_core_exp_mod_unsafe,"ax",@progbits
	.align	1
	.globl	mbedtls_mpi_core_exp_mod_unsafe
	.type	mbedtls_mpi_core_exp_mod_unsafe, @function
mbedtls_mpi_core_exp_mod_unsafe:
.LVL565:
.LFB72:
.LM1546:
	.cfi_startproc
.LM1547:
.LM1548:
	addi	sp,sp,-32
	.cfi_def_cfa_offset 32
.LM1549:
	sw	a7,0(sp)
	mv	a7,a6
.LVL566:
.LM1550:
	li	a6,707407872
.LVL567:
.LM1551:
	addi	a6,a6,-1494
.LM1552:
	sw	ra,28(sp)
	.cfi_offset 1, -4
.LM1553:
	call	mbedtls_mpi_core_exp_mod_optionally_safe
.LVL568:
.LM1554:
	lw	ra,28(sp)
	.cfi_restore 1
	addi	sp,sp,32
	.cfi_def_cfa_offset 0
	jr	ra
	.cfi_endproc
.LFE72:
	.size	mbedtls_mpi_core_exp_mod_unsafe, .-mbedtls_mpi_core_exp_mod_unsafe
	.section	.text.mbedtls_mpi_core_sub_int,"ax",@progbits
	.align	1
	.globl	mbedtls_mpi_core_sub_int
	.type	mbedtls_mpi_core_sub_int, @function
mbedtls_mpi_core_sub_int:
.LVL569:
.LFB73:
.LM1555:
	.cfi_startproc
.LM1556:
.LBB404:
.LM1557:
.LM1558:
	slli	a3,a3,2
.LVL570:
.LM1559:
	li	a5,0
.LVL571:
.L292:
.LM1560:
	bne	a5,a3,.L295
.LM1561:
.LBE404:
.LM1562:
.LM1563:
	mv	a0,a2
.LVL572:
.LM1564:
	ret
.LVL573:
.L295:
.LBB406:
.LBB405:
.LM1565:
.LM1566:
.LM1567:
	add	a4,a1,a5
.LVL574:
.LM1568:
	lw	a6,0(a4)
	sub	a4,a6,a2
.LVL575:
.LM1569:
.LM1570:
	sltu	a2,a6,a4
.LVL576:
.LM1571:
.LM1572:
	add	a6,a0,a5
.LVL577:
.LM1573:
	sw	a4,0(a6)
.LVL578:
.LM1574:
.LBE405:
.LM1575:
	addi	a5,a5,4
	j	.L292
.LBE406:
	.cfi_endproc
.LFE73:
	.size	mbedtls_mpi_core_sub_int, .-mbedtls_mpi_core_sub_int
	.section	.text.mbedtls_mpi_core_check_zero_ct,"ax",@progbits
	.align	1
	.globl	mbedtls_mpi_core_check_zero_ct
	.type	mbedtls_mpi_core_check_zero_ct, @function
mbedtls_mpi_core_check_zero_ct:
.LVL579:
.LFB74:
.LM1576:
	.cfi_startproc
.LM1577:
.LM1578:
.LM1579:
.LBB407:
.LM1580:
.LM1581:
	li	a5,0
.LBE407:
.LM1582:
	li	a4,0
.LVL580:
.L297:
.LBB408:
.LM1583:
	bne	a5,a1,.L298
.LBE408:
.LM1584:
.LM1585:
	mv	a0,a4
.LVL581:
.LM1586:
	tail	mbedtls_ct_bool
.LVL582:
.L298:
.LBB409:
.LM1587:
.LM1588:
	slli	a3,a5,2
	add	a3,a0,a3
	lw	a3,0(a3)
.LM1589:
	addi	a5,a5,1
.LVL583:
.LM1590:
	or	a4,a4,a3
.LVL584:
.LM1591:
	j	.L297
.LBE409:
	.cfi_endproc
.LFE74:
	.size	mbedtls_mpi_core_check_zero_ct, .-mbedtls_mpi_core_check_zero_ct
	.section	.text.mbedtls_mpi_core_to_mont_rep,"ax",@progbits
	.align	1
	.globl	mbedtls_mpi_core_to_mont_rep
	.type	mbedtls_mpi_core_to_mont_rep, @function
mbedtls_mpi_core_to_mont_rep:
.LVL585:
.LFB75:
.LM1592:
	.cfi_startproc
.LM1593:
.LM1594:
	mv	t1,a2
.LM1595:
	mv	a7,a6
.LM1596:
	mv	a2,a5
.LVL586:
.LM1597:
	mv	a6,a4
.LVL587:
.LM1598:
	mv	a5,a3
.LVL588:
.LM1599:
	mv	a4,t1
.LVL589:
.LM1600:
	tail	mbedtls_mpi_core_montmul
.LVL590:
.LM1601:
	.cfi_endproc
.LFE75:
	.size	mbedtls_mpi_core_to_mont_rep, .-mbedtls_mpi_core_to_mont_rep
	.section	.text.mbedtls_mpi_core_from_mont_rep,"ax",@progbits
	.align	1
	.globl	mbedtls_mpi_core_from_mont_rep
	.type	mbedtls_mpi_core_from_mont_rep, @function
mbedtls_mpi_core_from_mont_rep:
.LVL591:
.LFB76:
.LM1602:
	.cfi_startproc
.LM1603:
.LM1604:
	addi	sp,sp,-32
	.cfi_def_cfa_offset 32
	mv	t1,a3
.LM1605:
	mv	a7,a5
.LM1606:
	li	a3,1
.LVL592:
.LM1607:
	mv	a6,a4
	mv	a5,t1
.LVL593:
.LM1608:
	mv	a4,a2
.LVL594:
.LM1609:
	addi	a2,sp,12
.LVL595:
.LM1610:
	sw	ra,28(sp)
	.cfi_offset 1, -4
.LM1611:
	sw	a3,12(sp)
.LM1612:
	call	mbedtls_mpi_core_montmul
.LVL596:
.LM1613:
	lw	ra,28(sp)
	.cfi_restore 1
	addi	sp,sp,32
	.cfi_def_cfa_offset 0
	jr	ra
	.cfi_endproc
.LFE76:
	.size	mbedtls_mpi_core_from_mont_rep, .-mbedtls_mpi_core_from_mont_rep
	.section	.text.mbedtls_mpi_core_gcd_modinv_odd,"ax",@progbits
	.align	1
	.globl	mbedtls_mpi_core_gcd_modinv_odd
	.type	mbedtls_mpi_core_gcd_modinv_odd, @function
mbedtls_mpi_core_gcd_modinv_odd:
.LVL597:
.LFB79:
.LM1614:
	.cfi_startproc
.LM1615:
.LM1616:
.LM1617:
	addi	sp,sp,-80
	.cfi_def_cfa_offset 80
	sw	s1,68(sp)
	.cfi_offset 9, -12
.LM1618:
	slli	s1,a5,2
.LM1619:
	sw	s9,36(sp)
	.cfi_offset 25, -44
.LM1620:
	add	s9,a6,s1
.LM1621:
	sw	s7,44(sp)
	.cfi_offset 23, -36
.LM1622:
	add	s7,s9,s1
.LM1623:
	sw	s0,72(sp)
	sw	s2,64(sp)
	sw	s3,60(sp)
	sw	s4,56(sp)
	sw	s5,52(sp)
	sw	s6,48(sp)
	.cfi_offset 8, -8
	.cfi_offset 18, -16
	.cfi_offset 19, -20
	.cfi_offset 20, -24
	.cfi_offset 21, -28
	.cfi_offset 22, -32
.LM1624:
	add	s2,s7,s1
.LM1625:
	mv	s6,a1
	sw	ra,76(sp)
	sw	s8,40(sp)
	sw	s10,32(sp)
	sw	s11,28(sp)
	.cfi_offset 1, -4
	.cfi_offset 24, -40
	.cfi_offset 26, -48
	.cfi_offset 27, -52
.LM1626:
	sw	a4,4(sp)
	mv	s5,a0
.LVL598:
.LM1627:
.LM1628:
.LM1629:
.LM1630:
.LM1631:
.LM1632:
	mv	a1,a2
.LVL599:
.LM1633:
	mv	s0,a5
	mv	s3,a6
.LM1634:
	add	s4,s2,s1
.LM1635:
	bne	s6,zero,.L303
	li	s4,0
.L303:
.LVL600:
.LM1636:
.LM1637:
	mv	s8,s0
	bleu	s0,a3,.L304
.LVL601:
.LM1638:
	mv	s8,a3
.L304:
.LVL602:
.LM1639:
	slli	s10,s8,2
	mv	a2,s10
.LVL603:
.LM1640:
	mv	a0,s3
.LVL604:
.LM1641:
	call	memcpy
.LVL605:
.LM1642:
.LM1643:
	sub	a2,s0,s8
.LM1644:
	slli	a2,a2,2
	li	a1,0
	add	a0,s3,s10
	call	memset
.LVL606:
.LM1645:
.LM1646:
	lw	a5,4(sp)
	beq	s5,a5,.L305
.LM1647:
	mv	a2,s1
	mv	a1,a5
	mv	a0,s5
	call	memcpy
.LVL607:
.L305:
.LM1648:
.LM1649:
	beq	s6,zero,.L306
.LM1650:
	mv	a2,s1
	li	a1,0
	mv	a0,s6
	call	memset
.LVL608:
.LM1651:
	mv	a2,s1
	li	a1,0
	mv	a0,s4
	call	memset
.LVL609:
.LM1652:
.LM1653:
	li	a5,1
	sw	a5,0(s4)
.L306:
.LBB422:
.LM1654:
	add	s8,s8,s0
.LVL610:
.LM1655:
	slli	s10,s8,5
.LBB423:
.LBB424:
.LBB425:
.LM1656:
	addi	s8,s1,-4
	add	s8,s2,s8
	li	s11,0
.L307:
.LVL611:
.LM1657:
.LBE425:
.LBE424:
.LBE423:
.LM1658:
	bgtu	s10,s11,.L309
.LBE422:
.LM1659:
	lw	ra,76(sp)
	.cfi_remember_state
	.cfi_restore 1
	lw	s0,72(sp)
	.cfi_restore 8
.LVL612:
.LM1660:
	lw	s1,68(sp)
	.cfi_restore 9
	lw	s2,64(sp)
	.cfi_restore 18
.LVL613:
.LM1661:
	lw	s3,60(sp)
	.cfi_restore 19
.LVL614:
.LM1662:
	lw	s4,56(sp)
	.cfi_restore 20
.LVL615:
.LM1663:
	lw	s5,52(sp)
	.cfi_restore 21
.LVL616:
.LM1664:
	lw	s6,48(sp)
	.cfi_restore 22
.LVL617:
.LM1665:
	lw	s7,44(sp)
	.cfi_restore 23
.LVL618:
.LM1666:
	lw	s8,40(sp)
	.cfi_restore 24
	lw	s9,36(sp)
	.cfi_restore 25
.LVL619:
.LM1667:
	lw	s10,32(sp)
	.cfi_restore 26
	lw	s11,28(sp)
	.cfi_restore 27
.LVL620:
.LM1668:
	addi	sp,sp,80
	.cfi_def_cfa_offset 0
.LVL621:
.LM1669:
	jr	ra
.LVL622:
.L309:
	.cfi_restore_state
.LBB449:
.LBB448:
.LM1670:
.LM1671:
	lw	a0,0(s3)
	andi	a0,a0,1
	call	mbedtls_ct_bool
.LVL623:
	sw	a0,0(sp)
.LVL624:
.LM1672:
.LM1673:
	lw	a0,0(s5)
.LVL625:
.LM1674:
	andi	a0,a0,1
	call	mbedtls_ct_bool
.LVL626:
.LM1675:
.LBB429:
.LBI429:
.LM1676:
.LBB430:
.LM1677:
.LM1678:
	lw	a5,0(sp)
.LBE430:
.LBE429:
.LM1679:
	mv	a3,s0
	mv	a2,s3
.LBB433:
.LBB431:
.LM1680:
	and	a4,a5,a0
.LBE431:
.LBE433:
.LBB434:
.LBB435:
.LM1681:
	not	a0,a0
.LVL627:
.LM1682:
.LBE435:
.LBE434:
.LBB437:
.LBB438:
.LM1683:
	and	a5,a0,a5
.LBE438:
.LBE437:
.LM1684:
	mv	a1,s5
	mv	a0,s9
.LVL628:
.LBB440:
.LBB432:
.LM1685:
	sw	a4,0(sp)
.LVL629:
.LM1686:
.LBE432:
.LBE440:
.LM1687:
.LBB441:
.LBI434:
.LM1688:
.LBB436:
.LM1689:
.LBE436:
.LBE441:
.LM1690:
.LBB442:
.LBI437:
.LM1691:
.LBB439:
.LM1692:
.LM1693:
	sw	a5,8(sp)
.LVL630:
.LM1694:
.LBE439:
.LBE442:
.LM1695:
.LM1696:
	call	mbedtls_mpi_core_sub
.LVL631:
.LM1697:
	mv	a2,s1
	mv	a1,s9
	mv	a0,s7
	call	memcpy
.LVL632:
.LM1698:
	lw	a3,0(sp)
	mv	a2,s0
	mv	a1,s3
	mv	a0,s7
	call	mbedtls_mpi_core_cond_assign
.LVL633:
.LM1699:
	mv	a2,s1
	mv	a1,s3
	mv	a0,s2
	call	memcpy
.LVL634:
.LM1700:
	lw	a3,8(sp)
	mv	a2,s0
	mv	a1,s5
	mv	a0,s2
	call	mbedtls_mpi_core_cond_assign
.LVL635:
.LM1701:
	lw	a3,0(sp)
	mv	a2,s0
	mv	a1,s9
	mv	a0,s2
	call	mbedtls_mpi_core_cond_assign
.LVL636:
.LM1702:
	li	a2,1
	mv	a1,s0
	mv	a0,s2
	call	mbedtls_mpi_core_shift_r
.LVL637:
.LM1703:
	mv	a2,s1
	mv	a1,s7
	mv	a0,s3
	call	memcpy
.LVL638:
.LM1704:
	mv	a2,s1
	mv	a1,s2
	mv	a0,s5
	call	memcpy
.LVL639:
.LM1705:
.LM1706:
	mv	a2,s0
	mv	a1,s3
	mv	a0,s5
	call	mbedtls_mpi_core_lt_ct
.LVL640:
	sw	a0,12(sp)
.LVL641:
.LM1707:
	mv	a3,a0
	mv	a2,s0
	mv	a1,s5
	mv	a0,s3
.LVL642:
.LM1708:
	call	mbedtls_mpi_core_cond_swap
.LVL643:
.LM1709:
.LM1710:
	beq	s6,zero,.L308
.LM1711:
.LVL644:
.LBB443:
.LBI443:
.LM1712:
.LBB444:
.LM1713:
.LM1714:
	mv	a3,s0
	mv	a2,s4
	mv	a1,s6
	mv	a0,s9
	call	mbedtls_mpi_core_sub
.LVL645:
.LM1715:
	lw	a1,4(sp)
.LM1716:
	mv	a3,a0
.LVL646:
.LM1717:
.LM1718:
	mv	a2,s0
	mv	a0,s9
.LVL647:
.LM1719:
	call	mbedtls_mpi_core_add_if
.LVL648:
.LM1720:
.LBE444:
.LBE443:
.LM1721:
	mv	a2,s1
	mv	a1,s9
	mv	a0,s7
	call	memcpy
.LVL649:
.LM1722:
	lw	a3,0(sp)
	mv	a2,s0
	mv	a1,s4
	mv	a0,s7
	call	mbedtls_mpi_core_cond_assign
.LVL650:
.LM1723:
	mv	a2,s1
	mv	a1,s4
	mv	a0,s2
	call	memcpy
.LVL651:
.LM1724:
	lw	a3,8(sp)
	mv	a2,s0
	mv	a1,s6
	mv	a0,s2
	call	mbedtls_mpi_core_cond_assign
.LVL652:
.LM1725:
	lw	a3,0(sp)
	mv	a2,s0
	mv	a1,s9
	mv	a0,s2
	call	mbedtls_mpi_core_cond_assign
.LVL653:
.LM1726:
.LBB445:
.LBI424:
.LM1727:
.LBB426:
.LM1728:
.LM1729:
.LM1730:
	lw	a3,0(s2)
.LM1731:
	lw	a1,4(sp)
	mv	a2,s0
	andi	a3,a3,1
.LVL654:
.LM1732:
	mv	a0,s2
	call	mbedtls_mpi_core_add_if
.LVL655:
.LM1733:
	sw	a0,0(sp)
.LVL656:
.LM1734:
	li	a2,1
	mv	a1,s0
	mv	a0,s2
.LVL657:
.LM1735:
	call	mbedtls_mpi_core_shift_r
.LVL658:
.LM1736:
.LM1737:
	lw	a5,0(sp)
.LBE426:
.LBE445:
.LM1738:
	mv	a2,s1
	mv	a1,s7
.LBB446:
.LBB427:
.LM1739:
	slli	a4,a5,31
.LM1740:
	lw	a5,0(s8)
.LBE427:
.LBE446:
.LM1741:
	mv	a0,s4
.LBB447:
.LBB428:
.LM1742:
	or	a5,a5,a4
	sw	a5,0(s8)
.LVL659:
.LM1743:
.LBE428:
.LBE447:
.LM1744:
	call	memcpy
.LVL660:
.LM1745:
	mv	a2,s1
	mv	a1,s2
	mv	a0,s6
	call	memcpy
.LVL661:
.LM1746:
	lw	a3,12(sp)
	mv	a2,s0
	mv	a1,s6
	mv	a0,s4
	call	mbedtls_mpi_core_cond_swap
.LVL662:
.L308:
.LM1747:
.LBE448:
.LM1748:
	addi	s11,s11,1
.LVL663:
.LM1749:
	j	.L307
.LBE449:
	.cfi_endproc
.LFE79:
	.size	mbedtls_mpi_core_gcd_modinv_odd, .-mbedtls_mpi_core_gcd_modinv_odd
	.text
.Letext0:
	.section	.note.GNU-stack,"",@progbits
