	.file	"bignum.c"
	.option nopic
	.attribute arch, "rv32i2p1_m2p0_f2p2_c2p0_zicsr2p0_zmmul1p0_zca1p0_zcf1p0"
	.attribute unaligned_access, 0
	.attribute stack_align, 16
	.text
.Ltext0:
	.cfi_sections	.debug_frame
	.section	.text.mbedtls_ct_bool,"ax",@progbits
	.align	1
	.type	mbedtls_ct_bool, @function
mbedtls_ct_bool:
.LVL0:
.LFB12:
.LM1:
	.cfi_startproc
.LM2:
.LBB115:
.LBI115:
.LM3:
.LBB116:
.LM4:
.LVL1:
.LM5:
.LM6:
.LBE116:
.LBE115:
.LM7:
.LM8:
.LM9:
.LM10:
	srli	a5,a0,1
.LM11:
	neg	a5,a5
.LM12:
	neg	a0,a0
.LVL2:
.LM13:
	or	a0,a5,a0
.LVL3:
.LM14:
	srai	a0,a0,31
	ret
	.cfi_endproc
.LFE12:
	.size	mbedtls_ct_bool, .-mbedtls_ct_bool
	.section	.text.mbedtls_mpi_lt_mpi_ct,"ax",@progbits
	.align	1
	.globl	mbedtls_mpi_lt_mpi_ct
	.type	mbedtls_mpi_lt_mpi_ct, @function
mbedtls_mpi_lt_mpi_ct:
.LVL4:
.LFB41:
.LM15:
	.cfi_startproc
.LM16:
.LM17:
.LM18:
	addi	sp,sp,-48
	.cfi_def_cfa_offset 48
	sw	ra,44(sp)
	sw	s0,40(sp)
	sw	s1,36(sp)
	sw	s2,32(sp)
	sw	s3,28(sp)
	sw	s4,24(sp)
	sw	s5,20(sp)
	.cfi_offset 1, -4
	.cfi_offset 8, -8
	.cfi_offset 9, -12
	.cfi_offset 18, -16
	.cfi_offset 19, -20
	.cfi_offset 20, -24
	.cfi_offset 21, -28
.LM19:
	lhu	a5,6(a0)
.LM20:
	lhu	s5,6(a1)
	bne	s5,a5,.L4
	mv	s2,a0
.LM21:
.LM22:
	lhu	a0,4(a0)
.LVL5:
.LM23:
	mv	s1,a1
	mv	s3,a2
	srai	a0,a0,1
.LM24:
	andi	a0,a0,1
	call	mbedtls_ct_bool
.LVL6:
.LM25:
	mv	s0,a0
.LVL7:
.LM26:
.LM27:
	lhu	a0,4(s1)
	srai	a0,a0,1
.LM28:
	andi	a0,a0,1
	call	mbedtls_ct_bool
.LVL8:
.LM29:
.LBB117:
.LBI117:
.LM30:
.LBB118:
.LM31:
.LBE118:
.LBE117:
.LM32:
	lw	a5,0(s2)
.LM33:
	addi	a3,sp,8
.LBB120:
.LBB119:
.LM34:
	xor	s4,s0,a0
.LVL9:
.LM35:
.LBE119:
.LBE120:
.LM36:
.LM37:
.LM38:
	sw	a5,8(sp)
	lw	a5,0(s1)
.LM39:
	mv	a2,s5
.LM40:
	sw	a5,12(sp)
.LM41:
.LVL10:
.LBB121:
.LBI121:
.LM42:
.LBB122:
.LM43:
.LM44:
	andi	a5,s0,1
.LVL11:
.LM45:
.LBE122:
.LBE121:
.LM46:
.LM47:
	xori	a4,a5,1
.LM48:
	slli	a4,a4,2
.LM49:
	slli	a5,a5,2
.LVL12:
.LM50:
	add	a4,a4,a3
.LM51:
	add	a5,a5,a3
.LM52:
	lw	a1,0(a4)
	lw	a0,0(a5)
.LVL13:
.LM53:
	call	mbedtls_mpi_core_lt_ct
.LVL14:
.LM54:
.LBB123:
.LBI123:
.LM55:
.LBB124:
.LM56:
.LM57:
.LBE124:
.LBE123:
.LM58:
.LBB126:
.LBI126:
.LM59:
.LBB127:
.LM60:
.LM61:
.LBE127:
.LBE126:
.LBB129:
.LBB125:
.LM62:
	xor	s0,s0,a0
.LVL15:
.LM63:
	and	s0,s0,s4
	xor	s0,s0,a0
.LVL16:
.LM64:
.LBE125:
.LBE129:
.LBB130:
.LBB128:
.LM65:
	andi	s0,s0,1
.LVL17:
.LM66:
.LBE128:
.LBE130:
.LM67:
	sw	s0,0(s3)
.LM68:
.LM69:
	li	a0,0
.LVL18:
.L2:
.LM70:
	lw	ra,44(sp)
	.cfi_remember_state
	.cfi_restore 1
	lw	s0,40(sp)
	.cfi_restore 8
	lw	s1,36(sp)
	.cfi_restore 9
	lw	s2,32(sp)
	.cfi_restore 18
	lw	s3,28(sp)
	.cfi_restore 19
	lw	s4,24(sp)
	.cfi_restore 20
	lw	s5,20(sp)
	.cfi_restore 21
	addi	sp,sp,48
	.cfi_def_cfa_offset 0
	jr	ra
.LVL19:
.L4:
	.cfi_restore_state
.LM71:
	li	a0,-4
.LVL20:
.LM72:
	j	.L2
	.cfi_endproc
.LFE41:
	.size	mbedtls_mpi_lt_mpi_ct, .-mbedtls_mpi_lt_mpi_ct
	.section	.text.mbedtls_mpi_init,"ax",@progbits
	.align	1
	.globl	mbedtls_mpi_init
	.type	mbedtls_mpi_init, @function
mbedtls_mpi_init:
.LVL21:
.LFB44:
.LM73:
	.cfi_startproc
.LM74:
.LM75:
.LM76:
.LM77:
	li	a5,1
.LM78:
	sw	zero,0(a0)
.LM79:
	sw	a5,4(a0)
.LM80:
	ret
	.cfi_endproc
.LFE44:
	.size	mbedtls_mpi_init, .-mbedtls_mpi_init
	.section	.text.mbedtls_mpi_free,"ax",@progbits
	.align	1
	.globl	mbedtls_mpi_free
	.type	mbedtls_mpi_free, @function
mbedtls_mpi_free:
.LVL22:
.LFB45:
.LM81:
	.cfi_startproc
.LM82:
.LM83:
	beq	a0,zero,.L17
.LM84:
	addi	sp,sp,-16
	.cfi_def_cfa_offset 16
	sw	s0,8(sp)
	sw	ra,12(sp)
	.cfi_offset 8, -8
	.cfi_offset 1, -4
	mv	s0,a0
.LM85:
.LM86:
	lw	a0,0(a0)
.LVL23:
.LM87:
	beq	a0,zero,.L9
.LM88:
.LM89:
	lhu	a1,6(s0)
.LM90:
	slli	a1,a1,2
	call	mbedtls_zeroize_and_free
.LVL24:
.L9:
.LM91:
.LM92:
.LM93:
.LM94:
	li	a5,1
.LM95:
	sw	zero,0(s0)
.LM96:
	sw	a5,4(s0)
.LM97:
	lw	ra,12(sp)
	.cfi_restore 1
	lw	s0,8(sp)
	.cfi_restore 8
.LVL25:
.LM98:
	addi	sp,sp,16
	.cfi_def_cfa_offset 0
	jr	ra
.LVL26:
.L17:
.LM99:
	ret
	.cfi_endproc
.LFE45:
	.size	mbedtls_mpi_free, .-mbedtls_mpi_free
	.section	.text.mbedtls_mpi_grow,"ax",@progbits
	.align	1
	.globl	mbedtls_mpi_grow
	.type	mbedtls_mpi_grow, @function
mbedtls_mpi_grow:
.LVL27:
.LFB46:
.LM100:
	.cfi_startproc
.LM101:
.LM102:
.LM103:
	li	a5,8192
	addi	a5,a5,1808
	bleu	a1,a5,.L21
.LM104:
	li	a0,-16
.LVL28:
.LM105:
	ret
.LVL29:
.L24:
	.cfi_def_cfa_offset 16
	.cfi_offset 1, -4
	.cfi_offset 8, -8
	.cfi_offset 9, -12
	.cfi_offset 18, -16
.LM106:
	li	a0,-16
.LVL30:
.L20:
.LM107:
	lw	ra,12(sp)
	.cfi_restore 1
	lw	s0,8(sp)
	.cfi_restore 8
.LVL31:
.LM108:
	lw	s1,4(sp)
	.cfi_restore 9
.LVL32:
.LM109:
	lw	s2,0(sp)
	.cfi_restore 18
.LVL33:
.LM110:
	addi	sp,sp,16
	.cfi_def_cfa_offset 0
	jr	ra
.LVL34:
.L21:
.LM111:
.LM112:
	lhu	a5,6(a0)
.LM113:
	bgeu	a5,a1,.L36
.LM114:
	addi	sp,sp,-16
	.cfi_def_cfa_offset 16
	sw	s1,4(sp)
	.cfi_offset 9, -12
	mv	s1,a1
	sw	s0,8(sp)
.LM115:
	li	a1,4
.LVL35:
	.cfi_offset 8, -8
.LM116:
	mv	s0,a0
.LM117:
.LM118:
	mv	a0,s1
.LVL36:
.LM119:
	sw	s2,0(sp)
	sw	ra,12(sp)
	.cfi_offset 18, -16
	.cfi_offset 1, -4
.LM120:
	call	calloc
.LVL37:
	mv	s2,a0
.LVL38:
.LM121:
	beq	a0,zero,.L24
.LM122:
.LM123:
	lw	a1,0(s0)
.LM124:
	beq	a1,zero,.L25
.LM125:
.LM126:
	lhu	a2,6(s0)
.LM127:
	slli	a2,a2,2
	call	memcpy
.LVL39:
.LM128:
.LM129:
	lhu	a1,6(s0)
.LM130:
	lw	a0,0(s0)
	slli	a1,a1,2
	call	mbedtls_zeroize_and_free
.LVL40:
.L25:
.LM131:
.LM132:
	sh	s1,6(s0)
.LM133:
.LM134:
	sw	s2,0(s0)
.LM135:
	li	a0,0
	j	.L20
.LVL41:
.L36:
	.cfi_def_cfa_offset 0
	.cfi_restore 1
	.cfi_restore 8
	.cfi_restore 9
	.cfi_restore 18
.LM136:
	li	a0,0
.LVL42:
.LM137:
	ret
	.cfi_endproc
.LFE46:
	.size	mbedtls_mpi_grow, .-mbedtls_mpi_grow
	.section	.text.mbedtls_mpi_safe_cond_assign,"ax",@progbits
	.align	1
	.globl	mbedtls_mpi_safe_cond_assign
	.type	mbedtls_mpi_safe_cond_assign, @function
mbedtls_mpi_safe_cond_assign:
.LVL43:
.LFB42:
.LM138:
	.cfi_startproc
.LM139:
.LM140:
.LM141:
.LM142:
	addi	sp,sp,-32
	.cfi_def_cfa_offset 32
	sw	s0,24(sp)
	sw	s1,20(sp)
	sw	s2,16(sp)
	sw	ra,28(sp)
	.cfi_offset 8, -8
	.cfi_offset 9, -12
	.cfi_offset 18, -16
	.cfi_offset 1, -4
.LM143:
	mv	s1,a1
.LM144:
	lhu	a1,6(a1)
.LVL44:
.LM145:
	mv	s0,a0
	sw	a2,12(sp)
.LM146:
	call	mbedtls_mpi_grow
.LVL45:
.LM147:
	mv	s2,a0
.LVL46:
.LM148:
	bne	a0,zero,.L38
.LM149:
.LBB144:
.LM150:
.LM151:
	lw	a0,12(sp)
.LVL47:
.LM152:
	call	mbedtls_ct_bool
.LVL48:
	mv	a3,a0
.LVL49:
.LM153:
.LBB145:
.LBI145:
.LM154:
.LBB146:
.LM155:
.LBB147:
.LBI147:
.LM156:
.LM157:
.LBB148:
.LBI148:
.LM158:
.LBB149:
.LM159:
.LBB150:
.LBI150:
.LM160:
.LBB151:
.LM161:
	mv	a4,a0
.LVL50:
.LM162:
.LM163:
.LBE151:
.LBE150:
.LM164:
.LM165:
.LBE149:
.LBE148:
.LBE147:
.LM166:
	lh	a5,4(s0)
.LBB158:
.LBB155:
.LBB152:
.LM167:
	not	a4,a4
.LBE152:
.LBE155:
.LBE158:
.LBE146:
.LBE145:
.LM168:
	sw	a0,12(sp)
.LVL51:
.LBB162:
.LBB161:
.LM169:
	addi	a5,a5,1
.LBB159:
.LBB156:
.LBB153:
.LM170:
	and	a5,a5,a4
.LBE153:
.LBE156:
.LBE159:
.LM171:
	lh	a4,4(s1)
	addi	a4,a4,1
.LBB160:
.LBB157:
.LBB154:
.LM172:
	and	a4,a4,a0
.LM173:
	or	a5,a5,a4
.LBE154:
.LBE157:
.LBE160:
.LM174:
	addi	a5,a5,-1
.LBE161:
.LBE162:
.LM175:
	sh	a5,4(s0)
.LM176:
	lhu	a2,6(s1)
	lw	a1,0(s1)
	lw	a0,0(s0)
.LVL52:
.LM177:
	call	mbedtls_mpi_core_cond_assign
.LVL53:
.LM178:
.LBB163:
.LBI163:
.LM179:
.LBB164:
.LM180:
.LM181:
	lw	a3,12(sp)
.LBE164:
.LBE163:
.LBB166:
.LM182:
	lhu	a5,6(s1)
.LBE166:
.LBB169:
.LBB165:
.LM183:
	not	a3,a3
.LVL54:
.LM184:
.LBE165:
.LBE169:
.LM185:
.LBB170:
.LM186:
.L40:
.LM187:
.LM188:
	lhu	a4,6(s0)
.LM189:
	bgtu	a4,a5,.L41
.LVL55:
.L38:
.LM190:
.LBE170:
.LBE144:
.LM191:
	lw	ra,28(sp)
	.cfi_remember_state
	.cfi_restore 1
	lw	s0,24(sp)
	.cfi_restore 8
.LVL56:
.LM192:
	lw	s1,20(sp)
	.cfi_restore 9
.LVL57:
.LM193:
	mv	a0,s2
	lw	s2,16(sp)
	.cfi_restore 18
.LVL58:
.LM194:
	addi	sp,sp,32
	.cfi_def_cfa_offset 0
	jr	ra
.LVL59:
.L41:
	.cfi_restore_state
.LBB172:
.LBB171:
.LM195:
.LM196:
	lw	a4,0(s0)
	slli	a2,a5,2
.LM197:
	addi	a5,a5,1
.LVL60:
.LM198:
	add	a4,a4,a2
.LVL61:
.LBB167:
.LBI167:
.LM199:
.LBB168:
.LM200:
.LM201:
	lw	a2,0(a4)
	and	a2,a2,a3
.LBE168:
.LBE167:
.LM202:
	sw	a2,0(a4)
.LM203:
	j	.L40
.LBE171:
.LBE172:
	.cfi_endproc
.LFE42:
	.size	mbedtls_mpi_safe_cond_assign, .-mbedtls_mpi_safe_cond_assign
	.section	.text.mbedtls_mpi_safe_cond_swap,"ax",@progbits
	.align	1
	.globl	mbedtls_mpi_safe_cond_swap
	.type	mbedtls_mpi_safe_cond_swap, @function
mbedtls_mpi_safe_cond_swap:
.LVL62:
.LFB43:
.LM204:
	.cfi_startproc
.LM205:
.LM206:
.LM207:
.LM208:
	beq	a0,a1,.L50
.LM209:
	addi	sp,sp,-16
	.cfi_def_cfa_offset 16
	sw	s0,8(sp)
	.cfi_offset 8, -8
	mv	s0,a0
.LM210:
.LM211:
	mv	a0,a2
.LVL63:
.LM212:
	sw	s1,4(sp)
	sw	s2,0(sp)
	sw	ra,12(sp)
	.cfi_offset 9, -12
	.cfi_offset 18, -16
	.cfi_offset 1, -4
	mv	s2,a1
.LM213:
	call	mbedtls_ct_bool
.LVL64:
.LM214:
	lhu	a1,6(s2)
.LM215:
	mv	s1,a0
.LVL65:
.LM216:
.LM217:
.LM218:
	mv	a0,s0
	call	mbedtls_mpi_grow
.LVL66:
.LM219:
	beq	a0,zero,.L46
.L48:
.LM220:
	li	a0,-16
.LVL67:
.L44:
.LM221:
	lw	ra,12(sp)
	.cfi_remember_state
	.cfi_restore 1
	lw	s0,8(sp)
	.cfi_restore 8
.LVL68:
.LM222:
	lw	s1,4(sp)
	.cfi_restore 9
.LVL69:
.LM223:
	lw	s2,0(sp)
	.cfi_restore 18
.LVL70:
.LM224:
	addi	sp,sp,16
	.cfi_def_cfa_offset 0
	jr	ra
.LVL71:
.L46:
	.cfi_restore_state
.LM225:
.LM226:
.LM227:
.LM228:
	lhu	a1,6(s0)
	mv	a0,s2
.LVL72:
.LM229:
	call	mbedtls_mpi_grow
.LVL73:
.LM230:
	bne	a0,zero,.L48
.LM231:
.LM232:
.LVL74:
.LM233:
.LBB187:
.LBI187:
.LM234:
.LBB188:
.LM235:
.LM236:
	lh	a2,4(s0)
.LVL75:
.LBB189:
.LBB190:
.LBB191:
.LBB192:
.LBB193:
.LM237:
	mv	a4,s1
.LBE193:
.LBE192:
.LBE191:
.LBE190:
.LBE189:
.LM238:
	addi	a2,a2,1
.LVL76:
.LBB202:
.LBI189:
.LM239:
.LM240:
.LBB199:
.LBI190:
.LM241:
.LBB196:
.LM242:
.LBB195:
.LBI192:
.LM243:
.LBB194:
.LM244:
.LVL77:
.LM245:
.LM246:
.LBE194:
.LBE195:
.LM247:
.LM248:
.LBE196:
.LBE199:
.LBE202:
.LM249:
	lh	a5,4(s2)
.LBB203:
.LBB200:
.LBB197:
.LM250:
	not	a4,a4
.LM251:
	and	a4,a4,a2
.LBE197:
.LBE200:
.LBE203:
.LM252:
	addi	a5,a5,1
.LBB204:
.LBB201:
.LBB198:
.LM253:
	and	a5,a5,s1
.LM254:
	or	a5,a5,a4
.LBE198:
.LBE201:
.LBE204:
.LM255:
	addi	a5,a5,-1
.LBE188:
.LBE187:
.LM256:
	sh	a5,4(s0)
.LM257:
.LVL78:
.LBB205:
.LBI205:
.LM258:
.LBB206:
.LM259:
.LBB207:
.LBI207:
.LM260:
.LM261:
.LBB208:
.LBI208:
.LM262:
.LBB209:
.LM263:
.LBB210:
.LBI210:
.LM264:
.LBB211:
.LM265:
	mv	a4,s1
.LVL79:
.LM266:
.LM267:
.LBE211:
.LBE210:
.LM268:
.LM269:
.LBE209:
.LBE208:
.LBE207:
.LM270:
	lh	a5,4(s2)
.LBB216:
.LBB214:
.LBB212:
.LM271:
	not	a4,a4
.LM272:
	and	a2,s1,a2
.LVL80:
.LM273:
.LBE212:
.LBE214:
.LBE216:
.LM274:
	addi	a5,a5,1
.LBB217:
.LBB215:
.LBB213:
.LM275:
	and	a5,a5,a4
.LM276:
	or	a5,a5,a2
.LBE213:
.LBE215:
.LBE217:
.LM277:
	addi	a5,a5,-1
.LBE206:
.LBE205:
.LM278:
	sh	a5,4(s2)
.LM279:
	lw	a0,0(s0)
.LVL81:
.LM280:
	lhu	a2,6(s0)
	lw	a1,0(s2)
	mv	a3,s1
	call	mbedtls_mpi_core_cond_swap
.LVL82:
.LM281:
	li	a0,0
.LVL83:
.LM282:
	j	.L44
.LVL84:
.L50:
	.cfi_def_cfa_offset 0
	.cfi_restore 1
	.cfi_restore 8
	.cfi_restore 9
	.cfi_restore 18
.LM283:
	li	a0,0
.LVL85:
.LM284:
	ret
	.cfi_endproc
.LFE43:
	.size	mbedtls_mpi_safe_cond_swap, .-mbedtls_mpi_safe_cond_swap
	.section	.text.mbedtls_mpi_resize_clear,"ax",@progbits
	.align	1
	.type	mbedtls_mpi_resize_clear, @function
mbedtls_mpi_resize_clear:
.LVL86:
.LFB48:
.LM285:
	.cfi_startproc
.LM286:
.LM287:
	addi	sp,sp,-32
	.cfi_def_cfa_offset 32
	sw	ra,28(sp)
	sw	s0,24(sp)
	.cfi_offset 1, -4
	.cfi_offset 8, -8
.LM288:
	bne	a1,zero,.L55
.LM289:
	call	mbedtls_mpi_free
.LVL87:
.LM290:
.L58:
.LM291:
	lw	ra,28(sp)
	.cfi_remember_state
	.cfi_restore 1
	lw	s0,24(sp)
	.cfi_restore 8
	li	a0,0
	addi	sp,sp,32
	.cfi_def_cfa_offset 0
	jr	ra
.LVL88:
.L55:
	.cfi_restore_state
.LM292:
	lhu	a2,6(a0)
	mv	s0,a0
.LM293:
.LM294:
	bne	a2,a1,.L57
.LVL89:
.LM295:
	lw	a0,0(a0)
	slli	a2,a2,2
	li	a1,0
.LVL90:
.LM296:
	call	memset
.LVL91:
.LM297:
.LM298:
	li	a5,1
	sh	a5,4(s0)
.LM299:
.LM300:
	j	.L58
.LVL92:
.L57:
.LM301:
	sw	a1,12(sp)
.LVL93:
.LBB220:
.LBI220:
.LM302:
.LBB221:
.LM303:
	call	mbedtls_mpi_free
.LVL94:
.LM304:
.LM305:
	mv	a0,s0
.LBE221:
.LBE220:
.LM306:
	lw	s0,24(sp)
	.cfi_restore 8
.LVL95:
.LBB224:
.LBB222:
.LM307:
	lw	a1,12(sp)
.LBE222:
.LBE224:
.LM308:
	lw	ra,28(sp)
	.cfi_restore 1
	addi	sp,sp,32
	.cfi_def_cfa_offset 0
.LVL96:
.LBB225:
.LBB223:
.LM309:
	tail	mbedtls_mpi_grow
.LVL97:
.LM310:
.LBE223:
.LBE225:
	.cfi_endproc
.LFE48:
	.size	mbedtls_mpi_resize_clear, .-mbedtls_mpi_resize_clear
	.section	.text.mbedtls_mpi_shrink,"ax",@progbits
	.align	1
	.globl	mbedtls_mpi_shrink
	.type	mbedtls_mpi_shrink, @function
mbedtls_mpi_shrink:
.LVL98:
.LFB47:
.LM311:
	.cfi_startproc
.LM312:
.LM313:
.LM314:
.LM315:
	li	a4,8192
	addi	a4,a4,1808
	bleu	a1,a4,.L61
.LM316:
	li	a0,-16
.LVL99:
.LM317:
	ret
.LVL100:
.L68:
	.cfi_def_cfa_offset 16
	.cfi_offset 1, -4
	.cfi_offset 8, -8
	.cfi_offset 9, -12
	.cfi_offset 18, -16
.LM318:
	li	a0,-16
.LVL101:
.L60:
.LM319:
	lw	ra,12(sp)
	.cfi_restore 1
	lw	s0,8(sp)
	.cfi_restore 8
.LVL102:
.LM320:
	lw	s1,4(sp)
	.cfi_restore 9
.LVL103:
.LM321:
	lw	s2,0(sp)
	.cfi_restore 18
.LVL104:
.LM322:
	addi	sp,sp,16
	.cfi_def_cfa_offset 0
	jr	ra
.LVL105:
.L61:
.LM323:
	addi	sp,sp,-16
	.cfi_def_cfa_offset 16
	sw	s0,8(sp)
	sw	s1,4(sp)
	sw	ra,12(sp)
	sw	s2,0(sp)
	.cfi_offset 8, -8
	.cfi_offset 9, -12
	.cfi_offset 1, -4
	.cfi_offset 18, -16
.LM324:
	lhu	a4,6(a0)
	mv	s1,a0
	mv	a5,a1
.LM325:
.LM326:
	addi	s0,a4,-1
.LM327:
	bgtu	a4,a1,.L64
.LVL106:
.LM328:
.LM329:
	lw	s0,8(sp)
	.cfi_remember_state
	.cfi_restore 8
	lw	ra,12(sp)
	.cfi_restore 1
	lw	s1,4(sp)
	.cfi_restore 9
.LVL107:
.LM330:
	lw	s2,0(sp)
	.cfi_restore 18
	addi	sp,sp,16
	.cfi_def_cfa_offset 0
.LM331:
	tail	mbedtls_mpi_grow
.LVL108:
.L66:
	.cfi_restore_state
.LM332:
.LM333:
	lw	a4,0(s1)
	slli	a3,s0,2
	add	a4,a4,a3
.LM334:
	lw	a4,0(a4)
	bne	a4,zero,.L65
.LM335:
	addi	s0,s0,-1
.LVL109:
.L64:
.LM336:
	bne	s0,zero,.L66
.L65:
.LM337:
.LVL110:
.LM338:
.LM339:
	addi	s0,s0,1
.LVL111:
.LM340:
	bgeu	s0,a5,.L67
	mv	s0,a5
.LVL112:
.L67:
.LM341:
.LM342:
	li	a1,4
.LVL113:
.LM343:
	mv	a0,s0
	call	calloc
.LVL114:
.LM344:
	mv	s2,a0
.LVL115:
.LM345:
	beq	a0,zero,.L68
.LM346:
.LM347:
	lw	a1,0(s1)
.LM348:
	beq	a1,zero,.L69
.LM349:
	slli	a2,s0,2
	call	memcpy
.LVL116:
.LM350:
.LM351:
	lhu	a1,6(s1)
.LM352:
	lw	a0,0(s1)
	slli	a1,a1,2
	call	mbedtls_zeroize_and_free
.LVL117:
.L69:
.LM353:
.LM354:
	sh	s0,6(s1)
.LM355:
.LM356:
	sw	s2,0(s1)
.LM357:
.LM358:
	li	a0,0
	j	.L60
	.cfi_endproc
.LFE47:
	.size	mbedtls_mpi_shrink, .-mbedtls_mpi_shrink
	.section	.text.mbedtls_mpi_copy,"ax",@progbits
	.align	1
	.globl	mbedtls_mpi_copy
	.type	mbedtls_mpi_copy, @function
mbedtls_mpi_copy:
.LVL118:
.LFB49:
.LM359:
	.cfi_startproc
.LM360:
.LM361:
.LM362:
.LM363:
	beq	a0,a1,.L95
.LM364:
	addi	sp,sp,-16
	.cfi_def_cfa_offset 16
	sw	s0,8(sp)
	sw	s1,4(sp)
	sw	s2,0(sp)
	sw	ra,12(sp)
	.cfi_offset 8, -8
	.cfi_offset 9, -12
	.cfi_offset 18, -16
	.cfi_offset 1, -4
.LM365:
	lhu	a5,6(a1)
	mv	s2,a1
	mv	s0,a0
.LM366:
.LM367:
	addi	s1,a5,-1
.LM368:
	bne	a5,zero,.L84
.LM369:
.LM370:
	lhu	a2,6(a0)
.LM371:
	beq	a2,zero,.L81
.LM372:
.LM373:
	li	a5,1
	sh	a5,4(a0)
.LM374:
	lw	a0,0(a0)
.LVL119:
.LM375:
	slli	a2,a2,2
	li	a1,0
.LVL120:
.LM376:
	call	memset
.LVL121:
.L81:
.LM377:
	li	a5,0
.LVL122:
.L80:
.LM378:
	lw	ra,12(sp)
	.cfi_remember_state
	.cfi_restore 1
	lw	s0,8(sp)
	.cfi_restore 8
.LVL123:
.LM379:
	lw	s1,4(sp)
	.cfi_restore 9
	lw	s2,0(sp)
	.cfi_restore 18
.LVL124:
.LM380:
	mv	a0,a5
	addi	sp,sp,16
	.cfi_def_cfa_offset 0
	jr	ra
.LVL125:
.L86:
	.cfi_restore_state
.LM381:
.LM382:
	lw	a5,0(s2)
	slli	a4,s1,2
	add	a5,a5,a4
.LM383:
	lw	a5,0(a5)
	bne	a5,zero,.L85
.LM384:
	addi	s1,s1,-1
.LVL126:
.L84:
.LM385:
	bne	s1,zero,.L86
.L85:
.LM386:
.LM387:
	lh	a5,4(s2)
.LM388:
	lhu	a2,6(s0)
.LM389:
	addi	s1,s1,1
.LVL127:
.LM390:
.LM391:
	sh	a5,4(s0)
.LM392:
.LM393:
	bgeu	a2,s1,.L87
.LM394:
.LM395:
.LM396:
	mv	a1,s1
.LVL128:
.LM397:
	mv	a0,s0
	call	mbedtls_mpi_grow
.LVL129:
.LM398:
	li	a5,-16
.LM399:
	bne	a0,zero,.L80
.LVL130:
.L88:
.LM400:
	lw	a1,0(s2)
	lw	a0,0(s0)
	slli	a2,s1,2
	call	memcpy
.LVL131:
	j	.L81
.LVL132:
.L87:
.LM401:
.LM402:
	lw	a5,0(s0)
.LM403:
	sub	a2,a2,s1
.LM404:
	slli	a0,s1,2
.LM405:
	slli	a2,a2,2
	li	a1,0
.LVL133:
.LM406:
	add	a0,a5,a0
	call	memset
.LVL134:
	j	.L88
.LVL135:
.L95:
	.cfi_def_cfa_offset 0
	.cfi_restore 1
	.cfi_restore 8
	.cfi_restore 9
	.cfi_restore 18
.LM407:
	li	a5,0
.LM408:
	mv	a0,a5
.LVL136:
.LM409:
	ret
	.cfi_endproc
.LFE49:
	.size	mbedtls_mpi_copy, .-mbedtls_mpi_copy
	.section	.text.mbedtls_mpi_swap,"ax",@progbits
	.align	1
	.globl	mbedtls_mpi_swap
	.type	mbedtls_mpi_swap, @function
mbedtls_mpi_swap:
.LVL137:
.LFB50:
.LM410:
	.cfi_startproc
.LM411:
.LM412:
.LM413:
	addi	sp,sp,-32
	.cfi_def_cfa_offset 32
.LM414:
	li	a2,8
.LM415:
	sw	s0,24(sp)
	sw	s1,20(sp)
	.cfi_offset 8, -8
	.cfi_offset 9, -12
	mv	s0,a0
	mv	s1,a1
.LM416:
	mv	a1,a0
.LVL138:
.LM417:
	add	a0,sp,a2
.LVL139:
.LM418:
	sw	ra,28(sp)
	.cfi_offset 1, -4
.LM419:
	call	memcpy
.LVL140:
.LM420:
	mv	a1,s1
	li	a2,8
	mv	a0,s0
	call	memcpy
.LVL141:
.LM421:
	li	a2,8
	add	a1,sp,a2
	mv	a0,s1
	call	memcpy
.LVL142:
.LM422:
	lw	ra,28(sp)
	.cfi_restore 1
	lw	s0,24(sp)
	.cfi_restore 8
.LVL143:
.LM423:
	lw	s1,20(sp)
	.cfi_restore 9
.LVL144:
.LM424:
	addi	sp,sp,32
	.cfi_def_cfa_offset 0
	jr	ra
	.cfi_endproc
.LFE50:
	.size	mbedtls_mpi_swap, .-mbedtls_mpi_swap
	.section	.text.mbedtls_mpi_lset,"ax",@progbits
	.align	1
	.globl	mbedtls_mpi_lset
	.type	mbedtls_mpi_lset, @function
mbedtls_mpi_lset:
.LVL145:
.LFB52:
.LM425:
	.cfi_startproc
.LM426:
.LM427:
.LM428:
.LM429:
	addi	sp,sp,-16
	.cfi_def_cfa_offset 16
	sw	s0,8(sp)
	.cfi_offset 8, -8
	mv	s0,a1
.LM430:
	li	a1,1
.LVL146:
.LM431:
	sw	s1,4(sp)
	sw	s2,0(sp)
	sw	ra,12(sp)
	.cfi_offset 9, -12
	.cfi_offset 18, -16
	.cfi_offset 1, -4
.LM432:
	mv	s1,a0
.LM433:
	call	mbedtls_mpi_grow
.LVL147:
.LM434:
	mv	s2,a0
.LVL148:
.LM435:
	bne	a0,zero,.L100
.LVL149:
.LBB230:
.LBI230:
.LM436:
.LBB231:
.LM437:
.LM438:
.LM439:
	lhu	a2,6(s1)
.LM440:
	lw	a0,0(s1)
.LVL150:
.LM441:
	li	a1,0
	slli	a2,a2,2
	call	memset
.LVL151:
.LM442:
.LBB232:
.LBB233:
.LM443:
	srai	a4,s0,31
.LBE233:
.LBE232:
.LM444:
	lw	a3,0(s1)
.LVL152:
.LBB235:
.LBI232:
.LM445:
.LBB234:
.LM446:
.LM447:
	xor	a5,a4,s0
	sub	a5,a5,a4
.LBE234:
.LBE235:
.LM448:
	sw	a5,0(a3)
.LM449:
.LM450:
	ori	s0,a4,1
.LVL153:
.LM451:
	sh	s0,4(s1)
.LVL154:
.LM452:
.LBE231:
.LBE230:
.LM453:
.L101:
.L100:
.LM454:
	lw	ra,12(sp)
	.cfi_restore 1
	lw	s0,8(sp)
	.cfi_restore 8
	lw	s1,4(sp)
	.cfi_restore 9
.LVL155:
.LM455:
	mv	a0,s2
	lw	s2,0(sp)
	.cfi_restore 18
.LVL156:
.LM456:
	addi	sp,sp,16
	.cfi_def_cfa_offset 0
	jr	ra
	.cfi_endproc
.LFE52:
	.size	mbedtls_mpi_lset, .-mbedtls_mpi_lset
	.section	.text.mbedtls_mpi_get_bit,"ax",@progbits
	.align	1
	.globl	mbedtls_mpi_get_bit
	.type	mbedtls_mpi_get_bit, @function
mbedtls_mpi_get_bit:
.LVL157:
.LFB53:
.LM457:
	.cfi_startproc
.LM458:
.LM459:
	lhu	a5,6(a0)
.LM460:
	slli	a5,a5,5
.LM461:
	bleu	a5,a1,.L105
.LM462:
.LM463:
	lw	a5,0(a0)
.LM464:
	srli	a4,a1,5
.LM465:
	slli	a4,a4,2
	add	a5,a5,a4
.LM466:
	lw	a0,0(a5)
.LVL158:
.LM467:
	srl	a0,a0,a1
	andi	a0,a0,1
.LM468:
	ret
.LVL159:
.L105:
.LM469:
	li	a0,0
.LVL160:
.LM470:
	ret
	.cfi_endproc
.LFE53:
	.size	mbedtls_mpi_get_bit, .-mbedtls_mpi_get_bit
	.section	.text.mbedtls_mpi_set_bit,"ax",@progbits
	.align	1
	.globl	mbedtls_mpi_set_bit
	.type	mbedtls_mpi_set_bit, @function
mbedtls_mpi_set_bit:
.LVL161:
.LFB54:
.LM471:
	.cfi_startproc
.LM472:
.LM473:
.LM474:
.LM475:
.LM476:
	li	a5,1
	bgtu	a2,a5,.L111
.LM477:
	addi	sp,sp,-32
	.cfi_def_cfa_offset 32
	sw	s0,24(sp)
	sw	s1,20(sp)
	sw	s2,16(sp)
	sw	s3,12(sp)
	sw	ra,28(sp)
	.cfi_offset 8, -8
	.cfi_offset 9, -12
	.cfi_offset 18, -16
	.cfi_offset 19, -20
	.cfi_offset 1, -4
.LM478:
	lhu	a5,6(a0)
	mv	s3,a0
	mv	s1,a2
.LM479:
	slli	a5,a5,5
	mv	s0,a1
.LM480:
	srli	s2,a1,5
.LVL162:
.LM481:
.LM482:
	bleu	a5,a1,.L108
.LVL163:
.L110:
.LM483:
	lw	a4,0(s3)
	slli	s2,s2,2
.LVL164:
.LM484:
	andi	s0,s0,31
.LVL165:
.LM485:
.LM486:
.LM487:
	add	a4,a4,s2
.LM488:
	lw	a3,0(a4)
.LM489:
	li	a5,1
	sll	a5,a5,s0
.LM490:
	not	a5,a5
.LM491:
	and	a5,a3,a5
	sw	a5,0(a4)
.LM492:
.LM493:
	lw	a5,0(s3)
.LM494:
	sll	s1,s1,s0
.LVL166:
.LM495:
	add	a5,a5,s2
.LM496:
	lw	a4,0(a5)
	or	a4,a4,s1
	sw	a4,0(a5)
.L109:
.LM497:
	li	a0,0
.LVL167:
.L106:
.LM498:
	lw	ra,28(sp)
	.cfi_remember_state
	.cfi_restore 1
	lw	s0,24(sp)
	.cfi_restore 8
	lw	s1,20(sp)
	.cfi_restore 9
	lw	s2,16(sp)
	.cfi_restore 18
	lw	s3,12(sp)
	.cfi_restore 19
.LVL168:
.LM499:
	addi	sp,sp,32
	.cfi_def_cfa_offset 0
	jr	ra
.LVL169:
.L108:
	.cfi_restore_state
.LM500:
.LM501:
	beq	a2,zero,.L109
.LM502:
.LM503:
.LM504:
	addi	a1,s2,1
	call	mbedtls_mpi_grow
.LVL170:
.LM505:
	beq	a0,zero,.L110
.LM506:
	li	a0,-16
.LVL171:
.LM507:
	j	.L106
.LVL172:
.L111:
	.cfi_def_cfa_offset 0
	.cfi_restore 1
	.cfi_restore 8
	.cfi_restore 9
	.cfi_restore 18
	.cfi_restore 19
.LM508:
	li	a0,-4
.LVL173:
.LM509:
	ret
	.cfi_endproc
.LFE54:
	.size	mbedtls_mpi_set_bit, .-mbedtls_mpi_set_bit
	.section	.text.mbedtls_mpi_lsb,"ax",@progbits
	.align	1
	.globl	mbedtls_mpi_lsb
	.type	mbedtls_mpi_lsb, @function
mbedtls_mpi_lsb:
.LVL174:
.LFB55:
.LM510:
	.cfi_startproc
.LM511:
.LM512:
.LM513:
	addi	sp,sp,-16
	.cfi_def_cfa_offset 16
	sw	s0,8(sp)
	sw	ra,12(sp)
	.cfi_offset 8, -8
	.cfi_offset 1, -4
.LM514:
	lhu	a3,6(a0)
.LM515:
	mv	a4,a0
.LM516:
	li	s0,0
.LVL175:
.L123:
.LM517:
	bgtu	a3,s0,.L126
.LM518:
	li	a0,0
	j	.L122
.L126:
.LM519:
.LM520:
	lw	a5,0(a4)
	slli	a2,s0,2
	add	a5,a5,a2
	lw	a0,0(a5)
.LM521:
	beq	a0,zero,.L124
.LM522:
.LM523:
	call	__ctzsi2
.LVL176:
.LM524:
	slli	s0,s0,5
.LVL177:
.LM525:
	add	a0,s0,a0
.L122:
.LM526:
	lw	ra,12(sp)
	.cfi_remember_state
	.cfi_restore 1
	lw	s0,8(sp)
	.cfi_restore 8
	addi	sp,sp,16
	.cfi_def_cfa_offset 0
	jr	ra
.LVL178:
.L124:
	.cfi_restore_state
.LM527:
	addi	s0,s0,1
.LVL179:
.LM528:
	j	.L123
	.cfi_endproc
.LFE55:
	.size	mbedtls_mpi_lsb, .-mbedtls_mpi_lsb
	.section	.text.mbedtls_mpi_bitlen,"ax",@progbits
	.align	1
	.globl	mbedtls_mpi_bitlen
	.type	mbedtls_mpi_bitlen, @function
mbedtls_mpi_bitlen:
.LVL180:
.LFB56:
.LM529:
	.cfi_startproc
.LM530:
.LM531:
	lhu	a1,6(a0)
	lw	a0,0(a0)
.LVL181:
.LM532:
	tail	mbedtls_mpi_core_bitlen
.LVL182:
	.cfi_endproc
.LFE56:
	.size	mbedtls_mpi_bitlen, .-mbedtls_mpi_bitlen
	.section	.text.mbedtls_mpi_size,"ax",@progbits
	.align	1
	.globl	mbedtls_mpi_size
	.type	mbedtls_mpi_size, @function
mbedtls_mpi_size:
.LVL183:
.LFB57:
.LM533:
	.cfi_startproc
.LM534:
.LM535:
	addi	sp,sp,-16
	.cfi_def_cfa_offset 16
	sw	ra,12(sp)
	.cfi_offset 1, -4
.LM536:
	call	mbedtls_mpi_bitlen
.LVL184:
.LM537:
	lw	ra,12(sp)
	.cfi_restore 1
.LM538:
	addi	a0,a0,7
.LM539:
	srli	a0,a0,3
	addi	sp,sp,16
	.cfi_def_cfa_offset 0
	jr	ra
	.cfi_endproc
.LFE57:
	.size	mbedtls_mpi_size, .-mbedtls_mpi_size
	.section	.text.mbedtls_mpi_read_binary_le,"ax",@progbits
	.align	1
	.globl	mbedtls_mpi_read_binary_le
	.type	mbedtls_mpi_read_binary_le, @function
mbedtls_mpi_read_binary_le:
.LVL185:
.LFB62:
.LM540:
	.cfi_startproc
.LM541:
.LM542:
.LM543:
.LM544:
.LM545:
	addi	sp,sp,-32
	.cfi_def_cfa_offset 32
.LM546:
	andi	a5,a2,3
.LM547:
	sw	s1,20(sp)
.LM548:
	snez	a5,a5
	.cfi_offset 9, -12
.LM549:
	mv	s1,a1
.LM550:
	srli	a1,a2,2
.LVL186:
.LM551:
	add	a1,a5,a1
.LM552:
	sw	s0,24(sp)
	sw	ra,28(sp)
	.cfi_offset 8, -8
	.cfi_offset 1, -4
.LM553:
	mv	s0,a0
.LM554:
	sw	a2,12(sp)
.LM555:
	call	mbedtls_mpi_resize_clear
.LVL187:
.LM556:
	bne	a0,zero,.L132
.LM557:
.LM558:
.LM559:
.LM560:
	lhu	a1,6(s0)
	lw	a0,0(s0)
.LVL188:
.LM561:
	lw	s0,24(sp)
	.cfi_remember_state
	.cfi_restore 8
.LVL189:
.LM562:
	lw	a3,12(sp)
.LM563:
	lw	ra,28(sp)
	.cfi_restore 1
.LM564:
	mv	a2,s1
.LM565:
	lw	s1,20(sp)
	.cfi_restore 9
.LVL190:
.LM566:
	addi	sp,sp,32
	.cfi_def_cfa_offset 0
.LVL191:
.LM567:
	tail	mbedtls_mpi_core_read_le
.LVL192:
.L132:
	.cfi_restore_state
.LM568:
.LM569:
.LM570:
	lw	ra,28(sp)
	.cfi_restore 1
	lw	s0,24(sp)
	.cfi_restore 8
.LVL193:
.LM571:
	lw	s1,20(sp)
	.cfi_restore 9
.LVL194:
.LM572:
	li	a0,-16
	addi	sp,sp,32
	.cfi_def_cfa_offset 0
.LVL195:
.LM573:
	jr	ra
	.cfi_endproc
.LFE62:
	.size	mbedtls_mpi_read_binary_le, .-mbedtls_mpi_read_binary_le
	.section	.text.mbedtls_mpi_read_binary,"ax",@progbits
	.align	1
	.globl	mbedtls_mpi_read_binary
	.type	mbedtls_mpi_read_binary, @function
mbedtls_mpi_read_binary:
.LVL196:
.LFB63:
.LM574:
	.cfi_startproc
.LM575:
.LM576:
.LM577:
.LM578:
.LM579:
	addi	sp,sp,-32
	.cfi_def_cfa_offset 32
.LM580:
	andi	a5,a2,3
.LM581:
	sw	s1,20(sp)
.LM582:
	snez	a5,a5
	.cfi_offset 9, -12
.LM583:
	mv	s1,a1
.LM584:
	srli	a1,a2,2
.LVL197:
.LM585:
	add	a1,a5,a1
.LM586:
	sw	s0,24(sp)
	sw	ra,28(sp)
	.cfi_offset 8, -8
	.cfi_offset 1, -4
.LM587:
	mv	s0,a0
.LM588:
	sw	a2,12(sp)
.LM589:
	call	mbedtls_mpi_resize_clear
.LVL198:
.LM590:
	bne	a0,zero,.L135
.LM591:
.LM592:
.LM593:
.LM594:
	lhu	a1,6(s0)
	lw	a0,0(s0)
.LVL199:
.LM595:
	lw	s0,24(sp)
	.cfi_remember_state
	.cfi_restore 8
.LVL200:
.LM596:
	lw	a3,12(sp)
.LM597:
	lw	ra,28(sp)
	.cfi_restore 1
.LM598:
	mv	a2,s1
.LM599:
	lw	s1,20(sp)
	.cfi_restore 9
.LVL201:
.LM600:
	addi	sp,sp,32
	.cfi_def_cfa_offset 0
.LVL202:
.LM601:
	tail	mbedtls_mpi_core_read_be
.LVL203:
.L135:
	.cfi_restore_state
.LM602:
.LM603:
.LM604:
	lw	ra,28(sp)
	.cfi_restore 1
	lw	s0,24(sp)
	.cfi_restore 8
.LVL204:
.LM605:
	lw	s1,20(sp)
	.cfi_restore 9
.LVL205:
.LM606:
	li	a0,-16
	addi	sp,sp,32
	.cfi_def_cfa_offset 0
.LVL206:
.LM607:
	jr	ra
	.cfi_endproc
.LFE63:
	.size	mbedtls_mpi_read_binary, .-mbedtls_mpi_read_binary
	.section	.text.mbedtls_mpi_write_binary_le,"ax",@progbits
	.align	1
	.globl	mbedtls_mpi_write_binary_le
	.type	mbedtls_mpi_write_binary_le, @function
mbedtls_mpi_write_binary_le:
.LVL207:
.LFB64:
.LM608:
	.cfi_startproc
.LM609:
.LM610:
	mv	a3,a2
.LM611:
	mv	a2,a1
.LVL208:
.LM612:
	lhu	a1,6(a0)
.LVL209:
.LM613:
	lw	a0,0(a0)
.LVL210:
.LM614:
	tail	mbedtls_mpi_core_write_le
.LVL211:
.LM615:
	.cfi_endproc
.LFE64:
	.size	mbedtls_mpi_write_binary_le, .-mbedtls_mpi_write_binary_le
	.section	.text.mbedtls_mpi_write_binary,"ax",@progbits
	.align	1
	.globl	mbedtls_mpi_write_binary
	.type	mbedtls_mpi_write_binary, @function
mbedtls_mpi_write_binary:
.LVL212:
.LFB65:
.LM616:
	.cfi_startproc
.LM617:
.LM618:
	mv	a3,a2
.LM619:
	mv	a2,a1
.LVL213:
.LM620:
	lhu	a1,6(a0)
.LVL214:
.LM621:
	lw	a0,0(a0)
.LVL215:
.LM622:
	tail	mbedtls_mpi_core_write_be
.LVL216:
.LM623:
	.cfi_endproc
.LFE65:
	.size	mbedtls_mpi_write_binary, .-mbedtls_mpi_write_binary
	.section	.text.mbedtls_mpi_shift_l,"ax",@progbits
	.align	1
	.globl	mbedtls_mpi_shift_l
	.type	mbedtls_mpi_shift_l, @function
mbedtls_mpi_shift_l:
.LVL217:
.LFB66:
.LM624:
	.cfi_startproc
.LM625:
.LM626:
.LM627:
.LM628:
	addi	sp,sp,-16
	.cfi_def_cfa_offset 16
	sw	s0,8(sp)
	sw	s1,4(sp)
	.cfi_offset 8, -8
	.cfi_offset 9, -12
	mv	s0,a0
	mv	s1,a1
	sw	ra,12(sp)
	.cfi_offset 1, -4
.LM629:
	call	mbedtls_mpi_bitlen
.LVL218:
.LM630:
	lhu	a5,6(s0)
.LM631:
	add	a0,a0,s1
.LVL219:
.LM632:
.LM633:
	slli	a5,a5,5
.LM634:
	bltu	a5,a0,.L140
.LVL220:
.L142:
.LM635:
.LM636:
.LM637:
	lw	a0,0(s0)
	lhu	a1,6(s0)
	mv	a2,s1
	call	mbedtls_mpi_core_shift_l
.LVL221:
.LM638:
	li	a0,0
.LVL222:
.L139:
.LM639:
	lw	ra,12(sp)
	.cfi_remember_state
	.cfi_restore 1
	lw	s0,8(sp)
	.cfi_restore 8
.LVL223:
.LM640:
	lw	s1,4(sp)
	.cfi_restore 9
.LVL224:
.LM641:
	addi	sp,sp,16
	.cfi_def_cfa_offset 0
	jr	ra
.LVL225:
.L140:
	.cfi_restore_state
.LM642:
.LM643:
.LM644:
	andi	a1,a0,31
.LM645:
	snez	a1,a1
.LM646:
	srli	a0,a0,5
.LVL226:
.LM647:
	add	a1,a1,a0
	mv	a0,s0
	call	mbedtls_mpi_grow
.LVL227:
.LM648:
	beq	a0,zero,.L142
.L141:
.LVL228:
.LM649:
.LM650:
	li	a0,-16
.LM651:
	j	.L139
	.cfi_endproc
.LFE66:
	.size	mbedtls_mpi_shift_l, .-mbedtls_mpi_shift_l
	.section	.text.mbedtls_mpi_shift_r,"ax",@progbits
	.align	1
	.globl	mbedtls_mpi_shift_r
	.type	mbedtls_mpi_shift_r, @function
mbedtls_mpi_shift_r:
.LVL229:
.LFB67:
.LM652:
	.cfi_startproc
.LM653:
.LM654:
	mv	a2,a1
.LM655:
	lhu	a1,6(a0)
.LVL230:
.LM656:
	beq	a1,zero,.L153
.LM657:
.LM658:
	addi	sp,sp,-16
	.cfi_def_cfa_offset 16
	sw	ra,12(sp)
	.cfi_offset 1, -4
.LM659:
	lw	a0,0(a0)
.LVL231:
.LM660:
	call	mbedtls_mpi_core_shift_r
.LVL232:
.LM661:
.LM662:
	lw	ra,12(sp)
	.cfi_restore 1
	li	a0,0
	addi	sp,sp,16
	.cfi_def_cfa_offset 0
	jr	ra
.LVL233:
.L153:
.LM663:
.LM664:
	li	a0,0
.LVL234:
.LM665:
	ret
	.cfi_endproc
.LFE67:
	.size	mbedtls_mpi_shift_r, .-mbedtls_mpi_shift_r
	.section	.text.mbedtls_mpi_cmp_abs,"ax",@progbits
	.align	1
	.globl	mbedtls_mpi_cmp_abs
	.type	mbedtls_mpi_cmp_abs, @function
mbedtls_mpi_cmp_abs:
.LVL235:
.LFB68:
.LM666:
	.cfi_startproc
.LM667:
.LM668:
.LM669:
	lhu	a5,6(a0)
.LVL236:
.L157:
.LM670:
	bne	a5,zero,.L159
.L158:
.LM671:
.LM672:
	lhu	a3,6(a1)
.LVL237:
.L160:
.LM673:
	bne	a3,zero,.L162
.LM674:
.LM675:
	li	a4,1
.LM676:
	beq	a5,zero,.L167
	j	.L156
.LVL238:
.L159:
.LM677:
.LM678:
	lw	a4,0(a0)
	addi	a3,a5,-1
	slli	a2,a3,2
	add	a4,a4,a2
.LM679:
	lw	a4,0(a4)
	bne	a4,zero,.L158
.LM680:
	mv	a5,a3
.LVL239:
.LM681:
	j	.L157
.LVL240:
.L162:
.LM682:
.LM683:
	lw	a4,0(a1)
	addi	a2,a3,-1
	slli	a6,a2,2
	add	a4,a4,a6
.LM684:
	lw	a4,0(a4)
	bne	a4,zero,.L161
.LM685:
	mv	a3,a2
.LVL241:
.LM686:
	j	.L160
.LVL242:
.L161:
.LM687:
.LM688:
	li	a4,1
.LM689:
	bltu	a3,a5,.L156
.LM690:
.LM691:
	li	a4,-1
.LM692:
	bgtu	a3,a5,.L156
.L167:
.LM693:
	addi	a5,a5,-1
.LVL243:
.LM694:
	li	a6,-1
.LVL244:
.L165:
.LM695:
	bne	a5,a6,.L166
.LM696:
	li	a4,0
.LVL245:
.L156:
.LM697:
	mv	a0,a4
.LVL246:
.LM698:
	ret
.LVL247:
.L166:
.LM699:
.LM700:
	lw	a3,0(a0)
	slli	a4,a5,2
	add	a3,a3,a4
	lw	a2,0(a3)
.LM701:
	lw	a3,0(a1)
	add	a4,a3,a4
	lw	a4,0(a4)
.LM702:
	bgtu	a2,a4,.L170
.LM703:
.LM704:
	addi	a5,a5,-1
.LVL248:
.LM705:
	bgeu	a2,a4,.L165
.LM706:
	li	a4,-1
	j	.L156
.LVL249:
.L170:
.LM707:
	li	a4,1
	j	.L156
	.cfi_endproc
.LFE68:
	.size	mbedtls_mpi_cmp_abs, .-mbedtls_mpi_cmp_abs
	.section	.text.mbedtls_mpi_cmp_mpi,"ax",@progbits
	.align	1
	.globl	mbedtls_mpi_cmp_mpi
	.type	mbedtls_mpi_cmp_mpi, @function
mbedtls_mpi_cmp_mpi:
.LVL250:
.LFB69:
.LM708:
	.cfi_startproc
.LM709:
.LM710:
.LM711:
	lhu	a5,6(a0)
.LVL251:
.L175:
.LM712:
	bne	a5,zero,.L177
.L176:
.LM713:
.LM714:
	lhu	a4,6(a1)
.LVL252:
.L178:
.LM715:
	bne	a4,zero,.L180
.LM716:
.LM717:
	li	a4,0
.LVL253:
.LM718:
	bne	a5,zero,.L193
	j	.L174
.LVL254:
.L177:
.LM719:
.LM720:
	lw	a4,0(a0)
	addi	a3,a5,-1
	slli	a2,a3,2
	add	a4,a4,a2
.LM721:
	lw	a4,0(a4)
	bne	a4,zero,.L176
.LM722:
	mv	a5,a3
.LVL255:
.LM723:
	j	.L175
.LVL256:
.L180:
.LM724:
.LM725:
	lw	a6,0(a1)
	addi	a2,a4,-1
	slli	a3,a2,2
	add	a3,a6,a3
.LM726:
	lw	a3,0(a3)
	bne	a3,zero,.L179
.LM727:
	mv	a4,a2
.LVL257:
.LM728:
	j	.L178
.LVL258:
.L182:
.LM729:
.LM730:
	lh	a2,4(a1)
.LM731:
	bleu	a4,a5,.L184
.L191:
.LM732:
.LM733:
	lh	a4,4(a1)
.LVL259:
.LM734:
	neg	a4,a4
	j	.L174
.LVL260:
.L184:
.LM735:
.LM736:
	lh	a3,4(a0)
.LM737:
	ble	a3,zero,.L185
.LM738:
	li	a4,1
.LVL261:
.LM739:
	blt	a2,zero,.L174
.L186:
	addi	a5,a5,-1
.LVL262:
.LM740:
	li	a1,-1
.LVL263:
.L190:
.LM741:
.LM742:
	lw	a2,0(a0)
	slli	a4,a5,2
	add	a2,a2,a4
.LM743:
	add	a4,a6,a4
.LM744:
	lw	a2,0(a2)
.LM745:
	lw	a4,0(a4)
.LM746:
	bleu	a2,a4,.L188
.LM747:
.LM748:
	mv	a4,a3
	j	.L174
.LVL264:
.L185:
.LM749:
.LM750:
	beq	a3,zero,.L186
.LM751:
	li	a4,-1
.LVL265:
.LM752:
	ble	a2,zero,.L186
	j	.L174
.LVL266:
.L188:
.LM753:
.LM754:
	bgeu	a2,a4,.L189
.LM755:
.LM756:
	neg	a4,a3
	j	.L174
.L189:
.LM757:
	addi	a5,a5,-1
.LVL267:
.LM758:
	bne	a5,a1,.L190
.LM759:
	li	a4,0
	j	.L174
.LVL268:
.L179:
.LM760:
.LM761:
	beq	a5,zero,.L191
.LM762:
.LM763:
	bgeu	a4,a5,.L182
.LVL269:
.L193:
.LM764:
.LM765:
	lh	a4,4(a0)
.LVL270:
.L174:
.LM766:
	mv	a0,a4
.LVL271:
.LM767:
	ret
	.cfi_endproc
.LFE69:
	.size	mbedtls_mpi_cmp_mpi, .-mbedtls_mpi_cmp_mpi
	.section	.text.mbedtls_mpi_cmp_int,"ax",@progbits
	.align	1
	.globl	mbedtls_mpi_cmp_int
	.type	mbedtls_mpi_cmp_int, @function
mbedtls_mpi_cmp_int:
.LVL272:
.LFB70:
.LM768:
	.cfi_startproc
.LM769:
.LM770:
.LM771:
.LBB236:
.LBI236:
.LM772:
.LBB237:
.LM773:
.LM774:
	srai	a4,a1,31
	xor	a5,a4,a1
.LBE237:
.LBE236:
.LM775:
	addi	sp,sp,-32
	.cfi_def_cfa_offset 32
.LBB239:
.LBB238:
.LM776:
	sub	a5,a5,a4
.LBE238:
.LBE239:
.LM777:
	sw	a5,4(sp)
.LM778:
.LM779:
	ori	a1,a4,1
.LVL273:
.LM780:
	li	a5,1
.LM781:
	sh	a1,12(sp)
.LM782:
.LM783:
	sh	a5,14(sp)
.LM784:
.LM785:
	addi	a1,sp,8
.LM786:
	addi	a5,sp,4
.LM787:
	sw	ra,28(sp)
	.cfi_offset 1, -4
.LM788:
	sw	a5,8(sp)
.LM789:
.LM790:
	call	mbedtls_mpi_cmp_mpi
.LVL274:
.LM791:
	lw	ra,28(sp)
	.cfi_restore 1
	addi	sp,sp,32
	.cfi_def_cfa_offset 0
	jr	ra
	.cfi_endproc
.LFE70:
	.size	mbedtls_mpi_cmp_int, .-mbedtls_mpi_cmp_int
	.section	.text.mbedtls_mpi_add_abs,"ax",@progbits
	.align	1
	.globl	mbedtls_mpi_add_abs
	.type	mbedtls_mpi_add_abs, @function
mbedtls_mpi_add_abs:
.LVL275:
.LFB71:
.LM792:
	.cfi_startproc
.LM793:
.LM794:
.LM795:
.LM796:
.LM797:
.LM798:
	addi	sp,sp,-48
	.cfi_def_cfa_offset 48
	sw	s1,36(sp)
	sw	s2,32(sp)
	sw	ra,44(sp)
	sw	s0,40(sp)
	sw	s3,28(sp)
	.cfi_offset 9, -12
	.cfi_offset 18, -16
	.cfi_offset 1, -4
	.cfi_offset 8, -8
	.cfi_offset 19, -20
.LM799:
	mv	s2,a0
	mv	s1,a1
.LM800:
	beq	a0,a2,.L209
.LM801:
.LM802:
	bne	a0,a1,.L210
.LVL276:
.L211:
.LM803:
	mv	s1,a2
.LVL277:
.L209:
.LM804:
.LM805:
.LM806:
	li	a5,1
	sh	a5,4(s2)
.LM807:
.LM808:
	lhu	s0,6(s1)
.LVL278:
.L213:
.LM809:
	bne	s0,zero,.L215
.LVL279:
.L222:
.LM810:
	li	a0,0
	j	.L208
.LVL280:
.L210:
.LM811:
	sw	a2,12(sp)
.LM812:
.LM813:
.LM814:
	call	mbedtls_mpi_copy
.LVL281:
.LM815:
	lw	a2,12(sp)
	beq	a0,zero,.L211
.LVL282:
.L216:
.LM816:
	li	a0,-16
.LVL283:
.L208:
.LM817:
	lw	ra,44(sp)
	.cfi_remember_state
	.cfi_restore 1
	lw	s0,40(sp)
	.cfi_restore 8
	lw	s1,36(sp)
	.cfi_restore 9
	lw	s2,32(sp)
	.cfi_restore 18
.LVL284:
.LM818:
	lw	s3,28(sp)
	.cfi_restore 19
	addi	sp,sp,48
	.cfi_def_cfa_offset 0
	jr	ra
.LVL285:
.L215:
	.cfi_restore_state
.LM819:
.LM820:
	lw	a5,0(s1)
	slli	s3,s0,2
	add	a5,a5,s3
.LM821:
	lw	a5,-4(a5)
	bne	a5,zero,.L214
.LM822:
	addi	s0,s0,-1
.LVL286:
.LM823:
	j	.L213
.LVL287:
.L214:
.LM824:
.LM825:
.LM826:
.LM827:
	mv	a1,s0
	mv	a0,s2
	call	mbedtls_mpi_grow
.LVL288:
.LM828:
	bne	a0,zero,.L216
.LM829:
.LM830:
.LM831:
	lw	a1,0(s2)
.LVL289:
.LM832:
.LM833:
	lw	a2,0(s1)
	mv	a3,s0
	mv	a0,a1
.LVL290:
.LM834:
	sw	a1,12(sp)
	call	mbedtls_mpi_core_add
.LVL291:
.LM835:
	lw	a1,12(sp)
.LM836:
	mv	s1,a0
.LVL292:
.LM837:
.LM838:
	add	a5,a1,s3
.LVL293:
.LM839:
.L217:
.LM840:
	beq	s1,zero,.L222
.LM841:
.LM842:
	lhu	a4,6(s2)
.LM843:
	addi	s3,s0,1
.LM844:
	bgtu	a4,s0,.L218
.LM845:
.LM846:
.LM847:
	mv	a1,s3
	mv	a0,s2
	call	mbedtls_mpi_grow
.LVL294:
.LM848:
	bne	a0,zero,.L216
.LM849:
.LM850:
.LM851:
	lw	a5,0(s2)
	slli	s0,s0,2
.LVL295:
.LM852:
	add	a5,a5,s0
.LVL296:
.L218:
.LM853:
	lw	a4,0(a5)
.LM854:
	mv	s0,s3
	add	s1,a4,s1
.LVL297:
.LM855:
	sw	s1,0(a5)
.LM856:
.LM857:
	sltu	s1,s1,a4
.LVL298:
.LM858:
.LM859:
.LM860:
	addi	a5,a5,4
.LVL299:
.LM861:
	j	.L217
	.cfi_endproc
.LFE71:
	.size	mbedtls_mpi_add_abs, .-mbedtls_mpi_add_abs
	.section	.text.mbedtls_mpi_sub_abs,"ax",@progbits
	.align	1
	.globl	mbedtls_mpi_sub_abs
	.type	mbedtls_mpi_sub_abs, @function
mbedtls_mpi_sub_abs:
.LVL300:
.LFB72:
.LM862:
	.cfi_startproc
.LM863:
.LM864:
.LM865:
.LM866:
.LM867:
	addi	sp,sp,-32
	.cfi_def_cfa_offset 32
	sw	s2,16(sp)
	sw	ra,28(sp)
	sw	s0,24(sp)
	sw	s1,20(sp)
	sw	s3,12(sp)
	sw	s4,8(sp)
	.cfi_offset 18, -16
	.cfi_offset 1, -4
	.cfi_offset 8, -8
	.cfi_offset 9, -12
	.cfi_offset 19, -20
	.cfi_offset 20, -24
.LM868:
	lhu	s1,6(a2)
.LVL301:
.LM869:
	mv	s2,a1
.LVL302:
.L228:
.LM870:
	bne	s1,zero,.L230
.LM871:
.LM872:
	lhu	a1,6(s2)
.LVL303:
.L231:
.LM873:
	mv	s4,a2
	mv	s0,a0
.LM874:
.LM875:
.LM876:
	call	mbedtls_mpi_grow
.LVL304:
.LM877:
	mv	s3,a0
.LVL305:
.LM878:
	bne	a0,zero,.L238
.LM879:
.LM880:
.LM881:
	lhu	a2,6(s2)
.LM882:
	beq	s2,s0,.L233
	bleu	a2,s1,.L233
.LM883:
	lw	a1,0(s2)
.LM884:
	lw	a5,0(s0)
	slli	a0,s1,2
.LVL306:
.LM885:
	sub	a2,a2,s1
.LM886:
	add	a1,a1,a0
	slli	a2,a2,2
	add	a0,a5,a0
	call	memcpy
.LVL307:
.L233:
.LM887:
.LM888:
	lhu	a2,6(s0)
.LM889:
	lhu	a0,6(s2)
.LM890:
	bleu	a2,a0,.L234
.LM891:
.LM892:
	lw	a5,0(s0)
.LM893:
	sub	a2,a2,a0
.LM894:
	slli	a0,a0,2
.LM895:
	slli	a2,a2,2
	li	a1,0
	add	a0,a5,a0
	call	memset
.LVL308:
.L234:
.LM896:
.LM897:
	lw	a2,0(s4)
	lw	a1,0(s2)
	lw	a0,0(s0)
	mv	a3,s1
	call	mbedtls_mpi_core_sub
.LVL309:
	mv	a2,a0
.LVL310:
.LM898:
.LM899:
	bne	a0,zero,.L235
.L237:
.LM900:
.LM901:
	li	a5,1
	sh	a5,4(s0)
	j	.L227
.LVL311:
.L230:
.LM902:
.LM903:
	lw	a5,0(a2)
	addi	a4,s1,-1
	slli	a3,a4,2
	add	a5,a5,a3
.LM904:
	lw	a5,0(a5)
	bne	a5,zero,.L229
.LM905:
	mv	s1,a4
.LVL312:
.LM906:
	j	.L228
.LVL313:
.L229:
.LM907:
.LM908:
	lhu	a1,6(s2)
.LVL314:
.LM909:
	bgeu	a1,s1,.L231
.LVL315:
.L236:
.LM910:
	li	s3,-10
.L227:
.LM911:
	lw	ra,28(sp)
	.cfi_remember_state
	.cfi_restore 1
	lw	s0,24(sp)
	.cfi_restore 8
	lw	s1,20(sp)
	.cfi_restore 9
.LVL316:
.LM912:
	lw	s2,16(sp)
	.cfi_restore 18
.LVL317:
.LM913:
	lw	s4,8(sp)
	.cfi_restore 20
	mv	a0,s3
	lw	s3,12(sp)
	.cfi_restore 19
	addi	sp,sp,32
	.cfi_def_cfa_offset 0
	jr	ra
.LVL318:
.L235:
	.cfi_restore_state
.LM914:
.LM915:
	lw	a1,0(s0)
.LM916:
	lhu	a3,6(s0)
.LM917:
	slli	a5,s1,2
.LM918:
	add	a1,a1,a5
	sub	a3,a3,s1
	mv	a0,a1
.LVL319:
.LM919:
	call	mbedtls_mpi_core_sub_int
.LVL320:
.LM920:
.LM921:
	beq	a0,zero,.L237
	j	.L236
.LVL321:
.L238:
.L232:
.LM922:
.LM923:
	li	s3,-16
.LM924:
	j	.L227
	.cfi_endproc
.LFE72:
	.size	mbedtls_mpi_sub_abs, .-mbedtls_mpi_sub_abs
	.section	.text.add_sub_mpi,"ax",@progbits
	.align	1
	.type	add_sub_mpi, @function
add_sub_mpi:
.LVL322:
.LFB73:
.LM925:
	.cfi_startproc
.LM926:
.LM927:
.LM928:
	addi	sp,sp,-32
	.cfi_def_cfa_offset 32
	sw	s1,20(sp)
	sw	ra,28(sp)
	sw	s0,24(sp)
	sw	s2,16(sp)
	sw	s3,12(sp)
	sw	s4,8(sp)
	.cfi_offset 9, -12
	.cfi_offset 1, -4
	.cfi_offset 8, -8
	.cfi_offset 18, -16
	.cfi_offset 19, -20
	.cfi_offset 20, -24
.LM929:
	lh	s0,4(a1)
.LVL323:
.LM930:
.LM931:
	lh	a5,4(a2)
.LM932:
	mv	s1,a0
.LM933:
	mul	a5,a5,s0
.LM934:
	mul	a5,a5,a3
.LM935:
	bge	a5,zero,.L247
	mv	s3,a1
.LBB240:
.LM936:
	mv	a0,s3
.LVL324:
.LM937:
	mv	a1,a2
.LVL325:
.LM938:
	mv	s4,a2
.LM939:
.LM940:
	call	mbedtls_mpi_cmp_abs
.LVL326:
.LM941:
	li	a5,-1
.LM942:
	mv	s2,a0
.LVL327:
.LM943:
.LM944:
	beq	a0,a5,.L248
.LM945:
.LM946:
.LM947:
	mv	a2,s4
	mv	a1,s3
	mv	a0,s1
.LVL328:
.LM948:
	call	mbedtls_mpi_sub_abs
.LVL329:
.LM949:
	bne	a0,zero,.L246
.LM950:
.LM951:
.LM952:
	bne	s2,zero,.L257
.LM953:
	li	s0,1
.LVL330:
.L257:
.LM954:
.LBE240:
.LM955:
.LM956:
.LM957:
	sh	s0,4(s1)
.LBB241:
.LM958:
	li	a0,0
	j	.L246
.LVL331:
.L248:
.LM959:
.LM960:
.LM961:
	mv	a2,s3
	mv	a1,s4
	mv	a0,s1
.LVL332:
.LM962:
	call	mbedtls_mpi_sub_abs
.LVL333:
.LM963:
	bne	a0,zero,.L246
.LM964:
.LM965:
.LM966:
	neg	s0,s0
.LVL334:
.LM967:
	sh	s0,4(s1)
.LVL335:
.L246:
.LM968:
.LBE241:
.LM969:
	lw	ra,28(sp)
	.cfi_remember_state
	.cfi_restore 1
	lw	s0,24(sp)
	.cfi_restore 8
	lw	s1,20(sp)
	.cfi_restore 9
.LVL336:
.LM970:
	lw	s2,16(sp)
	.cfi_restore 18
	lw	s3,12(sp)
	.cfi_restore 19
	lw	s4,8(sp)
	.cfi_restore 20
	addi	sp,sp,32
	.cfi_def_cfa_offset 0
	jr	ra
.LVL337:
.L247:
	.cfi_restore_state
.L249:
.LM971:
.LM972:
.LM973:
	call	mbedtls_mpi_add_abs
.LVL338:
.LM974:
	mv	a5,a0
.LVL339:
.LM975:
	li	a0,-16
.LVL340:
.LM976:
	beq	a5,zero,.L257
	j	.L246
	.cfi_endproc
.LFE73:
	.size	add_sub_mpi, .-add_sub_mpi
	.section	.text.mbedtls_mpi_add_mpi,"ax",@progbits
	.align	1
	.globl	mbedtls_mpi_add_mpi
	.type	mbedtls_mpi_add_mpi, @function
mbedtls_mpi_add_mpi:
.LVL341:
.LFB74:
.LM977:
	.cfi_startproc
.LM978:
.LM979:
	li	a3,1
	tail	add_sub_mpi
.LVL342:
.LM980:
	.cfi_endproc
.LFE74:
	.size	mbedtls_mpi_add_mpi, .-mbedtls_mpi_add_mpi
	.section	.text.mbedtls_mpi_sub_mpi,"ax",@progbits
	.align	1
	.globl	mbedtls_mpi_sub_mpi
	.type	mbedtls_mpi_sub_mpi, @function
mbedtls_mpi_sub_mpi:
.LVL343:
.LFB75:
.LM981:
	.cfi_startproc
.LM982:
.LM983:
	li	a3,-1
	tail	add_sub_mpi
.LVL344:
.LM984:
	.cfi_endproc
.LFE75:
	.size	mbedtls_mpi_sub_mpi, .-mbedtls_mpi_sub_mpi
	.section	.text.mbedtls_mpi_add_int,"ax",@progbits
	.align	1
	.globl	mbedtls_mpi_add_int
	.type	mbedtls_mpi_add_int, @function
mbedtls_mpi_add_int:
.LVL345:
.LFB76:
.LM985:
	.cfi_startproc
.LM986:
.LM987:
.LM988:
.LBB242:
.LBI242:
.LM989:
.LBB243:
.LM990:
.LM991:
	srai	a4,a2,31
	xor	a5,a4,a2
.LBE243:
.LBE242:
.LM992:
	addi	sp,sp,-32
	.cfi_def_cfa_offset 32
.LBB245:
.LBB244:
.LM993:
	sub	a5,a5,a4
.LBE244:
.LBE245:
.LM994:
	sw	a5,4(sp)
.LM995:
.LM996:
	ori	a2,a4,1
.LVL346:
.LM997:
	li	a5,1
.LM998:
	sh	a2,12(sp)
.LM999:
.LM1000:
	sh	a5,14(sp)
.LM1001:
.LM1002:
	addi	a2,sp,8
.LM1003:
	addi	a5,sp,4
.LM1004:
	sw	ra,28(sp)
	.cfi_offset 1, -4
.LM1005:
	sw	a5,8(sp)
.LM1006:
.LM1007:
	call	mbedtls_mpi_add_mpi
.LVL347:
.LM1008:
	lw	ra,28(sp)
	.cfi_restore 1
	addi	sp,sp,32
	.cfi_def_cfa_offset 0
	jr	ra
	.cfi_endproc
.LFE76:
	.size	mbedtls_mpi_add_int, .-mbedtls_mpi_add_int
	.section	.text.mbedtls_mpi_sub_int,"ax",@progbits
	.align	1
	.globl	mbedtls_mpi_sub_int
	.type	mbedtls_mpi_sub_int, @function
mbedtls_mpi_sub_int:
.LVL348:
.LFB77:
.LM1009:
	.cfi_startproc
.LM1010:
.LM1011:
.LM1012:
.LBB246:
.LBI246:
.LM1013:
.LBB247:
.LM1014:
.LM1015:
	srai	a4,a2,31
	xor	a5,a4,a2
.LBE247:
.LBE246:
.LM1016:
	addi	sp,sp,-32
	.cfi_def_cfa_offset 32
.LBB249:
.LBB248:
.LM1017:
	sub	a5,a5,a4
.LBE248:
.LBE249:
.LM1018:
	sw	a5,4(sp)
.LM1019:
.LM1020:
	ori	a2,a4,1
.LVL349:
.LM1021:
	li	a5,1
.LM1022:
	sh	a2,12(sp)
.LM1023:
.LM1024:
	sh	a5,14(sp)
.LM1025:
.LM1026:
	addi	a2,sp,8
.LM1027:
	addi	a5,sp,4
.LM1028:
	sw	ra,28(sp)
	.cfi_offset 1, -4
.LM1029:
	sw	a5,8(sp)
.LM1030:
.LM1031:
	call	mbedtls_mpi_sub_mpi
.LVL350:
.LM1032:
	lw	ra,28(sp)
	.cfi_restore 1
	addi	sp,sp,32
	.cfi_def_cfa_offset 0
	jr	ra
	.cfi_endproc
.LFE77:
	.size	mbedtls_mpi_sub_int, .-mbedtls_mpi_sub_int
	.section	.text.mbedtls_mpi_mul_mpi,"ax",@progbits
	.align	1
	.globl	mbedtls_mpi_mul_mpi
	.type	mbedtls_mpi_mul_mpi, @function
mbedtls_mpi_mul_mpi:
.LVL351:
.LFB78:
.LM1033:
	.cfi_startproc
.LM1034:
.LM1035:
.LM1036:
.LM1037:
.LM1038:
.LM1039:
	addi	sp,sp,-48
	.cfi_def_cfa_offset 48
.LVL352:
.LBB250:
.LBI250:
.LM1040:
.LBB251:
.LM1041:
.LM1042:
.LM1043:
.LM1044:
	li	a5,1
.LBE251:
.LBE250:
.LM1045:
	sw	s0,40(sp)
	sw	s1,36(sp)
	sw	s2,32(sp)
	sw	ra,44(sp)
	sw	s3,28(sp)
	sw	s4,24(sp)
	sw	s5,20(sp)
	sw	s6,16(sp)
	.cfi_offset 8, -8
	.cfi_offset 9, -12
	.cfi_offset 18, -16
	.cfi_offset 1, -4
	.cfi_offset 19, -20
	.cfi_offset 20, -24
	.cfi_offset 21, -28
	.cfi_offset 22, -32
.LBB253:
.LBB252:
.LM1046:
	sw	zero,0(sp)
.LM1047:
	sw	a5,4(sp)
.LVL353:
.LM1048:
.LBE252:
.LBE253:
.LM1049:
.LBB254:
.LBI254:
.LM1050:
.LBB255:
.LM1051:
.LM1052:
.LM1053:
.LM1054:
	sw	zero,8(sp)
.LM1055:
	sw	a5,12(sp)
.LVL354:
.LM1056:
.LBE255:
.LBE254:
.LM1057:
.LM1058:
	mv	s2,a0
	mv	s0,a2
	mv	s1,a1
.LM1059:
	bne	a0,a1,.L265
.LM1060:
.LM1061:
.LM1062:
	mv	a0,sp
.LVL355:
.LM1063:
	call	mbedtls_mpi_copy
.LVL356:
.LM1064:
	mv	s1,sp
.LVL357:
.LM1065:
	beq	a0,zero,.L265
.LVL358:
.L268:
.LM1066:
	li	s5,-16
.LVL359:
.L266:
.LM1067:
	addi	a0,sp,8
	call	mbedtls_mpi_free
.LVL360:
.LM1068:
	mv	a0,sp
	call	mbedtls_mpi_free
.LVL361:
.LM1069:
.LM1070:
	lw	ra,44(sp)
	.cfi_remember_state
	.cfi_restore 1
	lw	s0,40(sp)
	.cfi_restore 8
.LVL362:
.LM1071:
	lw	s1,36(sp)
	.cfi_restore 9
	lw	s2,32(sp)
	.cfi_restore 18
.LVL363:
.LM1072:
	lw	s3,28(sp)
	.cfi_restore 19
	lw	s4,24(sp)
	.cfi_restore 20
	lw	s6,16(sp)
	.cfi_restore 22
	mv	a0,s5
	lw	s5,20(sp)
	.cfi_restore 21
.LVL364:
.LM1073:
	addi	sp,sp,48
	.cfi_def_cfa_offset 0
	jr	ra
.LVL365:
.L265:
	.cfi_restore_state
.LM1074:
.LM1075:
	bne	s2,s0,.L267
.LM1076:
.LM1077:
.LM1078:
	mv	a1,s2
	addi	a0,sp,8
	call	mbedtls_mpi_copy
.LVL366:
.LM1079:
	bne	a0,zero,.L268
.LM1080:
	addi	s0,sp,8
.LVL367:
.L267:
.LM1081:
.LM1082:
	lhu	s3,6(s1)
.LVL368:
.L269:
.LM1083:
	bne	s3,zero,.L271
.L270:
.LM1084:
.LVL369:
.LM1085:
.LM1086:
	lhu	s4,6(s0)
.LVL370:
.L272:
.LM1087:
	bne	s4,zero,.L274
.L273:
.LM1088:
.LVL371:
.LM1089:
.LM1090:
.LM1091:
	add	a1,s4,s3
	mv	a0,s2
	call	mbedtls_mpi_grow
.LVL372:
.LM1092:
	bne	a0,zero,.L268
.LM1093:
.LM1094:
.LM1095:
.LM1096:
	li	a1,0
	mv	a0,s2
.LVL373:
.LM1097:
	call	mbedtls_mpi_lset
.LVL374:
	mv	s5,a0
.LVL375:
.LM1098:
	bne	a0,zero,.L268
.LM1099:
	lw	a3,0(s0)
	lw	a1,0(s1)
	lw	a0,0(s2)
.LVL376:
.LM1100:
	seqz	s6,s4
.LM1101:
	seqz	a5,s3
	or	s6,s6,a5
.LM1102:
.LM1103:
	mv	a4,s4
	mv	a2,s3
	call	mbedtls_mpi_core_mul
.LVL377:
.LM1104:
.LM1105:
	beq	s6,zero,.L275
	li	a5,1
.L276:
.LM1106:
	sh	a5,4(s2)
	j	.L266
.LVL378:
.L271:
.LM1107:
.LM1108:
	lw	a5,0(s1)
	addi	a4,s3,-1
	slli	a3,a4,2
	add	a5,a5,a3
.LM1109:
	lw	a5,0(a5)
	bne	a5,zero,.L270
.LM1110:
	mv	s3,a4
.LVL379:
.LM1111:
	j	.L269
.LVL380:
.L274:
.LM1112:
.LM1113:
	lw	a5,0(s0)
	addi	a4,s4,-1
	slli	a3,a4,2
	add	a5,a5,a3
.LM1114:
	lw	a5,0(a5)
	bne	a5,zero,.L273
.LM1115:
	mv	s4,a4
.LVL381:
.LM1116:
	j	.L272
.LVL382:
.L275:
.LM1117:
.LM1118:
	lhu	a5,4(s1)
	lhu	a4,4(s0)
	mul	a5,a5,a4
	j	.L276
	.cfi_endproc
.LFE78:
	.size	mbedtls_mpi_mul_mpi, .-mbedtls_mpi_mul_mpi
	.section	.text.mbedtls_mpi_mul_int,"ax",@progbits
	.align	1
	.globl	mbedtls_mpi_mul_int
	.type	mbedtls_mpi_mul_int, @function
mbedtls_mpi_mul_int:
.LVL383:
.LFB79:
.LM1119:
	.cfi_startproc
.LM1120:
.LM1121:
	addi	sp,sp,-32
	.cfi_def_cfa_offset 32
	sw	ra,28(sp)
	sw	s0,24(sp)
	sw	s1,20(sp)
	sw	s2,16(sp)
	sw	s3,12(sp)
	sw	s4,8(sp)
	.cfi_offset 1, -4
	.cfi_offset 8, -8
	.cfi_offset 9, -12
	.cfi_offset 18, -16
	.cfi_offset 19, -20
	.cfi_offset 20, -24
.LM1122:
	lhu	s3,6(a1)
.LVL384:
.LM1123:
.L282:
.LM1124:
	beq	s3,zero,.L283
.LM1125:
	lw	a5,0(a1)
	addi	a4,s3,-1
	slli	a3,a4,2
	add	a5,a5,a3
.LM1126:
	lw	a5,0(a5)
	beq	a5,zero,.L284
.LM1127:
.LM1128:
	bne	a2,zero,.L285
.L283:
.LM1129:
.LM1130:
	lw	s0,24(sp)
	.cfi_remember_state
	.cfi_restore 8
	lw	ra,28(sp)
	.cfi_restore 1
	lw	s1,20(sp)
	.cfi_restore 9
	lw	s2,16(sp)
	.cfi_restore 18
	lw	s3,12(sp)
	.cfi_restore 19
.LVL385:
.LM1131:
	lw	s4,8(sp)
	.cfi_restore 20
.LM1132:
	li	a1,0
.LVL386:
.LM1133:
	addi	sp,sp,32
	.cfi_def_cfa_offset 0
.LM1134:
	tail	mbedtls_mpi_lset
.LVL387:
.L284:
	.cfi_restore_state
.LM1135:
	mv	s3,a4
.LVL388:
.LM1136:
	j	.L282
.LVL389:
.L285:
.LM1137:
	mv	s1,a1
.LM1138:
	addi	a1,s3,1
.LVL390:
.LM1139:
	mv	s4,a2
	mv	s0,a0
.LM1140:
.LVL391:
.LM1141:
.LM1142:
.LM1143:
	call	mbedtls_mpi_grow
.LVL392:
.LM1144:
	beq	a0,zero,.L286
.L288:
.LM1145:
	li	s2,-16
.LVL393:
.L281:
.LM1146:
	lw	ra,28(sp)
	.cfi_remember_state
	.cfi_restore 1
	lw	s0,24(sp)
	.cfi_restore 8
.LVL394:
.LM1147:
	lw	s1,20(sp)
	.cfi_restore 9
.LVL395:
.LM1148:
	lw	s3,12(sp)
	.cfi_restore 19
.LVL396:
.LM1149:
	lw	s4,8(sp)
	.cfi_restore 20
.LVL397:
.LM1150:
	mv	a0,s2
	lw	s2,16(sp)
	.cfi_restore 18
	addi	sp,sp,32
	.cfi_def_cfa_offset 0
	jr	ra
.LVL398:
.L286:
	.cfi_restore_state
.LM1151:
.LM1152:
.LM1153:
.LM1154:
	mv	a1,s1
	mv	a0,s0
.LVL399:
.LM1155:
	call	mbedtls_mpi_copy
.LVL400:
	mv	s2,a0
.LVL401:
.LM1156:
	bne	a0,zero,.L288
.LM1157:
.LM1158:
	lw	a2,0(s1)
	lhu	a1,6(s0)
	lw	a0,0(s0)
.LVL402:
.LM1159:
	addi	a4,s4,-1
	mv	a3,s3
	call	mbedtls_mpi_core_mla
.LVL403:
.LM1160:
	j	.L281
	.cfi_endproc
.LFE79:
	.size	mbedtls_mpi_mul_int, .-mbedtls_mpi_mul_int
	.section	.text.mbedtls_mpi_read_string,"ax",@progbits
	.align	1
	.globl	mbedtls_mpi_read_string
	.type	mbedtls_mpi_read_string, @function
mbedtls_mpi_read_string:
.LVL404:
.LFB59:
.LM1161:
	.cfi_startproc
.LM1162:
.LM1163:
.LM1164:
.LM1165:
.LM1166:
.LM1167:
.LM1168:
	addi	sp,sp,-64
	.cfi_def_cfa_offset 64
	sw	ra,60(sp)
	sw	s0,56(sp)
	sw	s1,52(sp)
	sw	s2,48(sp)
	sw	s3,44(sp)
	sw	s4,40(sp)
	sw	s5,36(sp)
	sw	s6,32(sp)
	sw	s7,28(sp)
	sw	s8,24(sp)
	.cfi_offset 1, -4
	.cfi_offset 8, -8
	.cfi_offset 9, -12
	.cfi_offset 18, -16
	.cfi_offset 19, -20
	.cfi_offset 20, -24
	.cfi_offset 21, -28
	.cfi_offset 22, -32
	.cfi_offset 23, -36
	.cfi_offset 24, -40
.LM1169:
	addi	a4,a1,-2
.LM1170:
	li	a5,14
	bleu	a4,a5,.L294
.LVL405:
.L299:
.LM1171:
	li	s2,-4
.LVL406:
.L293:
.LM1172:
	lw	ra,60(sp)
	.cfi_remember_state
	.cfi_restore 1
	lw	s0,56(sp)
	.cfi_restore 8
	lw	s1,52(sp)
	.cfi_restore 9
	lw	s3,44(sp)
	.cfi_restore 19
	lw	s4,40(sp)
	.cfi_restore 20
	lw	s5,36(sp)
	.cfi_restore 21
	lw	s6,32(sp)
	.cfi_restore 22
	lw	s7,28(sp)
	.cfi_restore 23
	lw	s8,24(sp)
	.cfi_restore 24
	mv	a0,s2
	lw	s2,48(sp)
	.cfi_restore 18
	addi	sp,sp,64
	.cfi_def_cfa_offset 0
	jr	ra
.LVL407:
.L294:
	.cfi_restore_state
.LM1173:
	lbu	a5,0(a2)
.LBB262:
.LBB263:
.LM1174:
	li	s3,1
.LM1175:
	sw	zero,8(sp)
.LM1176:
	sw	s3,12(sp)
	mv	s0,a2
	mv	s5,a1
.LBE263:
.LBE262:
.LM1177:
.LVL408:
.LBB265:
.LBI262:
.LM1178:
.LBB264:
.LM1179:
.LM1180:
.LM1181:
.LM1182:
.LBE264:
.LBE265:
.LM1183:
.LM1184:
	bne	a5,zero,.L296
.LVL409:
.LM1185:
	call	mbedtls_mpi_free
.LVL410:
.LM1186:
.LM1187:
	li	s2,0
	j	.L293
.LVL411:
.L296:
.LM1188:
	li	a4,45
	mv	s1,a0
.LM1189:
.LM1190:
	bne	a5,a4,.L297
.LVL412:
.LM1191:
	addi	s0,a2,1
.LVL413:
.LM1192:
.LM1193:
	li	s3,-1
.LVL414:
.L297:
.LM1194:
.LM1195:
	mv	a0,s0
	call	strlen
.LVL415:
.LM1196:
	li	a5,16
.LM1197:
	mv	s4,a0
.LVL416:
.LM1198:
.LM1199:
	bne	s5,a5,.L298
.LM1200:
.LM1201:
	li	a5,1073741824
	bgeu	a0,a5,.L299
.LM1202:
.LVL417:
.LM1203:
.LM1204:
.LM1205:
	slli	a1,a0,2
.LM1206:
	andi	a5,a0,7
.LM1207:
	srli	a1,a1,5
.LM1208:
	snez	a5,a5
.LM1209:
	add	a1,a1,a5
	mv	a0,s1
.LVL418:
.LM1210:
	call	mbedtls_mpi_grow
.LVL419:
.LM1211:
	beq	a0,zero,.L300
.LVL420:
.L302:
.LM1212:
	li	s2,-16
.LVL421:
.L301:
.LM1213:
	addi	a0,sp,8
	call	mbedtls_mpi_free
.LVL422:
.LM1214:
.LM1215:
	j	.L293
.LVL423:
.L300:
.LM1216:
.LM1217:
.LM1218:
.LM1219:
	li	a1,0
	mv	a0,s1
.LVL424:
.LM1220:
	call	mbedtls_mpi_lset
.LVL425:
.LM1221:
	bne	a0,zero,.L302
	add	s0,s0,s4
.LVL426:
.LM1222:
	li	a4,0
.LBB266:
.LBB267:
.LM1223:
	li	a0,9
.LVL427:
.LM1224:
	li	a1,5
.LVL428:
.L303:
.LM1225:
.LBE267:
.LBE266:
.LM1226:
	bne	a4,s4,.L308
.LVL429:
.L316:
.LM1227:
.LM1228:
	li	a5,-1
	bne	s3,a5,.L317
.LM1229:
	mv	a0,s1
	call	mbedtls_mpi_bitlen
.LVL430:
.LM1230:
	beq	a0,zero,.L317
.LM1231:
.LM1232:
	sh	s3,4(s1)
.L317:
.LM1233:
	li	s2,0
	j	.L301
.LVL431:
.L308:
.LM1234:
.LM1235:
.LM1236:
	lbu	a3,-1(s0)
.LVL432:
.LBB270:
.LBI266:
.LM1237:
.LBB268:
.LM1238:
.LM1239:
.LM1240:
	addi	a5,a3,-48
.LM1241:
	andi	a2,a5,0xff
	bleu	a2,a0,.L305
.LM1242:
.LM1243:
	addi	a5,a3,-65
.LM1244:
	andi	a5,a5,0xff
	bgtu	a5,a1,.L306
.LM1245:
.LM1246:
	addi	a5,a3,-55
.LM1247:
.LVL433:
.LM1248:
.L305:
.LM1249:
.LBE268:
.LBE270:
.LM1250:
.LM1251:
.LM1252:
	lw	a3,0(s1)
.LM1253:
	srli	a2,a4,3
.LM1254:
	slli	a2,a2,2
	add	a3,a3,a2
.LM1255:
	slli	a2,a4,2
	andi	a2,a2,28
.LM1256:
	sll	a5,a5,a2
.LM1257:
	lw	a2,0(a3)
.LM1258:
	addi	a4,a4,1
.LVL434:
.LM1259:
	addi	s0,s0,-1
.LM1260:
	or	a5,a2,a5
	sw	a5,0(a3)
.LM1261:
.LVL435:
.LM1262:
	j	.L303
.LVL436:
.L306:
.LBB271:
.LBB269:
.LM1263:
.LM1264:
	addi	a5,a3,-97
.LM1265:
	andi	a5,a5,0xff
	bgtu	a5,a1,.L307
.LM1266:
.LM1267:
	addi	a5,a3,-87
.LVL437:
.LM1268:
	j	.L305
.LVL438:
.L307:
.LM1269:
.LBE269:
.LBE271:
.LM1270:
	li	s2,-6
	j	.L301
.LVL439:
.L298:
.LM1271:
.LM1272:
.LM1273:
	li	a1,0
	mv	a0,s1
.LVL440:
.LM1274:
	call	mbedtls_mpi_lset
.LVL441:
.LM1275:
	bne	a0,zero,.L302
.LM1276:
	li	s8,0
.LBB272:
.LBB273:
.LM1277:
	li	s7,9
.LM1278:
	li	s6,5
.L311:
.LVL442:
.LM1279:
.LBE273:
.LBE272:
.LM1280:
	beq	s8,s4,.L316
.LM1281:
.LM1282:
.LM1283:
	add	a5,s0,s8
	lbu	a5,0(a5)
.LVL443:
.LBB275:
.LBI272:
.LM1284:
.LBB274:
.LM1285:
.LM1286:
.LM1287:
	addi	s2,a5,-48
.LM1288:
	andi	a4,s2,0xff
	bleu	a4,s7,.L313
.LM1289:
.LM1290:
	addi	a4,a5,-65
.LM1291:
	andi	a4,a4,0xff
.LM1292:
	addi	s2,a5,-55
.LM1293:
	bleu	a4,s6,.L313
.LM1294:
.LM1295:
	addi	a4,a5,-97
.LM1296:
	andi	a4,a4,0xff
	bgtu	a4,s6,.L307
.LM1297:
.LM1298:
	addi	s2,a5,-87
.L313:
.LVL444:
.LM1299:
.LM1300:
	bleu	s5,s2,.L307
.LVL445:
.LM1301:
.LBE274:
.LBE275:
.LM1302:
.LM1303:
.LM1304:
.LM1305:
	mv	a2,s5
	mv	a1,s1
	addi	a0,sp,8
	call	mbedtls_mpi_mul_int
.LVL446:
.LM1306:
	bne	a0,zero,.L302
.LM1307:
.LM1308:
.LM1309:
.LM1310:
	mv	a2,s2
	addi	a1,sp,8
	mv	a0,s1
.LVL447:
.LM1311:
	call	mbedtls_mpi_add_int
.LVL448:
	mv	s2,a0
.LVL449:
.LM1312:
	bne	a0,zero,.L301
.LM1313:
.LM1314:
	addi	s8,s8,1
.LVL450:
.LM1315:
	j	.L311
	.cfi_endproc
.LFE59:
	.size	mbedtls_mpi_read_string, .-mbedtls_mpi_read_string
	.section	.text.mbedtls_mpi_div_mpi,"ax",@progbits
	.align	1
	.globl	mbedtls_mpi_div_mpi
	.type	mbedtls_mpi_div_mpi, @function
mbedtls_mpi_div_mpi:
.LVL451:
.LFB81:
.LM1316:
	.cfi_startproc
.LM1317:
.LM1318:
.LM1319:
.LM1320:
.LM1321:
.LM1322:
	addi	sp,sp,-176
	.cfi_def_cfa_offset 176
	sw	a0,12(sp)
	sw	a1,8(sp)
.LM1323:
	mv	a0,a3
.LVL452:
.LM1324:
	li	a1,0
.LVL453:
.LM1325:
	sw	s7,140(sp)
	sw	s8,136(sp)
	sw	ra,172(sp)
	sw	s0,168(sp)
	sw	s1,164(sp)
	sw	s2,160(sp)
	sw	s3,156(sp)
	sw	s4,152(sp)
	sw	s5,148(sp)
	sw	s6,144(sp)
	sw	s9,132(sp)
	sw	s10,128(sp)
	sw	s11,124(sp)
	.cfi_offset 23, -36
	.cfi_offset 24, -40
	.cfi_offset 1, -4
	.cfi_offset 8, -8
	.cfi_offset 9, -12
	.cfi_offset 18, -16
	.cfi_offset 19, -20
	.cfi_offset 20, -24
	.cfi_offset 21, -28
	.cfi_offset 22, -32
	.cfi_offset 25, -44
	.cfi_offset 26, -48
	.cfi_offset 27, -52
.LM1326:
	mv	s7,a2
	sw	a3,20(sp)
.LM1327:
	call	mbedtls_mpi_cmp_int
.LVL454:
.LM1328:
	li	s8,-12
.LM1329:
	beq	a0,zero,.L323
.LM1330:
.LVL455:
.LBB286:
.LBI286:
.LM1331:
.LBB287:
.LM1332:
.LM1333:
	li	s0,1
.LBE287:
.LBE286:
.LM1334:
	lw	a1,20(sp)
.LM1335:
	li	a5,196608
	add	a5,a5,s0
	sw	a5,96(sp)
.LM1336:
	mv	a0,s7
.LM1337:
	addi	a5,sp,100
	sw	a5,92(sp)
.LBB290:
.LBB288:
.LM1338:
	sh	s0,64(sp)
.LM1339:
.LVL456:
.LM1340:
.LM1341:
.LBE288:
.LBE290:
.LM1342:
.LBB291:
.LBI291:
.LM1343:
.LBB292:
.LM1344:
.LM1345:
	sh	s0,72(sp)
.LM1346:
.LVL457:
.LM1347:
.LM1348:
.LBE292:
.LBE291:
.LM1349:
.LBB295:
.LBI295:
.LM1350:
.LBB296:
.LM1351:
.LM1352:
.LM1353:
	sw	s0,80(sp)
.LM1354:
.LVL458:
.LM1355:
.LBE296:
.LBE295:
.LM1356:
.LBB300:
.LBI300:
.LM1357:
.LBB301:
.LM1358:
.LM1359:
.LM1360:
	sw	s0,88(sp)
.LM1361:
.LVL459:
.LM1362:
.LBE301:
.LBE300:
.LM1363:
.LM1364:
.LM1365:
.LM1366:
.LM1367:
	call	mbedtls_mpi_cmp_abs
.LVL460:
.LM1368:
	li	a5,-1
	bne	a0,a5,.L325
.LM1369:
.LM1370:
	lw	a5,12(sp)
	bne	a5,zero,.L326
.LVL461:
.L329:
.LM1371:
.LM1372:
.LM1373:
	lw	a5,8(sp)
	bne	a5,zero,.L327
.L328:
.LM1374:
	li	s8,0
.LVL462:
.L323:
.LM1375:
	lw	ra,172(sp)
	.cfi_remember_state
	.cfi_restore 1
	lw	s0,168(sp)
	.cfi_restore 8
	lw	s1,164(sp)
	.cfi_restore 9
	lw	s2,160(sp)
	.cfi_restore 18
	lw	s3,156(sp)
	.cfi_restore 19
	lw	s4,152(sp)
	.cfi_restore 20
	lw	s5,148(sp)
	.cfi_restore 21
	lw	s6,144(sp)
	.cfi_restore 22
	lw	s7,140(sp)
	.cfi_restore 23
.LVL463:
.LM1376:
	lw	s9,132(sp)
	.cfi_restore 25
	lw	s10,128(sp)
	.cfi_restore 26
	lw	s11,124(sp)
	.cfi_restore 27
	mv	a0,s8
	lw	s8,136(sp)
	.cfi_restore 24
	addi	sp,sp,176
	.cfi_def_cfa_offset 0
.LVL464:
.LM1377:
	jr	ra
.LVL465:
.L326:
	.cfi_restore_state
.LM1378:
.LM1379:
.LM1380:
	lw	a0,12(sp)
	li	a1,0
	call	mbedtls_mpi_lset
.LVL466:
.LM1381:
	beq	a0,zero,.L329
.L331:
.LBB306:
.LBB302:
.LM1382:
	li	s1,0
.LBE302:
.LBE306:
.LBB307:
.LBB297:
	li	s6,0
.LBE297:
.LBE307:
.LBB308:
.LBB293:
.LM1383:
	li	s4,0
.LM1384:
	li	s5,0
.LBE293:
.LBE308:
.LBB309:
.LBB289:
.LM1385:
	li	s2,0
.LM1386:
	li	s3,0
.LVL467:
.L372:
.LM1387:
.LBE289:
.LBE309:
.LM1388:
	li	s8,-16
	j	.L330
.LVL468:
.L327:
.LM1389:
.LM1390:
.LM1391:
	lw	a0,8(sp)
	mv	a1,s7
	call	mbedtls_mpi_copy
.LVL469:
.LM1392:
	bne	a0,zero,.L331
	j	.L328
.LVL470:
.L325:
.LM1393:
.LM1394:
.LM1395:
	mv	a1,s7
	addi	a0,sp,60
	sw	zero,60(sp)
	sh	zero,66(sp)
	call	mbedtls_mpi_copy
.LVL471:
	lw	s3,60(sp)
.LVL472:
.LM1396:
	lhu	s2,66(sp)
.LVL473:
.LM1397:
	bne	a0,zero,.L358
.LM1398:
.LM1399:
.LM1400:
.LM1401:
	lw	a1,20(sp)
	addi	a0,sp,68
.LVL474:
.LM1402:
	sw	zero,68(sp)
	sh	zero,74(sp)
	call	mbedtls_mpi_copy
.LVL475:
	lw	s5,68(sp)
.LVL476:
.LM1403:
	lhu	s4,74(sp)
.LVL477:
.LM1404:
	bne	a0,zero,.L359
.LM1405:
.LM1406:
.LM1407:
	lhu	a1,6(s7)
.LM1408:
	addi	a0,sp,76
.LVL478:
.LM1409:
	sh	s0,72(sp)
.LM1410:
	addi	a1,a1,2
.LM1411:
	sh	s0,64(sp)
.LM1412:
.LM1413:
.LM1414:
	sw	zero,76(sp)
	call	mbedtls_mpi_grow
.LVL479:
.LM1415:
	beq	a0,zero,.L332
.LM1416:
	lw	s6,76(sp)
.LVL480:
.L360:
.LBB310:
.LBB303:
.LM1417:
	li	s1,0
	j	.L372
.LVL481:
.L332:
.LM1418:
.LBE303:
.LBE310:
.LM1419:
.LM1420:
.LM1421:
.LM1422:
	li	a1,0
	addi	a0,sp,76
.LVL482:
.LM1423:
	call	mbedtls_mpi_lset
.LVL483:
.LM1424:
	lw	s6,76(sp)
.LVL484:
.LM1425:
	bne	a0,zero,.L360
.LM1426:
.LM1427:
.LM1428:
.LM1429:
	lhu	a1,6(s7)
.LM1430:
	addi	a0,sp,84
.LVL485:
.LM1431:
	sw	zero,84(sp)
	addi	a1,a1,2
	call	mbedtls_mpi_grow
.LVL486:
.LM1432:
	li	s8,-16
.LM1433:
	lw	s1,84(sp)
.LVL487:
.LM1434:
	bne	a0,zero,.L330
.LM1435:
.LM1436:
.LM1437:
	addi	a0,sp,68
.LVL488:
.LM1438:
	call	mbedtls_mpi_bitlen
.LVL489:
.LM1439:
	andi	a0,a0,31
.LVL490:
.LM1440:
.LM1441:
	li	a4,31
	beq	a0,a4,.L362
.LM1442:
.LM1443:
	sub	a5,a4,a0
.LM1444:
	mv	a1,a5
	addi	a0,sp,60
.LVL491:
.LM1445:
	sw	a5,16(sp)
.LVL492:
.LM1446:
.LM1447:
.LM1448:
	call	mbedtls_mpi_shift_l
.LVL493:
.LM1449:
	lw	s3,60(sp)
.LVL494:
.LM1450:
	lhu	s2,66(sp)
.LVL495:
.LM1451:
	bne	a0,zero,.L330
.LM1452:
.LM1453:
.LM1454:
.LM1455:
	lw	a1,16(sp)
	addi	a0,sp,68
.LVL496:
.LM1456:
	call	mbedtls_mpi_shift_l
.LVL497:
	lw	s5,68(sp)
.LVL498:
.LM1457:
	lhu	s4,74(sp)
.LVL499:
.LM1458:
	bne	a0,zero,.L330
.LM1459:
	mv	s9,s4
.LM1460:
	mv	s0,s2
.LVL500:
.L333:
.LM1461:
.LM1462:
.LM1463:
.LM1464:
.LM1465:
	sub	s11,s2,s4
.LM1466:
	slli	a5,s11,5
.LM1467:
	mv	a1,a5
	addi	a0,sp,68
	sw	s5,68(sp)
	sh	s4,74(sp)
.LM1468:
	sw	a5,24(sp)
.LM1469:
	call	mbedtls_mpi_shift_l
.LVL501:
.LM1470:
	li	s8,-16
.LM1471:
	lw	s5,68(sp)
.LVL502:
.LM1472:
	lhu	s4,74(sp)
.LVL503:
.LM1473:
	bne	a0,zero,.L330
.LM1474:
	slli	s11,s11,2
	add	s11,s6,s11
.LVL504:
.L334:
.LM1475:
.LM1476:
.LM1477:
	addi	a1,sp,68
	addi	a0,sp,60
.LVL505:
.LM1478:
	sw	s3,60(sp)
	sh	s2,66(sp)
	sw	s5,68(sp)
	sh	s4,74(sp)
	call	mbedtls_mpi_cmp_mpi
.LVL506:
.LM1479:
	bge	a0,zero,.L335
.LM1480:
	lw	a1,24(sp)
	addi	a0,sp,68
.LM1481:
	addi	s10,s9,-1
.LM1482:
.LM1483:
.LM1484:
	call	mbedtls_mpi_shift_r
.LVL507:
.LM1485:
	slli	a5,s10,2
	add	a5,s5,a5
	sw	a5,24(sp)
.LM1486:
	slli	a5,s9,2
	addi	a5,a5,-8
	add	a5,s5,a5
.LM1487:
	addi	s11,s0,-1
.LM1488:
	sw	a5,28(sp)
	slli	s0,s0,2
	addi	a5,s6,-4
	add	s0,s0,a5
	slli	s9,s9,2
	sub	s0,s0,s9
.L336:
.LVL508:
.LM1489:
	bgtu	s11,s10,.L352
.LM1490:
.LM1491:
	lw	a5,12(sp)
	beq	a5,zero,.L353
.LM1492:
.LM1493:
.LM1494:
	addi	a1,sp,76
	mv	a0,a5
	call	mbedtls_mpi_copy
.LVL509:
.LM1495:
	bne	a0,zero,.L372
.LM1496:
.LM1497:
.LM1498:
	lw	a4,20(sp)
	lhu	a5,4(s7)
	lhu	a4,4(a4)
	mul	a5,a5,a4
.LM1499:
	lw	a4,12(sp)
	sh	a5,4(a4)
.LVL510:
.L353:
.LM1500:
.LM1501:
	lw	a5,8(sp)
	bne	a5,zero,.L355
.LVL511:
.L356:
.LM1502:
	li	s8,0
	j	.L330
.LVL512:
.L362:
.LM1503:
	mv	s9,s4
.LM1504:
	mv	s0,s2
.LM1505:
	sw	zero,16(sp)
	j	.L333
.LVL513:
.L335:
.LM1506:
.LM1507:
	lw	a5,0(s11)
.LM1508:
	addi	a1,sp,60
	addi	a2,sp,68
.LM1509:
	addi	a5,a5,1
	sw	a5,0(s11)
.LM1510:
.LM1511:
.LM1512:
	mv	a0,a1
	call	mbedtls_mpi_sub_mpi
.LVL514:
	mv	s8,a0
	lw	s3,60(sp)
.LVL515:
.LM1513:
	lhu	s2,66(sp)
.LVL516:
.LM1514:
	beq	a0,zero,.L334
.LVL517:
.L330:
.LM1515:
	addi	a0,sp,60
	sw	s3,60(sp)
	sh	s2,66(sp)
	call	mbedtls_mpi_free
.LVL518:
.LM1516:
	addi	a0,sp,68
	sw	s5,68(sp)
	sh	s4,74(sp)
	call	mbedtls_mpi_free
.LVL519:
.LM1517:
	addi	a0,sp,76
	sw	s6,76(sp)
	call	mbedtls_mpi_free
.LVL520:
.LM1518:
	addi	a0,sp,84
	sw	s1,84(sp)
	call	mbedtls_mpi_free
.LVL521:
.LM1519:
	li	a1,12
	addi	a0,sp,100
	call	mbedtls_platform_zeroize
.LVL522:
.LM1520:
.LM1521:
	j	.L323
.LVL523:
.L352:
.LM1522:
.LM1523:
	lw	a5,24(sp)
	slli	s9,s11,2
.LM1524:
	add	s8,s3,s9
.LM1525:
	lw	a1,0(a5)
.LM1526:
	lw	a6,0(s8)
.LM1527:
	addi	a3,s9,-4
	add	a3,s3,a3
	li	a5,-1
.LM1528:
	bgeu	a6,a1,.L337
.LM1529:
	lw	a4,0(a3)
.LBB311:
.LBB312:
.LM1530:
	mv	a0,a1
	sw	a6,44(sp)
.LBE312:
.LBE311:
.LM1531:
.LM1532:
	sw	a3,40(sp)
	sw	a4,36(sp)
.LVL524:
.LBB314:
.LBI311:
.LM1533:
.LBB313:
.LM1534:
.LM1535:
.LM1536:
.LM1537:
.LM1538:
.LM1539:
.LM1540:
.LM1541:
	sw	a1,32(sp)
	call	mbedtls_mpi_core_clz
.LVL525:
.LM1542:
.LM1543:
	lw	a1,32(sp)
.LM1544:
	lw	a6,44(sp)
.LM1545:
	lw	a4,36(sp)
	lw	a3,40(sp)
.LM1546:
	sll	a1,a1,a0
.LVL526:
.LM1547:
.LM1548:
	sll	a6,a6,a0
.LVL527:
.LM1549:
.LM1550:
	li	a5,0
	ble	a0,zero,.L339
.LM1551:
	li	a5,32
	sub	a5,a5,a0
.LM1552:
	srl	a5,a4,a5
.L339:
.LM1553:
	sll	a4,a4,a0
.LM1554:
	or	a5,a5,a6
.LVL528:
.LM1555:
.LM1556:
.LM1557:
	srli	a0,a1,16
.LVL529:
.LM1558:
.LM1559:
	slli	a7,a4,16
.LM1560:
	srli	t5,a4,16
.LM1561:
	divu	a4,a5,a0
.LVL530:
.LM1562:
	slli	a6,a1,16
	srli	a6,a6,16
.LVL531:
.LM1563:
.LM1564:
.LM1565:
	srli	a7,a7,16
.LVL532:
.LM1566:
.LM1567:
.LM1568:
	li	t6,65536
	remu	t1,a5,a0
.LVL533:
.LM1569:
	mul	t3,a6,a4
.L340:
.LM1570:
	bgeu	a4,t6,.L342
.LM1571:
	slli	t4,t1,16
	add	t4,t4,t5
	bgeu	t4,t3,.L341
.L342:
.LM1572:
.LM1573:
	add	t1,t1,a0
.LVL534:
.LM1574:
	addi	a4,a4,-1
.LVL535:
.LM1575:
.LM1576:
.LM1577:
	sub	t3,t3,a6
	bltu	t1,t6,.L340
.L341:
.LM1578:
.LM1579:
	mul	a1,a1,a4
.LVL536:
.LM1580:
	slli	a5,a5,16
.LVL537:
.LM1581:
	add	a5,a5,t5
.LM1582:
	li	t4,65536
.LM1583:
	sub	a5,a5,a1
.LVL538:
.LM1584:
.LM1585:
	divu	a1,a5,a0
.LVL539:
.LM1586:
	remu	a5,a5,a0
.LVL540:
.LM1587:
	mul	t1,a6,a1
.L343:
.LM1588:
	bgeu	a1,t4,.L345
.LM1589:
	slli	t3,a5,16
	add	t3,t3,a7
	bgeu	t3,t1,.L344
.L345:
.LM1590:
.LM1591:
	add	a5,a5,a0
.LVL541:
.LM1592:
	addi	a1,a1,-1
.LVL542:
.LM1593:
.LM1594:
.LM1595:
	sub	t1,t1,a6
	bltu	a5,t4,.L343
.L344:
.LM1596:
.LM1597:
.LM1598:
	slli	a5,a4,16
.LVL543:
.LM1599:
	add	a5,a5,a1
.LM1600:
.LVL544:
.L337:
.LM1601:
.LBE313:
.LBE314:
.LM1602:
	sw	a5,0(s0)
.LM1603:
.LM1604:
	li	a4,1
.LM1605:
	li	a5,0
.LM1606:
	beq	s11,a4,.L346
.LM1607:
	add	s9,s3,s9
	lw	a5,-8(s9)
.L346:
.LM1608:
	sw	a5,100(sp)
.LM1609:
.LM1610:
	lw	a5,0(a3)
.LM1611:
	sw	a5,104(sp)
.LM1612:
.LM1613:
	lw	a5,0(s8)
.LM1614:
	sw	a5,108(sp)
.LM1615:
.LM1616:
	lw	a5,0(s0)
	addi	a5,a5,1
	sw	a5,0(s0)
.LVL545:
.L348:
.LM1617:
.LM1618:
.LM1619:
	lw	a5,0(s0)
.LM1620:
	li	a1,0
	addi	a0,sp,84
.LM1621:
	addi	a5,a5,-1
	sw	a5,0(s0)
.LM1622:
.LM1623:
.LM1624:
	sw	s1,84(sp)
	call	mbedtls_mpi_lset
.LVL546:
	lw	s1,84(sp)
.LVL547:
.LM1625:
	bne	a0,zero,.L372
.LM1626:
.LM1627:
.LM1628:
	li	a5,0
.LM1629:
	beq	s10,zero,.L347
.LM1630:
	lw	a5,28(sp)
	lw	a5,0(a5)
.L347:
.LM1631:
	sw	a5,0(s1)
.LM1632:
.LM1633:
	lw	a5,24(sp)
.LM1634:
	addi	a1,sp,84
	mv	a0,a1
.LVL548:
.LM1635:
	lw	a5,0(a5)
.LM1636:
	sw	a5,4(s1)
.LM1637:
.LM1638:
.LM1639:
	lw	a2,0(s0)
	call	mbedtls_mpi_mul_int
.LVL549:
	lw	s1,84(sp)
.LVL550:
.LM1640:
	bne	a0,zero,.L372
.LM1641:
.LM1642:
.LM1643:
	addi	a1,sp,92
	addi	a0,sp,84
.LVL551:
.LM1644:
	call	mbedtls_mpi_cmp_mpi
.LVL552:
.LM1645:
	bgt	a0,zero,.L348
.LM1646:
.LM1647:
.LM1648:
	lw	a2,0(s0)
	addi	a1,sp,68
	addi	a0,sp,84
	sw	s5,68(sp)
	sh	s4,74(sp)
	call	mbedtls_mpi_mul_int
.LVL553:
.LM1649:
	beq	a0,zero,.L349
.L383:
.LM1650:
	lw	s1,84(sp)
	j	.L372
.L349:
.LM1651:
.LM1652:
.LM1653:
.LM1654:
	li	a5,-8
	mul	a5,s6,a5
	slli	s9,s0,3
.LM1655:
	addi	a0,sp,84
.LVL554:
.LM1656:
	add	s9,s9,a5
.LM1657:
	mv	a1,s9
	call	mbedtls_mpi_shift_l
.LVL555:
.LM1658:
	lw	s1,84(sp)
.LVL556:
.LM1659:
	bne	a0,zero,.L372
.LM1660:
.LM1661:
.LM1662:
.LM1663:
	addi	a1,sp,60
	addi	a2,sp,84
	mv	a0,a1
.LVL557:
.LM1664:
	sw	s3,60(sp)
	sh	s2,66(sp)
	call	mbedtls_mpi_sub_mpi
.LVL558:
	mv	s8,a0
	lw	s3,60(sp)
.LVL559:
.LM1665:
	lhu	s2,66(sp)
.LVL560:
.LM1666:
	bne	a0,zero,.L330
.LM1667:
.LM1668:
.LM1669:
	li	a1,0
	addi	a0,sp,60
.LVL561:
.LM1670:
	call	mbedtls_mpi_cmp_int
.LVL562:
.LM1671:
	bge	a0,zero,.L350
.LM1672:
.LM1673:
.LM1674:
	addi	a1,sp,68
	addi	a0,sp,84
	call	mbedtls_mpi_copy
.LVL563:
.LM1675:
	bne	a0,zero,.L383
.LM1676:
.LM1677:
.LM1678:
.LM1679:
	mv	a1,s9
	addi	a0,sp,84
.LVL564:
.LM1680:
	call	mbedtls_mpi_shift_l
.LVL565:
.LM1681:
	lw	s1,84(sp)
.LVL566:
.LM1682:
	bne	a0,zero,.L372
.LM1683:
.LM1684:
.LM1685:
.LM1686:
	addi	a1,sp,60
	addi	a2,sp,84
	mv	a0,a1
.LVL567:
.LM1687:
	call	mbedtls_mpi_add_mpi
.LVL568:
	mv	s8,a0
	lw	s3,60(sp)
.LVL569:
.LM1688:
	lhu	s2,66(sp)
.LVL570:
.LM1689:
	bne	a0,zero,.L330
.LM1690:
.LM1691:
.LM1692:
	lw	a5,0(s0)
	addi	a5,a5,-1
	sw	a5,0(s0)
.LVL571:
.L350:
.LM1693:
	addi	s11,s11,-1
.LVL572:
.LM1694:
	addi	s0,s0,-4
	j	.L336
.L355:
.LM1695:
.LM1696:
.LM1697:
	lw	a1,16(sp)
	addi	a0,sp,60
	sw	s3,60(sp)
	sh	s2,66(sp)
	call	mbedtls_mpi_shift_r
.LVL573:
.LM1698:
.LM1699:
.LM1700:
	lhu	a5,4(s7)
.LM1701:
	lw	a0,8(sp)
	addi	a1,sp,60
.LM1702:
	sh	a5,64(sp)
.LM1703:
.LM1704:
.LM1705:
	call	mbedtls_mpi_copy
.LVL574:
.LM1706:
	bne	a0,zero,.L372
.LM1707:
.LM1708:
.LM1709:
	lw	a0,8(sp)
.LVL575:
.LM1710:
	li	a1,0
	call	mbedtls_mpi_cmp_int
.LVL576:
.LM1711:
	bne	a0,zero,.L356
.LM1712:
.LM1713:
	lw	a4,8(sp)
	li	a5,1
	sh	a5,4(a4)
	j	.L356
.LVL577:
.L358:
.LBB315:
.LBB304:
.LM1714:
	li	s1,0
.LBE304:
.LBE315:
.LBB316:
.LBB298:
	li	s6,0
.LBE298:
.LBE316:
.LBB317:
.LBB294:
.LM1715:
	li	s4,0
.LM1716:
	li	s5,0
	j	.L372
.LVL578:
.L359:
.LM1717:
.LBE294:
.LBE317:
.LBB318:
.LBB305:
	li	s1,0
.LBE305:
.LBE318:
.LBB319:
.LBB299:
	li	s6,0
	j	.L372
.LBE299:
.LBE319:
	.cfi_endproc
.LFE81:
	.size	mbedtls_mpi_div_mpi, .-mbedtls_mpi_div_mpi
	.section	.text.mbedtls_mpi_div_int,"ax",@progbits
	.align	1
	.globl	mbedtls_mpi_div_int
	.type	mbedtls_mpi_div_int, @function
mbedtls_mpi_div_int:
.LVL579:
.LFB82:
.LM1718:
	.cfi_startproc
.LM1719:
.LM1720:
.LM1721:
.LBB320:
.LBI320:
.LM1722:
.LBB321:
.LM1723:
.LM1724:
	srai	a4,a3,31
	xor	a5,a4,a3
.LBE321:
.LBE320:
.LM1725:
	addi	sp,sp,-32
	.cfi_def_cfa_offset 32
.LBB323:
.LBB322:
.LM1726:
	sub	a5,a5,a4
.LBE322:
.LBE323:
.LM1727:
	sw	a5,4(sp)
.LM1728:
.LM1729:
	ori	a3,a4,1
.LVL580:
.LM1730:
	li	a5,1
.LM1731:
	sh	a3,12(sp)
.LM1732:
.LM1733:
	sh	a5,14(sp)
.LM1734:
.LM1735:
	addi	a3,sp,8
.LM1736:
	addi	a5,sp,4
.LM1737:
	sw	ra,28(sp)
	.cfi_offset 1, -4
.LM1738:
	sw	a5,8(sp)
.LM1739:
.LM1740:
	call	mbedtls_mpi_div_mpi
.LVL581:
.LM1741:
	lw	ra,28(sp)
	.cfi_restore 1
	addi	sp,sp,32
	.cfi_def_cfa_offset 0
	jr	ra
	.cfi_endproc
.LFE82:
	.size	mbedtls_mpi_div_int, .-mbedtls_mpi_div_int
	.section	.text.mbedtls_mpi_mod_mpi,"ax",@progbits
	.align	1
	.globl	mbedtls_mpi_mod_mpi
	.type	mbedtls_mpi_mod_mpi, @function
mbedtls_mpi_mod_mpi:
.LVL582:
.LFB83:
.LM1742:
	.cfi_startproc
.LM1743:
.LM1744:
.LM1745:
	addi	sp,sp,-16
	.cfi_def_cfa_offset 16
	sw	s0,8(sp)
	sw	s1,4(sp)
	.cfi_offset 8, -8
	.cfi_offset 9, -12
	mv	s0,a1
	mv	s1,a0
.LM1746:
	li	a1,0
.LVL583:
.LM1747:
	mv	a0,a2
.LVL584:
.LM1748:
	sw	s2,0(sp)
	sw	ra,12(sp)
	.cfi_offset 18, -16
	.cfi_offset 1, -4
.LM1749:
	mv	s2,a2
.LM1750:
	call	mbedtls_mpi_cmp_int
.LVL585:
.LM1751:
	blt	a0,zero,.L392
.LM1752:
.LM1753:
.LM1754:
	mv	a2,s0
	mv	a3,s2
	mv	a1,s1
	li	a0,0
	call	mbedtls_mpi_div_mpi
.LVL586:
	mv	s0,a0
.LVL587:
.LM1755:
	beq	a0,zero,.L388
.LVL588:
.L386:
.LM1756:
	lw	ra,12(sp)
	.cfi_remember_state
	.cfi_restore 1
	mv	a0,s0
	lw	s0,8(sp)
	.cfi_restore 8
	lw	s1,4(sp)
	.cfi_restore 9
.LVL589:
.LM1757:
	lw	s2,0(sp)
	.cfi_restore 18
.LVL590:
.LM1758:
	addi	sp,sp,16
	.cfi_def_cfa_offset 0
	jr	ra
.LVL591:
.L389:
	.cfi_restore_state
.LBB326:
.LBB327:
.LM1759:
.LM1760:
.LM1761:
	mv	a2,s2
	mv	a1,s1
	mv	a0,s1
	call	mbedtls_mpi_add_mpi
.LVL592:
.LM1762:
	bne	a0,zero,.L394
.LVL593:
.L388:
.LM1763:
.LM1764:
.LM1765:
	li	a1,0
	mv	a0,s1
	call	mbedtls_mpi_cmp_int
.LVL594:
.LM1766:
	blt	a0,zero,.L389
.LVL595:
.L390:
.LM1767:
.LM1768:
.LM1769:
	mv	a1,s2
	mv	a0,s1
	call	mbedtls_mpi_cmp_mpi
.LVL596:
.LM1770:
	blt	a0,zero,.L386
.LM1771:
.LM1772:
.LM1773:
	mv	a2,s2
	mv	a1,s1
	mv	a0,s1
	call	mbedtls_mpi_sub_mpi
.LVL597:
.LM1774:
	beq	a0,zero,.L390
.L394:
.LM1775:
	mv	s0,a0
.LVL598:
.LM1776:
	j	.L386
.LVL599:
.L392:
.LM1777:
.LBE327:
.LBE326:
.LM1778:
	li	s0,-10
.LVL600:
.LM1779:
	j	.L386
	.cfi_endproc
.LFE83:
	.size	mbedtls_mpi_mod_mpi, .-mbedtls_mpi_mod_mpi
	.section	.text.mbedtls_mpi_exp_mod_optionally_safe,"ax",@progbits
	.align	1
	.type	mbedtls_mpi_exp_mod_optionally_safe, @function
mbedtls_mpi_exp_mod_optionally_safe:
.LVL601:
.LFB85:
.LM1780:
	.cfi_startproc
.LM1781:
.LM1782:
.LM1783:
	addi	sp,sp,-64
	.cfi_def_cfa_offset 64
	sw	s2,48(sp)
	sw	s6,32(sp)
	.cfi_offset 18, -16
	.cfi_offset 22, -32
	mv	s2,a0
	mv	s6,a1
.LM1784:
	mv	a0,a4
.LVL602:
.LM1785:
	li	a1,0
.LVL603:
.LM1786:
	sw	s1,52(sp)
	sw	s3,44(sp)
	sw	s4,40(sp)
	sw	s8,24(sp)
	sw	ra,60(sp)
	sw	s0,56(sp)
	sw	s5,36(sp)
	sw	s7,28(sp)
	sw	s9,20(sp)
	.cfi_offset 9, -12
	.cfi_offset 19, -20
	.cfi_offset 20, -24
	.cfi_offset 24, -40
	.cfi_offset 1, -4
	.cfi_offset 8, -8
	.cfi_offset 21, -28
	.cfi_offset 23, -36
	.cfi_offset 25, -44
.LM1787:
	mv	s4,a2
	mv	s8,a3
	mv	s1,a4
	mv	s3,a5
.LM1788:
	call	mbedtls_mpi_cmp_int
.LVL604:
.LM1789:
	bgt	a0,zero,.L397
.L399:
.LM1790:
	li	s0,-4
.LVL605:
.L396:
.LM1791:
	lw	ra,60(sp)
	.cfi_remember_state
	.cfi_restore 1
	mv	a0,s0
	lw	s0,56(sp)
	.cfi_restore 8
	lw	s1,52(sp)
	.cfi_restore 9
.LVL606:
.LM1792:
	lw	s2,48(sp)
	.cfi_restore 18
.LVL607:
.LM1793:
	lw	s3,44(sp)
	.cfi_restore 19
.LVL608:
.LM1794:
	lw	s4,40(sp)
	.cfi_restore 20
.LVL609:
.LM1795:
	lw	s5,36(sp)
	.cfi_restore 21
	lw	s6,32(sp)
	.cfi_restore 22
.LVL610:
.LM1796:
	lw	s7,28(sp)
	.cfi_restore 23
	lw	s8,24(sp)
	.cfi_restore 24
.LVL611:
.LM1797:
	lw	s9,20(sp)
	.cfi_restore 25
	addi	sp,sp,64
	.cfi_def_cfa_offset 0
	jr	ra
.LVL612:
.L397:
	.cfi_restore_state
.LM1798:
	lw	a5,0(s1)
.LM1799:
	lw	a5,0(a5)
	andi	a5,a5,1
.LM1800:
	beq	a5,zero,.L399
.LM1801:
.LM1802:
	li	a1,0
	mv	a0,s4
	call	mbedtls_mpi_cmp_int
.LVL613:
.LM1803:
	blt	a0,zero,.L399
.LM1804:
.LM1805:
	mv	a0,s4
	call	mbedtls_mpi_bitlen
.LVL614:
.LM1806:
	li	s0,8192
	bgtu	a0,s0,.L399
.LM1807:
	mv	a0,s1
	call	mbedtls_mpi_bitlen
.LVL615:
.LM1808:
	bgtu	a0,s0,.L399
.LM1809:
.LM1810:
	lhu	a1,6(s4)
.LM1811:
	bne	a1,zero,.L400
.LM1812:
.LM1813:
	lw	s0,56(sp)
	.cfi_remember_state
	.cfi_restore 8
	lw	ra,60(sp)
	.cfi_restore 1
	lw	s1,52(sp)
	.cfi_restore 9
.LVL616:
.LM1814:
	lw	s3,44(sp)
	.cfi_restore 19
.LVL617:
.LM1815:
	lw	s4,40(sp)
	.cfi_restore 20
.LVL618:
.LM1816:
	lw	s5,36(sp)
	.cfi_restore 21
	lw	s6,32(sp)
	.cfi_restore 22
.LVL619:
.LM1817:
	lw	s7,28(sp)
	.cfi_restore 23
	lw	s8,24(sp)
	.cfi_restore 24
.LVL620:
.LM1818:
	lw	s9,20(sp)
	.cfi_restore 25
.LM1819:
	mv	a0,s2
.LM1820:
	lw	s2,48(sp)
	.cfi_restore 18
.LVL621:
.LM1821:
	li	a1,1
.LM1822:
	addi	sp,sp,64
	.cfi_def_cfa_offset 0
.LM1823:
	tail	mbedtls_mpi_lset
.LVL622:
.L400:
	.cfi_restore_state
.LM1824:
.LM1825:
	lhu	a0,6(s1)
.LM1826:
	li	s0,-16
.LM1827:
	call	mbedtls_mpi_core_exp_mod_working_limbs
.LVL623:
.LM1828:
	li	a1,4
.LM1829:
	mv	s9,a0
.LVL624:
.LM1830:
.LM1831:
	call	calloc
.LVL625:
.LM1832:
	mv	s5,a0
.LVL626:
.LM1833:
.LM1834:
	beq	a0,zero,.L396
.LM1835:
.LM1836:
.LVL627:
.LBB339:
.LBI339:
.LM1837:
.LBB340:
.LM1838:
.LM1839:
.LM1840:
.LM1841:
	li	a5,1
.LM1842:
	sw	zero,8(sp)
.LM1843:
	sw	a5,12(sp)
.LVL628:
.LM1844:
.LBE340:
.LBE339:
.LM1845:
.LM1846:
	beq	s3,zero,.L401
.LM1847:
	lw	a5,0(s3)
	bne	a5,zero,.L402
.L401:
.LM1848:
.LM1849:
.LM1850:
	mv	a1,s1
	addi	a0,sp,8
.LVL629:
.LM1851:
	call	mbedtls_mpi_core_get_mont_r2_unsafe
.LVL630:
	mv	s0,a0
.LVL631:
.LM1852:
	bne	a0,zero,.L403
.LM1853:
.LM1854:
.LM1855:
	beq	s3,zero,.L404
.LM1856:
.LM1857:
	lw	a5,8(sp)
	sw	a5,0(s3)
	lw	a5,12(sp)
	sw	a5,4(s3)
.LVL632:
.L404:
.LM1858:
.LM1859:
.LM1860:
	mv	a1,s6
	mv	a0,s2
.LVL633:
.LM1861:
	call	mbedtls_mpi_copy
.LVL634:
.LM1862:
	bne	a0,zero,.L408
.LM1863:
.LM1864:
.LM1865:
	li	a5,1
	sh	a5,4(s2)
.LM1866:
.LM1867:
	mv	a1,s1
	mv	a0,s2
.LVL635:
.LM1868:
	call	mbedtls_mpi_cmp_mpi
.LVL636:
.LM1869:
	bge	a0,zero,.L407
.LVL637:
.L410:
.LM1870:
.LM1871:
.LM1872:
.LM1873:
	lhu	a1,6(s1)
	mv	a0,s2
	call	mbedtls_mpi_grow
.LVL638:
	mv	s0,a0
.LVL639:
.LM1874:
	bne	a0,zero,.L408
.LM1875:
.LBB341:
.LM1876:
.LM1877:
	lw	a0,0(s1)
	call	mbedtls_mpi_core_montmul_init
.LVL640:
.LM1878:
	lw	a1,0(s2)
	lw	a5,8(sp)
	lhu	a3,6(s1)
	lw	a2,0(s1)
	mv	a4,a0
	mv	a6,s5
.LM1879:
	mv	s7,a0
.LVL641:
.LM1880:
	mv	a0,a1
.LVL642:
.LM1881:
	call	mbedtls_mpi_core_to_mont_rep
.LVL643:
.LM1882:
.LM1883:
	li	a0,707407872
	addi	a0,a0,-1494
.LM1884:
	lw	a1,0(s2)
.LM1885:
	lw	a2,0(s1)
.LM1886:
	lhu	a3,6(s1)
.LM1887:
	lw	a4,0(s4)
.LM1888:
	lhu	a5,6(s4)
.LM1889:
	lw	a6,8(sp)
.LM1890:
	mv	a7,s5
.LM1891:
	bne	s8,a0,.L411
.LVL644:
.LM1892:
	mv	a0,a1
	call	mbedtls_mpi_core_exp_mod_unsafe
.LVL645:
.L412:
.LM1893:
	lw	a1,0(s2)
	lhu	a3,6(s1)
	lw	a2,0(s1)
	mv	a5,s5
	mv	a4,s7
	mv	a0,a1
	call	mbedtls_mpi_core_from_mont_rep
.LVL646:
.LBE341:
.LM1894:
.LM1895:
	lh	a4,4(s6)
	li	a5,-1
	bne	a4,a5,.L403
.LM1896:
	lw	a5,0(s4)
.LM1897:
	lw	a5,0(a5)
	andi	a5,a5,1
.LM1898:
	beq	a5,zero,.L403
.LBB342:
.LM1899:
.LM1900:
	lhu	a1,6(s2)
	lw	a0,0(s2)
	call	mbedtls_mpi_core_check_zero_ct
.LVL647:
.LM1901:
.LBB343:
.LBI343:
.LM1902:
.LBB344:
.LM1903:
.LBB345:
.LBI345:
.LM1904:
.LM1905:
.LBB346:
.LBI346:
.LM1906:
.LBB347:
.LM1907:
.LBB348:
.LBI348:
.LM1908:
.LBB349:
.LM1909:
.LVL648:
.LM1910:
.LM1911:
.LBE349:
.LBE348:
.LM1912:
.LM1913:
	not	a0,a0
.LM1914:
	andi	a0,a0,2
.LBE347:
.LBE346:
.LBE345:
.LM1915:
	addi	a0,a0,-1
.LBE344:
.LBE343:
.LM1916:
	sh	a0,4(s2)
.LM1917:
.LM1918:
.LM1919:
	mv	a2,s2
	mv	a1,s1
	mv	a0,s2
	call	mbedtls_mpi_add_mpi
.LVL649:
	mv	s0,a0
.LVL650:
.LM1920:
	j	.L403
.LVL651:
.L402:
.LM1921:
.LBE342:
.LM1922:
.LM1923:
.LM1924:
	lhu	a1,6(s1)
	mv	a0,s3
.LVL652:
.LM1925:
	call	mbedtls_mpi_grow
.LVL653:
.LM1926:
	beq	a0,zero,.L405
.L408:
.LM1927:
	li	s0,-16
.LVL654:
.L403:
.LBB350:
.LM1928:
.LBE350:
.LM1929:
	slli	a1,s9,2
	mv	a0,s5
	call	mbedtls_zeroize_and_free
.LVL655:
.LM1930:
.LM1931:
	beq	s3,zero,.L413
.LM1932:
	lw	a5,0(s3)
	bne	a5,zero,.L396
.L413:
.LM1933:
	addi	a0,sp,8
	call	mbedtls_mpi_free
.LVL656:
	j	.L396
.LVL657:
.L405:
.LM1934:
.LM1935:
.LM1936:
	lw	a5,0(s3)
	sw	a5,8(sp)
	lw	a5,4(s3)
	sw	a5,12(sp)
	j	.L404
.LVL658:
.L407:
.LM1937:
.LM1938:
.LM1939:
	mv	a2,s1
	mv	a1,s2
	mv	a0,s2
	call	mbedtls_mpi_mod_mpi
.LVL659:
	mv	s0,a0
.LVL660:
.LM1940:
	beq	a0,zero,.L410
	j	.L403
.LVL661:
.L411:
.LBB351:
.LM1941:
	mv	a0,a1
	call	mbedtls_mpi_core_exp_mod
.LVL662:
.LM1942:
	j	.L412
.LBE351:
	.cfi_endproc
.LFE85:
	.size	mbedtls_mpi_exp_mod_optionally_safe, .-mbedtls_mpi_exp_mod_optionally_safe
	.section	.text.mbedtls_mpi_mod_int,"ax",@progbits
	.align	1
	.globl	mbedtls_mpi_mod_int
	.type	mbedtls_mpi_mod_int, @function
mbedtls_mpi_mod_int:
.LVL663:
.LFB84:
.LM1943:
	.cfi_startproc
.LM1944:
.LM1945:
.LM1946:
.LM1947:
	li	a5,-12
.LM1948:
	beq	a2,zero,.L436
.LM1949:
.LM1950:
	li	a5,-10
.LM1951:
	blt	a2,zero,.L436
.LM1952:
.LM1953:
	li	a4,1
	li	a5,0
	beq	a2,a4,.L438
.LM1954:
	lhu	a4,6(a1)
.LM1955:
	beq	a4,zero,.L438
.LM1956:
.LM1957:
	li	a5,2
.LM1958:
	lw	a7,0(a1)
.LM1959:
	bne	a2,a5,.L439
.LM1960:
.LM1961:
	lw	a5,0(a7)
	andi	a5,a5,1
.LM1962:
.L438:
.LM1963:
	sw	a5,0(a0)
.LM1964:
	li	a5,0
.L436:
.LM1965:
	mv	a0,a5
.LVL664:
.LM1966:
	ret
.LVL665:
.L439:
.LM1967:
.LM1968:
	slli	a4,a4,2
.LVL666:
.LM1969:
	add	a4,a7,a4
.LM1970:
	li	a5,0
.LVL667:
.L440:
.LM1971:
.LM1972:
	lw	a6,-4(a4)
.LVL668:
.LM1973:
.LM1974:
	slli	a5,a5,16
.LVL669:
.LM1975:
.LM1976:
.LM1977:
.LM1978:
.LM1979:
	addi	a4,a4,-4
.LM1980:
	srli	a3,a6,16
.LM1981:
	or	a5,a3,a5
.LVL670:
.LM1982:
	remu	a5,a5,a2
.LVL671:
.LM1983:
	slli	a6,a6,16
.LVL672:
.LM1984:
	srli	a6,a6,16
.LVL673:
.LM1985:
	slli	a5,a5,16
.LVL674:
.LM1986:
.LM1987:
.LM1988:
	or	a6,a6,a5
	remu	a5,a6,a2
.LM1989:
.LVL675:
.LM1990:
	bne	a7,a4,.L440
.LM1991:
.LM1992:
	lh	a4,4(a1)
.LVL676:
.LM1993:
	bge	a4,zero,.L438
.LM1994:
	beq	a5,zero,.L438
.LM1995:
.LM1996:
	sub	a5,a2,a5
.LVL677:
.LM1997:
.LM1998:
.LM1999:
	j	.L438
	.cfi_endproc
.LFE84:
	.size	mbedtls_mpi_mod_int, .-mbedtls_mpi_mod_int
	.section	.rodata.mbedtls_mpi_write_string.str1.4,"aMS",@progbits,1
	.align	2
.LC0:
	.string	"0123456789ABCDEF"
	.section	.text.mbedtls_mpi_write_string,"ax",@progbits
	.align	1
	.globl	mbedtls_mpi_write_string
	.type	mbedtls_mpi_write_string, @function
mbedtls_mpi_write_string:
.LVL678:
.LFB61:
.LM2000:
	.cfi_startproc
.LM2001:
.LM2002:
.LM2003:
.LM2004:
.LM2005:
.LM2006:
	addi	sp,sp,-80
	.cfi_def_cfa_offset 80
	sw	s1,68(sp)
	sw	s5,52(sp)
	sw	ra,76(sp)
	.cfi_offset 9, -12
	.cfi_offset 21, -28
	.cfi_offset 1, -4
	mv	s5,a3
	sw	s0,72(sp)
	sw	s2,64(sp)
	sw	s3,60(sp)
	sw	s4,56(sp)
	sw	s6,48(sp)
	sw	s7,44(sp)
	sw	s8,40(sp)
	sw	s9,36(sp)
	.cfi_offset 8, -8
	.cfi_offset 18, -16
	.cfi_offset 19, -20
	.cfi_offset 20, -24
	.cfi_offset 22, -32
	.cfi_offset 23, -36
	.cfi_offset 24, -40
	.cfi_offset 25, -44
.LM2007:
	addi	a6,a1,-2
.LM2008:
	li	a3,14
.LVL679:
.LM2009:
	li	s1,-4
.LM2010:
	bgtu	a6,a3,.L450
	mv	s2,a1
	mv	s3,a4
	mv	s4,a2
	sw	a0,12(sp)
.LM2011:
.LM2012:
	call	mbedtls_mpi_bitlen
.LVL680:
.LM2013:
.LM2014:
	li	a5,3
	lw	a1,12(sp)
	ble	s2,a5,.L452
.LM2015:
.LVL681:
.LM2016:
.LM2017:
	li	a5,16
	beq	s2,a5,.L453
.LM2018:
	srli	a0,a0,1
.LVL682:
.L452:
.LM2019:
.LM2020:
.LM2021:
.LM2022:
.LM2023:
	addi	a5,a0,4
	andi	a5,a5,-2
.LVL683:
.LM2024:
.LM2025:
	bleu	a5,s5,.L454
.LM2026:
.LM2027:
	sw	a5,0(s3)
.LM2028:
.LM2029:
	li	s1,-8
.LVL684:
.L450:
.LM2030:
	lw	ra,76(sp)
	.cfi_remember_state
	.cfi_restore 1
	lw	s0,72(sp)
	.cfi_restore 8
	lw	s2,64(sp)
	.cfi_restore 18
	lw	s3,60(sp)
	.cfi_restore 19
	lw	s4,56(sp)
	.cfi_restore 20
	lw	s5,52(sp)
	.cfi_restore 21
.LVL685:
.LM2031:
	lw	s6,48(sp)
	.cfi_restore 22
	lw	s7,44(sp)
	.cfi_restore 23
	lw	s8,40(sp)
	.cfi_restore 24
	lw	s9,36(sp)
	.cfi_restore 25
	mv	a0,s1
	lw	s1,68(sp)
	.cfi_restore 9
	addi	sp,sp,80
	.cfi_def_cfa_offset 0
	jr	ra
.LVL686:
.L453:
	.cfi_restore_state
.LM2032:
.LM2033:
	srli	a0,a0,2
.LVL687:
.LM2034:
	j	.L452
.LVL688:
.L454:
.LM2035:
.LM2036:
.LBB357:
.LBI357:
.LM2037:
.LBB358:
.LM2038:
.LM2039:
.LBE358:
.LBE357:
.LM2040:
	lh	a4,4(a1)
.LBB361:
.LBB359:
.LM2041:
	sh	zero,30(sp)
.LM2042:
.LM2043:
	sw	zero,24(sp)
.LVL689:
.LM2044:
.LBE359:
.LBE361:
.LM2045:
.LM2046:
	li	a5,-1
.LVL690:
.LM2047:
	mv	s0,s4
.LM2048:
	bne	a4,a5,.L455
.LVL691:
.LM2049:
.LM2050:
	li	a5,45
.LM2051:
	addi	s0,s4,1
.LVL692:
.LM2052:
	sb	a5,0(s4)
.LM2053:
.LM2054:
	add	s5,s5,a4
.LVL693:
.L455:
.LM2055:
.LM2056:
	li	a5,16
	bne	s2,a5,.L456
.LBB362:
.LM2057:
.LM2058:
.LM2059:
.LM2060:
	lhu	a5,6(a1)
.LVL694:
.LM2061:
	lui	a0,%hi(.LC0)
.LVL695:
.LM2062:
	li	a2,0
.LM2063:
	addi	a0,a0,%lo(.LC0)
.LM2064:
	li	t1,-8
.LM2065:
	li	t3,2
.LVL696:
.L457:
.LM2066:
	bne	a5,zero,.L461
.LM2067:
.LBE362:
.LBB363:
.LBB360:
.LM2068:
	li	s6,1
.LVL697:
.L462:
.LM2069:
.LBE360:
.LBE363:
.LM2070:
.LM2071:
.LM2072:
	sb	zero,0(s0)
.LM2073:
.LM2074:
	addi	s0,s0,1
.LVL698:
.LM2075:
	sub	a2,s0,s4
.LM2076:
	sw	a2,0(s3)
	li	s1,0
	j	.L463
.LVL699:
.L461:
.LBB364:
.LM2077:
	addi	a7,a5,-1
	slli	t4,a7,2
	addi	a5,a5,4
.LVL700:
.LM2078:
	li	a6,24
.LVL701:
.L460:
.LM2079:
.LM2080:
	lw	a4,0(a1)
	add	a4,a4,t4
.LM2081:
	lw	a4,0(a4)
	srl	a4,a4,a6
	andi	a3,a4,255
.LVL702:
.LM2082:
	or	a2,a2,a3
.LVL703:
.LM2083:
	bne	a2,zero,.L458
.LM2084:
	bne	a5,t3,.L459
.L458:
.LM2085:
.LM2086:
	srai	a3,a3,4
.LVL704:
.LM2087:
	andi	a4,a4,15
.LVL705:
.LM2088:
	add	a3,a0,a3
.LM2089:
	add	a4,a0,a4
.LM2090:
	lbu	a3,0(a3)
.LM2091:
	lbu	a4,0(a4)
.LM2092:
	addi	s0,s0,2
.LVL706:
.LM2093:
	sb	a3,-2(s0)
.LVL707:
.LM2094:
.LM2095:
	sb	a4,-1(s0)
.LM2096:
.LVL708:
.LM2097:
	li	a2,1
.LVL709:
.L459:
.LM2098:
	addi	a6,a6,-8
	addi	a5,a5,-1
.LVL710:
.LM2099:
	bne	a6,t1,.L460
.LM2100:
.LVL711:
.LM2101:
	mv	a5,a7
.LVL712:
.LM2102:
	j	.L457
.LVL713:
.L456:
.LM2103:
.LBE364:
.LM2104:
.LM2105:
.LM2106:
	li	s7,1
	addi	a0,sp,24
.LVL714:
.LM2107:
	sh	s7,28(sp)
	call	mbedtls_mpi_copy
.LVL715:
	li	s1,-16
	lh	s6,28(sp)
.LVL716:
.LM2108:
	bne	a0,zero,.L463
.LM2109:
.LM2110:
.LM2111:
	li	a5,-1
	bne	s6,a5,.L464
.LM2112:
	mv	s6,s7
.LVL717:
.L464:
.LM2113:
.LM2114:
.LBB365:
.LBI365:
.LM2115:
.LBB366:
.LM2116:
.LM2117:
.LM2118:
.LM2119:
.LM2120:
	add	s7,s0,s5
.LVL718:
.LM2121:
	mv	s8,s7
.LM2122:
	li	s9,9
.LVL719:
.L468:
.LM2123:
.LM2124:
.LM2125:
	sub	a5,s7,s8
.LVL720:
.LM2126:
	bleu	s5,a5,.L473
.LM2127:
.LM2128:
.LM2129:
	mv	a2,s2
	addi	a1,sp,24
.LVL721:
.LM2130:
	addi	a0,sp,20
	sh	s6,28(sp)
	call	mbedtls_mpi_mod_int
.LVL722:
.LM2131:
	mv	s1,a0
.LVL723:
.LM2132:
	bne	a0,zero,.L463
.LM2133:
.LM2134:
.LM2135:
.LM2136:
	addi	a2,sp,24
.LVL724:
.LM2137:
	mv	a3,s2
	li	a1,0
	mv	a0,a2
	call	mbedtls_mpi_div_int
.LVL725:
.LM2138:
	mv	s1,a0
.LVL726:
.LM2139:
	lh	s6,28(sp)
.LVL727:
.LM2140:
	bne	a0,zero,.L463
.LM2141:
.LM2142:
.LM2143:
	lw	a5,20(sp)
.LM2144:
	addi	s8,s8,-1
.LVL728:
.LM2145:
	addi	a4,a5,55
.LM2146:
	bgtu	a5,s9,.L467
.LM2147:
.LVL729:
.LM2148:
	addi	a4,a5,48
.LVL730:
.L467:
.LM2149:
	sb	a4,0(s8)
.LVL731:
.LM2150:
.LM2151:
.LM2152:
	li	a1,0
	addi	a0,sp,24
.LVL732:
.LM2153:
	call	mbedtls_mpi_cmp_int
.LVL733:
.LM2154:
	bne	a0,zero,.L468
.LM2155:
	sub	s7,s7,s8
.LVL734:
.LM2156:
	mv	a0,s0
	mv	a2,s7
	mv	a1,s8
	call	memmove
.LVL735:
.LM2157:
.LM2158:
	add	s0,s0,s7
.LVL736:
.LM2159:
	j	.L462
.LVL737:
.L473:
.LM2160:
	li	s1,-8
.LVL738:
.L463:
.LM2161:
.LBE366:
.LBE365:
.LM2162:
	addi	a0,sp,24
	sh	s6,28(sp)
	call	mbedtls_mpi_free
.LVL739:
.LM2163:
.LM2164:
	j	.L450
	.cfi_endproc
.LFE61:
	.size	mbedtls_mpi_write_string, .-mbedtls_mpi_write_string
	.section	.text.mpi_check_small_factors,"ax",@progbits
	.align	1
	.type	mpi_check_small_factors, @function
mpi_check_small_factors:
.LVL740:
.LFB96:
.LM2165:
	.cfi_startproc
.LM2166:
.LM2167:
.LM2168:
.LM2169:
.LM2170:
.LM2171:
	lw	a5,0(a0)
.LM2172:
	lw	a5,0(a5)
	andi	a5,a5,1
.LM2173:
	beq	a5,zero,.L488
.LM2174:
	addi	sp,sp,-64
	.cfi_def_cfa_offset 64
	sw	s1,52(sp)
	.cfi_offset 9, -12
.LM2175:
	lui	s1,%hi(small_prime_gaps)
.LM2176:
	sw	s0,56(sp)
	sw	s2,48(sp)
	sw	s3,44(sp)
	sw	ra,60(sp)
	.cfi_offset 8, -8
	.cfi_offset 18, -16
	.cfi_offset 19, -20
	.cfi_offset 1, -4
	li	a2,3
	li	s0,0
	mv	s3,a0
.LM2177:
	addi	s1,s1,%lo(small_prime_gaps)
.LM2178:
	li	s2,167
.LVL741:
.L478:
.LM2179:
.LM2180:
.LM2181:
	mv	a1,s3
	addi	a0,sp,28
	sw	a2,12(sp)
	call	mbedtls_mpi_mod_int
.LVL742:
.LM2182:
	bne	a0,zero,.L477
.LM2183:
.LM2184:
.LM2185:
	lw	a5,28(sp)
	lw	a2,12(sp)
	bne	a5,zero,.L480
.LM2186:
.LM2187:
	mv	a1,a2
	mv	a0,s3
.LVL743:
.LM2188:
	call	mbedtls_mpi_cmp_int
.LVL744:
	mv	a5,a0
.LM2189:
	li	a0,1
.LM2190:
	beq	a5,zero,.L477
.LM2191:
	li	a0,-14
.LVL745:
.L477:
.LM2192:
	lw	ra,60(sp)
	.cfi_remember_state
	.cfi_restore 1
	lw	s0,56(sp)
	.cfi_restore 8
.LVL746:
.LM2193:
	lw	s1,52(sp)
	.cfi_restore 9
	lw	s2,48(sp)
	.cfi_restore 18
	lw	s3,44(sp)
	.cfi_restore 19
.LVL747:
.LM2194:
	addi	sp,sp,64
	.cfi_def_cfa_offset 0
	jr	ra
.LVL748:
.L480:
	.cfi_restore_state
.LM2195:
.LM2196:
	add	a5,s0,s1
	lbu	a5,0(a5)
.LM2197:
	addi	s0,s0,1
.LVL749:
.LM2198:
	add	a2,a2,a5
.LVL750:
.LM2199:
	bne	s0,s2,.L478
	j	.L477
.LVL751:
.L488:
	.cfi_def_cfa_offset 0
	.cfi_restore 1
	.cfi_restore 8
	.cfi_restore 9
	.cfi_restore 18
	.cfi_restore 19
.LM2200:
	li	a0,-14
.LVL752:
.LM2201:
	ret
	.cfi_endproc
.LFE96:
	.size	mpi_check_small_factors, .-mpi_check_small_factors
	.section	.text.mbedtls_mpi_exp_mod,"ax",@progbits
	.align	1
	.globl	mbedtls_mpi_exp_mod
	.type	mbedtls_mpi_exp_mod, @function
mbedtls_mpi_exp_mod:
.LVL753:
.LFB86:
.LM2202:
	.cfi_startproc
.LM2203:
.LM2204:
	mv	a5,a4
.LM2205:
	mv	a4,a3
.LVL754:
.LM2206:
	li	a3,0
.LVL755:
.LM2207:
	tail	mbedtls_mpi_exp_mod_optionally_safe
.LVL756:
.LM2208:
	.cfi_endproc
.LFE86:
	.size	mbedtls_mpi_exp_mod, .-mbedtls_mpi_exp_mod
	.section	.text.mbedtls_mpi_exp_mod_unsafe,"ax",@progbits
	.align	1
	.globl	mbedtls_mpi_exp_mod_unsafe
	.type	mbedtls_mpi_exp_mod_unsafe, @function
mbedtls_mpi_exp_mod_unsafe:
.LVL757:
.LFB87:
.LM2209:
	.cfi_startproc
.LM2210:
.LM2211:
	mv	a5,a4
.LM2212:
	mv	a4,a3
.LVL758:
.LM2213:
	li	a3,707407872
.LVL759:
.LM2214:
	addi	a3,a3,-1494
	tail	mbedtls_mpi_exp_mod_optionally_safe
.LVL760:
.LM2215:
	.cfi_endproc
.LFE87:
	.size	mbedtls_mpi_exp_mod_unsafe, .-mbedtls_mpi_exp_mod_unsafe
	.section	.text.mbedtls_mpi_gcd_modinv_odd,"ax",@progbits
	.align	1
	.globl	mbedtls_mpi_gcd_modinv_odd
	.type	mbedtls_mpi_gcd_modinv_odd, @function
mbedtls_mpi_gcd_modinv_odd:
.LVL761:
.LFB88:
.LM2216:
	.cfi_startproc
.LM2217:
.LM2218:
.LM2219:
.LM2220:
.LM2221:
	addi	sp,sp,-48
	.cfi_def_cfa_offset 48
	sw	s2,32(sp)
	sw	s3,28(sp)
	sw	s5,20(sp)
	.cfi_offset 18, -16
	.cfi_offset 19, -20
	.cfi_offset 21, -28
	mv	s3,a0
	mv	s2,a1
.LM2222:
	snez	s5,a1
.LVL762:
.LM2223:
.LM2224:
	mv	a0,a2
.LVL763:
.LM2225:
	li	a1,0
.LVL764:
.LM2226:
	sw	s0,40(sp)
	sw	s4,24(sp)
	sw	ra,44(sp)
	sw	s1,36(sp)
	.cfi_offset 8, -8
	.cfi_offset 20, -24
	.cfi_offset 1, -4
	.cfi_offset 9, -12
.LM2227:
	mv	s4,a2
	mv	s0,a3
.LM2228:
	sw	zero,4(sp)
.LM2229:
.LM2230:
	call	mbedtls_mpi_cmp_int
.LVL765:
.LM2231:
	blt	a0,zero,.L518
.LM2232:
	mv	a1,s0
	mv	a0,s4
	call	mbedtls_mpi_cmp_mpi
.LVL766:
.LM2233:
	li	s1,-4
.LM2234:
	bgt	a0,zero,.L493
.LM2235:
	li	a1,0
	mv	a0,s0
	call	mbedtls_mpi_get_bit
.LVL767:
.LM2236:
	li	a5,1
.LM2237:
	mv	a1,a0
.LM2238:
	bne	a0,a5,.L493
	addi	s5,s5,4
.LVL768:
.LM2239:
	beq	s2,zero,.L496
.LM2240:
	mv	a0,s0
	call	mbedtls_mpi_cmp_int
.LVL769:
.LM2241:
	bne	a0,zero,.L535
.LVL770:
.L493:
.LM2242:
	lw	ra,44(sp)
	.cfi_remember_state
	.cfi_restore 1
	lw	s0,40(sp)
	.cfi_restore 8
.LVL771:
.LM2243:
	lw	s2,32(sp)
	.cfi_restore 18
.LVL772:
.LM2244:
	lw	s3,28(sp)
	.cfi_restore 19
.LVL773:
.LM2245:
	lw	s4,24(sp)
	.cfi_restore 20
.LVL774:
.LM2246:
	lw	s5,20(sp)
	.cfi_restore 21
	mv	a0,s1
	lw	s1,36(sp)
	.cfi_restore 9
	addi	sp,sp,48
	.cfi_def_cfa_offset 0
	jr	ra
.LVL775:
.L499:
	.cfi_restore_state
.LM2247:
.LM2248:
.LM2249:
	bne	s2,zero,.L501
.LVL776:
.L504:
.LM2250:
.LM2251:
.LM2252:
	lhu	a0,6(s0)
.LM2253:
	mv	a1,s5
	slli	a0,a0,2
	call	calloc
.LVL777:
	mv	s5,a0
.LVL778:
.LM2254:
.LM2255:
	beq	a0,zero,.L502
.LM2256:
.LM2257:
	li	a1,0
.LM2258:
	beq	s2,zero,.L505
.LM2259:
	lw	a1,0(s2)
.L505:
.LVL779:
.LM2260:
.LM2261:
	lw	a4,0(s4)
.LM2262:
	mv	a2,a4
.LM2263:
	bne	a4,zero,.L506
.LM2264:
	addi	a2,sp,4
.L506:
.LVL780:
.LM2265:
.LM2266:
	lhu	a5,6(s0)
.LM2267:
	lhu	a0,6(s4)
.LVL781:
.LM2268:
	mv	a3,a5
.LM2269:
	bgeu	a0,a5,.L507
.LM2270:
	li	a3,1
.LM2271:
	beq	a4,zero,.L507
.LM2272:
	mv	a3,a0
.L507:
.LVL782:
.LM2273:
	lw	a4,0(s0)
	lw	a0,0(s3)
	mv	a6,s5
	call	mbedtls_mpi_core_gcd_modinv_odd
.LVL783:
.LM2274:
.LM2275:
	li	a5,1
	sh	a5,4(s3)
.LM2276:
.LM2277:
	beq	s2,zero,.L508
.LM2278:
.LM2279:
	sh	a5,4(s2)
.L508:
.LM2280:
.LM2281:
	lhu	a2,6(s3)
.LM2282:
	lhu	a0,6(s0)
.LM2283:
	bleu	a2,a0,.L509
.LM2284:
.LM2285:
	lw	a5,0(s3)
.LM2286:
	sub	a2,a2,a0
.LM2287:
	slli	a0,a0,2
.LM2288:
	slli	a2,a2,2
	li	a1,0
	add	a0,a5,a0
	call	memset
.LVL784:
.L509:
.LM2289:
.LM2290:
	beq	s2,zero,.L500
.LM2291:
	lhu	a2,6(s2)
.LM2292:
	lhu	a0,6(s0)
.LM2293:
	bleu	a2,a0,.L500
.LM2294:
.LM2295:
	lw	a5,0(s2)
.LM2296:
	sub	a2,a2,a0
.LM2297:
	slli	a0,a0,2
.LM2298:
	slli	a2,a2,2
	li	a1,0
	add	a0,a5,a0
	call	memset
.LVL785:
	j	.L500
.LVL786:
.L501:
.LM2299:
.LM2300:
.LM2301:
	lhu	a1,6(s0)
	mv	a0,s2
	call	mbedtls_mpi_grow
.LVL787:
.LM2302:
	beq	a0,zero,.L504
	j	.L502
.LVL788:
.L518:
.LM2303:
	li	s1,-4
	j	.L493
.LVL789:
.L535:
.LM2304:
.LM2305:
	li	s1,-4
.LM2306:
	beq	s4,s0,.L493
.LM2307:
	beq	s0,s3,.L518
	beq	s2,s0,.L518
.L512:
.LM2308:
.LVL790:
.LBB367:
.LBI367:
.LM2309:
.LBB368:
.LM2310:
.LM2311:
.LM2312:
.LM2313:
	li	a5,1
.LM2314:
	sw	zero,8(sp)
.LM2315:
	sw	a5,12(sp)
.LVL791:
.LM2316:
.LBE368:
.LBE367:
.LM2317:
.LM2318:
	bne	s3,zero,.L498
.LM2319:
	addi	s3,sp,8
.LVL792:
.L498:
.LM2320:
.LM2321:
.LM2322:
	lhu	a1,6(s0)
	mv	a0,s3
	call	mbedtls_mpi_grow
.LVL793:
	mv	s1,a0
.LVL794:
.LM2323:
	beq	a0,zero,.L499
.LVL795:
.L502:
.LM2324:
	li	s5,0
.LM2325:
	li	s1,-16
.L500:
.LVL796:
.LM2326:
	addi	a0,sp,8
	call	mbedtls_mpi_free
.LVL797:
.LM2327:
	mv	a0,s5
	call	free
.LVL798:
.LM2328:
.LM2329:
	j	.L493
.LVL799:
.L496:
.LM2330:
.LM2331:
	li	s1,-4
.LM2332:
	bne	s4,s0,.L512
	j	.L493
	.cfi_endproc
.LFE88:
	.size	mbedtls_mpi_gcd_modinv_odd, .-mbedtls_mpi_gcd_modinv_odd
	.section	.text.mbedtls_mpi_gcd,"ax",@progbits
	.align	1
	.globl	mbedtls_mpi_gcd
	.type	mbedtls_mpi_gcd, @function
mbedtls_mpi_gcd:
.LVL800:
.LFB89:
.LM2333:
	.cfi_startproc
.LM2334:
.LM2335:
.LM2336:
.LM2337:
	addi	sp,sp,-80
	.cfi_def_cfa_offset 80
.LVL801:
.LBB369:
.LBI369:
.LM2338:
.LBB370:
.LM2339:
.LM2340:
.LM2341:
.LM2342:
.LBE370:
.LBE369:
.LM2343:
.LBB372:
.LBI372:
.LM2344:
.LBB373:
.LM2345:
.LBE373:
.LBE372:
.LM2346:
	sw	s5,52(sp)
	sw	s6,48(sp)
	.cfi_offset 21, -28
	.cfi_offset 22, -32
.LBB377:
.LBB374:
.LM2347:
	li	s5,1
.LBE374:
.LBE377:
.LM2348:
	mv	s6,a0
.LM2349:
	addi	a0,sp,16
.LVL802:
.LM2350:
	sw	s3,60(sp)
	sw	s4,56(sp)
	sw	ra,76(sp)
	sw	s0,72(sp)
	sw	s1,68(sp)
	sw	s2,64(sp)
	sw	s7,44(sp)
	.cfi_offset 19, -20
	.cfi_offset 20, -24
	.cfi_offset 1, -4
	.cfi_offset 8, -8
	.cfi_offset 9, -12
	.cfi_offset 18, -16
	.cfi_offset 23, -36
.LM2351:
	sw	a2,12(sp)
.LBB378:
.LBB375:
.LM2352:
	sh	s5,28(sp)
.LM2353:
.LVL803:
.LM2354:
.LM2355:
.LBE375:
.LBE378:
.LM2356:
.LM2357:
.LM2358:
	sw	zero,16(sp)
.LBB379:
.LBB371:
.LM2359:
	sw	s5,20(sp)
.LBE371:
.LBE379:
.LM2360:
	call	mbedtls_mpi_copy
.LVL804:
.LM2361:
	lw	s4,16(sp)
.LVL805:
.LM2362:
	lhu	s3,22(sp)
.LVL806:
.LM2363:
	bne	a0,zero,.L547
.LM2364:
.LM2365:
.LM2366:
.LM2367:
	lw	a1,12(sp)
	addi	a0,sp,24
.LVL807:
.LM2368:
	sw	zero,24(sp)
	sh	zero,30(sp)
	call	mbedtls_mpi_copy
.LVL808:
.LM2369:
	li	s0,-16
.LM2370:
	lw	s2,24(sp)
.LVL809:
.LM2371:
	lhu	s1,30(sp)
.LVL810:
.LM2372:
	bne	a0,zero,.L540
.LM2373:
.LM2374:
.LM2375:
	sh	s5,28(sp)
.LM2376:
	sh	s5,20(sp)
.LM2377:
.LM2378:
.LM2379:
	mv	a1,s1
	bne	s1,zero,.L541
	mv	a1,s5
.L541:
.LM2380:
	slli	a1,a1,16
	srli	a1,a1,16
	addi	a0,sp,16
.LVL811:
.LM2381:
	call	mbedtls_mpi_grow
.LVL812:
.LM2382:
	li	s0,-16
.LM2383:
	lw	s4,16(sp)
.LVL813:
.LM2384:
	lhu	s3,22(sp)
.LVL814:
.LM2385:
	bne	a0,zero,.L540
.LM2386:
.LM2387:
.LM2388:
.LM2389:
	mv	a1,s3
	addi	a0,sp,24
.LVL815:
.LM2390:
	call	mbedtls_mpi_grow
.LVL816:
	mv	s0,a0
	lw	s2,24(sp)
.LVL817:
.LM2391:
	lhu	s1,30(sp)
.LVL818:
.LM2392:
	bne	a0,zero,.L556
.LM2393:
.LM2394:
.LM2395:
	mv	a1,s3
	mv	a0,s4
	call	mbedtls_mpi_core_check_zero_ct
.LVL819:
.LBB380:
.LBI380:
.LM2396:
.LBB381:
.LM2397:
	mv	a5,s0
.LVL820:
.LM2398:
.LBE381:
.LBE380:
.LM2399:
	addi	a1,sp,24
.LM2400:
	beq	a0,a5,.L555
.LM2401:
.LM2402:
	mv	a1,s1
	mv	a0,s2
	call	mbedtls_mpi_core_check_zero_ct
.LVL821:
.LBB382:
.LBI382:
.LM2403:
.LBB383:
.LM2404:
.LVL822:
.LM2405:
.LBE383:
.LBE382:
.LM2406:
	bne	a0,s0,.L545
.LM2407:
.LM2408:
.LM2409:
	addi	a1,sp,16
.L555:
	mv	a0,s6
	call	mbedtls_mpi_copy
.LVL823:
.L554:
.LM2410:
	li	s0,0
.LM2411:
	beq	a0,zero,.L540
.LVL824:
.L556:
.LM2412:
	li	s0,-16
.L540:
.LVL825:
.LM2413:
.LM2414:
	addi	a0,sp,16
	sw	s4,16(sp)
	sh	s3,22(sp)
	call	mbedtls_mpi_free
.LVL826:
.LM2415:
	addi	a0,sp,24
	sw	s2,24(sp)
	sh	s1,30(sp)
	call	mbedtls_mpi_free
.LVL827:
.LM2416:
.LM2417:
	lw	ra,76(sp)
	.cfi_remember_state
	.cfi_restore 1
	mv	a0,s0
	lw	s0,72(sp)
	.cfi_restore 8
.LVL828:
.LM2418:
	lw	s1,68(sp)
	.cfi_restore 9
	lw	s2,64(sp)
	.cfi_restore 18
	lw	s3,60(sp)
	.cfi_restore 19
	lw	s4,56(sp)
	.cfi_restore 20
	lw	s5,52(sp)
	.cfi_restore 21
	lw	s6,48(sp)
	.cfi_restore 22
.LVL829:
.LM2419:
	lw	s7,44(sp)
	.cfi_restore 23
	addi	sp,sp,80
	.cfi_def_cfa_offset 0
.LVL830:
.LM2420:
	jr	ra
.LVL831:
.L545:
	.cfi_restore_state
.LM2421:
.LM2422:
	addi	a0,sp,16
	call	mbedtls_mpi_lsb
.LVL832:
	mv	s7,a0
.LVL833:
.LM2423:
.LM2424:
	addi	a0,sp,24
.LVL834:
.LM2425:
	call	mbedtls_mpi_lsb
.LVL835:
	mv	s5,a0
.LVL836:
.LM2426:
.LM2427:
.LM2428:
	mv	a1,s7
	addi	a0,sp,16
.LVL837:
.LM2429:
	call	mbedtls_mpi_shift_r
.LVL838:
.LM2430:
.LM2431:
.LM2432:
.LM2433:
	mv	a1,s5
	addi	a0,sp,24
	call	mbedtls_mpi_shift_r
.LVL839:
.LM2434:
.LM2435:
.LM2436:
	mv	a2,s3
	mv	a1,s4
	mv	a0,s2
	call	mbedtls_mpi_core_lt_ct
.LVL840:
	mv	a3,a0
.LVL841:
.LM2437:
	mv	a2,s3
	mv	a1,s2
	mv	a0,s4
.LVL842:
.LM2438:
	call	mbedtls_mpi_core_cond_swap
.LVL843:
.LM2439:
.LM2440:
.LM2441:
	addi	a3,sp,24
	addi	a2,sp,16
	li	a1,0
	mv	a0,s6
	call	mbedtls_mpi_gcd_modinv_odd
.LVL844:
	mv	s0,a0
.LVL845:
.LM2442:
	bne	a0,zero,.L540
.LM2443:
.LM2444:
.LVL846:
.LM2445:
.LM2446:
.LM2447:
	mv	a1,s7
	bleu	s7,s5,.L546
	mv	a1,s5
.L546:
.LM2448:
	mv	a0,s6
	call	mbedtls_mpi_shift_l
.LVL847:
	j	.L554
.LVL848:
.L547:
.LBB384:
.LBB376:
.LM2449:
	li	s1,0
.LM2450:
	li	s2,0
	j	.L556
.LBE376:
.LBE384:
	.cfi_endproc
.LFE89:
	.size	mbedtls_mpi_gcd, .-mbedtls_mpi_gcd
	.section	.text.mbedtls_mpi_fill_random,"ax",@progbits
	.align	1
	.globl	mbedtls_mpi_fill_random
	.type	mbedtls_mpi_fill_random, @function
mbedtls_mpi_fill_random:
.LVL849:
.LFB90:
.LM2451:
	.cfi_startproc
.LM2452:
.LM2453:
.LM2454:
.LM2455:
.LM2456:
	addi	sp,sp,-32
	.cfi_def_cfa_offset 32
.LM2457:
	andi	a5,a1,3
.LM2458:
	sw	s0,24(sp)
.LM2459:
	snez	a5,a5
	.cfi_offset 8, -8
.LM2460:
	mv	s0,a1
.LM2461:
	srli	a1,a1,2
.LVL850:
.LM2462:
	add	a1,a5,a1
.LM2463:
	sw	s1,20(sp)
	sw	ra,28(sp)
	.cfi_offset 9, -12
	.cfi_offset 1, -4
.LM2464:
	mv	s1,a0
	sw	a2,12(sp)
	sw	a3,8(sp)
.LM2465:
	call	mbedtls_mpi_resize_clear
.LVL851:
.LM2466:
	bne	a0,zero,.L559
.LM2467:
.LM2468:
.LM2469:
	beq	s0,zero,.L557
.LVL852:
.LBB387:
.LBI387:
.LM2470:
.LBB388:
.LM2471:
.LM2472:
	mv	a2,s0
.LBE388:
.LBE387:
.LM2473:
	lw	s0,24(sp)
	.cfi_remember_state
	.cfi_restore 8
.LVL853:
.LBB391:
.LBB389:
.LM2474:
	lw	a4,8(sp)
	lw	a3,12(sp)
	lhu	a1,6(s1)
	lw	a0,0(s1)
.LVL854:
.LM2475:
.LBE389:
.LBE391:
.LM2476:
	lw	ra,28(sp)
	.cfi_restore 1
	lw	s1,20(sp)
	.cfi_restore 9
.LVL855:
.LM2477:
	addi	sp,sp,32
	.cfi_def_cfa_offset 0
.LVL856:
.LBB392:
.LBB390:
.LM2478:
	tail	mbedtls_mpi_core_fill_random
.LVL857:
.L559:
	.cfi_restore_state
.LM2479:
.LBE390:
.LBE392:
.LM2480:
	li	a0,-16
.LVL858:
.L557:
.LM2481:
	lw	ra,28(sp)
	.cfi_restore 1
	lw	s0,24(sp)
	.cfi_restore 8
.LVL859:
.LM2482:
	lw	s1,20(sp)
	.cfi_restore 9
.LVL860:
.LM2483:
	addi	sp,sp,32
	.cfi_def_cfa_offset 0
.LVL861:
.LM2484:
	jr	ra
	.cfi_endproc
.LFE90:
	.size	mbedtls_mpi_fill_random, .-mbedtls_mpi_fill_random
	.section	.text.mpi_miller_rabin,"ax",@progbits
	.align	1
	.type	mpi_miller_rabin, @function
mpi_miller_rabin:
.LVL862:
.LFB97:
.LM2485:
	.cfi_startproc
.LM2486:
.LM2487:
.LM2488:
.LM2489:
.LM2490:
	addi	sp,sp,-112
	.cfi_def_cfa_offset 112
.LVL863:
.LBB393:
.LBI393:
.LM2491:
.LBB394:
.LM2492:
.LM2493:
.LM2494:
.LBE394:
.LBE393:
.LM2495:
	sw	s7,76(sp)
	sw	s9,68(sp)
	sw	s10,64(sp)
	.cfi_offset 23, -36
	.cfi_offset 25, -44
	.cfi_offset 26, -48
	mv	s7,a0
	mv	s9,a1
	mv	s10,a2
.LM2496:
	mv	a1,a0
.LVL864:
.LBB397:
.LBB395:
.LM2497:
	li	a2,1
.LVL865:
.LM2498:
.LBE395:
.LBE397:
.LM2499:
	addi	a0,sp,8
.LVL866:
.LM2500:
	sw	s11,60(sp)
	sw	ra,108(sp)
	sw	s0,104(sp)
	sw	s1,100(sp)
	sw	s2,96(sp)
	sw	s3,92(sp)
	sw	s4,88(sp)
	sw	s5,84(sp)
	sw	s6,80(sp)
	sw	s8,72(sp)
	.cfi_offset 27, -52
	.cfi_offset 1, -4
	.cfi_offset 8, -8
	.cfi_offset 9, -12
	.cfi_offset 18, -16
	.cfi_offset 19, -20
	.cfi_offset 20, -24
	.cfi_offset 21, -28
	.cfi_offset 22, -32
	.cfi_offset 24, -40
.LM2501:
	mv	s11,a3
.LBB398:
.LBB396:
.LM2502:
	sw	zero,8(sp)
.LM2503:
	sw	a2,12(sp)
.LVL867:
.LM2504:
.LBE396:
.LBE398:
.LM2505:
.LBB399:
.LBI399:
.LM2506:
.LBB400:
.LM2507:
.LM2508:
.LM2509:
.LM2510:
	sw	zero,16(sp)
.LM2511:
	sw	a2,20(sp)
.LVL868:
.LM2512:
.LBE400:
.LBE399:
.LM2513:
.LBB401:
.LBI401:
.LM2514:
.LBB402:
.LM2515:
.LM2516:
.LM2517:
.LM2518:
	sw	zero,24(sp)
.LM2519:
	sw	a2,28(sp)
.LVL869:
.LM2520:
.LBE402:
.LBE401:
.LM2521:
.LBB403:
.LBI403:
.LM2522:
.LBB404:
.LM2523:
.LM2524:
	sh	a2,36(sp)
.LM2525:
.LVL870:
.LM2526:
.LM2527:
.LBE404:
.LBE403:
.LM2528:
.LBB407:
.LBI407:
.LM2529:
.LBB408:
.LM2530:
.LM2531:
.LM2532:
.LM2533:
	sw	zero,40(sp)
.LM2534:
	sw	a2,44(sp)
.LVL871:
.LM2535:
.LBE408:
.LBE407:
.LM2536:
.LM2537:
.LM2538:
	call	mbedtls_mpi_sub_int
.LVL872:
.LM2539:
	bne	a0,zero,.L574
.LM2540:
.LM2541:
.LM2542:
	addi	a0,sp,8
.LVL873:
.LM2543:
	call	mbedtls_mpi_lsb
.LVL874:
	mv	s8,a0
.LVL875:
.LM2544:
.LM2545:
.LM2546:
	addi	a1,sp,8
	addi	a0,sp,16
.LVL876:
.LM2547:
	call	mbedtls_mpi_copy
.LVL877:
.LM2548:
	bne	a0,zero,.L575
.LM2549:
.LM2550:
.LM2551:
.LM2552:
	mv	a1,s8
	addi	a0,sp,16
.LVL878:
.LM2553:
	li	s3,1073741824
.LM2554:
	call	mbedtls_mpi_shift_r
.LVL879:
.LBB409:
.LBB405:
.LM2555:
	li	s1,0
.LM2556:
	li	s6,0
.LBE405:
.LBE409:
.LM2557:
	li	s2,0
.LM2558:
	addi	s3,s3,-1
.LM2559:
	li	s4,-1
.LVL880:
.L566:
.LM2560:
	bne	s2,s9,.L580
.LM2561:
	li	s0,0
.LVL881:
.L565:
.LM2562:
	addi	a0,sp,8
	call	mbedtls_mpi_free
.LVL882:
.LM2563:
	addi	a0,sp,16
	call	mbedtls_mpi_free
.LVL883:
.LM2564:
	addi	a0,sp,24
	call	mbedtls_mpi_free
.LVL884:
.LM2565:
	addi	a0,sp,32
	sw	s6,32(sp)
	sh	s1,38(sp)
	call	mbedtls_mpi_free
.LVL885:
.LM2566:
	addi	a0,sp,40
	call	mbedtls_mpi_free
.LVL886:
.LM2567:
.LM2568:
	lw	ra,108(sp)
	.cfi_remember_state
	.cfi_restore 1
	mv	a0,s0
	lw	s0,104(sp)
	.cfi_restore 8
.LVL887:
.LM2569:
	lw	s1,100(sp)
	.cfi_restore 9
	lw	s2,96(sp)
	.cfi_restore 18
	lw	s3,92(sp)
	.cfi_restore 19
	lw	s4,88(sp)
	.cfi_restore 20
	lw	s5,84(sp)
	.cfi_restore 21
	lw	s6,80(sp)
	.cfi_restore 22
	lw	s7,76(sp)
	.cfi_restore 23
.LVL888:
.LM2570:
	lw	s8,72(sp)
	.cfi_restore 24
	lw	s9,68(sp)
	.cfi_restore 25
.LVL889:
.LM2571:
	lw	s10,64(sp)
	.cfi_restore 26
.LVL890:
.LM2572:
	lw	s11,60(sp)
	.cfi_restore 27
.LVL891:
.LM2573:
	addi	sp,sp,112
	.cfi_def_cfa_offset 0
	jr	ra
.LVL892:
.L580:
	.cfi_restore_state
.LM2574:
	li	s5,32
.LVL893:
.L587:
.LM2575:
.LM2576:
.LM2577:
.LM2578:
	lhu	a1,6(s7)
.LM2579:
	mv	a3,s11
	mv	a2,s10
	slli	a1,a1,2
	addi	a0,sp,32
	sw	s6,32(sp)
	sh	s1,38(sp)
	call	mbedtls_mpi_fill_random
.LVL894:
	mv	s0,a0
	lw	s6,32(sp)
.LVL895:
.LM2580:
	lhu	s1,38(sp)
.LVL896:
.LM2581:
	bne	a0,zero,.L565
.LM2582:
.LM2583:
.LM2584:
	addi	a0,sp,32
	call	mbedtls_mpi_bitlen
.LVL897:
	mv	s0,a0
.LVL898:
.LM2585:
.LM2586:
	addi	a0,sp,8
	call	mbedtls_mpi_bitlen
.LVL899:
.LM2587:
.LM2588:
	bleu	s0,a0,.L567
.LM2589:
.LM2590:
	add	a5,s1,s3
.LM2591:
	addi	a4,s1,-1
.LM2592:
	slli	a4,a4,5
.LM2593:
	slli	a5,a5,2
	add	a5,s6,a5
.LM2594:
	sub	a0,a0,a4
.LVL900:
.LM2595:
	addi	a0,a0,-1
.LM2596:
	lw	a4,0(a5)
	sll	a0,s4,a0
	not	a0,a0
	and	a4,a4,a0
	sw	a4,0(a5)
.L567:
.LM2597:
.LVL901:
.LM2598:
	addi	s5,s5,-1
.LVL902:
.LM2599:
	beq	s5,zero,.L579
.LM2600:
.LM2601:
	addi	a1,sp,8
	addi	a0,sp,32
	call	mbedtls_mpi_cmp_mpi
.LVL903:
.LM2602:
	bge	a0,zero,.L587
.LM2603:
	li	a1,1
	addi	a0,sp,32
	call	mbedtls_mpi_cmp_int
.LVL904:
.LM2604:
	ble	a0,zero,.L587
.LM2605:
.LM2606:
.LM2607:
	addi	a1,sp,32
	addi	a4,sp,40
	mv	a3,s7
	addi	a2,sp,16
	mv	a0,a1
	call	mbedtls_mpi_exp_mod
.LVL905:
	mv	s0,a0
.LVL906:
.LM2608:
	lw	s6,32(sp)
.LVL907:
.LM2609:
	lhu	s1,38(sp)
.LVL908:
.LM2610:
	bne	a0,zero,.L565
.LM2611:
.LM2612:
.LM2613:
	addi	a1,sp,8
	addi	a0,sp,32
	call	mbedtls_mpi_cmp_mpi
.LVL909:
.LM2614:
	beq	a0,zero,.L569
.LM2615:
	li	a1,1
	addi	a0,sp,32
	call	mbedtls_mpi_cmp_int
.LVL910:
.LM2616:
	li	s5,1
.LVL911:
.LM2617:
	bne	a0,zero,.L570
.LVL912:
.L569:
.LM2618:
	addi	s2,s2,1
.LVL913:
.LM2619:
	j	.L566
.LVL914:
.L573:
.LM2620:
.LM2621:
.LM2622:
	addi	a2,sp,32
	mv	a1,a2
	addi	a0,sp,24
	call	mbedtls_mpi_mul_mpi
.LVL915:
.LM2623:
	bne	a0,zero,.L577
.LM2624:
.LM2625:
.LM2626:
.LM2627:
	mv	a2,s7
	addi	a1,sp,24
	addi	a0,sp,32
.LVL916:
.LM2628:
	call	mbedtls_mpi_mod_mpi
.LVL917:
	mv	s0,a0
	lw	s6,32(sp)
.LVL918:
.LM2629:
	lhu	s1,38(sp)
.LVL919:
.LM2630:
	bne	a0,zero,.L565
.LM2631:
.LM2632:
.LM2633:
	li	a1,1
	addi	a0,sp,32
	call	mbedtls_mpi_cmp_int
.LVL920:
.LM2634:
	beq	a0,zero,.L571
.LM2635:
.LM2636:
	addi	s5,s5,1
.LVL921:
.L570:
.LM2637:
	bgeu	s5,s8,.L571
.LM2638:
	addi	a1,sp,8
	addi	a0,sp,32
	sw	s6,32(sp)
	sh	s1,38(sp)
	call	mbedtls_mpi_cmp_mpi
.LVL922:
.LM2639:
	bne	a0,zero,.L573
.LVL923:
.L571:
.LM2640:
.LM2641:
	addi	a1,sp,8
	addi	a0,sp,32
	sw	s6,32(sp)
	sh	s1,38(sp)
	call	mbedtls_mpi_cmp_mpi
.LVL924:
.LM2642:
	bne	a0,zero,.L579
.LM2643:
	li	a1,1
	addi	a0,sp,32
	call	mbedtls_mpi_cmp_int
.LVL925:
.LM2644:
	bne	a0,zero,.L569
.LVL926:
.L579:
.LM2645:
	li	s0,-14
	j	.L565
.LVL927:
.L574:
.LM2646:
	mv	s0,a0
.LBB410:
.LBB406:
.LM2647:
	li	s1,0
.LM2648:
	li	s6,0
	j	.L565
.LVL928:
.L575:
.LM2649:
	li	s1,0
.LM2650:
	li	s6,0
.LVL929:
.L577:
.LM2651:
.LBE406:
.LBE410:
.LM2652:
	li	s0,-16
	j	.L565
	.cfi_endproc
.LFE97:
	.size	mpi_miller_rabin, .-mpi_miller_rabin
	.section	.text.mbedtls_mpi_random,"ax",@progbits
	.align	1
	.globl	mbedtls_mpi_random
	.type	mbedtls_mpi_random, @function
mbedtls_mpi_random:
.LVL930:
.LFB91:
.LM2653:
	.cfi_startproc
.LM2654:
.LM2655:
	blt	a1,zero,.L594
.LM2656:
	addi	sp,sp,-32
	.cfi_def_cfa_offset 32
	sw	s0,24(sp)
	.cfi_offset 8, -8
	mv	s0,a0
.LM2657:
.LM2658:
	mv	a0,a2
.LVL931:
.LM2659:
	sw	s1,20(sp)
	sw	s2,16(sp)
	sw	s3,12(sp)
	sw	s4,8(sp)
	sw	ra,28(sp)
	.cfi_offset 9, -12
	.cfi_offset 18, -16
	.cfi_offset 19, -20
	.cfi_offset 20, -24
	.cfi_offset 1, -4
	mv	s4,a4
	mv	s3,a3
	mv	s1,a2
	mv	s2,a1
.LM2660:
	call	mbedtls_mpi_cmp_int
.LVL932:
.LM2661:
	ble	a0,zero,.L595
.LM2662:
.LM2663:
	lhu	a1,6(s1)
	mv	a0,s0
	call	mbedtls_mpi_resize_clear
.LVL933:
.LM2664:
.LM2665:
	bne	a0,zero,.L596
.LM2666:
.LM2667:
	lhu	a3,6(s0)
	lw	a0,0(s0)
.LVL934:
.LM2668:
	lw	s0,24(sp)
	.cfi_restore 8
.LVL935:
.LM2669:
	lw	a2,0(s1)
.LM2670:
	lw	ra,28(sp)
	.cfi_restore 1
	lw	s1,20(sp)
	.cfi_restore 9
.LVL936:
.LM2671:
	mv	a5,s4
	mv	a4,s3
.LM2672:
	lw	s4,8(sp)
	.cfi_restore 20
.LVL937:
.LM2673:
	lw	s3,12(sp)
	.cfi_restore 19
.LVL938:
.LM2674:
	mv	a1,s2
.LM2675:
	lw	s2,16(sp)
	.cfi_restore 18
.LVL939:
.LM2676:
	addi	sp,sp,32
	.cfi_def_cfa_offset 0
.LM2677:
	tail	mbedtls_mpi_core_random
.LVL940:
.L594:
.LM2678:
	li	a0,-4
.LVL941:
.LM2679:
	ret
.LVL942:
.L595:
	.cfi_def_cfa_offset 32
	.cfi_offset 1, -4
	.cfi_offset 8, -8
	.cfi_offset 9, -12
	.cfi_offset 18, -16
	.cfi_offset 19, -20
	.cfi_offset 20, -24
.LM2680:
	li	a0,-4
.L592:
.LM2681:
	lw	ra,28(sp)
	.cfi_remember_state
	.cfi_restore 1
	lw	s0,24(sp)
	.cfi_restore 8
.LVL943:
.LM2682:
	lw	s1,20(sp)
	.cfi_restore 9
.LVL944:
.LM2683:
	lw	s2,16(sp)
	.cfi_restore 18
.LVL945:
.LM2684:
	lw	s3,12(sp)
	.cfi_restore 19
.LVL946:
.LM2685:
	lw	s4,8(sp)
	.cfi_restore 20
.LVL947:
.LM2686:
	addi	sp,sp,32
	.cfi_def_cfa_offset 0
	jr	ra
.LVL948:
.L596:
	.cfi_restore_state
.LM2687:
	li	a0,-16
.LVL949:
.LM2688:
	j	.L592
	.cfi_endproc
.LFE91:
	.size	mbedtls_mpi_random, .-mbedtls_mpi_random
	.section	.text.mbedtls_mpi_inv_mod_odd,"ax",@progbits
	.align	1
	.globl	mbedtls_mpi_inv_mod_odd
	.type	mbedtls_mpi_inv_mod_odd, @function
mbedtls_mpi_inv_mod_odd:
.LVL950:
.LFB92:
.LM2689:
	.cfi_startproc
.LM2690:
.LM2691:
.LM2692:
.LM2693:
	addi	sp,sp,-48
	.cfi_def_cfa_offset 48
.LVL951:
.LBB411:
.LBI411:
.LM2694:
.LBB412:
.LM2695:
.LM2696:
.LM2697:
.LBE412:
.LBE411:
.LM2698:
	sw	s1,36(sp)
	sw	s2,32(sp)
	.cfi_offset 9, -12
	.cfi_offset 18, -16
.LBB415:
.LBB413:
.LM2699:
	li	s1,1
.LBE413:
.LBE415:
.LM2700:
	mv	s2,a0
.LM2701:
	addi	a0,sp,16
.LVL952:
.LM2702:
	sw	s0,40(sp)
	sw	ra,44(sp)
	.cfi_offset 8, -8
	.cfi_offset 1, -4
.LM2703:
	sw	a2,12(sp)
.LBB416:
.LBB414:
.LM2704:
	sw	zero,16(sp)
.LM2705:
	sw	s1,20(sp)
.LVL953:
.LM2706:
.LBE414:
.LBE416:
.LM2707:
.LBB417:
.LBI417:
.LM2708:
.LBB418:
.LM2709:
.LM2710:
.LM2711:
.LM2712:
	sw	zero,24(sp)
.LM2713:
	sw	s1,28(sp)
.LVL954:
.LM2714:
.LBE418:
.LBE417:
.LM2715:
.LM2716:
.LM2717:
	call	mbedtls_mpi_mod_mpi
.LVL955:
.LM2718:
	mv	s0,a0
.LVL956:
.LM2719:
	bne	a0,zero,.L602
.LM2720:
.LM2721:
.LM2722:
.LM2723:
	lw	a3,12(sp)
	addi	a2,sp,16
	mv	a1,a2
	addi	a0,sp,24
	call	mbedtls_mpi_gcd_modinv_odd
.LVL957:
	mv	s0,a0
.LVL958:
.LM2724:
	bne	a0,zero,.L602
.LM2725:
.LM2726:
.LM2727:
	mv	a1,s1
	addi	a0,sp,24
	call	mbedtls_mpi_cmp_int
.LVL959:
.LM2728:
	li	s0,-14
.LVL960:
.LM2729:
	bne	a0,zero,.L602
.LM2730:
.LM2731:
.LM2732:
	addi	a1,sp,16
	mv	a0,s2
	call	mbedtls_mpi_copy
.LVL961:
	mv	s0,a0
.LVL962:
.LM2733:
	beq	a0,zero,.L602
.LM2734:
	li	s0,-16
.LVL963:
.L602:
.LM2735:
.LM2736:
	addi	a0,sp,16
	call	mbedtls_mpi_free
.LVL964:
.LM2737:
	addi	a0,sp,24
	call	mbedtls_mpi_free
.LVL965:
.LM2738:
.LM2739:
	lw	ra,44(sp)
	.cfi_restore 1
	mv	a0,s0
	lw	s0,40(sp)
	.cfi_restore 8
.LVL966:
.LM2740:
	lw	s1,36(sp)
	.cfi_restore 9
	lw	s2,32(sp)
	.cfi_restore 18
.LVL967:
.LM2741:
	addi	sp,sp,48
	.cfi_def_cfa_offset 0
.LVL968:
.LM2742:
	jr	ra
	.cfi_endproc
.LFE92:
	.size	mbedtls_mpi_inv_mod_odd, .-mbedtls_mpi_inv_mod_odd
	.section	.text.mbedtls_mpi_inv_mod_even_in_range,"ax",@progbits
	.align	1
	.globl	mbedtls_mpi_inv_mod_even_in_range
	.type	mbedtls_mpi_inv_mod_even_in_range, @function
mbedtls_mpi_inv_mod_even_in_range:
.LVL969:
.LFB93:
.LM2743:
	.cfi_startproc
.LM2744:
.LM2745:
.LM2746:
.LM2747:
	addi	sp,sp,-48
	.cfi_def_cfa_offset 48
.LVL970:
.LBB419:
.LBI419:
.LM2748:
.LBB420:
.LM2749:
.LM2750:
.LM2751:
.LBE420:
.LBE419:
.LM2752:
	sw	s3,28(sp)
	.cfi_offset 19, -20
	mv	s3,a2
	sw	s1,36(sp)
	sw	s2,32(sp)
	sw	s4,24(sp)
	.cfi_offset 9, -12
	.cfi_offset 18, -16
	.cfi_offset 20, -24
.LBB423:
.LBB421:
.LM2753:
	li	s1,1
.LBE421:
.LBE423:
.LM2754:
	mv	a2,a1
.LVL971:
.LM2755:
	mv	s4,a0
	mv	s2,a1
.LM2756:
	mv	a0,sp
.LVL972:
.LM2757:
	mv	a1,s3
.LVL973:
.LM2758:
	sw	s0,40(sp)
	sw	ra,44(sp)
	.cfi_offset 8, -8
	.cfi_offset 1, -4
.LBB424:
.LBB422:
.LM2759:
	sw	zero,0(sp)
.LM2760:
	sw	s1,4(sp)
.LVL974:
.LM2761:
.LBE422:
.LBE424:
.LM2762:
.LBB425:
.LBI425:
.LM2763:
.LBB426:
.LM2764:
.LM2765:
.LM2766:
.LM2767:
	sw	zero,8(sp)
.LM2768:
	sw	s1,12(sp)
.LVL975:
.LM2769:
.LBE426:
.LBE425:
.LM2770:
.LM2771:
.LM2772:
	call	mbedtls_mpi_mod_mpi
.LVL976:
.LM2773:
	mv	s0,a0
.LVL977:
.LM2774:
	bne	a0,zero,.L607
.LM2775:
.LM2776:
.LM2777:
.LM2778:
	mv	a3,s2
	mv	a2,sp
	mv	a1,sp
	addi	a0,sp,8
	call	mbedtls_mpi_gcd_modinv_odd
.LVL978:
	mv	s0,a0
.LVL979:
.LM2779:
	bne	a0,zero,.L607
.LM2780:
.LM2781:
.LM2782:
	mv	a1,s1
	addi	a0,sp,8
	call	mbedtls_mpi_cmp_int
.LVL980:
.LM2783:
	li	s0,-14
.LVL981:
.LM2784:
	bne	a0,zero,.L607
.LM2785:
.LM2786:
.LM2787:
	mv	a2,s3
	mv	a1,sp
	mv	a0,sp
	call	mbedtls_mpi_mul_mpi
.LVL982:
.LM2788:
	li	s0,-16
.LM2789:
	bne	a0,zero,.L607
.LM2790:
.LM2791:
.LM2792:
.LM2793:
	mv	a2,s1
	mv	a1,sp
	mv	a0,sp
.LVL983:
.LM2794:
	call	mbedtls_mpi_sub_int
.LVL984:
	mv	s0,a0
.LVL985:
.LM2795:
	bne	a0,zero,.L607
.LM2796:
.LM2797:
.LM2798:
.LM2799:
	mv	a3,s2
	mv	a2,sp
	li	a1,0
	addi	a0,sp,8
	call	mbedtls_mpi_div_mpi
.LVL986:
	mv	s0,a0
.LVL987:
.LM2800:
	bne	a0,zero,.L607
.LM2801:
.LM2802:
.LM2803:
.LM2804:
	addi	a2,sp,8
	mv	a1,s3
	mv	a0,s4
	call	mbedtls_mpi_sub_mpi
.LVL988:
	mv	s0,a0
.LVL989:
.L607:
.LM2805:
.LM2806:
	mv	a0,sp
	call	mbedtls_mpi_free
.LVL990:
.LM2807:
	addi	a0,sp,8
	call	mbedtls_mpi_free
.LVL991:
.LM2808:
.LM2809:
	lw	ra,44(sp)
	.cfi_restore 1
	mv	a0,s0
	lw	s0,40(sp)
	.cfi_restore 8
.LVL992:
.LM2810:
	lw	s1,36(sp)
	.cfi_restore 9
	lw	s2,32(sp)
	.cfi_restore 18
.LVL993:
.LM2811:
	lw	s3,28(sp)
	.cfi_restore 19
.LVL994:
.LM2812:
	lw	s4,24(sp)
	.cfi_restore 20
.LVL995:
.LM2813:
	addi	sp,sp,48
	.cfi_def_cfa_offset 0
	jr	ra
	.cfi_endproc
.LFE93:
	.size	mbedtls_mpi_inv_mod_even_in_range, .-mbedtls_mpi_inv_mod_even_in_range
	.section	.text.mbedtls_mpi_inv_mod,"ax",@progbits
	.align	1
	.globl	mbedtls_mpi_inv_mod
	.type	mbedtls_mpi_inv_mod, @function
mbedtls_mpi_inv_mod:
.LVL996:
.LFB95:
.LM2814:
	.cfi_startproc
.LM2815:
.LM2816:
	addi	sp,sp,-48
	.cfi_def_cfa_offset 48
	sw	s4,24(sp)
	sw	s5,20(sp)
	.cfi_offset 20, -24
	.cfi_offset 21, -28
	mv	s4,a0
	mv	s5,a1
.LM2817:
	mv	a0,a2
.LVL997:
.LM2818:
	li	a1,1
.LVL998:
.LM2819:
	sw	s3,28(sp)
	sw	ra,44(sp)
	sw	s0,40(sp)
	sw	s1,36(sp)
	sw	s2,32(sp)
	.cfi_offset 19, -20
	.cfi_offset 1, -4
	.cfi_offset 8, -8
	.cfi_offset 9, -12
	.cfi_offset 18, -16
.LM2820:
	mv	s3,a2
.LM2821:
	call	mbedtls_mpi_cmp_int
.LVL999:
.LM2822:
	ble	a0,zero,.L616
.LM2823:
.LM2824:
	li	a1,0
	mv	a0,s3
	call	mbedtls_mpi_get_bit
.LVL1000:
.LM2825:
	li	s2,1
	bne	a0,s2,.L613
.LM2826:
.LM2827:
	lw	s0,40(sp)
	.cfi_remember_state
	.cfi_restore 8
	lw	ra,44(sp)
	.cfi_restore 1
	lw	s1,36(sp)
	.cfi_restore 9
	lw	s2,32(sp)
	.cfi_restore 18
.LM2828:
	mv	a2,s3
	mv	a1,s5
.LM2829:
	lw	s3,28(sp)
	.cfi_restore 19
.LVL1001:
.LM2830:
	lw	s5,20(sp)
	.cfi_restore 21
.LVL1002:
.LM2831:
	mv	a0,s4
.LM2832:
	lw	s4,24(sp)
	.cfi_restore 20
.LVL1003:
.LM2833:
	addi	sp,sp,48
	.cfi_def_cfa_offset 0
.LM2834:
	tail	mbedtls_mpi_inv_mod_odd
.LVL1004:
.L613:
	.cfi_restore_state
.LM2835:
.LM2836:
	li	a1,0
	mv	a0,s5
	call	mbedtls_mpi_get_bit
.LVL1005:
	mv	s1,a0
.LM2837:
	li	s0,-14
.LM2838:
	bne	a0,s2,.L611
.LM2839:
.LVL1006:
.LBB431:
.LBI431:
.LM2840:
.LBB432:
.LM2841:
.LM2842:
.LM2843:
.LBB433:
.LBI433:
.LM2844:
.LBB434:
.LM2845:
.LM2846:
.LM2847:
.LM2848:
	sw	a0,12(sp)
.LVL1007:
.LM2849:
.LBE434:
.LBE433:
.LM2850:
.LM2851:
.LM2852:
	mv	a2,s3
	mv	a1,s5
	addi	a0,sp,8
.LBB436:
.LBB435:
.LM2853:
	sw	zero,8(sp)
.LBE435:
.LBE436:
.LM2854:
	call	mbedtls_mpi_mod_mpi
.LVL1008:
	mv	s0,a0
.LVL1009:
.LM2855:
	bne	a0,zero,.L614
.LM2856:
.LM2857:
.LM2858:
	mv	a1,s1
	addi	a0,sp,8
	call	mbedtls_mpi_cmp_int
.LVL1010:
.LM2859:
.LM2860:
	li	s0,-14
.LVL1011:
.LM2861:
	blt	a0,zero,.L614
.LM2862:
.LM2863:
	bne	a0,zero,.L615
.LM2864:
.LM2865:
.LM2866:
	mv	a1,s1
	mv	a0,s4
.LVL1012:
.LM2867:
	call	mbedtls_mpi_lset
.LVL1013:
	mv	s0,a0
.LVL1014:
.LM2868:
	beq	a0,zero,.L614
.LM2869:
	li	s0,-16
.LVL1015:
.L614:
.LM2870:
.LM2871:
	addi	a0,sp,8
	call	mbedtls_mpi_free
.LVL1016:
.LM2872:
.L611:
.LM2873:
.LBE432:
.LBE431:
.LM2874:
	lw	ra,44(sp)
	.cfi_remember_state
	.cfi_restore 1
	mv	a0,s0
	lw	s0,40(sp)
	.cfi_restore 8
	lw	s1,36(sp)
	.cfi_restore 9
	lw	s2,32(sp)
	.cfi_restore 18
	lw	s3,28(sp)
	.cfi_restore 19
.LVL1017:
.LM2875:
	lw	s4,24(sp)
	.cfi_restore 20
.LVL1018:
.LM2876:
	lw	s5,20(sp)
	.cfi_restore 21
.LVL1019:
.LM2877:
	addi	sp,sp,48
	.cfi_def_cfa_offset 0
	jr	ra
.LVL1020:
.L615:
	.cfi_restore_state
.LBB438:
.LBB437:
.LM2878:
.LM2879:
.LM2880:
	mv	a2,s3
	addi	a1,sp,8
	mv	a0,s4
.LVL1021:
.LM2881:
	call	mbedtls_mpi_inv_mod_even_in_range
.LVL1022:
	mv	s0,a0
	j	.L614
.LVL1023:
.L616:
.LM2882:
.LBE437:
.LBE438:
.LM2883:
	li	s0,-4
	j	.L611
	.cfi_endproc
.LFE95:
	.size	mbedtls_mpi_inv_mod, .-mbedtls_mpi_inv_mod
	.section	.text.mbedtls_mpi_is_prime_ext,"ax",@progbits
	.align	1
	.globl	mbedtls_mpi_is_prime_ext
	.type	mbedtls_mpi_is_prime_ext, @function
mbedtls_mpi_is_prime_ext:
.LVL1024:
.LFB98:
.LM2884:
	.cfi_startproc
.LM2885:
.LM2886:
.LM2887:
.LM2888:
	addi	sp,sp,-48
	.cfi_def_cfa_offset 48
	sw	s0,40(sp)
	sw	s1,36(sp)
	sw	s2,32(sp)
	sw	s3,28(sp)
	sw	ra,44(sp)
	.cfi_offset 8, -8
	.cfi_offset 9, -12
	.cfi_offset 18, -16
	.cfi_offset 19, -20
	.cfi_offset 1, -4
.LM2889:
	lhu	a5,6(a0)
.LM2890:
	mv	s1,a1
.LM2891:
	li	s0,1
.LM2892:
	sh	a5,14(sp)
.LM2893:
	lw	a5,0(a0)
.LM2894:
	li	a1,0
.LVL1025:
.LM2895:
	addi	a0,sp,8
.LVL1026:
.LM2896:
	mv	s2,a2
	mv	s3,a3
.LM2897:
	sh	s0,12(sp)
.LM2898:
.LM2899:
.LM2900:
	sw	a5,8(sp)
.LM2901:
.LM2902:
	call	mbedtls_mpi_cmp_int
.LVL1027:
.LM2903:
	beq	a0,zero,.L627
.LM2904:
	mv	a1,s0
	addi	a0,sp,8
	call	mbedtls_mpi_cmp_int
.LVL1028:
	mv	a5,a0
.LM2905:
	li	a0,-14
.LM2906:
	beq	a5,zero,.L623
.LM2907:
.LM2908:
	li	a1,2
	addi	a0,sp,8
	call	mbedtls_mpi_cmp_int
.LVL1029:
.LM2909:
	beq	a0,zero,.L623
.LM2910:
.LM2911:
	addi	a0,sp,8
	call	mpi_check_small_factors
.LVL1030:
.LM2912:
	beq	a0,zero,.L625
.LM2913:
.LM2914:
	slti	a5,a0,1
	neg	a5,a5
	and	a0,a0,a5
.LVL1031:
.L623:
.LM2915:
	lw	ra,44(sp)
	.cfi_remember_state
	.cfi_restore 1
	lw	s0,40(sp)
	.cfi_restore 8
	lw	s1,36(sp)
	.cfi_restore 9
.LVL1032:
.LM2916:
	lw	s2,32(sp)
	.cfi_restore 18
.LVL1033:
.LM2917:
	lw	s3,28(sp)
	.cfi_restore 19
.LVL1034:
.LM2918:
	addi	sp,sp,48
	.cfi_def_cfa_offset 0
	jr	ra
.LVL1035:
.L625:
	.cfi_restore_state
.LM2919:
.LM2920:
	mv	a3,s3
	mv	a2,s2
	mv	a1,s1
	addi	a0,sp,8
.LVL1036:
.LM2921:
	call	mpi_miller_rabin
.LVL1037:
	j	.L623
.LVL1038:
.L627:
.LM2922:
	li	a0,-14
	j	.L623
	.cfi_endproc
.LFE98:
	.size	mbedtls_mpi_is_prime_ext, .-mbedtls_mpi_is_prime_ext
	.section	.text.mbedtls_mpi_gen_prime,"ax",@progbits
	.align	1
	.globl	mbedtls_mpi_gen_prime
	.type	mbedtls_mpi_gen_prime, @function
mbedtls_mpi_gen_prime:
.LVL1039:
.LFB99:
.LM2923:
	.cfi_startproc
.LM2924:
.LM2925:
.LM2926:
.LM2927:
.LM2928:
.LM2929:
.LM2930:
	addi	sp,sp,-96
	.cfi_def_cfa_offset 96
.LM2931:
	li	a5,8192
.LM2932:
	sw	s9,52(sp)
	sw	ra,92(sp)
	sw	s0,88(sp)
	sw	s1,84(sp)
	sw	s2,80(sp)
	sw	s3,76(sp)
	sw	s4,72(sp)
	sw	s5,68(sp)
	sw	s6,64(sp)
	sw	s7,60(sp)
	sw	s8,56(sp)
	sw	s10,48(sp)
	sw	s11,44(sp)
	.cfi_offset 25, -44
	.cfi_offset 1, -4
	.cfi_offset 8, -8
	.cfi_offset 9, -12
	.cfi_offset 18, -16
	.cfi_offset 19, -20
	.cfi_offset 20, -24
	.cfi_offset 21, -28
	.cfi_offset 22, -32
	.cfi_offset 23, -36
	.cfi_offset 24, -40
	.cfi_offset 26, -48
	.cfi_offset 27, -52
.LM2933:
	addi	a6,a1,-3
.LM2934:
	addi	a5,a5,-3
.LM2935:
	li	s9,-4
.LM2936:
	bgtu	a6,a5,.L633
.LM2937:
.LVL1040:
.LBB439:
.LBI439:
.LM2938:
.LBB440:
.LM2939:
.LM2940:
.LM2941:
.LM2942:
	li	a5,1
.LBE440:
.LBE439:
.LM2943:
	andi	s3,a1,31
.LBB443:
.LBB441:
.LM2944:
	sw	a5,28(sp)
.LVL1041:
.LM2945:
.LBE441:
.LBE443:
.LM2946:
.LM2947:
	snez	s3,s3
.LM2948:
	srli	a5,a1,5
.LM2949:
	add	s3,s3,a5
.LVL1042:
.LM2950:
.LBB444:
.LBB442:
.LM2951:
	sw	zero,24(sp)
.LBE442:
.LBE444:
.LM2952:
	andi	a5,a2,2
.LM2953:
	bne	a5,zero,.L635
.LM2954:
.LM2955:
	li	a5,1299
.LM2956:
	li	s1,2
.LM2957:
	bgtu	a1,a5,.L636
.LM2958:
	li	a5,849
.LM2959:
	li	s1,3
.LM2960:
	bgtu	a1,a5,.L636
.LM2961:
	li	a5,649
.LM2962:
	li	s1,4
.LM2963:
	bgtu	a1,a5,.L636
.LM2964:
	li	a5,349
.LM2965:
	li	s1,8
.LM2966:
	bgtu	a1,a5,.L636
.LM2967:
	li	a5,249
.LM2968:
	li	s1,12
.LM2969:
	bgtu	a1,a5,.L636
.LM2970:
	li	a5,149
.LM2971:
	li	s1,27
.LM2972:
	bleu	a1,a5,.L636
.LM2973:
	li	s1,18
.L636:
.LM2974:
	slli	s6,s3,2
.LM2975:
	slli	s3,s3,5
.LVL1043:
.LM2976:
	sub	a5,s3,a1
.LM2977:
	li	s5,-1257967616
	mv	s11,a4
	mv	s10,a3
	mv	s0,a1
	mv	s2,a0
.LM2978:
	addi	s8,s6,-4
.LM2979:
	sw	a5,12(sp)
.LM2980:
	addi	s5,s5,819
.LM2981:
	andi	s4,a2,1
.LM2982:
	li	s7,-14
.LVL1044:
.L638:
.LM2983:
.LM2984:
.LM2985:
.LM2986:
	mv	a3,s11
	mv	a2,s10
	mv	a1,s6
	mv	a0,s2
	call	mbedtls_mpi_fill_random
.LVL1045:
	mv	s9,a0
.LVL1046:
.LM2987:
	bne	a0,zero,.L637
.LM2988:
.LM2989:
.LM2990:
	lw	a5,0(s2)
	add	a5,a5,s8
.LM2991:
	lw	a5,0(a5)
	bleu	a5,s5,.L638
.LM2992:
.LVL1047:
.LM2993:
.LM2994:
	bgeu	s0,s3,.L639
.LM2995:
.LM2996:
.LM2997:
	lw	a1,12(sp)
	mv	a0,s2
.LVL1048:
.LM2998:
	call	mbedtls_mpi_shift_r
.LVL1049:
.L639:
.LM2999:
.LM3000:
.LM3001:
	lw	a4,0(s2)
.LM3002:
	lw	a5,0(a4)
	ori	a5,a5,1
	sw	a5,0(a4)
.LM3003:
.LM3004:
	bne	s4,zero,.L640
.LM3005:
.LM3006:
	mv	a3,s11
	mv	a2,s10
	mv	a1,s1
	mv	a0,s2
	call	mbedtls_mpi_is_prime_ext
.LVL1050:
	mv	s9,a0
.LVL1051:
.LM3007:
.LM3008:
	beq	a0,s7,.L638
.LVL1052:
.L637:
.LM3009:
	addi	a0,sp,24
	call	mbedtls_mpi_free
.LVL1053:
.LM3010:
.L633:
.LM3011:
	lw	ra,92(sp)
	.cfi_remember_state
	.cfi_restore 1
	lw	s0,88(sp)
	.cfi_restore 8
	lw	s1,84(sp)
	.cfi_restore 9
	lw	s2,80(sp)
	.cfi_restore 18
	lw	s3,76(sp)
	.cfi_restore 19
	lw	s4,72(sp)
	.cfi_restore 20
	lw	s5,68(sp)
	.cfi_restore 21
	lw	s6,64(sp)
	.cfi_restore 22
	lw	s7,60(sp)
	.cfi_restore 23
	lw	s8,56(sp)
	.cfi_restore 24
	lw	s10,48(sp)
	.cfi_restore 26
	lw	s11,44(sp)
	.cfi_restore 27
	mv	a0,s9
	lw	s9,52(sp)
	.cfi_restore 25
	addi	sp,sp,96
	.cfi_def_cfa_offset 0
	jr	ra
.LVL1054:
.L635:
	.cfi_restore_state
.LM3012:
.LM3013:
	li	a5,1449
.LM3014:
	li	s1,4
.LM3015:
	bgtu	a1,a5,.L636
.LM3016:
	li	a5,1149
.LM3017:
	li	s1,5
.LM3018:
	bgtu	a1,a5,.L636
.LM3019:
	li	a5,999
.LM3020:
	li	s1,6
.LM3021:
	bgtu	a1,a5,.L636
.LM3022:
	li	a5,849
.LM3023:
	li	s1,7
.LM3024:
	bgtu	a1,a5,.L636
.LM3025:
	li	a5,749
.LM3026:
	li	s1,8
.LM3027:
	bgtu	a1,a5,.L636
.LM3028:
	li	a5,499
.LM3029:
	li	s1,13
.LM3030:
	bgtu	a1,a5,.L636
.LM3031:
	li	a5,249
.LM3032:
	li	s1,28
.LM3033:
	bgtu	a1,a5,.L636
.LM3034:
	li	a5,149
.LM3035:
	li	s1,51
.LM3036:
	bleu	a1,a5,.L636
.LM3037:
	li	s1,40
	j	.L636
.LVL1055:
.L640:
.LM3038:
.LM3039:
	lw	a4,0(s2)
.LM3040:
	li	a2,3
	mv	a1,s2
.LM3041:
	lw	a5,0(a4)
.LM3042:
	addi	a0,sp,20
.LM3043:
	ori	a5,a5,2
	sw	a5,0(a4)
.LM3044:
.LM3045:
.LM3046:
	call	mbedtls_mpi_mod_int
.LVL1056:
	mv	s9,a0
.LVL1057:
.LM3047:
	bne	a0,zero,.L637
.LM3048:
.LM3049:
.LM3050:
	lw	a5,20(sp)
.LM3051:
	bne	a5,zero,.L642
.LM3052:
.LM3053:
.LM3054:
	li	a2,8
.L671:
	mv	a1,s2
	mv	a0,s2
.LVL1058:
.LM3055:
	call	mbedtls_mpi_add_int
.LVL1059:
	mv	s9,a0
.LVL1060:
.LM3056:
	bne	a0,zero,.L637
.L644:
.LM3057:
.LM3058:
.LM3059:
.LM3060:
	mv	a1,s2
	addi	a0,sp,24
.LVL1061:
.LM3061:
	call	mbedtls_mpi_copy
.LVL1062:
.LM3062:
	li	s9,-16
.LM3063:
	bne	a0,zero,.L637
.LM3064:
.LM3065:
.LM3066:
.LM3067:
	li	a1,1
	addi	a0,sp,24
.LVL1063:
.LM3068:
	call	mbedtls_mpi_shift_r
.LVL1064:
.LM3069:
	li	s0,-14
.LVL1065:
.L646:
.LM3070:
.LM3071:
.LM3072:
.LM3073:
	mv	a0,s2
	call	mpi_check_small_factors
.LVL1066:
	mv	s9,a0
.LVL1067:
.LM3074:
	bne	a0,zero,.L645
.LM3075:
	addi	a0,sp,24
.LVL1068:
.LM3076:
	call	mpi_check_small_factors
.LVL1069:
	mv	s9,a0
.LVL1070:
.LM3077:
	bne	a0,zero,.L645
.LM3078:
	mv	a3,s11
	mv	a2,s10
	mv	a1,s1
	mv	a0,s2
.LVL1071:
.LM3079:
	call	mpi_miller_rabin
.LVL1072:
	mv	s9,a0
.LVL1073:
.LM3080:
	bne	a0,zero,.L645
.LM3081:
	mv	a3,s11
	mv	a2,s10
	mv	a1,s1
	addi	a0,sp,24
.LVL1074:
.LM3082:
	call	mpi_miller_rabin
.LVL1075:
	mv	s9,a0
.LVL1076:
.LM3083:
	beq	a0,zero,.L637
.L645:
.LM3084:
.LM3085:
	bne	s9,s0,.L637
.LM3086:
.LM3087:
.LM3088:
	li	a2,12
	mv	a1,s2
	mv	a0,s2
.LVL1077:
.LM3089:
	call	mbedtls_mpi_add_int
.LVL1078:
	mv	s9,a0
.LVL1079:
.LM3090:
	bne	a0,zero,.L637
.LM3091:
.LM3092:
.LM3093:
.LM3094:
	addi	a1,sp,24
	li	a2,6
	mv	a0,a1
.LVL1080:
.LM3095:
	call	mbedtls_mpi_add_int
.LVL1081:
	mv	s9,a0
.LVL1082:
.LM3096:
	beq	a0,zero,.L646
	j	.L637
.LVL1083:
.L642:
.LM3097:
.LM3098:
	li	a4,1
.LM3099:
	li	a2,4
.LM3100:
	bne	a5,a4,.L644
	j	.L671
	.cfi_endproc
.LFE99:
	.size	mbedtls_mpi_gen_prime, .-mbedtls_mpi_gen_prime
	.section	.rodata.mbedtls_mpi_self_test.str1.4,"aMS",@progbits,1
	.align	2
.LC1:
	.string	"EFE021C2645FD1DC586E69184AF4A31ED5F53E93B5F123FA41680867BA110131944FE7952E2517337780CB0DB80E61AAE7C8DDC6C5C6AADEB34EB38A2F40D5E6"
	.align	2
.LC2:
	.string	"B2E7EFD37075B9F03FF989C7C5051C2034D2A323810251127E7BF8625A4F49A5F3E27F4DA8BD59C47D6DAABA4C8127BD5B5C25763222FEFCCFC38B832366C29E"
	.align	2
.LC3:
	.string	"0066A198186C18C10B2F5ED9B522752A9830B69916E535C8F047518A889A43A594B6BED27A168D31D4A52F88925AA8F5"
	.align	2
.LC4:
	.string	"602AB7ECA597A3D6B56FF9829A5E8B859E857EA95A03512E2BAE7391688D264AA5663B0341DB9CCFD2C4C5F421FEC8148001B72E848A38CAE1C65F78E56ABDEFE12D3C039B8A02D6BE593F0BBBDA56F1ECF677152EF804370C1A305CAF3B5BF130879B56C61DE584A0F53A2447A51E"
	.align	2
.LC5:
	.string	"  MPI test #1 (mul_mpi): "
	.align	2
.LC6:
	.string	"failed\n"
	.align	2
.LC7:
	.string	"passed\n"
	.align	2
.LC8:
	.string	"256567336059E52CAE22925474705F39A94"
	.align	2
.LC9:
	.string	"6613F26162223DF488E9CD48CC132C7A0AC93C701B001B092E4E5B9F73BCD27B9EE50D0657C77F374E903CDFA4C642"
	.align	2
.LC10:
	.string	"  MPI test #2 (div_mpi): "
	.align	2
.LC11:
	.string	"36E139AEA55215609D2816998ED020BBBD96C37890F65171D948E9BC7CBAA4D9325D24D6A3C12710F10A09FA08AB87"
	.align	2
.LC12:
	.string	"  MPI test #3 (exp_mod): "
	.align	2
.LC13:
	.string	"003A0AAEDD7E784FC07D8F9EC6E3BFD5C3DBA76456363A10869622EAC2DD84ECC5B8A74DAC4D09E03B5E0BE779F2DF61"
	.align	2
.LC14:
	.string	"  MPI test #4 (inv_mod): "
	.align	2
.LC15:
	.string	"  MPI test #5 (simple gcd): "
	.align	2
.LC16:
	.string	"failed at %d\n"
	.align	2
.LC17:
	.string	"Unexpected error, return code = %08X\n"
	.align	2
.LC18:
	.string	"\n"
	.section	.text.mbedtls_mpi_self_test,"ax",@progbits
	.align	1
	.globl	mbedtls_mpi_self_test
	.type	mbedtls_mpi_self_test, @function
mbedtls_mpi_self_test:
.LVL1084:
.LFB100:
.LM3101:
	.cfi_startproc
.LM3102:
.LM3103:
.LM3104:
.LM3105:
	addi	sp,sp,-96
	.cfi_def_cfa_offset 96
.LVL1085:
.LBB445:
.LBI445:
.LM3106:
.LBB446:
.LM3107:
.LM3108:
.LM3109:
.LBE446:
.LBE445:
.LM3110:
	lui	a2,%hi(.LC1)
.LBB449:
.LBB447:
.LM3111:
	li	a5,1
.LBE447:
.LBE449:
.LM3112:
	sw	s1,84(sp)
.LM3113:
	addi	a2,a2,%lo(.LC1)
	.cfi_offset 9, -12
.LM3114:
	mv	s1,a0
.LM3115:
	li	a1,16
	addi	a0,sp,8
.LVL1086:
.LM3116:
	sw	s0,88(sp)
	sw	ra,92(sp)
	sw	s2,80(sp)
	sw	s3,76(sp)
	sw	s4,72(sp)
	.cfi_offset 8, -8
	.cfi_offset 1, -4
	.cfi_offset 18, -16
	.cfi_offset 19, -20
	.cfi_offset 20, -24
.LBB450:
.LBB448:
.LM3117:
	sw	zero,8(sp)
.LM3118:
	sw	a5,12(sp)
.LVL1087:
.LM3119:
.LBE448:
.LBE450:
.LM3120:
.LBB451:
.LBI451:
.LM3121:
.LBB452:
.LM3122:
.LM3123:
.LM3124:
.LM3125:
	sw	zero,16(sp)
.LM3126:
	sw	a5,20(sp)
.LVL1088:
.LM3127:
.LBE452:
.LBE451:
.LM3128:
.LBB453:
.LBI453:
.LM3129:
.LBB454:
.LM3130:
.LM3131:
.LM3132:
.LM3133:
	sw	zero,24(sp)
.LM3134:
	sw	a5,28(sp)
.LVL1089:
.LM3135:
.LBE454:
.LBE453:
.LM3136:
.LBB455:
.LBI455:
.LM3137:
.LBB456:
.LM3138:
.LM3139:
.LM3140:
.LM3141:
	sw	zero,32(sp)
.LM3142:
	sw	a5,36(sp)
.LVL1090:
.LM3143:
.LBE456:
.LBE455:
.LM3144:
.LBB457:
.LBI457:
.LM3145:
.LBB458:
.LM3146:
.LM3147:
.LM3148:
.LM3149:
	sw	zero,40(sp)
.LM3150:
	sw	a5,44(sp)
.LVL1091:
.LM3151:
.LBE458:
.LBE457:
.LM3152:
.LBB459:
.LBI459:
.LM3153:
.LBB460:
.LM3154:
.LM3155:
.LM3156:
.LM3157:
	sw	zero,48(sp)
.LM3158:
	sw	a5,52(sp)
.LVL1092:
.LM3159:
.LBE460:
.LBE459:
.LM3160:
.LBB461:
.LBI461:
.LM3161:
.LBB462:
.LM3162:
.LM3163:
.LM3164:
.LM3165:
	sw	zero,56(sp)
.LM3166:
	sw	a5,60(sp)
.LVL1093:
.LM3167:
.LBE462:
.LBE461:
.LM3168:
.LM3169:
.LM3170:
	call	mbedtls_mpi_read_string
.LVL1094:
	mv	s0,a0
.LVL1095:
.LM3171:
	bne	a0,zero,.L673
.LM3172:
.LM3173:
.LM3174:
.LM3175:
	li	a1,16
	lui	a2,%hi(.LC2)
	addi	a2,a2,%lo(.LC2)
	add	a0,sp,a1
	call	mbedtls_mpi_read_string
.LVL1096:
	mv	s0,a0
.LVL1097:
.LM3176:
	bne	a0,zero,.L673
.LM3177:
.LM3178:
.LM3179:
.LM3180:
	lui	a2,%hi(.LC3)
	addi	a2,a2,%lo(.LC3)
	li	a1,16
	addi	a0,sp,24
	call	mbedtls_mpi_read_string
.LVL1098:
	mv	s0,a0
.LVL1099:
.LM3181:
	bne	a0,zero,.L673
.LM3182:
.LM3183:
.LM3184:
.LM3185:
	addi	a2,sp,24
	addi	a1,sp,8
	addi	a0,sp,32
	call	mbedtls_mpi_mul_mpi
.LVL1100:
.LM3186:
	beq	a0,zero,.L674
.L688:
.LM3187:
	li	s0,-16
.L673:
.LVL1101:
.LM3188:
	beq	s1,zero,.L678
	j	.L691
.LVL1102:
.L674:
.LM3189:
.LM3190:
.LM3191:
.LM3192:
	lui	a2,%hi(.LC4)
	addi	a2,a2,%lo(.LC4)
	li	a1,16
	addi	a0,sp,48
.LVL1103:
.LM3193:
	call	mbedtls_mpi_read_string
.LVL1104:
	mv	s0,a0
.LVL1105:
.LM3194:
	bne	a0,zero,.L673
.LM3195:
.LM3196:
.LM3197:
	beq	s1,zero,.L675
.LM3198:
	lui	a0,%hi(.LC5)
	addi	a0,a0,%lo(.LC5)
	call	printf
.LVL1106:
.L675:
.LM3199:
.LM3200:
	addi	a1,sp,48
	addi	a0,sp,32
	call	mbedtls_mpi_cmp_mpi
.LVL1107:
.LM3201:
	beq	a0,zero,.L676
.L682:
.LM3202:
.LM3203:
	bne	s1,zero,.L677
.LVL1108:
.L690:
.LM3204:
	li	s0,1
.L678:
.LM3205:
	addi	a0,sp,8
	call	mbedtls_mpi_free
.LVL1109:
.LM3206:
	addi	a0,sp,16
	call	mbedtls_mpi_free
.LVL1110:
.LM3207:
	addi	a0,sp,24
	call	mbedtls_mpi_free
.LVL1111:
.LM3208:
	addi	a0,sp,32
	call	mbedtls_mpi_free
.LVL1112:
.LM3209:
	addi	a0,sp,40
	call	mbedtls_mpi_free
.LVL1113:
.LM3210:
	addi	a0,sp,48
	call	mbedtls_mpi_free
.LVL1114:
.LM3211:
	addi	a0,sp,56
	call	mbedtls_mpi_free
.LVL1115:
.LM3212:
.LM3213:
	beq	s1,zero,.L672
.LM3214:
	lui	a0,%hi(.LC18)
	addi	a0,a0,%lo(.LC18)
	call	printf
.LVL1116:
.LM3215:
.L672:
.LM3216:
	lw	ra,92(sp)
	.cfi_remember_state
	.cfi_restore 1
	mv	a0,s0
	lw	s0,88(sp)
	.cfi_restore 8
	lw	s1,84(sp)
	.cfi_restore 9
.LVL1117:
.LM3217:
	lw	s2,80(sp)
	.cfi_restore 18
	lw	s3,76(sp)
	.cfi_restore 19
	lw	s4,72(sp)
	.cfi_restore 20
	addi	sp,sp,96
	.cfi_def_cfa_offset 0
	jr	ra
.LVL1118:
.L677:
	.cfi_restore_state
.LM3218:
	lui	a0,%hi(.LC6)
	addi	a0,a0,%lo(.LC6)
	call	printf
.LVL1119:
.L679:
.LM3219:
	li	s0,1
.L691:
.LM3220:
	lui	a0,%hi(.LC17)
	mv	a1,s0
	addi	a0,a0,%lo(.LC17)
	call	printf
.LVL1120:
	j	.L678
.LVL1121:
.L676:
.LM3221:
.LM3222:
	beq	s1,zero,.L680
.LM3223:
	lui	a0,%hi(.LC7)
	addi	a0,a0,%lo(.LC7)
	call	printf
.LVL1122:
.L680:
.LM3224:
.LM3225:
.LM3226:
	addi	a3,sp,24
	addi	a2,sp,8
	addi	a1,sp,40
	addi	a0,sp,32
	call	mbedtls_mpi_div_mpi
.LVL1123:
	mv	s0,a0
.LVL1124:
.LM3227:
	bne	a0,zero,.L673
.LM3228:
.LM3229:
.LM3230:
.LM3231:
	lui	a2,%hi(.LC8)
	addi	a2,a2,%lo(.LC8)
	li	a1,16
	addi	a0,sp,48
	call	mbedtls_mpi_read_string
.LVL1125:
	mv	s0,a0
.LVL1126:
.LM3232:
	bne	a0,zero,.L673
.LM3233:
.LM3234:
.LM3235:
.LM3236:
	lui	a2,%hi(.LC9)
	addi	a2,a2,%lo(.LC9)
	li	a1,16
	addi	a0,sp,56
	call	mbedtls_mpi_read_string
.LVL1127:
	mv	s0,a0
.LVL1128:
.LM3237:
	bne	a0,zero,.L673
.LM3238:
.LM3239:
.LM3240:
	beq	s1,zero,.L681
.LM3241:
	lui	a0,%hi(.LC10)
	addi	a0,a0,%lo(.LC10)
	call	printf
.LVL1129:
.L681:
.LM3242:
.LM3243:
	addi	a1,sp,48
	addi	a0,sp,32
	call	mbedtls_mpi_cmp_mpi
.LVL1130:
.LM3244:
	bne	a0,zero,.L682
.LM3245:
	addi	a1,sp,56
	addi	a0,sp,40
	call	mbedtls_mpi_cmp_mpi
.LVL1131:
.LM3246:
	bne	a0,zero,.L682
.LM3247:
.LM3248:
	beq	s1,zero,.L683
.LM3249:
	lui	a0,%hi(.LC7)
	addi	a0,a0,%lo(.LC7)
	call	printf
.LVL1132:
.L683:
.LM3250:
.LM3251:
.LM3252:
	li	a4,0
	addi	a3,sp,24
	addi	a2,sp,16
	addi	a1,sp,8
	addi	a0,sp,32
	call	mbedtls_mpi_exp_mod
.LVL1133:
	mv	s0,a0
.LVL1134:
.LM3253:
	bne	a0,zero,.L673
.LM3254:
.LM3255:
.LM3256:
.LM3257:
	lui	a2,%hi(.LC11)
	addi	a2,a2,%lo(.LC11)
	li	a1,16
	addi	a0,sp,48
	call	mbedtls_mpi_read_string
.LVL1135:
	mv	s0,a0
.LVL1136:
.LM3258:
	bne	a0,zero,.L673
.LM3259:
.LM3260:
.LM3261:
	beq	s1,zero,.L684
.LM3262:
	lui	a0,%hi(.LC12)
	addi	a0,a0,%lo(.LC12)
	call	printf
.LVL1137:
.L684:
.LM3263:
.LM3264:
	addi	a1,sp,48
	addi	a0,sp,32
	call	mbedtls_mpi_cmp_mpi
.LVL1138:
.LM3265:
	bne	a0,zero,.L682
.LM3266:
.LM3267:
	beq	s1,zero,.L685
.LM3268:
	lui	a0,%hi(.LC7)
	addi	a0,a0,%lo(.LC7)
	call	printf
.LVL1139:
.L685:
.LM3269:
.LM3270:
.LM3271:
	addi	a2,sp,24
	addi	a1,sp,8
	addi	a0,sp,32
	call	mbedtls_mpi_inv_mod
.LVL1140:
	mv	s0,a0
.LVL1141:
.LM3272:
	bne	a0,zero,.L673
.LM3273:
.LM3274:
.LM3275:
.LM3276:
	lui	a2,%hi(.LC13)
	addi	a2,a2,%lo(.LC13)
	li	a1,16
	addi	a0,sp,48
	call	mbedtls_mpi_read_string
.LVL1142:
	mv	s0,a0
.LVL1143:
.LM3277:
	bne	a0,zero,.L673
.LM3278:
.LM3279:
.LM3280:
	beq	s1,zero,.L686
.LM3281:
	lui	a0,%hi(.LC14)
	addi	a0,a0,%lo(.LC14)
	call	printf
.LVL1144:
.L686:
.LM3282:
.LM3283:
	addi	a1,sp,48
	addi	a0,sp,32
	call	mbedtls_mpi_cmp_mpi
.LVL1145:
	mv	s2,a0
.LM3284:
	bne	a0,zero,.L682
.LM3285:
.LM3286:
	beq	s1,zero,.L687
.LM3287:
	lui	a0,%hi(.LC7)
	addi	a0,a0,%lo(.LC7)
	call	printf
.LVL1146:
.LM3288:
.LM3289:
	lui	a0,%hi(.LC15)
	addi	a0,a0,%lo(.LC15)
	call	printf
.LVL1147:
.L687:
.LM3290:
	lui	s3,%hi(gcd_pairs)
	addi	s3,s3,%lo(gcd_pairs)
	li	s4,3
.LVL1148:
.L692:
.LM3291:
.LM3292:
.LM3293:
	lw	a1,0(s3)
	addi	a0,sp,32
	call	mbedtls_mpi_lset
.LVL1149:
.LM3294:
	bne	a0,zero,.L688
.LM3295:
.LM3296:
.LM3297:
.LM3298:
	lw	a1,4(s3)
	addi	a0,sp,40
.LVL1150:
.LM3299:
	call	mbedtls_mpi_lset
.LVL1151:
.LM3300:
	bne	a0,zero,.L688
.LM3301:
.LM3302:
.LM3303:
.LM3304:
	addi	a2,sp,40
	addi	a1,sp,32
	addi	a0,sp,8
.LVL1152:
.LM3305:
	call	mbedtls_mpi_gcd
.LVL1153:
	mv	s0,a0
.LVL1154:
.LM3306:
	bne	a0,zero,.L673
.LM3307:
.LM3308:
.LM3309:
	lw	a1,8(s3)
	addi	a0,sp,8
	call	mbedtls_mpi_cmp_int
.LVL1155:
	mv	s0,a0
.LVL1156:
.LM3310:
	beq	a0,zero,.L689
.LM3311:
.LM3312:
	beq	s1,zero,.L690
.LM3313:
	lui	a0,%hi(.LC16)
	mv	a1,s2
	addi	a0,a0,%lo(.LC16)
	call	printf
.LVL1157:
.LM3314:
	j	.L679
.LVL1158:
.L689:
.LM3315:
	addi	s2,s2,1
.LVL1159:
.LM3316:
	addi	s3,s3,12
	bne	s2,s4,.L692
.LM3317:
.LM3318:
	beq	s1,zero,.L678
.LM3319:
	lui	a0,%hi(.LC7)
	addi	a0,a0,%lo(.LC7)
	call	printf
.LVL1160:
.LM3320:
	j	.L678
	.cfi_endproc
.LFE100:
	.size	mbedtls_mpi_self_test, .-mbedtls_mpi_self_test
	.section	.rodata.gcd_pairs,"a"
	.align	2
	.type	gcd_pairs, @object
	.size	gcd_pairs, 36
gcd_pairs:
	.word	693
	.word	609
	.word	21
	.word	1764
	.word	868
	.word	28
	.word	768454923
	.word	542167814
	.word	1
	.section	.rodata.small_prime_gaps,"a"
	.align	2
	.type	small_prime_gaps, @object
	.size	small_prime_gaps, 167
small_prime_gaps:
	.base64	"AgIEAgQCBAYCBgQCBAYGAgYEAgYEBggEAgQCBA4EBgIKAgYGBAYGAgoCBAIMDAQCBAYCCgYGBgIGBAIKDgQCBA4GCgIEBggGBgQGCAQICgIKAgYEBggEAgQMCAQIBAYMAhIGCgYGAgYKBgYCBgYEAgwKAgQGBgIMBAYICggKCAYGBAgGBAgEDgoMAgoCBAIKDgQCBA4EAgQUBAgKCAQGBg4EBgYIBgA="
	.text
.Letext0:
	.section	.note.GNU-stack,"",@progbits
