	.file	"ccm.c"
	.option nopic
	.attribute arch, "rv32i2p1_m2p0_f2p2_c2p0_zicsr2p0_zmmul1p0_zca1p0_zcf1p0"
	.attribute unaligned_access, 0
	.attribute stack_align, 16
	.text
.Ltext0:
	.cfi_sections	.debug_frame
	.section	.text.ccm_calculate_first_block_if_ready,"ax",@progbits
	.align	1
	.type	ccm_calculate_first_block_if_ready, @function
ccm_calculate_first_block_if_ready:
.LVL0:
.LFB35:
.LM1:
	.cfi_startproc
.LM2:
.LM3:
.LM4:
.LM5:
.LM6:
.LM7:
	lw	a2,124(a0)
.LM8:
	li	a5,3
	andi	a4,a2,3
	bne	a4,a5,.L2
.LM9:
.LM10:
	lw	a5,40(a0)
.LM11:
	bne	a5,zero,.L3
.LM12:
.LM13:
	lw	a5,52(a0)
.LM14:
	li	a4,1
.LM15:
	addi	a5,a5,-2
.LM16:
	bgtu	a5,a4,.L4
.LM17:
.LM18:
	sw	zero,32(a0)
.LM19:
.L2:
.LM20:
	li	a0,0
.LVL1:
.LM21:
	ret
.LVL2:
.L3:
.LM22:
.LM23:
.LM24:
.LM25:
	lw	a1,48(a0)
.LM26:
	lbu	a4,0(a0)
.LM27:
	addi	a5,a5,-2
.LM28:
	addi	a3,a1,-1
.LM29:
	or	a4,a4,a3
.LM30:
	lw	a3,36(a0)
.LM31:
	srli	a5,a5,1
.LM32:
	slli	a5,a5,3
.LM33:
	snez	a3,a3
.LM34:
	slli	a3,a3,6
	or	a4,a4,a3
	or	a5,a4,a5
.LM35:
	lw	a4,32(a0)
.LM36:
	sb	a5,0(a0)
.LM37:
.LVL3:
.LM38:
	li	a6,15
.LM39:
	li	a5,0
.LVL4:
.L6:
.LM40:
	bgtu	a1,a5,.L7
.LM41:
.LM42:
	beq	a4,zero,.L8
.LM43:
.LM44:
	ori	a2,a2,16
	sw	a2,124(a0)
.LM45:
.LVL5:
.L4:
.LM46:
	li	a0,-13
.LVL6:
.LM47:
	ret
.LVL7:
.L7:
.LM48:
.LM49:
	sub	a3,a6,a5
.LM50:
	add	a3,a0,a3
.LM51:
	addi	a5,a5,1
.LVL8:
.LM52:
	sb	a4,0(a3)
.LM53:
.LM54:
	andi	a5,a5,0xff
.LVL9:
.LM55:
	srli	a4,a4,8
.LVL10:
.LM56:
	j	.L6
.LVL11:
.L8:
.LM57:
	addi	sp,sp,-48
	.cfi_def_cfa_offset 48
	mv	a3,a0
.LM58:
.LM59:
	mv	a1,a0
	addi	a4,sp,28
.LVL12:
.LM60:
	li	a2,16
	addi	a0,a0,56
.LVL13:
.LM61:
	sw	a3,12(sp)
.LM62:
	sw	ra,44(sp)
	.cfi_offset 1, -4
.LM63:
	call	mbedtls_cipher_update
.LVL14:
.LM64:
.LM65:
	lw	a3,12(sp)
	beq	a0,zero,.L1
.LM66:
.LM67:
	lw	a5,124(a3)
	ori	a5,a5,16
	sw	a5,124(a3)
.LM68:
.L1:
.LM69:
	lw	ra,44(sp)
	.cfi_restore 1
	addi	sp,sp,48
	.cfi_def_cfa_offset 0
.LVL15:
.LM70:
	jr	ra
	.cfi_endproc
.LFE35:
	.size	ccm_calculate_first_block_if_ready, .-ccm_calculate_first_block_if_ready
	.section	.text.mbedtls_ccm_crypt,"ax",@progbits
	.align	1
	.type	mbedtls_ccm_crypt, @function
mbedtls_ccm_crypt:
.LVL16:
.LFB33:
.LM71:
	.cfi_startproc
.LM72:
.LM73:
.LM74:
	addi	sp,sp,-64
	.cfi_def_cfa_offset 64
	sw	s3,44(sp)
	.cfi_offset 19, -20
	mv	s3,a2
.LM75:
	li	a2,16
.LVL17:
.LM76:
	sw	s0,56(sp)
	sw	s2,48(sp)
	sw	s4,40(sp)
	sw	s5,36(sp)
	.cfi_offset 8, -8
	.cfi_offset 18, -16
	.cfi_offset 20, -24
	.cfi_offset 21, -28
	mv	s0,a0
	mv	s2,a1
	mv	s4,a3
.LM77:
	add	a1,a0,a2
.LVL18:
.LM78:
	addi	a3,sp,16
.LVL19:
.LM79:
	mv	s5,a4
.LM80:
	addi	a0,a0,56
.LVL20:
.LM81:
	addi	a4,sp,12
.LVL21:
.LM82:
	sw	s1,52(sp)
	sw	ra,60(sp)
	.cfi_offset 9, -12
	.cfi_offset 1, -4
.LM83:
	sw	zero,16(sp)
	sw	zero,20(sp)
	sw	zero,24(sp)
	sw	zero,28(sp)
.LM84:
.LM85:
	sw	zero,12(sp)
.LM86:
.LM87:
	call	mbedtls_cipher_update
.LVL22:
	mv	s1,a0
.LVL23:
.LM88:
.LM89:
	addi	a3,sp,16
	li	a5,0
	beq	a0,zero,.L17
.LM90:
.LM91:
	lw	a5,124(s0)
	ori	a5,a5,16
	sw	a5,124(s0)
.LM92:
.L25:
.LM93:
	mv	a0,a3
	li	a1,16
	call	mbedtls_platform_zeroize
.LVL24:
.LM94:
.LM95:
	lw	ra,60(sp)
	.cfi_remember_state
	.cfi_restore 1
	lw	s0,56(sp)
	.cfi_restore 8
.LVL25:
.LM96:
	lw	s2,48(sp)
	.cfi_restore 18
.LVL26:
.LM97:
	lw	s3,44(sp)
	.cfi_restore 19
.LVL27:
.LM98:
	lw	s4,40(sp)
	.cfi_restore 20
.LVL28:
.LM99:
	lw	s5,36(sp)
	.cfi_restore 21
.LVL29:
.LM100:
	mv	a0,s1
	lw	s1,52(sp)
	.cfi_restore 9
.LVL30:
.LM101:
	addi	sp,sp,64
	.cfi_def_cfa_offset 0
	jr	ra
.LVL31:
.L17:
	.cfi_restore_state
.LBB18:
.LBB19:
.LM102:
.LM103:
	add	a4,s2,a5
.LM104:
	add	a1,s4,a5
.LM105:
	add	a4,a3,a4
.LM106:
	lbu	a1,0(a1)
	lbu	a4,0(a4)
	add	a2,s5,a5
.LM107:
	addi	a5,a5,1
.LVL32:
.LM108:
	xor	a4,a4,a1
	sb	a4,0(a2)
.LM109:
.LVL33:
.LM110:
	bne	s3,a5,.L17
	j	.L25
.LBE19:
.LBE18:
	.cfi_endproc
.LFE33:
	.size	mbedtls_ccm_crypt, .-mbedtls_ccm_crypt
	.section	.text.mbedtls_ccm_init,"ax",@progbits
	.align	1
	.globl	mbedtls_ccm_init
	.type	mbedtls_ccm_init, @function
mbedtls_ccm_init:
.LVL34:
.LFB30:
.LM111:
	.cfi_startproc
.LM112:
	li	a2,128
	li	a1,0
	tail	memset
.LVL35:
.LM113:
	.cfi_endproc
.LFE30:
	.size	mbedtls_ccm_init, .-mbedtls_ccm_init
	.section	.text.mbedtls_ccm_setkey,"ax",@progbits
	.align	1
	.globl	mbedtls_ccm_setkey
	.type	mbedtls_ccm_setkey, @function
mbedtls_ccm_setkey:
.LVL36:
.LFB31:
.LM114:
	.cfi_startproc
.LM115:
.LM116:
.LM117:
.LM118:
	addi	sp,sp,-32
	.cfi_def_cfa_offset 32
	sw	s0,24(sp)
	sw	s2,16(sp)
	.cfi_offset 8, -8
	.cfi_offset 18, -16
	mv	s0,a0
	mv	s2,a2
	mv	a0,a1
.LVL37:
.LM119:
	li	a2,1
.LVL38:
.LM120:
	mv	a1,a3
.LVL39:
.LM121:
	sw	s1,20(sp)
	sw	ra,28(sp)
	.cfi_offset 9, -12
	.cfi_offset 1, -4
.LM122:
	mv	s1,a3
.LM123:
	call	mbedtls_cipher_info_from_values
.LVL40:
.LM124:
.LM125:
	beq	a0,zero,.L30
.LM126:
.LVL41:
.LBB20:
.LBI20:
.LM127:
.LBB21:
.LM128:
.LM129:
.LM130:
	lw	a5,4(a0)
.LBE21:
.LBE20:
.LM131:
	li	a4,16
	andi	a5,a5,31
	bne	a5,a4,.L30
.LM132:
	addi	s0,s0,56
.LVL42:
.LM133:
	sw	a0,12(sp)
	mv	a0,s0
.LVL43:
.LM134:
	call	mbedtls_cipher_free
.LVL44:
.LM135:
.LM136:
	lw	a1,12(sp)
	mv	a0,s0
	call	mbedtls_cipher_setup
.LVL45:
.LM137:
	bne	a0,zero,.L27
.LM138:
.LM139:
	mv	a0,s0
.LVL46:
.LM140:
	lw	s0,24(sp)
	.cfi_remember_state
	.cfi_restore 8
.LVL47:
.LM141:
	lw	ra,28(sp)
	.cfi_restore 1
.LM142:
	mv	a2,s1
	mv	a1,s2
.LM143:
	lw	s1,20(sp)
	.cfi_restore 9
.LVL48:
.LM144:
	lw	s2,16(sp)
	.cfi_restore 18
.LVL49:
.LM145:
	li	a3,1
.LM146:
	addi	sp,sp,32
	.cfi_def_cfa_offset 0
.LVL50:
.LM147:
	tail	mbedtls_cipher_setkey
.LVL51:
.L30:
	.cfi_restore_state
.LM148:
	li	a0,-13
.LVL52:
.L27:
.LM149:
	lw	ra,28(sp)
	.cfi_restore 1
	lw	s0,24(sp)
	.cfi_restore 8
	lw	s1,20(sp)
	.cfi_restore 9
.LVL53:
.LM150:
	lw	s2,16(sp)
	.cfi_restore 18
.LVL54:
.LM151:
	addi	sp,sp,32
	.cfi_def_cfa_offset 0
	jr	ra
	.cfi_endproc
.LFE31:
	.size	mbedtls_ccm_setkey, .-mbedtls_ccm_setkey
	.section	.text.mbedtls_ccm_free,"ax",@progbits
	.align	1
	.globl	mbedtls_ccm_free
	.type	mbedtls_ccm_free, @function
mbedtls_ccm_free:
.LVL55:
.LFB32:
.LM152:
	.cfi_startproc
.LM153:
.LM154:
	beq	a0,zero,.L32
.LM155:
	addi	sp,sp,-16
	.cfi_def_cfa_offset 16
	sw	s0,8(sp)
	.cfi_offset 8, -8
	mv	s0,a0
.LVL56:
.LBB24:
.LBI24:
.LM156:
.LBB25:
.LM157:
	addi	a0,a0,56
.LVL57:
.LM158:
.LBE25:
.LBE24:
.LM159:
	sw	ra,12(sp)
	.cfi_offset 1, -4
.LBB29:
.LBB26:
.LM160:
	call	mbedtls_cipher_free
.LVL58:
.LM161:
	mv	a0,s0
.LBE26:
.LBE29:
.LM162:
	lw	s0,8(sp)
	.cfi_restore 8
.LVL59:
.LM163:
	lw	ra,12(sp)
	.cfi_restore 1
.LBB30:
.LBB27:
.LM164:
	li	a1,128
.LBE27:
.LBE30:
.LM165:
	addi	sp,sp,16
	.cfi_def_cfa_offset 0
.LBB31:
.LBB28:
.LM166:
	tail	mbedtls_platform_zeroize
.LVL60:
.L32:
.LM167:
	ret
.LBE28:
.LBE31:
	.cfi_endproc
.LFE32:
	.size	mbedtls_ccm_free, .-mbedtls_ccm_free
	.section	.text.mbedtls_ccm_starts,"ax",@progbits
	.align	1
	.globl	mbedtls_ccm_starts
	.type	mbedtls_ccm_starts, @function
mbedtls_ccm_starts:
.LVL61:
.LFB36:
.LM168:
	.cfi_startproc
.LM169:
.LM170:
	addi	a4,a3,-7
.LM171:
	li	a5,6
	bgtu	a4,a5,.L38
.LM172:
	addi	sp,sp,-32
	.cfi_def_cfa_offset 32
.LM173:
	li	a5,15
.LM174:
	sw	ra,28(sp)
	sw	s0,24(sp)
	sw	s1,20(sp)
	sw	s2,16(sp)
	sw	s3,12(sp)
	.cfi_offset 1, -4
	.cfi_offset 8, -8
	.cfi_offset 9, -12
	.cfi_offset 18, -16
	.cfi_offset 19, -20
.LM175:
	sub	a5,a5,a3
.LM176:
	addi	s2,a0,16
	mv	s0,a0
.LM177:
	mv	s3,a2
.LM178:
	sw	a1,52(a0)
.LM179:
.LM180:
	sw	a5,48(a0)
.LM181:
	li	a2,16
.LVL62:
.LM182:
	li	a1,0
.LVL63:
.LM183:
	mv	a0,s2
.LVL64:
.LM184:
	mv	s1,a3
	call	memset
.LVL65:
.LM185:
.LM186:
	lw	a5,48(s0)
.LM187:
	mv	a2,s1
	mv	a1,s3
.LM188:
	addi	a5,a5,-1
.LM189:
	sb	a5,16(s0)
.LM190:
	addi	a0,s0,17
	call	memcpy
.LVL66:
.LM191:
	lw	a2,48(s0)
.LM192:
	addi	a0,s1,1
.LM193:
	li	a1,0
	add	a0,s2,a0
	call	memset
.LVL67:
.LM194:
.LM195:
	li	a5,1
	sb	a5,31(s0)
.LM196:
	add	a0,s0,a5
	mv	a2,s1
	mv	a1,s3
	call	memcpy
.LVL68:
.LM197:
.LM198:
	lw	a5,124(s0)
.LM199:
	mv	a0,s0
.LM200:
	ori	a5,a5,1
	sw	a5,124(s0)
.LM201:
.LM202:
	lw	s0,24(sp)
	.cfi_restore 8
.LVL69:
.LM203:
	lw	ra,28(sp)
	.cfi_restore 1
	lw	s1,20(sp)
	.cfi_restore 9
.LVL70:
.LM204:
	lw	s2,16(sp)
	.cfi_restore 18
	lw	s3,12(sp)
	.cfi_restore 19
.LVL71:
.LM205:
	addi	sp,sp,32
	.cfi_def_cfa_offset 0
.LM206:
	tail	ccm_calculate_first_block_if_ready
.LVL72:
.L38:
.LM207:
	li	a0,-13
.LVL73:
.LM208:
	ret
	.cfi_endproc
.LFE36:
	.size	mbedtls_ccm_starts, .-mbedtls_ccm_starts
	.section	.text.mbedtls_ccm_set_lengths,"ax",@progbits
	.align	1
	.globl	mbedtls_ccm_set_lengths
	.type	mbedtls_ccm_set_lengths, @function
mbedtls_ccm_set_lengths:
.LVL74:
.LFB37:
.LM209:
	.cfi_startproc
.LM210:
.LM211:
	sltiu	a4,a3,17
	beq	a4,zero,.L42
.LM212:
	addi	a4,a3,-2
.LM213:
	beq	a4,zero,.L42
.LM214:
.LM215:
	li	a4,65536
	addi	a4,a4,-257
	bgtu	a1,a4,.L42
	andi	a4,a3,1
	bne	a4,zero,.L42
.LM216:
.LM217:
	lw	a4,124(a0)
.LM218:
	sw	a2,32(a0)
.LM219:
.LM220:
	sw	a1,36(a0)
.LM221:
.LM222:
	ori	a4,a4,2
.LM223:
	sw	a3,40(a0)
.LM224:
.LM225:
	sw	zero,44(a0)
.LM226:
.LM227:
	sw	a4,124(a0)
.LM228:
.LM229:
	tail	ccm_calculate_first_block_if_ready
.LVL75:
.L42:
.LM230:
	li	a0,-13
.LVL76:
.LM231:
	ret
	.cfi_endproc
.LFE37:
	.size	mbedtls_ccm_set_lengths, .-mbedtls_ccm_set_lengths
	.section	.text.mbedtls_ccm_update_ad,"ax",@progbits
	.align	1
	.globl	mbedtls_ccm_update_ad
	.type	mbedtls_ccm_update_ad, @function
mbedtls_ccm_update_ad:
.LVL77:
.LFB38:
.LM232:
	.cfi_startproc
.LM233:
.LM234:
.LM235:
.LM236:
.LM237:
	addi	sp,sp,-64
	.cfi_def_cfa_offset 64
	sw	s1,52(sp)
	sw	ra,60(sp)
	sw	s0,56(sp)
	sw	s2,48(sp)
	sw	s3,44(sp)
	sw	s4,40(sp)
	sw	s5,36(sp)
	.cfi_offset 9, -12
	.cfi_offset 1, -4
	.cfi_offset 8, -8
	.cfi_offset 18, -16
	.cfi_offset 19, -20
	.cfi_offset 20, -24
	.cfi_offset 21, -28
.LM238:
	lw	a5,124(a0)
.LM239:
	andi	s1,a5,16
.LM240:
	bne	s1,zero,.L61
	mv	s0,a2
.LM241:
.LM242:
	beq	a2,zero,.L46
.LM243:
.LM244:
	andi	a4,a5,8
.LM245:
	bne	a4,zero,.L61
.LM246:
	andi	a3,a5,4
.LM247:
	lw	a4,36(a0)
	mv	s3,a1
.LM248:
.LM249:
	bne	a3,zero,.L50
.LM250:
.LM251:
	bgtu	a2,a4,.L61
.LM252:
.LM253:
	lbu	a3,0(a0)
.LM254:
	srli	a2,a4,8
.LVL78:
.LM255:
	ori	a5,a5,4
.LM256:
	xor	a3,a3,a2
	sb	a3,0(a0)
.LM257:
.LM258:
	lbu	a3,1(a0)
.LM259:
	sw	a5,124(a0)
.LM260:
	xor	a4,a3,a4
	sb	a4,1(a0)
.LM261:
.L52:
	mv	a3,a0
.LM262:
.LM263:
	li	s4,16
.LM264:
	addi	s5,a0,56
.LVL79:
.L51:
.LM265:
.LM266:
	lw	a5,44(a3)
	addi	a5,a5,2
.LM267:
	andi	a5,a5,15
.LVL80:
.LM268:
.LM269:
.LM270:
	sub	s2,s4,a5
.LM271:
	bleu	s2,s0,.L53
	mv	s2,s0
.L53:
.LVL81:
.LM272:
.LBB32:
.LBI32:
.LM273:
.LBB33:
.LM274:
.LM275:
.LM276:
	add	a2,a3,a5
.LM277:
	li	a4,0
.LVL82:
.L54:
.LM278:
.LM279:
	add	a1,s3,a4
.LM280:
	lbu	a0,0(a2)
	lbu	a1,0(a1)
.LM281:
	addi	a4,a4,1
.LVL83:
.LM282:
	addi	a2,a2,1
.LM283:
	xor	a1,a1,a0
	sb	a1,-1(a2)
.LM284:
.LVL84:
.LM285:
	bne	a4,s2,.L54
.LVL85:
.LM286:
.LBE33:
.LBE32:
.LM287:
.LM288:
	lw	a4,44(a3)
.LM289:
	add	a5,a5,s2
.LVL86:
.LM290:
	add	a4,s2,a4
	sw	a4,44(a3)
.LM291:
.LVL87:
.LM292:
.LM293:
.LM294:
	beq	a5,s4,.L55
.LM295:
	lw	a5,36(a3)
	bne	a4,a5,.L56
.L55:
.LM296:
.LM297:
	mv	a1,a3
	addi	a4,sp,28
	li	a2,16
	mv	a0,s5
	sw	a3,12(sp)
	call	mbedtls_cipher_update
.LVL88:
.LM298:
.LM299:
	lw	a3,12(sp)
	beq	a0,zero,.L56
.LM300:
.LM301:
	lw	a5,124(a3)
.LM302:
	mv	s1,a0
.LM303:
	ori	a5,a5,16
	sw	a5,124(a3)
.LM304:
.LVL89:
.L46:
.LM305:
	lw	ra,60(sp)
	.cfi_remember_state
	.cfi_restore 1
	lw	s0,56(sp)
	.cfi_restore 8
	lw	s2,48(sp)
	.cfi_restore 18
	lw	s3,44(sp)
	.cfi_restore 19
	lw	s4,40(sp)
	.cfi_restore 20
	lw	s5,36(sp)
	.cfi_restore 21
	mv	a0,s1
	lw	s1,52(sp)
	.cfi_restore 9
	addi	sp,sp,64
	.cfi_def_cfa_offset 0
	jr	ra
.LVL90:
.L50:
	.cfi_restore_state
.LM306:
.LM307:
	lw	a5,44(a0)
	add	a5,a2,a5
.LM308:
	bleu	a5,a4,.L52
.LVL91:
.L61:
.LM309:
	li	s1,-13
	j	.L46
.LVL92:
.L56:
.LM310:
	sub	s0,s0,s2
.LVL93:
.LM311:
	add	s3,s3,s2
.LVL94:
.LM312:
	bne	s0,zero,.L51
.LM313:
.LM314:
	lw	a4,44(a3)
	lw	a5,36(a3)
	bne	a4,a5,.L46
.LM315:
.LM316:
	lw	a5,124(a3)
.LM317:
	sw	zero,44(a3)
.LM318:
	ori	a5,a5,8
	sw	a5,124(a3)
.LM319:
	j	.L46
	.cfi_endproc
.LFE38:
	.size	mbedtls_ccm_update_ad, .-mbedtls_ccm_update_ad
	.section	.text.mbedtls_ccm_update,"ax",@progbits
	.align	1
	.globl	mbedtls_ccm_update
	.type	mbedtls_ccm_update, @function
mbedtls_ccm_update:
.LVL95:
.LFB39:
.LM320:
	.cfi_startproc
.LM321:
	addi	sp,sp,-112
	.cfi_def_cfa_offset 112
	sw	s1,100(sp)
	sw	s5,84(sp)
	sw	ra,108(sp)
	sw	s0,104(sp)
	sw	s2,96(sp)
	sw	s3,92(sp)
	sw	s4,88(sp)
	sw	s6,80(sp)
	sw	s7,76(sp)
	sw	s8,72(sp)
	sw	s9,68(sp)
	sw	s10,64(sp)
	sw	s11,60(sp)
	.cfi_offset 9, -12
	.cfi_offset 21, -28
	.cfi_offset 1, -4
	.cfi_offset 8, -8
	.cfi_offset 18, -16
	.cfi_offset 19, -20
	.cfi_offset 20, -24
	.cfi_offset 22, -32
	.cfi_offset 23, -36
	.cfi_offset 24, -40
	.cfi_offset 25, -44
	.cfi_offset 26, -48
	.cfi_offset 27, -52
.LM322:
	mv	s5,a3
.LM323:
.LVL96:
.LM324:
.LM325:
.LM326:
.LM327:
.LM328:
.LM329:
	lw	a3,124(a0)
.LVL97:
.LM330:
	li	s1,-13
.LM331:
	andi	a3,a3,16
.LM332:
	bne	a3,zero,.L68
.LM333:
	lw	a3,40(a0)
	mv	s4,a1
	mv	s2,a2
.LM334:
.LM335:
	beq	a3,zero,.L70
.LM336:
	lw	a3,44(a0)
.LM337:
	li	s1,-13
.LM338:
	add	a3,a2,a3
.LM339:
	lw	a2,32(a0)
.LVL98:
.LM340:
	bgtu	a3,a2,.L68
.L70:
.LM341:
.LM342:
	li	s1,-13
.LM343:
	bgtu	s2,a4,.L68
.LM344:
	sw	s2,0(a5)
.LBB40:
.LBB41:
.LM345:
	addi	a5,a0,56
.LVL99:
.LM346:
	mv	s0,a0
.LBE41:
.LBE40:
.LM347:
.LM348:
.LVL100:
.LM349:
.LBB48:
.LBI40:
.LM350:
.LBB46:
.LM351:
	li	s6,16
.LM352:
	li	s8,1
.LM353:
	sw	a5,12(sp)
.LM354:
	li	s9,15
.LM355:
	addi	s7,sp,32
.LVL101:
.L71:
.LM356:
	bne	s2,zero,.L88
.LM357:
	li	s1,0
	j	.L79
.L88:
.LM358:
.LM359:
	lw	a5,44(s0)
.LM360:
	andi	s3,a5,15
.LVL102:
.LM361:
.LM362:
.LM363:
	sub	s10,s6,s3
.LM364:
	bleu	s10,s2,.L72
	mv	s10,s2
.L72:
.LVL103:
.LM365:
.LM366:
	add	a5,a5,s10
	sw	a5,44(s0)
.LM367:
.LM368:
	lw	a5,52(s0)
	andi	a5,a5,-3
.LM369:
	beq	a5,s8,.L73
.LVL104:
.L80:
.LM370:
.LM371:
	lw	s11,52(s0)
	andi	s11,s11,-3
.LM372:
	bne	s11,zero,.L75
.LM373:
.LM374:
	mv	a4,s7
	mv	a3,s4
	mv	a2,s10
	mv	a1,s3
	mv	a0,s0
	call	mbedtls_ccm_crypt
.LVL105:
	mv	s1,a0
.LVL106:
.LM375:
.LM376:
	bne	a0,zero,.L79
.LM377:
.LVL107:
.LBB42:
.LBI42:
.LM378:
.LBB43:
.LM379:
.LM380:
.LM381:
	add	a5,s0,s3
.LVL108:
.L81:
.LM382:
.LM383:
	add	a4,s7,s11
.LM384:
	lbu	a3,0(a5)
	lbu	a4,0(a4)
.LM385:
	addi	s11,s11,1
.LVL109:
.LM386:
	addi	a5,a5,1
.LM387:
	xor	a4,a4,a3
	sb	a4,-1(a5)
.LM388:
.LVL110:
.LM389:
	bne	s10,s11,.L81
.LVL111:
.LM390:
.LBE43:
.LBE42:
.LM391:
	mv	a2,s10
	mv	a1,s7
	mv	a0,s5
	call	memcpy
.LVL112:
.LM392:
.LM393:
	add	a5,s3,s10
.LM394:
	beq	a5,s6,.L82
.LM395:
	lw	a4,44(s0)
	lw	a5,32(s0)
	bne	a4,a5,.L83
.L82:
.LM396:
.LM397:
	lw	a0,12(sp)
	addi	a4,sp,28
	mv	a3,s0
	li	a2,16
	mv	a1,s0
	call	mbedtls_cipher_update
.LVL113:
	mv	s1,a0
.LVL114:
.LM398:
.LM399:
	bne	a0,zero,.L104
.LVL115:
.L75:
.LM400:
.LM401:
	add	s3,s3,s10
.LVL116:
.LM402:
	bne	s3,s6,.L84
.L86:
.LM403:
	lw	a2,48(s0)
	li	a5,0
.L85:
.LVL117:
.LM404:
	bgeu	a5,a2,.L83
.LM405:
.LM406:
	sub	a3,s9,a5
.LM407:
	add	a3,s0,a3
.LM408:
	lbu	a4,16(a3)
	addi	a4,a4,1
	andi	a4,a4,0xff
.LM409:
	sb	a4,16(a3)
	bne	a4,zero,.L83
.LM410:
	addi	a5,a5,1
.LVL118:
.LM411:
	andi	a5,a5,0xff
.LVL119:
.LM412:
	j	.L85
.LVL120:
.L73:
.LM413:
.LBB44:
.LBI44:
.LM414:
.LBB45:
.LM415:
.LM416:
.LM417:
	add	a4,s0,s3
.LM418:
	li	a5,0
.LVL121:
.L76:
.LM419:
.LM420:
	add	a3,s4,a5
.LM421:
	lbu	a2,0(a4)
	lbu	a3,0(a3)
.LM422:
	addi	a5,a5,1
.LVL122:
.LM423:
	addi	a4,a4,1
.LM424:
	xor	a3,a3,a2
	sb	a3,-1(a4)
.LM425:
.LVL123:
.LM426:
	bne	s10,a5,.L76
.LVL124:
.LM427:
.LBE45:
.LBE44:
.LM428:
.LM429:
	add	a5,s3,s10
.LM430:
	beq	a5,s6,.L77
.LM431:
	lw	a4,44(s0)
	lw	a5,32(s0)
	bne	a4,a5,.L78
.L77:
.LM432:
.LM433:
	lw	a0,12(sp)
	addi	a4,sp,28
	mv	a3,s0
	li	a2,16
	mv	a1,s0
	call	mbedtls_cipher_update
.LVL125:
	mv	s1,a0
.LVL126:
.LM434:
.LM435:
	beq	a0,zero,.L78
.L104:
.LM436:
.LM437:
	lw	a5,124(s0)
	ori	a5,a5,16
	sw	a5,124(s0)
.LM438:
	j	.L79
.LVL127:
.L78:
.LM439:
.LM440:
	mv	a4,s5
	mv	a3,s4
	mv	a2,s10
	mv	a1,s3
	mv	a0,s0
	call	mbedtls_ccm_crypt
.LVL128:
	mv	s1,a0
.LVL129:
.LM441:
.LM442:
	beq	a0,zero,.L80
.LVL130:
.L79:
.LM443:
	li	a1,16
	addi	a0,sp,32
	call	mbedtls_platform_zeroize
.LVL131:
.LM444:
.L68:
.LM445:
.LBE46:
.LBE48:
.LM446:
	lw	ra,108(sp)
	.cfi_remember_state
	.cfi_restore 1
	lw	s0,104(sp)
	.cfi_restore 8
	lw	s2,96(sp)
	.cfi_restore 18
	lw	s3,92(sp)
	.cfi_restore 19
	lw	s4,88(sp)
	.cfi_restore 20
	lw	s5,84(sp)
	.cfi_restore 21
	lw	s6,80(sp)
	.cfi_restore 22
	lw	s7,76(sp)
	.cfi_restore 23
	lw	s8,72(sp)
	.cfi_restore 24
	lw	s9,68(sp)
	.cfi_restore 25
	lw	s10,64(sp)
	.cfi_restore 26
	lw	s11,60(sp)
	.cfi_restore 27
	mv	a0,s1
	lw	s1,100(sp)
	.cfi_restore 9
	addi	sp,sp,112
	.cfi_def_cfa_offset 0
	jr	ra
.LVL132:
.L84:
	.cfi_restore_state
.LBB49:
.LBB47:
.LM447:
	lw	a4,44(s0)
	lw	a5,32(s0)
	beq	a4,a5,.L86
.LVL133:
.L83:
.LM448:
.LM449:
	sub	s2,s2,s10
.LVL134:
.LM450:
.LM451:
	add	s4,s4,s10
.LVL135:
.LM452:
.LM453:
	add	s5,s5,s10
.LVL136:
.LM454:
	j	.L71
.LBE47:
.LBE49:
	.cfi_endproc
.LFE39:
	.size	mbedtls_ccm_update, .-mbedtls_ccm_update
	.section	.text.mbedtls_ccm_finish,"ax",@progbits
	.align	1
	.globl	mbedtls_ccm_finish
	.type	mbedtls_ccm_finish, @function
mbedtls_ccm_finish:
.LVL137:
.LFB40:
.LM455:
	.cfi_startproc
.LM456:
.LM457:
.LM458:
.LM459:
	addi	sp,sp,-32
	.cfi_def_cfa_offset 32
	sw	s1,20(sp)
	sw	ra,28(sp)
	sw	s0,24(sp)
	sw	s2,16(sp)
	sw	s3,12(sp)
	.cfi_offset 9, -12
	.cfi_offset 1, -4
	.cfi_offset 8, -8
	.cfi_offset 18, -16
	.cfi_offset 19, -20
.LM460:
	lw	a5,124(a0)
.LM461:
	li	s1,-110
.LM462:
	andi	a4,a5,16
.LM463:
	bne	a4,zero,.L105
.LM464:
.LM465:
	lw	a4,36(a0)
	beq	a4,zero,.L107
.LM466:
	andi	a5,a5,8
.LM467:
	li	s1,-13
.LM468:
	beq	a5,zero,.L105
.L107:
.LM469:
.LM470:
	lw	a5,32(a0)
.LM471:
	bne	a5,zero,.L108
.L110:
.LM472:
	lw	a3,48(a0)
	li	a5,0
.LM473:
	li	a6,15
.L109:
.LVL138:
.LM474:
	bltu	a5,a3,.L111
	mv	s3,a2
	mv	s2,a1
.LM475:
	mv	a4,a0
	mv	a3,a0
	li	a2,16
.LVL139:
.LM476:
	li	a1,0
.LVL140:
.LM477:
	mv	s0,a0
.LM478:
.LM479:
	call	mbedtls_ccm_crypt
.LVL141:
.LM480:
	mv	s1,a0
.LVL142:
.LM481:
.LM482:
	bne	a0,zero,.L105
.LM483:
.LM484:
	beq	s2,zero,.L112
.LM485:
	mv	a2,s3
	mv	a1,s0
	mv	a0,s2
	call	memcpy
.LVL143:
.L112:
.LM486:
.LBB52:
.LBI52:
.LM487:
.LBB53:
.LM488:
.LM489:
	sw	zero,124(s0)
.LM490:
	li	a2,16
	li	a1,0
	mv	a0,s0
	call	memset
.LVL144:
.LM491:
	li	a2,16
	li	a1,0
	add	a0,s0,a2
	call	memset
.LVL145:
.LM492:
.LBE53:
.LBE52:
.LM493:
.LBB55:
.LBB54:
.LM494:
	j	.L105
.LVL146:
.L108:
.LM495:
.LBE54:
.LBE55:
.LM496:
	lw	a4,44(a0)
.LM497:
	li	s1,-13
.LM498:
	beq	a5,a4,.L110
.LVL147:
.L105:
.LM499:
	lw	ra,28(sp)
	.cfi_remember_state
	.cfi_restore 1
	lw	s0,24(sp)
	.cfi_restore 8
	lw	s2,16(sp)
	.cfi_restore 18
	lw	s3,12(sp)
	.cfi_restore 19
	mv	a0,s1
	lw	s1,20(sp)
	.cfi_restore 9
	addi	sp,sp,32
	.cfi_def_cfa_offset 0
	jr	ra
.LVL148:
.L111:
	.cfi_restore_state
.LM500:
.LM501:
	sub	a4,a6,a5
.LM502:
	add	a4,a0,a4
.LM503:
	addi	a5,a5,1
.LVL149:
.LM504:
	sb	zero,16(a4)
.LM505:
	andi	a5,a5,0xff
	j	.L109
	.cfi_endproc
.LFE40:
	.size	mbedtls_ccm_finish, .-mbedtls_ccm_finish
	.section	.text.ccm_auth_crypt,"ax",@progbits
	.align	1
	.type	ccm_auth_crypt, @function
ccm_auth_crypt:
.LVL150:
.LFB41:
.LM506:
	.cfi_startproc
.LM507:
	addi	sp,sp,-64
	.cfi_def_cfa_offset 64
	sw	s1,52(sp)
	.cfi_offset 9, -12
	mv	s1,a2
	mv	a2,a3
.LVL151:
.LM508:
	mv	a3,a4
.LVL152:
.LM509:
	sw	s0,56(sp)
	sw	s2,48(sp)
	sw	s3,44(sp)
	sw	s4,40(sp)
	sw	s5,36(sp)
	sw	s6,32(sp)
	sw	s7,28(sp)
	sw	ra,60(sp)
	.cfi_offset 8, -8
	.cfi_offset 18, -16
	.cfi_offset 19, -20
	.cfi_offset 20, -24
	.cfi_offset 21, -28
	.cfi_offset 22, -32
	.cfi_offset 23, -36
	.cfi_offset 1, -4
.LM510:
	lw	s4,64(sp)
	lw	s5,68(sp)
	lw	s2,72(sp)
	mv	s0,a0
.LM511:
.LVL153:
.LM512:
.LM513:
.LM514:
	mv	s6,a5
	mv	s3,a6
	mv	s7,a7
.LM515:
	call	mbedtls_ccm_starts
.LVL154:
.LM516:
	bne	a0,zero,.L123
.LVL155:
.LBB58:
.LBI58:
.LM517:
.LBB59:
.LM518:
.LM519:
	mv	a3,s2
	mv	a2,s1
	mv	a1,s3
	mv	a0,s0
.LVL156:
.LM520:
	call	mbedtls_ccm_set_lengths
.LVL157:
.LM521:
	bne	a0,zero,.L123
.LM522:
.LM523:
	mv	a2,s3
	mv	a1,s6
	mv	a0,s0
.LVL158:
.LM524:
	call	mbedtls_ccm_update_ad
.LVL159:
.LM525:
	bne	a0,zero,.L123
.LM526:
.LM527:
	addi	a5,sp,12
	mv	a4,s1
	mv	a3,s4
	mv	a2,s1
	mv	a1,s7
	mv	a0,s0
.LVL160:
.LM528:
	call	mbedtls_ccm_update
.LVL161:
.LM529:
	bne	a0,zero,.L123
.LM530:
.LM531:
	mv	a0,s0
.LVL162:
.LM532:
.LBE59:
.LBE58:
.LM533:
	lw	s0,56(sp)
	.cfi_remember_state
	.cfi_restore 8
.LVL163:
.LM534:
	lw	ra,60(sp)
	.cfi_restore 1
	lw	s1,52(sp)
	.cfi_restore 9
.LVL164:
.LM535:
	lw	s3,44(sp)
	.cfi_restore 19
.LVL165:
.LM536:
	lw	s4,40(sp)
	.cfi_restore 20
	lw	s6,32(sp)
	.cfi_restore 22
.LVL166:
.LM537:
	lw	s7,28(sp)
	.cfi_restore 23
.LVL167:
.LBB62:
.LBB60:
.LM538:
	mv	a2,s2
	mv	a1,s5
.LBE60:
.LBE62:
.LM539:
	lw	s2,48(sp)
	.cfi_restore 18
	lw	s5,36(sp)
	.cfi_restore 21
	addi	sp,sp,64
	.cfi_def_cfa_offset 0
.LVL168:
.LBB63:
.LBB61:
.LM540:
	tail	mbedtls_ccm_finish
.LVL169:
.L123:
	.cfi_restore_state
.LM541:
.LBE61:
.LBE63:
.LM542:
	lw	ra,60(sp)
	.cfi_restore 1
	lw	s0,56(sp)
	.cfi_restore 8
.LVL170:
.LM543:
	lw	s1,52(sp)
	.cfi_restore 9
.LVL171:
.LM544:
	lw	s2,48(sp)
	.cfi_restore 18
	lw	s3,44(sp)
	.cfi_restore 19
.LVL172:
.LM545:
	lw	s4,40(sp)
	.cfi_restore 20
	lw	s5,36(sp)
	.cfi_restore 21
	lw	s6,32(sp)
	.cfi_restore 22
.LVL173:
.LM546:
	lw	s7,28(sp)
	.cfi_restore 23
.LVL174:
.LM547:
	addi	sp,sp,64
	.cfi_def_cfa_offset 0
.LVL175:
.LM548:
	jr	ra
	.cfi_endproc
.LFE41:
	.size	ccm_auth_crypt, .-ccm_auth_crypt
	.section	.text.mbedtls_ccm_star_encrypt_and_tag,"ax",@progbits
	.align	1
	.globl	mbedtls_ccm_star_encrypt_and_tag
	.type	mbedtls_ccm_star_encrypt_and_tag, @function
mbedtls_ccm_star_encrypt_and_tag:
.LVL176:
.LFB42:
.LM549:
	.cfi_startproc
.LM550:
.LM551:
	addi	sp,sp,-32
	.cfi_def_cfa_offset 32
.LM552:
	lw	t1,36(sp)
	sw	a7,0(sp)
	mv	a7,a6
.LVL177:
.LM553:
	sw	t1,8(sp)
	lw	t1,32(sp)
	mv	a6,a5
.LVL178:
.LM554:
	mv	a5,a4
.LVL179:
.LM555:
	sw	t1,4(sp)
	mv	a4,a3
.LVL180:
.LM556:
	mv	a3,a2
.LVL181:
.LM557:
	mv	a2,a1
.LVL182:
.LM558:
	li	a1,3
.LVL183:
.LM559:
	sw	ra,28(sp)
	.cfi_offset 1, -4
.LM560:
	call	ccm_auth_crypt
.LVL184:
.LM561:
	lw	ra,28(sp)
	.cfi_restore 1
	addi	sp,sp,32
	.cfi_def_cfa_offset 0
.LVL185:
.LM562:
	jr	ra
	.cfi_endproc
.LFE42:
	.size	mbedtls_ccm_star_encrypt_and_tag, .-mbedtls_ccm_star_encrypt_and_tag
	.section	.text.mbedtls_ccm_encrypt_and_tag,"ax",@progbits
	.align	1
	.globl	mbedtls_ccm_encrypt_and_tag
	.type	mbedtls_ccm_encrypt_and_tag, @function
mbedtls_ccm_encrypt_and_tag:
.LVL186:
.LFB43:
.LM563:
	.cfi_startproc
.LM564:
.LM565:
	addi	sp,sp,-32
	.cfi_def_cfa_offset 32
.LM566:
	lw	t1,36(sp)
	sw	a7,0(sp)
	mv	a7,a6
.LVL187:
.LM567:
	sw	t1,8(sp)
	lw	t1,32(sp)
	mv	a6,a5
.LVL188:
.LM568:
	mv	a5,a4
.LVL189:
.LM569:
	sw	t1,4(sp)
	mv	a4,a3
.LVL190:
.LM570:
	mv	a3,a2
.LVL191:
.LM571:
	mv	a2,a1
.LVL192:
.LM572:
	li	a1,1
.LVL193:
.LM573:
	sw	ra,28(sp)
	.cfi_offset 1, -4
.LM574:
	call	ccm_auth_crypt
.LVL194:
.LM575:
	lw	ra,28(sp)
	.cfi_restore 1
	addi	sp,sp,32
	.cfi_def_cfa_offset 0
.LVL195:
.LM576:
	jr	ra
	.cfi_endproc
.LFE43:
	.size	mbedtls_ccm_encrypt_and_tag, .-mbedtls_ccm_encrypt_and_tag
	.section	.text.mbedtls_ccm_star_auth_decrypt,"ax",@progbits
	.align	1
	.globl	mbedtls_ccm_star_auth_decrypt
	.type	mbedtls_ccm_star_auth_decrypt, @function
mbedtls_ccm_star_auth_decrypt:
.LVL196:
.LFB46:
.LM577:
	.cfi_startproc
.LM578:
.LM579:
	addi	sp,sp,-48
	.cfi_def_cfa_offset 48
	sw	s1,36(sp)
	.cfi_offset 9, -12
	mv	s1,a1
.LVL197:
.LBB68:
.LBI68:
.LM580:
.LBB69:
.LM581:
.LM582:
.LM583:
.LM584:
	lw	a1,52(sp)
.LVL198:
.LM585:
.LBE69:
.LBE68:
.LM586:
	sw	s0,40(sp)
	.cfi_offset 8, -8
.LBB76:
.LBB72:
.LM587:
	addi	s0,sp,16
.LBE72:
.LBE76:
.LM588:
	sw	s2,32(sp)
.LBB77:
.LBB73:
.LM589:
	sw	a1,8(sp)
	.cfi_offset 18, -16
.LBE73:
.LBE77:
.LM590:
	mv	s2,a7
.LBB78:
.LBB74:
.LM591:
	sw	a7,0(sp)
	sw	s0,4(sp)
	mv	a7,a6
.LVL199:
.LM592:
	li	a1,2
	mv	a6,a5
.LVL200:
.LM593:
	mv	a5,a4
.LVL201:
.LM594:
	mv	a4,a3
.LVL202:
.LM595:
	mv	a3,a2
.LVL203:
.LM596:
	mv	a2,s1
.LVL204:
.LM597:
.LBE74:
.LBE78:
.LM598:
	sw	ra,44(sp)
	.cfi_offset 1, -4
.LBB79:
.LBB75:
.LM599:
	call	ccm_auth_crypt
.LVL205:
.LM600:
	bne	a0,zero,.L131
.LM601:
.LVL206:
.LBB70:
.LBI70:
.LM602:
.LBB71:
.LM603:
.LM604:
	lw	a2,52(sp)
	lw	a0,48(sp)
.LVL207:
.LM605:
	mv	a1,s0
	call	mbedtls_ct_memcmp
.LVL208:
.LM606:
.LM607:
	beq	a0,zero,.L131
.LM608:
.LVL209:
.LM609:
.LBE71:
.LBE70:
.LM610:
	mv	a0,s2
	mv	a1,s1
	call	mbedtls_platform_zeroize
.LVL210:
.LM611:
.LM612:
	li	a0,-15
.LVL211:
.L131:
.LM613:
.LBE75:
.LBE79:
.LM614:
	lw	ra,44(sp)
	.cfi_restore 1
	lw	s0,40(sp)
	.cfi_restore 8
	lw	s1,36(sp)
	.cfi_restore 9
.LVL212:
.LM615:
	lw	s2,32(sp)
	.cfi_restore 18
.LVL213:
.LM616:
	addi	sp,sp,48
	.cfi_def_cfa_offset 0
.LVL214:
.LM617:
	jr	ra
	.cfi_endproc
.LFE46:
	.size	mbedtls_ccm_star_auth_decrypt, .-mbedtls_ccm_star_auth_decrypt
	.section	.text.mbedtls_ccm_auth_decrypt,"ax",@progbits
	.align	1
	.globl	mbedtls_ccm_auth_decrypt
	.type	mbedtls_ccm_auth_decrypt, @function
mbedtls_ccm_auth_decrypt:
.LVL215:
.LFB47:
.LM618:
	.cfi_startproc
.LM619:
.LM620:
	addi	sp,sp,-48
	.cfi_def_cfa_offset 48
	sw	s1,36(sp)
	.cfi_offset 9, -12
	mv	s1,a1
.LVL216:
.LBB84:
.LBI84:
.LM621:
.LBB85:
.LM622:
.LM623:
.LM624:
.LM625:
	lw	a1,52(sp)
.LVL217:
.LM626:
.LBE85:
.LBE84:
.LM627:
	sw	s0,40(sp)
	.cfi_offset 8, -8
.LBB92:
.LBB88:
.LM628:
	addi	s0,sp,16
.LBE88:
.LBE92:
.LM629:
	sw	s2,32(sp)
.LBB93:
.LBB89:
.LM630:
	sw	a1,8(sp)
	.cfi_offset 18, -16
.LBE89:
.LBE93:
.LM631:
	mv	s2,a7
.LBB94:
.LBB90:
.LM632:
	sw	a7,0(sp)
	sw	s0,4(sp)
	mv	a7,a6
.LVL218:
.LM633:
	li	a1,0
	mv	a6,a5
.LVL219:
.LM634:
	mv	a5,a4
.LVL220:
.LM635:
	mv	a4,a3
.LVL221:
.LM636:
	mv	a3,a2
.LVL222:
.LM637:
	mv	a2,s1
.LVL223:
.LM638:
.LBE90:
.LBE94:
.LM639:
	sw	ra,44(sp)
	.cfi_offset 1, -4
.LBB95:
.LBB91:
.LM640:
	call	ccm_auth_crypt
.LVL224:
.LM641:
	bne	a0,zero,.L137
.LM642:
.LVL225:
.LBB86:
.LBI86:
.LM643:
.LBB87:
.LM644:
.LM645:
	lw	a2,52(sp)
	lw	a0,48(sp)
.LVL226:
.LM646:
	mv	a1,s0
	call	mbedtls_ct_memcmp
.LVL227:
.LM647:
.LM648:
	beq	a0,zero,.L137
.LM649:
.LVL228:
.LM650:
.LBE87:
.LBE86:
.LM651:
	mv	a0,s2
	mv	a1,s1
	call	mbedtls_platform_zeroize
.LVL229:
.LM652:
.LM653:
	li	a0,-15
.LVL230:
.L137:
.LM654:
.LBE91:
.LBE95:
.LM655:
	lw	ra,44(sp)
	.cfi_restore 1
	lw	s0,40(sp)
	.cfi_restore 8
	lw	s1,36(sp)
	.cfi_restore 9
.LVL231:
.LM656:
	lw	s2,32(sp)
	.cfi_restore 18
.LVL232:
.LM657:
	addi	sp,sp,48
	.cfi_def_cfa_offset 0
.LVL233:
.LM658:
	jr	ra
	.cfi_endproc
.LFE47:
	.size	mbedtls_ccm_auth_decrypt, .-mbedtls_ccm_auth_decrypt
	.section	.rodata.mbedtls_ccm_self_test.str1.4,"aMS",@progbits,1
	.align	2
.LC0:
	.string	"  CCM: setup failed"
	.align	2
.LC1:
	.string	"  CCM-AES #%u: "
	.align	2
.LC2:
	.string	"failed\n"
	.align	2
.LC3:
	.string	"passed\n"
	.align	2
.LC4:
	.string	"\n"
	.section	.text.mbedtls_ccm_self_test,"ax",@progbits
	.align	1
	.globl	mbedtls_ccm_self_test
	.type	mbedtls_ccm_self_test, @function
mbedtls_ccm_self_test:
.LVL234:
.LFB48:
.LM659:
	.cfi_startproc
.LM660:
.LM661:
.LM662:
.LM663:
.LM664:
.LM665:
.LM666:
	addi	sp,sp,-304
	.cfi_def_cfa_offset 304
	sw	s2,288(sp)
	.cfi_offset 18, -16
	mv	s2,a0
.LM667:
	addi	a0,sp,112
.LVL235:
.LM668:
	sw	ra,300(sp)
	sw	s0,296(sp)
	sw	s1,292(sp)
	sw	s3,284(sp)
	sw	s4,280(sp)
	sw	s5,276(sp)
	sw	s6,272(sp)
	sw	s7,268(sp)
	sw	s8,264(sp)
	sw	s9,260(sp)
	sw	s10,256(sp)
	sw	s11,252(sp)
	.cfi_offset 1, -4
	.cfi_offset 8, -8
	.cfi_offset 9, -12
	.cfi_offset 19, -20
	.cfi_offset 20, -24
	.cfi_offset 21, -28
	.cfi_offset 22, -32
	.cfi_offset 23, -36
	.cfi_offset 24, -40
	.cfi_offset 25, -44
	.cfi_offset 26, -48
	.cfi_offset 27, -52
.LM669:
	call	mbedtls_ccm_init
.LVL236:
.LM670:
.LM671:
	lui	a2,%hi(key_test_data)
	li	a3,128
	addi	a2,a2,%lo(key_test_data)
	li	a1,2
	addi	a0,sp,112
	call	mbedtls_ccm_setkey
.LVL237:
.LM672:
	beq	a0,zero,.L144
.LM673:
.LM674:
	beq	s2,zero,.L146
.LM675:
	lui	a0,%hi(.LC0)
	addi	a0,a0,%lo(.LC0)
.LVL238:
.L172:
.LM676:
	call	printf
.LVL239:
.L146:
.LM677:
	li	s1,1
	j	.L143
.LVL240:
.L144:
.LM678:
	lui	a5,%hi(msg_len_test_data)
	addi	a5,a5,%lo(msg_len_test_data)
	sw	a5,40(sp)
.LM679:
	lui	a5,%hi(msg_test_data)
	addi	a5,a5,%lo(msg_test_data)
	sw	a5,36(sp)
.LM680:
	lui	a5,%hi(iv_len_test_data)
	lui	s3,%hi(res_test_data)
	addi	a5,a5,%lo(iv_len_test_data)
.LM681:
	lui	s6,%hi(add_len_test_data)
.LM682:
	lui	s7,%hi(tag_len_test_data)
	addi	s3,s3,%lo(res_test_data)
.LM683:
	li	s0,0
	li	s5,1
.LM684:
	sw	a5,44(sp)
.LM685:
	addi	s6,s6,%lo(add_len_test_data)
.LM686:
	addi	s7,s7,%lo(tag_len_test_data)
.LVL241:
.L156:
.LM687:
.LM688:
	beq	s2,zero,.L147
.LM689:
	lui	a0,%hi(.LC1)
	mv	a1,s5
	addi	a0,a0,%lo(.LC1)
	call	printf
.LVL242:
.L147:
.LM690:
	li	a2,24
	li	a1,0
	addi	a0,sp,56
	call	memset
.LVL243:
.LM691:
	addi	s4,sp,80
	li	a2,32
	li	a1,0
	mv	a0,s4
	call	memset
.LVL244:
.LM692:
.LM693:
	lw	a5,40(sp)
.LM694:
	lw	a1,36(sp)
	addi	a0,sp,56
.LM695:
	add	a5,s0,a5
	lw	s1,0(a5)
.LM696:
	lui	s10,%hi(ad_test_data)
	lui	s9,%hi(iv_test_data)
.LM697:
	mv	a2,s1
	call	memcpy
.LVL245:
.LM698:
.LM699:
	lw	a5,44(sp)
.LM700:
	add	s11,s4,s1
	mv	a7,s4
.LM701:
	add	a5,s0,a5
	lw	a5,0(a5)
.LM702:
	addi	a6,sp,56
	addi	a4,s10,%lo(ad_test_data)
.LM703:
	sw	a5,28(sp)
.LM704:
	add	a5,s0,s6
	lw	a5,0(a5)
.LM705:
	lw	a3,28(sp)
	addi	a2,s9,%lo(iv_test_data)
.LM706:
	sw	a5,32(sp)
.LM707:
	add	a5,s0,s7
	lw	s8,0(a5)
.LM708:
	lw	a5,32(sp)
	sw	s11,0(sp)
	sw	s8,4(sp)
	mv	a1,s1
	addi	a0,sp,112
	call	mbedtls_ccm_encrypt_and_tag
.LVL246:
.LM709:
.LM710:
	bne	a0,zero,.L149
.LM711:
	add	a2,s1,s8
	mv	a1,s3
	mv	a0,s4
.LVL247:
.LM712:
	call	memcmp
.LVL248:
.LM713:
	beq	a0,zero,.L170
.LVL249:
.L149:
.LM714:
.LM715:
	beq	s2,zero,.L146
.LM716:
	lui	a0,%hi(.LC2)
	addi	a0,a0,%lo(.LC2)
	j	.L172
.LVL250:
.L170:
.LM717:
	li	a2,24
	li	a1,0
	addi	a0,sp,56
	call	memset
.LVL251:
.LM718:
.LM719:
	lw	a5,32(sp)
	lw	a3,28(sp)
	sw	s8,4(sp)
	sw	s11,0(sp)
	addi	a7,sp,56
	mv	a6,s4
	addi	a4,s10,%lo(ad_test_data)
	addi	a2,s9,%lo(iv_test_data)
	mv	a1,s1
	addi	a0,sp,112
	call	mbedtls_ccm_auth_decrypt
.LVL252:
.LM720:
.LM721:
	bne	a0,zero,.L149
.LM722:
	lw	a1,36(sp)
	mv	a2,s1
	addi	a0,sp,56
.LVL253:
.LM723:
	call	memcmp
.LVL254:
	mv	s1,a0
.LM724:
	bne	a0,zero,.L149
.LM725:
.LM726:
	beq	s2,zero,.L155
.LM727:
	lui	a0,%hi(.LC3)
	addi	a0,a0,%lo(.LC3)
	call	printf
.LVL255:
.L155:
.LM728:
.LM729:
	addi	s0,s0,4
	li	a5,12
	addi	s5,s5,1
.LVL256:
.LM730:
	addi	s3,s3,32
	bne	s0,a5,.L156
.LM731:
.LVL257:
.LBB100:
.LBI100:
.LM732:
.LM733:
.LBB101:
.LBI101:
.LM734:
.LBB102:
.LM735:
	addi	a0,sp,168
	call	mbedtls_cipher_free
.LVL258:
.LM736:
	li	a1,128
	addi	a0,sp,112
.LVL259:
.LM737:
	call	mbedtls_platform_zeroize
.LVL260:
.LM738:
.LBE102:
.LBE101:
.LBE100:
.LM739:
.LM740:
	beq	s2,zero,.L143
.LM741:
	lui	a0,%hi(.LC4)
	addi	a0,a0,%lo(.LC4)
	call	printf
.LVL261:
.L143:
.LM742:
	lw	ra,300(sp)
	.cfi_restore 1
	lw	s0,296(sp)
	.cfi_restore 8
	lw	s2,288(sp)
	.cfi_restore 18
.LVL262:
.LM743:
	lw	s3,284(sp)
	.cfi_restore 19
	lw	s4,280(sp)
	.cfi_restore 20
	lw	s5,276(sp)
	.cfi_restore 21
	lw	s6,272(sp)
	.cfi_restore 22
	lw	s7,268(sp)
	.cfi_restore 23
	lw	s8,264(sp)
	.cfi_restore 24
	lw	s9,260(sp)
	.cfi_restore 25
	lw	s10,256(sp)
	.cfi_restore 26
	lw	s11,252(sp)
	.cfi_restore 27
	mv	a0,s1
	lw	s1,292(sp)
	.cfi_restore 9
	addi	sp,sp,304
	.cfi_def_cfa_offset 0
	jr	ra
	.cfi_endproc
.LFE48:
	.size	mbedtls_ccm_self_test, .-mbedtls_ccm_self_test
	.section	.rodata.res_test_data,"a"
	.align	2
	.type	res_test_data, @object
	.size	res_test_data, 96
res_test_data:
	.base64	"cWIBW02sJV0A"
	.zero	23
	.base64	"0qHw4FHqX2IIGneSBz1ZPR/GT7+szQA="
	.zero	9
	.base64	"47IBqfW3GnqbHOrszZfnC2F2qtmkQoqlSEOS+8GwmVE="
	.section	.rodata.tag_len_test_data,"a"
	.align	2
	.type	tag_len_test_data, @object
	.size	tag_len_test_data, 12
tag_len_test_data:
	.word	4
	.word	6
	.word	8
	.section	.rodata.msg_len_test_data,"a"
	.align	2
	.type	msg_len_test_data, @object
	.size	msg_len_test_data, 12
msg_len_test_data:
	.word	4
	.word	16
	.word	24
	.section	.rodata.add_len_test_data,"a"
	.align	2
	.type	add_len_test_data, @object
	.size	add_len_test_data, 12
add_len_test_data:
	.word	8
	.word	16
	.word	20
	.section	.rodata.iv_len_test_data,"a"
	.align	2
	.type	iv_len_test_data, @object
	.size	iv_len_test_data, 12
iv_len_test_data:
	.word	7
	.word	8
	.word	12
	.section	.rodata.msg_test_data,"a"
	.align	2
	.type	msg_test_data, @object
	.size	msg_test_data, 24
msg_test_data:
	.ascii	" !\"#$%&'()*+,-./01234567"
	.section	.rodata.ad_test_data,"a"
	.align	2
	.type	ad_test_data, @object
	.size	ad_test_data, 20
ad_test_data:
	.base64	"AAECAwQFBgcICQoLDA0ODxAREhM="
	.section	.rodata.iv_test_data,"a"
	.align	2
	.type	iv_test_data, @object
	.size	iv_test_data, 12
iv_test_data:
	.base64	"EBESExQVFhcYGRob"
	.section	.rodata.key_test_data,"a"
	.align	2
	.type	key_test_data, @object
	.size	key_test_data, 16
key_test_data:
	.ascii	"@ABCDEFGHIJKLMNO"
	.text
.Letext0:
	.section	.note.GNU-stack,"",@progbits
