	.file	"cipher.c"
	.option nopic
	.attribute arch, "rv32i2p1_m2p0_f2p2_c2p0_zicsr2p0_zmmul1p0_zca1p0_zcf1p0"
	.attribute unaligned_access, 0
	.attribute stack_align, 16
	.text
.Ltext0:
	.cfi_sections	.debug_frame
	.section	.text.mbedtls_ct_bool,"ax",@progbits
	.align	1
	.type	mbedtls_ct_bool, @function
mbedtls_ct_bool:
.LVL0:
.LFB28:
.LM1:
	.cfi_startproc
.LM2:
.LBB126:
.LBI126:
.LM3:
.LBB127:
.LM4:
.LVL1:
.LM5:
.LM6:
.LBE127:
.LBE126:
.LM7:
.LM8:
.LM9:
.LM10:
	srli	a5,a0,1
.LM11:
	neg	a5,a5
.LM12:
	neg	a0,a0
.LVL2:
.LM13:
	or	a0,a5,a0
.LVL3:
.LM14:
	srai	a0,a0,31
	ret
	.cfi_endproc
.LFE28:
	.size	mbedtls_ct_bool, .-mbedtls_ct_bool
	.section	.text.mbedtls_ct_uint_lt,"ax",@progbits
	.align	1
	.type	mbedtls_ct_uint_lt, @function
mbedtls_ct_uint_lt:
.LVL4:
.LFB30:
.LM15:
	.cfi_startproc
.LM16:
.LBB128:
.LBI128:
.LM17:
.LBB129:
.LM18:
.LBE129:
.LBE128:
.LM19:
	addi	sp,sp,-32
	.cfi_def_cfa_offset 32
	sw	s0,24(sp)
	sw	ra,28(sp)
	.cfi_offset 8, -8
	.cfi_offset 1, -4
.LBB131:
.LBB130:
.LM20:
	mv	s0,a0
.LVL5:
.LM21:
.LM22:
.LBE130:
.LBE131:
.LM23:
.LBB132:
.LBI132:
.LM24:
.LBB133:
.LM25:
.LVL6:
.LM26:
.LM27:
.LBE133:
.LBE132:
.LM28:
.LM29:
	xor	a0,a1,s0
.LVL7:
.LM30:
	srli	a0,a0,31
.LM31:
	sw	a1,12(sp)
.LM32:
	call	mbedtls_ct_bool
.LVL8:
.LM33:
.LBB134:
.LBI134:
.LM34:
.LBB135:
.LM35:
.LBB136:
.LBI136:
.LM36:
.LBB137:
.LM37:
	mv	a5,a0
.LVL9:
.LM38:
.LM39:
.LBE137:
.LBE136:
.LM40:
.LM41:
.LBE135:
.LBE134:
.LM42:
.LM43:
.LM44:
	lw	a1,12(sp)
.LBB140:
.LBB138:
.LM45:
	not	a5,a5
.LVL10:
.LM46:
.LBE138:
.LBE140:
.LM47:
	lw	ra,28(sp)
	.cfi_restore 1
.LM48:
	sub	s0,s0,a1
.LVL11:
.LBB141:
.LBB139:
.LM49:
	and	s0,s0,a5
.LM50:
	and	a0,a0,a1
.LVL12:
.LM51:
	or	a0,s0,a0
.LBE139:
.LBE141:
.LM52:
	lw	s0,24(sp)
	.cfi_restore 8
.LM53:
	srli	a0,a0,31
.LVL13:
.LM54:
	addi	sp,sp,32
	.cfi_def_cfa_offset 0
.LVL14:
.LM55:
	tail	mbedtls_ct_bool
.LVL15:
.LM56:
	.cfi_endproc
.LFE30:
	.size	mbedtls_ct_uint_lt, .-mbedtls_ct_uint_lt
	.section	.text.mbedtls_ct_uint_ne,"ax",@progbits
	.align	1
	.type	mbedtls_ct_uint_ne, @function
mbedtls_ct_uint_ne:
.LVL16:
.LFB31:
.LM57:
	.cfi_startproc
.LM58:
.LBB142:
.LBI142:
.LM59:
.LBB143:
.LM60:
.LVL17:
.LM61:
.LM62:
.LBE143:
.LBE142:
.LBB144:
.LBI144:
.LM63:
.LBB145:
.LM64:
.LVL18:
.LM65:
.LM66:
.LBE145:
.LBE144:
.LM67:
.LM68:
	xor	a0,a1,a0
.LVL19:
.LM69:
	tail	mbedtls_ct_bool
.LVL20:
.LM70:
	.cfi_endproc
.LFE31:
	.size	mbedtls_ct_uint_ne, .-mbedtls_ct_uint_ne
	.section	.text.add_pkcs_padding,"ax",@progbits
	.align	1
	.type	add_pkcs_padding, @function
add_pkcs_padding:
.LVL21:
.LFB67:
.LM71:
	.cfi_startproc
.LM72:
.LM73:
	sub	a1,a1,a2
.LVL22:
.LM74:
.LM75:
.LM76:
	li	a5,0
.LVL23:
.L6:
.LM77:
	bltu	a5,a1,.L7
.LM78:
	ret
.L7:
.LM79:
.LM80:
	add	a4,a0,a5
	add	a4,a4,a2
.LM81:
	addi	a5,a5,1
.LVL24:
.LM82:
	sb	a1,0(a4)
.LM83:
	andi	a5,a5,0xff
	j	.L6
	.cfi_endproc
.LFE67:
	.size	add_pkcs_padding, .-add_pkcs_padding
	.section	.text.add_one_and_zeros_padding,"ax",@progbits
	.align	1
	.type	add_one_and_zeros_padding, @function
add_one_and_zeros_padding:
.LVL25:
.LFB69:
.LM84:
	.cfi_startproc
.LM85:
.LM86:
	add	a5,a0,a2
	li	a4,-128
	sb	a4,0(a5)
.LM87:
	sub	a1,a1,a2
.LVL26:
.LM88:
.LM89:
.LM90:
.LM91:
	li	a5,1
.LVL27:
.L9:
.LM92:
	bltu	a5,a1,.L10
.LM93:
	ret
.L10:
.LM94:
.LM95:
	add	a4,a0,a5
	add	a4,a4,a2
.LM96:
	addi	a5,a5,1
.LVL28:
.LM97:
	sb	zero,0(a4)
.LM98:
	andi	a5,a5,0xff
	j	.L9
	.cfi_endproc
.LFE69:
	.size	add_one_and_zeros_padding, .-add_one_and_zeros_padding
	.section	.text.get_one_and_zeros_padding,"ax",@progbits
	.align	1
	.type	get_one_and_zeros_padding, @function
get_one_and_zeros_padding:
.LVL29:
.LFB70:
.LM99:
	.cfi_startproc
.LM100:
.LM101:
	beq	a2,zero,.L15
	beq	a0,zero,.L15
.LM102:
	addi	sp,sp,-48
	.cfi_def_cfa_offset 48
	sw	s0,40(sp)
	.cfi_offset 8, -8
.LBB146:
.LBB147:
.LM103:
	li	s0,-1
.LBE147:
.LBE146:
.LM104:
	sw	s2,32(sp)
	sw	s3,28(sp)
	sw	s4,24(sp)
	sw	s7,12(sp)
	sw	ra,44(sp)
	sw	s1,36(sp)
	sw	s5,20(sp)
	sw	s6,16(sp)
	sw	s8,8(sp)
	.cfi_offset 18, -16
	.cfi_offset 19, -20
	.cfi_offset 20, -24
	.cfi_offset 23, -36
	.cfi_offset 1, -4
	.cfi_offset 9, -12
	.cfi_offset 21, -28
	.cfi_offset 22, -32
	.cfi_offset 24, -40
	mv	s7,a3
	mv	s2,a2
	mv	s4,a0
.LM105:
.LVL30:
.LBB149:
.LBI146:
.LM106:
.LBB148:
.LM107:
	mv	s3,s0
.LVL31:
.LM108:
.LM109:
.LBE148:
.LBE149:
.LM110:
.LBB150:
.LBI150:
.LM111:
.LBB151:
.LM112:
.LVL32:
.LM113:
.LM114:
.LBE151:
.LBE150:
.LM115:
.LM116:
	sw	zero,0(a2)
.LM117:
.LBB152:
.LM118:
.LM119:
	addi	s1,a1,-1
.LVL33:
.L13:
.LM120:
	bge	s1,zero,.L14
.LM121:
.LBE152:
.LM122:
.LM123:
	sw	s0,0(s7)
.LM124:
.LM125:
	lw	ra,44(sp)
	.cfi_remember_state
	.cfi_restore 1
	lw	s0,40(sp)
	.cfi_restore 8
.LVL34:
.LM126:
	lw	s1,36(sp)
	.cfi_restore 9
.LVL35:
.LM127:
	lw	s2,32(sp)
	.cfi_restore 18
.LVL36:
.LM128:
	lw	s3,28(sp)
	.cfi_restore 19
.LVL37:
.LM129:
	lw	s4,24(sp)
	.cfi_restore 20
.LVL38:
.LM130:
	lw	s5,20(sp)
	.cfi_restore 21
	lw	s6,16(sp)
	.cfi_restore 22
	lw	s7,12(sp)
	.cfi_restore 23
.LVL39:
.LM131:
	lw	s8,8(sp)
	.cfi_restore 24
.LM132:
	li	a0,0
.LM133:
	addi	sp,sp,48
	.cfi_def_cfa_offset 0
	jr	ra
.LVL40:
.L14:
	.cfi_restore_state
.LBB175:
.LBB153:
.LM134:
	add	s8,s4,s1
.LM135:
	lbu	a0,0(s8)
	call	mbedtls_ct_bool
.LVL41:
.LM136:
.LBB154:
.LBI154:
.LM137:
.LBB155:
.LM138:
.LM139:
	and	s6,s3,a0
.LVL42:
.LM140:
.LBE155:
.LBE154:
.LM141:
.LBB156:
.LBI156:
.LM142:
.LM143:
.LBB157:
.LBI157:
.LM144:
.LBB158:
.LM145:
.LBB159:
.LBI159:
.LM146:
.LBB160:
.LM147:
	mv	a5,s6
.LVL43:
.LM148:
.LM149:
.LBE160:
.LBE159:
.LM150:
.LM151:
	lw	a4,0(s2)
.LM152:
	not	a5,a5
.LBE158:
.LBE157:
.LBE156:
.LBB163:
.LBB164:
.LM153:
	not	s5,a0
.LBE164:
.LBE163:
.LBB166:
.LBB162:
.LBB161:
.LM154:
	and	a5,a5,a4
.LM155:
	and	a4,s6,s1
.LM156:
	or	a5,a5,a4
.LBE161:
.LBE162:
.LBE166:
.LM157:
	sw	a5,0(s2)
.LM158:
.LM159:
	lbu	a0,0(s8)
.LVL44:
.LM160:
	li	a1,128
	call	mbedtls_ct_uint_ne
.LVL45:
.LBB167:
.LBI167:
.LM161:
.LM162:
.LBB168:
.LBI168:
.LM163:
.LBB169:
.LM164:
.LBB170:
.LBI170:
.LM165:
.LBB171:
.LM166:
	mv	a5,s6
.LVL46:
.LM167:
.LM168:
.LBE171:
.LBE170:
.LM169:
.LM170:
	not	a5,a5
.LVL47:
.LM171:
	and	s0,a5,s0
.LVL48:
.LM172:
	and	a0,a0,s6
.LVL49:
.LM173:
	or	s0,s0,a0
.LVL50:
.LM174:
.LBE169:
.LBE168:
.LBE167:
.LM175:
.LBB172:
.LBI163:
.LM176:
.LBB165:
.LM177:
.LM178:
.LBE165:
.LBE172:
.LBB173:
.LBI173:
.LM179:
.LBB174:
.LM180:
.LM181:
	and	s3,s3,s5
.LVL51:
.LM182:
.LBE174:
.LBE173:
.LBE153:
.LM183:
	addi	s1,s1,-1
.LVL52:
.LM184:
	j	.L13
.LVL53:
.L15:
	.cfi_def_cfa_offset 0
	.cfi_restore 1
	.cfi_restore 8
	.cfi_restore 9
	.cfi_restore 18
	.cfi_restore 19
	.cfi_restore 20
	.cfi_restore 21
	.cfi_restore 22
	.cfi_restore 23
	.cfi_restore 24
.LM185:
.LBE175:
.LM186:
	li	a0,-24576
.LVL54:
.LM187:
	addi	a0,a0,-256
.LM188:
	ret
	.cfi_endproc
.LFE70:
	.size	get_one_and_zeros_padding, .-get_one_and_zeros_padding
	.section	.text.add_zeros_and_len_padding,"ax",@progbits
	.align	1
	.type	add_zeros_and_len_padding, @function
add_zeros_and_len_padding:
.LVL55:
.LFB71:
.LM189:
	.cfi_startproc
.LM190:
.LM191:
	sub	a3,a1,a2
.LVL56:
.LM192:
.LM193:
.LM194:
	li	a5,1
.LVL57:
.L21:
.LM195:
	bltu	a5,a3,.L22
.LM196:
.LM197:
	add	a0,a0,a1
.LVL58:
.LM198:
	sb	a3,-1(a0)
.LM199:
	ret
.LVL59:
.L22:
.LM200:
.LM201:
	add	a4,a0,a5
	add	a4,a4,a2
.LM202:
	addi	a5,a5,1
.LVL60:
.LM203:
	sb	zero,-1(a4)
.LM204:
	andi	a5,a5,0xff
	j	.L21
	.cfi_endproc
.LFE71:
	.size	add_zeros_and_len_padding, .-add_zeros_and_len_padding
	.section	.text.get_zeros_padding,"ax",@progbits
	.align	1
	.type	get_zeros_padding, @function
get_zeros_padding:
.LVL61:
.LFB74:
.LM205:
	.cfi_startproc
.LM206:
.LM207:
.LBB176:
.LBI176:
.LM208:
.LBB177:
.LM209:
.LBE177:
.LBE176:
.LM210:
	addi	sp,sp,-48
	.cfi_def_cfa_offset 48
	sw	s0,40(sp)
	sw	ra,44(sp)
	sw	s1,36(sp)
	sw	s2,32(sp)
	sw	s3,28(sp)
	sw	s4,24(sp)
	.cfi_offset 8, -8
	.cfi_offset 1, -4
	.cfi_offset 9, -12
	.cfi_offset 18, -16
	.cfi_offset 19, -20
	.cfi_offset 20, -24
.LBB179:
.LBB178:
.LM211:
	li	s0,0
.LVL62:
.LM212:
.LM213:
.LBE178:
.LBE179:
.LM214:
.LM215:
	beq	a2,zero,.L27
	beq	a0,zero,.L27
	mv	s1,a1
	mv	s3,a0
	li	s2,0
.LVL63:
.L25:
.LM216:
	sw	s2,0(a2)
.LVL64:
.LM217:
	bne	s1,zero,.L26
.LM218:
.LM219:
	sw	zero,0(a3)
.LM220:
.LM221:
	li	a0,0
.LVL65:
.L23:
.LM222:
	lw	ra,44(sp)
	.cfi_remember_state
	.cfi_restore 1
	lw	s0,40(sp)
	.cfi_restore 8
.LVL66:
.LM223:
	lw	s1,36(sp)
	.cfi_restore 9
	lw	s2,32(sp)
	.cfi_restore 18
	lw	s3,28(sp)
	.cfi_restore 19
	lw	s4,24(sp)
	.cfi_restore 20
	addi	sp,sp,48
	.cfi_def_cfa_offset 0
	jr	ra
.LVL67:
.L26:
	.cfi_restore_state
.LM224:
	addi	s4,s1,-1
	add	a5,s3,s4
.LM225:
	lbu	a0,0(a5)
	li	a1,0
	sw	a3,12(sp)
	sw	a2,8(sp)
.LM226:
.LVL68:
.LM227:
.LM228:
	call	mbedtls_ct_uint_ne
.LVL69:
.LBB180:
.LBI180:
.LM229:
.LBB181:
.LM230:
.LM231:
	or	a4,a0,s0
.LVL70:
.LM232:
.LBE181:
.LBE180:
.LM233:
.LM234:
	not	s0,s0
.LVL71:
.LM235:
	and	s0,s0,a0
.LVL72:
.LBB182:
.LBI182:
.LM236:
.LM237:
.LBB183:
.LBI183:
.LM238:
.LBB184:
.LM239:
.LBB185:
.LBI185:
.LM240:
.LBB186:
.LM241:
	mv	a5,s0
.LVL73:
.LM242:
.LM243:
.LBE186:
.LBE185:
.LM244:
.LM245:
	not	a5,a5
.LVL74:
.LM246:
	and	s1,s1,s0
.LVL75:
.LM247:
	and	s2,a5,s2
.LVL76:
.LM248:
	or	s2,s2,s1
.LVL77:
.LM249:
.LBE184:
.LBE183:
.LBE182:
.LM250:
.LM251:
	lw	a3,12(sp)
	lw	a2,8(sp)
.LM252:
	mv	s0,a4
.LM253:
	mv	s1,s4
	j	.L25
.LVL78:
.L27:
.LM254:
	li	a0,-24576
.LVL79:
.LM255:
	addi	a0,a0,-256
	j	.L23
	.cfi_endproc
.LFE74:
	.size	get_zeros_padding, .-get_zeros_padding
	.section	.text.get_no_padding,"ax",@progbits
	.align	1
	.type	get_no_padding, @function
get_no_padding:
.LVL80:
.LFB75:
.LM256:
	.cfi_startproc
.LM257:
.LM258:
	beq	a2,zero,.L31
	beq	a0,zero,.L31
.LM259:
.LM260:
	sw	a1,0(a2)
.LM261:
.LM262:
	sw	zero,0(a3)
.LM263:
.LM264:
	li	a0,0
.LVL81:
.LM265:
	ret
.LVL82:
.L31:
.LM266:
	li	a0,-24576
.LVL83:
.LM267:
	addi	a0,a0,-256
.LM268:
	ret
	.cfi_endproc
.LFE75:
	.size	get_no_padding, .-get_no_padding
	.section	.text.add_zeros_padding,"ax",@progbits
	.align	1
	.type	add_zeros_padding, @function
add_zeros_padding:
.LVL84:
.LFB73:
.LM269:
	.cfi_startproc
.LM270:
.LM271:
	mv	a5,a2
.LM272:
	add	a0,a0,a5
.LVL85:
.LM273:
	sub	a2,a1,a2
.LVL86:
.LM274:
	li	a1,0
.LVL87:
.LM275:
	tail	memset
.LVL88:
.LM276:
	.cfi_endproc
.LFE73:
	.size	add_zeros_padding, .-add_zeros_padding
	.section	.text.mbedtls_get_pkcs_padding,"ax",@progbits
	.align	1
	.type	mbedtls_get_pkcs_padding, @function
mbedtls_get_pkcs_padding:
.LVL89:
.LFB68:
.LM277:
	.cfi_startproc
.LM278:
.LM279:
.LM280:
.LM281:
	beq	a0,zero,.L37
	beq	a2,zero,.L37
.LM282:
	addi	sp,sp,-48
	.cfi_def_cfa_offset 48
.LM283:
	add	a5,a0,a1
.LM284:
	sw	ra,44(sp)
	sw	s0,40(sp)
	sw	s1,36(sp)
	sw	s2,32(sp)
	sw	s3,28(sp)
	sw	s4,24(sp)
	sw	s5,20(sp)
	sw	s7,12(sp)
	sw	s6,16(sp)
	sw	s8,8(sp)
	.cfi_offset 1, -4
	.cfi_offset 8, -8
	.cfi_offset 9, -12
	.cfi_offset 18, -16
	.cfi_offset 19, -20
	.cfi_offset 20, -24
	.cfi_offset 21, -28
	.cfi_offset 23, -36
	.cfi_offset 22, -32
	.cfi_offset 24, -40
.LM285:
	lbu	s6,-1(a5)
	mv	s1,a1
	mv	s3,a0
.LM286:
.LVL90:
.LM287:
.LBB204:
.LBI204:
.LM288:
.LBB205:
.LM289:
.LM290:
	mv	a1,s6
.LVL91:
.LM291:
	mv	a0,s1
.LVL92:
.LM292:
	mv	s5,a3
	mv	s4,a2
	call	mbedtls_ct_uint_lt
.LVL93:
.LM293:
	mv	s2,a0
.LVL94:
.LM294:
.LBE205:
.LBE204:
.LM295:
.LBB206:
.LBI206:
.LM296:
.LBB207:
.LM297:
.LM298:
	li	a1,0
	mv	a0,s6
.LVL95:
.LM299:
	call	mbedtls_ct_uint_ne
.LVL96:
.LM300:
.LBE207:
.LBE206:
.LBB209:
.LBI209:
.LM301:
.LBB210:
.LM302:
.LBE210:
.LBE209:
.LBB212:
.LBB208:
.LM303:
	not	s0,a0
.LVL97:
.LM304:
.LBE208:
.LBE212:
.LBB213:
.LBB211:
.LM305:
	or	s0,s0,s2
.LVL98:
.LM306:
.LBE211:
.LBE213:
.LM307:
.LM308:
	sub	s7,s1,s6
.LVL99:
.LM309:
.LM310:
	li	s2,0
.LVL100:
.L35:
.LM311:
	bne	s2,s1,.L36
.LM312:
.LVL101:
.LBB214:
.LBI214:
.LM313:
.LBB215:
.LM314:
.LBB216:
.LBI216:
.LM315:
.LBB217:
.LM316:
	mv	a5,s0
.LVL102:
.LM317:
.LM318:
.LBE217:
.LBE216:
.LM319:
.LM320:
	not	a5,a5
.LM321:
	and	a5,a5,s7
.LBE215:
.LBE214:
.LM322:
	sw	a5,0(s4)
.LM323:
.LM324:
	sw	s0,0(s5)
.LM325:
.LM326:
	lw	ra,44(sp)
	.cfi_remember_state
	.cfi_restore 1
	lw	s0,40(sp)
	.cfi_restore 8
.LVL103:
.LM327:
	lw	s1,36(sp)
	.cfi_restore 9
.LVL104:
.LM328:
	lw	s2,32(sp)
	.cfi_restore 18
.LVL105:
.LM329:
	lw	s3,28(sp)
	.cfi_restore 19
.LVL106:
.LM330:
	lw	s4,24(sp)
	.cfi_restore 20
.LVL107:
.LM331:
	lw	s5,20(sp)
	.cfi_restore 21
.LVL108:
.LM332:
	lw	s6,16(sp)
	.cfi_restore 22
	lw	s7,12(sp)
	.cfi_restore 23
.LVL109:
.LM333:
	lw	s8,8(sp)
	.cfi_restore 24
.LM334:
	li	a0,0
.LM335:
	addi	sp,sp,48
	.cfi_def_cfa_offset 0
	jr	ra
.LVL110:
.L36:
	.cfi_restore_state
.LBB218:
.LM336:
.LBB219:
.LBI219:
.LM337:
.LBB220:
.LM338:
.LM339:
	mv	a1,s7
	mv	a0,s2
	call	mbedtls_ct_uint_lt
.LVL111:
.LBE220:
.LBE219:
.LM340:
	add	a5,s3,s2
.LBB223:
.LBB221:
.LM341:
	mv	s8,a0
.LVL112:
.LM342:
.LBE221:
.LBE223:
.LM343:
.LM344:
	lbu	a0,0(a5)
.LVL113:
.LM345:
	mv	a1,s6
.LBE218:
.LM346:
	addi	s2,s2,1
.LVL114:
.LBB233:
.LM347:
	call	mbedtls_ct_uint_ne
.LVL115:
.LM348:
.LBB224:
.LBI224:
.LM349:
.LBB225:
.LM350:
.LM351:
.LBE225:
.LBE224:
.LBB227:
.LBI227:
.LM352:
.LBB228:
.LM353:
.LBE228:
.LBE227:
.LBB230:
.LBB222:
.LM354:
	not	a5,s8
.LVL116:
.LM355:
.LBE222:
.LBE230:
.LBB231:
.LBB226:
.LM356:
	and	a5,a5,a0
.LVL117:
.LM357:
.LBE226:
.LBE231:
.LBB232:
.LBB229:
.LM358:
	or	s0,s0,a5
.LVL118:
.LM359:
.LBE229:
.LBE232:
.LBE233:
.LM360:
	j	.L35
.LVL119:
.L37:
	.cfi_def_cfa_offset 0
	.cfi_restore 1
	.cfi_restore 8
	.cfi_restore 9
	.cfi_restore 18
	.cfi_restore 19
	.cfi_restore 20
	.cfi_restore 21
	.cfi_restore 22
	.cfi_restore 23
	.cfi_restore 24
.LM361:
	li	a0,-24576
.LVL120:
.LM362:
	addi	a0,a0,-256
.LM363:
	ret
	.cfi_endproc
.LFE68:
	.size	mbedtls_get_pkcs_padding, .-mbedtls_get_pkcs_padding
	.section	.text.get_zeros_and_len_padding,"ax",@progbits
	.align	1
	.type	get_zeros_and_len_padding, @function
get_zeros_and_len_padding:
.LVL121:
.LFB72:
.LM364:
	.cfi_startproc
.LM365:
.LM366:
.LM367:
.LM368:
.LM369:
	beq	a0,zero,.L46
	beq	a2,zero,.L46
.LM370:
	addi	sp,sp,-32
	.cfi_def_cfa_offset 32
	sw	s2,16(sp)
	sw	s4,8(sp)
	.cfi_offset 18, -16
	.cfi_offset 20, -24
	mv	s2,a0
.LM371:
	addi	s4,a1,-1
.LM372:
	sw	ra,28(sp)
	sw	s1,20(sp)
	sw	s3,12(sp)
	sw	s5,4(sp)
.LM373:
	add	a5,s2,s4
.LM374:
	sw	s0,24(sp)
	sw	s6,0(sp)
	.cfi_offset 1, -4
	.cfi_offset 9, -12
	.cfi_offset 19, -20
	.cfi_offset 21, -28
	.cfi_offset 8, -8
	.cfi_offset 22, -32
.LM375:
	lbu	s0,0(a5)
	mv	a0,a1
.LVL122:
.LM376:
.LM377:
	mv	s3,a3
.LM378:
	sub	s5,a1,s0
.LM379:
	sw	s5,0(a2)
.LVL123:
.LM380:
.LBB247:
.LBI247:
.LM381:
.LBB248:
.LM382:
.LM383:
	mv	a1,s0
.LVL124:
.LM384:
	call	mbedtls_ct_uint_lt
.LVL125:
.LM385:
	mv	s1,a0
.LVL126:
.LM386:
.LBE248:
.LBE247:
.LM387:
.LBB249:
.LBI249:
.LM388:
.LBB250:
.LM389:
.LM390:
	li	a1,0
	mv	a0,s0
	call	mbedtls_ct_uint_ne
.LVL127:
.LM391:
.LBE250:
.LBE249:
.LBB252:
.LBI252:
.LM392:
.LBB253:
.LM393:
.LBE253:
.LBE252:
.LBB255:
.LBB251:
.LM394:
	not	s0,a0
.LVL128:
.LM395:
.LBE251:
.LBE255:
.LBB256:
.LBB254:
.LM396:
	or	s0,s0,s1
.LVL129:
.LM397:
.LBE254:
.LBE256:
.LM398:
.LM399:
.LM400:
	li	s1,0
.LVL130:
.L44:
.LM401:
	bgtu	s4,s1,.L45
.LM402:
.LM403:
	sw	s0,0(s3)
.LM404:
.LM405:
	lw	ra,28(sp)
	.cfi_remember_state
	.cfi_restore 1
	lw	s0,24(sp)
	.cfi_restore 8
.LVL131:
.LM406:
	lw	s1,20(sp)
	.cfi_restore 9
.LVL132:
.LM407:
	lw	s2,16(sp)
	.cfi_restore 18
.LVL133:
.LM408:
	lw	s3,12(sp)
	.cfi_restore 19
.LVL134:
.LM409:
	lw	s4,8(sp)
	.cfi_restore 20
.LVL135:
.LM410:
	lw	s5,4(sp)
	.cfi_restore 21
.LVL136:
.LM411:
	lw	s6,0(sp)
	.cfi_restore 22
.LM412:
	li	a0,0
.LM413:
	addi	sp,sp,32
	.cfi_def_cfa_offset 0
	jr	ra
.LVL137:
.L45:
	.cfi_restore_state
.LBB257:
.LM414:
.LBB258:
.LBI258:
.LM415:
.LBB259:
.LM416:
.LM417:
	mv	a1,s5
	mv	a0,s1
	call	mbedtls_ct_uint_lt
.LVL138:
.LBE259:
.LBE258:
.LM418:
	add	a5,s2,s1
.LBB262:
.LBB260:
.LM419:
	mv	s6,a0
.LVL139:
.LM420:
.LBE260:
.LBE262:
.LM421:
.LM422:
.LM423:
	lbu	a0,0(a5)
.LVL140:
.LM424:
.LBE257:
.LM425:
	addi	s1,s1,1
.LVL141:
.LBB272:
.LM426:
	call	mbedtls_ct_bool
.LVL142:
.LBB263:
.LBI263:
.LM427:
.LBB264:
.LM428:
.LM429:
.LBE264:
.LBE263:
.LM430:
.LBB266:
.LBI266:
.LM431:
.LBB267:
.LM432:
.LBE267:
.LBE266:
.LBB269:
.LBB261:
.LM433:
	not	a5,s6
.LVL143:
.LM434:
.LBE261:
.LBE269:
.LBB270:
.LBB265:
.LM435:
	and	a5,a5,a0
.LVL144:
.LM436:
.LBE265:
.LBE270:
.LBB271:
.LBB268:
.LM437:
	or	s0,s0,a5
.LVL145:
.LM438:
.LBE268:
.LBE271:
.LBE272:
.LM439:
	j	.L44
.LVL146:
.L46:
	.cfi_def_cfa_offset 0
	.cfi_restore 1
	.cfi_restore 8
	.cfi_restore 9
	.cfi_restore 18
	.cfi_restore 19
	.cfi_restore 20
	.cfi_restore 21
	.cfi_restore 22
.LM440:
	li	a0,-24576
.LVL147:
.LM441:
	addi	a0,a0,-256
.LM442:
	ret
	.cfi_endproc
.LFE72:
	.size	get_zeros_and_len_padding, .-get_zeros_and_len_padding
	.section	.text.mbedtls_cipher_list,"ax",@progbits
	.align	1
	.globl	mbedtls_cipher_list
	.type	mbedtls_cipher_list, @function
mbedtls_cipher_list:
.LFB55:
.LM443:
	.cfi_startproc
.LM444:
.LM445:
.LM446:
.LM447:
	lui	a3,%hi(supported_init)
.LM448:
	lw	a5,%lo(supported_init)(a3)
	lui	a0,%hi(mbedtls_cipher_supported)
	addi	a0,a0,%lo(mbedtls_cipher_supported)
	bne	a5,zero,.L52
.LM449:
	lui	a5,%hi(mbedtls_cipher_definitions)
	mv	a4,a0
	addi	a5,a5,%lo(mbedtls_cipher_definitions)
.L53:
.LVL148:
.LM450:
.LM451:
	lbu	a2,0(a5)
.LM452:
	bne	a2,zero,.L54
.LM453:
.LM454:
	li	a5,1
.LVL149:
.LM455:
	sw	zero,0(a4)
.LM456:
.LM457:
	sw	a5,%lo(supported_init)(a3)
.LVL150:
.L52:
.LM458:
.LM459:
	ret
.LVL151:
.L54:
.LM460:
.LM461:
	sw	a2,0(a4)
.LM462:
	addi	a5,a5,8
.LVL152:
.LM463:
	addi	a4,a4,4
.LVL153:
.LM464:
	j	.L53
	.cfi_endproc
.LFE55:
	.size	mbedtls_cipher_list, .-mbedtls_cipher_list
	.section	.text.mbedtls_cipher_info_from_type,"ax",@progbits
	.align	1
	.globl	mbedtls_cipher_info_from_type
	.type	mbedtls_cipher_info_from_type, @function
mbedtls_cipher_info_from_type:
.LVL154:
.LFB56:
.LM465:
	.cfi_startproc
.LM466:
.LM467:
.LM468:
	lui	a5,%hi(mbedtls_cipher_definitions)
	addi	a5,a5,%lo(mbedtls_cipher_definitions)
.LVL155:
.L56:
.LM469:
.LM470:
	lw	a4,4(a5)
.LM471:
	bne	a4,zero,.L58
.L55:
.LM472:
	mv	a0,a4
.LVL156:
.LM473:
	ret
.LVL157:
.L58:
.LM474:
.LM475:
	lbu	a3,0(a5)
	beq	a3,a0,.L55
.LM476:
	addi	a5,a5,8
.LVL158:
.LM477:
	j	.L56
	.cfi_endproc
.LFE56:
	.size	mbedtls_cipher_info_from_type, .-mbedtls_cipher_info_from_type
	.section	.text.mbedtls_cipher_info_from_string,"ax",@progbits
	.align	1
	.globl	mbedtls_cipher_info_from_string
	.type	mbedtls_cipher_info_from_string, @function
mbedtls_cipher_info_from_string:
.LVL159:
.LFB57:
.LM478:
	.cfi_startproc
.LM479:
.LM480:
.LM481:
	bne	a0,zero,.L65
.LM482:
	li	a0,0
.LVL160:
.LM483:
	ret
.LVL161:
.L63:
	.cfi_def_cfa_offset 32
	.cfi_offset 1, -4
	.cfi_offset 8, -8
.LM484:
.LM485:
	lw	a0,0(a5)
	sw	a1,12(sp)
	call	strcmp
.LVL162:
.LM486:
	lw	a1,12(sp)
	bne	a0,zero,.L62
.LM487:
.LM488:
	lw	a0,4(s0)
	j	.L59
.L62:
.LM489:
	addi	s0,s0,8
.LVL163:
.L60:
.LM490:
.LM491:
	lw	a5,4(s0)
.LM492:
	bne	a5,zero,.L63
.LM493:
	li	a0,0
.L59:
.LM494:
	lw	ra,28(sp)
	.cfi_restore 1
	lw	s0,24(sp)
	.cfi_restore 8
.LVL164:
.LM495:
	addi	sp,sp,32
	.cfi_def_cfa_offset 0
	jr	ra
.LVL165:
.L65:
.LM496:
	addi	sp,sp,-32
	.cfi_def_cfa_offset 32
	sw	s0,24(sp)
	.cfi_offset 8, -8
.LM497:
	lui	s0,%hi(mbedtls_cipher_definitions)
.LM498:
	sw	ra,28(sp)
	.cfi_offset 1, -4
	mv	a1,a0
.LM499:
	addi	s0,s0,%lo(mbedtls_cipher_definitions)
	j	.L60
	.cfi_endproc
.LFE57:
	.size	mbedtls_cipher_info_from_string, .-mbedtls_cipher_info_from_string
	.section	.text.mbedtls_cipher_info_from_values,"ax",@progbits
	.align	1
	.globl	mbedtls_cipher_info_from_values
	.type	mbedtls_cipher_info_from_values, @function
mbedtls_cipher_info_from_values:
.LVL166:
.LFB58:
.LM500:
	.cfi_startproc
.LM501:
.LM502:
.LM503:
	lui	a4,%hi(mbedtls_cipher_definitions)
.LBB277:
.LBB278:
.LM504:
	lui	a6,%hi(mbedtls_cipher_base_lookup_table)
.LBE278:
.LBE277:
.LM505:
	mv	a7,a0
.LM506:
	addi	a4,a4,%lo(mbedtls_cipher_definitions)
.LBB281:
.LBB279:
.LM507:
	addi	a6,a6,%lo(mbedtls_cipher_base_lookup_table)
.LVL167:
.L70:
.LM508:
.LBE279:
.LBE281:
.LM509:
.LM510:
	lw	a0,4(a4)
.LM511:
	bne	a0,zero,.L73
.L69:
.LM512:
	ret
.L73:
.LM513:
.LVL168:
.LBB282:
.LBI277:
.LM514:
.LBB280:
.LM515:
.LM516:
	lw	a5,4(a0)
	srli	a3,a5,24
.LM517:
	andi	a3,a3,124
	add	a3,a6,a3
.LBE280:
.LBE282:
.LM518:
	lw	a3,0(a3)
.LM519:
	lbu	a3,0(a3)
	bne	a3,a7,.L71
.LVL169:
.LBB283:
.LBI283:
.LM520:
.LBB284:
.LM521:
.LM522:
.LM523:
	srli	a3,a5,2
	andi	a3,a3,960
.LBE284:
.LBE283:
.LM524:
	bne	a1,a3,.L71
.LM525:
	srli	a5,a5,12
.LM526:
	andi	a5,a5,15
	beq	a5,a2,.L69
.L71:
.LM527:
	addi	a4,a4,8
.LVL170:
.LM528:
	j	.L70
	.cfi_endproc
.LFE58:
	.size	mbedtls_cipher_info_from_values, .-mbedtls_cipher_info_from_values
	.section	.text.mbedtls_cipher_init,"ax",@progbits
	.align	1
	.globl	mbedtls_cipher_init
	.type	mbedtls_cipher_init, @function
mbedtls_cipher_init:
.LVL171:
.LFB59:
.LM529:
	.cfi_startproc
.LM530:
	li	a2,68
	li	a1,0
	tail	memset
.LVL172:
.LM531:
	.cfi_endproc
.LFE59:
	.size	mbedtls_cipher_init, .-mbedtls_cipher_init
	.section	.text.mbedtls_cipher_free,"ax",@progbits
	.align	1
	.globl	mbedtls_cipher_free
	.type	mbedtls_cipher_free, @function
mbedtls_cipher_free:
.LVL173:
.LFB60:
.LM532:
	.cfi_startproc
.LM533:
.LM534:
	beq	a0,zero,.L75
.LM535:
	addi	sp,sp,-16
	.cfi_def_cfa_offset 16
	sw	s0,8(sp)
	sw	ra,12(sp)
	.cfi_offset 8, -8
	.cfi_offset 1, -4
	mv	s0,a0
.LM536:
.LM537:
	lw	a0,64(a0)
.LVL174:
.LM538:
	beq	a0,zero,.L77
.LM539:
	li	a1,36
	call	mbedtls_zeroize_and_free
.LVL175:
.L77:
.LM540:
.LM541:
	lw	a0,60(s0)
.LM542:
	beq	a0,zero,.L78
.LM543:
.LVL176:
.LBB285:
.LBI285:
.LM544:
.LBB286:
.LM545:
.LM546:
	lw	a4,0(s0)
.LM547:
	lui	a5,%hi(mbedtls_cipher_base_lookup_table)
	addi	a5,a5,%lo(mbedtls_cipher_base_lookup_table)
.LM548:
	lbu	a4,7(a4)
.LM549:
	andi	a4,a4,124
	add	a5,a5,a4
.LBE286:
.LBE285:
.LM550:
	lw	a5,0(a5)
.LM551:
	lw	a5,40(a5)
	jalr	a5
.LVL177:
.L78:
.LM552:
	mv	a0,s0
.LM553:
	lw	s0,8(sp)
	.cfi_restore 8
.LVL178:
.LM554:
	lw	ra,12(sp)
	.cfi_restore 1
.LM555:
	li	a1,68
.LM556:
	addi	sp,sp,16
	.cfi_def_cfa_offset 0
.LM557:
	tail	mbedtls_platform_zeroize
.LVL179:
.L75:
.LM558:
	ret
	.cfi_endproc
.LFE60:
	.size	mbedtls_cipher_free, .-mbedtls_cipher_free
	.section	.text.mbedtls_cipher_setup,"ax",@progbits
	.align	1
	.globl	mbedtls_cipher_setup
	.type	mbedtls_cipher_setup, @function
mbedtls_cipher_setup:
.LVL180:
.LFB61:
.LM559:
	.cfi_startproc
.LM560:
.LM561:
	beq	a1,zero,.L92
.LM562:
	addi	sp,sp,-16
	.cfi_def_cfa_offset 16
	sw	s0,8(sp)
.LM563:
	li	a2,68
	.cfi_offset 8, -8
	mv	s0,a1
.LM564:
	li	a1,0
.LVL181:
.LM565:
	sw	s1,4(sp)
	sw	ra,12(sp)
	.cfi_offset 9, -12
	.cfi_offset 1, -4
	mv	s1,a0
.LM566:
	call	memset
.LVL182:
.LM567:
.LBB287:
.LBI287:
.LM568:
.LBB288:
.LM569:
.LM570:
	lbu	a4,7(s0)
.LM571:
	lui	a5,%hi(mbedtls_cipher_base_lookup_table)
	addi	a5,a5,%lo(mbedtls_cipher_base_lookup_table)
	andi	a4,a4,124
	add	a5,a5,a4
.LBE288:
.LBE287:
.LM572:
	lw	a5,0(a5)
	lw	a5,36(a5)
.LM573:
	bne	a5,zero,.L90
.L91:
.LM574:
.LM575:
	sw	s0,0(s1)
.LM576:
.LM577:
	li	a0,0
.L88:
.LM578:
	lw	ra,12(sp)
	.cfi_remember_state
	.cfi_restore 1
	lw	s0,8(sp)
	.cfi_restore 8
.LVL183:
.LM579:
	lw	s1,4(sp)
	.cfi_restore 9
.LVL184:
.LM580:
	addi	sp,sp,16
	.cfi_def_cfa_offset 0
	jr	ra
.LVL185:
.L90:
	.cfi_restore_state
.LM581:
.LM582:
	jalr	a5
.LVL186:
.LM583:
	sw	a0,60(s1)
.LM584:
.LM585:
	bne	a0,zero,.L91
.LM586:
	li	a0,-24576
	addi	a0,a0,-384
	j	.L88
.LVL187:
.L92:
	.cfi_def_cfa_offset 0
	.cfi_restore 1
	.cfi_restore 8
	.cfi_restore 9
.LM587:
	li	a0,-24576
.LVL188:
.LM588:
	addi	a0,a0,-256
.LM589:
	ret
	.cfi_endproc
.LFE61:
	.size	mbedtls_cipher_setup, .-mbedtls_cipher_setup
	.section	.text.mbedtls_cipher_setkey,"ax",@progbits
	.align	1
	.globl	mbedtls_cipher_setkey
	.type	mbedtls_cipher_setkey, @function
mbedtls_cipher_setkey:
.LVL189:
.LFB62:
.LM590:
	.cfi_startproc
.LM591:
.LM592:
	andi	a5,a3,0xff
	li	a7,1
	bgtu	a5,a7,.L97
.LM593:
.LM594:
	lw	a6,0(a0)
.LM595:
	beq	a6,zero,.L97
.LM596:
.LM597:
	lw	a5,4(a6)
	srli	a4,a5,24
.LM598:
	andi	a4,a4,3
	bgtu	a4,a7,.L99
.LVL190:
.LBB295:
.LBI295:
.LM599:
.LBB296:
.LM600:
.LM601:
.LM602:
.LBE296:
.LBE295:
.LM603:
	srli	a5,a5,2
	andi	a5,a5,960
.LM604:
	bne	a5,a2,.L97
.L99:
.LM605:
.LM606:
	sw	a2,4(a0)
.LM607:
.LM608:
	sb	a3,8(a0)
.LM609:
.LBB297:
.LBB298:
.LM610:
	lw	a5,4(a6)
.LM611:
	lui	a4,%hi(mbedtls_cipher_base_lookup_table)
	addi	a4,a4,%lo(mbedtls_cipher_base_lookup_table)
.LM612:
	srli	a6,a5,24
.LM613:
	andi	a6,a6,124
	add	a4,a4,a6
	lw	a6,0(a4)
.LBE298:
.LBE297:
.LM614:
	li	a4,1
.LM615:
	lw	a0,60(a0)
.LVL191:
.LM616:
	beq	a3,a4,.L100
.LM617:
	li	a4,61440
	and	a4,a5,a4
.LM618:
	li	a3,-12288
.LVL192:
.LM619:
	add	a4,a4,a3
.LM620:
	beq	a4,zero,.L100
.LM621:
	li	a4,57344
	and	a5,a5,a4
	li	a4,-16384
	add	a5,a5,a4
.LM622:
	bne	a5,zero,.L101
.L100:
.LM623:
.LM624:
	lw	a5,28(a6)
.L107:
.LM625:
	jr	a5
.LVL193:
.L101:
.LM626:
.LM627:
.LBB300:
.LBI297:
.LM628:
.LBB299:
.LM629:
.LM630:
.LBE299:
.LBE300:
.LM631:
	lw	a5,32(a6)
	j	.L107
.LVL194:
.L97:
.LM632:
	li	a0,-24576
.LVL195:
.LM633:
	addi	a0,a0,-256
	ret
	.cfi_endproc
.LFE62:
	.size	mbedtls_cipher_setkey, .-mbedtls_cipher_setkey
	.section	.text.mbedtls_cipher_set_iv,"ax",@progbits
	.align	1
	.globl	mbedtls_cipher_set_iv
	.type	mbedtls_cipher_set_iv, @function
mbedtls_cipher_set_iv:
.LVL196:
.LFB63:
.LM634:
	.cfi_startproc
.LM635:
.LM636:
.LM637:
	lw	a5,0(a0)
.LM638:
	bne	a5,zero,.L109
.LM639:
	li	a0,-24576
.LVL197:
.LM640:
	addi	a0,a0,-256
.LM641:
	ret
.LVL198:
.L109:
.LM642:
.LM643:
	li	a4,16
	bgtu	a2,a4,.L121
.LM644:
.LM645:
	addi	sp,sp,-32
	.cfi_def_cfa_offset 32
	sw	ra,28(sp)
	sw	s0,24(sp)
	sw	s1,20(sp)
	sw	s2,16(sp)
	sw	s3,12(sp)
	.cfi_offset 1, -4
	.cfi_offset 8, -8
	.cfi_offset 9, -12
	.cfi_offset 18, -16
	.cfi_offset 19, -20
.LM646:
	lw	s1,4(a5)
.LM647:
	slli	a4,s1,7
	blt	a4,zero,.L122
.LM648:
.LVL199:
.LBB304:
.LBI304:
.LM649:
.LBB305:
.LM650:
.LM651:
.LM652:
	srli	s1,s1,3
	andi	s1,s1,28
.LVL200:
.LM653:
.LBE305:
.LBE304:
.LM654:
.LM655:
	bgeu	a2,s1,.L111
.LVL201:
.L112:
.LM656:
	li	a0,-24576
	addi	a0,a0,-256
.L108:
.LM657:
	lw	ra,28(sp)
	.cfi_remember_state
	.cfi_restore 1
	lw	s0,24(sp)
	.cfi_restore 8
	lw	s1,20(sp)
	.cfi_restore 9
.LVL202:
.LM658:
	lw	s2,16(sp)
	.cfi_restore 18
	lw	s3,12(sp)
	.cfi_restore 19
	addi	sp,sp,32
	.cfi_def_cfa_offset 0
	jr	ra
.LVL203:
.L122:
	.cfi_restore_state
.LM659:
	mv	s1,a2
.L111:
.LM660:
	lbu	a4,6(a5)
	li	a5,76
	mv	s2,a2
	mv	s3,a1
	mv	s0,a0
.LVL204:
.LM661:
.LM662:
	beq	a4,a5,.L113
.LVL205:
.L116:
.LM663:
.LM664:
	lw	a5,0(s0)
	li	a4,61440
	lw	a5,4(a5)
	and	a5,a5,a4
.LM665:
	li	a4,24576
	bne	a5,a4,.L124
.LM666:
.LM667:
	lb	a1,8(s0)
	lw	a0,60(s0)
.LM668:
	lw	s0,24(sp)
	.cfi_remember_state
	.cfi_restore 8
.LVL206:
.LM669:
	lw	ra,28(sp)
	.cfi_restore 1
	lw	s1,20(sp)
	.cfi_restore 9
.LVL207:
.LM670:
	mv	a3,s2
	mv	a2,s3
.LM671:
	lw	s2,16(sp)
	.cfi_restore 18
.LVL208:
.LM672:
	lw	s3,12(sp)
	.cfi_restore 19
.LVL209:
.LM673:
	addi	sp,sp,32
	.cfi_def_cfa_offset 0
.LM674:
	tail	mbedtls_gcm_starts
.LVL210:
.L113:
	.cfi_restore_state
.LM675:
.LM676:
	li	a5,12
	bne	a2,a5,.L112
.LM677:
.LM678:
	lw	a0,60(a0)
	li	a2,0
.LVL211:
.LM679:
	call	mbedtls_chacha20_starts
.LVL212:
.LM680:
	beq	a0,zero,.L116
	j	.L112
.L124:
.LM681:
.LM682:
	li	a4,36864
	bne	a5,a4,.L117
.LBB306:
.LM683:
.LM684:
.LM685:
.LM686:
	lw	a0,60(s0)
	li	a3,0
	li	a2,0
	li	a1,0
	call	mbedtls_ccm_set_lengths
.LVL213:
.LM687:
.LM688:
	bne	a0,zero,.L108
.LM689:
.LM690:
	lb	a5,8(s0)
.LM691:
	beq	a5,zero,.L123
.LM692:
.LM693:
	li	a4,1
.LM694:
	li	a1,3
.LM695:
	bne	a5,a4,.L112
.L118:
.LVL214:
.LM696:
.LM697:
	lw	a0,60(s0)
.LVL215:
.LM698:
.LBE306:
.LM699:
	lw	s0,24(sp)
	.cfi_remember_state
	.cfi_restore 8
.LVL216:
.LM700:
	lw	ra,28(sp)
	.cfi_restore 1
	lw	s1,20(sp)
	.cfi_restore 9
.LVL217:
.LBB307:
.LM701:
	mv	a3,s2
	mv	a2,s3
.LBE307:
.LM702:
	lw	s2,16(sp)
	.cfi_restore 18
.LVL218:
.LM703:
	lw	s3,12(sp)
	.cfi_restore 19
.LVL219:
.LM704:
	addi	sp,sp,32
	.cfi_def_cfa_offset 0
.LBB308:
.LM705:
	tail	mbedtls_ccm_starts
.LVL220:
.L123:
	.cfi_restore_state
.LM706:
	li	a1,2
	j	.L118
.LVL221:
.L117:
.LM707:
.LBE308:
.LM708:
.LM709:
	bne	s1,zero,.L119
.L120:
.LM710:
	li	a0,0
	j	.L108
.L119:
.LM711:
	mv	a2,s1
	mv	a1,s3
	addi	a0,s0,40
	call	memcpy
.LVL222:
.LM712:
.LM713:
	sw	s1,56(s0)
	j	.L120
.LVL223:
.L121:
	.cfi_def_cfa_offset 0
	.cfi_restore 1
	.cfi_restore 8
	.cfi_restore 9
	.cfi_restore 18
	.cfi_restore 19
.LM714:
	li	a0,-24576
.LVL224:
.LM715:
	addi	a0,a0,-128
	ret
	.cfi_endproc
.LFE63:
	.size	mbedtls_cipher_set_iv, .-mbedtls_cipher_set_iv
	.section	.text.mbedtls_cipher_reset,"ax",@progbits
	.align	1
	.globl	mbedtls_cipher_reset
	.type	mbedtls_cipher_reset, @function
mbedtls_cipher_reset:
.LVL225:
.LFB64:
.LM716:
	.cfi_startproc
.LM717:
.LM718:
	lw	a5,0(a0)
	beq	a5,zero,.L132
.LM719:
.LM720:
	sw	zero,36(a0)
.LM721:
.LM722:
	li	a0,0
.LVL226:
.LM723:
	ret
.LVL227:
.L132:
.LM724:
	li	a0,-24576
.LVL228:
.LM725:
	addi	a0,a0,-256
.LM726:
	ret
	.cfi_endproc
.LFE64:
	.size	mbedtls_cipher_reset, .-mbedtls_cipher_reset
	.section	.text.mbedtls_cipher_update_ad,"ax",@progbits
	.align	1
	.globl	mbedtls_cipher_update_ad
	.type	mbedtls_cipher_update_ad, @function
mbedtls_cipher_update_ad:
.LVL229:
.LFB65:
.LM727:
	.cfi_startproc
.LM728:
.LM729:
	lw	a5,0(a0)
.LM730:
	beq	a5,zero,.L135
.LM731:
.LM732:
	lw	a5,4(a5)
.LM733:
	li	a3,6
	srai	a4,a5,12
	andi	a4,a4,15
	bne	a4,a3,.L136
.LM734:
.LM735:
	lw	a0,60(a0)
.LVL230:
.LM736:
	tail	mbedtls_gcm_update_ad
.LVL231:
.L135:
.LM737:
	li	a0,-24576
.LVL232:
.LM738:
	addi	a0,a0,-256
	ret
.LVL233:
.L136:
.LM739:
	li	a0,-24576
.LVL234:
.LM740:
	addi	a0,a0,-128
.LM741:
	ret
	.cfi_endproc
.LFE65:
	.size	mbedtls_cipher_update_ad, .-mbedtls_cipher_update_ad
	.section	.text.mbedtls_cipher_update,"ax",@progbits
	.align	1
	.globl	mbedtls_cipher_update
	.type	mbedtls_cipher_update, @function
mbedtls_cipher_update:
.LVL235:
.LFB66:
.LM742:
	.cfi_startproc
.LM743:
.LM744:
.LM745:
.LM746:
	mv	a5,a4
.LM747:
	lw	a4,0(a0)
.LVL236:
.LM748:
	bne	a4,zero,.L138
.LM749:
	li	a0,-24576
.LVL237:
.LM750:
	addi	a0,a0,-256
.LM751:
	ret
.LVL238:
.L144:
	.cfi_def_cfa_offset 48
	.cfi_offset 1, -4
	.cfi_offset 8, -8
	.cfi_offset 9, -12
	.cfi_offset 18, -16
	.cfi_offset 19, -20
	.cfi_offset 20, -24
	.cfi_offset 21, -28
	.cfi_offset 22, -32
	.cfi_offset 23, -36
.LM752:
	li	a0,-24576
.LVL239:
.LM753:
	addi	a0,a0,-256
.LVL240:
.L137:
.LM754:
	lw	ra,44(sp)
	.cfi_restore 1
	lw	s0,40(sp)
	.cfi_restore 8
	lw	s1,36(sp)
	.cfi_restore 9
	lw	s2,32(sp)
	.cfi_restore 18
	lw	s3,28(sp)
	.cfi_restore 19
	lw	s4,24(sp)
	.cfi_restore 20
	lw	s5,20(sp)
	.cfi_restore 21
.LVL241:
.LM755:
	lw	s6,16(sp)
	.cfi_restore 22
	lw	s7,12(sp)
	.cfi_restore 23
	addi	sp,sp,48
	.cfi_def_cfa_offset 0
	jr	ra
.LVL242:
.L138:
.LM756:
.LM757:
	sw	zero,0(a5)
.LM758:
	lw	a4,0(a0)
.LBB326:
.LBI326:
.LM759:
.LVL243:
.LBB327:
.LM760:
.LM761:
	beq	a4,zero,.L166
.LM762:
.LBE327:
.LBE326:
.LM763:
	addi	sp,sp,-48
	.cfi_def_cfa_offset 48
	sw	s5,20(sp)
	sw	ra,44(sp)
	sw	s0,40(sp)
	sw	s1,36(sp)
	sw	s2,32(sp)
	sw	s3,28(sp)
	sw	s4,24(sp)
	sw	s6,16(sp)
	sw	s7,12(sp)
	.cfi_offset 21, -28
	.cfi_offset 1, -4
	.cfi_offset 8, -8
	.cfi_offset 9, -12
	.cfi_offset 18, -16
	.cfi_offset 19, -20
	.cfi_offset 20, -24
	.cfi_offset 22, -32
	.cfi_offset 23, -36
.LBB329:
.LBB328:
.LM764:
	lw	a7,4(a4)
.LM765:
	andi	s5,a7,31
.LVL244:
.LM766:
.LBE328:
.LBE329:
.LM767:
.LM768:
	beq	s5,zero,.L167
.LM769:
	li	t1,61440
	and	t1,a7,t1
.LM770:
	li	a4,4096
	mv	s4,a1
	mv	s2,a2
.LM771:
.LM772:
	bne	t1,a4,.L140
.LM773:
.LM774:
	bne	a2,s5,.L168
.LM775:
.LM776:
	sw	a2,0(a5)
.LM777:
.LVL245:
.LBB330:
.LBI330:
.LM778:
.LBB331:
.LM779:
.LM780:
	lw	a4,0(a0)
.LM781:
	lui	a5,%hi(mbedtls_cipher_base_lookup_table)
.LVL246:
.LM782:
	addi	a5,a5,%lo(mbedtls_cipher_base_lookup_table)
.LM783:
	lbu	a4,7(a4)
.LBE331:
.LBE330:
.LM784:
	lw	s0,40(sp)
	.cfi_remember_state
	.cfi_restore 8
	lw	ra,44(sp)
	.cfi_restore 1
.LBB333:
.LBB332:
.LM785:
	andi	a4,a4,124
	add	a5,a5,a4
.LBE332:
.LBE333:
.LM786:
	lw	a5,0(a5)
.LM787:
	lw	s1,36(sp)
	.cfi_restore 9
	lw	s2,32(sp)
	.cfi_restore 18
	lw	s3,28(sp)
	.cfi_restore 19
	lw	s4,24(sp)
	.cfi_restore 20
	lw	s5,20(sp)
	.cfi_restore 21
.LVL247:
.LM788:
	lw	s6,16(sp)
	.cfi_restore 22
	lw	s7,12(sp)
	.cfi_restore 23
.LM789:
	lw	a5,4(a5)
	mv	a2,a1
.LVL248:
.LM790:
	lb	a1,8(a0)
.LVL249:
.LM791:
	lw	a0,60(a0)
.LVL250:
.LM792:
	addi	sp,sp,48
	.cfi_def_cfa_offset 0
.LM793:
	jr	a5
.LVL251:
.L140:
	.cfi_restore_state
.LM794:
.LM795:
	li	a4,24576
	bne	t1,a4,.L141
.LM796:
.LM797:
	lw	s0,40(sp)
	.cfi_remember_state
	.cfi_restore 8
	lw	ra,44(sp)
	.cfi_restore 1
	lw	s1,36(sp)
	.cfi_restore 9
	lw	s2,32(sp)
	.cfi_restore 18
	lw	s3,28(sp)
	.cfi_restore 19
	lw	s4,24(sp)
	.cfi_restore 20
	lw	s5,20(sp)
	.cfi_restore 21
.LVL252:
.LM798:
	lw	s6,16(sp)
	.cfi_restore 22
	lw	s7,12(sp)
	.cfi_restore 23
.LM799:
	lw	a0,60(a0)
.LVL253:
.LM800:
	mv	a4,a2
.LM801:
	addi	sp,sp,48
	.cfi_def_cfa_offset 0
.LM802:
	tail	mbedtls_gcm_update
.LVL254:
.L141:
	.cfi_restore_state
.LM803:
.LM804:
	li	a4,36864
	bne	t1,a4,.L142
.LM805:
.LM806:
	lw	s0,40(sp)
	.cfi_remember_state
	.cfi_restore 8
	lw	ra,44(sp)
	.cfi_restore 1
	lw	s1,36(sp)
	.cfi_restore 9
	lw	s2,32(sp)
	.cfi_restore 18
	lw	s3,28(sp)
	.cfi_restore 19
	lw	s4,24(sp)
	.cfi_restore 20
	lw	s5,20(sp)
	.cfi_restore 21
.LVL255:
.LM807:
	lw	s6,16(sp)
	.cfi_restore 22
	lw	s7,12(sp)
	.cfi_restore 23
.LM808:
	lw	a0,60(a0)
.LVL256:
.LM809:
	mv	a4,a2
.LM810:
	addi	sp,sp,48
	.cfi_def_cfa_offset 0
.LM811:
	tail	mbedtls_ccm_update
.LVL257:
.L142:
	.cfi_restore_state
.LM812:
	mv	s3,a3
.LM813:
.LM814:
	bne	a1,a3,.L143
.LM815:
	lw	a4,36(a0)
	bne	a4,zero,.L144
.LM816:
	remu	a4,a2,s5
.LM817:
	bne	a4,zero,.L144
.L143:
.LM818:
	mv	s1,a5
.LM819:
	li	a5,8192
.LVL258:
.LM820:
	mv	s0,a0
.LM821:
.LM822:
	bne	t1,a5,.L145
.LVL259:
.LBB334:
.LM823:
.LM824:
.LM825:
	lb	a5,8(a0)
.LBE334:
.LM826:
	lw	s6,36(a0)
.LBB343:
.LM827:
	bne	a5,zero,.L146
.LM828:
	lw	a4,12(a0)
	sub	a5,s5,s6
	beq	a4,zero,.L183
.LM829:
	bltu	a5,s2,.L149
.L148:
.LM830:
.LM831:
	addi	a0,s6,20
.LM832:
	mv	a2,s2
.LVL260:
.LM833:
	mv	a1,s4
.LVL261:
.LM834:
	add	a0,s0,a0
	call	memcpy
.LVL262:
.LM835:
.LM836:
	lw	a5,36(s0)
	add	a5,a5,s2
	sw	a5,36(s0)
.LM837:
.LVL263:
.L152:
.LM838:
.LBE343:
.LM839:
	li	a0,0
	j	.L137
.LVL264:
.L146:
.LBB344:
.LM840:
	li	a4,1
	bne	a5,a4,.L149
.LM841:
	sub	a5,s5,s6
.L183:
.LM842:
	bgtu	a5,s2,.L148
.L149:
.LM843:
.LM844:
	beq	s6,zero,.L150
.LM845:
.LM846:
	sub	s7,s5,s6
.LVL265:
.LM847:
.LM848:
	addi	a0,s6,20
.LM849:
	mv	a2,s7
.LVL266:
.LM850:
	mv	a1,s4
.LVL267:
.LM851:
	add	a0,s0,a0
	call	memcpy
.LVL268:
.LM852:
.LBB335:
.LBI335:
.LM853:
.LBB336:
.LM854:
.LM855:
	lw	a4,0(s0)
.LM856:
	lui	a5,%hi(mbedtls_cipher_base_lookup_table)
	addi	a5,a5,%lo(mbedtls_cipher_base_lookup_table)
.LM857:
	lbu	a4,7(a4)
.LBE336:
.LBE335:
.LM858:
	lb	a1,8(s0)
	lw	a0,60(s0)
.LBB338:
.LBB337:
.LM859:
	andi	a4,a4,124
	add	a5,a5,a4
.LBE337:
.LBE338:
.LM860:
	lw	a5,0(a5)
.LM861:
	addi	a4,s0,20
	addi	a3,s0,40
	lw	a6,8(a5)
	mv	a2,s5
	mv	a5,s3
	jalr	a6
.LVL269:
.LM862:
	bne	a0,zero,.L137
.LM863:
.LM864:
	lw	a5,0(s1)
	add	a2,s2,s6
.LM865:
	add	s3,s3,s5
.LVL270:
.LM866:
	add	a5,a5,s5
	sw	a5,0(s1)
.LM867:
.LVL271:
.LM868:
.LM869:
	sw	zero,36(s0)
.LM870:
.LM871:
	add	s4,s4,s7
.LVL272:
.LM872:
.LM873:
	sub	s2,a2,s5
.LVL273:
.L150:
.LM874:
.LM875:
	beq	s2,zero,.L152
.LM876:
.LM877:
	remu	s6,s2,s5
.LVL274:
.LM878:
.LM879:
	bne	s6,zero,.L153
.LM880:
	lb	a5,8(s0)
	bne	a5,zero,.L153
.LM881:
	lw	a5,12(s0)
	beq	a5,zero,.L153
.LVL275:
.LM882:
	mv	s6,s5
.LVL276:
.L153:
.LM883:
.LM884:
	sub	s2,s2,s6
.LVL277:
.LM885:
	mv	a2,s6
	add	a1,s4,s2
	addi	a0,s0,20
	call	memcpy
.LVL278:
.LM886:
.LM887:
	lw	a5,36(s0)
	add	a5,a5,s6
	sw	a5,36(s0)
.LM888:
.LVL279:
.LM889:
.LM890:
	beq	s2,zero,.L152
.LM891:
.LVL280:
.LBB339:
.LBI339:
.LM892:
.LBB340:
.LM893:
.LM894:
	lw	a4,0(s0)
.LM895:
	lui	a5,%hi(mbedtls_cipher_base_lookup_table)
	addi	a5,a5,%lo(mbedtls_cipher_base_lookup_table)
.LM896:
	lbu	a4,7(a4)
.LBE340:
.LBE339:
.LM897:
	lb	a1,8(s0)
	lw	a0,60(s0)
.LBB342:
.LBB341:
.LM898:
	andi	a4,a4,124
	add	a5,a5,a4
.LBE341:
.LBE342:
.LM899:
	lw	a5,0(a5)
.LM900:
	mv	a4,s4
	addi	a3,s0,40
	lw	a6,8(a5)
	mv	a2,s2
	mv	a5,s3
	jalr	a6
.LVL281:
.LM901:
	bne	a0,zero,.L137
.LM902:
.LM903:
	lw	a5,0(s1)
	add	a5,a5,s2
	sw	a5,0(s1)
	j	.L137
.LVL282:
.L145:
.LM904:
.LBE344:
.LM905:
.LM906:
	li	a5,12288
	bne	t1,a5,.L157
.LM907:
.LVL283:
.LBB345:
.LBI345:
.LM908:
.LBB346:
.LM909:
.LM910:
	lui	a5,%hi(mbedtls_cipher_base_lookup_table)
.LM911:
	srli	a7,a7,24
.LM912:
	andi	a7,a7,124
	addi	a5,a5,%lo(mbedtls_cipher_base_lookup_table)
	add	a5,a5,a7
.LBE346:
.LBE345:
.LM913:
	lw	a5,0(a5)
.LM914:
	lb	a1,8(a0)
.LVL284:
.LM915:
	addi	a4,a0,40
	lw	a7,12(a5)
	addi	a3,a0,36
.LVL285:
.LM916:
	lw	a0,60(a0)
	mv	a6,s3
	mv	a5,s4
	mv	a2,s2
.LVL286:
.LM917:
	jalr	a7
.LVL287:
.L185:
.LM918:
	bne	a0,zero,.L137
.LM919:
.LM920:
	sw	s2,0(s1)
.LM921:
.LM922:
	j	.L137
.LVL288:
.L157:
.LM923:
.LM924:
	li	a5,16384
	bne	t1,a5,.L159
.LM925:
.LVL289:
.LBB347:
.LBI347:
.LM926:
.LBB348:
.LM927:
.LM928:
	lui	a5,%hi(mbedtls_cipher_base_lookup_table)
.LM929:
	srli	a7,a7,24
.LM930:
	andi	a7,a7,124
	addi	a5,a5,%lo(mbedtls_cipher_base_lookup_table)
	add	a5,a5,a7
.LBE348:
.LBE347:
.LM931:
	lw	a5,0(a5)
.LM932:
	addi	a3,a0,40
.LVL290:
.LM933:
	addi	a2,a0,36
.LVL291:
.LM934:
	lw	a6,16(a5)
	lw	a0,60(a0)
	mv	a5,s3
	mv	a4,s4
	mv	a1,s2
.LVL292:
.LM935:
	jalr	a6
.LVL293:
	j	.L185
.LVL294:
.L159:
.LM936:
.LM937:
	li	a5,20480
	bne	t1,a5,.L161
.LM938:
.LVL295:
.LBB349:
.LBI349:
.LM939:
.LBB350:
.LM940:
.LM941:
	lui	a5,%hi(mbedtls_cipher_base_lookup_table)
.LM942:
	srli	a7,a7,24
.LM943:
	andi	a7,a7,124
	addi	a5,a5,%lo(mbedtls_cipher_base_lookup_table)
	add	a5,a5,a7
.LBE350:
.LBE349:
.LM944:
	lw	a5,0(a5)
.LM945:
	addi	a4,a0,20
	addi	a3,a0,40
.LVL296:
.LM946:
	lw	a7,20(a5)
	addi	a2,a0,36
.LVL297:
.LM947:
	lw	a0,60(a0)
	mv	a6,s3
	mv	a5,s4
	mv	a1,s2
.LVL298:
.LM948:
	jalr	a7
.LVL299:
.LM949:
	j	.L185
.LVL300:
.L161:
.LM950:
.LM951:
	li	a0,-24576
.LM952:
	li	a5,28672
.LM953:
	addi	a0,a0,-128
.LM954:
	bne	t1,a5,.L137
.LM955:
.LVL301:
.LBB351:
.LBI351:
.LM956:
.LBB352:
.LM957:
.LM958:
	lui	a5,%hi(mbedtls_cipher_base_lookup_table)
.LM959:
	srli	a7,a7,24
.LM960:
	andi	a7,a7,124
	addi	a5,a5,%lo(mbedtls_cipher_base_lookup_table)
	add	a5,a5,a7
.LBE352:
.LBE351:
.LM961:
	lw	a5,0(a5)
.LM962:
	lw	a0,60(s0)
	mv	a3,s3
.LVL302:
.LM963:
	lw	a5,24(a5)
	mv	a2,s4
.LVL303:
.LM964:
	mv	a1,s2
.LVL304:
.LM965:
	jalr	a5
.LVL305:
.LM966:
	j	.L185
.LVL306:
.L166:
	.cfi_def_cfa_offset 0
	.cfi_restore 1
	.cfi_restore 8
	.cfi_restore 9
	.cfi_restore 18
	.cfi_restore 19
	.cfi_restore 20
	.cfi_restore 21
	.cfi_restore 22
	.cfi_restore 23
.LM967:
	li	a0,-24576
.LVL307:
.LM968:
	addi	a0,a0,-896
	ret
.LVL308:
.L167:
	.cfi_def_cfa_offset 48
	.cfi_offset 1, -4
	.cfi_offset 8, -8
	.cfi_offset 9, -12
	.cfi_offset 18, -16
	.cfi_offset 19, -20
	.cfi_offset 20, -24
	.cfi_offset 21, -28
	.cfi_offset 22, -32
	.cfi_offset 23, -36
.LM969:
	li	a0,-24576
.LVL309:
.LM970:
	addi	a0,a0,-896
	j	.L137
.LVL310:
.L168:
.LM971:
	li	a0,-24576
.LVL311:
.LM972:
	addi	a0,a0,-640
	j	.L137
	.cfi_endproc
.LFE66:
	.size	mbedtls_cipher_update, .-mbedtls_cipher_update
	.section	.text.mbedtls_cipher_finish_padded,"ax",@progbits
	.align	1
	.globl	mbedtls_cipher_finish_padded
	.type	mbedtls_cipher_finish_padded, @function
mbedtls_cipher_finish_padded:
.LVL312:
.LFB76:
.LM973:
	.cfi_startproc
.LM974:
.LM975:
	lw	a5,0(a0)
	bne	a5,zero,.L188
.L191:
.LM976:
	li	a0,-24576
.LVL313:
.LM977:
	addi	a0,a0,-256
	ret
.LVL314:
.L188:
.LM978:
.LM979:
	sw	zero,0(a2)
.LM980:
.LM981:
	sw	zero,0(a3)
.LM982:
.LM983:
	lw	t3,0(a0)
.LM984:
	li	a7,61440
.LM985:
	li	a5,8192
.LM986:
	lw	a6,4(t3)
	and	a7,a6,a7
.LM987:
	bne	a7,a5,.L190
.LM988:
.LM989:
	lw	a5,16(a0)
	beq	a5,zero,.L191
.L192:
.LM990:
.LM991:
	lbu	a5,6(t3)
.LM992:
	li	a4,1
.LM993:
	addi	a5,a5,-76
.LM994:
	andi	a5,a5,0xff
	bleu	a5,a4,.L217
.LM995:
.LM996:
	li	a5,4096
	bne	a7,a5,.L194
.LM997:
.LM998:
	lw	a5,36(a0)
.LM999:
	li	a0,-24576
.LVL315:
.LM1000:
	addi	a0,a0,-640
.LM1001:
	beq	a5,zero,.L217
	ret
.LVL316:
.L190:
.LM1002:
.LM1003:
	srai	a5,a6,12
	andi	a5,a5,11
	li	a4,3
	beq	a5,a4,.L217
.LM1004:
	li	a4,-24576
	li	a5,-16384
	addi	a5,a5,-1
	add	a4,a7,a4
.LM1005:
	li	t1,57344
.LM1006:
	and	a4,a4,a5
.LM1007:
	and	t1,a6,t1
	li	a5,-16384
	add	t1,t1,a5
.LM1008:
	seqz	a4,a4
.LM1009:
	seqz	t1,t1
.LM1010:
	or	a4,a4,t1
	bne	a4,zero,.L217
.LM1011:
	li	a5,-36864
	add	a5,a7,a5
.LM1012:
	bne	a5,zero,.L192
.LVL317:
.L217:
.LM1013:
	li	a0,0
.LM1014:
	ret
.LVL318:
.L194:
.LM1015:
.LM1016:
	li	a5,8192
	bne	a7,a5,.L204
.LM1017:
	addi	sp,sp,-32
	.cfi_def_cfa_offset 32
	sw	s0,24(sp)
	sw	s1,20(sp)
	sw	s2,16(sp)
	sw	s3,12(sp)
	sw	ra,28(sp)
	.cfi_offset 8, -8
	.cfi_offset 9, -12
	.cfi_offset 18, -16
	.cfi_offset 19, -20
	.cfi_offset 1, -4
.LBB366:
.LM1018:
	lb	a5,8(a0)
	mv	s1,a2
	mv	s3,a3
.LBE366:
.LM1019:
	lw	a2,36(a0)
.LVL319:
.LM1020:
	mv	s2,a1
	mv	s0,a0
.LBB385:
.LM1021:
.LVL320:
.LM1022:
.LM1023:
	bne	a5,a4,.L195
.LVL321:
.LM1024:
.LM1025:
	lw	a5,12(a0)
.LM1026:
	bne	a5,zero,.L196
.LM1027:
.LBE385:
.LM1028:
	li	a0,-24576
	addi	a0,a0,-640
.LBB386:
.LM1029:
	beq	a2,zero,.L193
.LVL322:
.L187:
.LM1030:
.LBE386:
.LM1031:
	lw	ra,28(sp)
	.cfi_remember_state
	.cfi_restore 1
	lw	s0,24(sp)
	.cfi_restore 8
.LVL323:
.LM1032:
	lw	s1,20(sp)
	.cfi_restore 9
.LVL324:
.LM1033:
	lw	s2,16(sp)
	.cfi_restore 18
.LVL325:
.LM1034:
	lw	s3,12(sp)
	.cfi_restore 19
.LVL326:
.LM1035:
	addi	sp,sp,32
	.cfi_def_cfa_offset 0
	jr	ra
.LVL327:
.L196:
	.cfi_restore_state
.LBB387:
.LM1036:
.LBB367:
.LBB368:
.LM1037:
	lw	a1,56(s0)
.LVL328:
.LM1038:
.LBE368:
.LBE367:
.LM1039:
	addi	a0,a0,20
.LVL329:
.LBB370:
.LBI367:
.LM1040:
.LBB369:
.LM1041:
.LM1042:
.LM1043:
	bne	a1,zero,.L198
.LM1044:
.LM1045:
	srli	a4,a6,3
.LM1046:
	andi	a1,a4,28
.L198:
.LVL330:
.LM1047:
.LBE369:
.LBE370:
.LM1048:
	jalr	a5
.LVL331:
.L199:
.LM1049:
.LM1050:
	lw	a5,0(s0)
.LVL332:
.LBB371:
.LBI371:
.LM1051:
.LBB372:
.LM1052:
.LM1053:
.LBE372:
.LBE371:
.LBB374:
.LBI374:
.LM1054:
.LBB375:
.LM1055:
.LM1056:
.LM1057:
.LBE375:
.LBE374:
.LM1058:
	lb	a1,8(s0)
	lw	a0,60(s0)
.LBB377:
.LBB376:
.LM1059:
	lw	a2,4(a5)
.LBE376:
.LBE377:
.LBB378:
.LBB373:
.LM1060:
	lui	a5,%hi(mbedtls_cipher_base_lookup_table)
	addi	a5,a5,%lo(mbedtls_cipher_base_lookup_table)
.LM1061:
	srli	a4,a2,24
.LM1062:
	andi	a4,a4,124
	add	a5,a5,a4
.LBE373:
.LBE378:
.LM1063:
	lw	a5,0(a5)
.LM1064:
	addi	a4,s0,20
	addi	a3,s0,40
	lw	a6,8(a5)
	andi	a2,a2,31
	mv	a5,s2
	jalr	a6
.LVL333:
.LM1065:
	bne	a0,zero,.L187
.LM1066:
.LM1067:
	lb	a5,8(s0)
	lw	a4,0(s0)
	bne	a5,zero,.L200
.LM1068:
.LM1069:
	lw	a5,16(s0)
.LBB379:
.LBI379:
.LM1070:
.LVL334:
.LBB380:
.LM1071:
.LM1072:
	li	a1,0
.LM1073:
	beq	a4,zero,.L201
.LM1074:
.LM1075:
	lw	a1,4(a4)
.LM1076:
	andi	a1,a1,31
.L201:
.LVL335:
.LM1077:
.LBE380:
.LBE379:
.LBE387:
.LM1078:
	lw	s0,24(sp)
	.cfi_remember_state
	.cfi_restore 8
.LVL336:
.LM1079:
	lw	ra,28(sp)
	.cfi_restore 1
.LBB388:
.LM1080:
	mv	a3,s3
	mv	a2,s1
.LBE388:
.LM1081:
	lw	s3,12(sp)
	.cfi_restore 19
.LVL337:
.LM1082:
	lw	s1,20(sp)
	.cfi_restore 9
.LVL338:
.LBB389:
.LM1083:
	mv	a0,s2
.LVL339:
.LM1084:
.LBE389:
.LM1085:
	lw	s2,16(sp)
	.cfi_restore 18
.LVL340:
.LM1086:
	addi	sp,sp,32
	.cfi_def_cfa_offset 0
.LBB390:
.LM1087:
	jr	a5
.LVL341:
.L195:
	.cfi_restore_state
.LM1088:
.LBB381:
.LBI381:
.LM1089:
.LBB382:
.LM1090:
.LM1091:
.LM1092:
	andi	a6,a6,31
.LBE382:
.LBE381:
.LM1093:
	beq	a2,a6,.L199
.LM1094:
.LM1095:
	lw	a5,12(a0)
	or	a5,a5,a2
	beq	a5,zero,.L193
.LBE390:
.LM1096:
	li	a0,-24576
	addi	a0,a0,-640
	j	.L187
.LVL342:
.L200:
.LBB391:
.LM1097:
.LBB383:
.LBI383:
.LM1098:
.LBB384:
.LM1099:
.LM1100:
	li	a5,0
.LM1101:
	beq	a4,zero,.L202
.LM1102:
.LM1103:
	lw	a5,4(a4)
.LM1104:
	andi	a5,a5,31
.L202:
.LVL343:
.LM1105:
.LBE384:
.LBE383:
.LM1106:
	sw	a5,0(s1)
.LM1107:
.LVL344:
.L193:
.LM1108:
.LBE391:
.LM1109:
	li	a0,0
	j	.L187
.LVL345:
.L204:
	.cfi_def_cfa_offset 0
	.cfi_restore 1
	.cfi_restore 8
	.cfi_restore 9
	.cfi_restore 18
	.cfi_restore 19
.LM1110:
	li	a0,-24576
.LVL346:
.LM1111:
	addi	a0,a0,-128
	ret
	.cfi_endproc
.LFE76:
	.size	mbedtls_cipher_finish_padded, .-mbedtls_cipher_finish_padded
	.section	.text.mbedtls_cipher_finish,"ax",@progbits
	.align	1
	.globl	mbedtls_cipher_finish
	.type	mbedtls_cipher_finish, @function
mbedtls_cipher_finish:
.LVL347:
.LFB77:
.LM1112:
	.cfi_startproc
.LM1113:
.LM1114:
	addi	sp,sp,-32
	.cfi_def_cfa_offset 32
.LM1115:
	addi	a3,sp,12
.LM1116:
	sw	ra,28(sp)
	.cfi_offset 1, -4
.LM1117:
	sw	zero,12(sp)
.LM1118:
.LM1119:
	call	mbedtls_cipher_finish_padded
.LVL348:
.LM1120:
.LM1121:
	bne	a0,zero,.L220
.LM1122:
.LVL349:
.LBB392:
.LBI392:
.LM1123:
.LBB393:
.LM1124:
.LM1125:
	lw	a0,12(sp)
.LVL350:
.LM1126:
	li	a5,24576
	addi	a5,a5,512
	and	a0,a0,a5
.LM1127:
	neg	a0,a0
.LVL351:
.LM1128:
.LBE393:
.LBE392:
.LM1129:
.L220:
.LM1130:
	lw	ra,28(sp)
	.cfi_restore 1
	addi	sp,sp,32
	.cfi_def_cfa_offset 0
	jr	ra
	.cfi_endproc
.LFE77:
	.size	mbedtls_cipher_finish, .-mbedtls_cipher_finish
	.section	.text.mbedtls_cipher_set_padding_mode,"ax",@progbits
	.align	1
	.globl	mbedtls_cipher_set_padding_mode
	.type	mbedtls_cipher_set_padding_mode, @function
mbedtls_cipher_set_padding_mode:
.LVL352:
.LFB78:
.LM1131:
	.cfi_startproc
.LM1132:
.LM1133:
	lw	a4,0(a0)
.LM1134:
	mv	a5,a0
.LM1135:
	beq	a4,zero,.L232
.LM1136:
	lw	a4,4(a4)
.LM1137:
	li	a0,-24576
.LVL353:
.LM1138:
	li	a2,2
	srai	a3,a4,12
	andi	a3,a3,15
.LM1139:
	addi	a0,a0,-256
.LM1140:
	bne	a3,a2,.L223
.LM1141:
	li	a0,-24576
	li	a4,4
	addi	a0,a0,-128
	bgtu	a1,a4,.L223
	lui	a4,%hi(.L226)
	addi	a4,a4,%lo(.L226)
	slli	a1,a1,2
.LVL354:
.LM1142:
	add	a1,a1,a4
	lw	a4,0(a1)
	jr	a4
	.section	.rodata.mbedtls_cipher_set_padding_mode,"a",@progbits
	.align	2
	.align	2
.L226:
	.word	.L230
	.word	.L229
	.word	.L228
	.word	.L227
	.word	.L225
	.section	.text.mbedtls_cipher_set_padding_mode
.L230:
.LM1143:
.LM1144:
	lui	a4,%hi(add_pkcs_padding)
	addi	a4,a4,%lo(add_pkcs_padding)
	sw	a4,12(a5)
.LM1145:
.LM1146:
	lui	a4,%hi(mbedtls_get_pkcs_padding)
	addi	a4,a4,%lo(mbedtls_get_pkcs_padding)
.L236:
.LM1147:
	sw	a4,16(a5)
.LM1148:
.LM1149:
	li	a0,0
	ret
.L229:
.LM1150:
.LM1151:
	lui	a4,%hi(add_one_and_zeros_padding)
	addi	a4,a4,%lo(add_one_and_zeros_padding)
	sw	a4,12(a5)
.LM1152:
.LM1153:
	lui	a4,%hi(get_one_and_zeros_padding)
	addi	a4,a4,%lo(get_one_and_zeros_padding)
	j	.L236
.L228:
.LM1154:
.LM1155:
	lui	a4,%hi(add_zeros_and_len_padding)
	addi	a4,a4,%lo(add_zeros_and_len_padding)
	sw	a4,12(a5)
.LM1156:
.LM1157:
	lui	a4,%hi(get_zeros_and_len_padding)
	addi	a4,a4,%lo(get_zeros_and_len_padding)
	j	.L236
.L227:
.LM1158:
.LM1159:
	lui	a4,%hi(add_zeros_padding)
	addi	a4,a4,%lo(add_zeros_padding)
	sw	a4,12(a5)
.LM1160:
.LM1161:
	lui	a4,%hi(get_zeros_padding)
	addi	a4,a4,%lo(get_zeros_padding)
	j	.L236
.L225:
.LM1162:
.LM1163:
	lui	a4,%hi(get_no_padding)
.LM1164:
	sw	zero,12(a5)
.LM1165:
.LM1166:
	addi	a4,a4,%lo(get_no_padding)
	j	.L236
.LVL355:
.L232:
.LM1167:
	li	a0,-24576
.LVL356:
.LM1168:
	addi	a0,a0,-256
.L223:
.LM1169:
	ret
	.cfi_endproc
.LFE78:
	.size	mbedtls_cipher_set_padding_mode, .-mbedtls_cipher_set_padding_mode
	.section	.text.mbedtls_cipher_write_tag,"ax",@progbits
	.align	1
	.globl	mbedtls_cipher_write_tag
	.type	mbedtls_cipher_write_tag, @function
mbedtls_cipher_write_tag:
.LVL357:
.LFB79:
.LM1170:
	.cfi_startproc
.LM1171:
.LM1172:
	lw	a5,0(a0)
.LM1173:
	beq	a5,zero,.L239
.LM1174:
	lb	a7,8(a0)
	mv	a6,a0
.LM1175:
.LM1176:
	li	a4,1
.LM1177:
	li	a0,-24576
.LVL358:
.LM1178:
	addi	a0,a0,-256
.LM1179:
	bne	a7,a4,.L244
.LM1180:
.LM1181:
	lw	a5,4(a5)
.LM1182:
	li	a0,-24576
.LM1183:
	li	a3,6
	srai	a4,a5,12
	andi	a4,a4,15
.LM1184:
	addi	a0,a0,-128
.LM1185:
	bne	a4,a3,.L244
.LM1186:
	addi	sp,sp,-32
	.cfi_def_cfa_offset 32
	sw	ra,28(sp)
	.cfi_offset 1, -4
.LBB394:
.LM1187:
	lw	a0,60(a6)
	mv	a5,a2
	mv	a4,a1
.LM1188:
.LM1189:
.LM1190:
	addi	a3,sp,12
	li	a2,0
.LVL359:
.LM1191:
	li	a1,0
.LVL360:
.LM1192:
	call	mbedtls_gcm_finish
.LVL361:
.LM1193:
.LBE394:
.LM1194:
	lw	ra,28(sp)
	.cfi_restore 1
	addi	sp,sp,32
	.cfi_def_cfa_offset 0
	jr	ra
.LVL362:
.L239:
.LM1195:
	li	a0,-24576
.LVL363:
.LM1196:
	addi	a0,a0,-256
	ret
.LVL364:
.L244:
.LM1197:
	ret
	.cfi_endproc
.LFE79:
	.size	mbedtls_cipher_write_tag, .-mbedtls_cipher_write_tag
	.section	.text.mbedtls_cipher_check_tag,"ax",@progbits
	.align	1
	.globl	mbedtls_cipher_check_tag
	.type	mbedtls_cipher_check_tag, @function
mbedtls_cipher_check_tag:
.LVL365:
.LFB80:
.LM1198:
	.cfi_startproc
.LM1199:
.LM1200:
.LM1201:
.LM1202:
	addi	sp,sp,-48
	.cfi_def_cfa_offset 48
	sw	ra,44(sp)
	sw	s0,40(sp)
	sw	s1,36(sp)
	sw	s2,32(sp)
	.cfi_offset 1, -4
	.cfi_offset 8, -8
	.cfi_offset 9, -12
	.cfi_offset 18, -16
.LM1203:
	lw	a5,0(a0)
.LM1204:
	beq	a5,zero,.L252
.LM1205:
.LM1206:
	lb	a4,8(a0)
.LM1207:
	li	s0,-24576
	addi	s0,s0,-256
.LM1208:
	bne	a4,zero,.L247
.LM1209:
	lw	a5,4(a5)
.LM1210:
	li	a3,6
	mv	s1,a2
	srai	a4,a5,12
	andi	a4,a4,15
	mv	s2,a1
.LM1211:
.LVL366:
.LM1212:
.LM1213:
	bne	a4,a3,.L254
.LBB395:
.LM1214:
.LM1215:
.LM1216:
	li	s0,-24576
.LM1217:
	li	a5,16
.LM1218:
	addi	s0,s0,-256
.LM1219:
	bgtu	a2,a5,.L247
.LM1220:
.LM1221:
	lw	a0,60(a0)
.LVL367:
.LM1222:
	mv	a5,a2
	addi	a4,sp,16
	addi	a3,sp,12
	li	a2,0
.LVL368:
.LM1223:
	li	a1,0
.LVL369:
.LM1224:
	call	mbedtls_gcm_finish
.LVL370:
	mv	s0,a0
.LVL371:
.LM1225:
	bne	a0,zero,.L247
.LM1226:
.LM1227:
	mv	a2,s1
	addi	a1,sp,16
	mv	a0,s2
	call	mbedtls_ct_memcmp
.LVL372:
	mv	s0,a0
.LVL373:
.LM1228:
	beq	a0,zero,.L249
.LM1229:
.LVL374:
.LM1230:
.LM1231:
	li	s0,-24576
	addi	s0,s0,-768
.LVL375:
.L249:
.LM1232:
.LBE395:
.LM1233:
	mv	a1,s1
	addi	a0,sp,16
	call	mbedtls_platform_zeroize
.LVL376:
.LM1234:
.L247:
.LM1235:
	lw	ra,44(sp)
	.cfi_remember_state
	.cfi_restore 1
	mv	a0,s0
	lw	s0,40(sp)
	.cfi_restore 8
	lw	s1,36(sp)
	.cfi_restore 9
	lw	s2,32(sp)
	.cfi_restore 18
	addi	sp,sp,48
	.cfi_def_cfa_offset 0
	jr	ra
.LVL377:
.L254:
	.cfi_restore_state
.LM1236:
	li	s0,-24576
	addi	s0,s0,-128
	j	.L249
.LVL378:
.L252:
.LM1237:
	li	s0,-24576
	addi	s0,s0,-256
	j	.L247
	.cfi_endproc
.LFE80:
	.size	mbedtls_cipher_check_tag, .-mbedtls_cipher_check_tag
	.section	.text.mbedtls_cipher_crypt,"ax",@progbits
	.align	1
	.globl	mbedtls_cipher_crypt
	.type	mbedtls_cipher_crypt, @function
mbedtls_cipher_crypt:
.LVL379:
.LFB81:
.LM1238:
	.cfi_startproc
.LM1239:
.LM1240:
.LM1241:
.LM1242:
	addi	sp,sp,-48
	.cfi_def_cfa_offset 48
	sw	s0,40(sp)
	sw	s1,36(sp)
	sw	s2,32(sp)
	sw	s3,28(sp)
	sw	s4,24(sp)
	sw	ra,44(sp)
	.cfi_offset 8, -8
	.cfi_offset 9, -12
	.cfi_offset 18, -16
	.cfi_offset 19, -20
	.cfi_offset 20, -24
	.cfi_offset 1, -4
.LM1243:
	mv	s1,a0
	mv	s3,a3
	mv	s4,a4
	mv	s2,a5
	mv	s0,a6
.LM1244:
	call	mbedtls_cipher_set_iv
.LVL380:
.LM1245:
	bne	a0,zero,.L260
.LM1246:
.LVL381:
.LBB396:
.LBI396:
.LM1247:
.LBB397:
.LM1248:
.LM1249:
	lw	a5,0(s1)
.LBE397:
.LBE396:
.LM1250:
	li	a0,-24576
.LVL382:
.LM1251:
	addi	a0,a0,-256
.LBB399:
.LBB398:
.LM1252:
	beq	a5,zero,.L260
.LM1253:
.LM1254:
	sw	zero,36(s1)
.LM1255:
.LVL383:
.LM1256:
.LBE398:
.LBE399:
.LM1257:
.LM1258:
	mv	a4,s0
	mv	a3,s2
	mv	a2,s4
	mv	a1,s3
	mv	a0,s1
	call	mbedtls_cipher_update
.LVL384:
.LM1259:
	bne	a0,zero,.L260
.LM1260:
.LM1261:
	lw	a1,0(s0)
	addi	a3,sp,12
	addi	a2,sp,8
	add	a1,s2,a1
	mv	a0,s1
.LVL385:
.LM1262:
	sw	zero,12(sp)
.LM1263:
.LM1264:
	call	mbedtls_cipher_finish_padded
.LVL386:
.LM1265:
	bne	a0,zero,.L260
.LM1266:
.LM1267:
	lw	a5,0(s0)
	lw	a4,8(sp)
.LBB400:
.LBB401:
.LM1268:
	lw	a0,12(sp)
.LVL387:
.LM1269:
.LBE401:
.LBE400:
.LM1270:
	add	a5,a5,a4
	sw	a5,0(s0)
.LM1271:
.LVL388:
.LBB403:
.LBI400:
.LM1272:
.LBB402:
.LM1273:
.LM1274:
	li	a5,24576
	addi	a5,a5,512
	and	a0,a0,a5
.LVL389:
.LM1275:
	neg	a0,a0
.LVL390:
.LM1276:
.LBE402:
.LBE403:
.LM1277:
.L260:
.LM1278:
	lw	ra,44(sp)
	.cfi_restore 1
	lw	s0,40(sp)
	.cfi_restore 8
.LVL391:
.LM1279:
	lw	s1,36(sp)
	.cfi_restore 9
.LVL392:
.LM1280:
	lw	s2,32(sp)
	.cfi_restore 18
.LVL393:
.LM1281:
	lw	s3,28(sp)
	.cfi_restore 19
.LVL394:
.LM1282:
	lw	s4,24(sp)
	.cfi_restore 20
.LVL395:
.LM1283:
	addi	sp,sp,48
	.cfi_def_cfa_offset 0
	jr	ra
	.cfi_endproc
.LFE81:
	.size	mbedtls_cipher_crypt, .-mbedtls_cipher_crypt
	.section	.text.mbedtls_cipher_auth_encrypt_ext,"ax",@progbits
	.align	1
	.globl	mbedtls_cipher_auth_encrypt_ext
	.type	mbedtls_cipher_auth_encrypt_ext, @function
mbedtls_cipher_auth_encrypt_ext:
.LVL396:
.LFB84:
.LM1284:
	.cfi_startproc
.LM1285:
.LM1286:
	addi	sp,sp,-32
	.cfi_def_cfa_offset 32
	sw	s0,24(sp)
	sw	s1,20(sp)
	sw	s2,16(sp)
	sw	ra,28(sp)
	.cfi_offset 8, -8
	.cfi_offset 9, -12
	.cfi_offset 18, -16
	.cfi_offset 1, -4
.LM1287:
	mv	s2,a5
.LM1288:
	lw	a5,0(a0)
.LVL397:
.LM1289:
	li	t2,61440
.LM1290:
	mv	t3,a4
.LM1291:
	lw	t4,4(a5)
.LM1292:
	li	a5,57344
.LM1293:
	mv	t0,a6
.LM1294:
	and	t2,t4,t2
.LM1295:
	and	t4,t4,a5
.LM1296:
	li	a5,49152
.LM1297:
	lw	a6,32(sp)
.LVL398:
.LM1298:
	lw	s0,36(sp)
	lw	s1,40(sp)
	mv	t6,a0
	mv	a4,a7
.LVL399:
.LM1299:
	bne	t4,a5,.L265
.LBB407:
.LM1300:
.LVL400:
.LM1301:
.LM1302:
	or	t3,a2,t3
.LVL401:
.LM1303:
	or	t3,t3,s1
	bne	t3,zero,.L269
.LM1304:
.LM1305:
.LM1306:
.LM1307:
	mv	a5,s0
.LBE407:
.LM1308:
	lw	s0,24(sp)
	.cfi_remember_state
	.cfi_restore 8
	lw	ra,28(sp)
	.cfi_restore 1
	lw	s1,20(sp)
	.cfi_restore 9
.LBB408:
.LM1309:
	lw	a0,60(a0)
.LVL402:
.LM1310:
	mv	a2,s2
.LVL403:
.LM1311:
.LBE408:
.LM1312:
	lw	s2,16(sp)
	.cfi_restore 18
.LVL404:
.LBB409:
.LM1313:
	sub	a1,t2,t4
.LVL405:
.LM1314:
.LBE409:
.LM1315:
.LBB410:
.LM1316:
	mv	a3,t0
.LVL406:
.LM1317:
	snez	a1,a1
.LBE410:
.LM1318:
	addi	sp,sp,32
	.cfi_def_cfa_offset 0
.LVL407:
.LBB411:
.LM1319:
	tail	mbedtls_nist_kw_wrap
.LVL408:
.L265:
	.cfi_restore_state
.LM1320:
.LBE411:
.LM1321:
.LBB412:
.LM1322:
	li	a0,-24576
.LVL409:
.LM1323:
.LBE412:
.LM1324:
	add	a5,t0,s1
.LBB413:
.LM1325:
	addi	a0,a0,-256
.LBE413:
.LM1326:
	bgtu	a5,a6,.L264
.LBB414:
.LBB415:
.LM1327:
	li	a0,24576
	mv	a4,a3
.LVL410:
.LM1328:
	mv	a6,s2
.LVL411:
.LM1329:
	mv	a3,a2
.LVL412:
.LM1330:
	mv	a5,t3
	mv	a2,a1
.LVL413:
.LM1331:
.LBE415:
.LBE414:
.LM1332:
.LM1333:
	add	a1,a7,t0
.LVL414:
.LBB418:
.LBI414:
.LM1334:
.LBB416:
.LM1335:
.LM1336:
	bne	t2,a0,.L267
.LVL415:
.LM1337:
.LM1338:
	sw	t0,0(s0)
.LM1339:
.LM1340:
	lw	a0,60(t6)
	sw	a1,8(sp)
	sw	a7,0(sp)
	mv	a5,a4
.LVL416:
.LM1341:
	sw	s1,4(sp)
	mv	a4,a3
.LVL417:
.LM1342:
	mv	a7,s2
.LVL418:
.LM1343:
	mv	a3,a2
.LVL419:
.LM1344:
	mv	a6,t3
.LVL420:
.LM1345:
	mv	a2,t0
.LVL421:
.LM1346:
	li	a1,1
.LVL422:
.LM1347:
	call	mbedtls_gcm_crypt_and_tag
.LVL423:
.L268:
.LM1348:
.LBE416:
.LBE418:
.LM1349:
.LM1350:
	lw	a5,0(s0)
	add	a5,a5,s1
	sw	a5,0(s0)
.LM1351:
.LVL424:
.L264:
.LM1352:
	lw	ra,28(sp)
	.cfi_remember_state
	.cfi_restore 1
	lw	s0,24(sp)
	.cfi_restore 8
	lw	s1,20(sp)
	.cfi_restore 9
	lw	s2,16(sp)
	.cfi_restore 18
.LVL425:
.LM1353:
	addi	sp,sp,32
	.cfi_def_cfa_offset 0
.LVL426:
.LM1354:
	jr	ra
.LVL427:
.L267:
	.cfi_restore_state
.LBB419:
.LBB417:
.LM1355:
.LM1356:
	li	a0,-24576
.LM1357:
	li	t3,32768
.LM1358:
	addi	a0,a0,-128
.LM1359:
	bne	t2,t3,.L268
.LM1360:
.LM1361:
	sw	t0,0(s0)
.LM1362:
.LM1363:
	lw	a0,60(t6)
	sw	a1,0(sp)
	sw	s1,4(sp)
	mv	a1,t0
.LVL428:
.LM1364:
	call	mbedtls_ccm_encrypt_and_tag
.LVL429:
.LM1365:
	j	.L268
.LVL430:
.L269:
.LM1366:
.LBE417:
.LBE419:
.LBB420:
.LM1367:
	li	a0,-24576
.LVL431:
.LM1368:
	addi	a0,a0,-256
	j	.L264
.LBE420:
	.cfi_endproc
.LFE84:
	.size	mbedtls_cipher_auth_encrypt_ext, .-mbedtls_cipher_auth_encrypt_ext
	.section	.text.mbedtls_cipher_auth_decrypt_ext,"ax",@progbits
	.align	1
	.globl	mbedtls_cipher_auth_decrypt_ext
	.type	mbedtls_cipher_auth_decrypt_ext, @function
mbedtls_cipher_auth_decrypt_ext:
.LVL432:
.LFB85:
.LM1369:
	.cfi_startproc
.LM1370:
.LM1371:
	addi	sp,sp,-32
	.cfi_def_cfa_offset 32
	sw	s0,24(sp)
	sw	ra,28(sp)
	.cfi_offset 8, -8
	.cfi_offset 1, -4
.LM1372:
	mv	t5,a5
.LM1373:
	lw	a5,0(a0)
.LVL433:
.LM1374:
	li	t2,61440
.LM1375:
	mv	t6,a1
.LM1376:
	lw	t1,4(a5)
.LM1377:
	li	a5,57344
.LM1378:
	mv	t3,a4
.LM1379:
	and	t2,t1,t2
.LM1380:
	and	t1,t1,a5
.LM1381:
	li	a5,49152
.LM1382:
	mv	a1,a6
.LVL434:
.LM1383:
	lw	t0,36(sp)
	lw	a6,32(sp)
.LVL435:
.LM1384:
	lw	s0,40(sp)
	mv	t4,a0
	mv	a4,a7
.LVL436:
.LM1385:
	bne	t1,a5,.L274
.LBB426:
.LM1386:
.LVL437:
.LM1387:
.LM1388:
	or	t3,a2,t3
.LVL438:
.LM1389:
	or	t3,t3,s0
	bne	t3,zero,.L278
.LM1390:
.LM1391:
.LM1392:
.LBE426:
.LM1393:
	lw	s0,24(sp)
	.cfi_remember_state
	.cfi_restore 8
	lw	ra,28(sp)
	.cfi_restore 1
.LBB427:
.LM1394:
	lw	a0,60(a0)
.LVL439:
.LM1395:
	sub	t1,t2,t1
.LM1396:
	mv	a3,a1
.LVL440:
.LM1397:
.LBE427:
.LM1398:
.LBB428:
.LM1399:
	mv	a5,t0
	mv	a2,t5
.LVL441:
.LM1400:
	snez	a1,t1
.LVL442:
.LM1401:
.LBE428:
.LM1402:
	addi	sp,sp,32
	.cfi_def_cfa_offset 0
.LVL443:
.LBB429:
.LM1403:
	tail	mbedtls_nist_kw_unwrap
.LVL444:
.L274:
	.cfi_restore_state
.LM1404:
.LBE429:
.LM1405:
.LBB430:
.LM1406:
	li	a0,-24576
.LVL445:
.LM1407:
	addi	a0,a0,-256
.LBE430:
.LM1408:
	bltu	a1,s0,.L273
.LM1409:
	sub	a1,a1,s0
.LVL446:
.LM1410:
	bgtu	a1,a6,.L273
	mv	a5,t3
.LBB431:
.LBB432:
.LM1411:
	li	t3,24576
.LVL447:
.LM1412:
	mv	a4,a3
.LVL448:
.LM1413:
	mv	a6,t5
.LVL449:
.LM1414:
	mv	a3,a2
.LVL450:
.LM1415:
.LBE432:
.LBE431:
.LM1416:
	add	t1,t5,a1
	mv	a2,t6
.LVL451:
.LM1417:
.LBB437:
.LBI431:
.LM1418:
.LBB435:
.LM1419:
.LM1420:
	bne	t2,t3,.L276
.LVL452:
.LBB433:
.LM1421:
.LM1422:
.LM1423:
	sw	a1,0(t0)
.LM1424:
.LM1425:
	lw	a0,60(t4)
	sw	a7,4(sp)
	sw	t5,0(sp)
	mv	a7,s0
.LVL453:
.LM1426:
	mv	a6,t1
.LVL454:
.LM1427:
	call	mbedtls_gcm_auth_decrypt
.LVL455:
.LM1428:
.LM1429:
	li	a5,-18
.LVL456:
.L284:
.LM1430:
	bne	a0,a5,.L273
.LM1431:
.LVL457:
.LM1432:
	li	a0,-24576
	addi	a0,a0,-768
.LVL458:
.L273:
.LM1433:
.LBE433:
.LBE435:
.LBE437:
.LM1434:
	lw	ra,28(sp)
	.cfi_remember_state
	.cfi_restore 1
	lw	s0,24(sp)
	.cfi_restore 8
	addi	sp,sp,32
	.cfi_def_cfa_offset 0
.LVL459:
.LM1435:
	jr	ra
.LVL460:
.L276:
	.cfi_restore_state
.LBB438:
.LBB436:
.LM1436:
.LM1437:
	li	a0,-24576
.LM1438:
	li	t3,32768
.LM1439:
	addi	a0,a0,-128
.LM1440:
	bne	t2,t3,.L273
.LBB434:
.LM1441:
.LVL461:
.LM1442:
.LM1443:
	sw	a1,0(t0)
.LM1444:
.LM1445:
	lw	a0,60(t4)
	sw	s0,4(sp)
	sw	t1,0(sp)
	call	mbedtls_ccm_auth_decrypt
.LVL462:
.LM1446:
.LM1447:
	li	a5,-15
	j	.L284
.LVL463:
.L278:
.LM1448:
.LBE434:
.LBE436:
.LBE438:
.LBB439:
.LM1449:
	li	a0,-24576
.LVL464:
.LM1450:
	addi	a0,a0,-256
	j	.L273
.LBE439:
	.cfi_endproc
.LFE85:
	.size	mbedtls_cipher_auth_decrypt_ext, .-mbedtls_cipher_auth_decrypt_ext
	.section	.sbss.supported_init,"aw",@nobits
	.align	2
	.type	supported_init, @object
	.size	supported_init, 4
supported_init:
	.zero	4
	.text
.Letext0:
	.section	.note.GNU-stack,"",@progbits
