	.file	"ecdsa.c"
	.option nopic
	.attribute arch, "rv32i2p1_m2p0_f2p2_c2p0_zicsr2p0_zmmul1p0_zca1p0_zcf1p0"
	.attribute unaligned_access, 0
	.attribute stack_align, 16
	.text
.Ltext0:
	.cfi_sections	.debug_frame
	.section	.text.derive_mpi,"ax",@progbits
	.align	1
	.type	derive_mpi, @function
derive_mpi:
.LVL0:
.LFB23:
.LM1:
	.cfi_startproc
.LM2:
.LM3:
.LM4:
.LM5:
	addi	sp,sp,-32
	.cfi_def_cfa_offset 32
	sw	s0,24(sp)
.LVL1:
.LM6:
	sw	s2,16(sp)
	sw	ra,28(sp)
	sw	s1,20(sp)
	.cfi_offset 8, -8
	.cfi_offset 18, -16
	.cfi_offset 1, -4
	.cfi_offset 9, -12
.LM7:
	mv	s2,a1
	mv	a1,a2
.LVL2:
.LM8:
	lw	a2,64(a0)
.LVL3:
.LM9:
	mv	s0,a0
.LM10:
	addi	a2,a2,7
.LM11:
	srli	a2,a2,3
.LM12:
	bleu	a2,a3,.L2
	mv	a2,a3
.L2:
.LVL4:
.LM13:
.LM14:
.LM15:
	mv	a0,s2
.LVL5:
.LM16:
	sw	a2,12(sp)
	call	mbedtls_mpi_read_binary
.LVL6:
.LM17:
	mv	s1,a0
.LVL7:
.LM18:
	bne	a0,zero,.L1
.LM19:
.LM20:
.LM21:
	lw	a2,12(sp)
.LM22:
	lw	a1,64(s0)
.LM23:
	slli	a2,a2,3
.LM24:
	bgtu	a2,a1,.L4
.LVL8:
.L6:
.LM25:
.LM26:
.LM27:
	addi	s0,s0,52
.LVL9:
.LM28:
	mv	a1,s0
	mv	a0,s2
	call	mbedtls_mpi_cmp_mpi
.LVL10:
.LM29:
	blt	a0,zero,.L1
.LM30:
.LM31:
.LM32:
	mv	a2,s0
.LM33:
	lw	s0,24(sp)
	.cfi_remember_state
	.cfi_restore 8
.LVL11:
.LM34:
	lw	ra,28(sp)
	.cfi_restore 1
	lw	s1,20(sp)
	.cfi_restore 9
.LM35:
	mv	a1,s2
	mv	a0,s2
.LM36:
	lw	s2,16(sp)
	.cfi_restore 18
.LVL12:
.LM37:
	addi	sp,sp,32
	.cfi_def_cfa_offset 0
.LVL13:
.LM38:
	tail	mbedtls_mpi_sub_mpi
.LVL14:
.L4:
	.cfi_restore_state
.LM39:
.LM40:
.LM41:
	sub	a1,a2,a1
	mv	a0,s2
	call	mbedtls_mpi_shift_r
.LVL15:
.LM42:
	beq	a0,zero,.L6
.LM43:
	mv	s1,a0
.LM44:
.LM45:
.L3:
.LVL16:
.L1:
.LM46:
	lw	ra,28(sp)
	.cfi_restore 1
	lw	s0,24(sp)
	.cfi_restore 8
	lw	s2,16(sp)
	.cfi_restore 18
.LVL17:
.LM47:
	mv	a0,s1
	lw	s1,20(sp)
	.cfi_restore 9
	addi	sp,sp,32
	.cfi_def_cfa_offset 0
.LVL18:
.LM48:
	jr	ra
	.cfi_endproc
.LFE23:
	.size	derive_mpi, .-derive_mpi
	.section	.text.ecdsa_restart_ver_free.part.0,"ax",@progbits
	.align	1
	.type	ecdsa_restart_ver_free.part.0, @function
ecdsa_restart_ver_free.part.0:
.LVL19:
.LFB43:
.LM49:
	.cfi_startproc
.LM50:
.LM51:
	addi	sp,sp,-16
	.cfi_def_cfa_offset 16
	sw	ra,12(sp)
	sw	s0,8(sp)
	sw	s1,4(sp)
	.cfi_offset 1, -4
	.cfi_offset 8, -8
	.cfi_offset 9, -12
.LM52:
	mv	s0,a0
.LM53:
	call	mbedtls_mpi_free
.LVL20:
.LM54:
	addi	a0,s0,8
	call	mbedtls_mpi_free
.LVL21:
.LM55:
.LBB6:
.LBI6:
.LM56:
.LBB7:
.LM57:
	mv	a0,s0
	call	mbedtls_mpi_init
.LVL22:
.LM58:
	addi	a0,s0,8
	call	mbedtls_mpi_init
.LVL23:
.LM59:
.LM60:
	sb	zero,16(s0)
.LVL24:
.LM61:
.LBE7:
.LBE6:
.LM62:
	lw	ra,12(sp)
	.cfi_restore 1
	lw	s0,8(sp)
	.cfi_restore 8
.LVL25:
.LM63:
	lw	s1,4(sp)
	.cfi_restore 9
	addi	sp,sp,16
	.cfi_def_cfa_offset 0
	jr	ra
	.cfi_endproc
.LFE43:
	.size	ecdsa_restart_ver_free.part.0, .-ecdsa_restart_ver_free.part.0
	.section	.text.mbedtls_ecdsa_can_do,"ax",@progbits
	.align	1
	.globl	mbedtls_ecdsa_can_do
	.type	mbedtls_ecdsa_can_do, @function
mbedtls_ecdsa_can_do:
.LVL26:
.LFB24:
.LM64:
	.cfi_startproc
.LM65:
	andi	a0,a0,251
.LVL27:
.LM66:
	addi	a0,a0,-9
.LM67:
	snez	a0,a0
	ret
	.cfi_endproc
.LFE24:
	.size	mbedtls_ecdsa_can_do, .-mbedtls_ecdsa_can_do
	.section	.text.mbedtls_ecdsa_sign_restartable,"ax",@progbits
	.align	1
	.globl	mbedtls_ecdsa_sign_restartable
	.type	mbedtls_ecdsa_sign_restartable, @function
mbedtls_ecdsa_sign_restartable:
.LVL28:
.LFB25:
.LM68:
	.cfi_startproc
.LM69:
.LM70:
.LM71:
	addi	sp,sp,-128
	.cfi_def_cfa_offset 128
.LVL29:
.LM72:
.LM73:
.LM74:
.LM75:
	sw	s0,120(sp)
	sw	s2,112(sp)
	sw	s7,92(sp)
	sw	s9,84(sp)
	sw	s10,80(sp)
	sw	s11,76(sp)
	sw	ra,124(sp)
	sw	s1,116(sp)
	sw	s3,108(sp)
	sw	s4,104(sp)
	sw	s5,100(sp)
	sw	s6,96(sp)
	sw	s8,88(sp)
	.cfi_offset 8, -8
	.cfi_offset 18, -16
	.cfi_offset 23, -36
	.cfi_offset 25, -44
	.cfi_offset 26, -48
	.cfi_offset 27, -52
	.cfi_offset 1, -4
	.cfi_offset 9, -12
	.cfi_offset 19, -20
	.cfi_offset 20, -24
	.cfi_offset 21, -28
	.cfi_offset 22, -32
	.cfi_offset 24, -40
.LM76:
	mv	s2,a0
.LM77:
	lbu	a0,0(a0)
.LVL30:
.LM78:
	lw	s0,136(sp)
	mv	s10,a1
.LVL31:
.LM79:
.LM80:
	mv	s7,a2
	mv	s9,a3
	mv	s11,a4
	sw	a5,4(sp)
	sw	a6,8(sp)
	sw	a7,12(sp)
.LM81:
	call	mbedtls_ecdsa_can_do
.LVL32:
.LM82:
	beq	a0,zero,.L40
.LM83:
	lw	a5,52(s2)
.LM84:
	li	s6,-20480
	addi	s6,s6,128
.LM85:
	beq	a5,zero,.L12
.LM86:
.LM87:
	li	a1,1
	mv	a0,s9
	call	mbedtls_mpi_cmp_int
.LVL33:
.LM88:
	bge	a0,zero,.L14
.L15:
.LM89:
	li	s6,-20480
	addi	s6,s6,896
.LVL34:
.L12:
.LM90:
	lw	ra,124(sp)
	.cfi_remember_state
	.cfi_restore 1
	lw	s0,120(sp)
	.cfi_restore 8
	lw	s1,116(sp)
	.cfi_restore 9
	lw	s2,112(sp)
	.cfi_restore 18
.LVL35:
.LM91:
	lw	s3,108(sp)
	.cfi_restore 19
	lw	s4,104(sp)
	.cfi_restore 20
	lw	s5,100(sp)
	.cfi_restore 21
	lw	s7,92(sp)
	.cfi_restore 23
.LVL36:
.LM92:
	lw	s8,88(sp)
	.cfi_restore 24
	lw	s9,84(sp)
	.cfi_restore 25
.LVL37:
.LM93:
	lw	s10,80(sp)
	.cfi_restore 26
.LVL38:
.LM94:
	lw	s11,76(sp)
	.cfi_restore 27
.LVL39:
.LM95:
	mv	a0,s6
	lw	s6,96(sp)
	.cfi_restore 22
	addi	sp,sp,128
	.cfi_def_cfa_offset 0
.LVL40:
.LM96:
	jr	ra
.LVL41:
.L14:
	.cfi_restore_state
.LM97:
	addi	a1,s2,52
	mv	a0,s9
	call	mbedtls_mpi_cmp_mpi
.LVL42:
.LM98:
	bge	a0,zero,.L15
.LM99:
	addi	a0,sp,40
	call	mbedtls_ecp_point_init
.LVL43:
.LM100:
	addi	a0,sp,24
.LVL44:
.LM101:
	call	mbedtls_mpi_init
.LVL45:
.LM102:
	addi	a0,sp,32
	call	mbedtls_mpi_init
.LVL46:
.LM103:
.LM104:
.LM105:
	beq	s0,zero,.L17
.LM106:
	lw	a5,4(s0)
.LM107:
	addi	a4,a5,1
	sw	a4,4(s0)
.LM108:
	bne	a5,zero,.L17
.LM109:
.LM110:
	sw	zero,0(s0)
.L17:
.LM111:
.LM112:
	call	mbedtls_ecp_restart_is_enabled
.LVL47:
.LM113:
	beq	a0,zero,.L19
.LM114:
	bne	s0,zero,.L20
.L23:
.LM115:
	mv	s3,s10
.LM116:
	addi	s5,sp,24
.LVL48:
.LM117:
	addi	s4,sp,16
.LVL49:
.LM118:
	addi	s1,sp,20
.LVL50:
.L21:
.LM119:
.LM120:
	sw	zero,0(s1)
.LVL51:
.L37:
.LM121:
.LM122:
.LM123:
	lw	a5,0(s1)
.LM124:
	addi	a4,a5,1
	sw	a4,0(s1)
.LM125:
	li	a4,10
	ble	a5,a4,.L27
.L29:
.LM126:
	li	s6,-20480
	addi	s6,s6,768
.LVL52:
.L28:
.LM127:
.LM128:
	addi	a0,sp,40
	call	mbedtls_ecp_point_free
.LVL53:
.LM129:
	addi	a0,sp,24
	call	mbedtls_mpi_free
.LVL54:
.LM130:
	addi	a0,sp,32
	call	mbedtls_mpi_free
.LVL55:
.LM131:
.LM132:
.LM133:
	beq	s0,zero,.L12
.LM134:
	li	a5,20480
	addi	a5,a5,-1280
	add	a5,s6,a5
.LM135:
	lw	s1,20(s0)
.LM136:
	beq	a5,zero,.L39
	beq	s1,zero,.L39
.LM137:
.LVL56:
.LBB14:
.LBI14:
.LM138:
.LM139:
.LBB15:
.LBI15:
.LM140:
.LBB16:
.LM141:
	addi	a0,s1,8
	call	mbedtls_mpi_free
.LVL57:
.LM142:
	addi	a0,s1,16
	call	mbedtls_mpi_free
.LVL58:
.LM143:
.LBE16:
.LBE15:
.LBE14:
.LM144:
	lw	a0,20(s0)
	call	free
.LVL59:
.LM145:
.LM146:
	sw	zero,20(s0)
.LM147:
.L39:
.LM148:
.LM149:
	lw	a5,4(s0)
	addi	a5,a5,-1
	sw	a5,4(s0)
	j	.L12
.LVL60:
.L20:
.LM150:
	lw	a5,20(s0)
	bne	a5,zero,.L22
.LM151:
.LM152:
	li	a1,28
	li	a0,1
	call	calloc
.LVL61:
.LM153:
	li	s6,-20480
.LM154:
	sw	a0,20(s0)
.LM155:
.LM156:
	mv	s1,a0
.LM157:
	addi	s6,s6,640
.LM158:
	beq	a0,zero,.L12
.LM159:
.LVL62:
.LBB17:
.LBI17:
.LM160:
.LBB18:
.LM161:
.LM162:
	sw	zero,0(a0)
.LM163:
.LM164:
	sw	zero,4(a0)
.LM165:
	addi	a0,a0,8
	call	mbedtls_mpi_init
.LVL63:
.LM166:
	addi	a0,s1,16
	call	mbedtls_mpi_init
.LVL64:
.LM167:
.LM168:
	sb	zero,24(s1)
.LVL65:
.LM169:
.LBE18:
.LBE17:
.LM170:
.LM171:
.L22:
.LM172:
	lw	s1,20(s0)
.LM173:
	beq	s1,zero,.L23
.LM174:
.LVL66:
.LM175:
.LM176:
	lbu	a5,24(s1)
.LM177:
	li	a4,1
.LM178:
	addi	s4,s1,4
.LVL67:
.LM179:
.LM180:
	addi	s5,s1,8
.LVL68:
.LM181:
.LM182:
	addi	s3,s1,16
.LVL69:
.LM183:
.LM184:
	addi	a3,s2,28
.LM185:
	beq	a5,a4,.L25
.LM186:
.LM187:
	li	a4,2
	bne	a5,a4,.L21
.LVL70:
.L26:
.LM188:
	mv	a1,s0
.L34:
.LM189:
	li	a2,124
	mv	a0,s2
	call	mbedtls_ecp_check_budget
.LVL71:
	mv	s6,a0
.LVL72:
.LM190:
	bne	a0,zero,.L28
.LM191:
.LM192:
.LM193:
.LM194:
.LM195:
	lw	a3,4(sp)
	mv	a2,s11
	addi	a1,sp,32
	mv	a0,s2
.LVL73:
.LM196:
	call	derive_mpi
.LVL74:
	mv	s6,a0
.LVL75:
.LM197:
	bne	a0,zero,.L28
.LM198:
.LM199:
.LM200:
.LM201:
	mv	a2,s9
	mv	a1,s3
	mv	a0,s7
.LVL76:
.LM202:
	call	mbedtls_mpi_mul_mpi
.LVL77:
	mv	s6,a0
.LVL78:
.LM203:
	bne	a0,zero,.L28
.LM204:
.LM205:
.LM206:
.LM207:
	addi	a1,sp,32
	mv	a2,s7
	mv	a0,a1
.LVL79:
.LM208:
	call	mbedtls_mpi_add_mpi
.LVL80:
	mv	s6,a0
.LVL81:
.LM209:
	bne	a0,zero,.L28
.LM210:
.LM211:
.LM212:
.LM213:
	addi	a3,s2,52
	mv	a2,s5
	mv	a1,s7
	call	mbedtls_mpi_gcd_modinv_odd
.LVL82:
.LM214:
	mv	s6,a0
.LVL83:
.LM215:
	bne	a0,zero,.L28
.LM216:
.LM217:
.LM218:
.LM219:
	addi	a2,sp,32
	mv	a1,s7
	mv	a0,s7
.LVL84:
.LM220:
	call	mbedtls_mpi_mul_mpi
.LVL85:
	mv	s6,a0
.LVL86:
.LM221:
	bne	a0,zero,.L28
.LM222:
.LM223:
.LM224:
.LM225:
	addi	a2,s2,52
	mv	a1,s7
	mv	a0,s7
.LVL87:
.LM226:
	call	mbedtls_mpi_mod_mpi
.LVL88:
	mv	s6,a0
.LVL89:
.LM227:
	bne	a0,zero,.L28
.LM228:
.LM229:
.LM230:
	li	a1,0
	mv	a0,s7
.LVL90:
.LM231:
	call	mbedtls_mpi_cmp_int
.LVL91:
.LM232:
	beq	a0,zero,.L37
.LM233:
.LM234:
	beq	s0,zero,.L28
.LM235:
	lw	a5,20(s0)
	beq	a5,zero,.L28
.LM236:
.LM237:
.LM238:
	mv	a1,s3
	mv	a0,s10
	call	mbedtls_mpi_copy
.LVL92:
	mv	s6,a0
.LVL93:
.LM239:
	j	.L28
.LVL94:
.L19:
.LM240:
.LM241:
.LM242:
	bne	s0,zero,.L22
	j	.L23
.LVL95:
.L27:
.LM243:
.LM244:
	sw	zero,0(s4)
.LVL96:
.L33:
.LM245:
.LM246:
.LM247:
	lw	a5,0(s4)
.LM248:
	addi	a4,a5,1
	sw	a4,0(s4)
.LM249:
	li	a4,10
	bgt	a5,a4,.L29
.LM250:
.LM251:
.LM252:
	lw	a3,12(sp)
	lw	a2,8(sp)
	mv	a1,s5
	mv	a0,s2
	call	mbedtls_ecp_gen_privkey
.LVL97:
	mv	s6,a0
.LVL98:
.LM253:
	bne	a0,zero,.L28
.LM254:
.LM255:
.LM256:
	beq	s0,zero,.L30
.LM257:
	lw	a5,20(s0)
.LM258:
	addi	a3,s2,28
.LM259:
	beq	a5,zero,.L25
.LM260:
.LM261:
	li	a4,1
	sb	a4,24(a5)
.LM262:
.LM263:
.LVL99:
.L25:
.LM264:
	mv	a6,s0
	j	.L32
.LVL100:
.L30:
.LM265:
.LM266:
.LM267:
	addi	a3,s2,28
.LM268:
	li	a6,0
.LVL101:
.L32:
.LM269:
	lw	a5,132(sp)
	lw	a4,128(sp)
	mv	a2,s5
	addi	a1,sp,40
	mv	a0,s2
	call	mbedtls_ecp_mul_restartable
.LVL102:
	mv	s6,a0
.LVL103:
.LM270:
	bne	a0,zero,.L28
.LM271:
.LM272:
.LM273:
.LM274:
	addi	a2,s2,52
	addi	a1,sp,40
	mv	a0,s3
.LVL104:
.LM275:
	call	mbedtls_mpi_mod_mpi
.LVL105:
	mv	s6,a0
.LVL106:
.LM276:
	bne	a0,zero,.L28
.LM277:
.LM278:
.LM279:
	li	a1,0
	mv	a0,s3
.LVL107:
.LM280:
	call	mbedtls_mpi_cmp_int
.LVL108:
.LM281:
	beq	a0,zero,.L33
.LM282:
.LM283:
	li	a1,0
.LM284:
	beq	s0,zero,.L34
.LM285:
	lw	a5,20(s0)
.LM286:
	beq	a5,zero,.L26
.LM287:
.LM288:
	li	a4,2
	sb	a4,24(a5)
.LVL109:
.LM289:
.LM290:
	j	.L26
.LVL110:
.L40:
.LM291:
	li	s6,-20480
	addi	s6,s6,128
	j	.L12
	.cfi_endproc
.LFE25:
	.size	mbedtls_ecdsa_sign_restartable, .-mbedtls_ecdsa_sign_restartable
	.section	.text.mbedtls_ecdsa_sign,"ax",@progbits
	.align	1
	.globl	mbedtls_ecdsa_sign
	.type	mbedtls_ecdsa_sign, @function
mbedtls_ecdsa_sign:
.LVL111:
.LFB26:
.LM292:
	.cfi_startproc
.LM293:
.LM294:
	addi	sp,sp,-32
	.cfi_def_cfa_offset 32
.LM295:
	sw	zero,8(sp)
	sw	a7,4(sp)
	sw	a6,0(sp)
.LM296:
	sw	ra,28(sp)
	.cfi_offset 1, -4
.LM297:
	call	mbedtls_ecdsa_sign_restartable
.LVL112:
.LM298:
	lw	ra,28(sp)
	.cfi_restore 1
	addi	sp,sp,32
	.cfi_def_cfa_offset 0
	jr	ra
	.cfi_endproc
.LFE26:
	.size	mbedtls_ecdsa_sign, .-mbedtls_ecdsa_sign
	.section	.text.mbedtls_ecdsa_sign_det_restartable,"ax",@progbits
	.align	1
	.globl	mbedtls_ecdsa_sign_det_restartable
	.type	mbedtls_ecdsa_sign_det_restartable, @function
mbedtls_ecdsa_sign_det_restartable:
.LVL113:
.LFB27:
.LM299:
	.cfi_startproc
.LM300:
.LM301:
.LM302:
.LM303:
	addi	sp,sp,-336
	.cfi_def_cfa_offset 336
.LVL114:
.LM304:
.LM305:
.LM306:
	sw	s0,328(sp)
	sw	s5,308(sp)
	sw	s6,304(sp)
	sw	s7,300(sp)
	sw	s8,296(sp)
	sw	s10,288(sp)
	sw	s11,284(sp)
	sw	ra,332(sp)
	sw	s1,324(sp)
	sw	s2,320(sp)
	sw	s3,316(sp)
	sw	s4,312(sp)
	sw	s9,292(sp)
	.cfi_offset 8, -8
	.cfi_offset 21, -28
	.cfi_offset 22, -32
	.cfi_offset 23, -36
	.cfi_offset 24, -40
	.cfi_offset 26, -48
	.cfi_offset 27, -52
	.cfi_offset 1, -4
	.cfi_offset 9, -12
	.cfi_offset 18, -16
	.cfi_offset 19, -20
	.cfi_offset 20, -24
	.cfi_offset 25, -44
.LM307:
	mv	s5,a0
	mv	a0,a6
.LVL115:
.LM308:
	lw	s0,340(sp)
.LM309:
	lw	s1,64(s5)
.LVL116:
.LM310:
.LM311:
.LM312:
.LM313:
	mv	s10,a1
	mv	s11,a2
	mv	s6,a3
	mv	s7,a4
	mv	s8,a5
	sw	a7,28(sp)
.LM314:
	call	mbedtls_md_info_from_type
.LVL117:
.LM315:
	beq	a0,zero,.L91
	mv	s9,a0
.LM316:
	addi	a0,sp,32
.LVL118:
.LM317:
	call	mbedtls_mpi_init
.LVL119:
.LM318:
	addi	a0,sp,40
.LVL120:
.LM319:
	call	mbedtls_hmac_drbg_init
.LVL121:
.LM320:
.LM321:
.LM322:
	beq	s0,zero,.L77
.LM323:
	lw	a5,4(s0)
.LM324:
	addi	a4,a5,1
	sw	a4,4(s0)
.LM325:
	bne	a5,zero,.L77
.LM326:
.LM327:
	sw	zero,0(s0)
.L77:
.LM328:
.LM329:
	call	mbedtls_ecp_restart_is_enabled
.LVL122:
.LM330:
	beq	a0,zero,.L79
.LM331:
	bne	s0,zero,.L80
.L83:
.LM332:
	addi	s2,sp,40
.LVL123:
.L81:
.LM333:
	addi	s1,s1,7
.LVL124:
.LM334:
	srli	s1,s1,3
.LVL125:
.LM335:
.LM336:
.LM337:
	addi	s3,sp,140
	mv	a2,s1
	mv	a1,s3
	mv	a0,s6
	call	mbedtls_mpi_write_binary
.LVL126:
	mv	s4,a0
.LVL127:
.LM338:
	bne	a0,zero,.L85
.LM339:
.LM340:
.LM341:
.LM342:
	mv	a3,s8
	mv	a2,s7
	addi	a1,sp,32
	mv	a0,s5
.LVL128:
.LM343:
	call	derive_mpi
.LVL129:
	mv	s4,a0
.LVL130:
.LM344:
	bne	a0,zero,.L85
.LM345:
.LM346:
.LM347:
.LM348:
	mv	a2,s1
	add	a1,s3,s1
	addi	a0,sp,32
.LVL131:
.LM349:
	call	mbedtls_mpi_write_binary
.LVL132:
	mv	s4,a0
.LVL133:
.LM350:
	bne	a0,zero,.L85
.LM351:
.LM352:
.LM353:
.LM354:
	slli	a3,s1,1
	mv	a2,s3
	mv	a1,s9
	mv	a0,s2
.LVL134:
.LM355:
	call	mbedtls_hmac_drbg_seed_buf
.LVL135:
	mv	s4,a0
.LVL136:
.LM356:
	bne	a0,zero,.L85
.LM357:
.LM358:
.LM359:
	beq	s0,zero,.L84
.LM360:
	lw	a5,24(s0)
.LM361:
	beq	a5,zero,.L84
.LM362:
.LM363:
	li	a4,1
	sb	a4,100(a5)
	j	.L84
.LVL137:
.L80:
.LM364:
	lw	a5,24(s0)
	bne	a5,zero,.L82
.LM365:
.LM366:
	li	a1,104
	li	a0,1
	call	calloc
.LVL138:
.LM367:
	li	s4,-20480
.LM368:
	sw	a0,24(s0)
.LM369:
.LM370:
	mv	s2,a0
.LM371:
	addi	s4,s4,640
.LM372:
	beq	a0,zero,.L74
.LM373:
.LVL139:
.LBB27:
.LBI27:
.LM374:
.LBB28:
.LM375:
	call	mbedtls_hmac_drbg_init
.LVL140:
.LM376:
.LM377:
	sb	zero,100(s2)
.LVL141:
.LM378:
.LBE28:
.LBE27:
.LM379:
.LM380:
.L82:
.LM381:
	lw	s2,24(s0)
.LM382:
	beq	s2,zero,.L83
.LM383:
.LVL142:
.LM384:
.LM385:
	lbu	a4,100(s2)
	li	a5,1
	bne	a4,a5,.L81
.LVL143:
.L84:
.LM386:
.LM387:
	lw	a5,336(sp)
	lui	a6,%hi(mbedtls_hmac_drbg_random)
	sw	s0,8(sp)
	sw	a5,4(sp)
	lw	a5,28(sp)
	mv	a7,s2
	addi	a6,a6,%lo(mbedtls_hmac_drbg_random)
	sw	a5,0(sp)
	mv	a4,s7
	mv	a5,s8
	mv	a3,s6
	mv	a2,s11
	mv	a1,s10
	mv	a0,s5
	call	mbedtls_ecdsa_sign_restartable
.LVL144:
	mv	s4,a0
.L85:
.LVL145:
.LM388:
	addi	a0,sp,40
	call	mbedtls_hmac_drbg_free
.LVL146:
.LM389:
	addi	a0,sp,32
	call	mbedtls_mpi_free
.LVL147:
.LM390:
.LM391:
.LM392:
	beq	s0,zero,.L74
.LM393:
	lw	s1,24(s0)
.LM394:
	beq	s1,zero,.L89
	li	a5,20480
	addi	a5,a5,-1280
	add	a5,s4,a5
	beq	a5,zero,.L89
.LM395:
.LVL148:
.LBB29:
.LBI29:
.LM396:
.LM397:
.LBB30:
.LBI30:
.LM398:
.LBB31:
.LM399:
	mv	a0,s1
	call	mbedtls_hmac_drbg_free
.LVL149:
.LM400:
.LBB32:
.LBI32:
.LM401:
.LBB33:
.LM402:
	mv	a0,s1
	call	mbedtls_hmac_drbg_init
.LVL150:
.LM403:
.LM404:
	sb	zero,100(s1)
.LVL151:
.LM405:
.LBE33:
.LBE32:
.LBE31:
.LBE30:
.LBE29:
.LM406:
	lw	a0,24(s0)
	call	free
.LVL152:
.LM407:
.LM408:
	sw	zero,24(s0)
.LM409:
.L89:
.LM410:
.LM411:
	lw	a5,4(s0)
	addi	a5,a5,-1
	sw	a5,4(s0)
.LVL153:
.L74:
.LM412:
	lw	ra,332(sp)
	.cfi_remember_state
	.cfi_restore 1
	lw	s0,328(sp)
	.cfi_restore 8
	lw	s1,324(sp)
	.cfi_restore 9
	lw	s2,320(sp)
	.cfi_restore 18
	lw	s3,316(sp)
	.cfi_restore 19
	lw	s5,308(sp)
	.cfi_restore 21
.LVL154:
.LM413:
	lw	s6,304(sp)
	.cfi_restore 22
.LVL155:
.LM414:
	lw	s7,300(sp)
	.cfi_restore 23
.LVL156:
.LM415:
	lw	s8,296(sp)
	.cfi_restore 24
.LVL157:
.LM416:
	lw	s9,292(sp)
	.cfi_restore 25
	lw	s10,288(sp)
	.cfi_restore 26
.LVL158:
.LM417:
	lw	s11,284(sp)
	.cfi_restore 27
.LVL159:
.LM418:
	mv	a0,s4
	lw	s4,312(sp)
	.cfi_restore 20
	addi	sp,sp,336
	.cfi_def_cfa_offset 0
.LVL160:
.LM419:
	jr	ra
.LVL161:
.L79:
	.cfi_restore_state
.LM420:
.LM421:
.LM422:
	bne	s0,zero,.L82
	j	.L83
.LVL162:
.L91:
.LM423:
	li	s4,-20480
	addi	s4,s4,128
	j	.L74
	.cfi_endproc
.LFE27:
	.size	mbedtls_ecdsa_sign_det_restartable, .-mbedtls_ecdsa_sign_det_restartable
	.section	.text.mbedtls_ecdsa_sign_det_ext,"ax",@progbits
	.align	1
	.globl	mbedtls_ecdsa_sign_det_ext
	.type	mbedtls_ecdsa_sign_det_ext, @function
mbedtls_ecdsa_sign_det_ext:
.LVL163:
.LFB28:
.LM424:
	.cfi_startproc
.LM425:
.LM426:
	addi	sp,sp,-32
	.cfi_def_cfa_offset 32
.LM427:
	lw	t1,32(sp)
	sw	zero,4(sp)
.LM428:
	sw	ra,28(sp)
	.cfi_offset 1, -4
.LM429:
	sw	t1,0(sp)
	call	mbedtls_ecdsa_sign_det_restartable
.LVL164:
.LM430:
	lw	ra,28(sp)
	.cfi_restore 1
	addi	sp,sp,32
	.cfi_def_cfa_offset 0
.LVL165:
.LM431:
	jr	ra
	.cfi_endproc
.LFE28:
	.size	mbedtls_ecdsa_sign_det_ext, .-mbedtls_ecdsa_sign_det_ext
	.section	.text.mbedtls_ecdsa_verify_restartable,"ax",@progbits
	.align	1
	.globl	mbedtls_ecdsa_verify_restartable
	.type	mbedtls_ecdsa_verify_restartable, @function
mbedtls_ecdsa_verify_restartable:
.LVL166:
.LFB29:
.LM432:
	.cfi_startproc
.LM433:
.LM434:
.LM435:
.LM436:
.LM437:
	addi	sp,sp,-112
	.cfi_def_cfa_offset 112
.LVL167:
.LM438:
.LM439:
	sw	s2,96(sp)
	.cfi_offset 18, -16
	mv	s2,a0
.LM440:
	addi	a0,sp,40
.LVL168:
.LM441:
	sw	ra,108(sp)
	sw	s1,100(sp)
	sw	s6,80(sp)
	.cfi_offset 1, -4
	.cfi_offset 9, -12
	.cfi_offset 22, -32
	mv	s1,a6
	mv	s6,a4
	sw	s7,76(sp)
	sw	s8,72(sp)
	.cfi_offset 23, -36
	.cfi_offset 24, -40
	mv	s7,a5
	mv	s8,a1
	sw	s9,68(sp)
	sw	s10,64(sp)
	.cfi_offset 25, -44
	.cfi_offset 26, -48
	mv	s9,a2
	mv	s10,a3
	sw	s0,104(sp)
	sw	s3,92(sp)
	sw	s4,88(sp)
	sw	s5,84(sp)
	.cfi_offset 8, -8
	.cfi_offset 19, -20
	.cfi_offset 20, -24
	.cfi_offset 21, -28
.LM442:
	call	mbedtls_ecp_point_init
.LVL169:
.LM443:
	addi	a0,sp,8
	call	mbedtls_mpi_init
.LVL170:
.LM444:
	addi	a0,sp,16
	call	mbedtls_mpi_init
.LVL171:
.LM445:
	addi	a0,sp,24
.LVL172:
.LM446:
	call	mbedtls_mpi_init
.LVL173:
.LM447:
	addi	a0,sp,32
.LVL174:
.LM448:
	call	mbedtls_mpi_init
.LVL175:
.LM449:
.LM450:
	lbu	a0,0(s2)
	call	mbedtls_ecdsa_can_do
.LVL176:
.LM451:
	beq	a0,zero,.L131
.LM452:
	lw	a5,52(s2)
.LM453:
	li	s0,-20480
	addi	s0,s0,128
.LM454:
	beq	a5,zero,.L111
.LM455:
.LM456:
.LM457:
	beq	s1,zero,.L114
.LM458:
	lw	a5,4(s1)
.LM459:
	addi	a4,a5,1
	sw	a4,4(s1)
.LM460:
	bne	a5,zero,.L114
.LM461:
.LM462:
	sw	zero,0(s1)
.L114:
.LM463:
.LM464:
	call	mbedtls_ecp_restart_is_enabled
.LVL177:
.LM465:
	beq	a0,zero,.L116
.LM466:
	beq	s1,zero,.L117
.LM467:
	lw	a5,16(s1)
	bne	a5,zero,.L118
.LM468:
.LM469:
	li	a1,20
	li	a0,1
	call	calloc
.LVL178:
.LM470:
	li	s0,-20480
.LM471:
	sw	a0,16(s1)
.LM472:
.LM473:
	mv	s3,a0
.LM474:
	addi	s0,s0,640
.LM475:
	beq	a0,zero,.L111
.LM476:
.LVL179:
.LBB38:
.LBI38:
.LM477:
.LBB39:
.LM478:
	call	mbedtls_mpi_init
.LVL180:
.LM479:
	addi	a0,s3,8
	call	mbedtls_mpi_init
.LVL181:
.LM480:
.LM481:
	sb	zero,16(s3)
.LVL182:
.LM482:
.LBE39:
.LBE38:
.LM483:
.LM484:
.L118:
.LM485:
	lw	s3,16(s1)
.LM486:
	beq	s3,zero,.L117
.LM487:
.LVL183:
.LM488:
.LM489:
	lbu	a4,16(s3)
	li	a5,1
.LM490:
	addi	s4,s3,8
.LVL184:
.LM491:
.LM492:
	addi	a3,s2,28
.LM493:
	beq	a4,a5,.L120
.LVL185:
.L119:
.LM494:
.LM495:
	li	a1,1
	mv	a0,s6
	call	mbedtls_mpi_cmp_int
.LVL186:
.LM496:
	blt	a0,zero,.L123
.LM497:
	addi	a1,s2,52
	mv	a0,s6
	call	mbedtls_mpi_cmp_mpi
.LVL187:
.LM498:
	bge	a0,zero,.L123
.LM499:
	li	a1,1
	mv	a0,s7
	call	mbedtls_mpi_cmp_int
.LVL188:
.LM500:
	blt	a0,zero,.L123
.LM501:
	addi	a1,s2,52
	mv	a0,s7
	call	mbedtls_mpi_cmp_mpi
.LVL189:
.LM502:
	bge	a0,zero,.L123
.LM503:
.LM504:
.LM505:
	mv	a3,s9
	mv	a2,s8
	addi	a1,sp,8
	mv	a0,s2
	call	derive_mpi
.LVL190:
	mv	s0,a0
.LVL191:
.LM506:
	bne	a0,zero,.L124
.LM507:
.LM508:
.LM509:
.LM510:
	li	a2,125
	mv	a1,s1
	mv	a0,s2
	call	mbedtls_ecp_check_budget
.LVL192:
	mv	s0,a0
.LVL193:
.LM511:
	bne	a0,zero,.L124
.LM512:
.LM513:
.LM514:
.LM515:
.LM516:
	addi	a3,s2,52
	mv	a2,s7
	addi	a1,sp,16
	call	mbedtls_mpi_gcd_modinv_odd
.LVL194:
	mv	s0,a0
.LVL195:
.LM517:
	bne	a0,zero,.L124
.LM518:
.LM519:
.LM520:
.LM521:
	addi	a2,sp,16
	addi	a1,sp,8
	mv	a0,s3
	call	mbedtls_mpi_mul_mpi
.LVL196:
	mv	s0,a0
.LVL197:
.LM522:
	bne	a0,zero,.L124
.LM523:
.LM524:
.LM525:
.LM526:
	addi	a2,s2,52
	mv	a1,s3
	mv	a0,s3
	call	mbedtls_mpi_mod_mpi
.LVL198:
	mv	s0,a0
.LVL199:
.LM527:
	bne	a0,zero,.L124
.LM528:
.LM529:
.LM530:
.LM531:
	addi	a2,sp,16
	mv	a1,s6
	mv	a0,s4
	call	mbedtls_mpi_mul_mpi
.LVL200:
	mv	s0,a0
.LVL201:
.LM532:
	bne	a0,zero,.L124
.LM533:
.LM534:
.LM535:
.LM536:
	addi	a2,s2,52
	mv	a1,s4
	mv	a0,s4
	call	mbedtls_mpi_mod_mpi
.LVL202:
	mv	s0,a0
.LVL203:
.LM537:
	bne	a0,zero,.L124
.LM538:
.LM539:
.LM540:
	beq	s1,zero,.L125
.LM541:
	lw	a5,16(s1)
.LM542:
	addi	a3,s2,28
.LM543:
	beq	a5,zero,.L120
.LM544:
.LM545:
	li	a4,1
	sb	a4,16(a5)
.LM546:
.LM547:
.LVL204:
.L120:
.LM548:
	mv	a6,s1
	j	.L127
.LVL205:
.L116:
.LM549:
.LM550:
.LM551:
	bne	s1,zero,.L118
.L117:
.LM552:
	addi	s4,sp,32
.LVL206:
.LM553:
	addi	s3,sp,24
.LVL207:
.LM554:
	j	.L119
.LVL208:
.L125:
.LM555:
.LM556:
.LM557:
	addi	a3,s2,28
.LM558:
	li	a6,0
.LVL209:
.L127:
.LM559:
	mv	a5,s10
	mv	a4,s4
	mv	a2,s3
	addi	a1,sp,40
	mv	a0,s2
	call	mbedtls_ecp_muladd_restartable
.LVL210:
	mv	s0,a0
.LVL211:
.LM560:
	bne	a0,zero,.L124
.LM561:
.LM562:
.LM563:
	addi	a0,sp,40
	call	mbedtls_ecp_is_zero
.LVL212:
.LM564:
	beq	a0,zero,.L128
.LVL213:
.L123:
.LM565:
	li	s0,-20480
	addi	s0,s0,512
.L124:
.LVL214:
.LM566:
	addi	a0,sp,40
	call	mbedtls_ecp_point_free
.LVL215:
.LM567:
	addi	a0,sp,8
	call	mbedtls_mpi_free
.LVL216:
.LM568:
	addi	a0,sp,16
	call	mbedtls_mpi_free
.LVL217:
.LM569:
	addi	a0,sp,24
	call	mbedtls_mpi_free
.LVL218:
.LM570:
	addi	a0,sp,32
	call	mbedtls_mpi_free
.LVL219:
.LM571:
.LM572:
.LM573:
	beq	s1,zero,.L111
.LM574:
	lw	a0,16(s1)
.LM575:
	beq	a0,zero,.L130
	li	a5,20480
	addi	a5,a5,-1280
	add	a5,s0,a5
	beq	a5,zero,.L130
.LM576:
.LVL220:
.LBB40:
.LBI40:
.LM577:
.LBB41:
.LM578:
	call	ecdsa_restart_ver_free.part.0
.LVL221:
.LM579:
.LBE41:
.LBE40:
.LM580:
	lw	a0,16(s1)
	call	free
.LVL222:
.LM581:
.LM582:
	sw	zero,16(s1)
.LM583:
.L130:
.LM584:
.LM585:
	lw	a5,4(s1)
	addi	a5,a5,-1
	sw	a5,4(s1)
.LVL223:
.L111:
.LM586:
	lw	ra,108(sp)
	.cfi_remember_state
	.cfi_restore 1
	mv	a0,s0
	lw	s0,104(sp)
	.cfi_restore 8
	lw	s1,100(sp)
	.cfi_restore 9
.LVL224:
.LM587:
	lw	s2,96(sp)
	.cfi_restore 18
.LVL225:
.LM588:
	lw	s3,92(sp)
	.cfi_restore 19
	lw	s4,88(sp)
	.cfi_restore 20
	lw	s5,84(sp)
	.cfi_restore 21
	lw	s6,80(sp)
	.cfi_restore 22
.LVL226:
.LM589:
	lw	s7,76(sp)
	.cfi_restore 23
.LVL227:
.LM590:
	lw	s8,72(sp)
	.cfi_restore 24
.LVL228:
.LM591:
	lw	s9,68(sp)
	.cfi_restore 25
.LVL229:
.LM592:
	lw	s10,64(sp)
	.cfi_restore 26
.LVL230:
.LM593:
	addi	sp,sp,112
	.cfi_def_cfa_offset 0
	jr	ra
.LVL231:
.L128:
	.cfi_restore_state
.LM594:
.LM595:
.LM596:
	addi	a1,sp,40
	addi	a2,s2,52
	mv	a0,a1
	call	mbedtls_mpi_mod_mpi
.LVL232:
	mv	s0,a0
.LVL233:
.LM597:
	bne	a0,zero,.L124
.LM598:
.LM599:
.LM600:
	mv	a1,s6
	addi	a0,sp,40
	call	mbedtls_mpi_cmp_mpi
.LVL234:
	mv	s0,a0
.LVL235:
.LM601:
	beq	a0,zero,.L124
	j	.L123
.LVL236:
.L131:
.LM602:
	li	s0,-20480
	addi	s0,s0,128
	j	.L111
	.cfi_endproc
.LFE29:
	.size	mbedtls_ecdsa_verify_restartable, .-mbedtls_ecdsa_verify_restartable
	.section	.text.mbedtls_ecdsa_verify,"ax",@progbits
	.align	1
	.globl	mbedtls_ecdsa_verify
	.type	mbedtls_ecdsa_verify, @function
mbedtls_ecdsa_verify:
.LVL237:
.LFB30:
.LM603:
	.cfi_startproc
.LM604:
.LM605:
	li	a6,0
	tail	mbedtls_ecdsa_verify_restartable
.LVL238:
.LM606:
	.cfi_endproc
.LFE30:
	.size	mbedtls_ecdsa_verify, .-mbedtls_ecdsa_verify
	.section	.text.mbedtls_ecdsa_write_signature_restartable,"ax",@progbits
	.align	1
	.globl	mbedtls_ecdsa_write_signature_restartable
	.type	mbedtls_ecdsa_write_signature_restartable, @function
mbedtls_ecdsa_write_signature_restartable:
.LVL239:
.LFB32:
.LM607:
	.cfi_startproc
.LM608:
.LM609:
.LM610:
.LM611:
	addi	sp,sp,-224
	.cfi_def_cfa_offset 224
	sw	ra,220(sp)
	sw	s0,216(sp)
	sw	s1,212(sp)
	sw	s2,208(sp)
	sw	s3,204(sp)
	sw	s4,200(sp)
	.cfi_offset 1, -4
	.cfi_offset 8, -8
	.cfi_offset 9, -12
	.cfi_offset 18, -16
	.cfi_offset 19, -20
	.cfi_offset 20, -24
.LM612:
	beq	a7,zero,.L158
	mv	s0,a0
.LM613:
	addi	a0,sp,36
.LVL240:
.LM614:
	sw	a7,28(sp)
	mv	s1,a6
	mv	s2,a5
	mv	s4,a4
	sw	a3,24(sp)
	sw	a2,20(sp)
	sw	a1,16(sp)
	call	mbedtls_mpi_init
.LVL241:
.LM615:
	addi	a0,sp,44
	call	mbedtls_mpi_init
.LVL242:
.LM616:
.LM617:
.LM618:
	lw	a3,228(sp)
	lw	a7,28(sp)
	lw	a6,16(sp)
	sw	a3,4(sp)
	lw	a3,224(sp)
	lw	a5,24(sp)
	lw	a4,20(sp)
	sw	a3,0(sp)
	mv	a0,s0
	addi	a3,s0,96
	addi	a2,sp,44
	addi	a1,sp,36
	call	mbedtls_ecdsa_sign_det_restartable
.LVL243:
	mv	s0,a0
.LVL244:
.LM619:
	bne	a0,zero,.L156
.LM620:
.LM621:
.LM622:
.LVL245:
.LBB44:
.LBI44:
.LM623:
.LBB45:
.LM624:
.LM625:
.LM626:
	li	a2,139
	li	a1,0
	addi	a0,sp,52
	call	memset
.LVL246:
.LM627:
.LM628:
	addi	a5,sp,191
.LM629:
	addi	a2,sp,44
.LVL247:
.LM630:
	addi	a1,sp,52
	addi	a0,sp,32
.LM631:
	sw	a5,32(sp)
.LM632:
.LVL248:
.LM633:
.LM634:
.LM635:
	call	mbedtls_asn1_write_mpi
.LVL249:
.LM636:
	mv	s0,a0
.LVL250:
.LM637:
	blt	a0,zero,.L156
.LM638:
.LVL251:
.LM639:
.LM640:
.LM641:
.LM642:
	addi	a2,sp,36
.LVL252:
.LM643:
	addi	a1,sp,52
	addi	a0,sp,32
	call	mbedtls_asn1_write_mpi
.LVL253:
.LM644:
	blt	a0,zero,.L160
.LM645:
.LM646:
	add	s3,s0,a0
.LVL254:
.LM647:
.LM648:
.LM649:
.LM650:
	mv	a2,s3
	addi	a1,sp,52
	addi	a0,sp,32
.LVL255:
.LM651:
	call	mbedtls_asn1_write_len
.LVL256:
	mv	s0,a0
.LVL257:
.LM652:
	blt	a0,zero,.L156
.LM653:
.LVL258:
.LM654:
.LM655:
.LM656:
.LM657:
	li	a2,48
	addi	a1,sp,52
	addi	a0,sp,32
	call	mbedtls_asn1_write_tag
.LVL259:
.LM658:
	blt	a0,zero,.L160
.LM659:
	add	s0,s0,s3
.LVL260:
.LM660:
.LM661:
	add	s3,a0,s0
.LVL261:
.LM662:
.LM663:
.LM664:
	li	s0,-20480
	addi	s0,s0,256
.LM665:
	bltu	s2,s3,.L156
.LM666:
	lw	a1,32(sp)
	mv	a2,s3
	mv	a0,s4
.LVL262:
.LM667:
	call	memcpy
.LVL263:
.LM668:
.LM669:
	li	s0,0
.LM670:
	sw	s3,0(s1)
.LM671:
.LVL264:
.L156:
.LM672:
.LBE45:
.LBE44:
.LM673:
.LM674:
	addi	a0,sp,36
	call	mbedtls_mpi_free
.LVL265:
.LM675:
	addi	a0,sp,44
	call	mbedtls_mpi_free
.LVL266:
.LM676:
.L154:
.LM677:
	lw	ra,220(sp)
	.cfi_remember_state
	.cfi_restore 1
	mv	a0,s0
	lw	s0,216(sp)
	.cfi_restore 8
	lw	s1,212(sp)
	.cfi_restore 9
	lw	s2,208(sp)
	.cfi_restore 18
	lw	s3,204(sp)
	.cfi_restore 19
	lw	s4,200(sp)
	.cfi_restore 20
	addi	sp,sp,224
	.cfi_def_cfa_offset 0
.LVL267:
.LM678:
	jr	ra
.LVL268:
.L160:
	.cfi_restore_state
.LBB47:
.LBB46:
.LM679:
	mv	s0,a0
.LVL269:
.LM680:
.LBE46:
.LBE47:
.LM681:
	j	.L156
.LVL270:
.L158:
.LM682:
	li	s0,-20480
	addi	s0,s0,128
	j	.L154
	.cfi_endproc
.LFE32:
	.size	mbedtls_ecdsa_write_signature_restartable, .-mbedtls_ecdsa_write_signature_restartable
	.section	.text.mbedtls_ecdsa_write_signature,"ax",@progbits
	.align	1
	.globl	mbedtls_ecdsa_write_signature
	.type	mbedtls_ecdsa_write_signature, @function
mbedtls_ecdsa_write_signature:
.LVL271:
.LFB33:
.LM683:
	.cfi_startproc
.LM684:
.LM685:
	addi	sp,sp,-32
	.cfi_def_cfa_offset 32
.LM686:
	lw	t1,32(sp)
	sw	zero,4(sp)
.LM687:
	sw	ra,28(sp)
	.cfi_offset 1, -4
.LM688:
	sw	t1,0(sp)
	call	mbedtls_ecdsa_write_signature_restartable
.LVL272:
.LM689:
	lw	ra,28(sp)
	.cfi_restore 1
	addi	sp,sp,32
	.cfi_def_cfa_offset 0
.LVL273:
.LM690:
	jr	ra
	.cfi_endproc
.LFE33:
	.size	mbedtls_ecdsa_write_signature, .-mbedtls_ecdsa_write_signature
	.section	.text.mbedtls_ecdsa_read_signature_restartable,"ax",@progbits
	.align	1
	.globl	mbedtls_ecdsa_read_signature_restartable
	.type	mbedtls_ecdsa_read_signature_restartable, @function
mbedtls_ecdsa_read_signature_restartable:
.LVL274:
.LFB35:
.LM691:
	.cfi_startproc
.LM692:
.LM693:
.LM694:
	addi	sp,sp,-64
	.cfi_def_cfa_offset 64
	sw	s2,48(sp)
	.cfi_offset 18, -16
	mv	s2,a0
.LM695:
	addi	a0,sp,16
.LVL275:
.LM696:
	sw	ra,60(sp)
	sw	s1,52(sp)
	sw	s3,44(sp)
	.cfi_offset 1, -4
	.cfi_offset 9, -12
	.cfi_offset 19, -20
.LM697:
	add	s1,a3,a4
.LM698:
	sw	s4,40(sp)
	sw	s5,36(sp)
	mv	s3,a1
	.cfi_offset 20, -24
	.cfi_offset 21, -28
	mv	s4,a2
.LM699:
	sw	a3,8(sp)
.LM700:
.LVL276:
.LM701:
.LM702:
.LM703:
.LM704:
	sw	s0,56(sp)
	.cfi_offset 8, -8
.LM705:
	mv	s5,a5
.LM706:
	call	mbedtls_mpi_init
.LVL277:
.LM707:
	addi	a0,sp,24
	call	mbedtls_mpi_init
.LVL278:
.LM708:
.LM709:
	li	a3,48
	addi	a2,sp,12
	mv	a1,s1
	addi	a0,sp,8
	call	mbedtls_asn1_get_tag
.LVL279:
.LM710:
	beq	a0,zero,.L166
.L168:
.LM711:
.LM712:
	li	a5,-20480
	addi	a5,a5,128
	add	s0,a0,a5
.LVL280:
.LM713:
.L167:
.LM714:
	addi	a0,sp,16
	call	mbedtls_mpi_free
.LVL281:
.LM715:
	addi	a0,sp,24
	call	mbedtls_mpi_free
.LVL282:
.LM716:
.LM717:
	lw	ra,60(sp)
	.cfi_remember_state
	.cfi_restore 1
	mv	a0,s0
	lw	s0,56(sp)
	.cfi_restore 8
.LVL283:
.LM718:
	lw	s1,52(sp)
	.cfi_restore 9
.LVL284:
.LM719:
	lw	s2,48(sp)
	.cfi_restore 18
.LVL285:
.LM720:
	lw	s3,44(sp)
	.cfi_restore 19
.LVL286:
.LM721:
	lw	s4,40(sp)
	.cfi_restore 20
.LVL287:
.LM722:
	lw	s5,36(sp)
	.cfi_restore 21
.LVL288:
.LM723:
	addi	sp,sp,64
	.cfi_def_cfa_offset 0
	jr	ra
.LVL289:
.L166:
	.cfi_restore_state
.LM724:
.LM725:
	lw	a5,8(sp)
	lw	a4,12(sp)
.LM726:
	li	s0,-20480
	addi	s0,s0,26
.LM727:
	add	a5,a5,a4
.LM728:
	bne	s1,a5,.L167
.LM729:
.LM730:
	addi	a2,sp,16
	mv	a1,s1
	addi	a0,sp,8
.LVL290:
.LM731:
	call	mbedtls_asn1_get_mpi
.LVL291:
.LM732:
	bne	a0,zero,.L168
.LM733:
	addi	a2,sp,24
	mv	a1,s1
	addi	a0,sp,8
.LVL292:
.LM734:
	call	mbedtls_asn1_get_mpi
.LVL293:
.LM735:
	bne	a0,zero,.L168
.LM736:
.LM737:
	mv	a6,s5
	addi	a5,sp,24
	addi	a4,sp,16
	addi	a3,s2,104
	mv	a2,s4
	mv	a1,s3
	mv	a0,s2
.LVL294:
.LM738:
	call	mbedtls_ecdsa_verify_restartable
.LVL295:
	mv	s0,a0
.LVL296:
.LM739:
	bne	a0,zero,.L167
.LM740:
.LM741:
	lw	a5,8(sp)
	beq	a5,s1,.L167
.LM742:
	li	s0,-20480
.LVL297:
.LM743:
	addi	s0,s0,1024
	j	.L167
	.cfi_endproc
.LFE35:
	.size	mbedtls_ecdsa_read_signature_restartable, .-mbedtls_ecdsa_read_signature_restartable
	.section	.text.mbedtls_ecdsa_read_signature,"ax",@progbits
	.align	1
	.globl	mbedtls_ecdsa_read_signature
	.type	mbedtls_ecdsa_read_signature, @function
mbedtls_ecdsa_read_signature:
.LVL298:
.LFB34:
.LM744:
	.cfi_startproc
.LM745:
.LM746:
	li	a5,0
	tail	mbedtls_ecdsa_read_signature_restartable
.LVL299:
.LM747:
	.cfi_endproc
.LFE34:
	.size	mbedtls_ecdsa_read_signature, .-mbedtls_ecdsa_read_signature
	.section	.text.mbedtls_ecdsa_genkey,"ax",@progbits
	.align	1
	.globl	mbedtls_ecdsa_genkey
	.type	mbedtls_ecdsa_genkey, @function
mbedtls_ecdsa_genkey:
.LVL300:
.LFB36:
.LM748:
	.cfi_startproc
.LM749:
.LM750:
.LM751:
	addi	sp,sp,-32
	.cfi_def_cfa_offset 32
	sw	s0,24(sp)
	sw	ra,28(sp)
	.cfi_offset 8, -8
	.cfi_offset 1, -4
.LM752:
	mv	s0,a0
	sw	a2,12(sp)
	sw	a3,8(sp)
.LM753:
	call	mbedtls_ecp_group_load
.LVL301:
.LM754:
.LM755:
	bne	a0,zero,.L174
.LM756:
.LM757:
	addi	a2,s0,104
	addi	a1,s0,96
	mv	a0,s0
.LVL302:
.LM758:
	lw	s0,24(sp)
	.cfi_remember_state
	.cfi_restore 8
.LVL303:
.LM759:
	lw	a4,8(sp)
	lw	a3,12(sp)
.LM760:
	lw	ra,28(sp)
	.cfi_restore 1
	addi	sp,sp,32
	.cfi_def_cfa_offset 0
.LVL304:
.LM761:
	tail	mbedtls_ecp_gen_keypair
.LVL305:
.L174:
	.cfi_restore_state
.LM762:
	lw	ra,28(sp)
	.cfi_restore 1
	lw	s0,24(sp)
	.cfi_restore 8
.LVL306:
.LM763:
	addi	sp,sp,32
	.cfi_def_cfa_offset 0
.LVL307:
.LM764:
	jr	ra
	.cfi_endproc
.LFE36:
	.size	mbedtls_ecdsa_genkey, .-mbedtls_ecdsa_genkey
	.section	.text.mbedtls_ecdsa_init,"ax",@progbits
	.align	1
	.globl	mbedtls_ecdsa_init
	.type	mbedtls_ecdsa_init, @function
mbedtls_ecdsa_init:
.LVL308:
.LFB38:
.LM765:
	.cfi_startproc
.LM766:
	tail	mbedtls_ecp_keypair_init
.LVL309:
.LM767:
	.cfi_endproc
.LFE38:
	.size	mbedtls_ecdsa_init, .-mbedtls_ecdsa_init
	.section	.text.mbedtls_ecdsa_free,"ax",@progbits
	.align	1
	.globl	mbedtls_ecdsa_free
	.type	mbedtls_ecdsa_free, @function
mbedtls_ecdsa_free:
.LVL310:
.LFB39:
.LM768:
	.cfi_startproc
.LM769:
.LM770:
	beq	a0,zero,.L178
.LM771:
	tail	mbedtls_ecp_keypair_free
.LVL311:
.L178:
.LM772:
	ret
	.cfi_endproc
.LFE39:
	.size	mbedtls_ecdsa_free, .-mbedtls_ecdsa_free
	.section	.text.mbedtls_ecdsa_from_keypair,"ax",@progbits
	.align	1
	.globl	mbedtls_ecdsa_from_keypair
	.type	mbedtls_ecdsa_from_keypair, @function
mbedtls_ecdsa_from_keypair:
.LVL312:
.LFB37:
.LM773:
	.cfi_startproc
.LM774:
.LM775:
.LM776:
	addi	sp,sp,-16
	.cfi_def_cfa_offset 16
	sw	s0,8(sp)
	sw	s1,4(sp)
	sw	s2,0(sp)
	sw	ra,12(sp)
	.cfi_offset 8, -8
	.cfi_offset 9, -12
	.cfi_offset 18, -16
	.cfi_offset 1, -4
.LM777:
	mv	s1,a0
	mv	s2,a1
.LM778:
	call	mbedtls_ecp_group_copy
.LVL313:
.LM779:
	mv	s0,a0
.LVL314:
.LM780:
	bne	a0,zero,.L181
.LM781:
	addi	a1,s2,96
	addi	a0,s1,96
	call	mbedtls_mpi_copy
.LVL315:
	mv	s0,a0
.LVL316:
.LM782:
	bne	a0,zero,.L181
.LM783:
	addi	a1,s2,104
	addi	a0,s1,104
	call	mbedtls_ecp_copy
.LVL317:
	mv	s0,a0
.LVL318:
.LM784:
	beq	a0,zero,.L180
.L181:
.LM785:
	mv	a0,s1
	call	mbedtls_ecdsa_free
.LVL319:
.LM786:
.L180:
.LM787:
	lw	ra,12(sp)
	.cfi_restore 1
	mv	a0,s0
	lw	s0,8(sp)
	.cfi_restore 8
.LVL320:
.LM788:
	lw	s1,4(sp)
	.cfi_restore 9
.LVL321:
.LM789:
	lw	s2,0(sp)
	.cfi_restore 18
.LVL322:
.LM790:
	addi	sp,sp,16
	.cfi_def_cfa_offset 0
	jr	ra
	.cfi_endproc
.LFE37:
	.size	mbedtls_ecdsa_from_keypair, .-mbedtls_ecdsa_from_keypair
	.section	.text.mbedtls_ecdsa_restart_init,"ax",@progbits
	.align	1
	.globl	mbedtls_ecdsa_restart_init
	.type	mbedtls_ecdsa_restart_init, @function
mbedtls_ecdsa_restart_init:
.LVL323:
.LFB40:
.LM791:
	.cfi_startproc
.LM792:
.LM793:
	addi	sp,sp,-32
	.cfi_def_cfa_offset 32
	sw	ra,28(sp)
	.cfi_offset 1, -4
.LM794:
	sw	a0,12(sp)
.LM795:
	call	mbedtls_ecp_restart_init
.LVL324:
.LM796:
.LM797:
	lw	a0,12(sp)
	sw	zero,16(a0)
.LM798:
.LM799:
	sw	zero,20(a0)
.LM800:
.LM801:
	sw	zero,24(a0)
.LM802:
	lw	ra,28(sp)
	.cfi_restore 1
	addi	sp,sp,32
	.cfi_def_cfa_offset 0
.LVL325:
.LM803:
	jr	ra
	.cfi_endproc
.LFE40:
	.size	mbedtls_ecdsa_restart_init, .-mbedtls_ecdsa_restart_init
	.section	.text.mbedtls_ecdsa_restart_free,"ax",@progbits
	.align	1
	.globl	mbedtls_ecdsa_restart_free
	.type	mbedtls_ecdsa_restart_free, @function
mbedtls_ecdsa_restart_free:
.LVL326:
.LFB41:
.LM804:
	.cfi_startproc
.LM805:
.LM806:
	beq	a0,zero,.L207
.LM807:
	addi	sp,sp,-16
	.cfi_def_cfa_offset 16
	sw	s0,8(sp)
	sw	ra,12(sp)
	.cfi_offset 8, -8
	.cfi_offset 1, -4
	mv	s0,a0
.LM808:
.LM809:
	sw	s1,4(sp)
	.cfi_offset 9, -12
.LM810:
	call	mbedtls_ecp_restart_free
.LVL327:
.LM811:
	lw	a0,16(s0)
.LVL328:
.LBB60:
.LBI60:
.LM812:
.LBB61:
.LM813:
.LM814:
	beq	a0,zero,.L191
	call	ecdsa_restart_ver_free.part.0
.LVL329:
.L191:
.LM815:
.LBE61:
.LBE60:
.LM816:
	lw	a0,16(s0)
	call	free
.LVL330:
.LM817:
.LM818:
	lw	s1,20(s0)
.LM819:
	sw	zero,16(s0)
.LM820:
.LVL331:
.LBB62:
.LBI62:
.LM821:
.LBB63:
.LM822:
.LM823:
	beq	s1,zero,.L192
.LVL332:
.LBB64:
.LBI64:
.LM824:
.LBB65:
.LM825:
	addi	a0,s1,8
	call	mbedtls_mpi_free
.LVL333:
.LM826:
	addi	a0,s1,16
	call	mbedtls_mpi_free
.LVL334:
.L192:
.LM827:
.LBE65:
.LBE64:
.LBE63:
.LBE62:
.LM828:
	lw	a0,20(s0)
	call	free
.LVL335:
.LM829:
.LM830:
	lw	s1,24(s0)
.LM831:
	sw	zero,20(s0)
.LM832:
.LVL336:
.LBB66:
.LBI66:
.LM833:
.LBB67:
.LM834:
.LM835:
	beq	s1,zero,.L193
.LVL337:
.LBB68:
.LBI68:
.LM836:
.LBB69:
.LM837:
	mv	a0,s1
	call	mbedtls_hmac_drbg_free
.LVL338:
.LM838:
.LBB70:
.LBI70:
.LM839:
.LBB71:
.LM840:
	mv	a0,s1
	call	mbedtls_hmac_drbg_init
.LVL339:
.LM841:
.LM842:
	sb	zero,100(s1)
.LVL340:
.L193:
.LM843:
.LBE71:
.LBE70:
.LBE69:
.LBE68:
.LBE67:
.LBE66:
.LM844:
	lw	a0,24(s0)
	call	free
.LVL341:
.LM845:
.LM846:
	sw	zero,24(s0)
.LM847:
	lw	ra,12(sp)
	.cfi_restore 1
	lw	s0,8(sp)
	.cfi_restore 8
.LVL342:
.LM848:
	lw	s1,4(sp)
	.cfi_restore 9
	addi	sp,sp,16
	.cfi_def_cfa_offset 0
	jr	ra
.LVL343:
.L207:
.LM849:
	ret
	.cfi_endproc
.LFE41:
	.size	mbedtls_ecdsa_restart_free, .-mbedtls_ecdsa_restart_free
	.text
.Letext0:
	.section	.note.GNU-stack,"",@progbits
