	.file	"ecp.c"
	.option nopic
	.attribute arch, "rv32i2p1_m2p0_f2p2_c2p0_zicsr2p0_zmmul1p0_zca1p0_zcf1p0"
	.attribute unaligned_access, 0
	.attribute stack_align, 16
	.text
.Ltext0:
	.cfi_sections	.debug_frame
	.section	.text.self_test_rng,"ax",@progbits
	.align	1
	.type	self_test_rng, @function
self_test_rng:
.LVL0:
.LFB105:
.LM1:
	.cfi_startproc
.LM2:
.LM3:
.LM4:
.LBB45:
.LM5:
.LM6:
	lui	a6,%hi(state.0)
	lw	a5,%lo(state.0)(a6)
.LM7:
	li	a3,1662976
.LM8:
	li	a0,1013903360
.LVL1:
.LM9:
	li	a7,0
.LM10:
	li	a4,0
.LM11:
	addi	a3,a3,1549
.LM12:
	addi	a0,a0,863
.LVL2:
.L2:
.LM13:
	bne	a4,a2,.L3
	beq	a7,zero,.L4
	sw	a5,%lo(state.0)(a6)
.L4:
.LBE45:
.LM14:
.LM15:
	li	a0,0
	ret
.L3:
.LBB46:
.LM16:
.LM17:
	mul	a5,a5,a3
.LM18:
	add	a7,a1,a4
.LM19:
	addi	a4,a4,1
.LVL3:
.LM20:
	add	a5,a5,a0
.LM21:
.LM22:
	sb	a5,0(a7)
.LM23:
.LVL4:
.LM24:
	li	a7,1
	j	.L2
.LBE46:
	.cfi_endproc
.LFE105:
	.size	self_test_rng, .-self_test_rng
	.section	.text.mpi_init_many,"ax",@progbits
	.align	1
	.type	mpi_init_many, @function
mpi_init_many:
.LVL5:
.LFB25:
.LM25:
	.cfi_startproc
.LM26:
.LM27:
	addi	sp,sp,-32
	.cfi_def_cfa_offset 32
	sw	s0,24(sp)
	.cfi_offset 8, -8
	slli	s0,a1,3
	sw	ra,28(sp)
	.cfi_offset 1, -4
	add	s0,a0,s0
.LVL6:
.L9:
.LM28:
.LM29:
	bne	a0,s0,.L10
.LM30:
	lw	ra,28(sp)
	.cfi_remember_state
	.cfi_restore 1
	lw	s0,24(sp)
	.cfi_restore 8
	addi	sp,sp,32
	.cfi_def_cfa_offset 0
	jr	ra
.L10:
	.cfi_restore_state
.LM31:
.LVL7:
.LM32:
	sw	a0,12(sp)
	call	mbedtls_mpi_init
.LVL8:
.LM33:
	lw	a0,12(sp)
	addi	a0,a0,8
	j	.L9
	.cfi_endproc
.LFE25:
	.size	mpi_init_many, .-mpi_init_many
	.section	.text.mpi_free_many,"ax",@progbits
	.align	1
	.type	mpi_free_many, @function
mpi_free_many:
.LVL9:
.LFB26:
.LM34:
	.cfi_startproc
.LM35:
.LM36:
	addi	sp,sp,-32
	.cfi_def_cfa_offset 32
	sw	s0,24(sp)
	.cfi_offset 8, -8
	slli	s0,a1,3
	sw	ra,28(sp)
	.cfi_offset 1, -4
	add	s0,a0,s0
.LVL10:
.L13:
.LM37:
.LM38:
	bne	a0,s0,.L14
.LM39:
	lw	ra,28(sp)
	.cfi_remember_state
	.cfi_restore 1
	lw	s0,24(sp)
	.cfi_restore 8
	addi	sp,sp,32
	.cfi_def_cfa_offset 0
	jr	ra
.L14:
	.cfi_restore_state
.LM40:
.LVL11:
.LM41:
	sw	a0,12(sp)
	call	mbedtls_mpi_free
.LVL12:
.LM42:
	lw	a0,12(sp)
	addi	a0,a0,8
	j	.L13
	.cfi_endproc
.LFE26:
	.size	mpi_free_many, .-mpi_free_many
	.section	.text.ecp_safe_invert_jac,"ax",@progbits
	.align	1
	.type	ecp_safe_invert_jac, @function
ecp_safe_invert_jac:
.LVL13:
.LFB64:
.LM43:
	.cfi_startproc
.LM44:
.LM45:
.LM46:
.LM47:
	addi	sp,sp,-64
	.cfi_def_cfa_offset 64
	sw	s0,56(sp)
	.cfi_offset 8, -8
	mv	s0,a0
.LM48:
	addi	a0,sp,24
.LVL14:
.LM49:
	sw	ra,60(sp)
	sw	s1,52(sp)
	sw	s2,48(sp)
	sw	s3,44(sp)
	.cfi_offset 1, -4
	.cfi_offset 9, -12
	.cfi_offset 18, -16
	.cfi_offset 19, -20
.LM50:
	mv	s2,a2
	sw	a1,12(sp)
.LM51:
	call	mbedtls_mpi_init
.LVL15:
.LM52:
.LBB47:
.LM53:
.LM54:
	lw	a1,12(sp)
	addi	s1,a1,8
.LM55:
	mv	a0,s1
	li	a1,0
	call	mbedtls_mpi_cmp_int
.LVL16:
	mv	s3,a0
.LVL17:
.LM56:
.LM57:
.LM58:
	mv	a2,s1
	addi	a1,s0,4
	addi	a0,sp,24
.LVL18:
.LM59:
	call	mbedtls_mpi_sub_mpi
.LVL19:
.LM60:
	bne	a0,zero,.L18
.LM61:
.LM62:
.LM63:
.LM64:
	snez	a2,s3
.LM65:
	and	a2,s2,a2
	addi	a1,sp,24
	mv	a0,s1
.LVL20:
.LM66:
	call	mbedtls_mpi_safe_cond_assign
.LVL21:
.L18:
.L17:
	mv	s0,a0
.LVL22:
.LM67:
.LBE47:
.LM68:
.LM69:
	addi	a0,sp,24
	call	mbedtls_mpi_free
.LVL23:
.LM70:
.LM71:
	lw	ra,60(sp)
	.cfi_restore 1
	mv	a0,s0
	lw	s0,56(sp)
	.cfi_restore 8
.LVL24:
.LM72:
	lw	s1,52(sp)
	.cfi_restore 9
	lw	s2,48(sp)
	.cfi_restore 18
.LVL25:
.LM73:
	lw	s3,44(sp)
	.cfi_restore 19
.LVL26:
.LM74:
	addi	sp,sp,64
	.cfi_def_cfa_offset 0
.LVL27:
.LM75:
	jr	ra
	.cfi_endproc
.LFE64:
	.size	ecp_safe_invert_jac, .-ecp_safe_invert_jac
	.section	.text.ecp_select_comb,"ax",@progbits
	.align	1
	.type	ecp_select_comb, @function
ecp_select_comb:
.LVL28:
.LFB70:
.LM76:
	.cfi_startproc
.LM77:
.LM78:
.LM79:
.LM80:
	addi	sp,sp,-64
	.cfi_def_cfa_offset 64
	sw	s3,44(sp)
	.cfi_offset 19, -20
.LM81:
	srli	s3,a4,1
.LM82:
	sw	s0,56(sp)
	sw	s1,52(sp)
	sw	s2,48(sp)
	sw	s4,40(sp)
	sw	s6,32(sp)
	sw	s7,28(sp)
	sw	ra,60(sp)
	sw	s5,36(sp)
	.cfi_offset 8, -8
	.cfi_offset 9, -12
	.cfi_offset 18, -16
	.cfi_offset 20, -24
	.cfi_offset 22, -32
	.cfi_offset 23, -36
	.cfi_offset 1, -4
	.cfi_offset 21, -28
.LM83:
	mv	s6,a0
	mv	s2,a1
	mv	s7,a3
	mv	s4,a4
.LM84:
	andi	s3,s3,63
.LVL29:
.LM85:
.LM86:
	mv	s1,a2
.LM87:
	li	s0,0
.LVL30:
.L22:
.LM88:
.LM89:
.LM90:
	sub	a2,s3,s0
	seqz	a2,a2
	mv	a1,s1
	mv	a0,s2
	sw	a2,12(sp)
	call	mbedtls_mpi_safe_cond_assign
.LVL31:
.LM91:
	bne	a0,zero,.L20
.LM92:
.LM93:
.LM94:
.LM95:
	lw	a2,12(sp)
	addi	a1,s1,8
	addi	a0,s2,8
.LVL32:
.LM96:
	call	mbedtls_mpi_safe_cond_assign
.LVL33:
.LM97:
	bne	a0,zero,.L20
.LM98:
.LM99:
	addi	s0,s0,1
.LVL34:
.LM100:
	andi	s0,s0,0xff
.LVL35:
.LM101:
	addi	s1,s1,24
	bne	s7,s0,.L22
.LM102:
.LM103:
.LM104:
	srli	a2,s4,7
	mv	a1,s2
	mv	a0,s6
.LVL36:
.LM105:
	call	ecp_safe_invert_jac
.LVL37:
.LM106:
	bne	a0,zero,.L20
.LM107:
.LM108:
.LM109:
.LM110:
	lw	s0,56(sp)
	.cfi_remember_state
	.cfi_restore 8
.LVL38:
.LM111:
	lw	ra,60(sp)
	.cfi_restore 1
	lw	s1,52(sp)
	.cfi_restore 9
	lw	s3,44(sp)
	.cfi_restore 19
.LVL39:
.LM112:
	lw	s4,40(sp)
	.cfi_restore 20
.LVL40:
.LM113:
	lw	s5,36(sp)
	.cfi_restore 21
	lw	s6,32(sp)
	.cfi_restore 22
.LVL41:
.LM114:
	lw	s7,28(sp)
	.cfi_restore 23
.LVL42:
.LM115:
	addi	a0,s2,16
.LVL43:
.LM116:
	lw	s2,48(sp)
	.cfi_restore 18
.LVL44:
.LM117:
	li	a1,1
.LM118:
	addi	sp,sp,64
	.cfi_def_cfa_offset 0
.LM119:
	tail	mbedtls_mpi_lset
.LVL45:
.L21:
.L20:
	.cfi_restore_state
.LM120:
	lw	ra,60(sp)
	.cfi_restore 1
	lw	s0,56(sp)
	.cfi_restore 8
.LVL46:
.LM121:
	lw	s1,52(sp)
	.cfi_restore 9
	lw	s2,48(sp)
	.cfi_restore 18
.LVL47:
.LM122:
	lw	s3,44(sp)
	.cfi_restore 19
.LVL48:
.LM123:
	lw	s4,40(sp)
	.cfi_restore 20
.LVL49:
.LM124:
	lw	s5,36(sp)
	.cfi_restore 21
	lw	s6,32(sp)
	.cfi_restore 22
.LVL50:
.LM125:
	lw	s7,28(sp)
	.cfi_restore 23
	addi	sp,sp,64
	.cfi_def_cfa_offset 0
	jr	ra
	.cfi_endproc
.LFE70:
	.size	ecp_select_comb, .-ecp_select_comb
	.section	.text.mbedtls_mpi_sub_mod,"ax",@progbits
	.align	1
	.type	mbedtls_mpi_sub_mod, @function
mbedtls_mpi_sub_mod:
.LVL51:
.LFB55:
.LM126:
	.cfi_startproc
.LM127:
.LM128:
.LM129:
.LM130:
	addi	sp,sp,-16
	.cfi_def_cfa_offset 16
	sw	s1,4(sp)
	.cfi_offset 9, -12
	mv	s1,a1
	sw	s2,0(sp)
	mv	a1,a2
.LVL52:
	.cfi_offset 18, -16
.LM131:
	mv	s2,a0
.LM132:
	mv	a2,a3
.LVL53:
.LM133:
	mv	a0,s1
.LVL54:
.LM134:
	sw	s0,8(sp)
	sw	ra,12(sp)
	.cfi_offset 8, -8
	.cfi_offset 1, -4
.LM135:
	call	mbedtls_mpi_sub_mpi
.LVL55:
.LM136:
	mv	s0,a0
.LVL56:
.LBB50:
.LBB51:
.LM137:
	addi	s2,s2,4
.LVL57:
.LM138:
.LBE51:
.LBE50:
.LM139:
	beq	a0,zero,.L27
.LVL58:
.L25:
.LM140:
	lw	ra,12(sp)
	.cfi_remember_state
	.cfi_restore 1
	mv	a0,s0
	lw	s0,8(sp)
	.cfi_restore 8
	lw	s1,4(sp)
	.cfi_restore 9
.LVL59:
.LM141:
	lw	s2,0(sp)
	.cfi_restore 18
.LVL60:
.LM142:
	addi	sp,sp,16
	.cfi_def_cfa_offset 0
	jr	ra
.LVL61:
.L29:
	.cfi_restore_state
.LBB54:
.LBB52:
.LM143:
.LM144:
.LM145:
	mv	a2,s2
	mv	a1,s1
	mv	a0,s1
	call	mbedtls_mpi_add_mpi
.LVL62:
.LM146:
	bne	a0,zero,.L31
.LVL63:
.L27:
.LM147:
.LM148:
	lh	a5,4(s1)
	bge	a5,zero,.L25
.LM149:
	li	a1,0
	mv	a0,s1
	call	mbedtls_mpi_cmp_int
.LVL64:
.LM150:
	bne	a0,zero,.L29
	j	.L25
.LVL65:
.L31:
.L26:
.LM151:
.LBE52:
.LBE54:
.LM152:
.LM153:
.LBB55:
.LBB53:
.LM154:
	mv	s0,a0
.LBE53:
.LBE55:
.LM155:
	j	.L25
	.cfi_endproc
.LFE55:
	.size	mbedtls_mpi_sub_mod, .-mbedtls_mpi_sub_mod
	.section	.text.mbedtls_mpi_mul_mod,"ax",@progbits
	.align	1
	.type	mbedtls_mpi_mul_mod, @function
mbedtls_mpi_mul_mod:
.LVL66:
.LFB54:
.LM156:
	.cfi_startproc
.LM157:
	addi	sp,sp,-16
	.cfi_def_cfa_offset 16
	sw	s0,8(sp)
	.cfi_offset 8, -8
	mv	s0,a1
	sw	s1,4(sp)
	mv	a1,a2
.LVL67:
	.cfi_offset 9, -12
.LM158:
	mv	s1,a0
.LM159:
.LVL68:
.LM160:
.LM161:
.LM162:
	mv	a2,a3
.LVL69:
.LM163:
	mv	a0,s0
.LVL70:
.LM164:
	sw	ra,12(sp)
	.cfi_offset 1, -4
.LM165:
	call	mbedtls_mpi_mul_mpi
.LVL71:
.LM166:
	bne	a0,zero,.L33
.LM167:
.LM168:
.LM169:
.LM170:
.LVL72:
.LBB60:
.LBI60:
.LM171:
.LBB61:
.LM172:
.LM173:
.LM174:
	lw	a5,72(s1)
	bne	a5,zero,.L35
.LM175:
.LM176:
	addi	a2,s1,4
	mv	a1,s0
	mv	a0,s0
.LVL73:
.LM177:
	call	mbedtls_mpi_mod_mpi
.LVL74:
.LM178:
.LBE61:
.LBE60:
.LM179:
	beq	a0,zero,.L37
.L34:
.LVL75:
.L33:
.LM180:
	lw	ra,12(sp)
	.cfi_remember_state
	.cfi_restore 1
	lw	s0,8(sp)
	.cfi_restore 8
.LVL76:
.LM181:
	lw	s1,4(sp)
	.cfi_restore 9
	addi	sp,sp,16
	.cfi_def_cfa_offset 0
	jr	ra
.LVL77:
.L35:
	.cfi_restore_state
.LBB65:
.LBB62:
.LM182:
.LM183:
	lh	a5,4(s0)
	blt	a5,zero,.L38
.LVL78:
.L41:
.LM184:
	mv	a0,s0
	call	mbedtls_mpi_bitlen
.LVL79:
.LM185:
	lw	a5,60(s1)
	slli	a5,a5,1
.LM186:
	bleu	a0,a5,.L52
.L39:
.LM187:
.LBE62:
.LBE65:
.LM188:
	li	a0,-20480
	addi	a0,a0,128
	j	.L33
.LVL80:
.L38:
.LBB66:
.LBB63:
.LM189:
	li	a1,0
	mv	a0,s0
.LVL81:
.LM190:
	call	mbedtls_mpi_cmp_int
.LVL82:
.LM191:
	beq	a0,zero,.L41
	j	.L39
.L52:
.LM192:
.LM193:
.LM194:
	lw	a5,72(s1)
	mv	a0,s0
	addi	s1,s1,4
.LVL83:
.LM195:
	jalr	a5
.LVL84:
.LM196:
	bne	a0,zero,.L33
.L42:
.LVL85:
.LM197:
.LM198:
	lh	a5,4(s0)
	bge	a5,zero,.L46
.LM199:
	li	a1,0
	mv	a0,s0
	call	mbedtls_mpi_cmp_int
.LVL86:
.LM200:
	bne	a0,zero,.L45
.LVL87:
.L46:
.LM201:
.LM202:
.LM203:
	mv	a1,s1
	mv	a0,s0
	call	mbedtls_mpi_cmp_mpi
.LVL88:
.LM204:
	bge	a0,zero,.L47
.LVL89:
.L37:
.LM205:
.LBE63:
.LBE66:
.LBB67:
.LBI67:
.LM206:
.LBB68:
.LM207:
.LM208:
.LM209:
	lui	a4,%hi(mul_count)
	lw	a5,%lo(mul_count)(a4)
	li	a0,0
	addi	a5,a5,1
	sw	a5,%lo(mul_count)(a4)
.LDL1:
.LM210:
.LM211:
.LVL90:
.LM212:
	j	.L33
.LVL91:
.L45:
.LM213:
.LBE68:
.LBE67:
.LBB69:
.LBB64:
.LM214:
.LM215:
.LM216:
	mv	a2,s1
	mv	a1,s0
	mv	a0,s0
	call	mbedtls_mpi_add_mpi
.LVL92:
.LM217:
	beq	a0,zero,.L42
	j	.L33
.LVL93:
.L47:
.LM218:
.LM219:
.LM220:
	mv	a2,s1
	mv	a1,s0
	mv	a0,s0
	call	mbedtls_mpi_sub_abs
.LVL94:
.LM221:
	beq	a0,zero,.L46
	j	.L33
.LBE64:
.LBE69:
	.cfi_endproc
.LFE54:
	.size	mbedtls_mpi_mul_mod, .-mbedtls_mpi_mul_mod
	.section	.text.ecp_normalize_jac,"ax",@progbits
	.align	1
	.type	ecp_normalize_jac, @function
ecp_normalize_jac:
.LVL95:
.LFB62:
.LM222:
	.cfi_startproc
.LM223:
.LM224:
	addi	sp,sp,-48
	.cfi_def_cfa_offset 48
	sw	s1,36(sp)
	.cfi_offset 9, -12
	mv	s1,a1
	sw	s2,32(sp)
.LM225:
	li	a1,0
.LVL96:
	.cfi_offset 18, -16
.LM226:
	mv	s2,a0
.LM227:
	addi	a0,s1,16
.LVL97:
.LM228:
	sw	s0,40(sp)
	sw	ra,44(sp)
	sw	s3,28(sp)
	sw	s4,24(sp)
	.cfi_offset 8, -8
	.cfi_offset 1, -4
	.cfi_offset 19, -20
	.cfi_offset 20, -24
.LM229:
	call	mbedtls_mpi_cmp_int
.LVL98:
	mv	s0,a0
.LM230:
	beq	a0,zero,.L54
.LM231:
.LVL99:
.LM232:
.LM233:
	addi	a0,sp,8
	call	mbedtls_mpi_init
.LVL100:
.LM234:
.LM235:
.LM236:
	addi	a3,s2,4
	addi	a2,s1,16
	addi	a1,sp,8
	li	a0,0
	call	mbedtls_mpi_gcd_modinv_odd
.LVL101:
	mv	s0,a0
.LVL102:
.LM237:
	bne	a0,zero,.L56
.LM238:
.LM239:
.LM240:
.LM241:
	addi	a3,sp,8
	addi	a2,s1,8
	addi	a1,s1,8
	mv	a0,s2
	call	mbedtls_mpi_mul_mod
.LVL103:
	mv	s0,a0
.LVL104:
.LM242:
	bne	a0,zero,.L56
.LM243:
.LM244:
.LM245:
.LM246:
	addi	a3,sp,8
	mv	a2,a3
	mv	a1,a3
	mv	a0,s2
	call	mbedtls_mpi_mul_mod
.LVL105:
	mv	s0,a0
.LVL106:
.LM247:
	bne	a0,zero,.L56
.LM248:
.LM249:
.LM250:
.LM251:
	addi	a3,sp,8
	mv	a2,s1
	mv	a1,s1
	mv	a0,s2
	call	mbedtls_mpi_mul_mod
.LVL107:
	mv	s0,a0
.LVL108:
.LM252:
	bne	a0,zero,.L56
.LM253:
.LM254:
.LM255:
.LM256:
	addi	a2,s1,8
	addi	a3,sp,8
	mv	a1,a2
	mv	a0,s2
	call	mbedtls_mpi_mul_mod
.LVL109:
	mv	s0,a0
.LVL110:
.LM257:
	bne	a0,zero,.L56
.LM258:
.LM259:
.LM260:
.LM261:
	li	a1,1
	addi	a0,s1,16
	call	mbedtls_mpi_lset
.LVL111:
	mv	s0,a0
.LVL112:
.L56:
.LM262:
.LM263:
	addi	a0,sp,8
	call	mbedtls_mpi_free
.LVL113:
.LM264:
.L54:
.LM265:
	lw	ra,44(sp)
	.cfi_restore 1
	mv	a0,s0
	lw	s0,40(sp)
	.cfi_restore 8
	lw	s1,36(sp)
	.cfi_restore 9
.LVL114:
.LM266:
	lw	s2,32(sp)
	.cfi_restore 18
.LVL115:
.LM267:
	lw	s3,28(sp)
	.cfi_restore 19
	lw	s4,24(sp)
	.cfi_restore 20
	addi	sp,sp,48
	.cfi_def_cfa_offset 0
	jr	ra
	.cfi_endproc
.LFE62:
	.size	ecp_normalize_jac, .-ecp_normalize_jac
	.section	.text.ecp_normalize_jac_many,"ax",@progbits
	.align	1
	.type	ecp_normalize_jac_many, @function
ecp_normalize_jac_many:
.LVL116:
.LFB63:
.LM268:
	.cfi_startproc
.LM269:
.LM270:
	li	a5,1
	bgtu	a2,a5,.L63
.LM271:
.LM272:
	lw	a1,0(a1)
.LVL117:
.LM273:
	tail	ecp_normalize_jac
.LVL118:
.L63:
.LM274:
	addi	sp,sp,-80
	.cfi_def_cfa_offset 80
	sw	s1,68(sp)
	sw	s2,64(sp)
	.cfi_offset 9, -12
	.cfi_offset 18, -16
	mv	s1,a1
	mv	s2,a0
.LM275:
.LVL119:
.LM276:
.LM277:
.LM278:
.LM279:
	li	a1,8
.LVL120:
.LM280:
	mv	a0,a2
.LVL121:
.LM281:
	sw	s0,72(sp)
	sw	s3,60(sp)
	sw	s4,56(sp)
	sw	ra,76(sp)
	sw	s5,52(sp)
	sw	s6,48(sp)
	sw	s7,44(sp)
	sw	s8,40(sp)
	.cfi_offset 8, -8
	.cfi_offset 19, -20
	.cfi_offset 20, -24
	.cfi_offset 1, -4
	.cfi_offset 21, -28
	.cfi_offset 22, -32
	.cfi_offset 23, -36
	.cfi_offset 24, -40
	mv	s4,a2
.LM282:
	li	s0,-20480
.LM283:
	call	calloc
.LVL122:
.LM284:
	mv	s3,a0
.LVL123:
.LM285:
	addi	s0,s0,640
.LM286:
	beq	a0,zero,.L62
.LM287:
	addi	a0,sp,24
.LVL124:
.LM288:
	call	mbedtls_mpi_init
.LVL125:
.LM289:
	mv	a1,s4
	mv	a0,s3
	call	mpi_init_many
.LVL126:
.LM290:
.LM291:
.LM292:
	lw	a1,0(s1)
.LM293:
	mv	a0,s3
	addi	a1,a1,16
	call	mbedtls_mpi_copy
.LVL127:
	mv	s0,a0
.LVL128:
.LM294:
	bne	a0,zero,.L65
	slli	s5,s4,3
	addi	s7,s1,4
	addi	s6,s3,8
	add	s8,s3,s5
.L66:
.LM295:
.LM296:
.LM297:
	lw	a3,0(s7)
.LM298:
	addi	a2,s6,-8
	mv	a1,s6
	addi	a3,a3,16
	mv	a0,s2
	call	mbedtls_mpi_mul_mod
.LVL129:
	mv	s0,a0
.LVL130:
.LM299:
	bne	a0,zero,.L65
.LM300:
.LM301:
.LM302:
	addi	s6,s6,8
	addi	s7,s7,4
	bne	s6,s8,.L66
.LM303:
.LM304:
.LM305:
	addi	a2,s5,-8
.LM306:
	add	a2,s3,a2
	addi	a3,s2,4
	mv	a1,a2
	call	mbedtls_mpi_gcd_modinv_odd
.LVL131:
	mv	s0,a0
.LVL132:
.LM307:
	bne	a0,zero,.L65
.LM308:
.LM309:
	addi	s1,s1,-4
.LVL133:
.LM310:
	slli	a5,s4,2
.LM311:
	addi	s5,s4,-1
.LVL134:
.LM312:
	add	s1,s1,a5
.LVL135:
.LM313:
	addi	s6,s3,-8
.L70:
.LM314:
.LM315:
	beq	s5,zero,.L67
.LM316:
.LM317:
	slli	a5,s5,3
.LM318:
	add	s7,s6,a5
.LM319:
	add	a2,s3,a5
.LM320:
	mv	a3,s7
	addi	a1,sp,24
	mv	a0,s2
	sw	a2,12(sp)
	call	mbedtls_mpi_mul_mod
.LVL136:
	mv	s0,a0
.LVL137:
.LM321:
	bne	a0,zero,.L65
.LM322:
.LM323:
.LM324:
.LM325:
	lw	a3,0(s1)
.LM326:
	lw	a2,12(sp)
	mv	a1,s7
	addi	a3,a3,16
	mv	a0,s2
	call	mbedtls_mpi_mul_mod
.LVL138:
.L79:
.LM327:
	mv	s0,a0
.LVL139:
.LM328:
	bne	a0,zero,.L65
.LM329:
.LM330:
.LM331:
.LM332:
	lw	a2,0(s1)
	addi	a3,sp,24
	mv	a0,s2
	addi	a2,a2,8
	mv	a1,a2
	call	mbedtls_mpi_mul_mod
.LVL140:
	mv	s0,a0
.LVL141:
.LM333:
	beq	a0,zero,.L76
.LVL142:
.L65:
.LM334:
	addi	a0,sp,24
	call	mbedtls_mpi_free
.LVL143:
.LM335:
	mv	a0,s3
	mv	a1,s4
	call	mpi_free_many
.LVL144:
.LM336:
	mv	a0,s3
	call	free
.LVL145:
.LM337:
.L62:
.LM338:
	lw	ra,76(sp)
	.cfi_remember_state
	.cfi_restore 1
	mv	a0,s0
	lw	s0,72(sp)
	.cfi_restore 8
	lw	s1,68(sp)
	.cfi_restore 9
	lw	s2,64(sp)
	.cfi_restore 18
.LVL146:
.LM339:
	lw	s3,60(sp)
	.cfi_restore 19
.LVL147:
.LM340:
	lw	s4,56(sp)
	.cfi_restore 20
.LVL148:
.LM341:
	lw	s5,52(sp)
	.cfi_restore 21
	lw	s6,48(sp)
	.cfi_restore 22
	lw	s7,44(sp)
	.cfi_restore 23
	lw	s8,40(sp)
	.cfi_restore 24
	addi	sp,sp,80
	.cfi_def_cfa_offset 0
	jr	ra
.LVL149:
.L67:
	.cfi_restore_state
.LM342:
.LM343:
.LM344:
	mv	a1,s3
	addi	a0,sp,24
	call	mbedtls_mpi_copy
.LVL150:
	j	.L79
.L76:
.LM345:
.LM346:
.LM347:
.LM348:
	addi	a3,sp,24
	mv	a2,a3
	mv	a1,a3
	mv	a0,s2
	call	mbedtls_mpi_mul_mod
.LVL151:
	mv	s0,a0
.LVL152:
.LM349:
	bne	a0,zero,.L65
.LM350:
.LM351:
.LM352:
.LM353:
	lw	a2,0(s1)
	addi	a3,sp,24
	mv	a0,s2
	mv	a1,a2
	call	mbedtls_mpi_mul_mod
.LVL153:
	mv	s0,a0
.LVL154:
.LM354:
	bne	a0,zero,.L65
.LM355:
.LM356:
.LM357:
.LM358:
	lw	a2,0(s1)
	addi	a3,sp,24
	mv	a0,s2
	addi	a2,a2,8
	mv	a1,a2
	call	mbedtls_mpi_mul_mod
.LVL155:
	mv	s0,a0
.LVL156:
.LM359:
	bne	a0,zero,.L65
.LM360:
.LM361:
.LM362:
.LM363:
	lhu	a1,10(s2)
	lw	a0,0(s1)
	call	mbedtls_mpi_shrink
.LVL157:
	mv	s0,a0
.LVL158:
.LM364:
	bne	a0,zero,.L65
.LM365:
.LM366:
.LM367:
.LM368:
	lw	a0,0(s1)
	lhu	a1,10(s2)
	addi	a0,a0,8
	call	mbedtls_mpi_shrink
.LVL159:
	mv	s0,a0
.LVL160:
.LM369:
	bne	a0,zero,.L65
.LM370:
.LM371:
.LM372:
.LM373:
	lw	a0,0(s1)
	li	a1,1
	addi	a0,a0,16
	call	mbedtls_mpi_lset
.LVL161:
	mv	s0,a0
.LVL162:
.LM374:
	bne	a0,zero,.L65
.LM375:
.LM376:
.LM377:
	beq	s5,zero,.L65
	addi	s1,s1,-4
.LM378:
	addi	s5,s5,-1
.LVL163:
.LM379:
.LM380:
	j	.L70
	.cfi_endproc
.LFE63:
	.size	ecp_normalize_jac_many, .-ecp_normalize_jac_many
	.section	.text.mbedtls_mpi_add_mod,"ax",@progbits
	.align	1
	.type	mbedtls_mpi_add_mod, @function
mbedtls_mpi_add_mod:
.LVL164:
.LFB56:
.LM381:
	.cfi_startproc
.LM382:
.LM383:
.LM384:
.LM385:
	addi	sp,sp,-16
	.cfi_def_cfa_offset 16
	sw	s1,4(sp)
	.cfi_offset 9, -12
	mv	s1,a1
	sw	s2,0(sp)
	mv	a1,a2
.LVL165:
	.cfi_offset 18, -16
.LM386:
	mv	s2,a0
.LM387:
	mv	a2,a3
.LVL166:
.LM388:
	mv	a0,s1
.LVL167:
.LM389:
	sw	s0,8(sp)
	sw	ra,12(sp)
	.cfi_offset 8, -8
	.cfi_offset 1, -4
.LM390:
	call	mbedtls_mpi_add_mpi
.LVL168:
.LM391:
	mv	s0,a0
.LVL169:
.LBB72:
.LBB73:
.LM392:
	addi	s2,s2,4
.LVL170:
.LM393:
.LBE73:
.LBE72:
.LM394:
	beq	a0,zero,.L82
.LVL171:
.L80:
.LM395:
	lw	ra,12(sp)
	.cfi_remember_state
	.cfi_restore 1
	mv	a0,s0
	lw	s0,8(sp)
	.cfi_restore 8
	lw	s1,4(sp)
	.cfi_restore 9
.LVL172:
.LM396:
	lw	s2,0(sp)
	.cfi_restore 18
.LVL173:
.LM397:
	addi	sp,sp,16
	.cfi_def_cfa_offset 0
	jr	ra
.LVL174:
.L83:
	.cfi_restore_state
.LBB76:
.LBB74:
.LM398:
.LM399:
.LM400:
	mv	a2,s2
	mv	a1,s1
	mv	a0,s1
	call	mbedtls_mpi_sub_abs
.LVL175:
.LM401:
	bne	a0,zero,.L84
.LVL176:
.L82:
.LM402:
.LM403:
.LM404:
	mv	a1,s2
	mv	a0,s1
	call	mbedtls_mpi_cmp_mpi
.LVL177:
.LM405:
	bge	a0,zero,.L83
	j	.L80
.LVL178:
.L84:
.L81:
.LM406:
.LBE74:
.LBE76:
.LM407:
.LBB77:
.LBB75:
.LM408:
	mv	s0,a0
.LBE75:
.LBE77:
.LM409:
	j	.L80
	.cfi_endproc
.LFE56:
	.size	mbedtls_mpi_add_mod, .-mbedtls_mpi_add_mod
	.section	.text.mbedtls_mpi_mul_int_mod.part.0,"ax",@progbits
	.align	1
	.type	mbedtls_mpi_mul_int_mod.part.0, @function
mbedtls_mpi_mul_int_mod.part.0:
.LVL179:
.LFB113:
.LM410:
	.cfi_startproc
.LM411:
	addi	sp,sp,-16
	.cfi_def_cfa_offset 16
	sw	s0,8(sp)
	sw	s1,4(sp)
	sw	ra,12(sp)
	.cfi_offset 8, -8
	.cfi_offset 9, -12
	.cfi_offset 1, -4
.LM412:
	mv	s0,a1
.LM413:
	addi	s1,a0,4
.LVL180:
.L89:
.LM414:
.LM415:
.LM416:
	mv	a1,s1
	mv	a0,s0
	call	mbedtls_mpi_cmp_mpi
.LVL181:
.LM417:
	bge	a0,zero,.L90
.L88:
.LM418:
.LM419:
	li	a0,0
.LM420:
	j	.L86
.L90:
.LM421:
.LM422:
.LM423:
	mv	a2,s1
	mv	a1,s0
	mv	a0,s0
	call	mbedtls_mpi_sub_abs
.LVL182:
.LM424:
	beq	a0,zero,.L89
.LVL183:
.L86:
.LM425:
	lw	ra,12(sp)
	.cfi_restore 1
	lw	s0,8(sp)
	.cfi_restore 8
.LVL184:
.LM426:
	lw	s1,4(sp)
	.cfi_restore 9
.LVL185:
.LM427:
	addi	sp,sp,16
	.cfi_def_cfa_offset 0
	jr	ra
	.cfi_endproc
.LFE113:
	.size	mbedtls_mpi_mul_int_mod.part.0, .-mbedtls_mpi_mul_int_mod.part.0
	.set	mbedtls_mpi_shift_l_mod.part.0,mbedtls_mpi_mul_int_mod.part.0
	.section	.text.mbedtls_ecp_point_free.part.0,"ax",@progbits
	.align	1
	.type	mbedtls_ecp_point_free.part.0, @function
mbedtls_ecp_point_free.part.0:
.LVL186:
.LFB115:
.LM428:
	.cfi_startproc
.LM429:
.LM430:
	addi	sp,sp,-16
	.cfi_def_cfa_offset 16
	sw	ra,12(sp)
	sw	s0,8(sp)
	.cfi_offset 1, -4
	.cfi_offset 8, -8
.LM431:
	mv	s0,a0
.LM432:
	call	mbedtls_mpi_free
.LVL187:
.LM433:
	addi	a0,s0,8
	call	mbedtls_mpi_free
.LVL188:
.LM434:
	addi	a0,s0,16
.LM435:
	lw	s0,8(sp)
	.cfi_restore 8
.LVL189:
.LM436:
	lw	ra,12(sp)
	.cfi_restore 1
	addi	sp,sp,16
	.cfi_def_cfa_offset 0
.LM437:
	tail	mbedtls_mpi_free
.LVL190:
.LM438:
	.cfi_endproc
.LFE115:
	.size	mbedtls_ecp_point_free.part.0, .-mbedtls_ecp_point_free.part.0
	.section	.text.mbedtls_mpi_shift_l_mod.constprop.0,"ax",@progbits
	.align	1
	.type	mbedtls_mpi_shift_l_mod.constprop.0, @function
mbedtls_mpi_shift_l_mod.constprop.0:
.LVL191:
.LFB121:
.LM439:
	.cfi_startproc
.LM440:
.LM441:
.LM442:
.LM443:
	addi	sp,sp,-16
	.cfi_def_cfa_offset 16
	sw	s0,8(sp)
	.cfi_offset 8, -8
	mv	s0,a1
	sw	s1,4(sp)
.LM444:
	li	a1,1
.LVL192:
	.cfi_offset 9, -12
.LM445:
	mv	s1,a0
.LM446:
	mv	a0,s0
.LVL193:
.LM447:
	sw	ra,12(sp)
	.cfi_offset 1, -4
.LM448:
	call	mbedtls_mpi_shift_l
.LVL194:
.LM449:
	bne	a0,zero,.L94
	mv	a1,s0
.LM450:
	lw	s0,8(sp)
	.cfi_remember_state
	.cfi_restore 8
.LVL195:
.LM451:
	lw	ra,12(sp)
	.cfi_restore 1
	mv	a0,s1
.LVL196:
.LM452:
	lw	s1,4(sp)
	.cfi_restore 9
.LVL197:
.LM453:
	addi	sp,sp,16
	.cfi_def_cfa_offset 0
	tail	mbedtls_mpi_shift_l_mod.part.0
.LVL198:
.L95:
.L94:
	.cfi_restore_state
.LM454:
	lw	ra,12(sp)
	.cfi_restore 1
	lw	s0,8(sp)
	.cfi_restore 8
.LVL199:
.LM455:
	lw	s1,4(sp)
	.cfi_restore 9
.LVL200:
.LM456:
	addi	sp,sp,16
	.cfi_def_cfa_offset 0
	jr	ra
	.cfi_endproc
.LFE121:
	.size	mbedtls_mpi_shift_l_mod.constprop.0, .-mbedtls_mpi_shift_l_mod.constprop.0
	.section	.text.ecp_sw_rhs,"ax",@progbits
	.align	1
	.type	ecp_sw_rhs, @function
ecp_sw_rhs:
.LVL201:
.LFB60:
.LM457:
	.cfi_startproc
.LM458:
.LM459:
.LM460:
.LM461:
	addi	sp,sp,-32
	.cfi_def_cfa_offset 32
.LM462:
	mv	a3,a2
.LM463:
	sw	s0,24(sp)
	sw	s1,20(sp)
	sw	s2,16(sp)
	sw	ra,28(sp)
	sw	s3,12(sp)
	.cfi_offset 8, -8
	.cfi_offset 9, -12
	.cfi_offset 18, -16
	.cfi_offset 1, -4
	.cfi_offset 19, -20
.LM464:
	mv	s0,a0
	mv	s1,a1
	mv	s2,a2
.LM465:
	call	mbedtls_mpi_mul_mod
.LVL202:
.LM466:
	bne	a0,zero,.L97
.LVL203:
.LBB84:
.LBI84:
.LM467:
.LBB85:
.LM468:
.LM469:
.LBB86:
.LBI86:
.LM470:
.LBB87:
.LM471:
.LM472:
.LBE87:
.LBE86:
.LM473:
	lw	a5,12(s0)
	bne	a5,zero,.L99
.LM474:
.LM475:
.LVL204:
.LBB88:
.LBI88:
.LM476:
.LBB89:
.LM477:
.LM478:
.LM479:
.LM480:
	li	a2,3
	mv	a1,s1
	mv	a0,s1
.LVL205:
.LM481:
	call	mbedtls_mpi_sub_int
.LVL206:
.L110:
.LM482:
	bne	a0,zero,.L97
.LVL207:
.LM483:
.LM484:
	lh	a5,4(s1)
	bge	a5,zero,.L102
.LM485:
	li	a1,0
	mv	a0,s1
	call	mbedtls_mpi_cmp_int
.LVL208:
.LM486:
	bne	a0,zero,.L103
.LVL209:
.L102:
.LM487:
.LBE89:
.LBE88:
.LM488:
.LM489:
.LM490:
.LM491:
	mv	a3,s2
	mv	a2,s1
	mv	a1,s1
	mv	a0,s0
	call	mbedtls_mpi_mul_mod
.LVL210:
.LM492:
	bne	a0,zero,.L97
.LM493:
.LM494:
.LM495:
.LM496:
	addi	a3,s0,20
	mv	a0,s0
.LVL211:
.LM497:
.LBE85:
.LBE84:
.LM498:
	lw	s0,24(sp)
	.cfi_remember_state
	.cfi_restore 8
.LVL212:
.LM499:
	lw	ra,28(sp)
	.cfi_restore 1
	lw	s2,16(sp)
	.cfi_restore 18
.LVL213:
.LM500:
	lw	s3,12(sp)
	.cfi_restore 19
.LBB94:
.LBB92:
.LM501:
	mv	a2,s1
	mv	a1,s1
.LBE92:
.LBE94:
.LM502:
	lw	s1,20(sp)
	.cfi_restore 9
.LVL214:
.LM503:
	addi	sp,sp,32
	.cfi_def_cfa_offset 0
.LBB95:
.LBB93:
.LM504:
	tail	mbedtls_mpi_add_mod
.LVL215:
.L103:
	.cfi_restore_state
.LBB91:
.LBB90:
.LM505:
.LM506:
.LM507:
	addi	a2,s0,4
	mv	a1,s1
	mv	a0,s1
	call	mbedtls_mpi_add_mpi
.LVL216:
	j	.L110
.LVL217:
.L99:
.LM508:
.LBE90:
.LBE91:
.LM509:
.LM510:
.LM511:
	addi	a3,s0,12
	mv	a2,s1
	mv	a1,s1
	mv	a0,s0
.LVL218:
.LM512:
	call	mbedtls_mpi_add_mod
.LVL219:
.LM513:
	beq	a0,zero,.L102
.L98:
.L106:
.LVL220:
.L97:
.LM514:
.LBE93:
.LBE95:
.LM515:
	lw	ra,28(sp)
	.cfi_restore 1
	lw	s0,24(sp)
	.cfi_restore 8
.LVL221:
.LM516:
	lw	s1,20(sp)
	.cfi_restore 9
.LVL222:
.LM517:
	lw	s2,16(sp)
	.cfi_restore 18
.LVL223:
.LM518:
	lw	s3,12(sp)
	.cfi_restore 19
	addi	sp,sp,32
	.cfi_def_cfa_offset 0
	jr	ra
	.cfi_endproc
.LFE60:
	.size	ecp_sw_rhs, .-ecp_sw_rhs
	.section	.text.ecp_double_jac,"ax",@progbits
	.align	1
	.type	ecp_double_jac, @function
ecp_double_jac:
.LVL224:
.LFB65:
.LM519:
	.cfi_startproc
.LM520:
.LM521:
	lui	a4,%hi(dbl_count)
	lw	a5,%lo(dbl_count)(a4)
.LM522:
	addi	sp,sp,-64
	.cfi_def_cfa_offset 64
	sw	s0,56(sp)
	sw	s1,52(sp)
	sw	s2,48(sp)
	sw	s3,44(sp)
.LM523:
	addi	a5,a5,1
.LM524:
	sw	ra,60(sp)
	sw	s4,40(sp)
	sw	s5,36(sp)
	sw	s6,32(sp)
	sw	s7,28(sp)
	.cfi_offset 8, -8
	.cfi_offset 9, -12
	.cfi_offset 18, -16
	.cfi_offset 19, -20
	.cfi_offset 1, -4
	.cfi_offset 20, -24
	.cfi_offset 21, -28
	.cfi_offset 22, -32
	.cfi_offset 23, -36
.LM525:
	sw	a5,%lo(dbl_count)(a4)
.LM526:
.LVL225:
.LM527:
.LBB102:
.LBI102:
.LM528:
.LBB103:
.LM529:
.LM530:
.LBE103:
.LBE102:
.LM531:
	lw	a5,12(a0)
.LM532:
	mv	s0,a0
	mv	s1,a1
	mv	s2,a2
	mv	s3,a3
.LM533:
	bne	a5,zero,.L112
.LM534:
.LM535:
.LM536:
	addi	a3,a2,16
.LVL226:
.LM537:
	mv	a2,a3
.LVL227:
.LM538:
	addi	a1,s3,8
.LVL228:
.LM539:
	call	mbedtls_mpi_mul_mod
.LVL229:
.LM540:
	bne	a0,zero,.L111
.LM541:
.LM542:
.LM543:
.LM544:
	addi	a3,s3,8
	mv	a2,s2
	addi	a1,s3,16
	mv	a0,s0
.LVL230:
.LM545:
	call	mbedtls_mpi_add_mod
.LVL231:
.LM546:
	bne	a0,zero,.L111
.LM547:
.LM548:
.LM549:
.LM550:
	addi	a1,s3,24
	addi	a3,s3,8
	mv	a2,s2
	mv	a0,s0
.LVL232:
.LM551:
	sw	a1,12(sp)
	call	mbedtls_mpi_sub_mod
.LVL233:
.LM552:
	bne	a0,zero,.L111
.LM553:
.LM554:
.LM555:
.LM556:
	lw	a3,12(sp)
	addi	a2,s3,16
	addi	a1,s3,8
	mv	a0,s0
.LVL234:
.LM557:
	call	mbedtls_mpi_mul_mod
.LVL235:
.LM558:
	bne	a0,zero,.L111
.LM559:
.LM560:
.LM561:
.LVL236:
.LBB104:
.LBI104:
.LM562:
.LBB105:
.LM563:
.LM564:
.LM565:
.LM566:
	li	a2,3
	addi	a1,s3,8
.LVL237:
.LM567:
	mv	a0,s3
.LVL238:
.LM568:
	call	mbedtls_mpi_mul_int
.LVL239:
.LM569:
	bne	a0,zero,.L111
	mv	a1,s3
	mv	a0,s0
.LVL240:
.LM570:
	call	mbedtls_mpi_mul_int_mod.part.0
.LVL241:
.L121:
.LDL2:
.LM571:
.LM572:
.LBE105:
.LBE104:
.LM573:
	bne	a0,zero,.L111
.LVL242:
.L115:
.LM574:
.LM575:
.LM576:
.LM577:
	addi	a3,s2,8
	addi	a2,s2,8
	addi	a1,s3,16
	mv	a0,s0
	call	mbedtls_mpi_mul_mod
.LVL243:
.LM578:
	bne	a0,zero,.L111
.LM579:
.LM580:
.LM581:
.LM582:
	addi	a1,s3,16
	mv	a0,s0
.LVL244:
.LM583:
	call	mbedtls_mpi_shift_l_mod.constprop.0
.LVL245:
.LM584:
	bne	a0,zero,.L111
.LM585:
.LM586:
.LM587:
.LM588:
	addi	a3,s3,16
	mv	a2,s2
	addi	a1,s3,8
	mv	a0,s0
.LVL246:
.LM589:
	call	mbedtls_mpi_mul_mod
.LVL247:
.LM590:
	bne	a0,zero,.L111
.LM591:
.LM592:
.LM593:
.LM594:
	addi	a1,s3,8
	mv	a0,s0
.LVL248:
.LM595:
	call	mbedtls_mpi_shift_l_mod.constprop.0
.LVL249:
.LM596:
	bne	a0,zero,.L111
.LM597:
.LM598:
.LM599:
.LM600:
	addi	a3,s3,16
	addi	a2,s3,16
	addi	a1,s3,24
	mv	a0,s0
.LVL250:
.LM601:
	call	mbedtls_mpi_mul_mod
.LVL251:
.LM602:
	bne	a0,zero,.L111
.LM603:
.LM604:
.LM605:
.LM606:
	addi	a1,s3,24
	mv	a0,s0
.LVL252:
.LM607:
	call	mbedtls_mpi_shift_l_mod.constprop.0
.LVL253:
.LM608:
	bne	a0,zero,.L111
.LM609:
.LM610:
.LM611:
.LM612:
	mv	a3,s3
	mv	a2,s3
	addi	a1,s3,16
	mv	a0,s0
.LVL254:
.LM613:
	call	mbedtls_mpi_mul_mod
.LVL255:
.LM614:
	bne	a0,zero,.L111
.LM615:
.LM616:
.LM617:
.LM618:
	addi	a3,s3,8
	addi	a2,s3,16
	addi	a1,s3,16
	mv	a0,s0
.LVL256:
.LM619:
	call	mbedtls_mpi_sub_mod
.LVL257:
.LM620:
	bne	a0,zero,.L111
.LM621:
.LM622:
.LM623:
.LM624:
	addi	a3,s3,8
	addi	a2,s3,16
	addi	a1,s3,16
	mv	a0,s0
.LVL258:
.LM625:
	call	mbedtls_mpi_sub_mod
.LVL259:
.LM626:
	bne	a0,zero,.L111
.LM627:
.LM628:
.LM629:
.LM630:
	addi	a3,s3,16
	addi	a2,s3,8
	addi	a1,s3,8
	mv	a0,s0
.LVL260:
.LM631:
	call	mbedtls_mpi_sub_mod
.LVL261:
.LM632:
	bne	a0,zero,.L111
.LM633:
.LM634:
.LM635:
.LM636:
	mv	a3,s3
	addi	a2,s3,8
	addi	a1,s3,8
	mv	a0,s0
.LVL262:
.LM637:
	call	mbedtls_mpi_mul_mod
.LVL263:
.LM638:
	bne	a0,zero,.L111
.LM639:
.LM640:
.LM641:
.LM642:
	addi	a3,s3,24
	addi	a2,s3,8
	addi	a1,s3,8
	mv	a0,s0
.LVL264:
.LM643:
	call	mbedtls_mpi_sub_mod
.LVL265:
.LM644:
	bne	a0,zero,.L111
.LM645:
.LM646:
.LM647:
.LM648:
	addi	a3,s2,16
	addi	a2,s2,8
	addi	a1,s3,24
	mv	a0,s0
.LVL266:
.LM649:
	call	mbedtls_mpi_mul_mod
.LVL267:
.LM650:
	bne	a0,zero,.L111
.LM651:
.LM652:
.LM653:
.LM654:
	addi	a1,s3,24
	mv	a0,s0
.LVL268:
.LM655:
	call	mbedtls_mpi_shift_l_mod.constprop.0
.LVL269:
.LM656:
	bne	a0,zero,.L111
.LM657:
.LM658:
.LM659:
.LM660:
	addi	a1,s3,16
	mv	a0,s1
.LVL270:
.LM661:
	call	mbedtls_mpi_copy
.LVL271:
.LM662:
	bne	a0,zero,.L111
.LM663:
.LM664:
.LM665:
.LM666:
	addi	a1,s3,8
	addi	a0,s1,8
.LVL272:
.LM667:
	call	mbedtls_mpi_copy
.LVL273:
.LM668:
	bne	a0,zero,.L111
.LM669:
.LM670:
.LM671:
.LM672:
	lw	s0,56(sp)
	.cfi_remember_state
	.cfi_restore 8
.LVL274:
.LM673:
	lw	ra,60(sp)
	.cfi_restore 1
	lw	s2,48(sp)
	.cfi_restore 18
.LVL275:
.LM674:
	lw	s4,40(sp)
	.cfi_restore 20
	lw	s5,36(sp)
	.cfi_restore 21
	lw	s6,32(sp)
	.cfi_restore 22
	lw	s7,28(sp)
	.cfi_restore 23
.LM675:
	addi	a1,s3,24
	addi	a0,s1,16
.LVL276:
.LM676:
	lw	s3,44(sp)
	.cfi_restore 19
.LVL277:
.LM677:
	lw	s1,52(sp)
	.cfi_restore 9
.LVL278:
.LM678:
	addi	sp,sp,64
	.cfi_def_cfa_offset 0
.LM679:
	tail	mbedtls_mpi_copy
.LVL279:
.L112:
	.cfi_restore_state
.LM680:
.LM681:
.LM682:
	mv	a3,a2
.LVL280:
.LM683:
	addi	a1,s3,8
	call	mbedtls_mpi_mul_mod
.LVL281:
.LM684:
	bne	a0,zero,.L111
.LM685:
.LM686:
.LM687:
.LVL282:
.LBB106:
.LBI106:
.LM688:
.LBB107:
.LM689:
.LM690:
.LM691:
.LM692:
	li	a2,3
	addi	a1,s3,8
.LVL283:
.LM693:
	mv	a0,s3
.LVL284:
.LM694:
	call	mbedtls_mpi_mul_int
.LVL285:
.LM695:
	bne	a0,zero,.L111
	mv	a1,s3
	mv	a0,s0
.LVL286:
.LM696:
	call	mbedtls_mpi_mul_int_mod.part.0
.LVL287:
.LDL3:
.LM697:
.LM698:
.LBE107:
.LBE106:
.LM699:
	bne	a0,zero,.L111
.LM700:
.LM701:
.LM702:
	li	a1,0
	addi	a0,s0,12
.LVL288:
.LM703:
	call	mbedtls_mpi_cmp_int
.LVL289:
.LM704:
	beq	a0,zero,.L115
.LM705:
.LM706:
.LM707:
	addi	a3,s2,16
	mv	a2,a3
	addi	a1,s3,8
	mv	a0,s0
	call	mbedtls_mpi_mul_mod
.LVL290:
.LM708:
	bne	a0,zero,.L111
.LM709:
.LM710:
.LM711:
.LM712:
	addi	a1,s3,16
	addi	a3,s3,8
	addi	a2,s3,8
	mv	a0,s0
.LVL291:
.LM713:
	sw	a1,12(sp)
	call	mbedtls_mpi_mul_mod
.LVL292:
.LM714:
	bne	a0,zero,.L111
.LM715:
.LM716:
.LM717:
.LM718:
	lw	a2,12(sp)
	addi	a3,s0,12
	addi	a1,s3,8
	mv	a0,s0
.LVL293:
.LM719:
	call	mbedtls_mpi_mul_mod
.LVL294:
.LM720:
	bne	a0,zero,.L111
.LM721:
.LM722:
.LM723:
.LM724:
	addi	a3,s3,8
	mv	a2,s3
	mv	a1,s3
	mv	a0,s0
.LVL295:
.LM725:
	call	mbedtls_mpi_add_mod
.LVL296:
.LM726:
	j	.L121
.L113:
.LVL297:
.L111:
.LM727:
	lw	ra,60(sp)
	.cfi_restore 1
	lw	s0,56(sp)
	.cfi_restore 8
.LVL298:
.LM728:
	lw	s1,52(sp)
	.cfi_restore 9
.LVL299:
.LM729:
	lw	s2,48(sp)
	.cfi_restore 18
.LVL300:
.LM730:
	lw	s3,44(sp)
	.cfi_restore 19
.LVL301:
.LM731:
	lw	s4,40(sp)
	.cfi_restore 20
	lw	s5,36(sp)
	.cfi_restore 21
	lw	s6,32(sp)
	.cfi_restore 22
	lw	s7,28(sp)
	.cfi_restore 23
	addi	sp,sp,64
	.cfi_def_cfa_offset 0
	jr	ra
	.cfi_endproc
.LFE65:
	.size	ecp_double_jac, .-ecp_double_jac
	.section	.text.mbedtls_ecp_set_max_ops,"ax",@progbits
	.align	1
	.globl	mbedtls_ecp_set_max_ops
	.type	mbedtls_ecp_set_max_ops, @function
mbedtls_ecp_set_max_ops:
.LVL302:
.LFB16:
.LM732:
	.cfi_startproc
.LM733:
.LM734:
	lui	a5,%hi(ecp_max_ops)
	sw	a0,%lo(ecp_max_ops)(a5)
.LM735:
	ret
	.cfi_endproc
.LFE16:
	.size	mbedtls_ecp_set_max_ops, .-mbedtls_ecp_set_max_ops
	.section	.text.mbedtls_ecp_restart_is_enabled,"ax",@progbits
	.align	1
	.globl	mbedtls_ecp_restart_is_enabled
	.type	mbedtls_ecp_restart_is_enabled, @function
mbedtls_ecp_restart_is_enabled:
.LFB17:
.LM736:
	.cfi_startproc
.LM737:
.LM738:
	lui	a5,%hi(ecp_max_ops)
	lw	a0,%lo(ecp_max_ops)(a5)
.LM739:
	snez	a0,a0
	ret
	.cfi_endproc
.LFE17:
	.size	mbedtls_ecp_restart_is_enabled, .-mbedtls_ecp_restart_is_enabled
	.section	.text.mbedtls_ecp_restart_init,"ax",@progbits
	.align	1
	.globl	mbedtls_ecp_restart_init
	.type	mbedtls_ecp_restart_init, @function
mbedtls_ecp_restart_init:
.LVL303:
.LFB22:
.LM740:
	.cfi_startproc
.LM741:
.LM742:
	sw	zero,0(a0)
.LM743:
.LM744:
	sw	zero,4(a0)
.LM745:
.LM746:
	sw	zero,8(a0)
.LM747:
.LM748:
	sw	zero,12(a0)
.LM749:
	ret
	.cfi_endproc
.LFE22:
	.size	mbedtls_ecp_restart_init, .-mbedtls_ecp_restart_init
	.section	.text.mbedtls_ecp_check_budget,"ax",@progbits
	.align	1
	.globl	mbedtls_ecp_check_budget
	.type	mbedtls_ecp_check_budget, @function
mbedtls_ecp_check_budget:
.LVL304:
.LFB24:
.LM750:
	.cfi_startproc
.LM751:
.LM752:
	beq	a1,zero,.L126
.LM753:
	lui	a5,%hi(ecp_max_ops)
	lw	a4,%lo(ecp_max_ops)(a5)
.LM754:
	beq	a4,zero,.L126
.LM755:
.LM756:
	lw	a5,60(a0)
.LM757:
	li	a3,511
	bleu	a5,a3,.L127
.LM758:
.LM759:
	slli	a2,a2,2
.LVL305:
.L128:
.LM760:
.LM761:
	lw	a5,0(a1)
.LM762:
	beq	a5,zero,.L129
.LM763:
	li	a0,-20480
.LVL306:
.LM764:
	addi	a0,a0,1280
.LM765:
	bltu	a4,a5,.L125
.LM766:
	li	a0,-20480
.LM767:
	sub	a4,a4,a5
.LM768:
	addi	a0,a0,1280
.LM769:
	bltu	a4,a2,.L125
.L129:
.LM770:
.LM771:
	add	a5,a5,a2
	sw	a5,0(a1)
.L126:
.LM772:
	li	a0,0
.L125:
.LM773:
	ret
.LVL307:
.L127:
.LM774:
.LM775:
	li	a3,383
	bleu	a5,a3,.L128
.LM776:
.LM777:
	slli	a2,a2,1
.LVL308:
.LM778:
	j	.L128
	.cfi_endproc
.LFE24:
	.size	mbedtls_ecp_check_budget, .-mbedtls_ecp_check_budget
	.section	.text.mbedtls_ecp_curve_list,"ax",@progbits
	.align	1
	.globl	mbedtls_ecp_curve_list
	.type	mbedtls_ecp_curve_list, @function
mbedtls_ecp_curve_list:
.LFB27:
.LM779:
	.cfi_startproc
.LM780:
.LM781:
	lui	a0,%hi(ecp_supported_curves)
	addi	a0,a0,%lo(ecp_supported_curves)
	ret
	.cfi_endproc
.LFE27:
	.size	mbedtls_ecp_curve_list, .-mbedtls_ecp_curve_list
	.section	.text.mbedtls_ecp_grp_id_list,"ax",@progbits
	.align	1
	.globl	mbedtls_ecp_grp_id_list
	.type	mbedtls_ecp_grp_id_list, @function
mbedtls_ecp_grp_id_list:
.LFB28:
.LM782:
	.cfi_startproc
.LM783:
.LM784:
.LM785:
	lui	a3,%hi(init_done.1)
.LM786:
	lw	a5,%lo(init_done.1)(a3)
	lui	a0,%hi(ecp_supported_grp_id)
	addi	a0,a0,%lo(ecp_supported_grp_id)
	beq	a5,zero,.L147
	ret
.LVL309:
.L146:
.LBB108:
.LM787:
.LM788:
	add	a1,a0,a5
	sb	a2,0(a1)
.LM789:
	addi	a4,a4,12
.LVL310:
.LM790:
	addi	a5,a5,1
.LVL311:
.L144:
.LM791:
.LM792:
	lbu	a2,0(a4)
.LM793:
	bne	a2,zero,.L146
.LM794:
.LM795:
	add	a5,a0,a5
.LVL312:
.LM796:
	sb	zero,0(a5)
.LM797:
.LM798:
	li	a5,1
	sw	a5,%lo(init_done.1)(a3)
.LBE108:
.LM799:
.LM800:
	ret
.LVL313:
.L147:
.LBB109:
.LM801:
	lui	a4,%hi(ecp_supported_curves)
	addi	a4,a4,%lo(ecp_supported_curves)
	j	.L144
.LBE109:
	.cfi_endproc
.LFE28:
	.size	mbedtls_ecp_grp_id_list, .-mbedtls_ecp_grp_id_list
	.section	.text.mbedtls_ecp_curve_info_from_grp_id,"ax",@progbits
	.align	1
	.globl	mbedtls_ecp_curve_info_from_grp_id
	.type	mbedtls_ecp_curve_info_from_grp_id, @function
mbedtls_ecp_curve_info_from_grp_id:
.LVL314:
.LFB29:
.LM802:
	.cfi_startproc
.LM803:
.LM804:
.LBB110:
.LBI110:
.LM805:
.LM806:
.LM807:
.LBE110:
.LM808:
	lui	a5,%hi(ecp_supported_curves)
	addi	a5,a5,%lo(ecp_supported_curves)
.LVL315:
.L149:
.LM809:
.LM810:
	lbu	a4,0(a5)
.LM811:
	bne	a4,zero,.L151
.LM812:
	li	a5,0
.LVL316:
.L148:
.LM813:
	mv	a0,a5
.LVL317:
.LM814:
	ret
.LVL318:
.L151:
.LM815:
.LM816:
	beq	a4,a0,.L148
.LM817:
	addi	a5,a5,12
.LVL319:
.LM818:
	j	.L149
	.cfi_endproc
.LFE29:
	.size	mbedtls_ecp_curve_info_from_grp_id, .-mbedtls_ecp_curve_info_from_grp_id
	.section	.text.mbedtls_ecp_curve_info_from_tls_id,"ax",@progbits
	.align	1
	.globl	mbedtls_ecp_curve_info_from_tls_id
	.type	mbedtls_ecp_curve_info_from_tls_id, @function
mbedtls_ecp_curve_info_from_tls_id:
.LVL320:
.LFB30:
.LM819:
	.cfi_startproc
.LM820:
.LM821:
.LBB111:
.LBI111:
.LM822:
.LM823:
.LM824:
.LBE111:
.LM825:
	lui	a5,%hi(ecp_supported_curves)
	addi	a5,a5,%lo(ecp_supported_curves)
.LVL321:
.L153:
.LM826:
	lbu	a4,0(a5)
	bne	a4,zero,.L155
.LM827:
	li	a5,0
.LVL322:
.L152:
.LM828:
	mv	a0,a5
.LVL323:
.LM829:
	ret
.LVL324:
.L155:
.LM830:
.LM831:
	lhu	a4,2(a5)
	beq	a4,a0,.L152
.LM832:
	addi	a5,a5,12
.LVL325:
.LM833:
	j	.L153
	.cfi_endproc
.LFE30:
	.size	mbedtls_ecp_curve_info_from_tls_id, .-mbedtls_ecp_curve_info_from_tls_id
	.section	.text.mbedtls_ecp_curve_info_from_name,"ax",@progbits
	.align	1
	.globl	mbedtls_ecp_curve_info_from_name
	.type	mbedtls_ecp_curve_info_from_name, @function
mbedtls_ecp_curve_info_from_name:
.LVL326:
.LFB31:
.LM834:
	.cfi_startproc
.LM835:
.LM836:
.LM837:
	addi	sp,sp,-32
	.cfi_def_cfa_offset 32
	sw	ra,28(sp)
	sw	s0,24(sp)
	.cfi_offset 1, -4
	.cfi_offset 8, -8
.LM838:
	bne	a0,zero,.L161
.LVL327:
.L160:
.LM839:
	li	s0,0
.L156:
.LM840:
	lw	ra,28(sp)
	.cfi_remember_state
	.cfi_restore 1
	mv	a0,s0
	lw	s0,24(sp)
	.cfi_restore 8
	addi	sp,sp,32
	.cfi_def_cfa_offset 0
	jr	ra
.LVL328:
.L159:
	.cfi_restore_state
.LM841:
.LM842:
	lw	a0,8(s0)
	sw	a1,12(sp)
	call	strcmp
.LVL329:
.LM843:
	beq	a0,zero,.L156
.LM844:
	lw	a1,12(sp)
	addi	s0,s0,12
.LVL330:
.L157:
.LM845:
	lbu	a5,0(s0)
	bne	a5,zero,.L159
	j	.L160
.LVL331:
.L161:
.LM846:
	lui	s0,%hi(ecp_supported_curves)
	mv	a1,a0
	addi	s0,s0,%lo(ecp_supported_curves)
	j	.L157
	.cfi_endproc
.LFE31:
	.size	mbedtls_ecp_curve_info_from_name, .-mbedtls_ecp_curve_info_from_name
	.section	.text.mbedtls_ecp_get_type,"ax",@progbits
	.align	1
	.globl	mbedtls_ecp_get_type
	.type	mbedtls_ecp_get_type, @function
mbedtls_ecp_get_type:
.LVL332:
.LFB32:
.LM847:
	.cfi_startproc
.LM848:
.LM849:
	lw	a5,28(a0)
	beq	a5,zero,.L168
.LM850:
.LM851:
	lw	a0,36(a0)
.LVL333:
.LM852:
	seqz	a0,a0
	addi	a0,a0,1
	ret
.LVL334:
.L168:
.LM853:
	li	a0,0
.LVL335:
.LM854:
	ret
	.cfi_endproc
.LFE32:
	.size	mbedtls_ecp_get_type, .-mbedtls_ecp_get_type
	.section	.text.mbedtls_ecp_point_init,"ax",@progbits
	.align	1
	.globl	mbedtls_ecp_point_init
	.type	mbedtls_ecp_point_init, @function
mbedtls_ecp_point_init:
.LVL336:
.LFB33:
.LM855:
	.cfi_startproc
.LM856:
.LM857:
	addi	sp,sp,-16
	.cfi_def_cfa_offset 16
	sw	ra,12(sp)
	sw	s0,8(sp)
	.cfi_offset 1, -4
	.cfi_offset 8, -8
.LM858:
	mv	s0,a0
.LM859:
	call	mbedtls_mpi_init
.LVL337:
.LM860:
	addi	a0,s0,8
	call	mbedtls_mpi_init
.LVL338:
.LM861:
	addi	a0,s0,16
.LM862:
	lw	s0,8(sp)
	.cfi_restore 8
.LVL339:
.LM863:
	lw	ra,12(sp)
	.cfi_restore 1
	addi	sp,sp,16
	.cfi_def_cfa_offset 0
.LM864:
	tail	mbedtls_mpi_init
.LVL340:
.LM865:
	.cfi_endproc
.LFE33:
	.size	mbedtls_ecp_point_init, .-mbedtls_ecp_point_init
	.section	.text.mbedtls_ecp_group_init,"ax",@progbits
	.align	1
	.globl	mbedtls_ecp_group_init
	.type	mbedtls_ecp_group_init, @function
mbedtls_ecp_group_init:
.LVL341:
.LFB34:
.LM866:
	.cfi_startproc
.LM867:
.LM868:
	addi	sp,sp,-16
	.cfi_def_cfa_offset 16
	sw	ra,12(sp)
	sw	s0,8(sp)
	.cfi_offset 1, -4
	.cfi_offset 8, -8
.LM869:
	sb	zero,0(a0)
.LM870:
.LM871:
	mv	s0,a0
.LM872:
	addi	a0,a0,4
.LVL342:
.LM873:
	call	mbedtls_mpi_init
.LVL343:
.LM874:
	addi	a0,s0,12
	call	mbedtls_mpi_init
.LVL344:
.LM875:
	addi	a0,s0,20
	call	mbedtls_mpi_init
.LVL345:
.LM876:
	addi	a0,s0,28
	call	mbedtls_ecp_point_init
.LVL346:
.LM877:
	addi	a0,s0,52
	call	mbedtls_mpi_init
.LVL347:
.LM878:
.LM879:
	sw	zero,60(s0)
.LM880:
.LM881:
	sw	zero,64(s0)
.LM882:
.LM883:
	sw	zero,68(s0)
.LM884:
.LM885:
	sw	zero,72(s0)
.LM886:
.LM887:
	sw	zero,76(s0)
.LM888:
.LM889:
	sw	zero,80(s0)
.LM890:
.LM891:
	sw	zero,84(s0)
.LM892:
.LM893:
	sw	zero,88(s0)
.LM894:
.LM895:
	sw	zero,92(s0)
.LM896:
	lw	ra,12(sp)
	.cfi_restore 1
	lw	s0,8(sp)
	.cfi_restore 8
.LVL348:
.LM897:
	addi	sp,sp,16
	.cfi_def_cfa_offset 0
	jr	ra
	.cfi_endproc
.LFE34:
	.size	mbedtls_ecp_group_init, .-mbedtls_ecp_group_init
	.section	.text.mbedtls_ecp_keypair_init,"ax",@progbits
	.align	1
	.globl	mbedtls_ecp_keypair_init
	.type	mbedtls_ecp_keypair_init, @function
mbedtls_ecp_keypair_init:
.LVL349:
.LFB35:
.LM898:
	.cfi_startproc
.LM899:
.LM900:
	addi	sp,sp,-16
	.cfi_def_cfa_offset 16
	sw	ra,12(sp)
	sw	s0,8(sp)
	.cfi_offset 1, -4
	.cfi_offset 8, -8
.LM901:
	mv	s0,a0
.LM902:
	call	mbedtls_ecp_group_init
.LVL350:
.LM903:
	addi	a0,s0,96
	call	mbedtls_mpi_init
.LVL351:
.LM904:
	addi	a0,s0,104
.LM905:
	lw	s0,8(sp)
	.cfi_restore 8
.LVL352:
.LM906:
	lw	ra,12(sp)
	.cfi_restore 1
	addi	sp,sp,16
	.cfi_def_cfa_offset 0
.LM907:
	tail	mbedtls_ecp_point_init
.LVL353:
.LM908:
	.cfi_endproc
.LFE35:
	.size	mbedtls_ecp_keypair_init, .-mbedtls_ecp_keypair_init
	.section	.text.mbedtls_ecp_point_free,"ax",@progbits
	.align	1
	.globl	mbedtls_ecp_point_free
	.type	mbedtls_ecp_point_free, @function
mbedtls_ecp_point_free:
.LVL354:
.LFB36:
.LM909:
	.cfi_startproc
.LM910:
.LM911:
	beq	a0,zero,.L176
	tail	mbedtls_ecp_point_free.part.0
.LVL355:
.L176:
.LM912:
	ret
	.cfi_endproc
.LFE36:
	.size	mbedtls_ecp_point_free, .-mbedtls_ecp_point_free
	.section	.text.ecp_restart_rsm_free.part.0,"ax",@progbits
	.align	1
	.type	ecp_restart_rsm_free.part.0, @function
ecp_restart_rsm_free.part.0:
.LVL356:
.LFB116:
.LM913:
	.cfi_startproc
.LM914:
.LM915:
	addi	sp,sp,-16
	.cfi_def_cfa_offset 16
	sw	s0,8(sp)
	sw	ra,12(sp)
	.cfi_offset 8, -8
	.cfi_offset 1, -4
	mv	s0,a0
	sw	s1,4(sp)
	sw	s2,0(sp)
	.cfi_offset 9, -12
	.cfi_offset 18, -16
.LM916:
	call	mbedtls_ecp_point_free
.LVL357:
.LM917:
.LM918:
	lw	a5,28(s0)
	bne	a5,zero,.L184
.L180:
.LM919:
.LVL358:
.LBB114:
.LBI114:
.LM920:
.LBB115:
.LM921:
	mv	a0,s0
	call	mbedtls_ecp_point_init
.LVL359:
.LM922:
.LM923:
.LM924:
.LM925:
.LM926:
	sw	zero,24(s0)
.LM927:
	sw	zero,28(s0)
.LM928:
	sh	zero,32(s0)
.LVL360:
.LM929:
.LBE115:
.LBE114:
.LM930:
	lw	ra,12(sp)
	.cfi_remember_state
	.cfi_restore 1
	lw	s0,8(sp)
	.cfi_restore 8
.LVL361:
.LM931:
	lw	s1,4(sp)
	.cfi_restore 9
	lw	s2,0(sp)
	.cfi_restore 18
	addi	sp,sp,16
	.cfi_def_cfa_offset 0
	jr	ra
.LVL362:
.L181:
	.cfi_restore_state
.LM932:
.LM933:
	mul	a5,s1,s2
.LM934:
	addi	s1,s1,1
.LVL363:
.LM935:
	andi	s1,s1,0xff
.LM936:
	add	a0,a0,a5
	call	mbedtls_ecp_point_free
.LVL364:
.LM937:
.L179:
.LM938:
	lbu	a5,32(s0)
.LM939:
	lw	a0,28(s0)
.LM940:
	bgtu	a5,s1,.L181
.LM941:
	call	free
.LVL365:
	j	.L180
.LVL366:
.L184:
.LM942:
	li	s1,0
	li	s2,24
	j	.L179
	.cfi_endproc
.LFE116:
	.size	ecp_restart_rsm_free.part.0, .-ecp_restart_rsm_free.part.0
	.section	.text.ecp_restart_ma_free.part.0,"ax",@progbits
	.align	1
	.type	ecp_restart_ma_free.part.0, @function
ecp_restart_ma_free.part.0:
.LVL367:
.LFB117:
.LM943:
	.cfi_startproc
.LM944:
.LM945:
	addi	sp,sp,-16
	.cfi_def_cfa_offset 16
	sw	ra,12(sp)
	sw	s0,8(sp)
	sw	s1,4(sp)
	.cfi_offset 1, -4
	.cfi_offset 8, -8
	.cfi_offset 9, -12
.LM946:
	mv	s0,a0
.LM947:
	call	mbedtls_ecp_point_free
.LVL368:
.LM948:
	addi	a0,s0,24
	call	mbedtls_ecp_point_free
.LVL369:
.LM949:
.LBB118:
.LBI118:
.LM950:
.LBB119:
.LM951:
	mv	a0,s0
	call	mbedtls_ecp_point_init
.LVL370:
.LM952:
	addi	a0,s0,24
	call	mbedtls_ecp_point_init
.LVL371:
.LM953:
.LM954:
	sb	zero,48(s0)
.LVL372:
.LM955:
.LBE119:
.LBE118:
.LM956:
	lw	ra,12(sp)
	.cfi_restore 1
	lw	s0,8(sp)
	.cfi_restore 8
.LVL373:
.LM957:
	lw	s1,4(sp)
	.cfi_restore 9
	addi	sp,sp,16
	.cfi_def_cfa_offset 0
	jr	ra
	.cfi_endproc
.LFE117:
	.size	ecp_restart_ma_free.part.0, .-ecp_restart_ma_free.part.0
	.section	.text.mbedtls_ecp_restart_free,"ax",@progbits
	.align	1
	.globl	mbedtls_ecp_restart_free
	.type	mbedtls_ecp_restart_free, @function
mbedtls_ecp_restart_free:
.LVL374:
.LFB23:
.LM958:
	.cfi_startproc
.LM959:
.LM960:
	beq	a0,zero,.L202
.LM961:
	addi	sp,sp,-16
	.cfi_def_cfa_offset 16
	sw	s0,8(sp)
	sw	ra,12(sp)
	.cfi_offset 8, -8
	.cfi_offset 1, -4
	mv	s0,a0
.LM962:
	lw	a0,8(a0)
.LVL375:
.LBB126:
.LBI126:
.LM963:
.LBB127:
.LM964:
.LM965:
.LM966:
	beq	a0,zero,.L190
	call	ecp_restart_rsm_free.part.0
.LVL376:
.L190:
.LM967:
.LBE127:
.LBE126:
.LM968:
	lw	a0,8(s0)
	call	free
.LVL377:
.LM969:
	lw	a0,12(s0)
.LVL378:
.LBB128:
.LBI128:
.LM970:
.LBB129:
.LM971:
.LM972:
	beq	a0,zero,.L191
	call	ecp_restart_ma_free.part.0
.LVL379:
.L191:
.LM973:
.LBE129:
.LBE128:
.LM974:
	lw	a0,12(s0)
	call	free
.LVL380:
.LM975:
.LBB130:
.LBI130:
.LM976:
.LBB131:
.LM977:
.LM978:
	sw	zero,0(s0)
.LM979:
.LM980:
	sw	zero,4(s0)
.LM981:
.LM982:
	sw	zero,8(s0)
.LM983:
.LM984:
	sw	zero,12(s0)
.LVL381:
.LM985:
.LBE131:
.LBE130:
.LM986:
	lw	ra,12(sp)
	.cfi_restore 1
	lw	s0,8(sp)
	.cfi_restore 8
.LVL382:
.LM987:
	addi	sp,sp,16
	.cfi_def_cfa_offset 0
	jr	ra
.LVL383:
.L202:
.LM988:
	ret
	.cfi_endproc
.LFE23:
	.size	mbedtls_ecp_restart_free, .-mbedtls_ecp_restart_free
	.section	.text.mbedtls_ecp_group_free,"ax",@progbits
	.align	1
	.globl	mbedtls_ecp_group_free
	.type	mbedtls_ecp_group_free, @function
mbedtls_ecp_group_free:
.LVL384:
.LFB38:
.LM989:
	.cfi_startproc
.LM990:
.LM991:
.LM992:
	beq	a0,zero,.L205
.LM993:
	addi	sp,sp,-16
	.cfi_def_cfa_offset 16
	sw	s0,8(sp)
	sw	ra,12(sp)
	sw	s1,4(sp)
	sw	s2,0(sp)
	.cfi_offset 8, -8
	.cfi_offset 1, -4
	.cfi_offset 9, -12
	.cfi_offset 18, -16
.LM994:
	lw	a4,68(a0)
	li	a5,1
	mv	s0,a0
.LM995:
.LM996:
	beq	a4,a5,.L207
.LM997:
	addi	a0,a0,12
.LVL385:
.LM998:
	call	mbedtls_mpi_free
.LVL386:
.LM999:
	addi	a0,s0,20
	call	mbedtls_mpi_free
.LVL387:
.LM1000:
	addi	a0,s0,28
	call	mbedtls_ecp_point_free
.LVL388:
.LM1001:
	addi	a0,s0,52
	call	mbedtls_mpi_free
.LVL389:
.LM1002:
	addi	a0,s0,4
	call	mbedtls_mpi_free
.LVL390:
.L207:
.LM1003:
.LBB134:
.LBI134:
.LM1004:
.LBB135:
.LM1005:
.LM1006:
	lw	a5,88(s0)
	beq	a5,zero,.L208
.LM1007:
	lw	a5,92(s0)
	beq	a5,zero,.L208
.LBE135:
.LBE134:
.LM1008:
	li	s1,0
.LM1009:
	li	s2,24
.LVL391:
.L209:
.LM1010:
	lw	a5,92(s0)
.LM1011:
	lw	a0,88(s0)
.LM1012:
	bgtu	a5,s1,.L210
.LM1013:
	call	free
.LVL392:
.L208:
.LM1014:
	mv	a0,s0
.LM1015:
	lw	s0,8(sp)
	.cfi_remember_state
	.cfi_restore 8
.LVL393:
.LM1016:
	lw	ra,12(sp)
	.cfi_restore 1
	lw	s1,4(sp)
	.cfi_restore 9
	lw	s2,0(sp)
	.cfi_restore 18
.LM1017:
	li	a1,96
.LM1018:
	addi	sp,sp,16
	.cfi_def_cfa_offset 0
.LM1019:
	tail	mbedtls_platform_zeroize
.LVL394:
.L210:
	.cfi_restore_state
.LM1020:
	mul	a5,s1,s2
.LM1021:
	addi	s1,s1,1
.LVL395:
.LM1022:
	add	a0,a0,a5
	call	mbedtls_ecp_point_free
.LVL396:
.LM1023:
	j	.L209
.LVL397:
.L205:
	.cfi_def_cfa_offset 0
	.cfi_restore 1
	.cfi_restore 8
	.cfi_restore 9
	.cfi_restore 18
.LM1024:
	ret
	.cfi_endproc
.LFE38:
	.size	mbedtls_ecp_group_free, .-mbedtls_ecp_group_free
	.section	.text.mbedtls_ecp_keypair_free,"ax",@progbits
	.align	1
	.globl	mbedtls_ecp_keypair_free
	.type	mbedtls_ecp_keypair_free, @function
mbedtls_ecp_keypair_free:
.LVL398:
.LFB39:
.LM1025:
	.cfi_startproc
.LM1026:
.LM1027:
	beq	a0,zero,.L220
.LM1028:
	addi	sp,sp,-16
	.cfi_def_cfa_offset 16
	sw	ra,12(sp)
	sw	s0,8(sp)
	.cfi_offset 1, -4
	.cfi_offset 8, -8
	mv	s0,a0
.LM1029:
	call	mbedtls_ecp_group_free
.LVL399:
.LM1030:
	addi	a0,s0,96
	call	mbedtls_mpi_free
.LVL400:
.LM1031:
	addi	a0,s0,104
.LM1032:
	lw	s0,8(sp)
	.cfi_restore 8
.LVL401:
.LM1033:
	lw	ra,12(sp)
	.cfi_restore 1
	addi	sp,sp,16
	.cfi_def_cfa_offset 0
.LM1034:
	tail	mbedtls_ecp_point_free
.LVL402:
.L220:
.LM1035:
	ret
	.cfi_endproc
.LFE39:
	.size	mbedtls_ecp_keypair_free, .-mbedtls_ecp_keypair_free
	.section	.text.mbedtls_ecp_copy,"ax",@progbits
	.align	1
	.globl	mbedtls_ecp_copy
	.type	mbedtls_ecp_copy, @function
mbedtls_ecp_copy:
.LVL403:
.LFB40:
.LM1036:
	.cfi_startproc
.LM1037:
.LM1038:
.LM1039:
.LM1040:
	addi	sp,sp,-16
	.cfi_def_cfa_offset 16
	sw	s0,8(sp)
	sw	s1,4(sp)
	sw	ra,12(sp)
	.cfi_offset 8, -8
	.cfi_offset 9, -12
	.cfi_offset 1, -4
.LM1041:
	mv	s0,a0
	mv	s1,a1
.LM1042:
	call	mbedtls_mpi_copy
.LVL404:
.LM1043:
	bne	a0,zero,.L225
.LVL405:
.LBB138:
.LBI138:
.LM1044:
.LBB139:
.LM1045:
.LM1046:
.LM1047:
.LM1048:
	addi	a1,s1,8
	addi	a0,s0,8
.LVL406:
.LM1049:
	call	mbedtls_mpi_copy
.LVL407:
.LM1050:
	bne	a0,zero,.L225
.LM1051:
.LM1052:
.LM1053:
.LM1054:
	addi	a0,s0,16
.LVL408:
.LM1055:
.LBE139:
.LBE138:
.LM1056:
	lw	s0,8(sp)
	.cfi_remember_state
	.cfi_restore 8
.LVL409:
.LM1057:
	lw	ra,12(sp)
	.cfi_restore 1
.LBB142:
.LBB140:
.LM1058:
	addi	a1,s1,16
.LBE140:
.LBE142:
.LM1059:
	lw	s1,4(sp)
	.cfi_restore 9
.LVL410:
.LM1060:
	addi	sp,sp,16
	.cfi_def_cfa_offset 0
.LBB143:
.LBB141:
.LM1061:
	tail	mbedtls_mpi_copy
.LVL411:
.L226:
.L225:
	.cfi_restore_state
.LM1062:
.LBE141:
.LBE143:
.LM1063:
	lw	ra,12(sp)
	.cfi_restore 1
	lw	s0,8(sp)
	.cfi_restore 8
.LVL412:
.LM1064:
	lw	s1,4(sp)
	.cfi_restore 9
.LVL413:
.LM1065:
	addi	sp,sp,16
	.cfi_def_cfa_offset 0
	jr	ra
	.cfi_endproc
.LFE40:
	.size	mbedtls_ecp_copy, .-mbedtls_ecp_copy
	.section	.text.mbedtls_ecp_group_copy,"ax",@progbits
	.align	1
	.globl	mbedtls_ecp_group_copy
	.type	mbedtls_ecp_group_copy, @function
mbedtls_ecp_group_copy:
.LVL414:
.LFB41:
.LM1066:
	.cfi_startproc
.LM1067:
.LM1068:
	lbu	a1,0(a1)
.LVL415:
.LM1069:
	tail	mbedtls_ecp_group_load
.LVL416:
.LM1070:
	.cfi_endproc
.LFE41:
	.size	mbedtls_ecp_group_copy, .-mbedtls_ecp_group_copy
	.section	.text.mbedtls_ecp_set_zero,"ax",@progbits
	.align	1
	.globl	mbedtls_ecp_set_zero
	.type	mbedtls_ecp_set_zero, @function
mbedtls_ecp_set_zero:
.LVL417:
.LFB42:
.LM1071:
	.cfi_startproc
.LM1072:
.LM1073:
.LM1074:
.LM1075:
	addi	sp,sp,-16
	.cfi_def_cfa_offset 16
.LM1076:
	li	a1,1
.LM1077:
	sw	s0,8(sp)
	sw	ra,12(sp)
	.cfi_offset 8, -8
	.cfi_offset 1, -4
.LM1078:
	mv	s0,a0
.LM1079:
	call	mbedtls_mpi_lset
.LVL418:
.LM1080:
	bne	a0,zero,.L229
.LM1081:
.LM1082:
.LM1083:
.LM1084:
	li	a1,1
	addi	a0,s0,8
.LVL419:
.LM1085:
	call	mbedtls_mpi_lset
.LVL420:
.LM1086:
	bne	a0,zero,.L229
.LVL421:
.LBB146:
.LBI146:
.LM1087:
.LBB147:
.LM1088:
.LM1089:
.LM1090:
.LM1091:
	addi	a0,s0,16
.LVL422:
.LM1092:
.LBE147:
.LBE146:
.LM1093:
	lw	s0,8(sp)
	.cfi_remember_state
	.cfi_restore 8
.LVL423:
.LM1094:
	lw	ra,12(sp)
	.cfi_restore 1
.LBB150:
.LBB148:
.LM1095:
	li	a1,0
.LBE148:
.LBE150:
.LM1096:
	addi	sp,sp,16
	.cfi_def_cfa_offset 0
.LBB151:
.LBB149:
.LM1097:
	tail	mbedtls_mpi_lset
.LVL424:
.L230:
.L229:
	.cfi_restore_state
.LM1098:
.LBE149:
.LBE151:
.LM1099:
	lw	ra,12(sp)
	.cfi_restore 1
	lw	s0,8(sp)
	.cfi_restore 8
.LVL425:
.LM1100:
	addi	sp,sp,16
	.cfi_def_cfa_offset 0
	jr	ra
	.cfi_endproc
.LFE42:
	.size	mbedtls_ecp_set_zero, .-mbedtls_ecp_set_zero
	.section	.text.ecp_add_mixed,"ax",@progbits
	.align	1
	.type	ecp_add_mixed, @function
ecp_add_mixed:
.LVL426:
.LFB66:
.LM1101:
	.cfi_startproc
.LM1102:
.LM1103:
	lui	a6,%hi(add_count)
	lw	a5,%lo(add_count)(a6)
	addi	a5,a5,1
	sw	a5,%lo(add_count)(a6)
.LM1104:
.LVL427:
.LM1105:
.LM1106:
.LM1107:
.LM1108:
.LM1109:
	lw	a5,16(a3)
	bne	a5,zero,.L233
.LM1110:
	li	a0,-20480
.LVL428:
.LM1111:
	addi	a0,a0,128
.LM1112:
	ret
.LVL429:
.L237:
	.cfi_def_cfa_offset 48
	.cfi_offset 1, -4
	.cfi_offset 8, -8
	.cfi_offset 9, -12
	.cfi_offset 18, -16
	.cfi_offset 19, -20
	.cfi_offset 20, -24
	.cfi_offset 21, -28
	.cfi_offset 22, -32
	.cfi_offset 23, -36
.LM1113:
	li	a0,-20480
	addi	a0,a0,128
.LVL430:
.L232:
.LM1114:
	lw	ra,44(sp)
	.cfi_restore 1
	lw	s0,40(sp)
	.cfi_restore 8
.LVL431:
.LM1115:
	lw	s1,36(sp)
	.cfi_restore 9
.LVL432:
.LM1116:
	lw	s2,32(sp)
	.cfi_restore 18
.LVL433:
.LM1117:
	lw	s3,28(sp)
	.cfi_restore 19
.LVL434:
.LM1118:
	lw	s4,24(sp)
	.cfi_restore 20
.LVL435:
.LM1119:
	lw	s5,20(sp)
	.cfi_restore 21
	lw	s6,16(sp)
	.cfi_restore 22
	lw	s7,12(sp)
	.cfi_restore 23
	addi	sp,sp,48
	.cfi_def_cfa_offset 0
	jr	ra
.LVL436:
.L233:
.LM1120:
	addi	sp,sp,-48
	.cfi_def_cfa_offset 48
	sw	s0,40(sp)
	sw	s4,24(sp)
	.cfi_offset 8, -8
	.cfi_offset 20, -24
	mv	s0,a1
	mv	s4,a0
.LM1121:
.LM1122:
	li	a1,0
.LVL437:
.LM1123:
	addi	a0,a2,16
.LVL438:
.LM1124:
	sw	s1,36(sp)
	sw	s2,32(sp)
	sw	s3,28(sp)
	sw	ra,44(sp)
	.cfi_offset 9, -12
	.cfi_offset 18, -16
	.cfi_offset 19, -20
	.cfi_offset 1, -4
	mv	s3,a3
	sw	s5,20(sp)
	sw	s6,16(sp)
	sw	s7,12(sp)
	.cfi_offset 21, -28
	.cfi_offset 22, -32
	.cfi_offset 23, -36
	mv	s1,a4
	mv	s2,a2
.LM1125:
	call	mbedtls_mpi_cmp_int
.LVL439:
.LM1126:
	mv	a1,s3
.LM1127:
	beq	a0,zero,.L243
.LVL440:
.LM1128:
.LM1129:
	li	a1,0
.LVL441:
.LM1130:
	addi	a0,s3,16
	call	mbedtls_mpi_cmp_int
.LVL442:
.LM1131:
	bne	a0,zero,.L236
.LM1132:
.LM1133:
	mv	a1,s2
.L243:
	mv	a0,s0
.LM1134:
	lw	s0,40(sp)
	.cfi_remember_state
	.cfi_restore 8
.LVL443:
.LM1135:
	lw	ra,44(sp)
	.cfi_restore 1
	lw	s1,36(sp)
	.cfi_restore 9
.LVL444:
.LM1136:
	lw	s2,32(sp)
	.cfi_restore 18
.LVL445:
.LM1137:
	lw	s3,28(sp)
	.cfi_restore 19
.LVL446:
.LM1138:
	lw	s4,24(sp)
	.cfi_restore 20
.LVL447:
.LM1139:
	lw	s5,20(sp)
	.cfi_restore 21
	lw	s6,16(sp)
	.cfi_restore 22
	lw	s7,12(sp)
	.cfi_restore 23
	addi	sp,sp,48
	.cfi_def_cfa_offset 0
.LM1140:
	tail	mbedtls_ecp_copy
.LVL448:
.L236:
	.cfi_restore_state
.LM1141:
.LM1142:
	li	a1,1
	addi	a0,s3,16
	call	mbedtls_mpi_cmp_int
.LVL449:
.LM1143:
	bne	a0,zero,.L237
.LM1144:
.LM1145:
.LM1146:
	addi	a3,s2,16
	addi	a2,s2,16
	mv	a1,s1
	mv	a0,s4
	call	mbedtls_mpi_mul_mod
.LVL450:
.LM1147:
	bne	a0,zero,.L232
.LM1148:
.LM1149:
.LM1150:
.LM1151:
	addi	a3,s2,16
	mv	a2,s1
	addi	a1,s1,8
	mv	a0,s4
.LVL451:
.LM1152:
	call	mbedtls_mpi_mul_mod
.LVL452:
.LM1153:
	bne	a0,zero,.L232
.LM1154:
.LM1155:
.LM1156:
.LM1157:
	mv	a3,s3
	mv	a2,s1
	mv	a1,s1
	mv	a0,s4
.LVL453:
.LM1158:
	call	mbedtls_mpi_mul_mod
.LVL454:
.LM1159:
	bne	a0,zero,.L232
.LM1160:
.LM1161:
.LM1162:
.LM1163:
	addi	a3,s3,8
	addi	a2,s1,8
	addi	a1,s1,8
	mv	a0,s4
.LVL455:
.LM1164:
	call	mbedtls_mpi_mul_mod
.LVL456:
.LM1165:
	bne	a0,zero,.L232
.LM1166:
.LM1167:
.LM1168:
.LM1169:
	mv	a3,s2
	mv	a2,s1
	mv	a1,s1
	mv	a0,s4
.LVL457:
.LM1170:
	call	mbedtls_mpi_sub_mod
.LVL458:
.LM1171:
	bne	a0,zero,.L232
.LM1172:
.LM1173:
.LM1174:
.LM1175:
	addi	a3,s2,8
	addi	a2,s1,8
	addi	a1,s1,8
	mv	a0,s4
.LVL459:
.LM1176:
	call	mbedtls_mpi_sub_mod
.LVL460:
.LM1177:
	bne	a0,zero,.L232
.LM1178:
.LM1179:
.LM1180:
	li	a1,0
	mv	a0,s1
.LVL461:
.LM1181:
	call	mbedtls_mpi_cmp_int
.LVL462:
.LM1182:
	bne	a0,zero,.L238
.LM1183:
.LM1184:
	li	a1,0
	addi	a0,s1,8
	call	mbedtls_mpi_cmp_int
.LVL463:
.LM1185:
	bne	a0,zero,.L239
.LM1186:
.LM1187:
	mv	a1,s0
.LM1188:
	lw	s0,40(sp)
	.cfi_remember_state
	.cfi_restore 8
.LVL464:
.LM1189:
	lw	ra,44(sp)
	.cfi_restore 1
	lw	s3,28(sp)
	.cfi_restore 19
.LVL465:
.LM1190:
	lw	s5,20(sp)
	.cfi_restore 21
	lw	s6,16(sp)
	.cfi_restore 22
	lw	s7,12(sp)
	.cfi_restore 23
.LM1191:
	mv	a3,s1
	mv	a2,s2
.LM1192:
	lw	s1,36(sp)
	.cfi_restore 9
.LVL466:
.LM1193:
	lw	s2,32(sp)
	.cfi_restore 18
.LVL467:
.LM1194:
	mv	a0,s4
.LM1195:
	lw	s4,24(sp)
	.cfi_restore 20
.LVL468:
.LM1196:
	addi	sp,sp,48
	.cfi_def_cfa_offset 0
.LM1197:
	tail	ecp_double_jac
.LVL469:
.L239:
	.cfi_restore_state
.LM1198:
.LM1199:
	mv	a0,s0
.LM1200:
	lw	s0,40(sp)
	.cfi_remember_state
	.cfi_restore 8
.LVL470:
.LM1201:
	lw	ra,44(sp)
	.cfi_restore 1
	lw	s1,36(sp)
	.cfi_restore 9
.LVL471:
.LM1202:
	lw	s2,32(sp)
	.cfi_restore 18
.LVL472:
.LM1203:
	lw	s3,28(sp)
	.cfi_restore 19
.LVL473:
.LM1204:
	lw	s4,24(sp)
	.cfi_restore 20
.LVL474:
.LM1205:
	lw	s5,20(sp)
	.cfi_restore 21
	lw	s6,16(sp)
	.cfi_restore 22
	lw	s7,12(sp)
	.cfi_restore 23
	addi	sp,sp,48
	.cfi_def_cfa_offset 0
.LM1206:
	tail	mbedtls_ecp_set_zero
.LVL475:
.L238:
	.cfi_restore_state
.LM1207:
.LM1208:
.LM1209:
	mv	a3,s1
	addi	a2,s2,16
	addi	a1,s0,16
	mv	a0,s4
	call	mbedtls_mpi_mul_mod
.LVL476:
.LM1210:
	bne	a0,zero,.L232
.LM1211:
.LM1212:
.LM1213:
.LM1214:
	mv	a3,s1
	mv	a2,s1
	addi	a1,s1,16
	mv	a0,s4
.LVL477:
.LM1215:
	call	mbedtls_mpi_mul_mod
.LVL478:
.LM1216:
	bne	a0,zero,.L232
.LM1217:
.LM1218:
.LM1219:
.LM1220:
	mv	a3,s1
	addi	a2,s1,16
	addi	a1,s1,24
	mv	a0,s4
.LVL479:
.LM1221:
	call	mbedtls_mpi_mul_mod
.LVL480:
.LM1222:
	bne	a0,zero,.L232
.LM1223:
.LM1224:
.LM1225:
.LM1226:
	mv	a3,s2
	addi	a2,s1,16
	addi	a1,s1,16
	mv	a0,s4
.LVL481:
.LM1227:
	call	mbedtls_mpi_mul_mod
.LVL482:
.LM1228:
	bne	a0,zero,.L232
.LM1229:
.LM1230:
.LM1231:
.LM1232:
	addi	a1,s1,16
	mv	a0,s1
.LVL483:
.LM1233:
	call	mbedtls_mpi_copy
.LVL484:
.LM1234:
	bne	a0,zero,.L232
.LM1235:
.LM1236:
.LM1237:
.LM1238:
	mv	a1,s1
	mv	a0,s4
.LVL485:
.LM1239:
	call	mbedtls_mpi_shift_l_mod.constprop.0
.LVL486:
.LM1240:
	bne	a0,zero,.L232
.LM1241:
.LM1242:
.LM1243:
.LM1244:
	addi	a3,s1,8
	addi	a2,s1,8
	mv	a1,s0
	mv	a0,s4
.LVL487:
.LM1245:
	call	mbedtls_mpi_mul_mod
.LVL488:
.LM1246:
	bne	a0,zero,.L232
.LM1247:
.LM1248:
.LM1249:
.LM1250:
	mv	a3,s1
	mv	a2,s0
	mv	a1,s0
	mv	a0,s4
.LVL489:
.LM1251:
	call	mbedtls_mpi_sub_mod
.LVL490:
.LM1252:
	bne	a0,zero,.L232
.LM1253:
.LM1254:
.LM1255:
.LM1256:
	addi	a3,s1,24
	mv	a2,s0
	mv	a1,s0
	mv	a0,s4
.LVL491:
.LM1257:
	call	mbedtls_mpi_sub_mod
.LVL492:
.LM1258:
	bne	a0,zero,.L232
.LM1259:
.LM1260:
.LM1261:
.LM1262:
	mv	a3,s0
	addi	a2,s1,16
	addi	a1,s1,16
	mv	a0,s4
.LVL493:
.LM1263:
	call	mbedtls_mpi_sub_mod
.LVL494:
.LM1264:
	bne	a0,zero,.L232
.LM1265:
.LM1266:
.LM1267:
.LM1268:
	addi	a3,s1,8
	addi	a2,s1,16
	addi	a1,s1,16
	mv	a0,s4
.LVL495:
.LM1269:
	call	mbedtls_mpi_mul_mod
.LVL496:
.LM1270:
	bne	a0,zero,.L232
.LM1271:
.LM1272:
.LM1273:
.LM1274:
	addi	a3,s2,8
	addi	a2,s1,24
	addi	a1,s1,24
	mv	a0,s4
.LVL497:
.LM1275:
	call	mbedtls_mpi_mul_mod
.LVL498:
.LM1276:
	bne	a0,zero,.L232
.LM1277:
.LM1278:
.LM1279:
.LM1280:
	addi	a1,s0,8
.LM1281:
	lw	s0,40(sp)
	.cfi_restore 8
.LVL499:
.LM1282:
	lw	ra,44(sp)
	.cfi_restore 1
	lw	s2,32(sp)
	.cfi_restore 18
.LVL500:
.LM1283:
	lw	s3,28(sp)
	.cfi_restore 19
.LVL501:
.LM1284:
	lw	s5,20(sp)
	.cfi_restore 21
	lw	s6,16(sp)
	.cfi_restore 22
	lw	s7,12(sp)
	.cfi_restore 23
.LM1285:
	addi	a3,s1,24
	addi	a2,s1,16
	mv	a0,s4
.LVL502:
.LM1286:
	lw	s1,36(sp)
	.cfi_restore 9
.LVL503:
.LM1287:
	lw	s4,24(sp)
	.cfi_restore 20
.LVL504:
.LM1288:
	addi	sp,sp,48
	.cfi_def_cfa_offset 0
.LM1289:
	tail	mbedtls_mpi_sub_mod
.LVL505:
.LM1290:
	.cfi_endproc
.LFE66:
	.size	ecp_add_mixed, .-ecp_add_mixed
	.section	.text.ecp_mul_comb_after_precomp,"ax",@progbits
	.align	1
	.type	ecp_mul_comb_after_precomp, @function
ecp_mul_comb_after_precomp:
.LVL506:
.LFB73:
.LM1291:
	.cfi_startproc
.LM1292:
.LM1293:
.LM1294:
.LM1295:
.LM1296:
	addi	sp,sp,-432
	.cfi_def_cfa_offset 432
	sw	s2,416(sp)
	.cfi_offset 18, -16
	lw	s2,436(sp)
	sw	s1,420(sp)
	sw	s3,412(sp)
	sw	s4,408(sp)
	sw	s7,396(sp)
	sw	ra,428(sp)
	sw	s0,424(sp)
	sw	s5,404(sp)
	sw	s6,400(sp)
	sw	s8,392(sp)
	sw	s9,388(sp)
	sw	s10,384(sp)
	sw	s11,380(sp)
	.cfi_offset 9, -12
	.cfi_offset 19, -20
	.cfi_offset 20, -24
	.cfi_offset 23, -36
	.cfi_offset 1, -4
	.cfi_offset 8, -8
	.cfi_offset 21, -28
	.cfi_offset 22, -32
	.cfi_offset 24, -40
	.cfi_offset 25, -44
	.cfi_offset 26, -48
	.cfi_offset 27, -52
.LM1297:
	sw	a3,12(sp)
	sw	a4,16(sp)
	sw	a5,24(sp)
	sw	a7,20(sp)
	mv	s1,a0
	mv	s4,a1
.LVL507:
.LM1298:
.LM1299:
	mv	s7,a2
	mv	s3,a6
.LM1300:
	beq	s2,zero,.L273
.LM1301:
	lw	s0,8(s2)
.LM1302:
	beq	s0,zero,.L273
.LM1303:
.LVL508:
.LM1304:
.LM1305:
	lbu	a4,33(s0)
.LVL509:
.LM1306:
	li	a5,6
.LVL510:
.LM1307:
	bne	a4,a5,.L245
.LVL511:
.L246:
.LM1308:
.LM1309:
.LM1310:
	li	a2,120
	mv	a1,s2
	mv	a0,s1
	call	mbedtls_ecp_check_budget
.LVL512:
.LM1311:
	bne	a0,zero,.L268
.LM1312:
.LM1313:
.LM1314:
.LM1315:
.LM1316:
	mv	a1,s0
	mv	a0,s1
.LVL513:
.LM1317:
	call	ecp_normalize_jac
.LVL514:
	mv	s5,a0
.LVL515:
.LM1318:
	bne	a0,zero,.L244
.LM1319:
.LM1320:
.LM1321:
	beq	s2,zero,.L244
.LM1322:
	lw	a5,8(s2)
	beq	a5,zero,.L244
.L248:
.LM1323:
.LM1324:
.LM1325:
	mv	a1,s0
	mv	a0,s4
.LVL516:
.LM1326:
	call	mbedtls_ecp_copy
.LVL517:
.LM1327:
.LM1328:
.LM1329:
	mv	s5,a0
.LM1330:
	j	.L244
.LVL518:
.L273:
.LM1331:
	mv	s0,s4
.LVL519:
.L245:
.LM1332:
.LM1333:
.LBB162:
.LBI162:
.LM1334:
.LBB163:
.LM1335:
.LM1336:
.LM1337:
	addi	a0,sp,48
	call	mbedtls_mpi_init
.LVL520:
.LM1338:
	addi	a0,sp,72
	call	mbedtls_mpi_init
.LVL521:
.LM1339:
.LM1340:
	li	a1,0
	addi	a0,s1,52
	call	mbedtls_mpi_get_bit
.LVL522:
.LM1341:
	li	a5,1
	beq	a0,a5,.L247
.LVL523:
.LM1342:
.LBE163:
.LBE162:
.LM1343:
	li	s5,-20480
	addi	s5,s5,128
.LVL524:
.L244:
.LM1344:
	lw	ra,428(sp)
	.cfi_remember_state
	.cfi_restore 1
	lw	s0,424(sp)
	.cfi_restore 8
.LVL525:
.LM1345:
	lw	s1,420(sp)
	.cfi_restore 9
.LVL526:
.LM1346:
	lw	s2,416(sp)
	.cfi_restore 18
.LVL527:
.LM1347:
	lw	s3,412(sp)
	.cfi_restore 19
	lw	s4,408(sp)
	.cfi_restore 20
.LVL528:
.LM1348:
	lw	s6,400(sp)
	.cfi_restore 22
	lw	s7,396(sp)
	.cfi_restore 23
	lw	s8,392(sp)
	.cfi_restore 24
	lw	s9,388(sp)
	.cfi_restore 25
	lw	s10,384(sp)
	.cfi_restore 26
	lw	s11,380(sp)
	.cfi_restore 27
	mv	a0,s5
	lw	s5,404(sp)
	.cfi_restore 21
	addi	sp,sp,432
	.cfi_def_cfa_offset 0
.LVL529:
.LM1349:
	jr	ra
.LVL530:
.L247:
	.cfi_restore_state
.LBB170:
.LBB168:
.LM1350:
.LM1351:
	li	a1,0
	mv	a0,s7
	call	mbedtls_mpi_get_bit
.LVL531:
.LM1352:
	seqz	s11,a0
.LVL532:
.LM1353:
.LM1354:
.LM1355:
	mv	a1,s7
	addi	a0,sp,48
	call	mbedtls_mpi_copy
.LVL533:
	mv	s5,a0
.LVL534:
.LM1356:
	bne	a0,zero,.L249
.LM1357:
.LM1358:
.LM1359:
.LM1360:
	mv	a2,s7
	addi	a1,s1,52
	addi	a0,sp,72
.LVL535:
.LM1361:
	call	mbedtls_mpi_sub_mpi
.LVL536:
.LM1362:
	mv	s5,a0
.LM1363:
	bne	a0,zero,.L249
.LM1364:
.LM1365:
.LM1366:
.LM1367:
	mv	a2,s11
	addi	a1,sp,72
	addi	a0,sp,48
.LVL537:
.LM1368:
	call	mbedtls_mpi_safe_cond_assign
.LVL538:
.LM1369:
	mv	s5,a0
.LM1370:
	bne	a0,zero,.L249
.LM1371:
.LM1372:
.LVL539:
.LBB164:
.LBI164:
.LM1373:
.LBB165:
.LM1374:
.LM1375:
.LM1376:
	addi	s7,sp,104
.LVL540:
.LM1377:
	addi	a2,s3,1
	li	a1,0
	mv	a0,s7
.LVL541:
.LM1378:
	call	memset
.LVL542:
.LM1379:
.LM1380:
	mv	s6,s7
	mv	s10,s7
.LM1381:
	li	s9,0
.LVL543:
.L250:
.LM1382:
	bne	s3,s9,.L252
	add	s7,s7,s3
.LM1383:
	li	a4,0
.LVL544:
.L253:
.LM1384:
	bne	s6,s7,.L254
.LVL545:
.L249:
.LM1385:
.LBE165:
.LBE164:
.LM1386:
	addi	a0,sp,72
	call	mbedtls_mpi_free
.LVL546:
.LM1387:
	addi	a0,sp,48
	call	mbedtls_mpi_free
.LVL547:
.LM1388:
.LM1389:
.LBE168:
.LBE170:
.LM1390:
	bne	s5,zero,.L244
.LVL548:
.LM1391:
.LM1392:
.LM1393:
.LBB171:
.LBI171:
.LM1394:
.LBB172:
.LM1395:
.LM1396:
.LM1397:
.LM1398:
.LM1399:
	addi	a0,sp,48
	call	mbedtls_ecp_point_init
.LVL549:
.LM1400:
	li	a1,4
	addi	a0,sp,72
	call	mpi_init_many
.LVL550:
.LM1401:
.LM1402:
	bne	s2,zero,.L255
.L259:
.LM1403:
.LVL551:
.LM1404:
.LM1405:
.LM1406:
	addi	a4,sp,32
	addi	a5,s3,336
	add	a5,a5,a4
	lbu	a4,-264(a5)
	lw	a3,16(sp)
	lw	a2,12(sp)
	mv	a1,s0
	mv	a0,s1
	call	ecp_select_comb
.LVL552:
	mv	s6,a0
.LVL553:
.LM1407:
	mv	s5,a0
.LM1408:
	beq	a0,zero,.L302
.LVL554:
.L256:
.LM1409:
.LBB173:
.LBI173:
.LM1410:
.LBB174:
.LM1411:
	addi	a0,sp,48
.LVL555:
.LM1412:
	call	mbedtls_ecp_point_free.part.0
.LVL556:
.LM1413:
.LBE174:
.LBE173:
.LM1414:
	li	a1,4
	addi	a0,sp,72
	call	mpi_free_many
.LVL557:
.LM1415:
.LM1416:
	beq	s2,zero,.L267
.LM1417:
	li	a5,20480
	addi	a5,a5,-1280
	add	a5,s5,a5
.LM1418:
	lw	a4,8(s2)
.LM1419:
	bne	a5,zero,.L267
	beq	a4,zero,.L267
.LM1420:
.LM1421:
	sw	s3,24(a4)
.LM1422:
.LVL558:
.L268:
.LM1423:
.LBE172:
.LBE171:
.LM1424:
	li	s5,-20480
	addi	s5,s5,1280
	j	.L244
.LVL559:
.L252:
.LBB180:
.LBB169:
.LBB167:
.LBB166:
.LM1425:
	mv	a1,s9
.LM1426:
	li	s8,0
.LVL560:
.L251:
.LM1427:
.LM1428:
	addi	a0,sp,48
.LVL561:
.LM1429:
	sw	a1,28(sp)
	call	mbedtls_mpi_get_bit
.LVL562:
.LM1430:
	lbu	a5,0(s10)
.LM1431:
	sll	a0,a0,s8
.LM1432:
	lw	a1,28(sp)
.LM1433:
	or	a5,a5,a0
	sb	a5,0(s10)
.LM1434:
.LM1435:
	lw	a5,24(sp)
.LM1436:
	addi	s8,s8,1
.LVL563:
.LM1437:
	add	a1,a1,s3
	bltu	s8,a5,.L251
.LM1438:
	addi	s9,s9,1
.LVL564:
.LM1439:
	addi	s10,s10,1
	j	.L250
.LVL565:
.L254:
.LM1440:
.LM1441:
	lbu	a0,1(s6)
.LVL566:
.LM1442:
.LM1443:
	lbu	a2,0(s6)
	addi	s6,s6,1
.LVL567:
.LM1444:
	xor	a3,a0,a4
.LM1445:
.LVL568:
.LM1446:
.LM1447:
	not	a5,a3
.LM1448:
	andi	a5,a5,1
.LVL569:
.LM1449:
.LM1450:
	mul	a1,a5,a2
.LM1451:
	slli	a5,a5,7
.LVL570:
.LM1452:
	and	a4,a0,a4
.LVL571:
.LM1453:
	or	a2,a2,a5
	sb	a2,-1(s6)
	and	a0,a3,a1
.LM1454:
	xor	a3,a3,a1
.LVL572:
.LM1455:
	sb	a3,0(s6)
.LM1456:
	or	a4,a4,a0
.LVL573:
.LM1457:
.LM1458:
.LM1459:
.LM1460:
	j	.L253
.LVL574:
.L255:
.LM1461:
.LBE166:
.LBE167:
.LBE169:
.LBE180:
.LBB181:
.LBB179:
.LM1462:
	lw	a5,8(s2)
.LM1463:
	beq	a5,zero,.L258
.LM1464:
	lbu	a3,33(a5)
	li	a4,5
	beq	a3,a4,.L258
.LM1465:
.LM1466:
	sw	zero,24(a5)
.LM1467:
.LM1468:
	lw	a5,8(s2)
.LM1469:
	sb	a4,33(a5)
.LM1470:
.L258:
.LM1471:
	lw	a5,8(s2)
.LM1472:
	beq	a5,zero,.L259
.LM1473:
	lw	a5,24(a5)
.LM1474:
	beq	a5,zero,.L259
.LM1475:
	li	s6,-110
	j	.L260
.LVL575:
.L302:
.LM1476:
.LM1477:
.LM1478:
	lw	a5,20(sp)
	bne	a5,zero,.L261
.LVL576:
.L264:
.LM1479:
	mv	a5,s3
.LVL577:
.L260:
.LM1480:
	mv	s5,s6
	mv	s3,a5
.LVL578:
.LM1481:
	addi	s6,sp,104
.LVL579:
.LM1482:
	j	.L265
.LVL580:
.L261:
.LM1483:
.LM1484:
.LBB175:
.LBI175:
.LM1485:
.LBB176:
.LM1486:
.LM1487:
.LM1488:
	addi	a0,sp,40
.LVL581:
.LM1489:
	call	mbedtls_mpi_init
.LVL582:
.LM1490:
.LM1491:
.LM1492:
	lw	a4,432(sp)
	lw	a3,20(sp)
	addi	a2,s1,4
	li	a1,2
	addi	a0,sp,40
	call	mbedtls_mpi_random
.LVL583:
	mv	s5,a0
.LVL584:
.LM1493:
	bne	a0,zero,.L262
.LM1494:
.LM1495:
.LM1496:
.LM1497:
	addi	a2,s0,16
	addi	a3,sp,40
	mv	a1,a2
	mv	a0,s1
.LVL585:
.LM1498:
	call	mbedtls_mpi_mul_mod
.LVL586:
.LM1499:
	mv	s5,a0
.LM1500:
	bne	a0,zero,.L262
.LM1501:
.LM1502:
.LM1503:
.LM1504:
	addi	a3,sp,40
	addi	a2,s0,8
	addi	a1,s0,8
	mv	a0,s1
.LVL587:
.LM1505:
	call	mbedtls_mpi_mul_mod
.LVL588:
.LM1506:
	mv	s5,a0
.LM1507:
	bne	a0,zero,.L262
.LM1508:
.LM1509:
.LM1510:
.LM1511:
	addi	a3,sp,40
	mv	a2,a3
	mv	a1,a3
	mv	a0,s1
.LVL589:
.LM1512:
	call	mbedtls_mpi_mul_mod
.LVL590:
.LM1513:
	mv	s5,a0
.LM1514:
	bne	a0,zero,.L262
.LM1515:
.LM1516:
.LM1517:
.LM1518:
	addi	a3,sp,40
	mv	a2,s0
	mv	a1,s0
	mv	a0,s1
.LVL591:
.LM1519:
	call	mbedtls_mpi_mul_mod
.LVL592:
.LM1520:
	mv	s5,a0
.LM1521:
	bne	a0,zero,.L262
.LM1522:
.LM1523:
.LM1524:
.LM1525:
	addi	a2,s0,8
	addi	a3,sp,40
	mv	a1,a2
	mv	a0,s1
.LVL593:
.LM1526:
	call	mbedtls_mpi_mul_mod
.LVL594:
.LM1527:
	mv	s5,a0
.L262:
.LM1528:
.LM1529:
	addi	a0,sp,40
.LVL595:
.LM1530:
	call	mbedtls_mpi_free
.LVL596:
.LM1531:
.LM1532:
	li	a5,-14
	bne	s5,a5,.L263
.LM1533:
.LVL597:
.LM1534:
.LM1535:
.LBE176:
.LBE175:
.LM1536:
	li	s5,-20480
	addi	s5,s5,768
	j	.L256
.LVL598:
.L263:
.LBB178:
.LBB177:
.LM1537:
.LM1538:
.LBE177:
.LBE178:
.LM1539:
	beq	s5,zero,.L264
	j	.L256
.LVL599:
.L266:
.LM1540:
.LM1541:
.LM1542:
	li	a2,19
	mv	a1,s2
	mv	a0,s1
	call	mbedtls_ecp_check_budget
.LVL600:
.LM1543:
	bne	a0,zero,.L276
.LM1544:
.LM1545:
.LM1546:
.LM1547:
	addi	a3,sp,72
	mv	a2,s0
	mv	a1,s0
	mv	a0,s1
.LVL601:
.LM1548:
	call	ecp_double_jac
.LVL602:
.LM1549:
	addi	s3,s3,-1
.LVL603:
.LM1550:
.LM1551:
.LM1552:
	mv	s5,a0
.LVL604:
.LM1553:
	bne	a0,zero,.L256
.LM1554:
.LM1555:
.LM1556:
.LM1557:
	add	a5,s6,s3
	lbu	a4,0(a5)
	lw	a3,16(sp)
	lw	a2,12(sp)
	addi	a1,sp,48
	mv	a0,s1
.LVL605:
.LM1558:
	call	ecp_select_comb
.LVL606:
.LM1559:
	mv	s5,a0
.LM1560:
	bne	a0,zero,.L256
.LM1561:
.LM1562:
.LM1563:
.LM1564:
	addi	a4,sp,72
	addi	a3,sp,48
	mv	a2,s0
	mv	a1,s0
	mv	a0,s1
.LVL607:
.LM1565:
	call	ecp_add_mixed
.LVL608:
.LM1566:
	mv	s5,a0
.LM1567:
	bne	a0,zero,.L256
.LVL609:
.L265:
.LM1568:
.LM1569:
	bne	s3,zero,.L266
	j	.L256
.LVL610:
.L276:
.LM1570:
	li	s5,-20480
	addi	s5,s5,1280
	j	.L256
.LVL611:
.L267:
.LM1571:
.LM1572:
.LBE179:
.LBE181:
.LM1573:
	bne	s5,zero,.L244
.LM1574:
.LM1575:
.LM1576:
.LM1577:
	mv	a2,s11
	mv	a1,s0
	mv	a0,s1
	call	ecp_safe_invert_jac
.LVL612:
.LM1578:
	mv	s5,a0
.LM1579:
	bne	a0,zero,.L244
.LM1580:
.LM1581:
.LM1582:
	beq	s2,zero,.L246
.LM1583:
	lw	a5,8(s2)
.LM1584:
	beq	a5,zero,.L246
.LM1585:
.LM1586:
	li	a4,6
	sb	a4,33(a5)
	j	.L246
	.cfi_endproc
.LFE73:
	.size	ecp_mul_comb_after_precomp, .-ecp_mul_comb_after_precomp
	.section	.text.mbedtls_ecp_is_zero,"ax",@progbits
	.align	1
	.globl	mbedtls_ecp_is_zero
	.type	mbedtls_ecp_is_zero, @function
mbedtls_ecp_is_zero:
.LVL613:
.LFB43:
.LM1587:
	.cfi_startproc
.LM1588:
.LM1589:
	addi	sp,sp,-16
	.cfi_def_cfa_offset 16
.LM1590:
	li	a1,0
	addi	a0,a0,16
.LVL614:
.LM1591:
	sw	ra,12(sp)
	.cfi_offset 1, -4
.LM1592:
	call	mbedtls_mpi_cmp_int
.LVL615:
.LM1593:
	lw	ra,12(sp)
	.cfi_restore 1
	seqz	a0,a0
	addi	sp,sp,16
	.cfi_def_cfa_offset 0
	jr	ra
	.cfi_endproc
.LFE43:
	.size	mbedtls_ecp_is_zero, .-mbedtls_ecp_is_zero
	.section	.text.mbedtls_ecp_point_cmp,"ax",@progbits
	.align	1
	.globl	mbedtls_ecp_point_cmp
	.type	mbedtls_ecp_point_cmp, @function
mbedtls_ecp_point_cmp:
.LVL616:
.LFB44:
.LM1594:
	.cfi_startproc
.LM1595:
.LM1596:
	addi	sp,sp,-16
	.cfi_def_cfa_offset 16
	sw	s0,8(sp)
	sw	s1,4(sp)
	sw	ra,12(sp)
	.cfi_offset 8, -8
	.cfi_offset 9, -12
	.cfi_offset 1, -4
.LM1597:
	mv	s0,a0
	mv	s1,a1
.LM1598:
	call	mbedtls_mpi_cmp_mpi
.LVL617:
.LM1599:
	bne	a0,zero,.L307
.LM1600:
	addi	a1,s1,8
	addi	a0,s0,8
	call	mbedtls_mpi_cmp_mpi
.LVL618:
.LM1601:
	beq	a0,zero,.L308
.L307:
.LM1602:
	li	a0,-20480
	addi	a0,a0,128
.L306:
.LM1603:
	lw	ra,12(sp)
	.cfi_remember_state
	.cfi_restore 1
	lw	s0,8(sp)
	.cfi_restore 8
.LVL619:
.LM1604:
	lw	s1,4(sp)
	.cfi_restore 9
.LVL620:
.LM1605:
	addi	sp,sp,16
	.cfi_def_cfa_offset 0
	jr	ra
.LVL621:
.L308:
	.cfi_restore_state
.LM1606:
	addi	a1,s1,16
	addi	a0,s0,16
	call	mbedtls_mpi_cmp_mpi
.LVL622:
.LM1607:
	beq	a0,zero,.L306
	j	.L307
	.cfi_endproc
.LFE44:
	.size	mbedtls_ecp_point_cmp, .-mbedtls_ecp_point_cmp
	.section	.text.mbedtls_ecp_point_read_string,"ax",@progbits
	.align	1
	.globl	mbedtls_ecp_point_read_string
	.type	mbedtls_ecp_point_read_string, @function
mbedtls_ecp_point_read_string:
.LVL623:
.LFB45:
.LM1608:
	.cfi_startproc
.LM1609:
.LM1610:
.LM1611:
.LM1612:
	addi	sp,sp,-32
	.cfi_def_cfa_offset 32
	sw	s0,24(sp)
	sw	ra,28(sp)
	.cfi_offset 8, -8
	.cfi_offset 1, -4
.LM1613:
	mv	s0,a0
	sw	a1,12(sp)
	sw	a3,8(sp)
.LM1614:
	call	mbedtls_mpi_read_string
.LVL624:
.LM1615:
	bne	a0,zero,.L311
.LM1616:
.LM1617:
.LM1618:
.LM1619:
	lw	a2,8(sp)
	lw	a1,12(sp)
	addi	a0,s0,8
.LVL625:
.LM1620:
	call	mbedtls_mpi_read_string
.LVL626:
.LM1621:
	bne	a0,zero,.L311
.LM1622:
.LM1623:
.LM1624:
.LM1625:
	addi	a0,s0,16
.LVL627:
.LM1626:
	lw	s0,24(sp)
	.cfi_remember_state
	.cfi_restore 8
.LVL628:
.LM1627:
	lw	ra,28(sp)
	.cfi_restore 1
.LM1628:
	li	a1,1
.LM1629:
	addi	sp,sp,32
	.cfi_def_cfa_offset 0
.LVL629:
.LM1630:
	tail	mbedtls_mpi_lset
.LVL630:
.L312:
.L311:
	.cfi_restore_state
.LM1631:
	lw	ra,28(sp)
	.cfi_restore 1
	lw	s0,24(sp)
	.cfi_restore 8
.LVL631:
.LM1632:
	addi	sp,sp,32
	.cfi_def_cfa_offset 0
.LVL632:
.LM1633:
	jr	ra
	.cfi_endproc
.LFE45:
	.size	mbedtls_ecp_point_read_string, .-mbedtls_ecp_point_read_string
	.section	.text.mbedtls_ecp_point_write_binary,"ax",@progbits
	.align	1
	.globl	mbedtls_ecp_point_write_binary
	.type	mbedtls_ecp_point_write_binary, @function
mbedtls_ecp_point_write_binary:
.LVL633:
.LFB46:
.LM1634:
	.cfi_startproc
.LM1635:
.LM1636:
.LM1637:
.LM1638:
	addi	sp,sp,-48
	.cfi_def_cfa_offset 48
	sw	ra,44(sp)
	sw	s0,40(sp)
	sw	s1,36(sp)
	sw	s2,32(sp)
	sw	s3,28(sp)
	sw	s4,24(sp)
	sw	s5,20(sp)
	sw	s6,16(sp)
	sw	s7,12(sp)
	.cfi_offset 1, -4
	.cfi_offset 8, -8
	.cfi_offset 9, -12
	.cfi_offset 18, -16
	.cfi_offset 19, -20
	.cfi_offset 20, -24
	.cfi_offset 21, -28
	.cfi_offset 22, -32
	.cfi_offset 23, -36
.LM1639:
	li	a6,1
	bgtu	a2,a6,.L322
	mv	s6,a0
.LM1640:
.LM1641:
	addi	a0,a0,4
.LVL634:
.LM1642:
	mv	s4,a5
	mv	s1,a4
	mv	s5,a3
	mv	s7,a2
	mv	s3,a1
	call	mbedtls_mpi_size
.LVL635:
.LM1643:
	mv	s2,a0
.LVL636:
.LM1644:
.LM1645:
.LM1646:
	mv	a0,s6
.LVL637:
.LM1647:
	call	mbedtls_ecp_get_type
.LVL638:
.LM1648:
	li	s0,-20480
.LM1649:
	li	a5,2
.LM1650:
	addi	s0,s0,384
.LM1651:
	bne	a0,a5,.L316
.LM1652:
.LM1653:
	sw	s2,0(s5)
.LM1654:
.LM1655:
	bgtu	s2,s4,.L317
.LM1656:
.LM1657:
.LM1658:
	mv	a2,s2
	mv	a1,s1
	mv	a0,s3
	call	mbedtls_mpi_write_binary_le
.LVL639:
	mv	s0,a0
.LVL640:
.LM1659:
	bne	a0,zero,.L314
.LVL641:
.L316:
.LM1660:
.LM1661:
.LM1662:
	mv	a0,s6
	call	mbedtls_ecp_get_type
.LVL642:
.LM1663:
	li	a5,1
.LM1664:
	mv	s6,a0
.LVL643:
.LM1665:
	bne	a0,a5,.L314
.LM1666:
.LM1667:
	li	a1,0
	addi	a0,s3,16
	call	mbedtls_mpi_cmp_int
.LVL644:
	mv	s0,a0
.LVL645:
.LM1668:
	bne	a0,zero,.L318
.LM1669:
.LM1670:
	bne	s4,zero,.L319
.LVL646:
.L317:
.LM1671:
	li	s0,-20480
	addi	s0,s0,256
.LVL647:
.L314:
.LM1672:
	lw	ra,44(sp)
	.cfi_remember_state
	.cfi_restore 1
	mv	a0,s0
	lw	s0,40(sp)
	.cfi_restore 8
	lw	s1,36(sp)
	.cfi_restore 9
	lw	s2,32(sp)
	.cfi_restore 18
	lw	s3,28(sp)
	.cfi_restore 19
	lw	s4,24(sp)
	.cfi_restore 20
	lw	s5,20(sp)
	.cfi_restore 21
	lw	s6,16(sp)
	.cfi_restore 22
	lw	s7,12(sp)
	.cfi_restore 23
	addi	sp,sp,48
	.cfi_def_cfa_offset 0
	jr	ra
.LVL648:
.L319:
	.cfi_restore_state
.LM1673:
.LM1674:
	sb	zero,0(s1)
.LM1675:
.LM1676:
	sw	s6,0(s5)
.LM1677:
.LM1678:
	j	.L314
.L318:
.LM1679:
.LM1680:
	bne	s7,zero,.L320
.LM1681:
.LM1682:
	slli	a5,s2,1
.LM1683:
	addi	a5,a5,1
.LM1684:
	sw	a5,0(s5)
.LM1685:
.LM1686:
	bgtu	a5,s4,.L317
.LM1687:
.LM1688:
	li	a5,4
	sb	a5,0(s1)
.LM1689:
.LM1690:
.LM1691:
	mv	a2,s2
	addi	a1,s1,1
	mv	a0,s3
	call	mbedtls_mpi_write_binary
.LVL649:
	mv	s0,a0
.LVL650:
.LM1692:
	bne	a0,zero,.L314
.LM1693:
.LM1694:
.LM1695:
.LM1696:
	addi	a1,s2,1
.LM1697:
	mv	a2,s2
	add	a1,s1,a1
	addi	a0,s3,8
.LVL651:
.L325:
.LM1698:
	lw	s0,40(sp)
	.cfi_remember_state
	.cfi_restore 8
	lw	ra,44(sp)
	.cfi_restore 1
	lw	s1,36(sp)
	.cfi_restore 9
.LVL652:
.LM1699:
	lw	s2,32(sp)
	.cfi_restore 18
	lw	s3,28(sp)
	.cfi_restore 19
.LVL653:
.LM1700:
	lw	s4,24(sp)
	.cfi_restore 20
.LVL654:
.LM1701:
	lw	s5,20(sp)
	.cfi_restore 21
.LVL655:
.LM1702:
	lw	s6,16(sp)
	.cfi_restore 22
	lw	s7,12(sp)
	.cfi_restore 23
.LVL656:
.LM1703:
	addi	sp,sp,48
	.cfi_def_cfa_offset 0
.LM1704:
	tail	mbedtls_mpi_write_binary
.LVL657:
.L320:
	.cfi_restore_state
.LM1705:
.LM1706:
.LM1707:
	addi	a5,s2,1
.LM1708:
	sw	a5,0(s5)
.LM1709:
.LM1710:
	bgtu	a5,s4,.L317
.LM1711:
.LM1712:
	li	a1,0
	addi	a0,s3,8
	call	mbedtls_mpi_get_bit
.LVL658:
.LM1713:
	addi	a0,a0,2
.LM1714:
	sb	a0,0(s1)
.LM1715:
.LM1716:
.LM1717:
	mv	a2,s2
	addi	a1,s1,1
	mv	a0,s3
	j	.L325
.LVL659:
.L322:
.LM1718:
	li	s0,-20480
	addi	s0,s0,128
.LVL660:
.LM1719:
	j	.L314
	.cfi_endproc
.LFE46:
	.size	mbedtls_ecp_point_write_binary, .-mbedtls_ecp_point_write_binary
	.section	.text.mbedtls_ecp_point_read_binary,"ax",@progbits
	.align	1
	.globl	mbedtls_ecp_point_read_binary
	.type	mbedtls_ecp_point_read_binary, @function
mbedtls_ecp_point_read_binary:
.LVL661:
.LFB47:
.LM1720:
	.cfi_startproc
.LM1721:
.LM1722:
.LM1723:
.LM1724:
	addi	sp,sp,-64
	.cfi_def_cfa_offset 64
	sw	ra,60(sp)
	sw	s0,56(sp)
	sw	s1,52(sp)
	sw	s2,48(sp)
	sw	s3,44(sp)
	sw	s4,40(sp)
	sw	s5,36(sp)
	sw	s6,32(sp)
	sw	s7,28(sp)
	sw	s8,24(sp)
	sw	s9,20(sp)
	.cfi_offset 1, -4
	.cfi_offset 8, -8
	.cfi_offset 9, -12
	.cfi_offset 18, -16
	.cfi_offset 19, -20
	.cfi_offset 20, -24
	.cfi_offset 21, -28
	.cfi_offset 22, -32
	.cfi_offset 23, -36
	.cfi_offset 24, -40
	.cfi_offset 25, -44
.LM1725:
	bne	a3,zero,.L327
.LVL662:
.L330:
.LM1726:
	li	s0,-20480
	addi	s0,s0,128
.L326:
.LM1727:
	lw	ra,60(sp)
	.cfi_remember_state
	.cfi_restore 1
	mv	a0,s0
	lw	s0,56(sp)
	.cfi_restore 8
	lw	s1,52(sp)
	.cfi_restore 9
	lw	s2,48(sp)
	.cfi_restore 18
	lw	s3,44(sp)
	.cfi_restore 19
	lw	s4,40(sp)
	.cfi_restore 20
	lw	s5,36(sp)
	.cfi_restore 21
	lw	s6,32(sp)
	.cfi_restore 22
	lw	s7,28(sp)
	.cfi_restore 23
	lw	s8,24(sp)
	.cfi_restore 24
	lw	s9,20(sp)
	.cfi_restore 25
	addi	sp,sp,64
	.cfi_def_cfa_offset 0
	jr	ra
.LVL663:
.L327:
	.cfi_restore_state
.LM1728:
	mv	s3,a0
.LM1729:
.LM1730:
	addi	a0,a0,4
.LVL664:
.LM1731:
	mv	s2,a3
	mv	s4,a2
	mv	s1,a1
	call	mbedtls_mpi_size
.LVL665:
.LM1732:
	mv	s5,a0
.LVL666:
.LM1733:
.LM1734:
	mv	a0,s3
.LVL667:
.LM1735:
	call	mbedtls_ecp_get_type
.LVL668:
.LM1736:
	li	s0,-20480
.LM1737:
	li	a5,2
.LM1738:
	addi	s0,s0,384
.LM1739:
	bne	a0,a5,.L329
.LM1740:
.LM1741:
	bne	s2,s5,.L330
.LM1742:
.LM1743:
.LM1744:
	mv	a2,s2
	mv	a1,s4
	mv	a0,s1
	call	mbedtls_mpi_read_binary_le
.LVL669:
	mv	s0,a0
.LVL670:
.LM1745:
	bne	a0,zero,.L326
.LM1746:
.LM1747:
	addi	a0,s1,8
	call	mbedtls_mpi_free
.LVL671:
.LM1748:
.LM1749:
	lbu	a4,0(s3)
	li	a5,9
	beq	a4,a5,.L331
.L332:
.LM1750:
.LM1751:
.LM1752:
.LM1753:
	li	a1,1
	addi	a0,s1,16
	call	mbedtls_mpi_lset
.LVL672:
	mv	s0,a0
.LVL673:
.LM1754:
	bne	a0,zero,.L326
.LVL674:
.L329:
.LM1755:
.LM1756:
.LM1757:
	mv	a0,s3
	call	mbedtls_ecp_get_type
.LVL675:
.LM1758:
	li	a5,1
.LM1759:
	mv	s7,a0
.LM1760:
	bne	a0,a5,.L326
.LM1761:
.LM1762:
	lbu	a5,0(s4)
	bne	a5,zero,.L333
.LM1763:
.LM1764:
	bne	s2,a0,.L330
.LM1765:
.LM1766:
	lw	s0,56(sp)
	.cfi_remember_state
	.cfi_restore 8
.LVL676:
.LM1767:
	lw	ra,60(sp)
	.cfi_restore 1
	lw	s2,48(sp)
	.cfi_restore 18
.LVL677:
.LM1768:
	lw	s3,44(sp)
	.cfi_restore 19
.LVL678:
.LM1769:
	lw	s4,40(sp)
	.cfi_restore 20
.LVL679:
.LM1770:
	lw	s5,36(sp)
	.cfi_restore 21
.LVL680:
.LM1771:
	lw	s6,32(sp)
	.cfi_restore 22
	lw	s7,28(sp)
	.cfi_restore 23
	lw	s8,24(sp)
	.cfi_restore 24
	lw	s9,20(sp)
	.cfi_restore 25
.LM1772:
	mv	a0,s1
.LM1773:
	lw	s1,52(sp)
	.cfi_restore 9
.LVL681:
.LM1774:
	addi	sp,sp,64
	.cfi_def_cfa_offset 0
.LM1775:
	tail	mbedtls_ecp_set_zero
.LVL682:
.L331:
	.cfi_restore_state
.LM1776:
.LM1777:
.LM1778:
	slli	a1,s2,3
.LM1779:
	li	a2,0
	addi	a1,a1,-1
	mv	a0,s1
	call	mbedtls_mpi_set_bit
.LVL683:
	mv	s0,a0
.LVL684:
.LM1780:
	beq	a0,zero,.L332
	j	.L326
.L333:
.LM1781:
.LM1782:
	addi	s8,s5,1
.LM1783:
	bgtu	s8,s2,.L330
.LM1784:
.LM1785:
.LM1786:
	mv	a2,s5
	addi	a1,s4,1
	mv	a0,s1
	call	mbedtls_mpi_read_binary
.LVL685:
	mv	s0,a0
.LVL686:
.LM1787:
	bne	a0,zero,.L326
.LM1788:
.LM1789:
.LM1790:
.LM1791:
	mv	a1,s7
	addi	a0,s1,16
	call	mbedtls_mpi_lset
.LVL687:
	mv	s0,a0
.LVL688:
.LM1792:
	bne	a0,zero,.L326
.LM1793:
.LM1794:
.LM1795:
	lbu	s6,0(s4)
.LM1796:
	li	a5,4
	bne	s6,a5,.L334
.LM1797:
.LM1798:
	slli	a5,s5,1
.LM1799:
	addi	a5,a5,1
.LM1800:
	bne	a5,s2,.L330
.LM1801:
.LM1802:
	lw	s0,56(sp)
	.cfi_remember_state
	.cfi_restore 8
.LVL689:
.LM1803:
	lw	ra,60(sp)
	.cfi_restore 1
	lw	s2,48(sp)
	.cfi_restore 18
.LVL690:
.LM1804:
	lw	s3,44(sp)
	.cfi_restore 19
.LVL691:
.LM1805:
	lw	s6,32(sp)
	.cfi_restore 22
	lw	s7,28(sp)
	.cfi_restore 23
	lw	s9,20(sp)
	.cfi_restore 25
.LM1806:
	add	a1,s4,s8
	mv	a2,s5
.LM1807:
	lw	s4,40(sp)
	.cfi_restore 20
.LVL692:
.LM1808:
	lw	s5,36(sp)
	.cfi_restore 21
.LVL693:
.LM1809:
	lw	s8,24(sp)
	.cfi_restore 24
.LM1810:
	addi	a0,s1,8
.LVL694:
.LM1811:
	lw	s1,52(sp)
	.cfi_restore 9
.LVL695:
.LM1812:
	addi	sp,sp,64
	.cfi_def_cfa_offset 0
.LM1813:
	tail	mbedtls_mpi_read_binary
.LVL696:
.L334:
	.cfi_restore_state
.LM1814:
.LM1815:
.LM1816:
	addi	a5,s6,-2
	sltiu	a5,a5,2
.LM1817:
	beq	a5,zero,.L330
	bne	s8,s2,.L330
.LM1818:
.LVL697:
.LBB184:
.LBI184:
.LM1819:
.LBB185:
.LM1820:
.LM1821:
	li	a1,0
	addi	a0,s3,4
	call	mbedtls_mpi_get_bit
.LVL698:
	mv	s0,a0
.LVL699:
.LM1822:
	beq	a0,s7,.L335
.L337:
.LM1823:
	li	s0,-20480
	addi	s0,s0,384
	j	.L326
.L335:
.LM1824:
	mv	a1,a0
	addi	a0,s3,4
	call	mbedtls_mpi_get_bit
.LVL700:
.LM1825:
	bne	a0,s0,.L337
.LM1826:
.LM1827:
.LM1828:
	addi	a0,sp,8
	call	mbedtls_mpi_init
.LVL701:
.LM1829:
.LM1830:
.LM1831:
	mv	a2,s1
	addi	a1,s1,8
	mv	a0,s3
	call	ecp_sw_rhs
.LVL702:
	mv	s0,a0
.LVL703:
.LM1832:
	bne	a0,zero,.L338
.LM1833:
.LM1834:
.LM1835:
.LM1836:
	li	a2,1
	addi	a1,s3,4
	addi	a0,sp,8
	call	mbedtls_mpi_add_int
.LVL704:
	mv	s0,a0
.LVL705:
.LM1837:
	bne	a0,zero,.L338
.LM1838:
.LM1839:
.LM1840:
.LM1841:
	li	a1,2
	addi	a0,sp,8
	call	mbedtls_mpi_shift_r
.LVL706:
	mv	s0,a0
.LVL707:
.LM1842:
	bne	a0,zero,.L338
.LM1843:
.LM1844:
.LM1845:
.LM1846:
	li	a4,0
	addi	a3,s3,4
	addi	a2,sp,8
	addi	a1,s1,8
	addi	a0,s1,8
	call	mbedtls_mpi_exp_mod
.LVL708:
	mv	s0,a0
.LVL709:
.LM1847:
	bne	a0,zero,.L338
.LM1848:
.LM1849:
.LM1850:
	li	a1,0
	addi	a0,s1,8
	call	mbedtls_mpi_get_bit
.LVL710:
.LBE185:
.LBE184:
.LM1851:
	andi	s6,s6,1
.LVL711:
.LBB187:
.LBB186:
.LM1852:
	beq	s6,a0,.L338
.LM1853:
.LM1854:
.LM1855:
	addi	a2,s1,8
	addi	a1,s3,4
	mv	a0,a2
	call	mbedtls_mpi_sub_mpi
.LVL712:
	mv	s0,a0
.LVL713:
.L338:
.LM1856:
.LM1857:
	addi	a0,sp,8
	call	mbedtls_mpi_free
.LVL714:
.LM1858:
.LM1859:
.LBE186:
.LBE187:
.LM1860:
	j	.L326
	.cfi_endproc
.LFE47:
	.size	mbedtls_ecp_point_read_binary, .-mbedtls_ecp_point_read_binary
	.section	.text.mbedtls_ecp_tls_read_point,"ax",@progbits
	.align	1
	.globl	mbedtls_ecp_tls_read_point
	.type	mbedtls_ecp_tls_read_point, @function
mbedtls_ecp_tls_read_point:
.LVL715:
.LFB48:
.LM1861:
	.cfi_startproc
.LM1862:
.LM1863:
.LM1864:
.LM1865:
	li	a5,1
	bleu	a3,a5,.L343
.LM1866:
.LM1867:
	lw	a5,0(a2)
.LM1868:
	addi	a4,a5,1
	sw	a4,0(a2)
.LM1869:
	lbu	a5,0(a5)
.LVL716:
.LM1870:
.LM1871:
	beq	a5,zero,.L343
.LM1872:
	addi	a3,a3,-1
.LVL717:
.LM1873:
	bgtu	a5,a3,.L343
.LM1874:
.LVL718:
.LM1875:
.LM1876:
	add	a3,a4,a5
.LVL719:
.LM1877:
	sw	a3,0(a2)
.LM1878:
.LM1879:
	mv	a3,a5
	mv	a2,a4
.LVL720:
.LM1880:
	tail	mbedtls_ecp_point_read_binary
.LVL721:
.L343:
.LM1881:
	li	a0,-20480
.LVL722:
.LM1882:
	addi	a0,a0,128
	ret
	.cfi_endproc
.LFE48:
	.size	mbedtls_ecp_tls_read_point, .-mbedtls_ecp_tls_read_point
	.section	.text.mbedtls_ecp_tls_write_point,"ax",@progbits
	.align	1
	.globl	mbedtls_ecp_tls_write_point
	.type	mbedtls_ecp_tls_write_point, @function
mbedtls_ecp_tls_write_point:
.LVL723:
.LFB49:
.LM1883:
	.cfi_startproc
.LM1884:
.LM1885:
.LM1886:
.LM1887:
	beq	a5,zero,.L351
.LM1888:
	sltiu	a6,a2,2
.LM1889:
	beq	a6,zero,.L351
.LM1890:
	addi	sp,sp,-16
	.cfi_def_cfa_offset 16
	sw	s1,4(sp)
.LM1891:
	addi	a5,a5,-1
.LVL724:
	.cfi_offset 9, -12
.LM1892:
	mv	s1,a4
.LM1893:
.LM1894:
	addi	a4,a4,1
.LVL725:
.LM1895:
	sw	s0,8(sp)
	sw	ra,12(sp)
	.cfi_offset 8, -8
	.cfi_offset 1, -4
	mv	s0,a3
.LM1896:
	call	mbedtls_ecp_point_write_binary
.LVL726:
.LM1897:
	bne	a0,zero,.L348
.LM1898:
.LM1899:
	lw	a5,0(s0)
	sb	a5,0(s1)
.LM1900:
	lw	a5,0(s0)
	addi	a5,a5,1
	sw	a5,0(s0)
.LM1901:
.L348:
.LM1902:
	lw	ra,12(sp)
	.cfi_restore 1
	lw	s0,8(sp)
	.cfi_restore 8
.LVL727:
.LM1903:
	lw	s1,4(sp)
	.cfi_restore 9
.LVL728:
.LM1904:
	addi	sp,sp,16
	.cfi_def_cfa_offset 0
	jr	ra
.LVL729:
.L351:
.LM1905:
	li	a0,-20480
.LVL730:
.LM1906:
	addi	a0,a0,128
.LM1907:
	ret
	.cfi_endproc
.LFE49:
	.size	mbedtls_ecp_tls_write_point, .-mbedtls_ecp_tls_write_point
	.section	.text.mbedtls_ecp_tls_read_group_id,"ax",@progbits
	.align	1
	.globl	mbedtls_ecp_tls_read_group_id
	.type	mbedtls_ecp_tls_read_group_id, @function
mbedtls_ecp_tls_read_group_id:
.LVL731:
.LFB51:
.LM1908:
	.cfi_startproc
.LM1909:
.LM1910:
.LM1911:
.LM1912:
	li	a5,2
	bgtu	a2,a5,.L357
.L359:
.LM1913:
	li	a5,-20480
	addi	a5,a5,128
.LM1914:
	mv	a0,a5
.LVL732:
.LM1915:
	ret
.LVL733:
.L357:
.LM1916:
.LM1917:
	lw	a5,0(a1)
.LM1918:
	addi	a4,a5,1
	sw	a4,0(a1)
.LM1919:
	lbu	a3,0(a5)
	li	a4,3
	bne	a3,a4,.L359
.LM1920:
	addi	sp,sp,-16
	.cfi_def_cfa_offset 16
	sw	s0,8(sp)
	sw	ra,12(sp)
	.cfi_offset 8, -8
	.cfi_offset 1, -4
.LBB188:
.LBB189:
.LM1921:
	lbu	a4,2(a5)
	mv	s0,a0
.LBE189:
.LBE188:
.LM1922:
.LVL734:
.LBB191:
.LBI188:
.LM1923:
.LBB190:
.LM1924:
.LM1925:
.LM1926:
.LM1927:
.LM1928:
	lbu	a0,1(a5)
.LVL735:
.LM1929:
	slli	a4,a4,8
.LBE190:
.LBE191:
.LM1930:
	add	a5,a5,a3
.LVL736:
.LM1931:
	srli	a4,a4,8
	slli	a0,a0,8
.LVL737:
.LM1932:
.LM1933:
	sw	a5,0(a1)
.LM1934:
.LM1935:
	or	a0,a0,a4
.LVL738:
.LM1936:
	call	mbedtls_ecp_curve_info_from_tls_id
.LVL739:
.LM1937:
	li	a5,-20480
	addi	a5,a5,384
.LM1938:
	beq	a0,zero,.L356
.LM1939:
.LM1940:
	lbu	a5,0(a0)
.LM1941:
	sb	a5,0(s0)
.LM1942:
.LM1943:
	li	a5,0
.L356:
.LM1944:
	lw	ra,12(sp)
	.cfi_restore 1
	lw	s0,8(sp)
	.cfi_restore 8
.LVL740:
.LM1945:
	mv	a0,a5
.LVL741:
.LM1946:
	addi	sp,sp,16
	.cfi_def_cfa_offset 0
	jr	ra
	.cfi_endproc
.LFE51:
	.size	mbedtls_ecp_tls_read_group_id, .-mbedtls_ecp_tls_read_group_id
	.section	.text.mbedtls_ecp_tls_read_group,"ax",@progbits
	.align	1
	.globl	mbedtls_ecp_tls_read_group
	.type	mbedtls_ecp_tls_read_group, @function
mbedtls_ecp_tls_read_group:
.LVL742:
.LFB50:
.LM1947:
	.cfi_startproc
.LM1948:
.LM1949:
.LM1950:
.LM1951:
	addi	sp,sp,-32
	.cfi_def_cfa_offset 32
	sw	s0,24(sp)
	.cfi_offset 8, -8
	mv	s0,a0
.LM1952:
	addi	a0,sp,15
.LVL743:
.LM1953:
	sw	ra,28(sp)
	.cfi_offset 1, -4
.LM1954:
	call	mbedtls_ecp_tls_read_group_id
.LVL744:
.LM1955:
	bne	a0,zero,.L365
.LM1956:
.LM1957:
	mv	a0,s0
.LVL745:
.LM1958:
	lw	s0,24(sp)
	.cfi_remember_state
	.cfi_restore 8
.LVL746:
.LM1959:
	lbu	a1,15(sp)
.LM1960:
	lw	ra,28(sp)
	.cfi_restore 1
	addi	sp,sp,32
	.cfi_def_cfa_offset 0
.LM1961:
	tail	mbedtls_ecp_group_load
.LVL747:
.L365:
	.cfi_restore_state
.LM1962:
	lw	ra,28(sp)
	.cfi_restore 1
	lw	s0,24(sp)
	.cfi_restore 8
.LVL748:
.LM1963:
	addi	sp,sp,32
	.cfi_def_cfa_offset 0
	jr	ra
	.cfi_endproc
.LFE50:
	.size	mbedtls_ecp_tls_read_group, .-mbedtls_ecp_tls_read_group
	.section	.text.mbedtls_ecp_tls_write_group,"ax",@progbits
	.align	1
	.globl	mbedtls_ecp_tls_write_group
	.type	mbedtls_ecp_tls_write_group, @function
mbedtls_ecp_tls_write_group:
.LVL749:
.LFB52:
.LM1964:
	.cfi_startproc
.LM1965:
.LM1966:
.LM1967:
	addi	sp,sp,-32
	.cfi_def_cfa_offset 32
	sw	ra,28(sp)
	.cfi_offset 1, -4
.LM1968:
	lbu	a0,0(a0)
.LVL750:
.LM1969:
	sw	a1,12(sp)
	sw	a2,8(sp)
	sw	a3,4(sp)
.LM1970:
	call	mbedtls_ecp_curve_info_from_grp_id
.LVL751:
.LM1971:
	beq	a0,zero,.L370
.LM1972:
.LM1973:
	lw	a1,12(sp)
.LM1974:
	lw	a3,4(sp)
.LM1975:
	li	a4,3
	sw	a4,0(a1)
.LM1976:
.LM1977:
	li	a5,-20480
.LM1978:
	li	a1,2
.LM1979:
	addi	a5,a5,256
.LM1980:
	bleu	a3,a1,.L368
.LM1981:
.LVL752:
.LM1982:
	lw	a2,8(sp)
	sb	a4,0(a2)
.LM1983:
.LM1984:
.LM1985:
	lhu	a5,2(a0)
	slli	a4,a5,8
	srli	a5,a5,8
.LVL753:
.LBB192:
.LBI192:
.LM1986:
.LBB193:
.LM1987:
.LM1988:
.LM1989:
	sb	a5,1(a2)
	srli	a5,a4,8
.LVL754:
.LM1990:
	sb	a5,2(a2)
.LVL755:
.LM1991:
.LBE193:
.LBE192:
.LM1992:
.LM1993:
.LM1994:
	li	a5,0
.LVL756:
.L368:
.LM1995:
	lw	ra,28(sp)
	.cfi_remember_state
	.cfi_restore 1
	mv	a0,a5
.LVL757:
.LM1996:
	addi	sp,sp,32
	.cfi_def_cfa_offset 0
.LVL758:
.LM1997:
	jr	ra
.LVL759:
.L370:
	.cfi_restore_state
.LM1998:
	li	a5,-20480
	addi	a5,a5,128
	j	.L368
	.cfi_endproc
.LFE52:
	.size	mbedtls_ecp_tls_write_group, .-mbedtls_ecp_tls_write_group
	.section	.text.mbedtls_ecp_check_pubkey,"ax",@progbits
	.align	1
	.globl	mbedtls_ecp_check_pubkey
	.type	mbedtls_ecp_check_pubkey, @function
mbedtls_ecp_check_pubkey:
.LVL760:
.LFB89:
.LM1999:
	.cfi_startproc
.LM2000:
.LM2001:
	addi	sp,sp,-64
	.cfi_def_cfa_offset 64
	sw	s2,48(sp)
	.cfi_offset 18, -16
	mv	s2,a1
	sw	s1,52(sp)
.LM2002:
	li	a1,1
.LVL761:
	.cfi_offset 9, -12
.LM2003:
	mv	s1,a0
.LM2004:
	addi	a0,s2,16
.LVL762:
.LM2005:
	sw	ra,60(sp)
	sw	s0,56(sp)
	sw	s3,44(sp)
	.cfi_offset 1, -4
	.cfi_offset 8, -8
	.cfi_offset 19, -20
.LM2006:
	call	mbedtls_mpi_cmp_int
.LVL763:
.LM2007:
	beq	a0,zero,.L374
.L389:
.LBB200:
.LBB201:
.LM2008:
	li	s0,-20480
	addi	s0,s0,896
.LVL764:
.L373:
.LM2009:
.LBE201:
.LBE200:
.LM2010:
	lw	ra,60(sp)
	.cfi_remember_state
	.cfi_restore 1
	mv	a0,s0
	lw	s0,56(sp)
	.cfi_restore 8
	lw	s1,52(sp)
	.cfi_restore 9
	lw	s2,48(sp)
	.cfi_restore 18
.LVL765:
.LM2011:
	lw	s3,44(sp)
	.cfi_restore 19
	addi	sp,sp,64
	.cfi_def_cfa_offset 0
	jr	ra
.LVL766:
.L374:
	.cfi_restore_state
.LM2012:
.LM2013:
	mv	a0,s1
	call	mbedtls_ecp_get_type
.LVL767:
.LM2014:
	li	a5,2
	bne	a0,a5,.L376
.LM2015:
.LVL768:
.LBB204:
.LBI204:
.LM2016:
.LBB205:
.LM2017:
.LM2018:
	mv	a0,s2
	call	mbedtls_mpi_size
.LVL769:
.LM2019:
	lw	a5,64(s1)
	addi	a5,a5,7
.LM2020:
	srli	a5,a5,3
.LM2021:
	bgtu	a0,a5,.L389
.LM2022:
.LM2023:
	li	a1,0
	mv	a0,s2
	call	mbedtls_mpi_cmp_int
.LVL770:
.LM2024:
	blt	a0,zero,.L389
.LM2025:
.LBB206:
.LBB207:
.LM2026:
	addi	a0,sp,24
.LBE207:
.LBE206:
.LM2027:
	lbu	s3,0(s1)
.LVL771:
.LBB211:
.LBI206:
.LM2028:
.LBB208:
.LM2029:
.LM2030:
.LM2031:
	call	mbedtls_mpi_init
.LVL772:
.LM2032:
.LM2033:
.LM2034:
	mv	a1,s2
	addi	a0,sp,24
	call	mbedtls_mpi_copy
.LVL773:
	mv	s0,a0
.LVL774:
.LM2035:
.LBE208:
.LBE211:
.LM2036:
	addi	s1,s1,4
.LVL775:
.LBB212:
.LBB209:
.LM2037:
	beq	a0,zero,.L379
.LVL776:
.L401:
.LM2038:
.LBE209:
.LBE212:
.LBE205:
.LBE204:
.LBB215:
.LBB202:
.LM2039:
	addi	a0,sp,24
	call	mbedtls_mpi_free
.LVL777:
.LM2040:
.LBE202:
.LBE215:
.LM2041:
	j	.L373
.LVL778:
.L380:
.LBB216:
.LBB214:
.LBB213:
.LBB210:
.LM2042:
.LM2043:
.LM2044:
	addi	a1,sp,24
	mv	a2,s1
	mv	a0,a1
	call	mbedtls_mpi_sub_mpi
.LVL779:
	mv	s0,a0
.LVL780:
.LM2045:
	bne	a0,zero,.L401
.L379:
.LM2046:
.LM2047:
.LM2048:
	mv	a1,s1
	addi	a0,sp,24
	call	mbedtls_mpi_cmp_mpi
.LVL781:
.LM2049:
	bge	a0,zero,.L380
.LM2050:
.LM2051:
	li	a1,1
	addi	a0,sp,24
	call	mbedtls_mpi_cmp_int
.LVL782:
.LM2052:
	ble	a0,zero,.L382
.LM2053:
.LM2054:
	li	a5,9
	beq	s3,a5,.L383
.L386:
.LM2055:
.LM2056:
.LM2057:
	addi	a1,sp,24
	li	a2,1
	mv	a0,a1
	call	mbedtls_mpi_add_int
.LVL783:
	mv	s0,a0
.LVL784:
.LM2058:
	bne	a0,zero,.L401
.LM2059:
.LM2060:
.LM2061:
	mv	a1,s1
	addi	a0,sp,24
	call	mbedtls_mpi_cmp_mpi
.LVL785:
.LM2062:
	bne	a0,zero,.L401
	j	.L382
.L383:
.LM2063:
.LM2064:
	lui	a1,%hi(ecp_x25519_bad_point_1)
	addi	a1,a1,%lo(ecp_x25519_bad_point_1)
	addi	a0,sp,24
	call	mbedtls_mpi_cmp_mpi
.LVL786:
.LM2065:
	beq	a0,zero,.L382
.LM2066:
.LM2067:
	lui	a1,%hi(ecp_x25519_bad_point_2)
	addi	a1,a1,%lo(ecp_x25519_bad_point_2)
	addi	a0,sp,24
	call	mbedtls_mpi_cmp_mpi
.LVL787:
.LM2068:
	bne	a0,zero,.L386
.L382:
.L378:
.LM2069:
	li	s0,-20480
.LVL788:
.LM2070:
	addi	s0,s0,896
.LVL789:
.LM2071:
	j	.L401
.LVL790:
.L376:
.LM2072:
.LBE210:
.LBE213:
.LBE214:
.LBE216:
.LM2073:
.LM2074:
	li	s0,-20480
.LM2075:
	li	a5,1
.LM2076:
	addi	s0,s0,128
.LM2077:
	bne	a0,a5,.L373
.LM2078:
.LVL791:
.LBB217:
.LBI200:
.LM2079:
.LBB203:
.LM2080:
.LM2081:
.LM2082:
.LM2083:
	li	a1,0
	mv	a0,s2
	call	mbedtls_mpi_cmp_int
.LVL792:
.LM2084:
	blt	a0,zero,.L389
.LM2085:
	addi	s0,s2,8
	li	a1,0
	mv	a0,s0
	call	mbedtls_mpi_cmp_int
.LVL793:
.LM2086:
	blt	a0,zero,.L389
.LM2087:
	addi	a1,s1,4
	mv	a0,s2
	sw	a1,12(sp)
	call	mbedtls_mpi_cmp_mpi
.LVL794:
.LM2088:
	bge	a0,zero,.L389
.LM2089:
	lw	a1,12(sp)
	mv	a0,s0
	call	mbedtls_mpi_cmp_mpi
.LVL795:
.LM2090:
	bge	a0,zero,.L389
.LM2091:
	addi	a0,sp,16
	call	mbedtls_mpi_init
.LVL796:
.LM2092:
	addi	a0,sp,24
	call	mbedtls_mpi_init
.LVL797:
.LM2093:
.LM2094:
.LM2095:
	mv	a3,s0
	mv	a2,s0
	addi	a1,sp,16
	mv	a0,s1
	call	mbedtls_mpi_mul_mod
.LVL798:
	mv	s0,a0
.LVL799:
.LM2096:
	bne	a0,zero,.L390
.LM2097:
.LM2098:
.LM2099:
.LM2100:
	mv	a2,s2
	addi	a1,sp,24
	mv	a0,s1
	call	ecp_sw_rhs
.LVL800:
	mv	s0,a0
.LVL801:
.LM2101:
	bne	a0,zero,.L390
.LM2102:
.LM2103:
.LM2104:
	addi	a1,sp,24
	addi	a0,sp,16
	call	mbedtls_mpi_cmp_mpi
.LVL802:
	mv	s0,a0
.LVL803:
.LM2105:
	beq	a0,zero,.L390
.LM2106:
	li	s0,-20480
	addi	s0,s0,896
.LVL804:
.L390:
.LM2107:
	addi	a0,sp,16
	call	mbedtls_mpi_free
.LVL805:
	j	.L401
.LBE203:
.LBE217:
	.cfi_endproc
.LFE89:
	.size	mbedtls_ecp_check_pubkey, .-mbedtls_ecp_check_pubkey
	.section	.text.mbedtls_ecp_check_privkey,"ax",@progbits
	.align	1
	.globl	mbedtls_ecp_check_privkey
	.type	mbedtls_ecp_check_privkey, @function
mbedtls_ecp_check_privkey:
.LVL806:
.LFB90:
.LM2108:
	.cfi_startproc
.LM2109:
.LM2110:
	addi	sp,sp,-16
	.cfi_def_cfa_offset 16
	sw	s0,8(sp)
	sw	s1,4(sp)
	sw	s2,0(sp)
	sw	ra,12(sp)
	.cfi_offset 8, -8
	.cfi_offset 9, -12
	.cfi_offset 18, -16
	.cfi_offset 1, -4
.LM2111:
	mv	s1,a0
	mv	s2,a1
.LM2112:
	call	mbedtls_ecp_get_type
.LVL807:
.LM2113:
	li	a5,2
.LM2114:
	mv	s0,a0
.LM2115:
	bne	a0,a5,.L403
.LM2116:
.LM2117:
	li	a1,0
	mv	a0,s2
	call	mbedtls_mpi_get_bit
.LVL808:
.LM2118:
	beq	a0,zero,.L404
.L406:
.LM2119:
	li	a0,-20480
	addi	a0,a0,896
.L402:
.LM2120:
	lw	ra,12(sp)
	.cfi_remember_state
	.cfi_restore 1
	lw	s0,8(sp)
	.cfi_restore 8
	lw	s1,4(sp)
	.cfi_restore 9
.LVL809:
.LM2121:
	lw	s2,0(sp)
	.cfi_restore 18
.LVL810:
.LM2122:
	addi	sp,sp,16
	.cfi_def_cfa_offset 0
	jr	ra
.LVL811:
.L404:
	.cfi_restore_state
.LM2123:
	li	a1,1
	mv	a0,s2
	call	mbedtls_mpi_get_bit
.LVL812:
.LM2124:
	bne	a0,zero,.L406
.LM2125:
	mv	a0,s2
	call	mbedtls_mpi_bitlen
.LVL813:
.LM2126:
	lw	a5,64(s1)
.LM2127:
	addi	a4,a5,1
.LM2128:
	bne	a0,a4,.L406
.LM2129:
.LM2130:
	li	a4,254
	bne	a5,a4,.L407
.LM2131:
	mv	a1,s0
	mv	a0,s2
	call	mbedtls_mpi_get_bit
.LVL814:
.LM2132:
	bne	a0,zero,.L406
.L407:
.LM2133:
	li	a0,0
	j	.L402
.L403:
.LM2134:
.LM2135:
	li	a0,-20480
.LM2136:
	li	a5,1
.LM2137:
	addi	a0,a0,128
.LM2138:
	bne	s0,a5,.L402
.LM2139:
.LM2140:
	mv	a1,s0
	mv	a0,s2
	call	mbedtls_mpi_cmp_int
.LVL815:
.LM2141:
	blt	a0,zero,.L406
.LM2142:
	addi	a1,s1,52
	mv	a0,s2
	call	mbedtls_mpi_cmp_mpi
.LVL816:
.LM2143:
	blt	a0,zero,.L407
	j	.L406
	.cfi_endproc
.LFE90:
	.size	mbedtls_ecp_check_privkey, .-mbedtls_ecp_check_privkey
	.section	.text.ecp_mul_restartable_internal,"ax",@progbits
	.align	1
	.type	ecp_mul_restartable_internal, @function
ecp_mul_restartable_internal:
.LVL817:
.LFB80:
.LM2144:
	.cfi_startproc
.LM2145:
.LM2146:
.LM2147:
	addi	sp,sp,-192
	.cfi_def_cfa_offset 192
	sw	s0,184(sp)
	sw	s1,180(sp)
	sw	ra,188(sp)
	sw	s2,176(sp)
	sw	s3,172(sp)
	sw	s4,168(sp)
	sw	s5,164(sp)
	sw	s6,160(sp)
	sw	s7,156(sp)
	sw	s8,152(sp)
	sw	s9,148(sp)
	sw	s10,144(sp)
	sw	s11,140(sp)
	.cfi_offset 8, -8
	.cfi_offset 9, -12
	.cfi_offset 1, -4
	.cfi_offset 18, -16
	.cfi_offset 19, -20
	.cfi_offset 20, -24
	.cfi_offset 21, -28
	.cfi_offset 22, -32
	.cfi_offset 23, -36
	.cfi_offset 24, -40
	.cfi_offset 25, -44
	.cfi_offset 26, -48
	.cfi_offset 27, -52
.LM2148:
	sw	a1,20(sp)
	sw	a2,32(sp)
	sw	a3,24(sp)
	sw	a4,36(sp)
	sw	a5,40(sp)
	mv	s1,a0
	mv	s0,a6
.LM2149:
	bne	a6,zero,.L411
.LVL818:
.L415:
.LM2150:
.LM2151:
.LM2152:
.LM2153:
	li	a2,3
.LVL819:
.LM2154:
	mv	a1,s0
.LVL820:
.LM2155:
	mv	a0,s1
.LVL821:
.LM2156:
	call	mbedtls_ecp_check_budget
.LVL822:
.LM2157:
	beq	a0,zero,.L584
.LM2158:
	li	s3,-20480
	addi	s3,s3,1280
	j	.L412
.LVL823:
.L411:
.LM2159:
	lw	a5,4(a6)
.LVL824:
.LM2160:
	addi	a4,a5,1
.LVL825:
.LM2161:
	sw	a4,4(a6)
.LM2162:
	bne	a5,zero,.L414
.LM2163:
.LM2164:
	sw	zero,0(a6)
.LM2165:
.LVL826:
.LM2166:
.L414:
.LM2167:
	lw	a5,8(s0)
	beq	a5,zero,.L415
.LVL827:
.L418:
.LM2168:
.LM2169:
.LM2170:
.LM2171:
	mv	a0,s1
	call	mbedtls_ecp_get_type
.LVL828:
.LM2172:
	li	a5,2
	beq	a0,a5,.L416
.LM2173:
	li	s3,-20480
	addi	s3,s3,128
.LVL829:
.L417:
.LM2174:
.LM2175:
.LM2176:
	mv	a0,s1
	call	mbedtls_ecp_get_type
.LVL830:
.LM2177:
	li	a4,1
.LM2178:
	mv	s5,a0
.LM2179:
	bne	a0,a4,.L412
.LM2180:
.LM2181:
.LVL831:
.LBB242:
.LBI242:
.LM2182:
.LBB243:
.LM2183:
.LM2184:
.LM2185:
.LM2186:
.LM2187:
.LM2188:
.LM2189:
.LM2190:
	beq	s0,zero,.L428
.LM2191:
	lw	a5,4(s0)
.LM2192:
	add	a4,a5,a4
	sw	a4,4(s0)
.LM2193:
	bne	a5,zero,.L428
.LM2194:
.LM2195:
	sw	zero,0(s0)
.L428:
.LM2196:
.LBB244:
.LBI244:
.LM2197:
.LBB245:
.LM2198:
.LM2199:
	lui	a5,%hi(ecp_max_ops)
.LBE245:
.LBE244:
.LM2200:
	lw	a5,%lo(ecp_max_ops)(a5)
.LM2201:
	beq	a5,zero,.L430
	beq	s0,zero,.L430
.LM2202:
	lw	a5,8(s0)
	bne	a5,zero,.L430
.LM2203:
.LM2204:
	li	a1,36
	li	a0,1
	call	calloc
.LVL832:
.LM2205:
	sw	a0,8(s0)
.LM2206:
.LM2207:
	mv	s2,a0
.LM2208:
	beq	a0,zero,.L482
.LM2209:
.LVL833:
.LBB246:
.LBI246:
.LM2210:
.LBB247:
.LM2211:
	call	mbedtls_ecp_point_init
.LVL834:
.LM2212:
.LM2213:
.LM2214:
.LM2215:
.LM2216:
	sw	zero,24(s2)
.LM2217:
	sw	zero,28(s2)
.LM2218:
	sh	zero,32(s2)
.LVL835:
.L430:
.LM2219:
.LBE247:
.LBE246:
.LM2220:
.LM2221:
.LM2222:
	lw	a5,24(sp)
	addi	a1,s1,36
.LM2223:
	li	s9,0
.LM2224:
	addi	a0,a5,8
	call	mbedtls_mpi_cmp_mpi
.LVL836:
.LM2225:
	bne	a0,zero,.L432
.LM2226:
	lw	a0,24(sp)
	addi	a1,s1,28
	call	mbedtls_mpi_cmp_mpi
.LVL837:
.LM2227:
	seqz	s9,a0
.L432:
.LVL838:
.LM2228:
.LBB248:
.LBI248:
.LM2229:
.LBB249:
.LM2230:
.LM2231:
.LM2232:
	lw	s4,64(s1)
.LM2233:
	li	a5,383
	li	s7,4
.LM2234:
	sgtu	a5,s4,a5
.LM2235:
.LM2236:
	beq	s9,zero,.L434
.LM2237:
.LM2238:
.LVL839:
.LBB250:
.LBI250:
.LM2239:
.LBB251:
.LM2240:
.LM2241:
	lw	a4,88(s1)
	beq	a4,zero,.L434
.LM2242:
	lw	a4,92(s1)
	bne	a4,zero,.L434
.LBE251:
.LBE250:
.LM2243:
	addi	s7,a5,5
.LVL840:
.L434:
.LM2244:
.LM2245:
	mv	a5,s7
.LM2246:
	bgtu	s4,s7,.L435
	li	s7,2
.LVL841:
.LM2247:
	mv	a5,s7
.LVL842:
.L435:
.LM2248:
.LM2249:
.LBE249:
.LBE248:
.LM2250:
.LM2251:
	addi	s4,s4,-1
	add	s4,s4,a5
.LM2252:
	divu	a5,s4,a5
.LM2253:
	addi	s10,s7,-1
.LM2254:
	li	s8,1
	sll	s8,s8,s10
.LM2255:
	andi	s6,s8,0xff
.LVL843:
.LM2256:
.LM2257:
	sw	a5,28(sp)
.LVL844:
.LM2258:
.LM2259:
	beq	s9,zero,.L436
.LM2260:
	lw	s2,88(s1)
.LM2261:
	bne	s2,zero,.L437
.L436:
.LM2262:
.LM2263:
	beq	s0,zero,.L438
.LM2264:
	lw	a5,8(s0)
.LVL845:
.LM2265:
	beq	a5,zero,.L438
.LM2266:
	lw	s2,28(a5)
.LM2267:
	beq	s2,zero,.L438
.LM2268:
.LVL846:
.LM2269:
.LM2270:
	sw	zero,28(a5)
.LM2271:
.LM2272:
	lw	a5,8(s0)
.LM2273:
	sb	zero,32(a5)
.LM2274:
.LVL847:
.LM2275:
.LM2276:
	lw	a5,8(s0)
.LM2277:
	lbu	a4,33(a5)
	li	a5,4
	bgtu	a4,a5,.L437
.LVL848:
.L439:
.LM2278:
.LM2279:
.LBB252:
.LBI252:
.LM2280:
.LBB253:
.LM2281:
.LM2282:
.LM2283:
.LM2284:
.LM2285:
.LM2286:
	li	a1,0
	li	a2,28
	addi	a0,sp,68
	call	memset
.LVL849:
.LM2287:
.LM2288:
	li	a1,4
	addi	a0,sp,96
	call	mpi_init_many
.LVL850:
.LM2289:
.LM2290:
	beq	s0,zero,.L443
.LM2291:
	lw	a4,8(s0)
.LM2292:
	beq	a4,zero,.L443
.LM2293:
.LM2294:
	lbu	a5,33(a4)
.LM2295:
	li	a3,1
	beq	a5,a3,.L443
.LM2296:
.LM2297:
	li	a2,2
	beq	a5,a2,.L454
.LM2298:
.LM2299:
	li	a2,3
	beq	a5,a2,.L490
.LM2300:
.LM2301:
	li	a2,4
	beq	a5,a2,.L462
.LM2302:
.LM2303:
	sb	a3,33(a4)
.LM2304:
.LM2305:
	lw	a5,8(s0)
.LM2306:
	sw	zero,24(a5)
.L443:
.LM2307:
.LM2308:
.LM2309:
	lw	a1,24(sp)
	mv	a0,s2
.LM2310:
	li	s4,0
.LM2311:
	call	mbedtls_ecp_copy
.LVL851:
	mv	s3,a0
.LVL852:
.LM2312:
	bne	a0,zero,.L447
.LM2313:
.LM2314:
.LM2315:
	beq	s0,zero,.L448
.LM2316:
	lw	a5,8(s0)
.LM2317:
	beq	a5,zero,.L448
.LM2318:
	lw	s4,24(a5)
.L448:
.LM2319:
	lw	a5,28(sp)
.LM2320:
	li	s11,24
.LM2321:
	mul	a5,s10,a5
	sw	a5,24(sp)
.LVL853:
.LM2322:
	j	.L452
.LVL854:
.L584:
.LM2323:
.LBE253:
.LBE252:
.LBE243:
.LBE242:
.LM2324:
.LM2325:
.LM2326:
.LM2327:
.LM2328:
	lw	a1,32(sp)
	mv	a0,s1
.LVL855:
.LM2329:
	call	mbedtls_ecp_check_privkey
.LVL856:
	mv	s3,a0
.LVL857:
.LM2330:
	bne	a0,zero,.L412
.LM2331:
.LM2332:
.LM2333:
.LM2334:
	lw	a1,24(sp)
	mv	a0,s1
.LVL858:
.LM2335:
	call	mbedtls_ecp_check_pubkey
.LVL859:
	mv	s3,a0
.LVL860:
.LM2336:
	beq	a0,zero,.L418
.LVL861:
.L412:
.LM2337:
.LM2338:
.LM2339:
	bne	s0,zero,.L431
	j	.L410
.LVL862:
.L416:
.LM2340:
.LM2341:
.LBB263:
.LBI263:
.LM2342:
.LBB264:
.LM2343:
.LM2344:
.LM2345:
.LM2346:
.LM2347:
.LM2348:
.LM2349:
	addi	a0,sp,68
	call	mbedtls_ecp_point_init
.LVL863:
.LM2350:
	addi	a0,sp,52
	call	mbedtls_mpi_init
.LVL864:
.LM2351:
	li	a1,4
	addi	a0,sp,96
	call	mpi_init_many
.LVL865:
.LM2352:
.LM2353:
	lw	a5,36(sp)
	bne	a5,zero,.L419
.LVL866:
.LM2354:
.LBE264:
.LBE263:
.LM2355:
	li	s3,-20480
	addi	s3,s3,128
	j	.L412
.LVL867:
.L419:
.LBB277:
.LBB275:
.LM2356:
.LM2357:
.LM2358:
	lw	a1,24(sp)
	addi	a0,sp,52
	call	mbedtls_mpi_copy
.LVL868:
	mv	s3,a0
.LVL869:
.LM2359:
	bne	a0,zero,.L420
.LM2360:
.LM2361:
.LM2362:
.LM2363:
	lw	a1,24(sp)
	addi	a0,sp,68
.LVL870:
.LM2364:
	call	mbedtls_ecp_copy
.LVL871:
	mv	s3,a0
.LVL872:
.LM2365:
	bne	a0,zero,.L420
.LM2366:
.LM2367:
.LM2368:
.LM2369:
	lw	a0,20(sp)
.LVL873:
.LM2370:
	li	a1,1
	call	mbedtls_mpi_lset
.LVL874:
	mv	s3,a0
.LVL875:
.LM2371:
	bne	a0,zero,.L420
.LM2372:
.LM2373:
.LM2374:
.LM2375:
	lw	a5,20(sp)
	li	a1,0
	addi	s2,a5,16
	mv	a0,s2
.LVL876:
.LM2376:
	call	mbedtls_mpi_lset
.LVL877:
	mv	s3,a0
.LVL878:
.LM2377:
	bne	a0,zero,.L420
.LM2378:
.LM2379:
	lw	a5,20(sp)
.LM2380:
	addi	s6,s1,4
.LM2381:
	addi	a0,a5,8
.LVL879:
.LM2382:
	call	mbedtls_mpi_free
.LVL880:
.LM2383:
.L421:
.LM2384:
.LM2385:
.LM2386:
	mv	a1,s6
	addi	a0,sp,68
	call	mbedtls_mpi_cmp_mpi
.LVL881:
.LM2387:
	bge	a0,zero,.L422
.LM2388:
.LM2389:
.LVL882:
.LBB265:
.LBI265:
.LM2390:
.LBB266:
.LM2391:
.LM2392:
.LM2393:
	addi	a0,sp,60
	call	mbedtls_mpi_init
.LVL883:
.LM2394:
.LM2395:
.LM2396:
	lw	a4,40(sp)
	lw	a3,36(sp)
	mv	a2,s6
	li	a1,2
	addi	a0,sp,60
	call	mbedtls_mpi_random
.LVL884:
	mv	s3,a0
.LVL885:
.LM2397:
	bne	a0,zero,.L423
.LM2398:
.LM2399:
.LM2400:
.LM2401:
	addi	a2,sp,68
.LVL886:
.LM2402:
	addi	a3,sp,60
	mv	a1,a2
	mv	a0,s1
.LVL887:
.LM2403:
	call	mbedtls_mpi_mul_mod
.LVL888:
.LM2404:
	mv	s3,a0
.LVL889:
.LM2405:
	bne	a0,zero,.L423
.LM2406:
.LM2407:
.LM2408:
.LM2409:
	addi	a2,sp,84
	addi	a3,sp,60
	mv	a1,a2
	mv	a0,s1
.LVL890:
.LM2410:
	call	mbedtls_mpi_mul_mod
.LVL891:
	mv	s3,a0
.LVL892:
.L423:
.LM2411:
.LM2412:
	addi	a0,sp,60
	call	mbedtls_mpi_free
.LVL893:
.LM2413:
.LM2414:
	li	a4,-14
	bne	s3,a4,.L424
.LM2415:
.LVL894:
.LM2416:
.LM2417:
.LBE266:
.LBE265:
.LM2418:
	li	s3,-20480
	addi	s3,s3,768
	j	.L420
.LVL895:
.L422:
.LM2419:
.LM2420:
.LM2421:
	addi	a1,sp,68
	mv	a2,s6
	mv	a0,a1
	call	mbedtls_mpi_sub_abs
.LVL896:
	mv	s3,a0
.LVL897:
.LM2422:
	beq	a0,zero,.L421
.LVL898:
.L420:
.LM2423:
.LM2424:
.LBB268:
.LBI268:
.LM2425:
.LBB269:
.LM2426:
	addi	a0,sp,68
.LVL899:
.LM2427:
	call	mbedtls_ecp_point_free.part.0
.LVL900:
.LM2428:
.LBE269:
.LBE268:
.LM2429:
	addi	a0,sp,52
	call	mbedtls_mpi_free
.LVL901:
.LM2430:
	li	a1,4
	addi	a0,sp,96
	call	mpi_free_many
.LVL902:
.LM2431:
.LM2432:
.LBE275:
.LBE277:
.LM2433:
	beq	s3,zero,.L417
	j	.L412
.LVL903:
.L424:
.LBB278:
.LBB276:
.LBB270:
.LBB267:
.LM2434:
.LM2435:
.LBE267:
.LBE270:
.LM2436:
	bne	s3,zero,.L420
.LM2437:
.LM2438:
.LM2439:
	lw	s4,64(s1)
	addi	s4,s4,1
.LVL904:
.LM2440:
.L425:
.LM2441:
.LM2442:
.LM2443:
	bne	s4,zero,.L426
.LM2444:
.LM2445:
.LVL905:
.LBB271:
.LBI271:
.LM2446:
.LBB272:
.LM2447:
.LM2448:
.LM2449:
.LM2450:
	mv	a3,s6
	mv	a2,s2
	mv	a1,s2
	li	a0,0
	call	mbedtls_mpi_gcd_modinv_odd
.LVL906:
	mv	s3,a0
.LVL907:
.LM2451:
	bne	a0,zero,.L420
.LM2452:
.LM2453:
.LM2454:
.LM2455:
	lw	a2,20(sp)
	mv	a3,s2
	mv	a0,s1
.LVL908:
.LM2456:
	mv	a1,a2
	call	mbedtls_mpi_mul_mod
.LVL909:
	mv	s3,a0
.LVL910:
.LM2457:
	bne	a0,zero,.L420
.LM2458:
.LM2459:
.LM2460:
.LM2461:
	li	a1,1
	mv	a0,s2
.LVL911:
.LM2462:
	call	mbedtls_mpi_lset
.LVL912:
	mv	s3,a0
.LVL913:
.LM2463:
	j	.L420
.LVL914:
.L426:
.LM2464:
.LBE272:
.LBE271:
.LM2465:
	lw	a0,32(sp)
.LM2466:
	addi	s4,s4,-1
.LVL915:
.LM2467:
.LM2468:
	mv	a1,s4
	call	mbedtls_mpi_get_bit
.LVL916:
.LM2469:
	andi	s5,a0,0xff
.LVL917:
.LM2470:
.LM2471:
.LM2472:
	lw	a0,20(sp)
	mv	a2,s5
	addi	a1,sp,68
	call	mbedtls_mpi_safe_cond_swap
.LVL918:
	mv	s3,a0
.LVL919:
.LM2473:
	bne	a0,zero,.L420
.LM2474:
.LM2475:
.LM2476:
.LM2477:
	mv	a2,s5
	addi	a1,sp,84
	mv	a0,s2
.LVL920:
.LM2478:
	call	mbedtls_mpi_safe_cond_swap
.LVL921:
	mv	s3,a0
.LVL922:
.LM2479:
	bne	a0,zero,.L420
.LM2480:
.LM2481:
.LM2482:
.LVL923:
.LBB273:
.LBI273:
.LM2483:
.LBB274:
.LM2484:
.LM2485:
.LM2486:
.LM2487:
	lw	a2,20(sp)
	mv	a3,s2
	addi	a1,sp,96
.LVL924:
.LM2488:
	mv	a0,s1
.LVL925:
.LM2489:
	call	mbedtls_mpi_add_mod
.LVL926:
.LM2490:
	mv	s3,a0
.LVL927:
.LM2491:
	bne	a0,zero,.L420
.LM2492:
.LM2493:
.LM2494:
.LM2495:
	lw	a2,20(sp)
	mv	a3,s2
	addi	a1,sp,104
	mv	a0,s1
.LVL928:
.LM2496:
	call	mbedtls_mpi_sub_mod
.LVL929:
	mv	s3,a0
.LVL930:
.LM2497:
	bne	a0,zero,.L420
.LM2498:
.LM2499:
.LM2500:
.LM2501:
	addi	a3,sp,84
	addi	a2,sp,68
.LVL931:
.LM2502:
	addi	a1,sp,112
	mv	a0,s1
.LVL932:
.LM2503:
	call	mbedtls_mpi_add_mod
.LVL933:
.LM2504:
	mv	s3,a0
.LVL934:
.LM2505:
	bne	a0,zero,.L420
.LM2506:
.LM2507:
.LM2508:
.LM2509:
	addi	a3,sp,84
	addi	a2,sp,68
.LVL935:
.LM2510:
	addi	a1,sp,120
	mv	a0,s1
.LVL936:
.LM2511:
	call	mbedtls_mpi_sub_mod
.LVL937:
.LM2512:
	mv	s3,a0
.LVL938:
.LM2513:
	bne	a0,zero,.L420
.LM2514:
.LM2515:
.LM2516:
.LM2517:
	addi	a2,sp,120
	addi	a3,sp,96
.LVL939:
.LM2518:
	mv	a1,a2
	mv	a0,s1
.LVL940:
.LM2519:
	call	mbedtls_mpi_mul_mod
.LVL941:
.LM2520:
	mv	s3,a0
.LVL942:
.LM2521:
	bne	a0,zero,.L420
.LM2522:
.LM2523:
.LM2524:
.LM2525:
	addi	a2,sp,112
	addi	a3,sp,104
	mv	a1,a2
	mv	a0,s1
.LVL943:
.LM2526:
	call	mbedtls_mpi_mul_mod
.LVL944:
	mv	s3,a0
.LVL945:
.LM2527:
	bne	a0,zero,.L420
.LM2528:
.LM2529:
.LM2530:
.LM2531:
	addi	a3,sp,96
.LVL946:
.LM2532:
	mv	a2,a3
	mv	a1,a3
	mv	a0,s1
.LVL947:
.LM2533:
	call	mbedtls_mpi_mul_mod
.LVL948:
.LM2534:
	mv	s3,a0
.LVL949:
.LM2535:
	bne	a0,zero,.L420
.LM2536:
.LM2537:
.LM2538:
.LM2539:
	addi	a3,sp,104
	mv	a2,a3
	mv	a1,a3
	mv	a0,s1
.LVL950:
.LM2540:
	call	mbedtls_mpi_mul_mod
.LVL951:
	mv	s3,a0
.LVL952:
.LM2541:
	bne	a0,zero,.L420
.LM2542:
.LM2543:
.LM2544:
.LM2545:
	lw	a1,20(sp)
	addi	a3,sp,104
	addi	a2,sp,96
.LVL953:
.LM2546:
	mv	a0,s1
.LVL954:
.LM2547:
	call	mbedtls_mpi_mul_mod
.LVL955:
.LM2548:
	mv	s3,a0
.LVL956:
.LM2549:
	bne	a0,zero,.L420
.LM2550:
.LM2551:
.LM2552:
.LM2553:
	addi	a2,sp,96
.LVL957:
.LM2554:
	addi	a3,sp,104
	mv	a1,a2
	mv	a0,s1
.LVL958:
.LM2555:
	call	mbedtls_mpi_sub_mod
.LVL959:
.LM2556:
	mv	s3,a0
.LVL960:
.LM2557:
	bne	a0,zero,.L420
.LM2558:
.LM2559:
.LM2560:
.LM2561:
	addi	a3,sp,96
.LVL961:
.LM2562:
	addi	a2,s1,12
	mv	a1,s2
	mv	a0,s1
.LVL962:
.LM2563:
	call	mbedtls_mpi_mul_mod
.LVL963:
.LM2564:
	mv	s3,a0
.LVL964:
.LM2565:
	bne	a0,zero,.L420
.LM2566:
.LM2567:
.LM2568:
.LM2569:
	mv	a3,s2
	addi	a2,sp,104
	mv	a1,s2
	mv	a0,s1
.LVL965:
.LM2570:
	call	mbedtls_mpi_add_mod
.LVL966:
	mv	s3,a0
.LVL967:
.LM2571:
	bne	a0,zero,.L420
.LM2572:
.LM2573:
.LM2574:
.LM2575:
	addi	a3,sp,112
	addi	a2,sp,120
	addi	a1,sp,68
.LVL968:
.LM2576:
	mv	a0,s1
.LVL969:
.LM2577:
	call	mbedtls_mpi_add_mod
.LVL970:
.LM2578:
	mv	s3,a0
.LVL971:
.LM2579:
	bne	a0,zero,.L420
.LM2580:
.LM2581:
.LM2582:
.LM2583:
	addi	a3,sp,68
.LVL972:
.LM2584:
	mv	a2,a3
	mv	a1,a3
	mv	a0,s1
.LVL973:
.LM2585:
	call	mbedtls_mpi_mul_mod
.LVL974:
.LM2586:
	mv	s3,a0
.LVL975:
.LM2587:
	bne	a0,zero,.L420
.LM2588:
.LM2589:
.LM2590:
.LM2591:
	addi	a3,sp,112
	addi	a2,sp,120
	addi	a1,sp,84
	mv	a0,s1
.LVL976:
.LM2592:
	call	mbedtls_mpi_sub_mod
.LVL977:
	mv	s3,a0
.LVL978:
.LM2593:
	bne	a0,zero,.L420
.LM2594:
.LM2595:
.LM2596:
.LM2597:
	addi	a3,sp,84
	mv	a2,a3
	mv	a1,a3
	mv	a0,s1
.LVL979:
.LM2598:
	call	mbedtls_mpi_mul_mod
.LVL980:
	mv	s3,a0
.LVL981:
.LM2599:
	bne	a0,zero,.L420
.LM2600:
.LM2601:
.LM2602:
.LM2603:
	addi	a3,sp,84
	addi	a2,sp,52
.LVL982:
.LM2604:
	mv	a1,a3
	mv	a0,s1
.LVL983:
.LM2605:
	call	mbedtls_mpi_mul_mod
.LVL984:
.LM2606:
	mv	s3,a0
.LVL985:
.LM2607:
	bne	a0,zero,.L420
.LM2608:
.LM2609:
.LM2610:
.LM2611:
	mv	a3,s2
	addi	a2,sp,96
.LVL986:
.LM2612:
	mv	a1,s2
	mv	a0,s1
.LVL987:
.LM2613:
	call	mbedtls_mpi_mul_mod
.LVL988:
.LM2614:
	mv	s3,a0
.LVL989:
.LDL4:
.LM2615:
.LM2616:
.LM2617:
.LBE274:
.LBE273:
.LM2618:
	bne	a0,zero,.L420
.LM2619:
.LM2620:
.LM2621:
.LM2622:
	lw	a0,20(sp)
.LVL990:
.LM2623:
	mv	a2,s5
	addi	a1,sp,68
	call	mbedtls_mpi_safe_cond_swap
.LVL991:
	mv	s3,a0
.LVL992:
.LM2624:
	bne	a0,zero,.L420
.LM2625:
.LM2626:
.LM2627:
.LM2628:
	mv	a2,s5
	addi	a1,sp,84
	mv	a0,s2
.LVL993:
.LM2629:
	call	mbedtls_mpi_safe_cond_swap
.LVL994:
	mv	s3,a0
.LVL995:
.LM2630:
	beq	a0,zero,.L425
	j	.L420
.LVL996:
.L438:
.LM2631:
.LBE276:
.LBE278:
.LBB279:
.LBB260:
.LM2632:
.LM2633:
	li	a1,24
	mv	a0,s8
	call	calloc
.LVL997:
.LM2634:
	li	s3,-20480
.LVL998:
.LM2635:
	mv	s2,a0
.LVL999:
.LM2636:
.LM2637:
	addi	s3,s3,640
.LM2638:
	beq	a0,zero,.L441
	li	s11,0
.LM2639:
	li	s3,24
.LVL1000:
.L442:
.LM2640:
	mul	a0,s11,s3
.LM2641:
	addi	s11,s11,1
.LVL1001:
.LM2642:
	add	a0,s2,a0
	call	mbedtls_ecp_point_init
.LVL1002:
.LM2643:
.LM2644:
	andi	a5,s11,0xff
	bgtu	s6,a5,.L442
	j	.L439
.LVL1003:
.L453:
.LBB256:
.LBB254:
.LM2645:
.LM2646:
.LM2647:
	li	a2,8
	mv	a1,s0
	mv	a0,s1
.LVL1004:
.LM2648:
	call	mbedtls_ecp_check_budget
.LVL1005:
.LM2649:
	bne	a0,zero,.L494
.LM2650:
.LM2651:
.LM2652:
.LM2653:
	lw	a5,28(sp)
	divu	a1,s4,a5
.LM2654:
	li	a5,1
	sll	a1,a5,a1
.LVL1006:
.LM2655:
.LM2656:
	lw	a5,28(sp)
.LM2657:
	andi	a2,a1,255
	mul	a2,a2,s11
.LM2658:
	remu	a5,s4,a5
.LM2659:
	add	a2,s2,a2
.LVL1007:
.LM2660:
.LM2661:
	beq	a5,zero,.L449
.LVL1008:
.L451:
.LM2662:
.LM2663:
.LM2664:
.LM2665:
	addi	a3,sp,96
	mv	a1,a2
	mv	a0,s1
.LVL1009:
.LM2666:
	call	ecp_double_jac
.LVL1010:
	mv	s3,a0
.LVL1011:
.LM2667:
	beq	a0,zero,.L585
.LVL1012:
.L447:
.LM2668:
	li	a1,4
	addi	a0,sp,96
	call	mpi_free_many
.LVL1013:
.LM2669:
.LM2670:
	beq	s0,zero,.L466
.LM2671:
	lw	a3,8(s0)
.LM2672:
	beq	a3,zero,.L466
	li	a4,20480
	addi	a4,a4,-1280
	add	a4,s3,a4
	bne	a4,zero,.L466
.LM2673:
.LM2674:
	lbu	a4,33(a3)
	li	a5,1
	bne	a4,a5,.L467
.LM2675:
.LM2676:
	sw	s4,24(a3)
.LM2677:
.L467:
.LVL1014:
.LM2678:
.LBE254:
.LBE256:
.LM2679:
	li	s3,-20480
	addi	s3,s3,1280
.LVL1015:
.L441:
.LM2680:
.LM2681:
.LM2682:
	lw	a4,88(s1)
	beq	a4,s2,.L470
.LM2683:
.LM2684:
	beq	s0,zero,.L471
.LVL1016:
.L480:
.LM2685:
	lw	a3,8(s0)
.LM2686:
	beq	a3,zero,.L471
	li	a4,20480
	addi	a4,a4,-1280
	add	a4,s3,a4
	bne	a4,zero,.L471
.LM2687:
	beq	s2,zero,.L473
.LM2688:
.LM2689:
	sb	s6,32(a3)
.LM2690:
.LM2691:
	lw	a4,8(s0)
.LM2692:
	sw	s2,28(a4)
.LM2693:
.LM2694:
.LM2695:
.LM2696:
.LVL1017:
.LM2697:
.LM2698:
.L473:
.LM2699:
	lw	a0,8(s0)
.LM2700:
	beq	a0,zero,.L479
	li	a4,20480
	addi	a4,a4,-1280
	add	a4,s3,a4
	beq	a4,zero,.L479
.LM2701:
.LVL1018:
.LBB257:
.LBI257:
.LM2702:
.LBB258:
.LM2703:
.LM2704:
	call	ecp_restart_rsm_free.part.0
.LVL1019:
.LM2705:
.LBE258:
.LBE257:
.LM2706:
	lw	a0,8(s0)
	call	free
.LVL1020:
.LM2707:
.LM2708:
	sw	zero,8(s0)
.LM2709:
.L479:
.LM2710:
.LM2711:
	lw	a4,4(s0)
	addi	a4,a4,-1
	sw	a4,4(s0)
.LVL1021:
.LM2712:
.LBE260:
.LBE279:
.LM2713:
.LM2714:
.L431:
.LM2715:
.LM2716:
	lw	a4,4(s0)
	addi	a4,a4,-1
	sw	a4,4(s0)
.LM2717:
.LM2718:
	j	.L410
.LVL1022:
.L449:
.LBB280:
.LBB261:
.LBB259:
.LBB255:
.LM2719:
.LM2720:
.LM2721:
	andi	a1,a1,0xff
.LM2722:
	srli	a1,a1,1
.LVL1023:
.LM2723:
	mul	a1,a1,s11
.LM2724:
	mv	a0,a2
.LVL1024:
.LM2725:
	sw	a2,44(sp)
	add	a1,s2,a1
	call	mbedtls_ecp_copy
.LVL1025:
.LM2726:
	lw	a2,44(sp)
.LM2727:
	mv	s3,a0
.LVL1026:
.LM2728:
	beq	a0,zero,.L451
.LM2729:
	j	.L447
.LVL1027:
.L585:
.LM2730:
.LM2731:
	addi	s4,s4,1
.LVL1028:
.L452:
.LM2732:
	lw	a5,24(sp)
	bltu	s4,a5,.L453
.LM2733:
.LM2734:
	beq	s0,zero,.L454
.LM2735:
	lw	a5,8(s0)
.LM2736:
	beq	a5,zero,.L454
.LM2737:
.LM2738:
	li	a4,2
	sb	a4,33(a5)
.LVL1029:
.L454:
.LM2739:
	addi	a4,sp,68
.LM2740:
	mv	a5,s5
	li	s4,0
.LM2741:
	li	a2,24
.LVL1030:
.L455:
.LM2742:
.LM2743:
	mul	a3,a5,a2
.LM2744:
	slli	a5,a5,1
.LVL1031:
.LM2745:
	andi	a5,a5,0xff
.LM2746:
	addi	s4,s4,1
.LVL1032:
.LM2747:
	add	a3,s2,a3
.LM2748:
	sw	a3,0(a4)
.LM2749:
.LVL1033:
.LM2750:
	addi	a4,a4,4
	bgtu	s6,a5,.L455
.LM2751:
.LM2752:
.LM2753:
	li	a2,6
	mul	a2,s4,a2
.LM2754:
	mv	a1,s0
	mv	a0,s1
	li	s3,-20480
	addi	s3,s3,1280
	addi	a2,a2,118
	call	mbedtls_ecp_check_budget
.LVL1034:
.LM2755:
	bne	a0,zero,.L447
.LM2756:
.LM2757:
.LM2758:
.LM2759:
.LM2760:
	mv	a2,s4
	addi	a1,sp,68
	mv	a0,s1
.LVL1035:
.LM2761:
	call	ecp_normalize_jac_many
.LVL1036:
	mv	s3,a0
.LVL1037:
.LM2762:
	bne	a0,zero,.L447
.LM2763:
.LM2764:
.LM2765:
	beq	s0,zero,.L445
.LM2766:
	lw	a5,8(s0)
.LM2767:
	beq	a5,zero,.L445
.LM2768:
.LM2769:
	li	a4,3
	sb	a4,33(a5)
.LVL1038:
.L445:
.LM2770:
.LM2771:
.LM2772:
	li	a5,11
.LM2773:
	addi	a2,s8,-1
.LM2774:
	mul	a2,a2,a5
	mv	a1,s0
	mv	a0,s1
	li	s3,-20480
	addi	s3,s3,1280
	call	mbedtls_ecp_check_budget
.LVL1039:
.LM2775:
	bne	a0,zero,.L447
.LM2776:
	li	a7,24
.LVL1040:
.L461:
.LM2777:
.LM2778:
	mul	s11,s5,a7
.LM2779:
	mv	s4,s5
.LVL1041:
.LM2780:
.LM2781:
	add	s11,s2,s11
.LVL1042:
.L459:
.LM2782:
.LM2783:
.LM2784:
	bne	s4,zero,.L460
.LM2785:
	slli	s5,s5,1
.LVL1043:
.LM2786:
	andi	s5,s5,0xff
.LVL1044:
.LM2787:
	bgtu	s6,s5,.L461
.LM2788:
.LM2789:
	beq	s0,zero,.L462
.LM2790:
	lw	a5,8(s0)
.LM2791:
	beq	a5,zero,.L462
.LM2792:
.LM2793:
	li	a4,4
	sb	a4,33(a5)
.LVL1045:
.L462:
.LM2794:
	li	a5,24
	sll	a5,a5,s10
	addi	a4,s2,24
	addi	a3,sp,68
	add	a5,a5,s2
.LVL1046:
.L463:
.LM2795:
.LM2796:
	sw	a4,0(a3)
.LM2797:
.LM2798:
	addi	a4,a4,24
	addi	a3,a3,4
	bne	a4,a5,.L463
	addi	s4,s8,-1
.LM2799:
.LM2800:
.LM2801:
	li	a2,6
	mul	a2,s4,a2
.LM2802:
	mv	a1,s0
	mv	a0,s1
	li	s3,-20480
	addi	s3,s3,1280
	addi	a2,a2,118
	call	mbedtls_ecp_check_budget
.LVL1047:
.LM2803:
	bne	a0,zero,.L447
.LM2804:
.LM2805:
.LM2806:
.LM2807:
.LM2808:
	mv	a2,s4
	addi	a1,sp,68
	mv	a0,s1
.LVL1048:
.LM2809:
	call	ecp_normalize_jac_many
.LVL1049:
	mv	s3,a0
.LVL1050:
.LM2810:
	bne	a0,zero,.L447
	addi	s10,s2,16
.LM2811:
	li	s5,0
.LVL1051:
.L465:
.LM2812:
.LM2813:
	addi	s5,s5,1
.LVL1052:
.LM2814:
	mv	a0,s10
.LM2815:
	andi	s5,s5,0xff
.LVL1053:
.LM2816:
	call	mbedtls_mpi_free
.LVL1054:
.LM2817:
.LM2818:
	addi	s10,s10,24
	bgtu	s6,s5,.L465
	j	.L447
.LVL1055:
.L490:
.LM2819:
	li	s4,0
	j	.L445
.LVL1056:
.L460:
.LM2820:
	addi	s4,s4,-1
.LVL1057:
.LM2821:
.LM2822:
	mul	a1,s4,a7
.LM2823:
	addi	a4,sp,96
	mv	a3,s11
	mv	a0,s1
.LVL1058:
.LM2824:
	add	a2,s2,a1
	add	a1,s11,a1
	call	ecp_add_mixed
.LVL1059:
	mv	s3,a0
.LVL1060:
.LM2825:
	li	a7,24
	beq	a0,zero,.L459
	j	.L447
.LVL1061:
.L494:
.LM2826:
	li	s3,-20480
	addi	s3,s3,1280
	j	.L447
.LVL1062:
.L466:
.LM2827:
.LM2828:
.LBE255:
.LBE259:
.LM2829:
	bne	s3,zero,.L441
.LVL1063:
.LM2830:
.LM2831:
.LM2832:
	beq	s9,zero,.L437
.LM2833:
.LM2834:
	sw	s2,88(s1)
.LM2835:
.LM2836:
	sw	s8,92(s1)
.LVL1064:
.L437:
.LM2837:
.LM2838:
.LM2839:
	lw	a5,40(sp)
	lw	a7,36(sp)
	lw	a6,28(sp)
	lw	a2,32(sp)
	lw	a1,20(sp)
	sw	a5,0(sp)
	sw	s0,4(sp)
	mv	a5,s7
	mv	a4,s6
	mv	a3,s2
	mv	a0,s1
	call	ecp_mul_comb_after_precomp
.LVL1065:
	mv	s3,a0
.LM2840:
	j	.L441
.LVL1066:
.L471:
.LM2841:
.LM2842:
	beq	s2,zero,.L474
.LM2843:
	li	s1,0
.LVL1067:
.LM2844:
	li	s4,24
.L475:
.LVL1068:
.LM2845:
	mul	a0,s1,s4
.LM2846:
	addi	s1,s1,1
.LVL1069:
.LM2847:
	add	a0,s2,a0
	call	mbedtls_ecp_point_free
.LVL1070:
.LM2848:
.LM2849:
	andi	a4,s1,0xff
	bgtu	s6,a4,.L475
.LM2850:
	mv	a0,s2
	call	free
.LVL1071:
.L474:
.LM2851:
.LM2852:
.LM2853:
.LM2854:
	li	a4,20480
	addi	a4,a4,-1280
	add	a4,s3,a4
.LM2855:
	beq	a4,zero,.L476
	beq	s3,zero,.L476
.LM2856:
	lw	a0,20(sp)
	call	mbedtls_ecp_point_free
.LVL1072:
.L476:
.LM2857:
.LM2858:
.LM2859:
	bne	s0,zero,.L473
.LVL1073:
.L410:
.LM2860:
.LBE261:
.LBE280:
.LM2861:
	lw	ra,188(sp)
	.cfi_remember_state
	.cfi_restore 1
	lw	s0,184(sp)
	.cfi_restore 8
.LVL1074:
.LM2862:
	lw	s1,180(sp)
	.cfi_restore 9
	lw	s2,176(sp)
	.cfi_restore 18
	lw	s4,168(sp)
	.cfi_restore 20
	lw	s5,164(sp)
	.cfi_restore 21
	lw	s6,160(sp)
	.cfi_restore 22
	lw	s7,156(sp)
	.cfi_restore 23
	lw	s8,152(sp)
	.cfi_restore 24
	lw	s9,148(sp)
	.cfi_restore 25
	lw	s10,144(sp)
	.cfi_restore 26
	lw	s11,140(sp)
	.cfi_restore 27
	mv	a0,s3
	lw	s3,172(sp)
	.cfi_restore 19
	addi	sp,sp,192
	.cfi_def_cfa_offset 0
.LVL1075:
.LM2863:
	jr	ra
.LVL1076:
.L482:
	.cfi_restore_state
.LBB281:
.LBB262:
.LM2864:
	li	s3,-20480
.LVL1077:
.LM2865:
	addi	s3,s3,640
	j	.L431
.LVL1078:
.L470:
.LM2866:
.LM2867:
.LM2868:
	li	s2,0
.LM2869:
	bne	s0,zero,.L480
	j	.L474
.LBE262:
.LBE281:
	.cfi_endproc
.LFE80:
	.size	ecp_mul_restartable_internal, .-ecp_mul_restartable_internal
	.section	.text.mbedtls_ecp_mul_restartable,"ax",@progbits
	.align	1
	.globl	mbedtls_ecp_mul_restartable
	.type	mbedtls_ecp_mul_restartable, @function
mbedtls_ecp_mul_restartable:
.LVL1079:
.LFB81:
.LM2870:
	.cfi_startproc
.LM2871:
.LM2872:
	beq	a4,zero,.L590
.LM2873:
.LM2874:
	tail	ecp_mul_restartable_internal
.LVL1080:
.L590:
.LM2875:
	li	a0,-20480
.LVL1081:
.LM2876:
	addi	a0,a0,128
	ret
	.cfi_endproc
.LFE81:
	.size	mbedtls_ecp_mul_restartable, .-mbedtls_ecp_mul_restartable
	.section	.text.mbedtls_ecp_mul,"ax",@progbits
	.align	1
	.globl	mbedtls_ecp_mul
	.type	mbedtls_ecp_mul, @function
mbedtls_ecp_mul:
.LVL1082:
.LFB82:
.LM2877:
	.cfi_startproc
.LM2878:
.LM2879:
	li	a6,0
	tail	mbedtls_ecp_mul_restartable
.LVL1083:
.LM2880:
	.cfi_endproc
.LFE82:
	.size	mbedtls_ecp_mul, .-mbedtls_ecp_mul
	.section	.rodata.self_test_point.constprop.0.str1.4,"aMS",@progbits,1
	.align	2
.LC14:
	.string	"failed (%u)\n"
	.align	2
.LC15:
	.string	"passed\n"
	.section	.text.self_test_point.constprop.0,"ax",@progbits
	.align	1
	.type	self_test_point.constprop.0, @function
self_test_point.constprop.0:
.LVL1084:
.LFB124:
.LM2881:
	.cfi_startproc
.LM2882:
.LM2883:
.LM2884:
.LM2885:
.LM2886:
	addi	sp,sp,-80
	.cfi_def_cfa_offset 80
	sw	s0,72(sp)
	sw	s1,68(sp)
	sw	s2,64(sp)
	sw	s3,60(sp)
	sw	s4,56(sp)
	sw	s9,36(sp)
	sw	s11,28(sp)
	sw	ra,76(sp)
	sw	s5,52(sp)
	sw	s6,48(sp)
	sw	s7,44(sp)
	sw	s8,40(sp)
	sw	s10,32(sp)
	.cfi_offset 8, -8
	.cfi_offset 9, -12
	.cfi_offset 18, -16
	.cfi_offset 19, -20
	.cfi_offset 20, -24
	.cfi_offset 25, -44
	.cfi_offset 27, -52
	.cfi_offset 1, -4
	.cfi_offset 21, -28
	.cfi_offset 22, -32
	.cfi_offset 23, -36
	.cfi_offset 24, -40
	.cfi_offset 26, -48
.LM2887:
	sw	a2,4(sp)
.LM2888:
	lw	a2,0(a5)
.LVL1085:
.LM2889:
	sw	a1,0(sp)
	mv	s3,a0
.LM2890:
	lui	s0,%hi(add_count)
.LM2891:
	lui	s1,%hi(dbl_count)
.LM2892:
	lui	s2,%hi(mul_count)
.LM2893:
	li	a1,16
.LVL1086:
.LM2894:
	mv	a0,a3
.LVL1087:
.LM2895:
	mv	s11,a3
	sw	a4,8(sp)
	mv	s4,a5
.LM2896:
	sw	zero,%lo(add_count)(s0)
.LM2897:
.LM2898:
	sw	zero,%lo(dbl_count)(s1)
.LM2899:
.LM2900:
	sw	zero,%lo(mul_count)(s2)
.LM2901:
.LM2902:
.LM2903:
	call	mbedtls_mpi_read_string
.LVL1088:
.LM2904:
	mv	s9,a0
.LM2905:
	bne	a0,zero,.L593
.LM2906:
.LM2907:
.LM2908:
.LVL1089:
.LBB286:
.LBI286:
.LM2909:
.LBB287:
.LM2910:
.LM2911:
.LM2912:
.LM2913:
.LM2914:
.LDL5:
.LM2915:
.LM2916:
.LBE287:
.LBE286:
.LM2917:
.LM2918:
.LM2919:
.LM2920:
	lw	a3,8(sp)
	lw	a1,4(sp)
	lw	a0,0(sp)
	lui	s5,%hi(self_test_rng)
	li	a5,0
	addi	a4,s5,%lo(self_test_rng)
	mv	a2,s11
	call	mbedtls_ecp_mul
.LVL1090:
	mv	s9,a0
.LVL1091:
.LM2921:
	bne	a0,zero,.L593
.LM2922:
	addi	a5,s5,%lo(self_test_rng)
.LM2923:
	li	s10,1
.LM2924:
	sw	a5,12(sp)
.LM2925:
	li	s8,6
.LVL1092:
.L595:
.LM2926:
.LM2927:
	slli	a5,s10,2
	add	a5,s4,a5
	lw	a2,0(a5)
	li	a1,16
	mv	a0,s11
.LM2928:
	lw	s7,%lo(add_count)(s0)
.LVL1093:
.LM2929:
.LM2930:
	lw	s6,%lo(dbl_count)(s1)
.LVL1094:
.LM2931:
.LM2932:
	lw	s5,%lo(mul_count)(s2)
.LVL1095:
.LM2933:
.LM2934:
	sw	zero,%lo(add_count)(s0)
.LM2935:
.LM2936:
	sw	zero,%lo(dbl_count)(s1)
.LM2937:
.LM2938:
	sw	zero,%lo(mul_count)(s2)
.LM2939:
.LM2940:
.LM2941:
	call	mbedtls_mpi_read_string
.LVL1096:
	mv	s9,a0
.LVL1097:
.LM2942:
	bne	a0,zero,.L594
.LM2943:
.LM2944:
.LM2945:
.LVL1098:
.LBB288:
.LBI288:
.LM2946:
.LBB289:
.LM2947:
.LM2948:
.LM2949:
.LM2950:
.LM2951:
.LDL6:
.LM2952:
.LM2953:
.LBE289:
.LBE288:
.LM2954:
.LM2955:
.LM2956:
.LM2957:
	lw	a4,12(sp)
	lw	a3,8(sp)
	lw	a1,4(sp)
	lw	a0,0(sp)
	li	a5,0
	mv	a2,s11
	call	mbedtls_ecp_mul
.LVL1099:
	mv	s9,a0
.LVL1100:
.LM2958:
	bne	a0,zero,.L594
.LM2959:
.LM2960:
.LM2961:
	lw	a5,%lo(add_count)(s0)
	bne	s7,a5,.L604
.LM2962:
	lw	a5,%lo(dbl_count)(s1)
	bne	s6,a5,.L604
.LM2963:
	lw	a5,%lo(mul_count)(s2)
	bne	s5,a5,.L604
.LM2964:
	addi	s10,s10,1
.LVL1101:
.LM2965:
	bne	s10,s8,.L595
.LVL1102:
.LM2966:
.LM2967:
	beq	s3,zero,.L592
.LM2968:
	lui	a0,%hi(.LC15)
	addi	a0,a0,%lo(.LC15)
	call	printf
.LVL1103:
	j	.L592
.LVL1104:
.L593:
.LM2969:
.LM2970:
	beq	s3,zero,.L592
	li	s10,0
.LVL1105:
.L599:
.LM2971:
	lui	a0,%hi(.LC14)
	mv	a1,s10
	addi	a0,a0,%lo(.LC14)
	call	printf
.LVL1106:
.L592:
.LM2972:
	lw	ra,76(sp)
	.cfi_remember_state
	.cfi_restore 1
	lw	s0,72(sp)
	.cfi_restore 8
	lw	s1,68(sp)
	.cfi_restore 9
	lw	s2,64(sp)
	.cfi_restore 18
	lw	s3,60(sp)
	.cfi_restore 19
.LVL1107:
.LM2973:
	lw	s4,56(sp)
	.cfi_restore 20
.LVL1108:
.LM2974:
	lw	s5,52(sp)
	.cfi_restore 21
	lw	s6,48(sp)
	.cfi_restore 22
	lw	s7,44(sp)
	.cfi_restore 23
	lw	s8,40(sp)
	.cfi_restore 24
	lw	s10,32(sp)
	.cfi_restore 26
	lw	s11,28(sp)
	.cfi_restore 27
.LVL1109:
.LM2975:
	mv	a0,s9
	lw	s9,36(sp)
	.cfi_restore 25
	addi	sp,sp,80
	.cfi_def_cfa_offset 0
.LVL1110:
.LM2976:
	jr	ra
.LVL1111:
.L604:
	.cfi_restore_state
.LM2977:
	li	s9,1
.LVL1112:
.L594:
.LM2978:
.LM2979:
	beq	s3,zero,.L592
	j	.L599
	.cfi_endproc
.LFE124:
	.size	self_test_point.constprop.0, .-self_test_point.constprop.0
	.section	.text.mbedtls_ecp_mul_shortcuts,"ax",@progbits
	.align	1
	.type	mbedtls_ecp_mul_shortcuts, @function
mbedtls_ecp_mul_shortcuts:
.LVL1113:
.LFB84:
.LM2980:
	.cfi_startproc
.LM2981:
.LM2982:
.LM2983:
.LM2984:
	addi	sp,sp,-48
	.cfi_def_cfa_offset 48
	sw	s2,32(sp)
	.cfi_offset 18, -16
	mv	s2,a0
.LM2985:
	addi	a0,sp,8
.LVL1114:
.LM2986:
	sw	s0,40(sp)
	sw	s1,36(sp)
	sw	s3,28(sp)
	sw	s4,24(sp)
	sw	ra,44(sp)
	.cfi_offset 8, -8
	.cfi_offset 9, -12
	.cfi_offset 19, -20
	.cfi_offset 20, -24
	.cfi_offset 1, -4
.LM2987:
	mv	s3,a1
	mv	s0,a2
	mv	s1,a3
	mv	s4,a4
.LM2988:
	call	mbedtls_mpi_init
.LVL1115:
.LM2989:
.LM2990:
	li	a1,0
	mv	a0,s0
	call	mbedtls_mpi_cmp_int
.LVL1116:
.LM2991:
	bne	a0,zero,.L611
.LM2992:
.LM2993:
.LM2994:
	mv	a1,s1
	mv	a0,s2
	call	mbedtls_ecp_check_pubkey
.LVL1117:
	mv	s0,a0
.LVL1118:
.LM2995:
	bne	a0,zero,.L612
.LM2996:
.LM2997:
.LM2998:
.LM2999:
	mv	a0,s3
	call	mbedtls_ecp_set_zero
.LVL1119:
.L616:
.LM3000:
	mv	s0,a0
.L612:
.LVL1120:
.LM3001:
.LM3002:
	addi	a0,sp,8
	call	mbedtls_mpi_free
.LVL1121:
.LM3003:
.LM3004:
	lw	ra,44(sp)
	.cfi_remember_state
	.cfi_restore 1
	mv	a0,s0
	lw	s0,40(sp)
	.cfi_restore 8
.LVL1122:
.LM3005:
	lw	s1,36(sp)
	.cfi_restore 9
	lw	s2,32(sp)
	.cfi_restore 18
.LVL1123:
.LM3006:
	lw	s3,28(sp)
	.cfi_restore 19
	lw	s4,24(sp)
	.cfi_restore 20
.LVL1124:
.LM3007:
	addi	sp,sp,48
	.cfi_def_cfa_offset 0
	jr	ra
.LVL1125:
.L611:
	.cfi_restore_state
.LM3008:
.LM3009:
	li	a1,1
	mv	a0,s0
	call	mbedtls_mpi_cmp_int
.LVL1126:
.LM3010:
	bne	a0,zero,.L613
.LM3011:
.LM3012:
.LM3013:
	mv	a1,s1
	mv	a0,s2
	call	mbedtls_ecp_check_pubkey
.LVL1127:
	mv	s0,a0
.LVL1128:
.LM3014:
	bne	a0,zero,.L612
.LM3015:
.LM3016:
.LM3017:
.LM3018:
	mv	a1,s1
	mv	a0,s3
	call	mbedtls_ecp_copy
.LVL1129:
	j	.L616
.LVL1130:
.L613:
.LM3019:
.LM3020:
	li	a1,-1
	mv	a0,s0
	call	mbedtls_mpi_cmp_int
.LVL1131:
.LM3021:
	bne	a0,zero,.L614
.LM3022:
.LM3023:
.LM3024:
	mv	a1,s1
	mv	a0,s2
	call	mbedtls_ecp_check_pubkey
.LVL1132:
	mv	s0,a0
.LVL1133:
.LM3025:
	bne	a0,zero,.L612
.LM3026:
.LM3027:
.LM3028:
.LM3029:
	mv	a1,s1
	mv	a0,s3
	call	mbedtls_ecp_copy
.LVL1134:
	mv	s0,a0
.LVL1135:
.LM3030:
	bne	a0,zero,.L612
.LM3031:
.LM3032:
.LBB290:
.LM3033:
.LM3034:
	addi	s1,s3,8
.LVL1136:
.LM3035:
	li	a1,0
	mv	a0,s1
	call	mbedtls_mpi_cmp_int
.LVL1137:
	mv	s3,a0
.LVL1138:
.LM3036:
.LM3037:
.LM3038:
	mv	a2,s1
	addi	a1,s2,4
	addi	a0,sp,8
.LVL1139:
.LM3039:
	call	mbedtls_mpi_sub_mpi
.LVL1140:
	mv	s0,a0
.LVL1141:
.LM3040:
	bne	a0,zero,.L612
.LM3041:
.LM3042:
.LM3043:
.LM3044:
	snez	a2,s3
	addi	a1,sp,8
	mv	a0,s1
	call	mbedtls_mpi_safe_cond_assign
.LVL1142:
	j	.L616
.LVL1143:
.L614:
.LM3045:
.LBE290:
.LM3046:
.LM3047:
.LM3048:
	mv	a6,s4
	li	a5,0
	li	a4,0
	mv	a3,s1
	mv	a2,s0
	mv	a1,s3
	mv	a0,s2
	call	ecp_mul_restartable_internal
.LVL1144:
	j	.L616
	.cfi_endproc
.LFE84:
	.size	mbedtls_ecp_mul_shortcuts, .-mbedtls_ecp_mul_shortcuts
	.section	.text.mbedtls_ecp_muladd_restartable,"ax",@progbits
	.align	1
	.globl	mbedtls_ecp_muladd_restartable
	.type	mbedtls_ecp_muladd_restartable, @function
mbedtls_ecp_muladd_restartable:
.LVL1145:
.LFB85:
.LM3049:
	.cfi_startproc
.LM3050:
.LM3051:
.LM3052:
.LM3053:
	addi	sp,sp,-112
	.cfi_def_cfa_offset 112
.LVL1146:
.LM3054:
.LM3055:
	sw	s1,100(sp)
	sw	s4,88(sp)
	sw	s5,84(sp)
	sw	s6,80(sp)
	sw	s7,76(sp)
	sw	s8,72(sp)
	sw	s9,68(sp)
	sw	ra,108(sp)
	.cfi_offset 9, -12
	.cfi_offset 20, -24
	.cfi_offset 21, -28
	.cfi_offset 22, -32
	.cfi_offset 23, -36
	.cfi_offset 24, -40
	.cfi_offset 25, -44
	.cfi_offset 1, -4
	mv	s9,a5
	sw	s0,104(sp)
	sw	s2,96(sp)
	sw	s3,92(sp)
	.cfi_offset 8, -8
	.cfi_offset 18, -16
	.cfi_offset 19, -20
.LM3056:
	mv	s4,a0
	mv	s5,a1
.LVL1147:
.LM3057:
.LM3058:
.LM3059:
	mv	s6,a2
	mv	s7,a3
	mv	s8,a4
	mv	s1,a6
.LM3060:
	call	mbedtls_ecp_get_type
.LVL1148:
.LM3061:
	li	a5,1
	bne	a0,a5,.L642
.LM3062:
	addi	a0,sp,8
.LVL1149:
.LM3063:
	call	mbedtls_ecp_point_init
.LVL1150:
.LM3064:
	li	a1,4
	addi	a0,sp,32
	call	mpi_init_many
.LVL1151:
.LM3065:
.LM3066:
.LM3067:
	beq	s1,zero,.L620
.LM3068:
	lw	a5,4(s1)
.LM3069:
	addi	a4,a5,1
	sw	a4,4(s1)
.LM3070:
	bne	a5,zero,.L620
.LM3071:
.LM3072:
	sw	zero,0(s1)
.L620:
.LM3073:
.LBB299:
.LBI299:
.LM3074:
.LBB300:
.LM3075:
.LM3076:
	lui	a5,%hi(ecp_max_ops)
.LBE300:
.LBE299:
.LM3077:
	lw	a5,%lo(ecp_max_ops)(a5)
	beq	a5,zero,.L622
.LM3078:
	bne	s1,zero,.L623
.L626:
.LM3079:
	mv	s3,s5
.LM3080:
	addi	s2,sp,8
.LVL1152:
.L624:
.LM3081:
.LM3082:
.LM3083:
	mv	a4,s1
	mv	a3,s7
	mv	a2,s6
	mv	a1,s2
	mv	a0,s4
	call	mbedtls_ecp_mul_shortcuts
.LVL1153:
	mv	s0,a0
.LVL1154:
.LM3084:
	bne	a0,zero,.L630
.LM3085:
.LM3086:
.LM3087:
	beq	s1,zero,.L627
.LM3088:
	lw	a5,12(s1)
.LM3089:
	beq	a5,zero,.L627
.LM3090:
.LM3091:
	li	a4,1
	sb	a4,48(a5)
.LVL1155:
.L627:
.LM3092:
.LM3093:
.LM3094:
	mv	a4,s1
	mv	a3,s9
	mv	a2,s8
	mv	a1,s3
	mv	a0,s4
	call	mbedtls_ecp_mul_shortcuts
.LVL1156:
	mv	s0,a0
.LVL1157:
.LM3095:
	bne	a0,zero,.L630
.LM3096:
.LM3097:
.LM3098:
	beq	s1,zero,.L628
.LM3099:
	lw	a5,12(s1)
.LM3100:
	beq	a5,zero,.L628
.LM3101:
.LM3102:
	li	a4,2
	sb	a4,48(a5)
.LVL1158:
.L628:
.LM3103:
.LM3104:
.LM3105:
	li	a2,11
	mv	a1,s1
	mv	a0,s4
	call	mbedtls_ecp_check_budget
.LVL1159:
.LM3106:
	beq	a0,zero,.L635
.L638:
.LM3107:
	li	s0,-20480
	addi	s0,s0,1280
.LVL1160:
.L630:
.LM3108:
.LM3109:
	addi	a0,sp,32
	li	a1,4
	call	mpi_free_many
.LVL1161:
.LM3110:
.LBB301:
.LBI301:
.LM3111:
.LBB302:
.LM3112:
	addi	a0,sp,8
.LVL1162:
.LM3113:
	call	mbedtls_ecp_point_free.part.0
.LVL1163:
.LM3114:
.LBE302:
.LBE301:
.LM3115:
.LM3116:
.LM3117:
	beq	s1,zero,.L617
.LM3118:
	li	a5,20480
	addi	a5,a5,-1280
	add	a5,s0,a5
.LM3119:
	lw	a0,12(s1)
.LM3120:
	beq	a5,zero,.L640
	beq	a0,zero,.L640
.LM3121:
.LVL1164:
.LBB303:
.LBI303:
.LM3122:
.LBB304:
.LM3123:
	call	ecp_restart_ma_free.part.0
.LVL1165:
.LM3124:
.LBE304:
.LBE303:
.LM3125:
	lw	a0,12(s1)
	call	free
.LVL1166:
.LM3126:
.LM3127:
	sw	zero,12(s1)
.LM3128:
.L640:
.LM3129:
.LM3130:
	lw	a5,4(s1)
	addi	a5,a5,-1
	sw	a5,4(s1)
.LVL1167:
.L617:
.LM3131:
	lw	ra,108(sp)
	.cfi_remember_state
	.cfi_restore 1
	mv	a0,s0
	lw	s0,104(sp)
	.cfi_restore 8
	lw	s1,100(sp)
	.cfi_restore 9
.LVL1168:
.LM3132:
	lw	s2,96(sp)
	.cfi_restore 18
	lw	s3,92(sp)
	.cfi_restore 19
	lw	s4,88(sp)
	.cfi_restore 20
.LVL1169:
.LM3133:
	lw	s5,84(sp)
	.cfi_restore 21
.LVL1170:
.LM3134:
	lw	s6,80(sp)
	.cfi_restore 22
.LVL1171:
.LM3135:
	lw	s7,76(sp)
	.cfi_restore 23
.LVL1172:
.LM3136:
	lw	s8,72(sp)
	.cfi_restore 24
.LVL1173:
.LM3137:
	lw	s9,68(sp)
	.cfi_restore 25
.LVL1174:
.LM3138:
	addi	sp,sp,112
	.cfi_def_cfa_offset 0
	jr	ra
.LVL1175:
.L623:
	.cfi_restore_state
.LM3139:
	lw	a5,12(s1)
	bne	a5,zero,.L625
.LM3140:
.LM3141:
	li	a1,52
	li	a0,1
	call	calloc
.LVL1176:
.LM3142:
	li	s0,-20480
.LM3143:
	sw	a0,12(s1)
.LM3144:
.LM3145:
	mv	s2,a0
.LM3146:
	addi	s0,s0,640
.LM3147:
	beq	a0,zero,.L617
.LM3148:
.LVL1177:
.LBB305:
.LBI305:
.LM3149:
.LBB306:
.LM3150:
	call	mbedtls_ecp_point_init
.LVL1178:
.LM3151:
	addi	a0,s2,24
	call	mbedtls_ecp_point_init
.LVL1179:
.LM3152:
.LM3153:
	sb	zero,48(s2)
.LVL1180:
.LM3154:
.LBE306:
.LBE305:
.LM3155:
.LM3156:
.L625:
.LM3157:
	lw	s2,12(s1)
.LM3158:
	beq	s2,zero,.L626
.LM3159:
.LVL1181:
.LM3160:
.LM3161:
	lbu	a5,48(s2)
.LM3162:
	li	a4,1
.LM3163:
	addi	s3,s2,24
.LVL1182:
.LM3164:
.LM3165:
	beq	a5,a4,.L627
.LM3166:
.LM3167:
	li	a4,2
	beq	a5,a4,.L628
.LM3168:
.LM3169:
	li	a4,3
	bne	a5,a4,.L624
.LVL1183:
.L629:
.LM3170:
.LM3171:
.LM3172:
	li	a2,120
	mv	a1,s1
	mv	a0,s4
	call	mbedtls_ecp_check_budget
.LVL1184:
.LM3173:
	bne	a0,zero,.L638
.LM3174:
.LM3175:
.LM3176:
.LM3177:
.LM3178:
	mv	a1,s3
	mv	a0,s4
.LVL1185:
.LM3179:
	call	ecp_normalize_jac
.LVL1186:
	mv	s0,a0
.LVL1187:
.LM3180:
	bne	a0,zero,.L630
.LM3181:
.LM3182:
.LM3183:
	beq	s1,zero,.L630
.LM3184:
	lw	a5,12(s1)
	beq	a5,zero,.L630
.LM3185:
.LM3186:
.LM3187:
	mv	a1,s3
	mv	a0,s5
	call	mbedtls_ecp_copy
.LVL1188:
	mv	s0,a0
.LVL1189:
.LM3188:
	j	.L630
.LVL1190:
.L622:
.LM3189:
.LM3190:
.LM3191:
	bne	s1,zero,.L625
	j	.L626
.LVL1191:
.L635:
.LM3192:
.LM3193:
.LM3194:
.LM3195:
.LM3196:
	addi	a4,sp,32
	mv	a3,s3
	mv	a2,s2
	mv	a1,s3
	mv	a0,s4
.LVL1192:
.LM3197:
	call	ecp_add_mixed
.LVL1193:
	mv	s0,a0
.LVL1194:
.LM3198:
	bne	a0,zero,.L630
.LM3199:
.LM3200:
.LM3201:
	beq	s1,zero,.L629
.LM3202:
	lw	a5,12(s1)
.LM3203:
	beq	a5,zero,.L629
.LM3204:
.LM3205:
	li	a4,3
	sb	a4,48(a5)
	j	.L629
.LVL1195:
.L642:
.LM3206:
	li	s0,-20480
	addi	s0,s0,384
	j	.L617
	.cfi_endproc
.LFE85:
	.size	mbedtls_ecp_muladd_restartable, .-mbedtls_ecp_muladd_restartable
	.section	.text.mbedtls_ecp_muladd,"ax",@progbits
	.align	1
	.globl	mbedtls_ecp_muladd
	.type	mbedtls_ecp_muladd, @function
mbedtls_ecp_muladd:
.LVL1196:
.LFB86:
.LM3207:
	.cfi_startproc
.LM3208:
.LM3209:
	li	a6,0
	tail	mbedtls_ecp_muladd_restartable
.LVL1197:
.LM3210:
	.cfi_endproc
.LFE86:
	.size	mbedtls_ecp_muladd, .-mbedtls_ecp_muladd
	.section	.text.mbedtls_ecp_gen_privkey,"ax",@progbits
	.align	1
	.globl	mbedtls_ecp_gen_privkey
	.type	mbedtls_ecp_gen_privkey, @function
mbedtls_ecp_gen_privkey:
.LVL1198:
.LFB93:
.LM3211:
	.cfi_startproc
.LM3212:
.LM3213:
	addi	sp,sp,-32
	.cfi_def_cfa_offset 32
	sw	s0,24(sp)
	sw	s1,20(sp)
	sw	s2,16(sp)
	sw	a2,12(sp)
	sw	a3,8(sp)
	sw	ra,28(sp)
	.cfi_offset 8, -8
	.cfi_offset 9, -12
	.cfi_offset 18, -16
	.cfi_offset 1, -4
.LM3214:
	mv	s1,a0
	mv	s2,a1
.LM3215:
	call	mbedtls_ecp_get_type
.LVL1199:
.LM3216:
	li	a5,2
	lw	a3,8(sp)
	lw	a2,12(sp)
.LM3217:
	mv	s0,a0
.LM3218:
	bne	a0,a5,.L674
	lw	s1,64(s1)
.LVL1200:
.LBB313:
.LBI313:
.LM3219:
.LM3220:
.LBB314:
.LBI314:
.LM3221:
.LBB315:
.LM3222:
.LM3223:
.LM3224:
	mv	a0,s2
.LM3225:
	srli	a1,s1,3
.LM3226:
	addi	a1,a1,1
.LVL1201:
.LM3227:
.LM3228:
.LM3229:
	sw	a1,8(sp)
.LVL1202:
.LM3230:
	call	mbedtls_mpi_fill_random
.LVL1203:
.LM3231:
	bne	a0,zero,.L673
.LM3232:
.LM3233:
.LM3234:
.LM3235:
	lw	a1,8(sp)
.LM3236:
	mv	a0,s2
.LVL1204:
.LM3237:
	slli	a1,a1,3
.LM3238:
	sub	a1,a1,s1
	addi	a1,a1,-1
	call	mbedtls_mpi_shift_r
.LVL1205:
.LM3239:
	bne	a0,zero,.L673
.LM3240:
.LM3241:
.LM3242:
.LM3243:
	li	a2,1
	mv	a1,s1
	mv	a0,s2
.LVL1206:
.LM3244:
	call	mbedtls_mpi_set_bit
.LVL1207:
.LM3245:
	bne	a0,zero,.L673
.LM3246:
.LM3247:
.LM3248:
.LM3249:
	li	a2,0
	li	a1,0
	mv	a0,s2
.LVL1208:
.LM3250:
	call	mbedtls_mpi_set_bit
.LVL1209:
.LM3251:
	bne	a0,zero,.L673
.LM3252:
.LM3253:
.LM3254:
.LM3255:
	li	a2,0
	li	a1,1
	mv	a0,s2
.LVL1210:
.LM3256:
	call	mbedtls_mpi_set_bit
.LVL1211:
.LM3257:
	bne	a0,zero,.L673
.LM3258:
.LM3259:
.LM3260:
	li	a5,254
	bne	s1,a5,.L673
.LM3261:
.LM3262:
.LM3263:
	mv	a1,s0
.LBE315:
.LBE314:
.LBE313:
.LM3264:
	lw	s0,24(sp)
	.cfi_remember_state
	.cfi_restore 8
	lw	ra,28(sp)
	.cfi_restore 1
	lw	s1,20(sp)
	.cfi_restore 9
.LVL1212:
.LBB322:
.LBB319:
.LBB316:
.LM3265:
	mv	a0,s2
.LVL1213:
.LM3266:
.LBE316:
.LBE319:
.LBE322:
.LM3267:
	lw	s2,16(sp)
	.cfi_restore 18
.LVL1214:
.LBB323:
.LBB320:
.LBB317:
.LM3268:
	li	a2,0
.LBE317:
.LBE320:
.LBE323:
.LM3269:
	addi	sp,sp,32
	.cfi_def_cfa_offset 0
.LVL1215:
.LBB324:
.LBB321:
.LBB318:
.LM3270:
	tail	mbedtls_mpi_set_bit
.LVL1216:
.L674:
	.cfi_restore_state
.LM3271:
.LBE318:
.LBE321:
.LBE324:
.LM3272:
.LM3273:
	li	a0,-20480
.LM3274:
	li	a5,1
.LM3275:
	addi	a0,a0,128
.LM3276:
	bne	s0,a5,.L673
.LM3277:
.LVL1217:
.LBB325:
.LBI325:
.LM3278:
.LBB326:
.LM3279:
.LM3280:
	mv	a4,a3
	mv	a1,s0
	mv	a3,a2
.LVL1218:
.LM3281:
	mv	a0,s2
	addi	a2,s1,52
.LVL1219:
.LM3282:
	call	mbedtls_mpi_random
.LVL1220:
.LM3283:
	li	a5,-14
	bne	a0,a5,.L673
.LM3284:
	li	a0,-20480
.LVL1221:
.LM3285:
	addi	a0,a0,768
.LVL1222:
.L673:
.LM3286:
.LBE326:
.LBE325:
.LM3287:
	lw	ra,28(sp)
	.cfi_restore 1
	lw	s0,24(sp)
	.cfi_restore 8
	lw	s1,20(sp)
	.cfi_restore 9
	lw	s2,16(sp)
	.cfi_restore 18
.LVL1223:
.LM3288:
	addi	sp,sp,32
	.cfi_def_cfa_offset 0
.LVL1224:
.LM3289:
	jr	ra
	.cfi_endproc
.LFE93:
	.size	mbedtls_ecp_gen_privkey, .-mbedtls_ecp_gen_privkey
	.section	.text.mbedtls_ecp_gen_keypair_base,"ax",@progbits
	.align	1
	.globl	mbedtls_ecp_gen_keypair_base
	.type	mbedtls_ecp_gen_keypair_base, @function
mbedtls_ecp_gen_keypair_base:
.LVL1225:
.LFB94:
.LM3290:
	.cfi_startproc
.LM3291:
.LM3292:
.LM3293:
.LM3294:
	addi	sp,sp,-48
	.cfi_def_cfa_offset 48
	sw	s0,40(sp)
	.cfi_offset 8, -8
	mv	s0,a2
	sw	s2,32(sp)
	sw	s3,28(sp)
	.cfi_offset 18, -16
	.cfi_offset 19, -20
	mv	s2,a1
	mv	s3,a3
.LM3295:
	mv	a2,a4
.LVL1226:
.LM3296:
	mv	a3,a5
.LVL1227:
.LM3297:
	mv	a1,s0
.LVL1228:
.LM3298:
	sw	s1,36(sp)
	sw	ra,44(sp)
	.cfi_offset 9, -12
	.cfi_offset 1, -4
.LM3299:
	mv	s1,a0
.LM3300:
	sw	a5,12(sp)
	sw	a4,8(sp)
	call	mbedtls_ecp_gen_privkey
.LVL1229:
.LM3301:
	bne	a0,zero,.L678
.LM3302:
.LM3303:
.LM3304:
.LM3305:
	mv	a2,s0
.LM3306:
	lw	s0,40(sp)
	.cfi_remember_state
	.cfi_restore 8
.LVL1230:
.LM3307:
	lw	a5,12(sp)
	lw	a4,8(sp)
.LM3308:
	lw	ra,44(sp)
	.cfi_restore 1
.LM3309:
	mv	a3,s2
	mv	a1,s3
.LM3310:
	lw	s2,32(sp)
	.cfi_restore 18
.LVL1231:
.LM3311:
	lw	s3,28(sp)
	.cfi_restore 19
.LVL1232:
.LM3312:
	mv	a0,s1
.LVL1233:
.LM3313:
	lw	s1,36(sp)
	.cfi_restore 9
.LVL1234:
.LM3314:
	addi	sp,sp,48
	.cfi_def_cfa_offset 0
.LVL1235:
.LM3315:
	tail	mbedtls_ecp_mul
.LVL1236:
.L679:
.L678:
	.cfi_restore_state
.LM3316:
	lw	ra,44(sp)
	.cfi_restore 1
	lw	s0,40(sp)
	.cfi_restore 8
.LVL1237:
.LM3317:
	lw	s1,36(sp)
	.cfi_restore 9
.LVL1238:
.LM3318:
	lw	s2,32(sp)
	.cfi_restore 18
.LVL1239:
.LM3319:
	lw	s3,28(sp)
	.cfi_restore 19
.LVL1240:
.LM3320:
	addi	sp,sp,48
	.cfi_def_cfa_offset 0
.LVL1241:
.LM3321:
	jr	ra
	.cfi_endproc
.LFE94:
	.size	mbedtls_ecp_gen_keypair_base, .-mbedtls_ecp_gen_keypair_base
	.section	.text.mbedtls_ecp_gen_keypair,"ax",@progbits
	.align	1
	.globl	mbedtls_ecp_gen_keypair
	.type	mbedtls_ecp_gen_keypair, @function
mbedtls_ecp_gen_keypair:
.LVL1242:
.LFB95:
.LM3322:
	.cfi_startproc
.LM3323:
.LM3324:
	mv	a5,a4
.LM3325:
	mv	a4,a3
.LVL1243:
.LM3326:
	mv	a3,a2
.LVL1244:
.LM3327:
	mv	a2,a1
.LVL1245:
.LM3328:
	addi	a1,a0,28
.LVL1246:
.LM3329:
	tail	mbedtls_ecp_gen_keypair_base
.LVL1247:
.LM3330:
	.cfi_endproc
.LFE95:
	.size	mbedtls_ecp_gen_keypair, .-mbedtls_ecp_gen_keypair
	.section	.text.mbedtls_ecp_gen_key,"ax",@progbits
	.align	1
	.globl	mbedtls_ecp_gen_key
	.type	mbedtls_ecp_gen_key, @function
mbedtls_ecp_gen_key:
.LVL1248:
.LFB96:
.LM3331:
	.cfi_startproc
.LM3332:
.LM3333:
.LM3334:
	addi	sp,sp,-32
	.cfi_def_cfa_offset 32
	sw	s0,24(sp)
	.cfi_offset 8, -8
	mv	s0,a1
.LM3335:
	mv	a1,a0
.LVL1249:
.LM3336:
	mv	a0,s0
.LVL1250:
.LM3337:
	sw	ra,28(sp)
	.cfi_offset 1, -4
.LM3338:
	sw	a2,12(sp)
	sw	a3,8(sp)
.LM3339:
	call	mbedtls_ecp_group_load
.LVL1251:
.LM3340:
	bne	a0,zero,.L682
.LM3341:
.LM3342:
	addi	a2,s0,104
	addi	a1,s0,96
	mv	a0,s0
.LVL1252:
.LM3343:
	lw	s0,24(sp)
	.cfi_remember_state
	.cfi_restore 8
.LVL1253:
.LM3344:
	lw	a4,8(sp)
	lw	a3,12(sp)
.LM3345:
	lw	ra,28(sp)
	.cfi_restore 1
	addi	sp,sp,32
	.cfi_def_cfa_offset 0
.LVL1254:
.LM3346:
	tail	mbedtls_ecp_gen_keypair
.LVL1255:
.L682:
	.cfi_restore_state
.LM3347:
	lw	ra,28(sp)
	.cfi_restore 1
	lw	s0,24(sp)
	.cfi_restore 8
.LVL1256:
.LM3348:
	addi	sp,sp,32
	.cfi_def_cfa_offset 0
.LVL1257:
.LM3349:
	jr	ra
	.cfi_endproc
.LFE96:
	.size	mbedtls_ecp_gen_key, .-mbedtls_ecp_gen_key
	.section	.text.mbedtls_ecp_set_public_key,"ax",@progbits
	.align	1
	.globl	mbedtls_ecp_set_public_key
	.type	mbedtls_ecp_set_public_key, @function
mbedtls_ecp_set_public_key:
.LVL1258:
.LFB97:
.LM3350:
	.cfi_startproc
.LM3351:
.LM3352:
.LM3353:
	addi	sp,sp,-32
	.cfi_def_cfa_offset 32
	sw	s0,24(sp)
	sw	ra,28(sp)
	.cfi_offset 8, -8
	.cfi_offset 1, -4
.LM3354:
	lbu	a5,0(a1)
.LM3355:
	mv	s0,a1
.LM3356:
	bne	a5,zero,.L686
.LM3357:
	mv	a1,a0
.LVL1259:
.LM3358:
	mv	a0,s0
.LVL1260:
.LM3359:
	sw	a2,12(sp)
.LM3360:
.LM3361:
	call	mbedtls_ecp_group_load
.LVL1261:
.LM3362:
	lw	a2,12(sp)
	bne	a0,zero,.L685
.LVL1262:
.L688:
.LM3363:
.LM3364:
	addi	a0,s0,104
.LM3365:
	lw	s0,24(sp)
	.cfi_remember_state
	.cfi_restore 8
.LVL1263:
.LM3366:
	lw	ra,28(sp)
	.cfi_restore 1
.LM3367:
	mv	a1,a2
.LM3368:
	addi	sp,sp,32
	.cfi_def_cfa_offset 0
.LM3369:
	tail	mbedtls_ecp_copy
.LVL1264:
.L686:
	.cfi_restore_state
.LM3370:
.LM3371:
	beq	a5,a0,.L688
.LM3372:
	li	a0,-20480
.LVL1265:
.LM3373:
	addi	a0,a0,128
.LVL1266:
.L685:
.LM3374:
	lw	ra,28(sp)
	.cfi_restore 1
	lw	s0,24(sp)
	.cfi_restore 8
.LVL1267:
.LM3375:
	addi	sp,sp,32
	.cfi_def_cfa_offset 0
	jr	ra
	.cfi_endproc
.LFE97:
	.size	mbedtls_ecp_set_public_key, .-mbedtls_ecp_set_public_key
	.section	.text.mbedtls_ecp_read_key,"ax",@progbits
	.align	1
	.globl	mbedtls_ecp_read_key
	.type	mbedtls_ecp_read_key, @function
mbedtls_ecp_read_key:
.LVL1268:
.LFB98:
.LM3376:
	.cfi_startproc
.LM3377:
.LM3378:
.LM3379:
	addi	sp,sp,-32
	.cfi_def_cfa_offset 32
	sw	s1,20(sp)
	.cfi_offset 9, -12
	mv	s1,a1
	sw	s0,24(sp)
.LM3380:
	mv	a1,a0
.LVL1269:
	.cfi_offset 8, -8
.LM3381:
	mv	s0,a0
.LM3382:
	mv	a0,s1
.LVL1270:
.LM3383:
	sw	s2,16(sp)
	sw	s3,12(sp)
	sw	s5,4(sp)
	sw	ra,28(sp)
	sw	s4,8(sp)
	sw	s6,0(sp)
	.cfi_offset 18, -16
	.cfi_offset 19, -20
	.cfi_offset 21, -28
	.cfi_offset 1, -4
	.cfi_offset 20, -24
	.cfi_offset 22, -32
.LM3384:
	mv	s5,a2
	mv	s3,a3
.LM3385:
	call	mbedtls_ecp_group_load
.LVL1271:
.LM3386:
	mv	s2,a0
.LVL1272:
.LM3387:
	bne	a0,zero,.L698
.LM3388:
.LVL1273:
.LM3389:
.LM3390:
	mv	a0,s1
	call	mbedtls_ecp_get_type
.LVL1274:
.LM3391:
	li	a5,2
.LM3392:
	mv	s6,a0
.LM3393:
	bne	a0,a5,.L701
.LM3394:
.LM3395:
	li	a5,9
	bne	s0,a5,.L693
.LM3396:
.LM3397:
	li	s0,-20480
.LVL1275:
.LM3398:
	li	a5,32
.LM3399:
	addi	s0,s0,896
.LM3400:
	bne	s3,a5,.L690
.LM3401:
.LM3402:
.LM3403:
	mv	a2,s3
	mv	a1,s5
	addi	a0,s1,96
	call	mbedtls_mpi_read_binary_le
.LVL1276:
	mv	s0,a0
.LVL1277:
.LM3404:
	bne	a0,zero,.L694
.LM3405:
.LM3406:
.LM3407:
.LM3408:
	li	a2,0
	li	a1,0
	addi	a0,s1,96
	call	mbedtls_mpi_set_bit
.LVL1278:
	mv	s0,a0
.LVL1279:
.LM3409:
	bne	a0,zero,.L694
.LM3410:
.LM3411:
.LM3412:
.LM3413:
	li	a2,0
	li	a1,1
	addi	a0,s1,96
	call	mbedtls_mpi_set_bit
.LVL1280:
	mv	s0,a0
.LVL1281:
.LM3414:
	bne	a0,zero,.L694
.LM3415:
.LM3416:
.LM3417:
.LM3418:
	li	a2,0
	mv	a1,s6
	addi	a0,s1,96
	call	mbedtls_mpi_set_bit
.LVL1282:
	mv	s0,a0
.LVL1283:
.LM3419:
	bne	a0,zero,.L694
.LM3420:
.LM3421:
.LM3422:
.LM3423:
	li	a2,0
	li	a1,255
	addi	a0,s1,96
	call	mbedtls_mpi_set_bit
.LVL1284:
	mv	s0,a0
.LVL1285:
.LM3424:
	bne	a0,zero,.L694
.LM3425:
.LM3426:
.LM3427:
.LM3428:
	li	a2,1
	li	a1,254
.L708:
.LM3429:
	addi	a0,s1,96
	call	mbedtls_mpi_set_bit
.LVL1286:
	mv	s0,a0
.LVL1287:
.LM3430:
	beq	a0,zero,.L692
.LVL1288:
.L694:
.LM3431:
	addi	a0,s1,96
	call	mbedtls_mpi_free
.LVL1289:
	j	.L690
.LVL1290:
.L693:
.LM3432:
.LM3433:
	li	a5,13
	bne	s0,a5,.L701
.LM3434:
.LM3435:
	li	s0,-20480
.LM3436:
	li	a5,56
.LM3437:
	addi	s0,s0,896
.LM3438:
	bne	s3,a5,.L690
.LM3439:
.LM3440:
.LM3441:
	mv	a2,s3
	mv	a1,s5
	addi	a0,s1,96
	call	mbedtls_mpi_read_binary_le
.LVL1291:
	mv	s0,a0
.LVL1292:
.LM3442:
	bne	a0,zero,.L694
.LM3443:
.LM3444:
.LM3445:
.LM3446:
	li	a2,0
	li	a1,0
	addi	a0,s1,96
	call	mbedtls_mpi_set_bit
.LVL1293:
	mv	s0,a0
.LVL1294:
.LM3447:
	bne	a0,zero,.L694
.LM3448:
.LM3449:
.LM3450:
.LM3451:
	li	a2,0
	li	a1,1
	addi	a0,s1,96
	call	mbedtls_mpi_set_bit
.LVL1295:
	mv	s0,a0
.LVL1296:
.LM3452:
	bne	a0,zero,.L694
.LM3453:
.LM3454:
.LM3455:
.LM3456:
	li	a2,1
	li	a1,447
	j	.L708
.LVL1297:
.L701:
.LM3457:
	li	s2,-20480
	addi	s2,s2,384
.LVL1298:
.L692:
.LM3458:
.LM3459:
.LM3460:
	mv	a0,s1
	call	mbedtls_ecp_get_type
.LVL1299:
.LM3461:
	li	a5,1
	addi	s4,s1,96
	bne	a0,a5,.L696
.LM3462:
.LM3463:
.LM3464:
	mv	a2,s3
	mv	a1,s5
	mv	a0,s4
	call	mbedtls_mpi_read_binary
.LVL1300:
	mv	s0,a0
.LVL1301:
.LM3465:
	bne	a0,zero,.L694
.LVL1302:
.L697:
.LM3466:
.LM3467:
.LM3468:
	mv	a1,s4
	mv	a0,s1
	call	mbedtls_ecp_check_privkey
.LVL1303:
	mv	s0,a0
.LVL1304:
.LM3469:
	bne	a0,zero,.L694
.LVL1305:
.L690:
.LM3470:
	lw	ra,28(sp)
	.cfi_remember_state
	.cfi_restore 1
	mv	a0,s0
	lw	s0,24(sp)
	.cfi_restore 8
	lw	s1,20(sp)
	.cfi_restore 9
.LVL1306:
.LM3471:
	lw	s2,16(sp)
	.cfi_restore 18
	lw	s3,12(sp)
	.cfi_restore 19
.LVL1307:
.LM3472:
	lw	s4,8(sp)
	.cfi_restore 20
	lw	s5,4(sp)
	.cfi_restore 21
.LVL1308:
.LM3473:
	lw	s6,0(sp)
	.cfi_restore 22
	addi	sp,sp,32
	.cfi_def_cfa_offset 0
	jr	ra
.LVL1309:
.L696:
	.cfi_restore_state
.LM3474:
.LM3475:
.LM3476:
	beq	s2,zero,.L697
.LM3477:
	li	s0,-20480
	addi	s0,s0,384
	j	.L694
.LVL1310:
.L698:
.LM3478:
	mv	s0,a0
	j	.L690
	.cfi_endproc
.LFE98:
	.size	mbedtls_ecp_read_key, .-mbedtls_ecp_read_key
	.section	.text.mbedtls_ecp_write_key_ext,"ax",@progbits
	.align	1
	.globl	mbedtls_ecp_write_key_ext
	.type	mbedtls_ecp_write_key_ext, @function
mbedtls_ecp_write_key_ext:
.LVL1311:
.LFB99:
.LM3479:
	.cfi_startproc
.LM3480:
.LM3481:
	lw	a5,64(a0)
.LM3482:
	mv	a6,a2
.LM3483:
	addi	a5,a5,7
.LM3484:
	srli	a2,a5,3
.LVL1312:
.LM3485:
.LM3486:
	bleu	a2,a3,.L710
.LM3487:
.LM3488:
	li	a0,-20480
.LVL1313:
.LM3489:
	sw	zero,0(a1)
.LM3490:
.LM3491:
	addi	a0,a0,256
	ret
.LVL1314:
.L710:
.LM3492:
.LM3493:
	sw	a2,0(a1)
.LM3494:
.LM3495:
	lhu	a5,102(a0)
	beq	a5,zero,.L713
.LM3496:
	addi	sp,sp,-32
	.cfi_def_cfa_offset 32
.LM3497:
	sw	a2,12(sp)
.LM3498:
	sw	ra,28(sp)
	.cfi_offset 1, -4
	sw	a6,8(sp)
	sw	a0,4(sp)
.LM3499:
.LM3500:
	call	mbedtls_ecp_get_type
.LVL1315:
.LM3501:
	li	a5,2
	lw	a4,4(sp)
	lw	a1,8(sp)
	lw	a2,12(sp)
	bne	a0,a5,.L712
.LVL1316:
.LM3502:
.LM3503:
	lw	ra,28(sp)
	.cfi_remember_state
	.cfi_restore 1
.LM3504:
	addi	a0,a4,96
.LM3505:
	addi	sp,sp,32
	.cfi_def_cfa_offset 0
.LM3506:
	tail	mbedtls_mpi_write_binary_le
.LVL1317:
.L712:
	.cfi_restore_state
.LM3507:
.LM3508:
	li	a5,1
	bne	a0,a5,.L714
.LM3509:
.LM3510:
	lw	ra,28(sp)
	.cfi_restore 1
.LM3511:
	addi	a0,a4,96
.LM3512:
	addi	sp,sp,32
	.cfi_def_cfa_offset 0
.LM3513:
	tail	mbedtls_mpi_write_binary
.LVL1318:
.L713:
.LM3514:
	li	a0,-20480
.LVL1319:
.LM3515:
	addi	a0,a0,128
.LM3516:
	ret
.LVL1320:
.L714:
	.cfi_def_cfa_offset 32
	.cfi_offset 1, -4
.LM3517:
	lw	ra,28(sp)
	.cfi_restore 1
.LM3518:
	li	a0,-110
.LM3519:
	addi	sp,sp,32
	.cfi_def_cfa_offset 0
	jr	ra
	.cfi_endproc
.LFE99:
	.size	mbedtls_ecp_write_key_ext, .-mbedtls_ecp_write_key_ext
	.section	.text.mbedtls_ecp_write_public_key,"ax",@progbits
	.align	1
	.globl	mbedtls_ecp_write_public_key
	.type	mbedtls_ecp_write_public_key, @function
mbedtls_ecp_write_public_key:
.LVL1321:
.LFB100:
.LM3520:
	.cfi_startproc
.LM3521:
.LM3522:
	mv	a5,a4
.LM3523:
	mv	a4,a3
.LVL1322:
.LM3524:
	mv	a3,a2
.LVL1323:
.LM3525:
	mv	a2,a1
.LVL1324:
.LM3526:
	addi	a1,a0,104
.LVL1325:
.LM3527:
	tail	mbedtls_ecp_point_write_binary
.LVL1326:
.LM3528:
	.cfi_endproc
.LFE100:
	.size	mbedtls_ecp_write_public_key, .-mbedtls_ecp_write_public_key
	.section	.text.mbedtls_ecp_check_pub_priv,"ax",@progbits
	.align	1
	.globl	mbedtls_ecp_check_pub_priv
	.type	mbedtls_ecp_check_pub_priv, @function
mbedtls_ecp_check_pub_priv:
.LVL1327:
.LFB101:
.LM3529:
	.cfi_startproc
.LM3530:
.LM3531:
.LM3532:
.LM3533:
.LM3534:
	addi	sp,sp,-160
	.cfi_def_cfa_offset 160
	sw	ra,156(sp)
	sw	s0,152(sp)
	sw	s1,148(sp)
	sw	s2,144(sp)
	sw	s3,140(sp)
	sw	s4,136(sp)
	sw	s5,132(sp)
	sw	s6,128(sp)
	.cfi_offset 1, -4
	.cfi_offset 8, -8
	.cfi_offset 9, -12
	.cfi_offset 18, -16
	.cfi_offset 19, -20
	.cfi_offset 20, -24
	.cfi_offset 21, -28
	.cfi_offset 22, -32
.LM3535:
	lbu	a5,0(a0)
.LM3536:
	bne	a5,zero,.L721
.LVL1328:
.L723:
.LM3537:
	li	s0,-20480
	addi	s0,s0,128
.LVL1329:
.L720:
.LM3538:
	lw	ra,156(sp)
	.cfi_remember_state
	.cfi_restore 1
	mv	a0,s0
	lw	s0,152(sp)
	.cfi_restore 8
	lw	s1,148(sp)
	.cfi_restore 9
	lw	s2,144(sp)
	.cfi_restore 18
	lw	s3,140(sp)
	.cfi_restore 19
	lw	s4,136(sp)
	.cfi_restore 20
	lw	s5,132(sp)
	.cfi_restore 21
	lw	s6,128(sp)
	.cfi_restore 22
	addi	sp,sp,160
	.cfi_def_cfa_offset 0
	jr	ra
.LVL1330:
.L721:
	.cfi_restore_state
.LM3539:
	lbu	a4,0(a1)
	bne	a4,a5,.L723
.LM3540:
	addi	s2,a1,104
	mv	s0,a1
	mv	s1,a0
	mv	a1,s2
.LVL1331:
.LM3541:
	addi	a0,a0,104
.LVL1332:
.LM3542:
	mv	s6,a3
	mv	s5,a2
	call	mbedtls_mpi_cmp_mpi
.LVL1333:
.LM3543:
	bne	a0,zero,.L723
.LM3544:
	addi	s3,s0,112
	mv	a1,s3
	addi	a0,s1,112
	call	mbedtls_mpi_cmp_mpi
.LVL1334:
.LM3545:
	bne	a0,zero,.L723
.LM3546:
	addi	s4,s0,120
	mv	a1,s4
	addi	a0,s1,120
	call	mbedtls_mpi_cmp_mpi
.LVL1335:
.LM3547:
	bne	a0,zero,.L723
.LM3548:
	addi	a0,sp,8
	call	mbedtls_ecp_point_init
.LVL1336:
.LM3549:
	addi	a0,sp,32
	call	mbedtls_ecp_group_init
.LVL1337:
.LM3550:
	mv	a1,s0
	addi	a0,sp,32
	call	mbedtls_ecp_group_copy
.LVL1338:
.LM3551:
.LM3552:
.LM3553:
	addi	a3,s0,28
	addi	a2,s0,96
	mv	a5,s6
	mv	a4,s5
	addi	a1,sp,8
	addi	a0,sp,32
	call	mbedtls_ecp_mul
.LVL1339:
	mv	s0,a0
.LVL1340:
.LM3554:
	bne	a0,zero,.L724
.LM3555:
.LM3556:
.LM3557:
	mv	a1,s2
	addi	a0,sp,8
	call	mbedtls_mpi_cmp_mpi
.LVL1341:
.LM3558:
	bne	a0,zero,.L726
.LM3559:
	mv	a1,s3
	addi	a0,sp,16
	call	mbedtls_mpi_cmp_mpi
.LVL1342:
.LM3560:
	bne	a0,zero,.L726
.LM3561:
	mv	a1,s4
	addi	a0,sp,24
	call	mbedtls_mpi_cmp_mpi
.LVL1343:
	mv	s0,a0
.LVL1344:
.LM3562:
	beq	a0,zero,.L724
.L726:
.LM3563:
	li	s0,-20480
	addi	s0,s0,128
.L724:
.LVL1345:
.LM3564:
.LBB327:
.LBI327:
.LM3565:
.LBB328:
.LM3566:
	addi	a0,sp,8
.LVL1346:
.LM3567:
	call	mbedtls_ecp_point_free.part.0
.LVL1347:
.LM3568:
.LBE328:
.LBE327:
.LM3569:
	addi	a0,sp,32
	call	mbedtls_ecp_group_free
.LVL1348:
.LM3570:
.LM3571:
	j	.L720
	.cfi_endproc
.LFE101:
	.size	mbedtls_ecp_check_pub_priv, .-mbedtls_ecp_check_pub_priv
	.section	.text.mbedtls_ecp_keypair_calc_public,"ax",@progbits
	.align	1
	.globl	mbedtls_ecp_keypair_calc_public
	.type	mbedtls_ecp_keypair_calc_public, @function
mbedtls_ecp_keypair_calc_public:
.LVL1349:
.LFB102:
.LM3572:
	.cfi_startproc
.LM3573:
.LM3574:
	mv	a4,a1
	mv	a5,a2
.LM3575:
	addi	a3,a0,28
	addi	a2,a0,96
.LVL1350:
.LM3576:
	addi	a1,a0,104
.LVL1351:
.LM3577:
	tail	mbedtls_ecp_mul
.LVL1352:
.LM3578:
	.cfi_endproc
.LFE102:
	.size	mbedtls_ecp_keypair_calc_public, .-mbedtls_ecp_keypair_calc_public
	.section	.text.mbedtls_ecp_keypair_get_group_id,"ax",@progbits
	.align	1
	.globl	mbedtls_ecp_keypair_get_group_id
	.type	mbedtls_ecp_keypair_get_group_id, @function
mbedtls_ecp_keypair_get_group_id:
.LVL1353:
.LFB103:
.LM3579:
	.cfi_startproc
.LM3580:
.LM3581:
	lbu	a0,0(a0)
.LVL1354:
.LM3582:
	ret
	.cfi_endproc
.LFE103:
	.size	mbedtls_ecp_keypair_get_group_id, .-mbedtls_ecp_keypair_get_group_id
	.section	.text.mbedtls_ecp_export,"ax",@progbits
	.align	1
	.globl	mbedtls_ecp_export
	.type	mbedtls_ecp_export, @function
mbedtls_ecp_export:
.LVL1355:
.LFB104:
.LM3583:
	.cfi_startproc
.LM3584:
.LM3585:
.LM3586:
	addi	sp,sp,-32
	.cfi_def_cfa_offset 32
	sw	s0,24(sp)
	sw	s1,20(sp)
	sw	ra,28(sp)
	.cfi_offset 8, -8
	.cfi_offset 9, -12
	.cfi_offset 1, -4
.LM3587:
	mv	s0,a0
	mv	s1,a3
.LM3588:
	bne	a1,zero,.L735
.LVL1356:
.L739:
.LM3589:
.LM3590:
	bne	a2,zero,.L736
.L737:
.LM3591:
.LM3592:
	li	a0,0
.LM3593:
	beq	s1,zero,.L734
.LM3594:
	addi	a1,s0,104
.LM3595:
	lw	s0,24(sp)
	.cfi_remember_state
	.cfi_restore 8
.LVL1357:
.LM3596:
	lw	ra,28(sp)
	.cfi_restore 1
.LM3597:
	mv	a0,s1
.LM3598:
	lw	s1,20(sp)
	.cfi_restore 9
.LVL1358:
.LM3599:
	addi	sp,sp,32
	.cfi_def_cfa_offset 0
.LM3600:
	tail	mbedtls_ecp_copy
.LVL1359:
.L735:
	.cfi_restore_state
.LM3601:
	mv	a0,a1
.LM3602:
	mv	a1,s0
.LVL1360:
.LM3603:
	sw	a2,12(sp)
	call	mbedtls_ecp_group_copy
.LVL1361:
.LM3604:
	lw	a2,12(sp)
	beq	a0,zero,.L739
.LVL1362:
.L734:
.LM3605:
	lw	ra,28(sp)
	.cfi_remember_state
	.cfi_restore 1
	lw	s0,24(sp)
	.cfi_restore 8
.LVL1363:
.LM3606:
	lw	s1,20(sp)
	.cfi_restore 9
.LVL1364:
.LM3607:
	addi	sp,sp,32
	.cfi_def_cfa_offset 0
	jr	ra
.LVL1365:
.L736:
	.cfi_restore_state
.LM3608:
	addi	a1,s0,96
	mv	a0,a2
	call	mbedtls_mpi_copy
.LVL1366:
.LM3609:
	beq	a0,zero,.L737
	j	.L734
	.cfi_endproc
.LFE104:
	.size	mbedtls_ecp_export, .-mbedtls_ecp_export
	.section	.rodata.mbedtls_ecp_self_test.str1.4,"aMS",@progbits,1
	.align	2
.LC18:
	.string	"  ECP SW test #1 (constant op_count, base point G): "
	.align	2
.LC19:
	.string	"  ECP SW test #2 (constant op_count, other point): "
	.align	2
.LC20:
	.string	"  ECP Montgomery test (constant op_count): "
	.align	2
.LC21:
	.string	"Unexpected error, return code = %08X\n"
	.align	2
.LC22:
	.string	"\n"
	.section	.text.mbedtls_ecp_self_test,"ax",@progbits
	.align	1
	.globl	mbedtls_ecp_self_test
	.type	mbedtls_ecp_self_test, @function
mbedtls_ecp_self_test:
.LVL1367:
.LFB108:
.LM3610:
	.cfi_startproc
.LM3611:
.LM3612:
.LM3613:
.LM3614:
.LM3615:
.LM3616:
	addi	sp,sp,-224
	.cfi_def_cfa_offset 224
	sw	s0,216(sp)
	.cfi_offset 8, -8
.LM3617:
	lui	s0,%hi(.LANCHOR0)
	addi	s0,s0,%lo(.LANCHOR0)
	mv	a1,s0
.LM3618:
	sw	s1,212(sp)
.LM3619:
	li	a2,24
	.cfi_offset 9, -12
.LM3620:
	mv	s1,a0
.LM3621:
	addi	a0,sp,64
.LVL1368:
.LM3622:
	sw	ra,220(sp)
	.cfi_offset 1, -4
.LM3623:
	call	memcpy
.LVL1369:
.LM3624:
.LM3625:
	li	a2,24
	add	a1,s0,a2
	addi	a0,sp,88
	call	memcpy
.LVL1370:
.LM3626:
	addi	a0,sp,112
	call	mbedtls_ecp_group_init
.LVL1371:
.LM3627:
	addi	a0,sp,16
	call	mbedtls_ecp_point_init
.LVL1372:
.LM3628:
	addi	a0,sp,40
	call	mbedtls_ecp_point_init
.LVL1373:
.LM3629:
	addi	a0,sp,8
	call	mbedtls_mpi_init
.LVL1374:
.LM3630:
.LM3631:
.LM3632:
	li	a1,1
	addi	a0,sp,112
	call	mbedtls_ecp_group_load
.LVL1375:
	mv	s0,a0
.LVL1376:
.LM3633:
	bne	a0,zero,.L743
.LM3634:
.LM3635:
.LM3636:
	beq	s1,zero,.L744
.LM3637:
	lui	a0,%hi(.LC18)
	addi	a0,a0,%lo(.LC18)
	call	printf
.LVL1377:
.L744:
.LM3638:
.LM3639:
.LM3640:
	li	a1,2
	addi	a0,sp,8
	call	mbedtls_mpi_lset
.LVL1378:
	mv	s0,a0
.LVL1379:
.LM3641:
	bne	a0,zero,.L743
.LM3642:
.LM3643:
.LM3644:
.LM3645:
	lui	a4,%hi(self_test_rng)
	li	a5,0
	addi	a4,a4,%lo(self_test_rng)
	addi	a3,sp,140
	addi	a2,sp,8
	addi	a1,sp,40
	addi	a0,sp,112
	call	mbedtls_ecp_mul
.LVL1380:
	mv	s0,a0
.LVL1381:
.LM3646:
	bne	a0,zero,.L743
.LM3647:
.LM3648:
.LM3649:
	addi	a5,sp,64
	addi	a4,sp,140
	addi	a3,sp,8
	addi	a2,sp,16
	addi	a1,sp,112
	mv	a0,s1
	call	self_test_point.constprop.0
.LVL1382:
	mv	s0,a0
.LVL1383:
.LM3650:
.LM3651:
	bne	a0,zero,.L743
.LM3652:
.LM3653:
	beq	s1,zero,.L745
.LM3654:
	lui	a0,%hi(.LC19)
	addi	a0,a0,%lo(.LC19)
	call	printf
.LVL1384:
.L745:
.LM3655:
.LM3656:
	addi	a5,sp,64
	addi	a4,sp,40
	addi	a3,sp,8
	addi	a2,sp,16
	addi	a1,sp,112
	mv	a0,s1
	call	self_test_point.constprop.0
.LVL1385:
	mv	s0,a0
.LVL1386:
.LM3657:
.LM3658:
	bne	a0,zero,.L743
.LM3659:
	addi	a0,sp,112
	call	mbedtls_ecp_group_free
.LVL1387:
.LM3660:
.LBB329:
.LBI329:
.LM3661:
.LBB330:
.LM3662:
	addi	a0,sp,16
.LVL1388:
.LM3663:
	call	mbedtls_ecp_point_free.part.0
.LVL1389:
.LM3664:
.LBE330:
.LBE329:
.LM3665:
.LM3666:
	beq	s1,zero,.L746
.LM3667:
	lui	a0,%hi(.LC20)
	addi	a0,a0,%lo(.LC20)
	call	printf
.LVL1390:
.L746:
.LM3668:
.LM3669:
.LM3670:
	li	a1,9
	addi	a0,sp,112
	call	mbedtls_ecp_group_load
.LVL1391:
	mv	s0,a0
.LVL1392:
.LM3671:
	bne	a0,zero,.L743
.LM3672:
.LM3673:
.LM3674:
	addi	a5,sp,88
	addi	a4,sp,140
	addi	a3,sp,8
	addi	a2,sp,16
	addi	a1,sp,112
	mv	a0,s1
	call	self_test_point.constprop.0
.LVL1393:
	mv	s0,a0
.LVL1394:
.LM3675:
.LM3676:
	beq	a0,zero,.L747
.L743:
.LM3677:
.LM3678:
	beq	s1,zero,.L747
.LM3679:
	bge	s0,zero,.L747
.LM3680:
	lui	a0,%hi(.LC21)
	mv	a1,s0
	addi	a0,a0,%lo(.LC21)
	call	printf
.LVL1395:
.L747:
.LM3681:
	addi	a0,sp,112
	call	mbedtls_ecp_group_free
.LVL1396:
.LM3682:
.LBB331:
.LBI331:
.LM3683:
.LBB332:
.LM3684:
	addi	a0,sp,16
.LVL1397:
.LM3685:
	call	mbedtls_ecp_point_free.part.0
.LVL1398:
.LM3686:
.LBE332:
.LBE331:
.LM3687:
.LBB333:
.LBI333:
.LM3688:
.LBB334:
.LM3689:
	addi	a0,sp,40
.LVL1399:
.LM3690:
	call	mbedtls_ecp_point_free.part.0
.LVL1400:
.LM3691:
.LBE334:
.LBE333:
.LM3692:
	addi	a0,sp,8
	call	mbedtls_mpi_free
.LVL1401:
.LM3693:
.LM3694:
	beq	s1,zero,.L742
.LM3695:
	lui	a0,%hi(.LC22)
	addi	a0,a0,%lo(.LC22)
	call	printf
.LVL1402:
.LM3696:
.L742:
.LM3697:
	lw	ra,220(sp)
	.cfi_restore 1
	mv	a0,s0
	lw	s0,216(sp)
	.cfi_restore 8
	lw	s1,212(sp)
	.cfi_restore 9
.LVL1403:
.LM3698:
	addi	sp,sp,224
	.cfi_def_cfa_offset 0
	jr	ra
	.cfi_endproc
.LFE108:
	.size	mbedtls_ecp_self_test, .-mbedtls_ecp_self_test
	.section	.sdata.state.0,"aw"
	.align	2
	.type	state.0, @object
	.size	state.0, 4
state.0:
	.word	42
	.section	.rodata.str1.4,"aMS",@progbits,1
	.align	2
.LC7:
	.string	"4000000000000000000000000000000000000000000000000000000000000000"
	.align	2
.LC8:
	.string	"5C3C3C3C3C3C3C3C3C3C3C3C3C3C3C3C3C3C3C3C3C3C3C3C3C3C3C3C3C3C3C30"
	.align	2
.LC9:
	.string	"5715ECCE24583F7A7023C24164390586842E816D7280A49EF6DF4EAE6B280BF8"
	.align	2
.LC10:
	.string	"41A2B017516F6D254E1F002BCCBADD54BE30F8CEC737A0E912B4963B6BA74460"
	.align	2
.LC11:
	.string	"5555555555555555555555555555555555555555555555555555555555555550"
	.align	2
.LC12:
	.string	"7FFFFFFFFFFFFFFFFFFFFFFFFFFFFFFFFFFFFFFFFFFFFFFFFFFFFFFFFFFFFFF8"
	.align	2
.LC0:
	.string	"000000000000000000000000000000000000000000000001"
	.align	2
.LC1:
	.string	"FFFFFFFFFFFFFFFFFFFFFFFE26F2FC170F69466A74DEFD8C"
	.align	2
.LC2:
	.string	"5EA6F389A38B8BC81E767753B15AA5569E1782E30ABE7D25"
	.align	2
.LC3:
	.string	"400000000000000000000000000000000000000000000000"
	.align	2
.LC4:
	.string	"7FFFFFFFFFFFFFFFFFFFFFFFFFFFFFFFFFFFFFFFFFFFFFFF"
	.align	2
.LC5:
	.string	"555555555555555555555555555555555555555555555555"
	.section	.sbss.init_done.1,"aw",@nobits
	.align	2
	.type	init_done.1, @object
	.size	init_done.1, 4
init_done.1:
	.zero	4
	.section	.srodata.ecp_x25519_bad_point_2,"a"
	.align	2
	.type	ecp_x25519_bad_point_2, @object
	.size	ecp_x25519_bad_point_2, 8
ecp_x25519_bad_point_2:
	.word	x25519_bad_point_2
	.half	1
	.half	8
	.section	.srodata.ecp_x25519_bad_point_1,"a"
	.align	2
	.type	ecp_x25519_bad_point_1, @object
	.size	ecp_x25519_bad_point_1, 8
ecp_x25519_bad_point_1:
	.word	x25519_bad_point_1
	.half	1
	.half	8
	.section	.rodata.x25519_bad_point_2,"a"
	.align	2
	.type	x25519_bad_point_2, @object
	.size	x25519_bad_point_2, 32
x25519_bad_point_2:
	.word	-1131045793
	.word	613175459
	.word	1437716657
	.word	1542423452
	.word	-1000586236
	.word	-2037506984
	.word	-582081832
	.word	1460772816
	.section	.rodata.x25519_bad_point_1,"a"
	.align	2
	.type	x25519_bad_point_1, @object
	.size	x25519_bad_point_1, 32
x25519_bad_point_1:
	.word	2088430560
	.word	-1363656389
	.word	-85764586
	.word	1791270897
	.word	-343078438
	.word	-38718820
	.word	369451654
	.word	12077407
	.section	.bss.ecp_supported_grp_id,"aw",@nobits
	.align	2
	.type	ecp_supported_grp_id, @object
	.size	ecp_supported_grp_id, 14
ecp_supported_grp_id:
	.zero	14
	.section	.rodata.str1.4
	.align	2
.LC23:
	.string	"secp521r1"
	.align	2
.LC24:
	.string	"brainpoolP512r1"
	.align	2
.LC25:
	.string	"secp384r1"
	.align	2
.LC26:
	.string	"brainpoolP384r1"
	.align	2
.LC27:
	.string	"secp256r1"
	.align	2
.LC28:
	.string	"secp256k1"
	.align	2
.LC29:
	.string	"brainpoolP256r1"
	.align	2
.LC30:
	.string	"secp224r1"
	.align	2
.LC31:
	.string	"secp224k1"
	.align	2
.LC32:
	.string	"secp192r1"
	.align	2
.LC33:
	.string	"secp192k1"
	.align	2
.LC34:
	.string	"x25519"
	.align	2
.LC35:
	.string	"x448"
	.section	.rodata.ecp_supported_curves,"a"
	.align	2
	.type	ecp_supported_curves, @object
	.size	ecp_supported_curves, 168
ecp_supported_curves:
	.byte	5
	.zero	1
	.half	25
	.half	521
	.zero	2
	.word	.LC23
	.byte	8
	.zero	1
	.half	28
	.half	512
	.zero	2
	.word	.LC24
	.byte	4
	.zero	1
	.half	24
	.half	384
	.zero	2
	.word	.LC25
	.byte	7
	.zero	1
	.half	27
	.half	384
	.zero	2
	.word	.LC26
	.byte	3
	.zero	1
	.half	23
	.half	256
	.zero	2
	.word	.LC27
	.byte	12
	.zero	1
	.half	22
	.half	256
	.zero	2
	.word	.LC28
	.byte	6
	.zero	1
	.half	26
	.half	256
	.zero	2
	.word	.LC29
	.byte	2
	.zero	1
	.half	21
	.half	224
	.zero	2
	.word	.LC30
	.byte	11
	.zero	1
	.half	20
	.half	224
	.zero	2
	.word	.LC31
	.byte	1
	.zero	1
	.half	19
	.half	192
	.zero	2
	.word	.LC32
	.byte	10
	.zero	1
	.half	18
	.half	192
	.zero	2
	.word	.LC33
	.byte	9
	.zero	1
	.half	29
	.half	256
	.zero	2
	.word	.LC34
	.byte	13
	.zero	1
	.half	30
	.half	448
	.zero	2
	.word	.LC35
	.byte	0
	.zero	1
	.half	0
	.half	0
	.zero	2
	.word	0
	.section	.sbss.ecp_max_ops,"aw",@nobits
	.align	2
	.type	ecp_max_ops, @object
	.size	ecp_max_ops, 4
ecp_max_ops:
	.zero	4
	.section	.sbss.mul_count,"aw",@nobits
	.align	2
	.type	mul_count, @object
	.size	mul_count, 4
mul_count:
	.zero	4
	.section	.sbss.dbl_count,"aw",@nobits
	.align	2
	.type	dbl_count, @object
	.size	dbl_count, 4
dbl_count:
	.zero	4
	.section	.sbss.add_count,"aw",@nobits
	.align	2
	.type	add_count, @object
	.size	add_count, 4
add_count:
	.zero	4
	.section	.rodata
	.align	2
	.set	.LANCHOR0,. + 0
.LC16:
	.word	.LC0
	.word	.LC1
	.word	.LC2
	.word	.LC3
	.word	.LC4
	.word	.LC5
.LC17:
	.word	.LC7
	.word	.LC8
	.word	.LC9
	.word	.LC10
	.word	.LC11
	.word	.LC12
	.text
.Letext0: