	.file	"error.c"
	.option nopic
	.attribute arch, "rv32i2p1_m2p0_f2p2_c2p0_zicsr2p0_zmmul1p0_zca1p0_zcf1p0"
	.attribute unaligned_access, 0
	.attribute stack_align, 16
	.text
.Ltext0:
	.cfi_sections	.debug_frame
	.section	.rodata.mbedtls_high_level_strerr.str1.4,"aMS",@progbits,1
	.align	2
.LC0:
	.string	"CIPHER - The selected feature is not available"
	.align	2
.LC1:
	.string	"CIPHER - Bad input parameters"
	.align	2
.LC2:
	.string	"CIPHER - Failed to allocate memory"
	.align	2
.LC3:
	.string	"CIPHER - Input data contains invalid padding and is rejected"
	.align	2
.LC4:
	.string	"CIPHER - Decryption of block requires a full block"
	.align	2
.LC5:
	.string	"CIPHER - Authentication failed (for AEAD modes)"
	.align	2
.LC6:
	.string	"CIPHER - The context is invalid. For example, because it was freed"
	.align	2
.LC7:
	.string	"DHM - Bad input parameters"
	.align	2
.LC8:
	.string	"DHM - Reading of the DHM parameters failed"
	.align	2
.LC9:
	.string	"DHM - Making of the DHM parameters failed"
	.align	2
.LC10:
	.string	"DHM - Reading of the public values failed"
	.align	2
.LC11:
	.string	"DHM - Making of the public value failed"
	.align	2
.LC12:
	.string	"DHM - Calculation of the DHM secret failed"
	.align	2
.LC13:
	.string	"DHM - The ASN.1 data is not formatted correctly"
	.align	2
.LC14:
	.string	"DHM - Allocation of memory failed"
	.align	2
.LC15:
	.string	"DHM - Read or write of file failed"
	.align	2
.LC16:
	.string	"DHM - Setting the modulus and generator failed"
	.align	2
.LC17:
	.string	"ECP - Bad input parameters to function"
	.align	2
.LC18:
	.string	"ECP - The buffer is too small to write to"
	.align	2
.LC19:
	.string	"ECP - The requested feature is not available, for example, the requested curve is not supported"
	.align	2
.LC20:
	.string	"ECP - The signature is not valid"
	.align	2
.LC21:
	.string	"ECP - Memory allocation failed"
	.align	2
.LC22:
	.string	"ECP - Generation of random value, such as ephemeral key, failed"
	.align	2
.LC23:
	.string	"ECP - Invalid private or public key"
	.align	2
.LC24:
	.string	"ECP - The buffer contains a valid signature followed by more data"
	.align	2
.LC25:
	.string	"ECP - Operation in progress, call again with the same parameters to continue"
	.align	2
.LC26:
	.string	"MD - The selected feature is not available"
	.align	2
.LC27:
	.string	"MD - Bad input parameters to function"
	.align	2
.LC28:
	.string	"MD - Failed to allocate memory"
	.align	2
.LC29:
	.string	"MD - Opening or reading of file failed"
	.align	2
.LC30:
	.string	"PK - Memory allocation failed"
	.align	2
.LC31:
	.string	"PK - Type mismatch, eg attempt to encrypt with an ECDSA key"
	.align	2
.LC32:
	.string	"PK - Bad input parameters to function"
	.align	2
.LC33:
	.string	"PK - Read/write of file failed"
	.align	2
.LC34:
	.string	"PK - Unsupported key version"
	.align	2
.LC35:
	.string	"PK - Invalid key tag or value"
	.align	2
.LC36:
	.string	"PK - Key algorithm is unsupported (only RSA and EC are supported)"
	.align	2
.LC37:
	.string	"PK - Private key password can't be empty"
	.align	2
.LC38:
	.string	"PK - Given private key password does not allow for correct decryption"
	.align	2
.LC39:
	.string	"PK - The pubkey tag or value is invalid (only RSA and EC are supported)"
	.align	2
.LC40:
	.string	"PK - The algorithm tag or value is invalid"
	.align	2
.LC41:
	.string	"PK - Elliptic curve is unsupported (only NIST curves are supported)"
	.align	2
.LC42:
	.string	"PK - Unavailable feature, e.g. RSA disabled for RSA key"
	.align	2
.LC43:
	.string	"PK - The buffer contains a valid signature followed by more data"
	.align	2
.LC44:
	.string	"PK - The output buffer is too small"
	.align	2
.LC45:
	.string	"PKCS12 - Bad input parameters to function"
	.align	2
.LC46:
	.string	"PKCS12 - Feature not available, e.g. unsupported encryption scheme"
	.align	2
.LC47:
	.string	"PKCS12 - PBE ASN.1 data not as expected"
	.align	2
.LC48:
	.string	"PKCS12 - Given private key password does not allow for correct decryption"
	.align	2
.LC49:
	.string	"PKCS5 - Bad input parameters to function"
	.align	2
.LC50:
	.string	"PKCS5 - Unexpected ASN.1 data"
	.align	2
.LC51:
	.string	"PKCS5 - Requested encryption or digest alg not available"
	.align	2
.LC52:
	.string	"PKCS5 - Given private key password does not allow for correct decryption"
	.align	2
.LC53:
	.string	"PKCS7 - The format is invalid, e.g. different type expected"
	.align	2
.LC54:
	.string	"PKCS7 - Unavailable feature, e.g. anything other than signed data"
	.align	2
.LC55:
	.string	"PKCS7 - The PKCS #7 version element is invalid or cannot be parsed"
	.align	2
.LC56:
	.string	"PKCS7 - The PKCS #7 content info is invalid or cannot be parsed"
	.align	2
.LC57:
	.string	"PKCS7 - The algorithm tag or value is invalid or cannot be parsed"
	.align	2
.LC58:
	.string	"PKCS7 - The certificate tag or value is invalid or cannot be parsed"
	.align	2
.LC59:
	.string	"PKCS7 - Error parsing the signature"
	.align	2
.LC60:
	.string	"PKCS7 - Error parsing the signer's info"
	.align	2
.LC61:
	.string	"PKCS7 - Input invalid"
	.align	2
.LC62:
	.string	"PKCS7 - Allocation of memory failed"
	.align	2
.LC63:
	.string	"PKCS7 - Verification Failed"
	.align	2
.LC64:
	.string	"PKCS7 - The PKCS #7 date issued/expired dates are invalid"
	.align	2
.LC65:
	.string	"RSA - Bad input parameters to function"
	.align	2
.LC66:
	.string	"RSA - Input data contains invalid padding and is rejected"
	.align	2
.LC67:
	.string	"RSA - Something failed during generation of a key"
	.align	2
.LC68:
	.string	"RSA - Key failed to pass the validity check of the library"
	.align	2
.LC69:
	.string	"RSA - The public key operation failed"
	.align	2
.LC70:
	.string	"RSA - The private key operation failed"
	.align	2
.LC71:
	.string	"RSA - The PKCS#1 verification failed"
	.align	2
.LC72:
	.string	"RSA - The output buffer for decryption is not large enough"
	.align	2
.LC73:
	.string	"RSA - The random generator failed to generate non-zeros"
	.align	2
.LC74:
	.string	"SSL - A cryptographic operation is in progress. Try again later"
	.align	2
.LC75:
	.string	"SSL - The requested feature is not available"
	.align	2
.LC76:
	.string	"SSL - Bad input parameters to function"
	.align	2
.LC77:
	.string	"SSL - Verification of the message MAC failed"
	.align	2
.LC78:
	.string	"SSL - An invalid SSL record was received"
	.align	2
.LC79:
	.string	"SSL - The connection indicated an EOF"
	.align	2
.LC80:
	.string	"SSL - A message could not be parsed due to a syntactic error"
	.align	2
.LC81:
	.string	"SSL - No RNG was provided to the SSL module"
	.align	2
.LC82:
	.string	"SSL - No client certification received from the client, but required by the authentication mode"
	.align	2
.LC83:
	.string	"SSL - Client received an extended server hello containing an unsupported extension"
	.align	2
.LC84:
	.string	"SSL - No ALPN protocols supported that the client advertises"
	.align	2
.LC85:
	.string	"SSL - The own private key or pre-shared key is not set, but needed"
	.align	2
.LC86:
	.string	"SSL - No CA Chain is set, but required to operate"
	.align	2
.LC87:
	.string	"SSL - An unexpected message was received from our peer"
	.align	2
.LC88:
	.string	"SSL - A fatal alert message was received from our peer"
	.align	2
.LC89:
	.string	"SSL - No server could be identified matching the client's SNI"
	.align	2
.LC90:
	.string	"SSL - The peer notified us that the connection is going to be closed"
	.align	2
.LC91:
	.string	"SSL - Processing of the Certificate handshake message failed"
	.align	2
.LC92:
	.string	"SSL - A TLS 1.3 NewSessionTicket message has been received"
	.align	2
.LC93:
	.string	"SSL - Not possible to read early data"
	.align	2
.LC94:
	.ascii	"SSL - * Early data has been received as part of an on-going "
	.ascii	"handshake. This error code can be returned only on server si"
	.ascii	"de if and only if early data has been enabled by means of th"
	.ascii	"e mbedtls_ssl_conf_early_data() API. This error code can t"
	.string	"hen be returned by mbedtls_ssl_handshake(), mbedtls_ssl_handshake_step(), mbedtls_ssl_read() or mbedtls_ssl_write() if early data has been received as part of the handshake sequence they triggered. To read the early data, call mbedtls_ssl_read_early_data()"
	.align	2
.LC95:
	.string	"SSL - Not possible to write early data"
	.align	2
.LC96:
	.string	"SSL - Cache entry not found"
	.align	2
.LC97:
	.string	"SSL - Memory allocation failed"
	.align	2
.LC98:
	.string	"SSL - Hardware acceleration function returned with error"
	.align	2
.LC99:
	.string	"SSL - Hardware acceleration function skipped / left alone data"
	.align	2
.LC100:
	.string	"SSL - Handshake protocol not within min/max boundaries"
	.align	2
.LC101:
	.string	"SSL - The handshake negotiation failed"
	.align	2
.LC102:
	.string	"SSL - Session ticket has expired"
	.align	2
.LC103:
	.string	"SSL - Public key type mismatch (eg, asked for RSA key exchange and presented EC key)"
	.align	2
.LC104:
	.string	"SSL - Unknown identity received (eg, PSK identity)"
	.align	2
.LC105:
	.string	"SSL - Internal error (eg, unexpected failure in lower-level module)"
	.align	2
.LC106:
	.string	"SSL - A counter would wrap (eg, too many messages exchanged)"
	.align	2
.LC107:
	.string	"SSL - Unexpected message at ServerHello in renegotiation"
	.align	2
.LC108:
	.string	"SSL - DTLS client must retry for hello verification"
	.align	2
.LC109:
	.string	"SSL - A buffer is too small to receive or write a message"
	.align	2
.LC110:
	.string	"SSL - No data of requested type currently available on underlying transport"
	.align	2
.LC111:
	.string	"SSL - Connection requires a write call"
	.align	2
.LC112:
	.string	"SSL - The operation timed out"
	.align	2
.LC113:
	.string	"SSL - The client initiated a reconnect from the same port"
	.align	2
.LC114:
	.string	"SSL - Record header looks valid but is not expected"
	.align	2
.LC115:
	.string	"SSL - The alert message received indicates a non-fatal error"
	.align	2
.LC116:
	.string	"SSL - A field in a message was incorrect or inconsistent with other fields"
	.align	2
.LC117:
	.string	"SSL - Internal-only message signaling that further message-processing should be done"
	.align	2
.LC118:
	.string	"SSL - The asynchronous operation is not completed yet"
	.align	2
.LC119:
	.string	"SSL - Internal-only message signaling that a message arrived early"
	.align	2
.LC120:
	.string	"SSL - An encrypted DTLS-frame with an unexpected CID was received"
	.align	2
.LC121:
	.string	"SSL - An operation failed due to an unexpected version or configuration"
	.align	2
.LC122:
	.string	"SSL - Invalid value in SSL config"
	.align	2
.LC123:
	.ascii	"SSL - Attempt to verify a certificate without an expected ho"
	.ascii	"stname. This is usually insecure.  In TLS clients, when a cl"
	.ascii	"ient authenticates a server through its certificate, the cli"
	.ascii	"ent normally checks three things: - the certificate chain mu"
	.ascii	"st be valid; - the chain must start from a trusted CA; - the"
	.ascii	" certificate must cover the server name that is expected by "
	.ascii	"the client.  Omitting any of these checks is generally insec"
	.ascii	"ure, and can allow a malicious server to impersonate a legit"
	.ascii	"imate server.  The third check may be safely skipped in some"
	.ascii	" unusual scenarios, such as networks where eavesdropping is "
	.ascii	"a risk but not active attacks, or a private PKI where the cl"
	.ascii	"ient equally trusts all servers that are accredited by the r"
	.ascii	"oot CA.  You should call mbedtls_ssl_set_hostname() with the"
	.ascii	" expected server name before starting a TLS handshake on a c"
	.ascii	"lient (unless the client is set up to only use PSK-based aut"
	.ascii	"hentication, which does not rely on the host name). If you h"
	.ascii	"ave determined that server name verification is not required"
	.ascii	" for security in your scenario, call mbedtls_ssl_set_hostnam"
	.ascii	"e() with \\p NULL as the server name.  This error is raised "
	.ascii	"if all of the following conditions are met:  - A TLS client "
	.ascii	"is configured with the authenticat"
	.string	"ion mode #MBEDTLS_SSL_VERIFY_REQUIRED (default). - Certificate authentication is enabled. - The client does not call mbedtls_ssl_set_hostname(). - The configuration option #MBEDTLS_SSL_CLI_ALLOW_WEAK_CERTIFICATE_VERIFICATION_WITHOUT_HOSTNAME is not enabled"
	.align	2
.LC124:
	.string	"X509 - Unavailable feature, e.g. RSA hashing/encryption combination"
	.align	2
.LC125:
	.string	"X509 - Requested OID is unknown"
	.align	2
.LC126:
	.string	"X509 - The CRT/CRL/CSR format is invalid, e.g. different type expected"
	.align	2
.LC127:
	.string	"X509 - The CRT/CRL/CSR version element is invalid"
	.align	2
.LC128:
	.string	"X509 - The serial tag or value is invalid"
	.align	2
.LC129:
	.string	"X509 - The algorithm tag or value is invalid"
	.align	2
.LC130:
	.string	"X509 - The name tag or value is invalid"
	.align	2
.LC131:
	.string	"X509 - The date tag or value is invalid"
	.align	2
.LC132:
	.string	"X509 - The signature tag or value invalid"
	.align	2
.LC133:
	.string	"X509 - The extension tag or value is invalid"
	.align	2
.LC134:
	.string	"X509 - CRT/CRL/CSR has an unsupported version number"
	.align	2
.LC135:
	.string	"X509 - Signature algorithm (oid) is unsupported"
	.align	2
.LC136:
	.string	"X509 - Signature algorithms do not match. (see \\c ::mbedtls_x509_crt sig_oid)"
	.align	2
.LC137:
	.string	"X509 - Certificate verification failed, e.g. CRL, CA or signature check failed"
	.align	2
.LC138:
	.string	"X509 - Format not recognized as DER or PEM"
	.align	2
.LC139:
	.string	"X509 - Input invalid"
	.align	2
.LC140:
	.string	"X509 - Allocation of memory failed"
	.align	2
.LC141:
	.string	"X509 - Read/write of file failed"
	.align	2
.LC142:
	.string	"X509 - Destination buffer is too small"
	.align	2
.LC143:
	.string	"X509 - A fatal error occurred, eg the chain is too long or the vrfy callback failed"
	.section	.text.mbedtls_high_level_strerr,"ax",@progbits
	.align	1
	.globl	mbedtls_high_level_strerr
	.type	mbedtls_high_level_strerr, @function
mbedtls_high_level_strerr:
.LVL0:
.LFB98:
.LM1:
	.cfi_startproc
.LM2:
.LM3:
.LM4:
.LM5:
	srai	a4,a0,31
	xor	a5,a4,a0
	sub	a5,a5,a4
.LM6:
	li	a4,65536
	addi	a4,a4,-128
	and	a5,a5,a4
.LVL1:
.LM7:
	li	a4,20480
	addi	a4,a4,256
	beq	a5,a4,.L51
	bgt	a5,a4,.L3
	li	a3,12288
	addi	a4,a3,1152
	beq	a5,a4,.L52
	bgt	a5,a4,.L4
	li	a4,8192
	addi	a4,a4,1920
	beq	a5,a4,.L53
	bgt	a5,a4,.L5
	li	a4,8192
	addi	a4,a4,768
	beq	a5,a4,.L54
	bgt	a5,a4,.L6
	li	a4,8192
	addi	a4,a4,128
	beq	a5,a4,.L55
	bgt	a5,a4,.L7
	li	a4,8192
	addi	a4,a4,-256
	beq	a5,a4,.L56
	bgt	a5,a4,.L8
	li	a4,8192
	addi	a4,a4,-512
	beq	a5,a4,.L57
	li	a4,8192
	addi	a4,a4,-384
.LM8:
	li	a0,0
.LVL2:
.LM9:
	bne	a5,a4,.L1
.LM10:
	lui	a0,%hi(.LC47)
	addi	a0,a0,%lo(.LC47)
	ret
.LVL3:
.L8:
.LM11:
	li	a4,8192
	addi	a4,a4,-128
.LM12:
	li	a0,0
.LVL4:
.LM13:
	bne	a5,a4,.L1
.LM14:
	lui	a0,%hi(.LC45)
	addi	a0,a0,%lo(.LC45)
	ret
.LVL5:
.L7:
.LM15:
	li	a4,8192
	addi	a4,a4,512
	beq	a5,a4,.L60
	bgt	a5,a4,.L9
	li	a4,8192
	addi	a4,a4,256
	beq	a5,a4,.L61
	li	a4,8192
	addi	a4,a4,384
.LM16:
	li	a0,0
.LVL6:
.LM17:
	bne	a5,a4,.L1
.LM18:
	lui	a0,%hi(.LC126)
	addi	a0,a0,%lo(.LC126)
	ret
.LVL7:
.L9:
.LM19:
	li	a4,8192
	addi	a4,a4,640
.LM20:
	li	a0,0
.LVL8:
.LM21:
	bne	a5,a4,.L1
.LM22:
	lui	a0,%hi(.LC128)
	addi	a0,a0,%lo(.LC128)
	ret
.LVL9:
.L6:
.LM23:
	li	a4,8192
	addi	a4,a4,1408
	beq	a5,a4,.L64
	bgt	a5,a4,.L10
	li	a4,8192
	addi	a4,a4,1152
	beq	a5,a4,.L65
	bgt	a5,a4,.L11
	li	a4,8192
	addi	a4,a4,896
	beq	a5,a4,.L66
	li	a4,8192
	addi	a4,a4,1024
.LM24:
	li	a0,0
.LVL10:
.LM25:
	bne	a5,a4,.L1
.LM26:
	lui	a0,%hi(.LC131)
	addi	a0,a0,%lo(.LC131)
	ret
.LVL11:
.L11:
.LM27:
	li	a4,8192
	addi	a4,a4,1280
.LM28:
	li	a0,0
.LVL12:
.LM29:
	bne	a5,a4,.L1
.LM30:
	lui	a0,%hi(.LC133)
	addi	a0,a0,%lo(.LC133)
	ret
.LVL13:
.L10:
.LM31:
	li	a4,8192
	addi	a4,a4,1664
	beq	a5,a4,.L69
	li	a4,8192
	addi	a4,a4,1792
	beq	a5,a4,.L70
	li	a4,8192
	addi	a4,a4,1536
.LM32:
	li	a0,0
.LVL14:
.LM33:
	bne	a5,a4,.L1
.LM34:
	lui	a0,%hi(.LC135)
	addi	a0,a0,%lo(.LC135)
	ret
.LVL15:
.L5:
.LM35:
	beq	a5,a3,.L72
	li	a4,12288
	bgt	a5,a3,.L12
	addi	a4,a4,-512
	beq	a5,a4,.L73
	bgt	a5,a4,.L13
	li	a4,12288
	addi	a4,a4,-1792
	beq	a5,a4,.L74
	bgt	a5,a4,.L14
	li	a4,12288
	addi	a4,a4,-2048
	beq	a5,a4,.L75
	li	a4,12288
	addi	a4,a4,-1920
.LM36:
	li	a0,0
.LVL16:
.LM37:
	bne	a5,a4,.L1
.LM38:
	lui	a0,%hi(.LC140)
	addi	a0,a0,%lo(.LC140)
	ret
.LVL17:
.L14:
.LM39:
	li	a4,12288
	addi	a4,a4,-1664
.LM40:
	li	a0,0
.LVL18:
.LM41:
	bne	a5,a4,.L1
.LM42:
	lui	a0,%hi(.LC142)
	addi	a0,a0,%lo(.LC142)
	ret
.LVL19:
.L13:
.LM43:
	li	a4,12288
	addi	a4,a4,-256
	beq	a5,a4,.L78
	li	a4,12288
	addi	a4,a4,-128
	beq	a5,a4,.L79
	li	a4,12288
	addi	a4,a4,-384
.LM44:
	li	a0,0
.LVL20:
.LM45:
	bne	a5,a4,.L1
.LM46:
	lui	a0,%hi(.LC51)
	addi	a0,a0,%lo(.LC51)
	ret
.LVL21:
.L12:
.LM47:
	addi	a4,a4,640
	beq	a5,a4,.L81
	bgt	a5,a4,.L15
	li	a4,12288
	addi	a4,a4,384
	beq	a5,a4,.L82
	bgt	a5,a4,.L16
	li	a4,12288
	addi	a4,a4,128
	beq	a5,a4,.L83
	li	a4,12288
	addi	a4,a4,256
.LM48:
	li	a0,0
.LVL22:
.LM49:
	bne	a5,a4,.L1
.LM50:
	lui	a0,%hi(.LC8)
	addi	a0,a0,%lo(.LC8)
	ret
.LVL23:
.L16:
.LM51:
	li	a4,12288
	addi	a4,a4,512
.LM52:
	li	a0,0
.LVL24:
.LM53:
	bne	a5,a4,.L1
.LM54:
	lui	a0,%hi(.LC10)
	addi	a0,a0,%lo(.LC10)
	ret
.LVL25:
.L15:
.LM55:
	li	a4,12288
	addi	a4,a4,896
	beq	a5,a4,.L86
	li	a4,12288
	addi	a4,a4,1024
	beq	a5,a4,.L87
	li	a4,12288
	addi	a4,a4,768
.LM56:
	li	a0,0
.LVL26:
.LM57:
	bne	a5,a4,.L1
.LM58:
	lui	a0,%hi(.LC12)
	addi	a0,a0,%lo(.LC12)
	ret
.LVL27:
.L4:
.LM59:
	li	a4,16384
	addi	a4,a4,256
	beq	a5,a4,.L89
	bgt	a5,a4,.L17
	li	a4,16384
	addi	a4,a4,-1024
	beq	a5,a4,.L90
	bgt	a5,a4,.L18
	li	a4,16384
	addi	a4,a4,-1536
	beq	a5,a4,.L91
	bgt	a5,a4,.L19
	li	a4,16384
	addi	a4,a4,-1792
	beq	a5,a4,.L92
	bgt	a5,a4,.L20
	li	a4,12288
	addi	a4,a4,1408
	beq	a5,a4,.L93
	li	a4,16384
	addi	a4,a4,-1920
.LM60:
	li	a0,0
.LVL28:
.LM61:
	bne	a5,a4,.L1
.LM62:
	lui	a0,%hi(.LC44)
	addi	a0,a0,%lo(.LC44)
	ret
.LVL29:
.L20:
.LM63:
	li	a4,16384
	addi	a4,a4,-1664
.LM64:
	li	a0,0
.LVL30:
.LM65:
	bne	a5,a4,.L1
.LM66:
	lui	a0,%hi(.LC42)
	addi	a0,a0,%lo(.LC42)
	ret
.LVL31:
.L19:
.LM67:
	li	a4,16384
	addi	a4,a4,-1280
	beq	a5,a4,.L96
	li	a4,16384
	addi	a4,a4,-1152
	beq	a5,a4,.L97
	li	a4,16384
	addi	a4,a4,-1408
.LM68:
	li	a0,0
.LVL32:
.LM69:
	bne	a5,a4,.L1
.LM70:
	lui	a0,%hi(.LC40)
	addi	a0,a0,%lo(.LC40)
	ret
.LVL33:
.L18:
.LM71:
	li	a4,16384
	addi	a4,a4,-384
	beq	a5,a4,.L99
	bgt	a5,a4,.L21
	li	a4,16384
	addi	a4,a4,-640
	beq	a5,a4,.L100
	bgt	a5,a4,.L22
	li	a4,16384
	addi	a4,a4,-896
	beq	a5,a4,.L101
	li	a4,16384
	addi	a4,a4,-768
.LM72:
	li	a0,0
.LVL34:
.LM73:
	bne	a5,a4,.L1
.LM74:
	lui	a0,%hi(.LC35)
	addi	a0,a0,%lo(.LC35)
	ret
.LVL35:
.L22:
.LM75:
	li	a4,16384
	addi	a4,a4,-512
.LM76:
	li	a0,0
.LVL36:
.LM77:
	bne	a5,a4,.L1
.LM78:
	lui	a0,%hi(.LC33)
	addi	a0,a0,%lo(.LC33)
	ret
.LVL37:
.L21:
.LM79:
	li	a4,16384
	addi	a4,a4,-128
	beq	a5,a4,.L104
	li	a4,16384
	addi	a4,a4,128
	beq	a5,a4,.L105
	li	a4,16384
	addi	a4,a4,-256
.LM80:
	li	a0,0
.LVL38:
.LM81:
	bne	a5,a4,.L1
.LM82:
	lui	a0,%hi(.LC31)
	addi	a0,a0,%lo(.LC31)
	ret
.LVL39:
.L17:
.LM83:
	li	a4,20480
	addi	a4,a4,-1024
	beq	a5,a4,.L107
	bgt	a5,a4,.L23
	li	a4,16384
	addi	a4,a4,896
	beq	a5,a4,.L108
	bgt	a5,a4,.L24
	li	a4,16384
	addi	a4,a4,640
	beq	a5,a4,.L109
	bgt	a5,a4,.L25
	li	a4,16384
	addi	a4,a4,384
	beq	a5,a4,.L110
	li	a4,16384
	addi	a4,a4,512
.LM84:
	li	a0,0
.LVL40:
.LM85:
	bne	a5,a4,.L1
.LM86:
	lui	a0,%hi(.LC68)
	addi	a0,a0,%lo(.LC68)
	ret
.LVL41:
.L25:
.LM87:
	li	a4,16384
	addi	a4,a4,768
.LM88:
	li	a0,0
.LVL42:
.LM89:
	bne	a5,a4,.L1
.LM90:
	lui	a0,%hi(.LC70)
	addi	a0,a0,%lo(.LC70)
	ret
.LVL43:
.L24:
.LM91:
	li	a4,16384
	addi	a4,a4,1152
	beq	a5,a4,.L113
	li	a4,20480
	addi	a4,a4,-1280
	beq	a5,a4,.L114
	li	a4,16384
	addi	a4,a4,1024
.LM92:
	li	a0,0
.LVL44:
.LM93:
	bne	a5,a4,.L1
.LM94:
	lui	a0,%hi(.LC72)
	addi	a0,a0,%lo(.LC72)
	ret
.LVL45:
.L23:
.LM95:
	li	a4,20480
	addi	a4,a4,-384
	beq	a5,a4,.L116
	bgt	a5,a4,.L26
	li	a4,20480
	addi	a4,a4,-640
	beq	a5,a4,.L117
	bgt	a5,a4,.L27
	li	a4,20480
	addi	a4,a4,-896
	beq	a5,a4,.L118
	li	a4,20480
	addi	a4,a4,-768
.LM96:
	li	a0,0
.LVL46:
.LM97:
	bne	a5,a4,.L1
.LM98:
	lui	a0,%hi(.LC22)
	addi	a0,a0,%lo(.LC22)
	ret
.LVL47:
.L27:
.LM99:
	li	a4,20480
	addi	a4,a4,-512
.LM100:
	li	a0,0
.LVL48:
.LM101:
	bne	a5,a4,.L1
.LM102:
	lui	a0,%hi(.LC20)
	addi	a0,a0,%lo(.LC20)
	ret
.LVL49:
.L26:
.LM103:
	li	a4,20480
	addi	a4,a4,-128
	beq	a5,a4,.L121
	li	a4,20480
	addi	a4,a4,128
	beq	a5,a4,.L122
	li	a4,20480
	addi	a4,a4,-256
.LM104:
	li	a0,0
.LVL50:
.LM105:
	bne	a5,a4,.L1
.LM106:
	lui	a0,%hi(.LC18)
	addi	a0,a0,%lo(.LC18)
	ret
.LVL51:
.L3:
.LM107:
	li	a4,28672
	addi	a4,a4,-1536
	beq	a5,a4,.L124
	bgt	a5,a4,.L28
	li	a4,24576
	beq	a5,a4,.L125
	bgt	a5,a4,.L29
	li	a4,20480
	addi	a4,a4,1536
	beq	a5,a4,.L126
	bgt	a5,a4,.L30
	li	a4,20480
	addi	a4,a4,1024
	beq	a5,a4,.L127
	bgt	a5,a4,.L31
	li	a4,20480
	addi	a4,a4,768
	beq	a5,a4,.L128
	bgt	a5,a4,.L32
	li	a4,20480
	addi	a4,a4,384
	beq	a5,a4,.L129
	li	a4,20480
	addi	a4,a4,512
.LM108:
	li	a0,0
.LVL52:
.LM109:
	bne	a5,a4,.L1
.LM110:
	lui	a0,%hi(.LC29)
	addi	a0,a0,%lo(.LC29)
	ret
.LVL53:
.L32:
.LM111:
	li	a4,20480
	addi	a4,a4,896
.LM112:
	li	a0,0
.LVL54:
.LM113:
	bne	a5,a4,.L1
.LM114:
	lui	a0,%hi(.LC54)
	addi	a0,a0,%lo(.LC54)
	ret
.LVL55:
.L31:
.LM115:
	li	a4,20480
	addi	a4,a4,1280
	beq	a5,a4,.L132
	li	a4,20480
	addi	a4,a4,1408
	beq	a5,a4,.L133
	li	a4,20480
	addi	a4,a4,1152
.LM116:
	li	a0,0
.LVL56:
.LM117:
	bne	a5,a4,.L1
.LM118:
	lui	a0,%hi(.LC56)
	addi	a0,a0,%lo(.LC56)
	ret
.LVL57:
.L30:
.LM119:
	li	a4,24576
	addi	a4,a4,-1920
	beq	a5,a4,.L135
	bgt	a5,a4,.L33
	li	a4,20480
	addi	a4,a4,1920
	beq	a5,a4,.L136
	bgt	a5,a4,.L34
	li	a4,20480
	addi	a4,a4,1664
	beq	a5,a4,.L137
	li	a4,20480
	addi	a4,a4,1792
.LM120:
	li	a0,0
.LVL58:
.LM121:
	bne	a5,a4,.L1
.LM122:
	lui	a0,%hi(.LC61)
	addi	a0,a0,%lo(.LC61)
	ret
.LVL59:
.L34:
.LM123:
	li	a4,24576
	addi	a4,a4,-2048
.LM124:
	li	a0,0
.LVL60:
.LM125:
	bne	a5,a4,.L1
.LM126:
	lui	a0,%hi(.LC63)
	addi	a0,a0,%lo(.LC63)
	ret
.LVL61:
.L33:
.LM127:
	li	a4,24576
	addi	a4,a4,-384
	beq	a5,a4,.L140
	li	a4,24576
	addi	a4,a4,-256
	beq	a5,a4,.L141
	li	a4,24576
	addi	a4,a4,-640
.LM128:
	li	a0,0
.LVL62:
.LM129:
	bne	a5,a4,.L1
.LM130:
	lui	a0,%hi(.LC123)
	addi	a0,a0,%lo(.LC123)
	ret
.LVL63:
.L29:
.LM131:
	li	a4,24576
	addi	a4,a4,1280
	beq	a5,a4,.L143
	bgt	a5,a4,.L35
	li	a4,24576
	addi	a4,a4,640
	beq	a5,a4,.L144
	bgt	a5,a4,.L36
	li	a4,24576
	addi	a4,a4,384
	beq	a5,a4,.L145
	bgt	a5,a4,.L37
	li	a4,24576
	addi	a4,a4,128
	beq	a5,a4,.L146
	li	a4,24576
	addi	a4,a4,256
.LM132:
	li	a0,0
.LVL64:
.LM133:
	bne	a5,a4,.L1
	lui	a0,%hi(.LC1)
	addi	a0,a0,%lo(.LC1)
	ret
.LVL65:
.L37:
.LM134:
	li	a4,24576
	addi	a4,a4,512
.LM135:
	li	a0,0
.LVL66:
.LM136:
	bne	a5,a4,.L1
.LM137:
	lui	a0,%hi(.LC3)
	addi	a0,a0,%lo(.LC3)
	ret
.LVL67:
.L36:
.LM138:
	li	a4,24576
	addi	a4,a4,896
	beq	a5,a4,.L149
	li	a4,24576
	addi	a4,a4,1152
	beq	a5,a4,.L150
	li	a4,24576
	addi	a4,a4,768
.LM139:
	li	a0,0
.LVL68:
.LM140:
	bne	a5,a4,.L1
.LM141:
	lui	a0,%hi(.LC5)
	addi	a0,a0,%lo(.LC5)
	ret
.LVL69:
.L35:
.LM142:
	li	a4,24576
	addi	a4,a4,1920
	beq	a5,a4,.L152
	bgt	a5,a4,.L38
	li	a4,24576
	addi	a4,a4,1664
	beq	a5,a4,.L153
	bgt	a5,a4,.L39
	li	a4,24576
	addi	a4,a4,1408
	beq	a5,a4,.L154
	li	a4,24576
	addi	a4,a4,1536
.LM143:
	li	a0,0
.LVL70:
.LM144:
	bne	a5,a4,.L1
.LM145:
	lui	a0,%hi(.LC116)
	addi	a0,a0,%lo(.LC116)
	ret
.LVL71:
.L39:
.LM146:
	li	a4,24576
	addi	a4,a4,1792
.LM147:
	li	a0,0
.LVL72:
.LM148:
	bne	a5,a4,.L1
.LM149:
	lui	a0,%hi(.LC114)
	addi	a0,a0,%lo(.LC114)
	ret
.LVL73:
.L38:
.LM150:
	li	a4,28672
	addi	a4,a4,-1920
	beq	a5,a4,.L157
	li	a4,28672
	addi	a4,a4,-1792
	beq	a5,a4,.L158
	li	a4,28672
	addi	a4,a4,-2048
.LM151:
	li	a0,0
.LVL74:
.LM152:
	bne	a5,a4,.L1
.LM153:
	lui	a0,%hi(.LC112)
	addi	a0,a0,%lo(.LC112)
	ret
.LVL75:
.L28:
.LM154:
	li	a4,28672
	addi	a4,a4,1024
	beq	a5,a4,.L160
	bgt	a5,a4,.L40
	li	a4,28672
	addi	a4,a4,-384
	beq	a5,a4,.L161
	bgt	a5,a4,.L41
	li	a4,28672
	addi	a4,a4,-896
	beq	a5,a4,.L162
	bgt	a5,a4,.L42
	li	a4,28672
	addi	a4,a4,-1152
	beq	a5,a4,.L163
	bgt	a5,a4,.L43
	li	a4,28672
	addi	a4,a4,-1408
	beq	a5,a4,.L164
	li	a4,28672
	addi	a4,a4,-1280
.LM155:
	li	a0,0
.LVL76:
.LM156:
	bne	a5,a4,.L1
.LM157:
	lui	a0,%hi(.LC107)
	addi	a0,a0,%lo(.LC107)
	ret
.LVL77:
.L43:
.LM158:
	li	a4,28672
	addi	a4,a4,-1024
.LM159:
	li	a0,0
.LVL78:
.LM160:
	bne	a5,a4,.L1
.LM161:
	lui	a0,%hi(.LC105)
	addi	a0,a0,%lo(.LC105)
	ret
.LVL79:
.L42:
.LM162:
	li	a4,28672
	addi	a4,a4,-640
	beq	a5,a4,.L167
	li	a4,28672
	addi	a4,a4,-512
	beq	a5,a4,.L168
	li	a4,28672
	addi	a4,a4,-768
.LM163:
	li	a0,0
.LVL80:
.LM164:
	bne	a5,a4,.L1
.LM165:
	lui	a0,%hi(.LC103)
	addi	a0,a0,%lo(.LC103)
	ret
.LVL81:
.L41:
.LM166:
	li	a4,28672
	addi	a4,a4,384
	beq	a5,a4,.L170
	bgt	a5,a4,.L44
	li	a3,28672
	addi	a4,a3,128
	beq	a5,a4,.L171
	bgt	a5,a4,.L45
	addi	a4,a3,-128
	beq	a5,a4,.L172
.LM167:
	li	a0,0
.LVL82:
.LM168:
	bne	a5,a3,.L1
.LM169:
	lui	a0,%hi(.LC74)
	addi	a0,a0,%lo(.LC74)
	ret
.LVL83:
.L45:
.LM170:
	li	a4,28672
	addi	a4,a4,256
.LM171:
	li	a0,0
.LVL84:
.LM172:
	bne	a5,a4,.L1
.LM173:
	lui	a0,%hi(.LC76)
	addi	a0,a0,%lo(.LC76)
	ret
.LVL85:
.L44:
.LM174:
	li	a4,28672
	addi	a4,a4,640
	beq	a5,a4,.L175
	li	a4,28672
	addi	a4,a4,768
	beq	a5,a4,.L176
	li	a4,28672
	addi	a4,a4,512
.LM175:
	li	a0,0
.LVL86:
.LM176:
	bne	a5,a4,.L1
.LM177:
	lui	a0,%hi(.LC78)
	addi	a0,a0,%lo(.LC78)
	ret
.LVL87:
.L40:
.LM178:
	li	a4,32768
	addi	a4,a4,-1920
	beq	a5,a4,.L178
	bgt	a5,a4,.L46
	li	a4,28672
	addi	a4,a4,1664
	beq	a5,a4,.L179
	bgt	a5,a4,.L47
	li	a4,28672
	addi	a4,a4,1408
	beq	a5,a4,.L180
	bgt	a5,a4,.L48
	li	a4,28672
	addi	a4,a4,1152
	beq	a5,a4,.L181
	li	a4,28672
	addi	a4,a4,1280
.LM179:
	li	a0,0
.LVL88:
.LM180:
	bne	a5,a4,.L1
.LM181:
	lui	a0,%hi(.LC83)
	addi	a0,a0,%lo(.LC83)
	ret
.LVL89:
.L48:
.LM182:
	li	a4,28672
	addi	a4,a4,1536
.LM183:
	li	a0,0
.LVL90:
.LM184:
	bne	a5,a4,.L1
.LM185:
	lui	a0,%hi(.LC85)
	addi	a0,a0,%lo(.LC85)
	ret
.LVL91:
.L47:
.LM186:
	li	a4,28672
	addi	a4,a4,1920
	beq	a5,a4,.L184
	li	a4,32768
	addi	a4,a4,-2048
	beq	a5,a4,.L185
	li	a4,28672
	addi	a4,a4,1792
.LM187:
	li	a0,0
.LVL92:
.LM188:
	bne	a5,a4,.L1
.LM189:
	lui	a0,%hi(.LC87)
	addi	a0,a0,%lo(.LC87)
	ret
.LVL93:
.L46:
.LM190:
	li	a4,32768
	addi	a4,a4,-896
	beq	a5,a4,.L187
	bgt	a5,a4,.L49
	li	a4,32768
	addi	a4,a4,-1152
	beq	a5,a4,.L188
	bgt	a5,a4,.L50
	li	a4,32768
	addi	a4,a4,-1536
	beq	a5,a4,.L189
	li	a4,32768
	addi	a4,a4,-1280
.LM191:
	li	a0,0
.LVL94:
.LM192:
	bne	a5,a4,.L1
.LM193:
	lui	a0,%hi(.LC92)
	addi	a0,a0,%lo(.LC92)
	ret
.LVL95:
.L50:
.LM194:
	li	a4,32768
	addi	a4,a4,-1024
.LM195:
	li	a0,0
.LVL96:
.LM196:
	bne	a5,a4,.L1
.LM197:
	lui	a0,%hi(.LC94)
	addi	a0,a0,%lo(.LC94)
	ret
.LVL97:
.L49:
.LM198:
	li	a4,32768
	addi	a4,a4,-256
	beq	a5,a4,.L192
	li	a4,32768
	addi	a4,a4,-128
	beq	a5,a4,.L193
	li	a4,32768
	addi	a4,a4,-384
.LM199:
	li	a0,0
.LVL98:
.LM200:
	bne	a5,a4,.L1
.LM201:
	lui	a0,%hi(.LC96)
	addi	a0,a0,%lo(.LC96)
	ret
.LVL99:
.L51:
.LM202:
	lui	a0,%hi(.LC27)
.LVL100:
.LM203:
	addi	a0,a0,%lo(.LC27)
	ret
.LVL101:
.L52:
.LM204:
	lui	a0,%hi(.LC15)
.LVL102:
.LM205:
	addi	a0,a0,%lo(.LC15)
	ret
.LVL103:
.L53:
.LM206:
	lui	a0,%hi(.LC138)
.LVL104:
.LM207:
	addi	a0,a0,%lo(.LC138)
	ret
.LVL105:
.L54:
.LM208:
	lui	a0,%hi(.LC129)
.LVL106:
.LM209:
	addi	a0,a0,%lo(.LC129)
	ret
.LVL107:
.L55:
.LM210:
	lui	a0,%hi(.LC124)
.LVL108:
.LM211:
	addi	a0,a0,%lo(.LC124)
	ret
.LVL109:
.L56:
.LM212:
	lui	a0,%hi(.LC46)
.LVL110:
.LM213:
	addi	a0,a0,%lo(.LC46)
	ret
.LVL111:
.L57:
.LM214:
	lui	a0,%hi(.LC48)
.LVL112:
.LM215:
	addi	a0,a0,%lo(.LC48)
	ret
.LVL113:
.L60:
.LM216:
	lui	a0,%hi(.LC127)
.LVL114:
.LM217:
	addi	a0,a0,%lo(.LC127)
	ret
.LVL115:
.L61:
.LM218:
	lui	a0,%hi(.LC125)
.LVL116:
.LM219:
	addi	a0,a0,%lo(.LC125)
	ret
.LVL117:
.L64:
.LM220:
	lui	a0,%hi(.LC134)
.LVL118:
.LM221:
	addi	a0,a0,%lo(.LC134)
	ret
.LVL119:
.L65:
.LM222:
	lui	a0,%hi(.LC132)
.LVL120:
.LM223:
	addi	a0,a0,%lo(.LC132)
	ret
.LVL121:
.L66:
.LM224:
	lui	a0,%hi(.LC130)
.LVL122:
.LM225:
	addi	a0,a0,%lo(.LC130)
	ret
.LVL123:
.L69:
.LM226:
	lui	a0,%hi(.LC136)
.LVL124:
.LM227:
	addi	a0,a0,%lo(.LC136)
	ret
.LVL125:
.L70:
.LM228:
	lui	a0,%hi(.LC137)
.LVL126:
.LM229:
	addi	a0,a0,%lo(.LC137)
	ret
.LVL127:
.L72:
.LM230:
	lui	a0,%hi(.LC143)
.LVL128:
.LM231:
	addi	a0,a0,%lo(.LC143)
	ret
.LVL129:
.L73:
.LM232:
	lui	a0,%hi(.LC52)
.LVL130:
.LM233:
	addi	a0,a0,%lo(.LC52)
	ret
.LVL131:
.L74:
.LM234:
	lui	a0,%hi(.LC141)
.LVL132:
.LM235:
	addi	a0,a0,%lo(.LC141)
	ret
.LVL133:
.L75:
.LM236:
	lui	a0,%hi(.LC139)
.LVL134:
.LM237:
	addi	a0,a0,%lo(.LC139)
	ret
.LVL135:
.L78:
.LM238:
	lui	a0,%hi(.LC50)
.LVL136:
.LM239:
	addi	a0,a0,%lo(.LC50)
	ret
.LVL137:
.L79:
.LM240:
	lui	a0,%hi(.LC49)
.LVL138:
.LM241:
	addi	a0,a0,%lo(.LC49)
	ret
.LVL139:
.L81:
.LM242:
	lui	a0,%hi(.LC11)
.LVL140:
.LM243:
	addi	a0,a0,%lo(.LC11)
	ret
.LVL141:
.L82:
.LM244:
	lui	a0,%hi(.LC9)
.LVL142:
.LM245:
	addi	a0,a0,%lo(.LC9)
	ret
.LVL143:
.L83:
.LM246:
	lui	a0,%hi(.LC7)
.LVL144:
.LM247:
	addi	a0,a0,%lo(.LC7)
	ret
.LVL145:
.L86:
.LM248:
	lui	a0,%hi(.LC13)
.LVL146:
.LM249:
	addi	a0,a0,%lo(.LC13)
	ret
.LVL147:
.L87:
.LM250:
	lui	a0,%hi(.LC14)
.LVL148:
.LM251:
	addi	a0,a0,%lo(.LC14)
	ret
.LVL149:
.L89:
.LM252:
	lui	a0,%hi(.LC66)
.LVL150:
.LM253:
	addi	a0,a0,%lo(.LC66)
	ret
.LVL151:
.L90:
.LM254:
	lui	a0,%hi(.LC37)
.LVL152:
.LM255:
	addi	a0,a0,%lo(.LC37)
	ret
.LVL153:
.L91:
.LM256:
	lui	a0,%hi(.LC41)
.LVL154:
.LM257:
	addi	a0,a0,%lo(.LC41)
	ret
.LVL155:
.L92:
.LM258:
	lui	a0,%hi(.LC43)
.LVL156:
.LM259:
	addi	a0,a0,%lo(.LC43)
	ret
.LVL157:
.L93:
.LM260:
	lui	a0,%hi(.LC16)
.LVL158:
.LM261:
	addi	a0,a0,%lo(.LC16)
	ret
.LVL159:
.L96:
.LM262:
	lui	a0,%hi(.LC39)
.LVL160:
.LM263:
	addi	a0,a0,%lo(.LC39)
	ret
.LVL161:
.L97:
.LM264:
	lui	a0,%hi(.LC38)
.LVL162:
.LM265:
	addi	a0,a0,%lo(.LC38)
	ret
.LVL163:
.L99:
.LM266:
	lui	a0,%hi(.LC32)
.LVL164:
.LM267:
	addi	a0,a0,%lo(.LC32)
	ret
.LVL165:
.L100:
.LM268:
	lui	a0,%hi(.LC34)
.LVL166:
.LM269:
	addi	a0,a0,%lo(.LC34)
	ret
.LVL167:
.L101:
.LM270:
	lui	a0,%hi(.LC36)
.LVL168:
.LM271:
	addi	a0,a0,%lo(.LC36)
	ret
.LVL169:
.L104:
.LM272:
	lui	a0,%hi(.LC30)
.LVL170:
.LM273:
	addi	a0,a0,%lo(.LC30)
	ret
.LVL171:
.L105:
.LM274:
	lui	a0,%hi(.LC65)
.LVL172:
.LM275:
	addi	a0,a0,%lo(.LC65)
	ret
.LVL173:
.L107:
.LM276:
	lui	a0,%hi(.LC24)
.LVL174:
.LM277:
	addi	a0,a0,%lo(.LC24)
	ret
.LVL175:
.L108:
.LM278:
	lui	a0,%hi(.LC71)
.LVL176:
.LM279:
	addi	a0,a0,%lo(.LC71)
	ret
.LVL177:
.L109:
.LM280:
	lui	a0,%hi(.LC69)
.LVL178:
.LM281:
	addi	a0,a0,%lo(.LC69)
	ret
.LVL179:
.L110:
.LM282:
	lui	a0,%hi(.LC67)
.LVL180:
.LM283:
	addi	a0,a0,%lo(.LC67)
	ret
.LVL181:
.L113:
.LM284:
	lui	a0,%hi(.LC73)
.LVL182:
.LM285:
	addi	a0,a0,%lo(.LC73)
	ret
.LVL183:
.L114:
.LM286:
	lui	a0,%hi(.LC25)
.LVL184:
.LM287:
	addi	a0,a0,%lo(.LC25)
	ret
.LVL185:
.L116:
.LM288:
	lui	a0,%hi(.LC19)
.LVL186:
.LM289:
	addi	a0,a0,%lo(.LC19)
	ret
.LVL187:
.L117:
.LM290:
	lui	a0,%hi(.LC21)
.LVL188:
.LM291:
	addi	a0,a0,%lo(.LC21)
	ret
.LVL189:
.L118:
.LM292:
	lui	a0,%hi(.LC23)
.LVL190:
.LM293:
	addi	a0,a0,%lo(.LC23)
	ret
.LVL191:
.L121:
.LM294:
	lui	a0,%hi(.LC17)
.LVL192:
.LM295:
	addi	a0,a0,%lo(.LC17)
	ret
.LVL193:
.L122:
.LM296:
	lui	a0,%hi(.LC26)
.LVL194:
.LM297:
	addi	a0,a0,%lo(.LC26)
	ret
.LVL195:
.L124:
.LM298:
	lui	a0,%hi(.LC109)
.LVL196:
.LM299:
	addi	a0,a0,%lo(.LC109)
	ret
.LVL197:
.L125:
.LM300:
	lui	a0,%hi(.LC120)
.LVL198:
.LM301:
	addi	a0,a0,%lo(.LC120)
	ret
.LVL199:
.L126:
.LM302:
	lui	a0,%hi(.LC59)
.LVL200:
.LM303:
	addi	a0,a0,%lo(.LC59)
	ret
.LVL201:
.L127:
.LM304:
	lui	a0,%hi(.LC55)
.LVL202:
.LM305:
	addi	a0,a0,%lo(.LC55)
	ret
.LVL203:
.L128:
.LM306:
	lui	a0,%hi(.LC53)
.LVL204:
.LM307:
	addi	a0,a0,%lo(.LC53)
	ret
.LVL205:
.L129:
.LM308:
	lui	a0,%hi(.LC28)
.LVL206:
.LM309:
	addi	a0,a0,%lo(.LC28)
	ret
.LVL207:
.L132:
.LM310:
	lui	a0,%hi(.LC57)
.LVL208:
.LM311:
	addi	a0,a0,%lo(.LC57)
	ret
.LVL209:
.L133:
.LM312:
	lui	a0,%hi(.LC58)
.LVL210:
.LM313:
	addi	a0,a0,%lo(.LC58)
	ret
.LVL211:
.L135:
.LM314:
	lui	a0,%hi(.LC64)
.LVL212:
.LM315:
	addi	a0,a0,%lo(.LC64)
	ret
.LVL213:
.L136:
.LM316:
	lui	a0,%hi(.LC62)
.LVL214:
.LM317:
	addi	a0,a0,%lo(.LC62)
	ret
.LVL215:
.L137:
.LM318:
	lui	a0,%hi(.LC60)
.LVL216:
.LM319:
	addi	a0,a0,%lo(.LC60)
	ret
.LVL217:
.L140:
.LM320:
	lui	a0,%hi(.LC122)
.LVL218:
.LM321:
	addi	a0,a0,%lo(.LC122)
	ret
.LVL219:
.L141:
.LM322:
	lui	a0,%hi(.LC121)
.LVL220:
.LM323:
	addi	a0,a0,%lo(.LC121)
	ret
.LVL221:
.L143:
.LM324:
	lui	a0,%hi(.LC118)
.LVL222:
.LM325:
	addi	a0,a0,%lo(.LC118)
	ret
.LVL223:
.L144:
.LM326:
	lui	a0,%hi(.LC4)
.LVL224:
.LM327:
	addi	a0,a0,%lo(.LC4)
	ret
.LVL225:
.L145:
.LM328:
	lui	a0,%hi(.LC2)
.LVL226:
.LM329:
	addi	a0,a0,%lo(.LC2)
	ret
.LVL227:
.L146:
.LM330:
	lui	a0,%hi(.LC0)
.LVL228:
.LM331:
	addi	a0,a0,%lo(.LC0)
	ret
.LVL229:
.L149:
.LM332:
	lui	a0,%hi(.LC6)
.LVL230:
.LM333:
	addi	a0,a0,%lo(.LC6)
	ret
.LVL231:
.L150:
.LM334:
	lui	a0,%hi(.LC119)
.LVL232:
.LM335:
	addi	a0,a0,%lo(.LC119)
	ret
.LVL233:
.L152:
.LM336:
	lui	a0,%hi(.LC113)
.LVL234:
.LM337:
	addi	a0,a0,%lo(.LC113)
	ret
.LVL235:
.L153:
.LM338:
	lui	a0,%hi(.LC115)
.LVL236:
.LM339:
	addi	a0,a0,%lo(.LC115)
	ret
.LVL237:
.L154:
.LM340:
	lui	a0,%hi(.LC117)
.LVL238:
.LM341:
	addi	a0,a0,%lo(.LC117)
	ret
.LVL239:
.L157:
.LM342:
	lui	a0,%hi(.LC111)
.LVL240:
.LM343:
	addi	a0,a0,%lo(.LC111)
	ret
.LVL241:
.L158:
.LM344:
	lui	a0,%hi(.LC110)
.LVL242:
.LM345:
	addi	a0,a0,%lo(.LC110)
	ret
.LVL243:
.L160:
.LM346:
	lui	a0,%hi(.LC81)
.LVL244:
.LM347:
	addi	a0,a0,%lo(.LC81)
	ret
.LVL245:
.L161:
.LM348:
	lui	a0,%hi(.LC100)
.LVL246:
.LM349:
	addi	a0,a0,%lo(.LC100)
	ret
.LVL247:
.L162:
.LM350:
	lui	a0,%hi(.LC104)
.LVL248:
.LM351:
	addi	a0,a0,%lo(.LC104)
	ret
.LVL249:
.L163:
.LM352:
	lui	a0,%hi(.LC106)
.LVL250:
.LM353:
	addi	a0,a0,%lo(.LC106)
	ret
.LVL251:
.L164:
.LM354:
	lui	a0,%hi(.LC108)
.LVL252:
.LM355:
	addi	a0,a0,%lo(.LC108)
	ret
.LVL253:
.L167:
.LM356:
	lui	a0,%hi(.LC102)
.LVL254:
.LM357:
	addi	a0,a0,%lo(.LC102)
	ret
.LVL255:
.L168:
.LM358:
	lui	a0,%hi(.LC101)
.LVL256:
.LM359:
	addi	a0,a0,%lo(.LC101)
	ret
.LVL257:
.L170:
.LM360:
	lui	a0,%hi(.LC77)
.LVL258:
.LM361:
	addi	a0,a0,%lo(.LC77)
	ret
.LVL259:
.L171:
.LM362:
	lui	a0,%hi(.LC75)
.LVL260:
.LM363:
	addi	a0,a0,%lo(.LC75)
	ret
.LVL261:
.L172:
.LM364:
	lui	a0,%hi(.LC99)
.LVL262:
.LM365:
	addi	a0,a0,%lo(.LC99)
	ret
.LVL263:
.L175:
.LM366:
	lui	a0,%hi(.LC79)
.LVL264:
.LM367:
	addi	a0,a0,%lo(.LC79)
	ret
.LVL265:
.L176:
.LM368:
	lui	a0,%hi(.LC80)
.LVL266:
.LM369:
	addi	a0,a0,%lo(.LC80)
	ret
.LVL267:
.L178:
.LM370:
	lui	a0,%hi(.LC90)
.LVL268:
.LM371:
	addi	a0,a0,%lo(.LC90)
	ret
.LVL269:
.L179:
.LM372:
	lui	a0,%hi(.LC86)
.LVL270:
.LM373:
	addi	a0,a0,%lo(.LC86)
	ret
.LVL271:
.L180:
.LM374:
	lui	a0,%hi(.LC84)
.LVL272:
.LM375:
	addi	a0,a0,%lo(.LC84)
	ret
.LVL273:
.L181:
.LM376:
	lui	a0,%hi(.LC82)
.LVL274:
.LM377:
	addi	a0,a0,%lo(.LC82)
	ret
.LVL275:
.L184:
.LM378:
	lui	a0,%hi(.LC88)
.LVL276:
.LM379:
	addi	a0,a0,%lo(.LC88)
	ret
.LVL277:
.L185:
.LM380:
	lui	a0,%hi(.LC89)
.LVL278:
.LM381:
	addi	a0,a0,%lo(.LC89)
	ret
.LVL279:
.L187:
.LM382:
	lui	a0,%hi(.LC95)
.LVL280:
.LM383:
	addi	a0,a0,%lo(.LC95)
	ret
.LVL281:
.L188:
.LM384:
	lui	a0,%hi(.LC93)
.LVL282:
.LM385:
	addi	a0,a0,%lo(.LC93)
	ret
.LVL283:
.L189:
.LM386:
	lui	a0,%hi(.LC91)
.LVL284:
.LM387:
	addi	a0,a0,%lo(.LC91)
	ret
.LVL285:
.L192:
.LM388:
	lui	a0,%hi(.LC97)
.LVL286:
.LM389:
	addi	a0,a0,%lo(.LC97)
	ret
.LVL287:
.L193:
.LM390:
	lui	a0,%hi(.LC98)
.LVL288:
.LM391:
	addi	a0,a0,%lo(.LC98)
.L1:
.LM392:
	ret
	.cfi_endproc
.LFE98:
	.size	mbedtls_high_level_strerr, .-mbedtls_high_level_strerr
	.section	.rodata.mbedtls_low_level_strerr.str1.4,"aMS",@progbits,1
	.align	2
.LC144:
	.string	"AES - Invalid key length"
	.align	2
.LC145:
	.string	"AES - Invalid input data"
	.align	2
.LC146:
	.string	"ASN1 - Out of data when parsing an ASN1 data structure"
	.align	2
.LC147:
	.string	"ASN1 - ASN1 tag was of an unexpected value"
	.align	2
.LC148:
	.string	"ASN1 - Error when trying to determine the length or invalid length"
	.align	2
.LC149:
	.string	"ASN1 - Actual length differs from expected length"
	.align	2
.LC150:
	.string	"ASN1 - Data is invalid"
	.align	2
.LC151:
	.string	"ASN1 - Memory allocation failed"
	.align	2
.LC152:
	.string	"ASN1 - Buffer too small when writing ASN.1 data structure"
	.align	2
.LC153:
	.string	"BASE64 - Output buffer too small"
	.align	2
.LC154:
	.string	"BASE64 - Invalid character in input"
	.align	2
.LC155:
	.string	"BIGNUM - An error occurred while reading from or writing to a file"
	.align	2
.LC156:
	.string	"BIGNUM - Bad input parameters to function"
	.align	2
.LC157:
	.string	"BIGNUM - There is an invalid character in the digit string"
	.align	2
.LC158:
	.string	"BIGNUM - The buffer is too small to write to"
	.align	2
.LC159:
	.string	"BIGNUM - The input arguments are negative or result in illegal output"
	.align	2
.LC160:
	.string	"BIGNUM - The input argument for division is zero, which is not allowed"
	.align	2
.LC161:
	.string	"BIGNUM - The input arguments are not acceptable"
	.align	2
.LC162:
	.string	"BIGNUM - Memory allocation failed"
	.align	2
.LC163:
	.string	"CCM - Bad input parameters to the function"
	.align	2
.LC164:
	.string	"CCM - Authenticated decryption failed"
	.align	2
.LC165:
	.string	"CHACHA20 - Invalid input parameter(s)"
	.align	2
.LC166:
	.string	"CTR_DRBG - The entropy source failed"
	.align	2
.LC167:
	.string	"CTR_DRBG - The requested random buffer length is too big"
	.align	2
.LC168:
	.string	"CTR_DRBG - The input (entropy + additional data) is too large"
	.align	2
.LC169:
	.string	"CTR_DRBG - Read or write error in file"
	.align	2
.LC170:
	.string	"DES - The data input has an invalid length"
	.align	2
.LC171:
	.string	"ENTROPY - Critical entropy source failure"
	.align	2
.LC172:
	.string	"ENTROPY - No more sources can be added"
	.align	2
.LC173:
	.string	"ENTROPY - No sources have been added to poll"
	.align	2
.LC174:
	.string	"ENTROPY - No strong sources have been added to poll"
	.align	2
.LC175:
	.string	"ENTROPY - Read/write error in file"
	.align	2
.LC176:
	.string	"ERROR - Generic error"
	.align	2
.LC177:
	.string	"ERROR - This is a bug in the library"
	.align	2
.LC178:
	.string	"PLATFORM - Hardware accelerator failed"
	.align	2
.LC179:
	.string	"PLATFORM - The requested feature is not supported by the platform"
	.align	2
.LC180:
	.string	"GCM - Authenticated decryption failed"
	.align	2
.LC181:
	.string	"GCM - Bad input parameters to function"
	.align	2
.LC182:
	.string	"GCM - An output buffer is too small"
	.align	2
.LC183:
	.string	"AES - Invalid data input length"
	.align	2
.LC184:
	.string	"HMAC_DRBG - Too many random requested in single call"
	.align	2
.LC185:
	.string	"HMAC_DRBG - Input too large (Entropy + additional)"
	.align	2
.LC186:
	.string	"HMAC_DRBG - Read/write error in file"
	.align	2
.LC187:
	.string	"HMAC_DRBG - The entropy source failed"
	.align	2
.LC188:
	.string	"OID - OID is not found"
	.align	2
.LC189:
	.string	"OID - output buffer is too small"
	.align	2
.LC190:
	.string	"SHA1 - SHA-1 input data was malformed"
	.align	2
.LC191:
	.string	"SHA256 - SHA-256 input data was malformed"
	.align	2
.LC192:
	.string	"SHA3 - SHA-3 input data was malformed"
	.align	2
.LC193:
	.string	"SHA512 - SHA-512 input data was malformed"
	.section	.text.mbedtls_low_level_strerr,"ax",@progbits
	.align	1
	.globl	mbedtls_low_level_strerr
	.type	mbedtls_low_level_strerr, @function
mbedtls_low_level_strerr:
.LVL289:
.LFB99:
.LM393:
	.cfi_startproc
.LM394:
.LM395:
.LM396:
.LM397:
	srai	a4,a0,31
	xor	a5,a4,a0
	sub	a5,a5,a4
.LM398:
	li	a4,-65536
	addi	a4,a4,127
	and	a5,a5,a4
.LVL290:
.LM399:
	addi	a5,a5,-1
.LVL291:
.LM400:
	li	a4,117
	bgtu	a5,a4,.L248
	lui	a4,%hi(.L199)
	slli	a5,a5,2
.LVL292:
.LM401:
	addi	a4,a4,%lo(.L199)
	add	a5,a5,a4
	lw	a5,0(a5)
	jr	a5
	.section	.rodata.mbedtls_low_level_strerr,"a",@progbits
	.align	2
	.align	2
.L199:
	.word	.L247
	.word	.L246
	.word	.L245
	.word	.L244
	.word	.L243
	.word	.L242
	.word	.L241
	.word	.L240
	.word	.L239
	.word	.L238
	.word	.L237
	.word	.L236
	.word	.L235
	.word	.L234
	.word	.L233
	.word	.L232
	.word	.L248
	.word	.L231
	.word	.L248
	.word	.L230
	.word	.L248
	.word	.L229
	.word	.L248
	.word	.L248
	.word	.L248
	.word	.L248
	.word	.L248
	.word	.L248
	.word	.L248
	.word	.L248
	.word	.L248
	.word	.L228
	.word	.L227
	.word	.L249
	.word	.L248
	.word	.L248
	.word	.L248
	.word	.L248
	.word	.L248
	.word	.L248
	.word	.L248
	.word	.L226
	.word	.L248
	.word	.L225
	.word	.L248
	.word	.L224
	.word	.L248
	.word	.L248
	.word	.L248
	.word	.L223
	.word	.L248
	.word	.L222
	.word	.L248
	.word	.L221
	.word	.L248
	.word	.L220
	.word	.L248
	.word	.L219
	.word	.L248
	.word	.L218
	.word	.L217
	.word	.L216
	.word	.L215
	.word	.L214
	.word	.L248
	.word	.L248
	.word	.L248
	.word	.L248
	.word	.L248
	.word	.L248
	.word	.L248
	.word	.L248
	.word	.L248
	.word	.L248
	.word	.L248
	.word	.L248
	.word	.L248
	.word	.L248
	.word	.L248
	.word	.L248
	.word	.L213
	.word	.L248
	.word	.L248
	.word	.L248
	.word	.L248
	.word	.L248
	.word	.L248
	.word	.L248
	.word	.L248
	.word	.L248
	.word	.L248
	.word	.L248
	.word	.L248
	.word	.L248
	.word	.L248
	.word	.L212
	.word	.L248
	.word	.L211
	.word	.L248
	.word	.L210
	.word	.L248
	.word	.L209
	.word	.L248
	.word	.L208
	.word	.L248
	.word	.L207
	.word	.L248
	.word	.L206
	.word	.L248
	.word	.L205
	.word	.L248
	.word	.L204
	.word	.L248
	.word	.L203
	.word	.L202
	.word	.L201
	.word	.L200
	.word	.L198
	.section	.text.mbedtls_low_level_strerr
.L228:
.LM402:
	lui	a0,%hi(.LC144)
.LVL293:
.LM403:
	addi	a0,a0,%lo(.LC144)
	ret
.LVL294:
.L227:
.LM404:
.LM405:
	lui	a0,%hi(.LC145)
.LVL295:
.LM406:
	addi	a0,a0,%lo(.LC145)
	ret
.LVL296:
.L212:
.LM407:
.LM408:
	lui	a0,%hi(.LC146)
.LVL297:
.LM409:
	addi	a0,a0,%lo(.LC146)
	ret
.LVL298:
.L211:
.LM410:
.LM411:
	lui	a0,%hi(.LC147)
.LVL299:
.LM412:
	addi	a0,a0,%lo(.LC147)
	ret
.LVL300:
.L210:
.LM413:
.LM414:
	lui	a0,%hi(.LC148)
.LVL301:
.LM415:
	addi	a0,a0,%lo(.LC148)
	ret
.LVL302:
.L209:
.LM416:
.LM417:
	lui	a0,%hi(.LC149)
.LVL303:
.LM418:
	addi	a0,a0,%lo(.LC149)
	ret
.LVL304:
.L208:
.LM419:
.LM420:
	lui	a0,%hi(.LC150)
.LVL305:
.LM421:
	addi	a0,a0,%lo(.LC150)
	ret
.LVL306:
.L207:
.LM422:
.LM423:
	lui	a0,%hi(.LC151)
.LVL307:
.LM424:
	addi	a0,a0,%lo(.LC151)
	ret
.LVL308:
.L206:
.LM425:
.LM426:
	lui	a0,%hi(.LC152)
.LVL309:
.LM427:
	addi	a0,a0,%lo(.LC152)
	ret
.LVL310:
.L226:
.LM428:
.LM429:
	lui	a0,%hi(.LC153)
.LVL311:
.LM430:
	addi	a0,a0,%lo(.LC153)
	ret
.LVL312:
.L225:
.LM431:
.LM432:
	lui	a0,%hi(.LC154)
.LVL313:
.LM433:
	addi	a0,a0,%lo(.LC154)
	ret
.LVL314:
.L246:
.LM434:
.LM435:
	lui	a0,%hi(.LC155)
.LVL315:
.LM436:
	addi	a0,a0,%lo(.LC155)
	ret
.LVL316:
.L244:
.LM437:
.LM438:
	lui	a0,%hi(.LC156)
.LVL317:
.LM439:
	addi	a0,a0,%lo(.LC156)
	ret
.LVL318:
.L242:
.LM440:
.LM441:
	lui	a0,%hi(.LC157)
.LVL319:
.LM442:
	addi	a0,a0,%lo(.LC157)
	ret
.LVL320:
.L240:
.LM443:
.LM444:
	lui	a0,%hi(.LC158)
.LVL321:
.LM445:
	addi	a0,a0,%lo(.LC158)
	ret
.LVL322:
.L238:
.LM446:
.LM447:
	lui	a0,%hi(.LC159)
.LVL323:
.LM448:
	addi	a0,a0,%lo(.LC159)
	ret
.LVL324:
.L236:
.LM449:
.LM450:
	lui	a0,%hi(.LC160)
.LVL325:
.LM451:
	addi	a0,a0,%lo(.LC160)
	ret
.LVL326:
.L234:
.LM452:
.LM453:
	lui	a0,%hi(.LC161)
.LVL327:
.LM454:
	addi	a0,a0,%lo(.LC161)
	ret
.LVL328:
.L232:
.LM455:
.LM456:
	lui	a0,%hi(.LC162)
.LVL329:
.LM457:
	addi	a0,a0,%lo(.LC162)
	ret
.LVL330:
.L235:
.LM458:
.LM459:
	lui	a0,%hi(.LC163)
.LVL331:
.LM460:
	addi	a0,a0,%lo(.LC163)
	ret
.LVL332:
.L233:
.LM461:
.LM462:
	lui	a0,%hi(.LC164)
.LVL333:
.LM463:
	addi	a0,a0,%lo(.LC164)
	ret
.LVL334:
.L213:
.LM464:
.LM465:
	lui	a0,%hi(.LC165)
.LVL335:
.LM466:
	addi	a0,a0,%lo(.LC165)
	ret
.LVL336:
.L222:
.LM467:
.LM468:
	lui	a0,%hi(.LC166)
.LVL337:
.LM469:
	addi	a0,a0,%lo(.LC166)
	ret
.LVL338:
.L221:
.LM470:
.LM471:
	lui	a0,%hi(.LC167)
.LVL339:
.LM472:
	addi	a0,a0,%lo(.LC167)
	ret
.LVL340:
.L220:
.LM473:
.LM474:
	lui	a0,%hi(.LC168)
.LVL341:
.LM475:
	addi	a0,a0,%lo(.LC168)
	ret
.LVL342:
.L219:
.LM476:
.LM477:
	lui	a0,%hi(.LC169)
.LVL343:
.LM478:
	addi	a0,a0,%lo(.LC169)
	ret
.LVL344:
.L223:
.LM479:
.LM480:
	lui	a0,%hi(.LC170)
.LVL345:
.LM481:
	addi	a0,a0,%lo(.LC170)
	ret
.LVL346:
.L218:
.LM482:
.LM483:
	lui	a0,%hi(.LC171)
.LVL347:
.LM484:
	addi	a0,a0,%lo(.LC171)
	ret
.LVL348:
.L216:
.LM485:
.LM486:
	lui	a0,%hi(.LC172)
.LVL349:
.LM487:
	addi	a0,a0,%lo(.LC172)
	ret
.LVL350:
.L214:
.LM488:
.LM489:
	lui	a0,%hi(.LC173)
.LVL351:
.LM490:
	addi	a0,a0,%lo(.LC173)
	ret
.LVL352:
.L217:
.LM491:
.LM492:
	lui	a0,%hi(.LC174)
.LVL353:
.LM493:
	addi	a0,a0,%lo(.LC174)
	ret
.LVL354:
.L215:
.LM494:
.LM495:
	lui	a0,%hi(.LC175)
.LVL355:
.LM496:
	addi	a0,a0,%lo(.LC175)
	ret
.LVL356:
.L247:
.LM497:
.LM498:
	lui	a0,%hi(.LC176)
.LVL357:
.LM499:
	addi	a0,a0,%lo(.LC176)
	ret
.LVL358:
.L205:
.LM500:
.LM501:
	lui	a0,%hi(.LC177)
.LVL359:
.LM502:
	addi	a0,a0,%lo(.LC177)
	ret
.LVL360:
.L204:
.LM503:
.LM504:
	lui	a0,%hi(.LC178)
.LVL361:
.LM505:
	addi	a0,a0,%lo(.LC178)
	ret
.LVL362:
.L203:
.LM506:
.LM507:
	lui	a0,%hi(.LC179)
.LVL363:
.LM508:
	addi	a0,a0,%lo(.LC179)
	ret
.LVL364:
.L231:
.LM509:
.LM510:
	lui	a0,%hi(.LC180)
.LVL365:
.LM511:
	addi	a0,a0,%lo(.LC180)
	ret
.LVL366:
.L230:
.LM512:
.LM513:
	lui	a0,%hi(.LC181)
.LVL367:
.LM514:
	addi	a0,a0,%lo(.LC181)
	ret
.LVL368:
.L229:
.LM515:
.LM516:
	lui	a0,%hi(.LC182)
.LVL369:
.LM517:
	addi	a0,a0,%lo(.LC182)
	ret
.LVL370:
.L245:
.LM518:
.LM519:
	lui	a0,%hi(.LC184)
.LVL371:
.LM520:
	addi	a0,a0,%lo(.LC184)
	ret
.LVL372:
.L243:
.LM521:
.LM522:
	lui	a0,%hi(.LC185)
.LVL373:
.LM523:
	addi	a0,a0,%lo(.LC185)
	ret
.LVL374:
.L241:
.LM524:
.LM525:
	lui	a0,%hi(.LC186)
.LVL375:
.LM526:
	addi	a0,a0,%lo(.LC186)
	ret
.LVL376:
.L239:
.LM527:
.LM528:
	lui	a0,%hi(.LC187)
.LVL377:
.LM529:
	addi	a0,a0,%lo(.LC187)
	ret
.LVL378:
.L224:
.LM530:
.LM531:
	lui	a0,%hi(.LC188)
.LVL379:
.LM532:
	addi	a0,a0,%lo(.LC188)
	ret
.LVL380:
.L237:
.LM533:
.LM534:
	lui	a0,%hi(.LC189)
.LVL381:
.LM535:
	addi	a0,a0,%lo(.LC189)
	ret
.LVL382:
.L202:
.LM536:
.LM537:
	lui	a0,%hi(.LC190)
.LVL383:
.LM538:
	addi	a0,a0,%lo(.LC190)
	ret
.LVL384:
.L201:
.LM539:
.LM540:
	lui	a0,%hi(.LC191)
.LVL385:
.LM541:
	addi	a0,a0,%lo(.LC191)
	ret
.LVL386:
.L198:
.LM542:
.LM543:
	lui	a0,%hi(.LC192)
.LVL387:
.LM544:
	addi	a0,a0,%lo(.LC192)
	ret
.LVL388:
.L200:
.LM545:
.LM546:
	lui	a0,%hi(.LC193)
.LVL389:
.LM547:
	addi	a0,a0,%lo(.LC193)
	ret
.LVL390:
.L248:
.LM548:
	li	a0,0
.LVL391:
.LM549:
	ret
.LVL392:
.L249:
.LM550:
	lui	a0,%hi(.LC183)
.LVL393:
.LM551:
	addi	a0,a0,%lo(.LC183)
.LM552:
	ret
	.cfi_endproc
.LFE99:
	.size	mbedtls_low_level_strerr, .-mbedtls_low_level_strerr
	.section	.rodata.mbedtls_strerror.str1.4,"aMS",@progbits,1
	.align	2
.LC194:
	.string	"UNKNOWN ERROR CODE (%04X)"
	.align	2
.LC195:
	.string	"%s"
	.align	2
.LC196:
	.string	" : "
	.section	.text.mbedtls_strerror,"ax",@progbits
	.align	1
	.globl	mbedtls_strerror
	.type	mbedtls_strerror, @function
mbedtls_strerror:
.LVL394:
.LFB100:
.LM553:
	.cfi_startproc
.LM554:
.LM555:
.LM556:
.LM557:
.LM558:
.LM559:
	beq	a2,zero,.L269
.LM560:
	addi	sp,sp,-32
	.cfi_def_cfa_offset 32
	sw	s1,20(sp)
	.cfi_offset 9, -12
	mv	s1,a1
	sw	s4,8(sp)
.LM561:
	li	a1,0
.LVL395:
	.cfi_offset 20, -24
.LM562:
	mv	s4,a0
.LM563:
	mv	a0,s1
.LVL396:
.LM564:
	sw	s0,24(sp)
	sw	s2,16(sp)
	sw	ra,28(sp)
	sw	s3,12(sp)
	.cfi_offset 8, -8
	.cfi_offset 18, -16
	.cfi_offset 1, -4
	.cfi_offset 19, -20
	mv	s0,a2
.LM565:
	call	memset
.LVL397:
.LM566:
.LM567:
	srai	a5,s4,31
	xor	s4,a5,s4
.LVL398:
.LM568:
	li	s2,65536
.LM569:
	sub	s4,s4,a5
.LVL399:
.LM570:
.LM571:
	addi	s2,s2,-128
	and	s2,s4,s2
.LM572:
	bne	s2,zero,.L253
.LVL400:
.L258:
.LM573:
.LM574:
	li	s2,-65536
	addi	s2,s2,127
	and	s2,s4,s2
.LVL401:
.LM575:
.LM576:
	beq	s2,zero,.L250
.LM577:
.LM578:
	mv	a0,s1
	call	strlen
.LVL402:
	mv	s3,a0
.LVL403:
.LM579:
.LM580:
	beq	a0,zero,.L259
.LM581:
.LM582:
	sub	s0,s0,a0
.LVL404:
.LM583:
	li	a5,4
	bleu	s0,a5,.L250
.LM584:
	lui	a2,%hi(.LC196)
	mv	a1,s0
	add	a0,s1,a0
.LVL405:
.LM585:
	addi	a2,a2,%lo(.LC196)
.LM586:
	addi	s3,s3,3
.LVL406:
.LM587:
	call	snprintf
.LVL407:
.LM588:
.LM589:
	add	s1,s1,s3
.LVL408:
.LM590:
.LM591:
	addi	s0,s0,-3
.LVL409:
.L259:
.LM592:
.LM593:
	mv	a0,s4
	call	mbedtls_low_level_strerr
.LVL410:
	mv	a3,a0
.LVL411:
.LM594:
.LM595:
	bne	a0,zero,.L260
.LM596:
	lui	a2,%hi(.LC194)
	mv	a3,s2
	addi	a2,a2,%lo(.LC194)
.L273:
.LM597:
	mv	a1,s0
.LM598:
	lw	s0,24(sp)
	.cfi_remember_state
	.cfi_restore 8
.LVL412:
.LM599:
	lw	ra,28(sp)
	.cfi_restore 1
	lw	s2,16(sp)
	.cfi_restore 18
.LVL413:
.LM600:
	lw	s3,12(sp)
	.cfi_restore 19
	lw	s4,8(sp)
	.cfi_restore 20
.LVL414:
.LM601:
	mv	a0,s1
.LVL415:
.LM602:
	lw	s1,20(sp)
	.cfi_restore 9
.LVL416:
.LM603:
	addi	sp,sp,32
	.cfi_def_cfa_offset 0
.LM604:
	tail	snprintf
.LVL417:
.L253:
	.cfi_restore_state
.LM605:
.LM606:
.LM607:
	mv	a0,s4
	call	mbedtls_high_level_strerr
.LVL418:
	mv	a3,a0
.LVL419:
.LM608:
.LM609:
	bne	a0,zero,.L256
.LM610:
	lui	a2,%hi(.LC194)
	mv	a3,s2
	addi	a2,a2,%lo(.LC194)
.L272:
.LM611:
	mv	a1,s0
	mv	a0,s1
.LVL420:
.LM612:
	call	snprintf
.LVL421:
.LM613:
.LM614:
	li	a5,28672
	addi	a5,a5,1920
	bne	s2,a5,.L258
.LVL422:
.L250:
.LM615:
	lw	ra,28(sp)
	.cfi_remember_state
	.cfi_restore 1
	lw	s0,24(sp)
	.cfi_restore 8
	lw	s1,20(sp)
	.cfi_restore 9
.LVL423:
.LM616:
	lw	s2,16(sp)
	.cfi_restore 18
.LVL424:
.LM617:
	lw	s3,12(sp)
	.cfi_restore 19
	lw	s4,8(sp)
	.cfi_restore 20
.LVL425:
.LM618:
	addi	sp,sp,32
	.cfi_def_cfa_offset 0
	jr	ra
.LVL426:
.L256:
	.cfi_restore_state
.LM619:
	lui	a2,%hi(.LC195)
	addi	a2,a2,%lo(.LC195)
	j	.L272
.LVL427:
.L260:
.LM620:
	lui	a2,%hi(.LC195)
	addi	a2,a2,%lo(.LC195)
	j	.L273
.LVL428:
.L269:
	.cfi_def_cfa_offset 0
	.cfi_restore 1
	.cfi_restore 8
	.cfi_restore 9
	.cfi_restore 18
	.cfi_restore 19
	.cfi_restore 20
.LM621:
	ret
	.cfi_endproc
.LFE100:
	.size	mbedtls_strerror, .-mbedtls_strerror
	.text
.Letext0:
	.section	.note.GNU-stack,"",@progbits
