	.file	"pk_ecc.c"
	.option nopic
	.attribute arch, "rv32i2p1_m2p0_f2p2_c2p0_zicsr2p0_zmmul1p0_zca1p0_zcf1p0"
	.attribute unaligned_access, 0
	.attribute stack_align, 16
	.text
.Ltext0:
	.cfi_sections	.debug_frame
	.section	.text.mbedtls_pk_ec_ro,"ax",@progbits
	.align	1
	.type	mbedtls_pk_ec_ro, @function
mbedtls_pk_ec_ro:
.LFB72:
.LM1:
	.cfi_startproc
.LM2:
.LM3:
	addi	sp,sp,-32
	.cfi_def_cfa_offset 32
	sw	a0,8(sp)
.LM4:
	addi	a0,sp,8
.LM5:
	sw	ra,28(sp)
	.cfi_offset 1, -4
.LM6:
	sw	a1,12(sp)
.LM7:
	call	mbedtls_pk_get_type
.LVL0:
.LM8:
	addi	a0,a0,-2
	li	a5,2
	bgtu	a0,a5,.L3
.LM9:
.LM10:
	lw	a0,12(sp)
.L1:
.LM11:
	lw	ra,28(sp)
	.cfi_remember_state
	.cfi_restore 1
	addi	sp,sp,32
	.cfi_def_cfa_offset 0
	jr	ra
.L3:
	.cfi_restore_state
.LM12:
	li	a0,0
	j	.L1
	.cfi_endproc
.LFE72:
	.size	mbedtls_pk_ec_ro, .-mbedtls_pk_ec_ro
	.set	mbedtls_pk_ec_rw,mbedtls_pk_ec_ro
	.section	.text.mbedtls_pk_ecc_set_group,"ax",@progbits
	.align	1
	.globl	mbedtls_pk_ecc_set_group
	.type	mbedtls_pk_ecc_set_group, @function
mbedtls_pk_ecc_set_group:
.LVL1:
.LFB76:
.LM13:
	.cfi_startproc
.LM14:
.LM15:
	addi	sp,sp,-16
	.cfi_def_cfa_offset 16
	sw	ra,12(sp)
	sw	s0,8(sp)
	sw	s1,4(sp)
	sw	s2,0(sp)
	.cfi_offset 1, -4
	.cfi_offset 8, -8
	.cfi_offset 9, -12
	.cfi_offset 18, -16
.LM16:
	mv	s0,a0
	mv	s1,a1
.LM17:
	lw	a0,0(a0)
.LVL2:
.LM18:
	lw	a1,4(s0)
.LVL3:
.LM19:
	call	mbedtls_pk_ec_rw
.LVL4:
.LM20:
	lw	a1,4(s0)
.LM21:
	mv	s2,a0
.LVL5:
.LM22:
.LM23:
	lw	a0,0(s0)
.LVL6:
.LM24:
	call	mbedtls_pk_ec_ro
.LVL7:
.LM25:
	lbu	a5,0(a0)
	bne	a5,zero,.L6
.L7:
.LM26:
.LM27:
	lw	s0,8(sp)
	.cfi_remember_state
	.cfi_restore 8
.LVL8:
.LM28:
	lw	ra,12(sp)
	.cfi_restore 1
.LM29:
	mv	a1,s1
	mv	a0,s2
.LM30:
	lw	s1,4(sp)
	.cfi_restore 9
.LVL9:
.LM31:
	lw	s2,0(sp)
	.cfi_restore 18
.LVL10:
.LM32:
	addi	sp,sp,16
	.cfi_def_cfa_offset 0
.LM33:
	tail	mbedtls_ecp_group_load
.LVL11:
.L6:
	.cfi_restore_state
.LM34:
	lw	a0,0(s0)
	lw	a1,4(s0)
	call	mbedtls_pk_ec_ro
.LVL12:
.LM35:
	lbu	a5,0(a0)
	beq	a5,s1,.L7
.LM36:
	lw	ra,12(sp)
	.cfi_restore 1
	lw	s0,8(sp)
	.cfi_restore 8
.LVL13:
.LM37:
	li	a0,-16384
	lw	s1,4(sp)
	.cfi_restore 9
	lw	s2,0(sp)
	.cfi_restore 18
.LVL14:
.LM38:
	addi	a0,a0,768
	addi	sp,sp,16
	.cfi_def_cfa_offset 0
	jr	ra
	.cfi_endproc
.LFE76:
	.size	mbedtls_pk_ecc_set_group, .-mbedtls_pk_ecc_set_group
	.section	.text.mbedtls_pk_ecc_set_key,"ax",@progbits
	.align	1
	.globl	mbedtls_pk_ecc_set_key
	.type	mbedtls_pk_ecc_set_key, @function
mbedtls_pk_ecc_set_key:
.LVL15:
.LFB77:
.LM39:
	.cfi_startproc
.LM40:
.LM41:
	addi	sp,sp,-32
	.cfi_def_cfa_offset 32
	sw	s0,24(sp)
	sw	ra,28(sp)
	.cfi_offset 8, -8
	.cfi_offset 1, -4
.LM42:
	mv	a5,a0
	mv	s0,a1
.LM43:
	lw	a0,0(a0)
.LVL16:
.LM44:
	lw	a1,4(a5)
.LVL17:
.LM45:
	sw	a2,12(sp)
.LM46:
	call	mbedtls_pk_ec_rw
.LVL18:
.LM47:
.LM48:
	mv	a1,a0
	lw	a3,12(sp)
	lbu	a0,0(a0)
.LVL19:
.LM49:
	mv	a2,s0
	call	mbedtls_ecp_read_key
.LVL20:
.LM50:
.LM51:
	beq	a0,zero,.L9
.LM52:
.LVL21:
.LBB4:
.LBI4:
.LM53:
.LBB5:
.LM54:
.LM55:
.LM56:
.LM57:
	li	a5,-16384
	addi	a5,a5,768
	add	a0,a0,a5
.LVL22:
.L9:
.LM58:
.LBE5:
.LBE4:
.LM59:
	lw	ra,28(sp)
	.cfi_restore 1
	lw	s0,24(sp)
	.cfi_restore 8
.LVL23:
.LM60:
	addi	sp,sp,32
	.cfi_def_cfa_offset 0
.LVL24:
.LM61:
	jr	ra
	.cfi_endproc
.LFE77:
	.size	mbedtls_pk_ecc_set_key, .-mbedtls_pk_ecc_set_key
	.section	.text.mbedtls_pk_ecc_set_pubkey_from_prv,"ax",@progbits
	.align	1
	.globl	mbedtls_pk_ecc_set_pubkey_from_prv
	.type	mbedtls_pk_ecc_set_pubkey_from_prv, @function
mbedtls_pk_ecc_set_pubkey_from_prv:
.LVL25:
.LFB78:
.LM62:
	.cfi_startproc
.LM63:
.LM64:
.LM65:
.LM66:
	lw	a0,4(a0)
.LVL26:
.LM67:
.LM68:
	mv	a5,a4
.LM69:
	mv	a4,a3
.LVL27:
.LM70:
	addi	a2,a0,96
.LVL28:
.LM71:
	addi	a3,a0,28
.LVL29:
.LM72:
	addi	a1,a0,104
.LVL30:
.LM73:
	tail	mbedtls_ecp_mul
.LVL31:
.LM74:
	.cfi_endproc
.LFE78:
	.size	mbedtls_pk_ecc_set_pubkey_from_prv, .-mbedtls_pk_ecc_set_pubkey_from_prv
	.section	.text.mbedtls_pk_ecc_set_pubkey,"ax",@progbits
	.align	1
	.globl	mbedtls_pk_ecc_set_pubkey
	.type	mbedtls_pk_ecc_set_pubkey, @function
mbedtls_pk_ecc_set_pubkey:
.LVL32:
.LFB79:
.LM75:
	.cfi_startproc
.LM76:
.LM77:
.LM78:
	addi	sp,sp,-32
	.cfi_def_cfa_offset 32
	sw	ra,28(sp)
	sw	s0,24(sp)
	.cfi_offset 1, -4
	.cfi_offset 8, -8
.LM79:
	lw	s0,4(a0)
.LM80:
	mv	a3,a2
.LM81:
	mv	a2,a1
.LVL33:
.LM82:
.LM83:
	mv	a0,s0
.LVL34:
.LM84:
	addi	a1,s0,104
.LVL35:
.LM85:
	sw	a1,12(sp)
	call	mbedtls_ecp_point_read_binary
.LVL36:
.LM86:
.LM87:
	bne	a0,zero,.L16
.LM88:
.LM89:
	mv	a0,s0
.LVL37:
.LM90:
	lw	s0,24(sp)
	.cfi_remember_state
	.cfi_restore 8
.LVL38:
.LM91:
	lw	a1,12(sp)
.LM92:
	lw	ra,28(sp)
	.cfi_restore 1
	addi	sp,sp,32
	.cfi_def_cfa_offset 0
.LM93:
	tail	mbedtls_ecp_check_pubkey
.LVL39:
.L16:
	.cfi_restore_state
.LM94:
	lw	ra,28(sp)
	.cfi_restore 1
	lw	s0,24(sp)
	.cfi_restore 8
.LVL40:
.LM95:
	addi	sp,sp,32
	.cfi_def_cfa_offset 0
.LVL41:
.LM96:
	jr	ra
	.cfi_endproc
.LFE79:
	.size	mbedtls_pk_ecc_set_pubkey, .-mbedtls_pk_ecc_set_pubkey
	.text
.Letext0:
	.section	.note.GNU-stack,"",@progbits
