	.file	"platform_util.c"
	.option nopic
	.attribute arch, "rv32i2p1_m2p0_f2p2_c2p0_zicsr2p0_zmmul1p0_zca1p0_zcf1p0"
	.attribute unaligned_access, 0
	.attribute stack_align, 16
	.text
.Ltext0:
	.cfi_sections	.debug_frame
	.section	.text.mbedtls_platform_zeroize,"ax",@progbits
	.align	1
	.globl	mbedtls_platform_zeroize
	.type	mbedtls_platform_zeroize, @function
mbedtls_platform_zeroize:
.LVL0:
.LFB14:
.LM1:
	.cfi_startproc
.LM2:
.LM3:
	beq	a1,zero,.L7
.LBB4:
.LBB5:
.LM4:
	lui	a5,%hi(memset_func)
	lw	a5,%lo(memset_func)(a5)
.LBE5:
.LBE4:
.LM5:
	addi	sp,sp,-16
	.cfi_def_cfa_offset 16
	sw	s0,8(sp)
	sw	ra,12(sp)
	.cfi_offset 8, -8
	.cfi_offset 1, -4
	mv	a2,a1
.LBB8:
.LBB6:
.LM6:
	li	a1,0
.LVL1:
.LM7:
	mv	s0,a0
.LVL2:
.LM8:
.LBE6:
.LBI4:
.LM9:
.LBB7:
.LM10:
	jalr	a5
.LVL3:
.LM11:
.LM12:
.LVL4:
.LM13:
.LBE7:
.LBE8:
.LM14:
	lw	ra,12(sp)
	.cfi_restore 1
	lw	s0,8(sp)
	.cfi_restore 8
.LVL5:
.LM15:
	addi	sp,sp,16
	.cfi_def_cfa_offset 0
	jr	ra
.LVL6:
.L7:
.LM16:
	ret
	.cfi_endproc
.LFE14:
	.size	mbedtls_platform_zeroize, .-mbedtls_platform_zeroize
	.section	.text.mbedtls_zeroize_and_free,"ax",@progbits
	.align	1
	.globl	mbedtls_zeroize_and_free
	.type	mbedtls_zeroize_and_free, @function
mbedtls_zeroize_and_free:
.LVL7:
.LFB15:
.LM17:
	.cfi_startproc
.LM18:
.LM19:
	addi	sp,sp,-16
	.cfi_def_cfa_offset 16
	sw	s0,8(sp)
	sw	ra,12(sp)
	.cfi_offset 8, -8
	.cfi_offset 1, -4
.LM20:
	mv	s0,a0
.LM21:
	beq	a0,zero,.L11
.LM22:
	call	mbedtls_platform_zeroize
.LVL8:
.L11:
.LM23:
	mv	a0,s0
.LM24:
	lw	s0,8(sp)
	.cfi_restore 8
.LVL9:
.LM25:
	lw	ra,12(sp)
	.cfi_restore 1
	addi	sp,sp,16
	.cfi_def_cfa_offset 0
.LM26:
	tail	free
.LVL10:
.LM27:
	.cfi_endproc
.LFE15:
	.size	mbedtls_zeroize_and_free, .-mbedtls_zeroize_and_free
	.section	.srodata.memset_func,"a"
	.align	2
	.type	memset_func, @object
	.size	memset_func, 4
memset_func:
	.word	memset
	.text
.Letext0:
	.section	.note.GNU-stack,"",@progbits
