	.file	"psa_crypto.c"
	.option nopic
	.attribute arch, "rv32i2p1_m2p0_f2p2_c2p0_zicsr2p0_zmmul1p0_zca1p0_zcf1p0"
	.attribute unaligned_access, 0
	.attribute stack_align, 16
	.text
.Ltext0:
	.cfi_sections	.debug_frame
	.section	.text.psa_extend_key_usage_flags,"ax",@progbits
	.align	1
	.type	psa_extend_key_usage_flags, @function
psa_extend_key_usage_flags:
.LVL0:
.LFB44:
.LM1:
	.cfi_startproc
.LM2:
.LM3:
	lw	a5,0(a0)
.LM4:
	slli	a4,a5,19
	bge	a4,zero,.L2
.LM5:
.LM6:
	ori	a5,a5,1024
	sw	a5,0(a0)
.L2:
.LM7:
.LM8:
	slli	a4,a5,18
	bge	a4,zero,.L1
.LM9:
.LM10:
	li	a4,4096
	addi	a4,a4,-2048
	or	a5,a5,a4
	sw	a5,0(a0)
.L1:
.LM11:
	ret
	.cfi_endproc
.LFE44:
	.size	psa_extend_key_usage_flags, .-psa_extend_key_usage_flags
	.section	.text.key_type_is_raw_bytes,"ax",@progbits
	.align	1
	.type	key_type_is_raw_bytes, @function
key_type_is_raw_bytes:
.LVL1:
.LFB168:
.LM12:
	.cfi_startproc
.LM13:
.LM14:
	li	a5,28672
	and	a0,a0,a5
.LVL2:
.LM15:
	addi	a0,a0,-2048
	li	a5,57344
	addi	a0,a0,-2048
	and	a0,a0,a5
.LM16:
	seqz	a0,a0
	ret
	.cfi_endproc
.LFE168:
	.size	key_type_is_raw_bytes, .-key_type_is_raw_bytes
	.section	.text.psa_is_dh_key_size_valid,"ax",@progbits
	.align	1
	.type	psa_is_dh_key_size_valid, @function
psa_is_dh_key_size_valid:
.LVL3:
.LFB173:
.LM17:
	.cfi_startproc
.LM18:
	li	a5,4096
	beq	a0,a5,.L16
	bgtu	a0,a5,.L15
	andi	a0,a0,-1025
.LVL4:
.LM19:
	addi	a0,a0,-2048
.L17:
	seqz	a0,a0
	ret
.LVL5:
.L15:
.LM20:
	li	a5,-4096
	addi	a5,a5,-2048
	add	a0,a0,a5
.LVL6:
.LM21:
	li	a5,-4096
	addi	a5,a5,2047
	and	a0,a0,a5
.LVL7:
.LM22:
	j	.L17
.LVL8:
.L16:
.LM23:
	li	a0,1
.LVL9:
.LM24:
	ret
	.cfi_endproc
.LFE173:
	.size	psa_is_dh_key_size_valid, .-psa_is_dh_key_size_valid
	.section	.text.psa_mac_key_can_do,"ax",@progbits
	.align	1
	.type	psa_mac_key_can_do, @function
psa_mac_key_can_do:
.LVL10:
.LFB177:
.LM25:
	.cfi_startproc
.LM26:
.LM27:
	li	a5,2143289344
	and	a5,a0,a5
.LM28:
	li	a4,58720256
	bne	a5,a4,.L19
.LM29:
.LM30:
	li	a5,4096
	addi	a5,a5,256
.LM31:
	li	a0,0
.LVL11:
.LM32:
	beq	a1,a5,.L18
.LM33:
	li	a0,-135
	ret
.LVL12:
.L19:
.LM34:
.LM35:
	li	a4,62914560
.LM36:
	li	a0,-135
.LVL13:
.LM37:
	bne	a5,a4,.L18
.LM38:
.LM39:
	srai	a5,a1,12
	andi	a5,a5,7
	li	a4,2
	bne	a5,a4,.L18
.LM40:
.LM41:
	andi	a1,a1,1792
.LVL14:
.LM42:
	snez	a1,a1
	neg	a1,a1
	andi	a0,a1,135
	addi	a0,a0,-135
.L18:
.LM43:
	ret
	.cfi_endproc
.LFE177:
	.size	psa_mac_key_can_do, .-psa_mac_key_can_do
	.section	.text.psa_key_policy_algorithm_intersection,"ax",@progbits
	.align	1
	.type	psa_key_policy_algorithm_intersection, @function
psa_key_policy_algorithm_intersection:
.LVL15:
.LFB181:
.LM44:
	.cfi_startproc
.LM45:
.LM46:
	addi	sp,sp,-32
	.cfi_def_cfa_offset 32
	sw	s0,24(sp)
	sw	ra,28(sp)
	sw	s1,20(sp)
	.cfi_offset 8, -8
	.cfi_offset 1, -4
	.cfi_offset 9, -12
.LM47:
	mv	s0,a2
.LM48:
	beq	a1,a2,.L27
.LM49:
.LM50:
	li	a3,-100663296
	andi	a5,a1,-512
	addi	a3,a3,-512
	add	a5,a5,a3
.LM51:
	andi	a4,a1,-256
.LM52:
	beq	a5,zero,.L28
.LM53:
	li	a5,-100667392
	addi	a5,a5,-768
	add	a5,a4,a5
.LM54:
	beq	a5,zero,.L28
.LM55:
	li	a3,-100663296
	andi	a5,a1,-1024
	addi	a3,a3,-1024
	add	a5,a5,a3
	beq	a5,zero,.L28
.LM56:
	li	a5,-100667392
	addi	a5,a5,1792
	add	a4,a4,a5
.LM57:
	bne	a4,zero,.L29
.L28:
.LM58:
	li	a3,-100663296
	andi	a5,s0,-512
	addi	a3,a3,-512
	add	a5,a5,a3
.LM59:
	andi	a4,s0,-256
.LM60:
	beq	a5,zero,.L31
.LM61:
	li	a5,-100667392
	addi	a5,a5,-768
	add	a5,a4,a5
.LM62:
	beq	a5,zero,.L31
.LM63:
	li	a3,-100663296
	andi	a5,s0,-1024
	addi	a3,a3,-1024
	add	a5,a5,a3
	beq	a5,zero,.L31
.LM64:
	li	a5,-100667392
	addi	a5,a5,1792
	add	a4,a4,a5
.LM65:
	bne	a4,zero,.L58
.L31:
.LM66:
	xor	a5,a1,s0
.LM67:
	li	a4,255
	bgtu	a5,a4,.L58
.LM68:
.LM69:
	and	a5,a1,a4
.LM70:
	beq	a5,zero,.L33
.LM71:
	li	a4,33554432
	or	a5,a5,a4
.LM72:
	addi	a4,a4,255
	beq	a5,a4,.L27
.L33:
.LM73:
.LM74:
	andi	s0,s0,255
.LM75:
	beq	s0,zero,.L27
.LM76:
	li	a5,33554432
.LM77:
	li	a4,33554432
.LM78:
	or	a5,s0,a5
.LM79:
	addi	a4,a4,255
.LBB212:
.LM80:
	sub	a5,a5,a4
	seqz	a5,a5
	neg	a5,a5
	and	s0,a1,a5
.LVL16:
.L27:
.LM81:
.LBE212:
.LM82:
	lw	ra,28(sp)
	.cfi_remember_state
	.cfi_restore 1
	mv	a0,s0
	lw	s0,24(sp)
	.cfi_restore 8
	lw	s1,20(sp)
	.cfi_restore 9
	addi	sp,sp,32
	.cfi_def_cfa_offset 0
	jr	ra
.LVL17:
.L29:
	.cfi_restore_state
.LM83:
.LM84:
	li	a5,2130706432
	and	a4,a1,a5
.LM85:
	li	a3,83886080
	bne	a4,a3,.L34
.LM86:
	and	a5,a2,a5
.LM87:
	bne	a5,a4,.L58
.LM88:
	li	a4,-4161536
	xor	a5,a1,a2
	addi	a4,a4,-1
	and	a5,a5,a4
.LM89:
	bne	a5,zero,.L58
.LBB213:
.LM90:
.LM91:
	li	a3,32768
.LM92:
	srli	a4,a2,16
.LM93:
	srli	a5,a1,16
.LM94:
	and	a3,a2,a3
.LM95:
	slli	a2,a1,16
.LM96:
	andi	a5,a5,63
.LVL18:
.LM97:
.LM98:
	andi	a4,a4,63
.LVL19:
.LM99:
.LM100:
.LM101:
	bge	a2,zero,.L35
.LM102:
	beq	a3,zero,.L46
.LM103:
.LM104:
	bgeu	a5,a4,.L37
	mv	a5,a4
.LVL20:
.L37:
.LM105:
	li	a4,-4161536
.LVL21:
.LM106:
	addi	a4,a4,-1
.LM107:
	slli	a5,a5,16
.LM108:
	and	a4,a1,a4
.LVL22:
.L74:
.LM109:
.LBE213:
.LBB214:
.LM110:
	or	a5,a5,a4
.LM111:
	li	s0,32768
.LVL23:
.LM112:
	or	s0,a5,s0
	j	.L27
.LVL24:
.L35:
.LM113:
.LBE214:
.LBB215:
.LM114:
.LM115:
	bltu	a5,a4,.L58
.LBE215:
.LM116:
	mv	s0,a1
.LVL25:
.LBB216:
.LM117:
	bne	a3,zero,.L27
.LVL26:
.L58:
.LM118:
.LBE216:
.LBB217:
.LM119:
	li	s0,0
	j	.L27
.LVL27:
.L34:
.LM120:
.LBE217:
.LM121:
.LM122:
	li	a3,50331648
	bne	a4,a3,.L58
.LM123:
	and	a5,a2,a5
.LM124:
	bne	a5,a4,.L58
.LM125:
	li	a4,-4161536
	xor	a5,a1,a2
	addi	a4,a4,-1
	and	a5,a5,a4
.LM126:
	bne	a5,zero,.L58
	mv	s1,a1
.LBB218:
.LM127:
	sw	a0,12(sp)
	mv	a1,a0
.LVL28:
.LM128:
.LM129:
	mv	a0,s1
.LVL29:
.LM130:
	call	psa_mac_key_can_do
.LVL30:
.LM131:
	bne	a0,zero,.L58
.LM132:
.LM133:
	li	a5,4128768
	and	a5,s1,a5
.LM134:
	lw	a1,12(sp)
	beq	a5,zero,.L39
.LM135:
	srli	a5,s1,16
.LM136:
	andi	a5,a5,63
.LVL31:
.L40:
.LM137:
.LM138:
	li	a4,4128768
	and	a4,s0,a4
.LM139:
	beq	a4,zero,.L42
.LM140:
	srli	a4,s0,16
.LM141:
	andi	a4,a4,63
.LVL32:
.L43:
.LM142:
.LM143:
.LBE218:
.LBB219:
.LM144:
	li	a3,32768
.LBE219:
.LBB220:
.LM145:
	slli	a2,s1,16
.LBE220:
.LBB221:
.LM146:
	and	a3,s0,a3
.LBE221:
.LBB222:
.LM147:
	bge	a2,zero,.L45
.LM148:
	beq	a3,zero,.L46
.LM149:
.LM150:
	bgeu	a5,a4,.L47
	mv	a5,a4
.LVL33:
.L47:
.LM151:
	li	a4,-4161536
.LVL34:
.LM152:
	andi	a5,a5,63
.LM153:
	addi	a4,a4,-1
.LM154:
	slli	a5,a5,16
.LM155:
	and	a4,s1,a4
	j	.L74
.LVL35:
.L39:
.LM156:
	li	a4,2143289344
	and	a4,s1,a4
.LM157:
	li	a3,58720256
	bne	a4,a3,.L41
.LM158:
	li	a3,33554432
.LM159:
	andi	a4,s1,255
.LM160:
	or	a4,a4,a3
	li	a3,-33554432
	addi	a3,a3,-3
	add	a4,a4,a3
	li	a3,16
	bgtu	a4,a3,.L40
	lui	a5,%hi(CSWTCH.288)
	addi	a5,a5,%lo(CSWTCH.288)
	add	a5,a5,a4
	lbu	a5,0(a5)
	j	.L40
.L41:
.LM161:
	li	a3,62914560
	bne	a4,a3,.L40
.LM162:
	srai	a4,a1,12
	andi	a4,a4,7
	li	a3,2
	bne	a4,a3,.L40
.LM163:
	srli	a4,a1,8
	andi	a4,a4,7
.LM164:
	li	a5,1
	sll	a5,a5,a4
	j	.L40
.LVL36:
.L42:
.LM165:
	li	a3,2143289344
	and	a3,s0,a3
.LM166:
	li	a2,58720256
	bne	a3,a2,.L44
.LM167:
	li	a2,33554432
.LM168:
	andi	a3,s0,255
.LM169:
	or	a3,a3,a2
	li	a2,-33554432
	addi	a2,a2,-3
	add	a3,a3,a2
	li	a2,16
	bgtu	a3,a2,.L43
	lui	a4,%hi(CSWTCH.289)
	addi	a4,a4,%lo(CSWTCH.289)
	add	a4,a4,a3
	lbu	a4,0(a4)
	j	.L43
.L44:
.LM170:
	li	a2,62914560
	bne	a3,a2,.L43
.LM171:
	srai	a3,a1,12
	andi	a3,a3,7
	li	a2,2
	bne	a3,a2,.L43
.LM172:
	srli	a1,a1,8
	andi	a1,a1,7
.LM173:
	li	a4,1
	sll	a4,a4,a1
	j	.L43
.LVL37:
.L46:
.LM174:
.LM175:
.LM176:
	bgtu	a5,a4,.L58
	j	.L27
.LVL38:
.L45:
.LM177:
.LM178:
.LM179:
	beq	a3,zero,.L48
.LM180:
.LM181:
	sltu	a4,a5,a4
.LVL39:
.LM182:
	addi	a4,a4,-1
	and	s0,s1,a4
.LVL40:
.LM183:
	j	.L27
.LVL41:
.L48:
.LM184:
.LM185:
	li	s0,0
.LVL42:
.LM186:
	bne	a5,a4,.L27
.LM187:
.LM188:
	li	a4,-4161536
.LVL43:
.LM189:
	andi	a5,a5,63
.LVL44:
.LM190:
	addi	a4,a4,-1
.LM191:
	slli	a5,a5,16
.LM192:
	and	a1,s1,a4
.LM193:
	or	s0,a5,a1
	j	.L27
.LBE222:
	.cfi_endproc
.LFE181:
	.size	psa_key_policy_algorithm_intersection, .-psa_key_policy_algorithm_intersection
	.section	.text.psa_key_algorithm_permits,"ax",@progbits
	.align	1
	.type	psa_key_algorithm_permits, @function
psa_key_algorithm_permits:
.LVL45:
.LFB182:
.LM194:
	.cfi_startproc
.LM195:
.LM196:
	beq	a2,a1,.L94
	mv	a3,a0
.LM197:
.LM198:
	li	a0,-100663296
.LVL46:
.LM199:
	andi	a5,a2,-512
	addi	a0,a0,-512
	add	a5,a5,a0
.LM200:
	andi	a4,a2,-256
.LM201:
	beq	a5,zero,.L77
.LM202:
	li	a5,-100667392
	addi	a5,a5,-768
	add	a5,a4,a5
.LM203:
	beq	a5,zero,.L77
.LM204:
	li	a0,-100663296
	andi	a5,a2,-1024
	addi	a0,a0,-1024
	add	a5,a5,a0
	beq	a5,zero,.L77
.LM205:
	li	a5,-100667392
	addi	a5,a5,1792
	add	a4,a4,a5
.LM206:
	bne	a4,zero,.L78
.L77:
.LM207:
	li	a0,-100663296
	andi	a5,a1,-512
	addi	a0,a0,-512
	add	a5,a5,a0
.LM208:
	andi	a4,a1,-256
.LM209:
	beq	a5,zero,.L80
.LM210:
	li	a5,-100667392
	addi	a5,a5,-768
	add	a5,a4,a5
.LM211:
	beq	a5,zero,.L80
.LM212:
	li	a0,-100663296
	andi	a5,a1,-1024
	addi	a0,a0,-1024
	add	a5,a5,a0
	beq	a5,zero,.L80
.LM213:
	li	a5,-100667392
	addi	a5,a5,1792
	add	a4,a4,a5
.LM214:
	bne	a4,zero,.L78
.L80:
.LM215:
	andi	a5,a1,255
.LBB223:
.LM216:
	li	a0,0
.LBE223:
.LM217:
	beq	a5,zero,.L127
.LM218:
	li	a4,33554432
	or	a5,a5,a4
.LM219:
	addi	a4,a4,255
	bne	a5,a4,.L127
.LM220:
.LM221:
	xor	a2,a2,a1
.LVL47:
.LM222:
	sltiu	a0,a2,256
	ret
.LVL48:
.L78:
.LM223:
.LM224:
	li	a4,2130706432
	and	a5,a1,a4
.LM225:
	li	a0,83886080
	bne	a5,a0,.L82
.LM226:
	and	a4,a2,a4
.LBB224:
.LM227:
	li	a0,0
.LBE224:
.LM228:
	bne	a4,a5,.L127
.LM229:
	li	a4,-4161536
	xor	a5,a2,a1
	addi	a4,a4,-1
	and	a5,a5,a4
.LM230:
	bne	a5,zero,.L127
.LM231:
	slli	a5,a1,16
	bge	a5,zero,.L127
.LM232:
.LM233:
	srli	a1,a1,16
.LVL49:
.LM234:
	srli	a2,a2,16
.LVL50:
.LM235:
	andi	a2,a2,63
.LM236:
	andi	a1,a1,63
.LM237:
	sgtu	a1,a1,a2
	seqz	a0,a1
	ret
.LVL51:
.L82:
.LM238:
.LM239:
	li	a0,50331648
	bne	a5,a0,.L83
.LM240:
	and	a4,a2,a4
.LBB225:
.LM241:
	li	a0,0
.LBE225:
.LM242:
	bne	a4,a5,.L127
.LM243:
	addi	sp,sp,-32
	.cfi_def_cfa_offset 32
.LM244:
	li	a5,-4161536
.LM245:
	sw	s1,20(sp)
.LM246:
	addi	a5,a5,-1
	.cfi_offset 9, -12
	xor	s1,a2,a1
.LM247:
	sw	ra,28(sp)
	sw	s0,24(sp)
	.cfi_offset 1, -4
	.cfi_offset 8, -8
.LM248:
	and	s1,s1,a5
.LM249:
	bne	s1,zero,.L75
	mv	s0,a1
.LBB226:
.LM250:
	mv	a0,s0
	mv	a1,a3
.LVL52:
.LM251:
	sw	a2,12(sp)
.LM252:
	sw	a3,8(sp)
	call	psa_mac_key_can_do
.LVL53:
.LM253:
	bne	a0,zero,.L102
.LM254:
.LM255:
	lw	a2,12(sp)
	li	a3,4128768
.LM256:
	li	a4,2143289344
.LM257:
	and	a3,a2,a3
.LM258:
	lw	a1,8(sp)
.LM259:
	and	a4,a2,a4
	li	a6,58720256
.LM260:
	beq	a3,zero,.L84
.LVL54:
.LM261:
	srli	a5,a2,16
.LM262:
	andi	a5,a5,63
.LVL55:
.LM263:
.LM264:
	bne	a4,a6,.L121
.LVL56:
.L85:
.LM265:
	li	a4,33554432
.LM266:
	andi	a2,a2,255
.LVL57:
.LM267:
	or	a2,a2,a4
	li	a4,-33554432
	addi	a4,a4,-3
	add	a2,a2,a4
	li	a4,16
	bgtu	a2,a4,.L89
	lui	a4,%hi(CSWTCH.292)
	addi	a4,a4,%lo(CSWTCH.292)
	add	a4,a4,a2
	lbu	s1,0(a4)
.LVL58:
.L89:
.LM268:
.LM269:
	srli	a4,s0,16
	andi	a4,a4,63
	bne	a4,zero,.L91
.LM270:
.LM271:
	sub	a5,a5,s1
.L130:
.LM272:
	seqz	a0,a5
.LVL59:
.L75:
.LM273:
.LBE226:
.LM274:
	lw	ra,28(sp)
	.cfi_remember_state
	.cfi_restore 1
	lw	s0,24(sp)
	.cfi_restore 8
	lw	s1,20(sp)
	.cfi_restore 9
	addi	sp,sp,32
	.cfi_def_cfa_offset 0
	jr	ra
.LVL60:
.L84:
	.cfi_restore_state
.LBB227:
.LM275:
	bne	a4,a6,.L87
.LM276:
	li	a5,33554432
.LM277:
	andi	a4,a2,255
.LM278:
	or	a4,a4,a5
	li	a5,-33554432
	addi	a5,a5,-3
	add	a4,a4,a5
	li	a1,16
	li	a5,0
	bgtu	a4,a1,.L85
	lui	a5,%hi(CSWTCH.291)
	addi	a5,a5,%lo(CSWTCH.291)
	add	a5,a5,a4
	lbu	a5,0(a5)
	j	.L85
.L87:
.LM279:
	li	a2,62914560
.LVL61:
.LM280:
	li	a5,0
	bne	a4,a2,.L89
.LM281:
	srai	a4,a1,12
	andi	a4,a4,7
	li	a2,2
	bne	a4,a2,.L89
.LM282:
	srli	a4,a1,8
	andi	a4,a4,7
.LM283:
	li	a5,1
	sll	a5,a5,a4
.L93:
.LVL62:
.LM284:
	srai	a4,a1,12
	andi	a4,a4,7
	li	a2,2
	bne	a4,a2,.L89
.LM285:
	srli	a1,a1,8
	andi	a1,a1,7
.LM286:
	li	s1,1
	sll	s1,s1,a1
	j	.L89
.LVL63:
.L121:
.LM287:
	li	a2,62914560
.LVL64:
.LM288:
	bne	a4,a2,.L89
	j	.L93
.LVL65:
.L91:
.LM289:
.LM290:
	bne	a3,zero,.L92
.LM291:
	srli	a4,s0,16
	andi	a4,a4,63
.LM292:
	beq	a4,s1,.L106
.L92:
.LM293:
.LM294:
	slli	a4,s0,16
	bge	a4,zero,.L75
.LM295:
.LM296:
	srli	a0,s0,16
	andi	a0,a0,63
.LM297:
	sltu	a5,a5,a0
	j	.L130
.LVL66:
.L83:
	.cfi_def_cfa_offset 0
	.cfi_restore 1
	.cfi_restore 8
	.cfi_restore 9
.LM298:
.LBE227:
.LM299:
.LM300:
	li	a3,150994944
.LBB228:
.LM301:
	li	a0,0
.LBE228:
.LM302:
	bne	a5,a3,.L127
.LM303:
	li	a3,-167706624
	addi	a3,a3,-1
	and	a3,a1,a3
.LM304:
	bne	a3,zero,.L127
.LM305:
	and	a4,a2,a4
.LM306:
	bne	a4,a5,.L127
.LM307:
.LM308:
	li	a5,-151060480
	and	a2,a2,a5
.LVL67:
.LM309:
	or	a2,a2,a4
.LM310:
	sub	a2,a2,a1
	seqz	a0,a2
	ret
.LVL68:
.L94:
.LM311:
	li	a0,1
.LVL69:
.LM312:
	ret
.LVL70:
.L102:
	.cfi_def_cfa_offset 32
	.cfi_offset 1, -4
	.cfi_offset 8, -8
	.cfi_offset 9, -12
.LBB229:
.LM313:
	li	a0,0
	j	.L75
.LVL71:
.L106:
.LM314:
.LBE229:
.LM315:
	li	a0,1
	j	.L75
.LVL72:
.L127:
	.cfi_def_cfa_offset 0
	.cfi_restore 1
	.cfi_restore 8
	.cfi_restore 9
.LM316:
	ret
	.cfi_endproc
.LFE182:
	.size	psa_key_algorithm_permits, .-psa_key_algorithm_permits
	.section	.text.psa_sign_verify_check_alg,"ax",@progbits
	.align	1
	.type	psa_sign_verify_check_alg, @function
psa_sign_verify_check_alg:
.LVL73:
.LFB225:
.LM317:
	.cfi_startproc
.LM318:
.LM319:
	andi	a5,a1,-256
.LM320:
	andi	a2,a1,-512
.LM321:
	beq	a0,zero,.L132
.LM322:
.LM323:
	li	a3,-100663296
	andi	a4,a1,-1536
	addi	a3,a3,-512
	add	a4,a4,a3
.LM324:
	beq	a4,zero,.L133
	li	a4,-100667392
	addi	a4,a4,-768
	add	a4,a5,a4
	beq	a4,zero,.L133
.LM325:
	li	a4,100667392
	addi	a4,a4,-1792
	beq	a5,a4,.L133
.LM326:
	li	a5,100663296
	addi	a5,a5,1024
	bne	a2,a5,.L140
.L133:
.LM327:
	andi	a1,a1,255
.LVL74:
.LM328:
	beq	a1,zero,.L136
.LM329:
	li	a5,33554432
	or	a1,a1,a5
.LVL75:
.LM330:
.LM331:
.LM332:
	addi	a5,a5,255
.LM333:
	li	a0,-135
.LVL76:
.LM334:
	bne	a1,a5,.L152
	ret
.LVL77:
.L132:
.LM335:
.LM336:
.LM337:
	li	a4,100663296
	addi	a4,a4,512
	beq	a2,a4,.L133
.LVL78:
.LM338:
	li	a4,100667392
	addi	a4,a4,768
	beq	a5,a4,.L133
.LM339:
	li	a3,-100663296
	andi	a4,a1,-1024
	addi	a3,a3,-1024
	add	a4,a4,a3
	beq	a4,zero,.L133
.LM340:
	li	a4,-100667392
	addi	a4,a4,1792
	add	a5,a5,a4
.LM341:
	beq	a5,zero,.L133
.LVL79:
.L134:
.LM342:
	ret
.LVL80:
.L136:
.LM343:
	beq	a0,zero,.L134
.L140:
.LM344:
	li	a0,-135
.LVL81:
.LM345:
	ret
.LVL82:
.L152:
.LM346:
.LBB232:
.LBI232:
.LM347:
.LBB233:
.LM348:
	li	a5,-33554432
	addi	a5,a5,-3
	add	a1,a1,a5
.LVL83:
.LM349:
	li	a5,16
.LBE233:
.LBE232:
.LM350:
	li	a0,-134
.LBB235:
.LBB234:
.LM351:
	bgtu	a1,a5,.L134
	li	a0,122880
	addi	a0,a0,487
	srl	a0,a0,a1
	andi	a0,a0,1
.LBE234:
.LBE235:
.LM352:
	addi	a0,a0,-1
	andi	a0,a0,-134
	ret
	.cfi_endproc
.LFE225:
	.size	psa_sign_verify_check_alg, .-psa_sign_verify_check_alg
	.section	.text.psa_aead_check_nonce_length,"ax",@progbits
	.align	1
	.type	psa_aead_check_nonce_length, @function
psa_aead_check_nonce_length:
.LVL84:
.LFB272:
.LM353:
	.cfi_startproc
.LM354:
.LBB238:
.LBI238:
.LM355:
.LBB239:
.LM356:
.LM357:
	li	a5,-4161536
	addi	a5,a5,-1
.LM358:
	li	a4,88080384
.LM359:
	and	a5,a0,a5
.LM360:
	addi	a4,a4,256
	bne	a5,a4,.L154
.LVL85:
.LM361:
.LBE239:
.LBE238:
.LM362:
.LM363:
.LM364:
	addi	a1,a1,-7
.LVL86:
.LM365:
	li	a5,6
.LM366:
	li	a0,0
.LVL87:
.LM367:
	bleu	a1,a5,.L153
.LM368:
	li	a0,-135
	ret
.LVL88:
.L154:
.LBB242:
.LBB240:
.LM369:
	li	a4,88080384
	addi	a4,a4,512
.LBE240:
.LBE242:
.LM370:
	li	a0,-134
.LVL89:
.LBB243:
.LBB241:
.LM371:
	bne	a5,a4,.L153
.LVL90:
.LM372:
.LBE241:
.LBE243:
.LM373:
.LM374:
.LM375:
	snez	a1,a1
.LVL91:
.LM376:
	neg	a1,a1
	andi	a0,a1,135
	addi	a0,a0,-135
.LVL92:
.L153:
.LM377:
	ret
	.cfi_endproc
.LFE272:
	.size	psa_aead_check_nonce_length, .-psa_aead_check_nonce_length
	.section	.text.psa_aead_check_algorithm,"ax",@progbits
	.align	1
	.type	psa_aead_check_algorithm, @function
psa_aead_check_algorithm:
.LVL93:
.LFB273:
.LM378:
	.cfi_startproc
.LM379:
.LM380:
	srai	a5,a0,24
	andi	a5,a5,127
	li	a4,5
	bne	a5,a4,.L166
.LM381:
	li	a3,-100663296
	andi	a5,a0,-512
	addi	a3,a3,-512
	add	a5,a5,a3
.LM382:
	andi	a4,a0,-256
.LM383:
	beq	a5,zero,.L161
.LM384:
	li	a5,-100667392
	addi	a5,a5,-768
	add	a5,a4,a5
.LM385:
	beq	a5,zero,.L161
.LM386:
	li	a3,-100663296
	andi	a5,a0,-1024
	addi	a3,a3,-1024
	add	a5,a5,a3
	beq	a5,zero,.L161
.LM387:
	li	a5,-100667392
	addi	a5,a5,1792
	add	a4,a4,a5
.LM388:
	bne	a4,zero,.L162
.L161:
.LM389:
	andi	a5,a0,255
.LM390:
	li	a0,0
.LVL94:
.LM391:
	beq	a5,zero,.L159
.LM392:
	li	a4,33554432
	or	a5,a5,a4
.LM393:
	addi	a4,a4,255
	bne	a5,a4,.L159
.L166:
.LM394:
	li	a0,-135
.L159:
.LM395:
	ret
.LVL95:
.L162:
.LM396:
	slli	a5,a0,16
	srai	a0,a5,31
.LVL96:
.LM397:
	andi	a0,a0,-135
	ret
	.cfi_endproc
.LFE273:
	.size	psa_aead_check_algorithm, .-psa_aead_check_algorithm
	.section	.text.convert_jpake_computation_stage_to_driver_step,"ax",@progbits
	.align	1
	.type	convert_jpake_computation_stage_to_driver_step, @function
convert_jpake_computation_stage_to_driver_step:
.LVL97:
.LFB368:
.LM398:
	.cfi_startproc
.LM399:
.LM400:
.LM401:
	lbu	a4,0(a0)
	li	a3,1
.LM402:
	bne	a4,zero,.L170
.LBB244:
.LM403:
.LM404:
.LM405:
	lbu	a5,1(a0)
	bne	a5,a3,.L171
.LM406:
.LVL98:
.LM407:
.LM408:
	lbu	a4,3(a0)
	beq	a4,zero,.L172
.LM409:
	li	a5,4
.LVL99:
.L172:
.LM410:
.LBE244:
.LM411:
.LM412:
	lbu	a4,4(a0)
	addi	a4,a4,-1
	add	a5,a5,a4
.LVL100:
.LM413:
	andi	a5,a5,0xff
.LVL101:
.L173:
.LM414:
	mv	a0,a5
.LVL102:
.LM415:
	ret
.LVL103:
.L171:
.LBB245:
.LM416:
.LM417:
.LM418:
	lbu	a5,2(a0)
.LM419:
	seqz	a5,a5
	neg	a5,a5
	andi	a5,a5,-3
	addi	a5,a5,4
	j	.L172
.LVL104:
.L170:
.LM420:
.LBE245:
.LM421:
.LM422:
	li	a5,0
.LM423:
	bne	a4,a3,.L173
.LM424:
.LM425:
	lbu	a3,1(a0)
.LM426:
	li	a5,10
.LM427:
	bne	a3,a4,.L172
.LM428:
	li	a5,7
	j	.L172
	.cfi_endproc
.LFE368:
	.size	convert_jpake_computation_stage_to_driver_step, .-convert_jpake_computation_stage_to_driver_step
	.section	.text.psa_jpake_prologue,"ax",@progbits
	.align	1
	.type	psa_jpake_prologue, @function
psa_jpake_prologue:
.LVL105:
.LFB370:
.LM429:
	.cfi_startproc
.LM430:
.LM431:
	addi	a4,a1,-1
.LM432:
	andi	a4,a4,0xff
	li	a3,2
.LM433:
	mv	a5,a0
.LM434:
	bgtu	a4,a3,.L183
.LM435:
.LVL106:
.LM436:
.LM437:
	lbu	a3,13(a0)
	li	a4,1
.LM438:
	li	a0,-137
.LVL107:
.LM439:
	bgtu	a3,a4,.L179
.LM440:
.LM441:
	lbu	a3,17(a5)
	bne	a3,a1,.L179
.LM442:
.LM443:
	bne	a3,a4,.L181
.LM444:
	lbu	a4,15(a5)
	bne	a4,zero,.L181
.LM445:
	lbu	a4,16(a5)
	bne	a4,zero,.L181
.LM446:
.LM447:
	sb	a2,14(a5)
.LVL108:
.L182:
.LM448:
	li	a0,0
	ret
.LVL109:
.L181:
.LM449:
.LM450:
	lbu	a5,14(a5)
.LVL110:
.LM451:
	li	a0,-137
.LM452:
	beq	a5,a2,.L182
.L179:
.LM453:
	ret
.LVL111:
.L183:
.LM454:
	li	a0,-135
.LVL112:
.LM455:
	ret
	.cfi_endproc
.LFE370:
	.size	psa_jpake_prologue, .-psa_jpake_prologue
	.section	.text.psa_tls12_prf_set_key,"ax",@progbits
	.align	1
	.type	psa_tls12_prf_set_key, @function
psa_tls12_prf_set_key:
.LVL113:
.LFB319:
.LM456:
	.cfi_startproc
.LM457:
.LM458:
	addi	sp,sp,-16
	.cfi_def_cfa_offset 16
	sw	s0,8(sp)
	sw	ra,12(sp)
	sw	s1,4(sp)
	sw	s2,0(sp)
	.cfi_offset 8, -8
	.cfi_offset 1, -4
	.cfi_offset 9, -12
	.cfi_offset 18, -16
.LM459:
	lbu	a5,2(a0)
.LM460:
	mv	s0,a0
.LM461:
	li	a0,1
.LVL114:
.LM462:
	addi	a5,a5,-1
.LM463:
	andi	a5,a5,0xff
	bgtu	a5,a0,.L190
	mv	s1,a2
	mv	s2,a1
.LM464:
.LM465:
	beq	a2,zero,.L189
.LM466:
.LM467:
	mv	a1,a2
.LVL115:
.LM468:
	call	calloc
.LVL116:
.LM469:
	sw	a0,4(s0)
.LM470:
.LM471:
	li	a5,-141
.LM472:
	beq	a0,zero,.L187
.LM473:
	mv	a2,s1
	mv	a1,s2
	call	memcpy
.LVL117:
.LM474:
.LM475:
	sw	s1,8(s0)
.L189:
.LM476:
.LM477:
	li	a5,3
	sb	a5,2(s0)
.LM478:
.LM479:
	li	a5,0
.LVL118:
.L187:
.LM480:
	lw	ra,12(sp)
	.cfi_remember_state
	.cfi_restore 1
	lw	s0,8(sp)
	.cfi_restore 8
.LVL119:
.LM481:
	lw	s1,4(sp)
	.cfi_restore 9
	lw	s2,0(sp)
	.cfi_restore 18
	mv	a0,a5
	addi	sp,sp,16
	.cfi_def_cfa_offset 0
	jr	ra
.LVL120:
.L190:
	.cfi_restore_state
.LM482:
	li	a5,-137
	j	.L187
	.cfi_endproc
.LFE319:
	.size	psa_tls12_prf_set_key, .-psa_tls12_prf_set_key
	.section	.text.psa_tls12_prf_input,"ax",@progbits
	.align	1
	.type	psa_tls12_prf_input, @function
psa_tls12_prf_input:
.LVL121:
.LFB321:
.LM483:
	.cfi_startproc
.LM484:
.LM485:
	addi	sp,sp,-16
	.cfi_def_cfa_offset 16
	sw	s0,8(sp)
	sw	s1,4(sp)
	sw	s2,0(sp)
	sw	ra,12(sp)
	.cfi_offset 8, -8
	.cfi_offset 9, -12
	.cfi_offset 18, -16
	.cfi_offset 1, -4
.LM486:
	li	a5,513
.LM487:
	mv	s1,a0
	mv	s2,a2
	mv	s0,a3
.LM488:
	beq	a1,a5,.L197
	li	a5,516
	beq	a1,a5,.L198
	li	a5,257
	beq	a1,a5,.L199
	li	a0,-135
.LVL122:
.L196:
.LM489:
	lw	ra,12(sp)
	.cfi_remember_state
	.cfi_restore 1
	lw	s0,8(sp)
	.cfi_restore 8
.LVL123:
.LM490:
	lw	s1,4(sp)
	.cfi_restore 9
.LVL124:
.LM491:
	lw	s2,0(sp)
	.cfi_restore 18
.LVL125:
.LM492:
	addi	sp,sp,16
	.cfi_def_cfa_offset 0
	jr	ra
.LVL126:
.L198:
	.cfi_restore_state
.LM493:
.LBB250:
.LBI250:
.LM494:
.LBB251:
.LM495:
.LM496:
	lbu	a5,2(a0)
.LM497:
	li	a0,-137
.LM498:
	bne	a5,zero,.L196
.LM499:
.LM500:
	beq	a3,zero,.L201
.LM501:
.LM502:
	mv	a1,a3
.LVL127:
.LM503:
	li	a0,1
	call	calloc
.LVL128:
.LM504:
	sw	a0,12(s1)
.LM505:
.LM506:
	bne	a0,zero,.L202
.LVL129:
.L204:
.LM507:
	li	a0,-141
	j	.L196
.LVL130:
.L202:
.LM508:
	mv	a2,s0
	mv	a1,s2
	call	memcpy
.LVL131:
.LM509:
.LM510:
	sw	s0,16(s1)
.L201:
.LM511:
.LM512:
	li	a5,1
.LVL132:
.L218:
.LM513:
	sb	a5,2(s1)
.LM514:
.LM515:
	li	a0,0
	j	.L196
.LVL133:
.L199:
.LM516:
.LBE251:
.LBE250:
.LM517:
.LM518:
	lw	s0,8(sp)
	.cfi_remember_state
	.cfi_restore 8
.LVL134:
.LM519:
	lw	ra,12(sp)
	.cfi_restore 1
	lw	s1,4(sp)
	.cfi_restore 9
.LVL135:
.LM520:
	mv	a1,s2
.LVL136:
.LM521:
	lw	s2,0(sp)
	.cfi_restore 18
.LM522:
	mv	a2,a3
.LVL137:
.LM523:
	addi	sp,sp,16
	.cfi_def_cfa_offset 0
.LM524:
	tail	psa_tls12_prf_set_key
.LVL138:
.L197:
	.cfi_restore_state
.LM525:
.LBB253:
.LBI253:
.LM526:
.LBB254:
.LM527:
.LM528:
	lbu	a4,2(a0)
	li	a5,3
.LBE254:
.LBE253:
.LBB256:
.LBB252:
.LM529:
	li	a0,-137
.LBE252:
.LBE256:
.LBB257:
.LBB255:
.LM530:
	bne	a4,a5,.L196
.LM531:
.LM532:
	beq	a3,zero,.L203
.LM533:
.LM534:
	mv	a1,a3
.LVL139:
.LM535:
	li	a0,1
	call	calloc
.LVL140:
.LM536:
	sw	a0,20(s1)
.LM537:
.LM538:
	beq	a0,zero,.L204
.LM539:
	mv	a2,s0
	mv	a1,s2
	call	memcpy
.LVL141:
.LM540:
.LM541:
	sw	s0,24(s1)
.L203:
.LM542:
.LM543:
	li	a5,4
	j	.L218
.LBE255:
.LBE257:
	.cfi_endproc
.LFE321:
	.size	psa_tls12_prf_input, .-psa_tls12_prf_input
	.section	.text.psa_driver_wrapper_mac_sign_setup,"ax",@progbits
	.align	1
	.type	psa_driver_wrapper_mac_sign_setup, @function
psa_driver_wrapper_mac_sign_setup:
.LVL142:
.LFB117:
.LM544:
	.cfi_startproc
.LM545:
.LM546:
.LBB258:
.LBI258:
.LM547:
.LBB259:
.LM548:
.LM549:
.LBE259:
.LBE258:
.LM550:
.LM551:
	lw	a5,4(a1)
	srli	a5,a5,8
.LVL143:
.LM552:
	bne	a5,zero,.L222
.LM553:
	addi	sp,sp,-16
	.cfi_def_cfa_offset 16
	sw	s0,8(sp)
	.cfi_offset 8, -8
	mv	s0,a0
.LM554:
.LM555:
	addi	a0,a0,8
.LVL144:
.LM556:
	sw	ra,12(sp)
	.cfi_offset 1, -4
.LM557:
	call	mbedtls_psa_mac_sign_setup
.LVL145:
.LM558:
.LM559:
	bne	a0,zero,.L219
.LM560:
.LM561:
	li	a5,1
	sw	a5,0(s0)
.LM562:
.L219:
.LM563:
	lw	ra,12(sp)
	.cfi_restore 1
	lw	s0,8(sp)
	.cfi_restore 8
.LVL146:
.LM564:
	addi	sp,sp,16
	.cfi_def_cfa_offset 0
	jr	ra
.LVL147:
.L222:
.LM565:
	li	a0,-135
.LVL148:
.LM566:
	ret
	.cfi_endproc
.LFE117:
	.size	psa_driver_wrapper_mac_sign_setup, .-psa_driver_wrapper_mac_sign_setup
	.section	.text.psa_pake_complete_inputs,"ax",@progbits
	.align	1
	.type	psa_pake_complete_inputs, @function
psa_pake_complete_inputs:
.LVL149:
.LFB369:
.LM567:
	.cfi_startproc
.LM568:
.LM569:
.LM570:
	addi	sp,sp,-80
	.cfi_def_cfa_offset 80
	sw	s1,68(sp)
.LM571:
	addi	a1,a0,20
	.cfi_offset 9, -12
.LM572:
	mv	s1,a0
.LM573:
	li	a2,60
	addi	a0,sp,4
.LVL150:
.LM574:
	sw	s0,72(sp)
	sw	ra,76(sp)
	sw	s2,64(sp)
	.cfi_offset 8, -8
	.cfi_offset 1, -4
	.cfi_offset 18, -16
.LM575:
	call	memcpy
.LVL151:
.LM576:
.LM577:
	lw	a5,8(sp)
.LM578:
	li	s0,-137
.LM579:
	beq	a5,zero,.L227
.LM580:
.LM581:
	lw	a4,4(s1)
	li	a5,167772160
	addi	a5,a5,256
	bne	a4,a5,.L229
.LM582:
.LM583:
	lw	a5,16(sp)
.LM584:
	li	s0,-137
.LM585:
	beq	a5,zero,.L227
.LM586:
	lw	a5,24(sp)
	beq	a5,zero,.L227
.L229:
.LM587:
	li	a1,612
	addi	a0,s1,20
	call	mbedtls_platform_zeroize
.LVL152:
.LM588:
.LBB264:
.LBI264:
.LM589:
.LBB265:
.LM590:
.LM591:
.LBB266:
.LBI266:
.LM592:
.LBB267:
.LM593:
.LM594:
.LBE267:
.LBE266:
.LM595:
.LM596:
	lw	a5,32(sp)
.LM597:
	li	s0,-135
.LM598:
	srli	a5,a5,8
.LVL153:
.LM599:
	bne	a5,zero,.L230
.LM600:
.LVL154:
.LM601:
.LM602:
	addi	a1,sp,4
.LVL155:
.LM603:
	addi	a0,s1,20
	call	mbedtls_psa_pake_setup
.LVL156:
.LM604:
	mv	s0,a0
.LVL157:
.LM605:
.LM606:
	bne	a0,zero,.L230
.LM607:
.LM608:
	li	a5,1
	sw	a5,0(s1)
.LVL158:
.L230:
.LM609:
.LBE265:
.LBE264:
.LM610:
	lw	a1,8(sp)
	lw	a0,4(sp)
	call	mbedtls_zeroize_and_free
.LVL159:
.LM611:
	lw	a0,12(sp)
	call	free
.LVL160:
.LM612:
	lw	a0,20(sp)
	call	free
.LVL161:
.LM613:
.LM614:
	bne	s0,zero,.L227
.LVL162:
.LM615:
.LM616:
	lw	a4,4(s1)
	li	a5,167772160
	addi	a5,a5,256
	bne	a4,a5,.L236
.LM617:
.LM618:
	li	a5,2
	sb	a5,12(s1)
.LVL163:
.L227:
.LM619:
	lw	ra,76(sp)
	.cfi_remember_state
	.cfi_restore 1
	mv	a0,s0
	lw	s0,72(sp)
	.cfi_restore 8
	lw	s1,68(sp)
	.cfi_restore 9
.LVL164:
.LM620:
	lw	s2,64(sp)
	.cfi_restore 18
	addi	sp,sp,80
	.cfi_def_cfa_offset 0
	jr	ra
.LVL165:
.L236:
	.cfi_restore_state
.LM621:
	li	s0,-134
.LVL166:
.LM622:
	j	.L227
	.cfi_endproc
.LFE369:
	.size	psa_pake_complete_inputs, .-psa_pake_complete_inputs
	.section	.text.psa_aead_final_checks,"ax",@progbits
	.align	1
	.type	psa_aead_final_checks, @function
psa_aead_final_checks:
.LVL167:
.LFB286:
.LM623:
	.cfi_startproc
.LM624:
.LM625:
	lw	a5,0(a0)
	beq	a5,zero,.L240
.LM626:
	lbu	a4,20(a0)
.LM627:
	li	a5,-137
.LM628:
	andi	a3,a4,1
	beq	a3,zero,.L238
.LM629:
.LM630:
	andi	a4,a4,2
.LM631:
	li	a5,0
.LM632:
	beq	a4,zero,.L238
.LVL168:
.LBB270:
.LBI270:
.LM633:
.LBB271:
.LM634:
	lw	a4,12(a0)
.LM635:
	li	a5,-135
.LM636:
	bne	a4,zero,.L238
.LM637:
	lw	a5,16(a0)
.LBE271:
.LBE270:
.LM638:
	snez	a5,a5
	neg	a5,a5
	andi	a5,a5,-135
.LVL169:
.L238:
.LM639:
	mv	a0,a5
.LVL170:
.LM640:
	ret
.LVL171:
.L240:
.LM641:
	li	a5,-137
	j	.L238
	.cfi_endproc
.LFE286:
	.size	psa_aead_final_checks, .-psa_aead_final_checks
	.section	.text.psa_wipe_tag_output_buffer,"ax",@progbits
	.align	1
	.type	psa_wipe_tag_output_buffer, @function
psa_wipe_tag_output_buffer:
.LVL172:
.LFB175:
.LM642:
	.cfi_startproc
.LM643:
.LM644:
.LM645:
	beq	a2,zero,.L246
.LVL173:
.LBB274:
.LBI274:
.LM646:
.LBB275:
.LM647:
.LM648:
	seqz	a1,a1
.LVL174:
.LM649:
	neg	a1,a1
	and	a3,a3,a1
.LVL175:
.LM650:
	sub	a2,a2,a3
.LVL176:
.LM651:
	li	a1,33
	add	a0,a0,a3
.LVL177:
.LM652:
	tail	memset
.LVL178:
.L246:
.LM653:
.LBE275:
.LBE274:
.LM654:
	ret
	.cfi_endproc
.LFE175:
	.size	psa_wipe_tag_output_buffer, .-psa_wipe_tag_output_buffer
	.section	.text.psa_get_and_lock_key_slot_with_policy,"ax",@progbits
	.align	1
	.type	psa_get_and_lock_key_slot_with_policy, @function
psa_get_and_lock_key_slot_with_policy:
.LVL179:
.LFB185:
.LM655:
	.cfi_startproc
.LM656:
.LM657:
.LM658:
.LM659:
	addi	sp,sp,-48
	.cfi_def_cfa_offset 48
	sw	s0,40(sp)
	sw	s1,36(sp)
	sw	s3,28(sp)
	sw	ra,44(sp)
	sw	s2,32(sp)
	sw	s4,24(sp)
	.cfi_offset 8, -8
	.cfi_offset 9, -12
	.cfi_offset 19, -20
	.cfi_offset 1, -4
	.cfi_offset 18, -16
	.cfi_offset 20, -24
.LM660:
	mv	s3,a1
	sw	a2,12(sp)
	mv	s1,a3
.LM661:
	call	psa_get_and_lock_key_slot
.LVL180:
.LM662:
	mv	s0,a0
.LVL181:
.LM663:
.LM664:
	bne	a0,zero,.L251
.LVL182:
.LBB280:
.LBI280:
.LM665:
.LBB281:
.LM666:
.LM667:
	lw	s2,0(s3)
.LVL183:
.LM668:
.LM669:
	li	a4,4
	lw	a2,12(sp)
.LM670:
	lhu	s4,0(s2)
.LM671:
	srai	a5,s4,12
	andi	a5,a5,7
	bne	a5,a4,.L253
.LM672:
.LM673:
	andi	a2,a2,-2
.L253:
.LVL184:
.LM674:
.LM675:
	lw	a5,8(s2)
	and	a5,a2,a5
.LM676:
	bne	a2,a5,.L260
.LM677:
.LM678:
	beq	s1,zero,.L251
.LM679:
.LVL185:
.LBB282:
.LBI282:
.LM680:
.LBB283:
.LM681:
.LM682:
.LM683:
	li	a3,-100663296
	andi	a5,s1,-512
	addi	a3,a3,-512
	add	a5,a5,a3
.LM684:
	andi	a4,s1,-256
.LM685:
	beq	a5,zero,.L255
.LM686:
	li	a5,-100667392
	addi	a5,a5,-768
	add	a5,a4,a5
.LM687:
	beq	a5,zero,.L255
.LM688:
	li	a3,-100663296
	andi	a5,s1,-1024
	addi	a3,a3,-1024
	add	a5,a5,a3
	beq	a5,zero,.L255
.LM689:
	li	a5,-100667392
	addi	a5,a5,1792
	add	a4,a4,a5
.LM690:
	bne	a4,zero,.L256
.L255:
.LM691:
	andi	a5,s1,255
.LM692:
	beq	a5,zero,.L258
.LM693:
	li	a4,33554432
	or	a5,a5,a4
.LM694:
	addi	a4,a4,255
	bne	a5,a4,.L258
.L263:
.LM695:
.LBE283:
.LBE282:
.LM696:
	li	s0,-135
.LVL186:
.LM697:
	j	.L254
.LVL187:
.L256:
.LBB287:
.LBB284:
.LM698:
	li	a5,2130706432
.LM699:
	li	a4,-50331648
.LM700:
	and	a5,s1,a5
.LM701:
	add	a5,a5,a4
	srli	a4,a5,24
	andi	a4,a4,-3
	bne	a4,zero,.L259
.LM702:
	slli	a5,s1,16
	blt	a5,zero,.L263
.L258:
.LM703:
.LM704:
	lw	a1,12(s2)
	mv	a2,s1
.LVL188:
.LM705:
	mv	a0,s4
	call	psa_key_algorithm_permits
.LVL189:
.LM706:
	bne	a0,zero,.L251
.LM707:
	lw	a1,16(s2)
	mv	a2,s1
	mv	a0,s4
	call	psa_key_algorithm_permits
.LVL190:
.LBE284:
.LBE287:
.LM708:
	li	s0,0
.LVL191:
.LBB288:
.LBB285:
.LM709:
	bne	a0,zero,.L251
.LVL192:
.L260:
.LM710:
.LBE285:
.LBE288:
.LM711:
	li	s0,-133
.L254:
.LVL193:
.LM712:
.LM713:
	sw	zero,0(s3)
.LM714:
	mv	a0,s2
	call	psa_unregister_read_under_mutex
.LVL194:
.LM715:
.L251:
.LM716:
.LBE281:
.LBE280:
.LM717:
	lw	ra,44(sp)
	.cfi_remember_state
	.cfi_restore 1
	mv	a0,s0
	lw	s0,40(sp)
	.cfi_restore 8
	lw	s1,36(sp)
	.cfi_restore 9
.LVL195:
.LM718:
	lw	s2,32(sp)
	.cfi_restore 18
	lw	s3,28(sp)
	.cfi_restore 19
.LVL196:
.LM719:
	lw	s4,24(sp)
	.cfi_restore 20
	addi	sp,sp,48
	.cfi_def_cfa_offset 0
.LVL197:
.LM720:
	jr	ra
.LVL198:
.L259:
	.cfi_restore_state
.LBB291:
.LBB290:
.LBB289:
.LBB286:
.LM721:
	li	a5,33554432
	addi	a5,a5,255
	bne	s1,a5,.L258
	j	.L263
.LBE286:
.LBE289:
.LBE290:
.LBE291:
	.cfi_endproc
.LFE185:
	.size	psa_get_and_lock_key_slot_with_policy, .-psa_get_and_lock_key_slot_with_policy
	.section	.text.psa_des_set_key_parity,"ax",@progbits
	.align	1
	.type	psa_des_set_key_parity, @function
psa_des_set_key_parity:
.LVL199:
.LFB302:
.LM722:
	.cfi_startproc
.LM723:
.LM724:
	li	a5,7
	bleu	a1,a5,.L279
.LM725:
	addi	sp,sp,-16
	.cfi_def_cfa_offset 16
	sw	s0,8(sp)
	sw	s1,4(sp)
	sw	ra,12(sp)
	.cfi_offset 8, -8
	.cfi_offset 9, -12
	.cfi_offset 1, -4
	mv	s1,a0
	mv	s0,a1
.LM726:
	call	mbedtls_des_key_set_parity
.LVL200:
.LM727:
.LM728:
	li	a5,15
	bleu	s0,a5,.L274
.LM729:
	addi	a0,s1,8
	call	mbedtls_des_key_set_parity
.LVL201:
.LM730:
.LM731:
	li	a5,23
	bleu	s0,a5,.L274
.LVL202:
.LBB294:
.LBI294:
.LM732:
.LBB295:
.LM733:
.LBE295:
.LBE294:
.LM734:
	lw	s0,8(sp)
	.cfi_remember_state
	.cfi_restore 8
.LVL203:
.LM735:
	lw	ra,12(sp)
	.cfi_restore 1
.LBB298:
.LBB296:
.LM736:
	addi	a0,s1,16
.LBE296:
.LBE298:
.LM737:
	lw	s1,4(sp)
	.cfi_restore 9
.LVL204:
.LM738:
	addi	sp,sp,16
	.cfi_def_cfa_offset 0
.LBB299:
.LBB297:
.LM739:
	tail	mbedtls_des_key_set_parity
.LVL205:
.L274:
	.cfi_restore_state
.LM740:
.LBE297:
.LBE299:
.LM741:
	lw	ra,12(sp)
	.cfi_restore 1
	lw	s0,8(sp)
	.cfi_restore 8
.LVL206:
.LM742:
	lw	s1,4(sp)
	.cfi_restore 9
.LVL207:
.LM743:
	addi	sp,sp,16
	.cfi_def_cfa_offset 0
	jr	ra
.LVL208:
.L279:
.LM744:
	ret
	.cfi_endproc
.LFE302:
	.size	psa_des_set_key_parity, .-psa_des_set_key_parity
	.section	.text.psa_get_and_lock_transparent_key_slot_with_policy.constprop.0,"ax",@progbits
	.align	1
	.type	psa_get_and_lock_transparent_key_slot_with_policy.constprop.0, @function
psa_get_and_lock_transparent_key_slot_with_policy.constprop.0:
.LVL209:
.LFB401:
.LM745:
	.cfi_startproc
.LM746:
	addi	sp,sp,-16
	.cfi_def_cfa_offset 16
	mv	a3,a2
.LM747:
	li	a2,16384
.LVL210:
.LM748:
	sw	s0,8(sp)
	sw	ra,12(sp)
	.cfi_offset 8, -8
	.cfi_offset 1, -4
.LM749:
	mv	s0,a1
.LVL211:
.LM750:
.LM751:
	call	psa_get_and_lock_key_slot_with_policy
.LVL212:
.LM752:
.LM753:
	bne	a0,zero,.L282
.LVL213:
.LBB304:
.LBI304:
.LM754:
.LBB305:
.LM755:
.LM756:
	lw	a4,0(s0)
.LVL214:
.LBB306:
.LBI306:
.LM757:
.LBB307:
.LM758:
.LM759:
	lw	a5,4(a4)
	srli	a5,a5,8
.LBE307:
.LBE306:
.LM760:
	beq	a5,zero,.L282
.LM761:
	mv	a0,a4
.LVL215:
.LM762:
	call	psa_unregister_read_under_mutex
.LVL216:
.LM763:
.LM764:
	li	a0,-134
.LM765:
	sw	zero,0(s0)
.LM766:
.LVL217:
.L282:
.LM767:
.LBE305:
.LBE304:
.LM768:
	lw	ra,12(sp)
	.cfi_restore 1
	lw	s0,8(sp)
	.cfi_restore 8
.LVL218:
.LM769:
	addi	sp,sp,16
	.cfi_def_cfa_offset 0
	jr	ra
	.cfi_endproc
.LFE401:
	.size	psa_get_and_lock_transparent_key_slot_with_policy.constprop.0, .-psa_get_and_lock_transparent_key_slot_with_policy.constprop.0
	.section	.text.psa_key_derivation_get_kdf_alg.isra.0,"ax",@progbits
	.align	1
	.type	psa_key_derivation_get_kdf_alg.isra.0, @function
psa_key_derivation_get_kdf_alg.isra.0:
.LFB402:
.LM770:
	.cfi_startproc
.LVL219:
.LM771:
.LM772:
	srai	a5,a0,24
	andi	a5,a5,127
	li	a4,9
	bne	a5,a4,.L289
.LM773:
.LM774:
	li	a5,-167706624
	addi	a5,a5,-1
	and	a0,a0,a5
	li	a5,134217728
	or	a0,a0,a5
.L289:
.LM775:
	ret
	.cfi_endproc
.LFE402:
	.size	psa_key_derivation_get_kdf_alg.isra.0, .-psa_key_derivation_get_kdf_alg.isra.0
	.section	.text.psa_mac_finalize_alg_and_key_validation.isra.0,"ax",@progbits
	.align	1
	.type	psa_mac_finalize_alg_and_key_validation.isra.0, @function
psa_mac_finalize_alg_and_key_validation.isra.0:
.LVL220:
.LFB403:
.LM776:
	.cfi_startproc
.LM777:
.LM778:
.LM779:
.LM780:
.LM781:
	srai	a5,a0,24
	andi	a5,a5,127
	li	a4,3
	beq	a5,a4,.L292
.LM782:
	li	a0,-135
.LVL221:
.LM783:
	ret
.LVL222:
.L294:
	.cfi_def_cfa_offset 16
	.cfi_offset 1, -4
	.cfi_offset 8, -8
	.cfi_offset 9, -12
	.cfi_offset 18, -16
.LM784:
	li	a0,-135
.LVL223:
.L291:
.LM785:
	lw	ra,12(sp)
	.cfi_restore 1
	lw	s0,8(sp)
	.cfi_restore 8
	lw	s1,4(sp)
	.cfi_restore 9
.LVL224:
.LM786:
	lw	s2,0(sp)
	.cfi_restore 18
	addi	sp,sp,16
	.cfi_def_cfa_offset 0
	jr	ra
.LVL225:
.L292:
.LM787:
	addi	sp,sp,-16
	.cfi_def_cfa_offset 16
	sw	s0,8(sp)
.LVL226:
.LM788:
	sw	s1,4(sp)
	sw	s2,0(sp)
	sw	ra,12(sp)
	.cfi_offset 8, -8
	.cfi_offset 9, -12
	.cfi_offset 18, -16
	.cfi_offset 1, -4
	mv	s0,a0
	mv	s2,a1
	mv	s1,a2
.LM789:
.LM790:
	call	psa_mac_key_can_do
.LVL227:
.LM791:
.LM792:
	bne	a0,zero,.L294
.LM793:
.LM794:
	srli	a5,s0,16
	andi	a5,a5,63
	beq	a5,zero,.L295
.LM795:
	srli	a5,s0,16
.LM796:
	andi	a5,a5,63
.L296:
.LM797:
	sb	a5,0(s1)
.LM798:
.LM799:
	li	a4,3
	bleu	a5,a4,.L299
.LM800:
.LM801:
	li	a4,2143289344
	and	a4,s0,a4
.LM802:
	li	a3,58720256
	bne	a4,a3,.L302
.LM803:
	li	a4,33554432
.LM804:
	andi	s0,s0,255
.LVL228:
.LM805:
	or	s0,s0,a4
	li	a4,-33554432
	addi	a4,a4,-3
	add	s0,s0,a4
	li	a4,16
	bgtu	s0,a4,.L294
	lui	a4,%hi(CSWTCH.301)
	addi	a4,a4,%lo(CSWTCH.301)
	add	a4,a4,s0
	lbu	a4,0(a4)
.L303:
.LM806:
	bgtu	a5,a4,.L294
.LM807:
.LM808:
	li	a4,64
	bleu	a5,a4,.L291
	j	.L299
.LVL229:
.L295:
.LM809:
	li	a5,2143289344
	and	a5,s0,a5
.LM810:
	li	a4,58720256
	bne	a5,a4,.L297
.LM811:
	li	a4,33554432
.LM812:
	andi	a5,s0,255
.LM813:
	or	a5,a5,a4
	li	a4,-33554432
	addi	a4,a4,-3
	add	a5,a5,a4
	li	a4,16
	bleu	a5,a4,.L298
.L300:
.LM814:
	sb	zero,0(s1)
.LM815:
.LVL230:
.L299:
.LM816:
	li	a0,-134
.LVL231:
.LM817:
	j	.L291
.LVL232:
.L298:
.LM818:
	lui	a4,%hi(CSWTCH.300)
	addi	a4,a4,%lo(CSWTCH.300)
	add	a5,a4,a5
	lbu	a5,0(a5)
	j	.L296
.L297:
.LM819:
	li	a4,62914560
	bne	a5,a4,.L300
.LM820:
	srai	a5,s2,12
	andi	a5,a5,7
	li	a4,2
	bne	a5,a4,.L300
.LM821:
	srli	a4,s2,8
	andi	a4,a4,7
.LM822:
	li	a5,1
	sll	a5,a5,a4
.LM823:
	andi	a5,a5,0xff
	j	.L296
.L302:
.LM824:
	li	a3,62914560
	bne	a4,a3,.L294
.LM825:
	srai	a4,s2,12
	andi	a4,a4,7
	li	a3,2
	bne	a4,a3,.L294
.LM826:
	srli	a1,s2,8
	andi	a1,a1,7
.LM827:
	li	a4,1
	sll	a4,a4,a1
	j	.L303
	.cfi_endproc
.LFE403:
	.size	psa_mac_finalize_alg_and_key_validation.isra.0, .-psa_mac_finalize_alg_and_key_validation.isra.0
	.section	.text.psa_mac_compute_internal,"ax",@progbits
	.align	1
	.type	psa_mac_compute_internal, @function
psa_mac_compute_internal:
.LVL233:
.LFB222:
.LM828:
	.cfi_startproc
.LM829:
.LM830:
.LM831:
.LM832:
.LM833:
	addi	sp,sp,-80
	.cfi_def_cfa_offset 80
	sw	s1,68(sp)
	sw	s2,64(sp)
	sw	s3,60(sp)
	sw	s4,56(sp)
	sw	s5,52(sp)
	sw	s6,48(sp)
	sw	ra,76(sp)
	sw	s0,72(sp)
	.cfi_offset 9, -12
	.cfi_offset 18, -16
	.cfi_offset 19, -20
	.cfi_offset 20, -24
	.cfi_offset 21, -28
	.cfi_offset 22, -32
	.cfi_offset 1, -4
	.cfi_offset 8, -8
.LM834:
	sb	zero,43(sp)
.LM835:
.LM836:
	mv	s5,a2
	mv	s3,a1
	mv	s6,a3
	mv	s4,a4
	mv	s1,a5
	mv	s2,a6
.LM837:
	li	a2,1024
.LVL234:
.LM838:
	bne	a7,zero,.L310
.LM839:
	li	a2,4096
	addi	a2,a2,-2048
.L310:
.LM840:
	addi	a1,sp,44
.LVL235:
.LM841:
	mv	a3,s3
.LVL236:
.LM842:
	call	psa_get_and_lock_key_slot_with_policy
.LVL237:
.LM843:
	mv	a1,a0
.LVL238:
.LM844:
.LM845:
	bne	a0,zero,.L311
.LM846:
.LM847:
	lw	s0,44(sp)
.LM848:
	addi	a2,sp,43
	mv	a0,s3
.LVL239:
.LM849:
	lhu	a1,0(s0)
.LVL240:
.LM850:
	call	psa_mac_finalize_alg_and_key_validation.isra.0
.LVL241:
	mv	a1,a0
.LVL242:
.LM851:
.LM852:
	bne	a0,zero,.L311
.LM853:
.LM854:
	lbu	a7,43(sp)
.LM855:
	li	a1,-138
.LM856:
	bgtu	a7,s1,.L311
.LM857:
.LVL243:
.LBB314:
.LBI314:
.LM858:
.LBB315:
.LM859:
.LM860:
.LBB316:
.LBI316:
.LM861:
.LBB317:
.LM862:
.LM863:
.LBE317:
.LBE316:
.LM864:
.LM865:
	lw	a5,4(s0)
	srli	a5,a5,8
.LVL244:
.LM866:
	bne	a5,zero,.L316
.LM867:
.LM868:
	lw	a1,32(s0)
	lw	a2,36(s0)
	mv	a6,s4
	sw	s2,0(sp)
.LVL245:
.LM869:
	mv	a5,s6
.LVL246:
.LM870:
	mv	a4,s5
	mv	a3,s3
	mv	a0,s0
.LVL247:
.LM871:
	call	mbedtls_psa_mac_compute
.LVL248:
.LM872:
	mv	a1,a0
.LM873:
.LVL249:
.LDL1:
.LM874:
.LBE315:
.LBE314:
.LM875:
.LM876:
	beq	a0,zero,.L312
.L311:
.LVL250:
.LM877:
.LM878:
	sw	s1,0(s2)
.LM879:
.L312:
.LM880:
	lw	a3,0(s2)
	mv	a2,s1
	mv	a0,s4
	sw	a1,28(sp)
	call	psa_wipe_tag_output_buffer
.LVL251:
.LM881:
.LM882:
	lw	a0,44(sp)
	call	psa_unregister_read_under_mutex
.LVL252:
.LM883:
.LM884:
	lw	a1,28(sp)
	bne	a1,zero,.L309
.LM885:
	mv	a1,a0
.L309:
.LM886:
	lw	ra,76(sp)
	.cfi_remember_state
	.cfi_restore 1
	lw	s0,72(sp)
	.cfi_restore 8
	lw	s1,68(sp)
	.cfi_restore 9
.LVL253:
.LM887:
	lw	s2,64(sp)
	.cfi_restore 18
.LVL254:
.LM888:
	lw	s3,60(sp)
	.cfi_restore 19
.LVL255:
.LM889:
	lw	s4,56(sp)
	.cfi_restore 20
.LVL256:
.LM890:
	lw	s5,52(sp)
	.cfi_restore 21
.LVL257:
.LM891:
	lw	s6,48(sp)
	.cfi_restore 22
.LVL258:
.LM892:
	mv	a0,a1
.LVL259:
.LM893:
	addi	sp,sp,80
	.cfi_def_cfa_offset 0
	jr	ra
.LVL260:
.L316:
	.cfi_restore_state
.LBB319:
.LBB318:
.LM894:
	li	a1,-135
	j	.L311
.LBE318:
.LBE319:
	.cfi_endproc
.LFE222:
	.size	psa_mac_compute_internal, .-psa_mac_compute_internal
	.section	.text.psa_start_key_creation.isra.0,"ax",@progbits
	.align	1
	.type	psa_start_key_creation.isra.0, @function
psa_start_key_creation.isra.0:
.LVL261:
.LFB404:
.LM895:
	.cfi_startproc
.LM896:
	addi	sp,sp,-48
	.cfi_def_cfa_offset 48
	sw	s0,40(sp)
	sw	s1,36(sp)
	sw	s4,24(sp)
	sw	ra,44(sp)
	sw	s2,32(sp)
	sw	s3,28(sp)
	.cfi_offset 8, -8
	.cfi_offset 9, -12
	.cfi_offset 20, -24
	.cfi_offset 1, -4
	.cfi_offset 18, -16
	.cfi_offset 19, -20
.LM897:
	sw	zero,0(a2)
.LBB342:
.LBB343:
.LBB344:
.LBB345:
.LM898:
	lw	s2,4(a0)
.LBE345:
.LBE344:
.LBB347:
.LBB348:
.LM899:
	lw	s3,20(a0)
.LBE348:
.LBE347:
.LBE343:
.LBE342:
.LM900:
	mv	s1,a0
	mv	s4,a1
.LVL262:
.LM901:
.LM902:
.LM903:
.LM904:
.LBB361:
.LBI342:
.LM905:
.LBB358:
.LM906:
.LM907:
.LBB350:
.LBI344:
.LM908:
.LBB346:
.LM909:
.LM910:
.LBE346:
.LBE350:
.LM911:
.LBB351:
.LBI347:
.LM912:
.LBB349:
.LM913:
.LM914:
.LBE349:
.LBE351:
.LM915:
.LM916:
	mv	a0,s2
.LVL263:
.LM917:
	mv	a1,a2
.LVL264:
.LM918:
	call	psa_validate_key_location
.LVL265:
.LM919:
	mv	s0,a0
.LVL266:
.LM920:
.LM921:
	bne	a0,zero,.L321
.LM922:
.LM923:
	mv	a0,s2
	call	psa_validate_key_persistence
.LVL267:
	mv	s0,a0
.LVL268:
.LM924:
.LM925:
	bne	a0,zero,.L321
.LM926:
.LM927:
	andi	s2,s2,0xff
.LVL269:
.LM928:
	bne	s2,zero,.L323
.LM929:
.LM930:
	bne	s3,zero,.L324
.L326:
.LM931:
.LBB352:
.LBI352:
.LM932:
.LVL270:
.LBB353:
.LM933:
.LM934:
	lw	a5,8(s1)
	li	a4,-65536
	addi	a4,a4,252
	and	a5,a5,a4
.LM935:
	beq	a5,zero,.L325
.LVL271:
.L324:
.LM936:
.LBE353:
.LBE352:
.LBE358:
.LBE361:
.LM937:
	li	s0,-135
.LVL272:
.L321:
.LM938:
	lw	ra,44(sp)
	.cfi_remember_state
	.cfi_restore 1
	mv	a0,s0
	lw	s0,40(sp)
	.cfi_restore 8
	lw	s1,36(sp)
	.cfi_restore 9
.LVL273:
.LM939:
	lw	s2,32(sp)
	.cfi_restore 18
	lw	s3,28(sp)
	.cfi_restore 19
.LVL274:
.LM940:
	lw	s4,24(sp)
	.cfi_restore 20
.LVL275:
.LM941:
	addi	sp,sp,48
	.cfi_def_cfa_offset 0
	jr	ra
.LVL276:
.L323:
	.cfi_restore_state
.LBB362:
.LBB359:
.LM942:
.LBB354:
.LBI354:
.LM943:
.LBB355:
.LM944:
.LM945:
.LBE355:
.LBE354:
.LM946:
	lw	a0,20(s1)
	li	a1,0
	call	psa_is_valid_key_id
.LVL277:
.LM947:
	bne	a0,zero,.L326
	j	.L324
.LVL278:
.L325:
.LM948:
.LM949:
.LBB356:
.LBI356:
.LM950:
.LBB357:
.LM951:
.LM952:
.LBE357:
.LBE356:
.LM953:
	lhu	a4,2(s1)
	li	a5,65536
	addi	a5,a5,-8
.LBE359:
.LBE362:
.LM954:
	li	s0,-134
.LBB363:
.LBB360:
.LM955:
	bgtu	a4,a5,.L321
.LVL279:
.LM956:
.LBE360:
.LBE363:
.LM957:
.LBB364:
.LBI364:
.LM958:
.LBB365:
.LM959:
.LM960:
	lbu	s2,4(s1)
.LVL280:
.LM961:
.LM962:
.LM963:
	li	a0,0
.LM964:
	bne	s2,zero,.L327
.LM965:
	addi	a0,sp,12
.L327:
.LM966:
	mv	a1,s4
	call	psa_reserve_free_key_slot
.LVL281:
	mv	s0,a0
.LVL282:
.LM967:
.LM968:
	bne	a0,zero,.L321
.LM969:
.LM970:
	lw	a5,0(s4)
.LVL283:
.LM971:
.LM972:
	li	a2,24
	mv	a1,s1
	mv	a0,a5
	call	memcpy
.LVL284:
.LM973:
.LM974:
	bne	s2,zero,.L321
.LVL285:
.LM975:
.LM976:
	lw	a4,12(sp)
	sw	a4,20(a0)
.LVL286:
.LM977:
	j	.L321
.LBE365:
.LBE364:
	.cfi_endproc
.LFE404:
	.size	psa_start_key_creation.isra.0, .-psa_start_key_creation.isra.0
	.section	.text.psa_key_derivation_start_hmac,"ax",@progbits
	.align	1
	.type	psa_key_derivation_start_hmac, @function
psa_key_derivation_start_hmac:
.LVL287:
.LFB290:
.LM978:
	.cfi_startproc
.LM979:
.LM980:
.LBB372:
.LBB373:
.LM981:
	li	a5,4096
.LBE373:
.LBE372:
.LM982:
	addi	sp,sp,-64
	.cfi_def_cfa_offset 64
.LBB377:
.LBB374:
.LM983:
	addi	a5,a5,256
.LBE374:
.LBE377:
.LBB378:
.LBB379:
.LM984:
	li	a4,65536
.LBE379:
.LBE378:
.LM985:
	sw	s0,56(sp)
	sw	s1,52(sp)
	sw	s2,48(sp)
.LBB382:
.LBB375:
.LM986:
	sh	a5,24(sp)
.LBE375:
.LBE382:
.LM987:
	sw	ra,60(sp)
	.cfi_offset 8, -8
	.cfi_offset 9, -12
	.cfi_offset 18, -16
	.cfi_offset 1, -4
.LM988:
	sw	zero,28(sp)
	sw	zero,32(sp)
	sw	zero,36(sp)
	sw	zero,40(sp)
	sw	zero,44(sp)
.LM989:
.LVL288:
.LBB383:
.LBI372:
.LM990:
.LBB376:
.LM991:
.LM992:
.LBE376:
.LBE383:
.LM993:
	slli	a5,a3,3
.LVL289:
.LBB384:
.LBI378:
.LM994:
.LBB380:
.LM995:
.LM996:
	addi	a4,a4,-8
.LBE380:
.LBE384:
.LM997:
	mv	s0,a0
	mv	s1,a1
	mv	s2,a2
.LBB385:
.LBB381:
.LM998:
	bleu	a5,a4,.L338
	li	a5,65536
.LVL290:
.LM999:
	addi	a5,a5,-1
.L338:
	sh	a5,26(sp)
.LVL291:
.LM1000:
.LBE381:
.LBE385:
.LM1001:
.LBB386:
.LBB387:
.LM1002:
	addi	a0,sp,20
.LVL292:
.LM1003:
	li	a5,4096
	sw	a3,12(sp)
	sw	a5,20(sp)
.LVL293:
.LM1004:
.LBE387:
.LBI386:
.LM1005:
.LBB388:
.LM1006:
	call	psa_extend_key_usage_flags
.LVL294:
.LM1007:
.LM1008:
	lw	a5,20(sp)
.LBE388:
.LBE386:
.LM1009:
	li	a2,400
	li	a1,0
	mv	a0,s0
.LBB390:
.LBB389:
.LM1010:
	sw	a5,32(sp)
.LVL295:
.LM1011:
.LBE389:
.LBE390:
.LM1012:
	call	memset
.LVL296:
.LM1013:
.LM1014:
	lbu	a5,5(s0)
.LM1015:
	andi	a1,s1,255
	li	a4,-33554432
.LM1016:
	ori	a5,a5,1
	sb	a5,5(s0)
.LM1017:
.LM1018:
	li	a5,33554432
	addi	a4,a4,-3
	or	a5,a1,a5
	add	a5,a5,a4
	li	a2,16
	lw	a3,12(sp)
	li	a4,0
	bgtu	a5,a2,.L339
.LM1019:
	lui	a2,%hi(CSWTCH.343)
	addi	a2,a2,%lo(CSWTCH.343)
	add	a5,a2,a5
	lbu	a4,0(a5)
.L339:
.LM1020:
	sb	a4,4(s0)
.LM1021:
.LM1022:
	li	a4,58720256
	or	a4,a1,a4
	mv	a2,s2
	addi	a1,sp,24
	mv	a0,s0
	call	psa_driver_wrapper_mac_sign_setup
.LVL297:
	mv	s0,a0
.LVL298:
.LM1023:
	addi	a0,sp,24
	call	psa_reset_key_attributes
.LVL299:
.LM1024:
.LM1025:
	lw	ra,60(sp)
	.cfi_restore 1
	mv	a0,s0
	lw	s0,56(sp)
	.cfi_restore 8
.LVL300:
.LM1026:
	lw	s1,52(sp)
	.cfi_restore 9
.LVL301:
.LM1027:
	lw	s2,48(sp)
	.cfi_restore 18
.LVL302:
.LM1028:
	addi	sp,sp,64
	.cfi_def_cfa_offset 0
.LVL303:
.LM1029:
	jr	ra
	.cfi_endproc
.LFE290:
	.size	psa_key_derivation_start_hmac, .-psa_key_derivation_start_hmac
	.section	.text.psa_can_do_hash,"ax",@progbits
	.align	1
	.globl	psa_can_do_hash
	.type	psa_can_do_hash, @function
psa_can_do_hash:
.LVL304:
.LFB171:
.LM1030:
	.cfi_startproc
.LM1031:
.LM1032:
.LBB391:
.LBI391:
.LM1033:
.LBB392:
.LM1034:
.LM1035:
.LM1036:
.LM1037:
	lui	a5,%hi(global_data)
	lbu	a0,%lo(global_data)(a5)
.LVL305:
.LM1038:
.LBE392:
.LBE391:
.LM1039:
	andi	a0,a0,1
	ret
	.cfi_endproc
.LFE171:
	.size	psa_can_do_hash, .-psa_can_do_hash
	.section	.text.psa_can_do_cipher,"ax",@progbits
	.align	1
	.globl	psa_can_do_cipher
	.type	psa_can_do_cipher, @function
psa_can_do_cipher:
.LVL306:
.LFB172:
.LM1040:
	.cfi_startproc
.LM1041:
.LM1042:
.LM1043:
.LBB393:
.LBI393:
.LM1044:
.LBB394:
.LM1045:
.LM1046:
.LM1047:
.LM1048:
	lui	a5,%hi(global_data)
	lbu	a0,%lo(global_data)(a5)
.LVL307:
.LM1049:
.LBE394:
.LBE393:
.LM1050:
	andi	a0,a0,1
	ret
	.cfi_endproc
.LFE172:
	.size	psa_can_do_cipher, .-psa_can_do_cipher
	.section	.text.mbedtls_to_psa_error,"ax",@progbits
	.align	1
	.globl	mbedtls_to_psa_error
	.type	mbedtls_to_psa_error, @function
mbedtls_to_psa_error:
.LVL308:
.LFB174:
.LM1051:
	.cfi_startproc
.LM1052:
.LM1053:
	neg	a5,a0
.LM1054:
	andi	a5,a5,127
.LVL309:
.LM1055:
.LM1056:
	beq	a5,zero,.L345
.LM1057:
	neg	a0,a5
.LVL310:
.L346:
.LM1058:
	li	a5,-51
	bge	a0,a5,.L365
	li	a5,-81
	bge	a0,a5,.L366
	li	a5,-112
	beq	a0,a5,.L418
	li	a5,-111
	bge	a0,a5,.L367
	li	a5,-16384
	addi	a5,a5,1408
	beq	a0,a5,.L429
	li	a5,-16384
	addi	a5,a5,1409
	bge	a0,a5,.L368
	li	a5,-16384
	addi	a5,a5,1152
	beq	a0,a5,.L420
	li	a5,-16384
	addi	a5,a5,1280
	j	.L446
.LVL311:
.L345:
.LM1059:
	li	a5,-16384
.LVL312:
.LM1060:
	addi	a5,a5,1024
	beq	a0,a5,.L420
	li	a5,-16384
	addi	a5,a5,1025
	bge	a0,a5,.L346
	li	a5,-20480
	addi	a5,a5,1280
	beq	a0,a5,.L374
	li	a5,-20480
	addi	a5,a5,1281
	bge	a0,a5,.L348
	li	a5,-20480
	addi	a5,a5,-384
	beq	a0,a5,.L389
	li	a5,-20480
	addi	a5,a5,-383
	bge	a0,a5,.L349
	li	a5,-24576
	addi	a5,a5,-512
	beq	a0,a5,.L410
	li	a5,-24576
	addi	a5,a5,-511
	bge	a0,a5,.L350
	li	a5,-24576
	addi	a5,a5,-896
	beq	a0,a5,.L426
	blt	a0,a5,.L428
	li	a5,-24576
	addi	a5,a5,-768
	beq	a0,a5,.L422
	li	a5,-24576
	addi	a5,a5,-640
.LVL313:
.L446:
.LM1061:
	bne	a0,a5,.L428
.L415:
.LM1062:
	li	a0,-135
	ret
.L371:
.LM1063:
	addi	a4,a0,14
	li	a5,1
	sll	a5,a5,a4
	andi	a5,a5,1303
	bne	a5,zero,.L415
	beq	a0,zero,.L347
	li	a5,-8
	bne	a0,a5,.L428
.L424:
.LM1064:
	li	a0,-138
	ret
.L435:
.LM1065:
	lui	a4,%hi(.L353)
	slli	a5,a5,2
	addi	a4,a4,%lo(.L353)
	add	a5,a5,a4
	lw	a5,0(a5)
	jr	a5
	.section	.rodata.mbedtls_to_psa_error,"a",@progbits
	.align	2
	.align	2
.L353:
	.word	.L429
	.word	.L415
	.word	.L429
	.word	.L428
	.word	.L428
	.word	.L428
	.word	.L428
	.word	.L428
	.word	.L428
	.word	.L428
	.word	.L428
	.word	.L428
	.word	.L424
	.word	.L428
	.word	.L415
	.word	.L428
	.word	.L422
	.word	.L428
	.word	.L389
	.word	.L422
	.section	.text.mbedtls_to_psa_error
.L366:
	addi	a0,a0,81
	li	a5,1
	sll	a5,a5,a0
	li	a4,548536320
	and	a4,a5,a4
.LM1066:
	li	a0,-148
.LM1067:
	bne	a4,zero,.L347
	srli	a4,a5,25
	andi	a4,a4,5
	li	a0,-134
	bne	a4,zero,.L347
	andi	a5,a5,1
.LM1068:
	addi	a5,a5,-1
.L441:
	andi	a0,a5,3
	addi	a0,a0,-135
	ret
.L434:
	li	a5,1
	sll	a5,a5,a4
.LM1069:
	srli	a3,a5,4
	andi	a3,a3,341
.LM1070:
	li	a0,-135
.LM1071:
	bne	a3,zero,.L347
	andi	a5,a5,1
.LM1072:
	li	a0,-138
.LM1073:
	bne	a5,zero,.L347
	li	a5,2
.LM1074:
	li	a0,-132
.LM1075:
	bne	a4,a5,.L347
.L389:
.LM1076:
	li	a0,-141
	ret
.LVL314:
.L350:
.LM1077:
	li	a5,-24576
	addi	a5,a5,-384
	beq	a0,a5,.L389
	blt	a0,a5,.L428
	li	a5,-24576
	addi	a5,a5,-256
	beq	a0,a5,.L415
	li	a5,-24576
	addi	a5,a5,-128
.LVL315:
.L448:
.LM1078:
	beq	a0,a5,.L429
	j	.L428
.LVL316:
.L349:
.LM1079:
	li	a5,-20480
	addi	a5,a5,512
	beq	a0,a5,.L422
	li	a5,-20480
	addi	a5,a5,513
	bge	a0,a5,.L358
	li	a5,-20480
	addi	a5,a5,256
	beq	a0,a5,.L424
	li	a5,-20480
	addi	a5,a5,257
	bge	a0,a5,.L359
	li	a5,-20480
	addi	a5,a5,-128
	beq	a0,a5,.L429
	li	a5,-20480
	addi	a5,a5,128
	beq	a0,a5,.L415
	li	a5,-20480
	addi	a5,a5,-256
	j	.L446
.L359:
	li	a5,-20480
	addi	a5,a5,384
	j	.L448
.L358:
	li	a5,-20480
	addi	a5,a5,768
	beq	a0,a5,.L399
	li	a5,-20480
	addi	a5,a5,769
	bge	a0,a5,.L360
	li	a5,-20480
	addi	a5,a5,640
.L444:
	beq	a0,a5,.L389
.LVL317:
.L428:
.LM1080:
	li	a0,-132
	ret
.LVL318:
.L360:
.LM1081:
	li	a5,-20480
	addi	a5,a5,896
	beq	a0,a5,.L415
	li	a5,-20480
	addi	a5,a5,1024
	bne	a0,a5,.L428
.LVL319:
.L422:
.LM1082:
	li	a0,-149
	ret
.LVL320:
.L348:
.LM1083:
	li	a5,-16384
	addi	a5,a5,-384
	beq	a0,a5,.L418
	li	a5,-16384
	addi	a5,a5,-383
	bge	a0,a5,.L361
	li	a5,-16384
	addi	a5,a5,-768
	beq	a0,a5,.L426
	li	a5,-16384
	addi	a5,a5,-767
	bge	a0,a5,.L362
	li	a5,-16384
	addi	a5,a5,-1024
	beq	a0,a5,.L424
	li	a5,-16384
	addi	a5,a5,-896
	beq	a0,a5,.L422
	li	a5,-16384
	addi	a5,a5,-1152
	bne	a0,a5,.L428
.L399:
.LM1084:
	li	a0,-148
.LVL321:
.LM1085:
	ret
.LVL322:
.L362:
.LM1086:
	li	a5,-16384
	addi	a5,a5,-640
	beq	a0,a5,.L426
	li	a5,-16384
	addi	a5,a5,-512
	j	.L446
.L361:
	li	a5,-16384
	addi	a5,a5,-256
	beq	a0,a5,.L410
	blt	a0,a5,.L428
	li	a5,-16384
	addi	a5,a5,256
	beq	a0,a5,.L415
	li	a5,-16384
	addi	a5,a5,257
	bge	a0,a5,.L363
	li	a5,-16384
	addi	a5,a5,-128
	beq	a0,a5,.L415
	li	a5,-16384
	addi	a5,a5,128
	j	.L444
.L363:
	li	a5,-16384
	addi	a5,a5,768
	beq	a0,a5,.L415
	li	a5,-16384
	addi	a5,a5,769
	bge	a0,a5,.L364
	li	a5,16384
	addi	a5,a5,-384
	add	a5,a0,a5
	andi	a5,a5,-257
.LM1087:
	snez	a5,a5
	neg	a5,a5
	j	.L441
.L364:
.LM1088:
	li	a5,-16384
	addi	a5,a5,896
	j	.L448
.LVL323:
.L368:
.LM1089:
	li	a5,-16384
	addi	a5,a5,1792
	beq	a0,a5,.L422
	li	a5,-16384
	addi	a5,a5,1793
	bge	a0,a5,.L369
	li	a5,-16384
	andi	a4,a0,-129
	addi	a5,a5,1536
.LM1090:
	li	a0,-132
.LM1091:
	bne	a4,a5,.L347
.L429:
	li	a0,-134
.L347:
.LM1092:
	ret
.L369:
.LM1093:
	li	a5,-16384
	addi	a5,a5,1920
	beq	a0,a5,.L424
	li	a5,-114
	j	.L448
.L367:
	li	a5,-110
	beq	a0,a5,.L426
	addi	a4,a0,108
	li	a5,12
.LM1094:
	li	a0,-132
.LM1095:
	bleu	a4,a5,.L434
	ret
.L365:
	bgt	a0,zero,.L428
	li	a5,-14
	bge	a0,a5,.L371
	li	a5,-50
	beq	a0,a5,.L429
	addi	a5,a0,34
	li	a4,19
.LM1096:
	li	a0,-132
.LM1097:
	bleu	a5,a4,.L435
	ret
.LVL324:
.L374:
.LM1098:
	li	a0,-248
.LVL325:
.LM1099:
	ret
.LVL326:
.L410:
.LM1100:
	li	a0,-150
.LVL327:
.LM1101:
	ret
.L418:
.LM1102:
	li	a0,-147
	ret
.L420:
.LM1103:
	li	a0,-133
	ret
.L426:
.LM1104:
	li	a0,-151
	ret
	.cfi_endproc
.LFE174:
	.size	mbedtls_to_psa_error, .-mbedtls_to_psa_error
	.section	.text.psa_generate_random_internal,"ax",@progbits
	.align	1
	.type	psa_generate_random_internal, @function
psa_generate_random_internal:
.LVL328:
.LFB260:
.LM1105:
	.cfi_startproc
.LM1106:
.LBB400:
.LBI400:
.LM1107:
.LBB401:
.LM1108:
.LM1109:
.LM1110:
.LM1111:
	lui	a5,%hi(global_data)
	lhu	a4,%lo(global_data)(a5)
.LM1112:
	li	a5,519
	bne	a4,a5,.L457
.LBE401:
.LBE400:
.LM1113:
	addi	sp,sp,-48
	.cfi_def_cfa_offset 48
.LBB402:
.LBB403:
.LBB404:
.LM1114:
	lui	a5,%hi(global_data+432)
.LBE404:
.LBE403:
.LBE402:
.LM1115:
	sw	s0,40(sp)
	sw	s1,36(sp)
	sw	s2,32(sp)
	sw	s3,28(sp)
	sw	ra,44(sp)
	.cfi_offset 8, -8
	.cfi_offset 9, -12
	.cfi_offset 18, -16
	.cfi_offset 19, -20
	.cfi_offset 1, -4
	mv	s1,a0
	mv	s0,a1
.LBB412:
.LBB408:
.LBB405:
.LM1116:
	li	s2,1024
.LM1117:
	addi	s3,a5,%lo(global_data+432)
.LVL329:
.L451:
.LM1118:
.LBE405:
.LM1119:
	bne	s0,zero,.L455
.LBE408:
.LBE412:
.LM1120:
	lw	ra,44(sp)
	.cfi_restore 1
	lw	s0,40(sp)
	.cfi_restore 8
.LVL330:
.LM1121:
	lw	s1,36(sp)
	.cfi_restore 9
.LVL331:
.LM1122:
	lw	s2,32(sp)
	.cfi_restore 18
	lw	s3,28(sp)
	.cfi_restore 19
.LBB413:
.LBB409:
.LM1123:
	li	a0,0
.LVL332:
.LM1124:
.LBE409:
.LBE413:
.LM1125:
	addi	sp,sp,48
	.cfi_def_cfa_offset 0
	jr	ra
.LVL333:
.L457:
.LM1126:
	li	a0,-137
.LVL334:
.LM1127:
	ret
.LVL335:
.L455:
	.cfi_def_cfa_offset 48
	.cfi_offset 1, -4
	.cfi_offset 8, -8
	.cfi_offset 9, -12
	.cfi_offset 18, -16
	.cfi_offset 19, -20
.LBB414:
.LBB410:
.LBB406:
.LM1128:
.LM1129:
.LM1130:
	mv	a2,s0
	bleu	s0,s2,.L453
.LM1131:
	li	a2,1024
.L453:
.LVL336:
.LM1132:
.LM1133:
	mv	a1,s1
	mv	a0,s3
	sw	a2,12(sp)
	call	mbedtls_ctr_drbg_random
.LVL337:
.LM1134:
.LM1135:
	lw	a2,12(sp)
	beq	a0,zero,.L454
.LM1136:
.LBE406:
.LBE410:
.LBE414:
.LM1137:
	lw	s0,40(sp)
	.cfi_remember_state
	.cfi_restore 8
.LVL338:
.LM1138:
	lw	ra,44(sp)
	.cfi_restore 1
	lw	s1,36(sp)
	.cfi_restore 9
.LVL339:
.LM1139:
	lw	s2,32(sp)
	.cfi_restore 18
	lw	s3,28(sp)
	.cfi_restore 19
	addi	sp,sp,48
	.cfi_def_cfa_offset 0
.LVL340:
.LBB415:
.LBB411:
.LBB407:
.LM1140:
	tail	mbedtls_to_psa_error
.LVL341:
.L454:
	.cfi_restore_state
.LM1141:
.LM1142:
	sub	s0,s0,a2
.LVL342:
.LM1143:
.LM1144:
	add	s1,s1,a2
.LVL343:
.LM1145:
	j	.L451
.LBE407:
.LBE411:
.LBE415:
	.cfi_endproc
.LFE260:
	.size	psa_generate_random_internal, .-psa_generate_random_internal
	.section	.text.psa_validate_unstructured_key_bit_size,"ax",@progbits
	.align	1
	.globl	psa_validate_unstructured_key_bit_size
	.type	psa_validate_unstructured_key_bit_size, @function
psa_validate_unstructured_key_bit_size:
.LVL344:
.LFB176:
.LM1146:
	.cfi_startproc
.LM1147:
	li	a5,8192
	addi	a5,a5,769
	beq	a0,a5,.L463
	bgtu	a0,a5,.L464
	li	a5,8192
	addi	a5,a5,4
	beq	a0,a5,.L465
	li	a4,4096
	addi	a4,a4,517
	li	a5,-134
	bgtu	a0,a4,.L462
	li	a5,4096
	addi	a5,a5,511
	bgtu	a0,a5,.L467
	li	a5,4096
	addi	a5,a5,1
	beq	a0,a5,.L468
	li	a5,4096
	addi	a5,a5,256
	beq	a0,a5,.L468
.LVL345:
.L485:
.LM1148:
	li	a5,-134
.LVL346:
.L462:
.LM1149:
	mv	a0,a5
	ret
.LVL347:
.L467:
.LM1150:
	li	a5,-4096
	addi	a5,a5,-512
	add	a0,a0,a5
.LVL348:
.LM1151:
	li	a5,41
	srl	a5,a5,a0
	andi	a5,a5,1
	beq	a5,zero,.L485
.L468:
.LM1152:
.LM1153:
	andi	a1,a1,7
.LVL349:
.LM1154:
	snez	a1,a1
	neg	a1,a1
	andi	a5,a1,-135
	j	.L462
.LVL350:
.L464:
.LM1155:
	li	a4,8192
	addi	a4,a4,1024
	li	a5,-134
	bne	a0,a4,.L462
.LM1156:
.LM1157:
	andi	a5,a1,-65
	addi	a5,a5,-128
.LM1158:
	addi	a1,a1,-256
.LVL351:
.LM1159:
	bne	a5,zero,.L487
.LVL352:
.L486:
.LM1160:
	li	a5,0
	j	.L462
.LVL353:
.L463:
.LM1161:
.LM1162:
	andi	a5,a1,-129
	addi	a5,a5,-64
.LM1163:
	beq	a5,zero,.L486
.LM1164:
	addi	a1,a1,-128
.LVL354:
.L487:
.LM1165:
	li	a5,-135
.LM1166:
	beq	a1,zero,.L486
	j	.L462
.LVL355:
.L465:
.LM1167:
.LM1168:
	li	a4,256
.LM1169:
	li	a5,-135
.LM1170:
	beq	a1,a4,.L486
	j	.L462
	.cfi_endproc
.LFE176:
	.size	psa_validate_unstructured_key_bit_size, .-psa_validate_unstructured_key_bit_size
	.section	.text.psa_allocate_buffer_to_slot,"ax",@progbits
	.align	1
	.globl	psa_allocate_buffer_to_slot
	.type	psa_allocate_buffer_to_slot, @function
psa_allocate_buffer_to_slot:
.LVL356:
.LFB178:
.LM1171:
	.cfi_startproc
.LM1172:
.LM1173:
	lw	a5,32(a0)
	bne	a5,zero,.L490
.LM1174:
	addi	sp,sp,-16
	.cfi_def_cfa_offset 16
	sw	s0,8(sp)
	.cfi_offset 8, -8
	mv	s0,a0
.LM1175:
.LM1176:
	li	a0,1
.LVL357:
.LM1177:
	sw	s1,4(sp)
	sw	ra,12(sp)
	.cfi_offset 9, -12
	.cfi_offset 1, -4
	mv	s1,a1
.LM1178:
	call	calloc
.LVL358:
.LM1179:
	sw	a0,32(s0)
.LM1180:
.LM1181:
	li	a5,-141
.LM1182:
	beq	a0,zero,.L488
.LM1183:
.LM1184:
	sw	s1,36(s0)
.LM1185:
.LM1186:
	li	a5,0
.L488:
.LM1187:
	lw	ra,12(sp)
	.cfi_restore 1
	lw	s0,8(sp)
	.cfi_restore 8
.LVL359:
.LM1188:
	lw	s1,4(sp)
	.cfi_restore 9
.LVL360:
.LM1189:
	mv	a0,a5
	addi	sp,sp,16
	.cfi_def_cfa_offset 0
	jr	ra
.LVL361:
.L490:
.LM1190:
	li	a5,-139
.LM1191:
	mv	a0,a5
.LVL362:
.LM1192:
	ret
	.cfi_endproc
.LFE178:
	.size	psa_allocate_buffer_to_slot, .-psa_allocate_buffer_to_slot
	.section	.text.psa_copy_key_material_into_slot,"ax",@progbits
	.align	1
	.globl	psa_copy_key_material_into_slot
	.type	psa_copy_key_material_into_slot, @function
psa_copy_key_material_into_slot:
.LVL363:
.LFB179:
.LM1193:
	.cfi_startproc
.LM1194:
.LM1195:
	addi	sp,sp,-32
	.cfi_def_cfa_offset 32
	sw	s2,16(sp)
	.cfi_offset 18, -16
	mv	s2,a1
.LM1196:
	mv	a1,a2
.LVL364:
.LM1197:
	sw	s0,24(sp)
	sw	s1,20(sp)
	sw	ra,28(sp)
	.cfi_offset 8, -8
	.cfi_offset 9, -12
	.cfi_offset 1, -4
.LM1198:
	mv	s1,a0
.LM1199:
	sw	a2,12(sp)
	call	psa_allocate_buffer_to_slot
.LVL365:
.LM1200:
	mv	s0,a0
.LVL366:
.LM1201:
.LM1202:
	bne	a0,zero,.L496
.LM1203:
	lw	a2,12(sp)
	lw	a0,32(s1)
	mv	a1,s2
	call	memcpy
.LVL367:
.LM1204:
.L496:
.LM1205:
	lw	ra,28(sp)
	.cfi_restore 1
	mv	a0,s0
	lw	s0,24(sp)
	.cfi_restore 8
.LVL368:
.LM1206:
	lw	s1,20(sp)
	.cfi_restore 9
.LVL369:
.LM1207:
	lw	s2,16(sp)
	.cfi_restore 18
.LVL370:
.LM1208:
	addi	sp,sp,32
	.cfi_def_cfa_offset 0
.LVL371:
.LM1209:
	jr	ra
	.cfi_endproc
.LFE179:
	.size	psa_copy_key_material_into_slot, .-psa_copy_key_material_into_slot
	.section	.text.psa_import_key_into_slot,"ax",@progbits
	.align	1
	.globl	psa_import_key_into_slot
	.type	psa_import_key_into_slot, @function
psa_import_key_into_slot:
.LVL372:
.LFB180:
.LM1210:
	.cfi_startproc
.LM1211:
.LM1212:
.LM1213:
.LM1214:
	addi	sp,sp,-48
	.cfi_def_cfa_offset 48
	sw	ra,44(sp)
.LVL373:
.LM1215:
	sw	s0,40(sp)
	sw	s1,36(sp)
	sw	s2,32(sp)
	sw	s3,28(sp)
	.cfi_offset 1, -4
	.cfi_offset 8, -8
	.cfi_offset 9, -12
	.cfi_offset 18, -16
	.cfi_offset 19, -20
.LM1216:
	beq	a2,zero,.L509
.LM1217:
	lhu	s2,0(a0)
.LM1218:
	mv	s0,a0
	sw	a6,12(sp)
.LM1219:
	mv	a0,s2
.LVL374:
.LM1220:
	sw	a4,8(sp)
	sw	a3,4(sp)
	sw	a2,0(sp)
	mv	s1,a5
	mv	s3,a1
	call	key_type_is_raw_bytes
.LVL375:
.LM1221:
	lw	a2,0(sp)
	lw	a3,4(sp)
	lw	a4,8(sp)
	lw	a6,12(sp)
	beq	a0,zero,.L501
.LM1222:
.LM1223:
	slli	a1,a2,3
.LM1224:
	sw	a1,0(a6)
.LM1225:
.LM1226:
	lhu	a0,0(s0)
	call	psa_validate_unstructured_key_bit_size
.LVL376:
.LM1227:
	lw	a2,0(sp)
.LM1228:
	mv	s0,a0
.LVL377:
.LM1229:
.LM1230:
	bne	a0,zero,.L499
.LM1231:
	lw	a0,4(sp)
	mv	a1,s3
	call	memcpy
.LVL378:
.LM1232:
.LM1233:
	lw	a2,0(sp)
	sw	a2,0(s1)
.LM1234:
.LM1235:
.LVL379:
.L499:
.LM1236:
	lw	ra,44(sp)
	.cfi_remember_state
	.cfi_restore 1
	mv	a0,s0
	lw	s0,40(sp)
	.cfi_restore 8
	lw	s1,36(sp)
	.cfi_restore 9
	lw	s2,32(sp)
	.cfi_restore 18
	lw	s3,28(sp)
	.cfi_restore 19
	addi	sp,sp,48
	.cfi_def_cfa_offset 0
	jr	ra
.LVL380:
.L501:
	.cfi_restore_state
.LM1237:
.LM1238:
	slli	a5,s2,17
	bge	a5,zero,.L509
.LM1239:
.LM1240:
	li	a5,-12288
	addi	a5,a5,-256
.LM1241:
	li	a1,16384
.LM1242:
	and	a5,s2,a5
.LM1243:
	addi	a1,a1,512
	bne	a5,a1,.L504
.LM1244:
	slli	a0,a2,3
	sw	a6,12(sp)
	sw	a4,8(sp)
	sw	a3,4(sp)
.LM1245:
.LM1246:
	sw	a2,0(sp)
	call	psa_is_dh_key_size_valid
.LVL381:
.LM1247:
	beq	a0,zero,.L509
.LM1248:
.LM1249:
	mv	a0,s0
.LM1250:
	lw	s0,40(sp)
	.cfi_remember_state
	.cfi_restore 8
.LVL382:
.LM1251:
	lw	a6,12(sp)
	lw	a4,8(sp)
	lw	a3,4(sp)
	lw	a2,0(sp)
.LM1252:
	lw	ra,44(sp)
	.cfi_restore 1
	lw	s2,32(sp)
	.cfi_restore 18
.LM1253:
	mv	a5,s1
	mv	a1,s3
.LM1254:
	lw	s1,36(sp)
	.cfi_restore 9
.LVL383:
.LM1255:
	lw	s3,28(sp)
	.cfi_restore 19
.LVL384:
.LM1256:
	addi	sp,sp,48
	.cfi_def_cfa_offset 0
.LVL385:
.LM1257:
	tail	mbedtls_psa_ffdh_import_key
.LVL386:
.L504:
	.cfi_restore_state
.LM1258:
.LM1259:
	li	a1,16384
	addi	a1,a1,256
	bne	a5,a1,.L505
.LM1260:
.LM1261:
	mv	a0,s0
.LM1262:
	lw	s0,40(sp)
	.cfi_remember_state
	.cfi_restore 8
.LVL387:
.LM1263:
	lw	ra,44(sp)
	.cfi_restore 1
	lw	s2,32(sp)
	.cfi_restore 18
.LM1264:
	mv	a5,s1
	mv	a1,s3
.LM1265:
	lw	s1,36(sp)
	.cfi_restore 9
.LVL388:
.LM1266:
	lw	s3,28(sp)
	.cfi_restore 19
.LVL389:
.LM1267:
	addi	sp,sp,48
	.cfi_def_cfa_offset 0
.LM1268:
	tail	mbedtls_psa_ecp_import_key
.LVL390:
.L505:
	.cfi_restore_state
.LM1269:
.LM1270:
	li	a5,-12288
	addi	a5,a5,-1
	and	s2,s2,a5
.LM1271:
	li	a5,16384
	addi	a5,a5,1
	bne	s2,a5,.L509
.LM1272:
.LM1273:
	mv	a0,s0
.LM1274:
	lw	s0,40(sp)
	.cfi_remember_state
	.cfi_restore 8
.LVL391:
.LM1275:
	lw	ra,44(sp)
	.cfi_restore 1
	lw	s2,32(sp)
	.cfi_restore 18
.LM1276:
	mv	a5,s1
	mv	a1,s3
.LM1277:
	lw	s1,36(sp)
	.cfi_restore 9
.LVL392:
.LM1278:
	lw	s3,28(sp)
	.cfi_restore 19
.LVL393:
.LM1279:
	addi	sp,sp,48
	.cfi_def_cfa_offset 0
.LM1280:
	tail	mbedtls_psa_rsa_import_key
.LVL394:
.L509:
	.cfi_restore_state
.LM1281:
	li	s0,-134
	j	.L499
	.cfi_endproc
.LFE180:
	.size	psa_import_key_into_slot, .-psa_import_key_into_slot
	.section	.text.psa_remove_key_data_from_memory,"ax",@progbits
	.align	1
	.globl	psa_remove_key_data_from_memory
	.type	psa_remove_key_data_from_memory, @function
psa_remove_key_data_from_memory:
.LVL395:
.LFB187:
.LM1282:
	.cfi_startproc
.LM1283:
.LM1284:
	addi	sp,sp,-16
	.cfi_def_cfa_offset 16
	sw	s0,8(sp)
	sw	ra,12(sp)
	.cfi_offset 8, -8
	.cfi_offset 1, -4
.LM1285:
	mv	s0,a0
.LM1286:
	lw	a0,32(a0)
.LVL396:
.LM1287:
	beq	a0,zero,.L512
.LM1288:
	lw	a1,36(s0)
	call	mbedtls_zeroize_and_free
.LVL397:
.L512:
.LM1289:
.LM1290:
	sw	zero,32(s0)
.LM1291:
.LM1292:
	sw	zero,36(s0)
.LM1293:
.LM1294:
	lw	ra,12(sp)
	.cfi_restore 1
	lw	s0,8(sp)
	.cfi_restore 8
.LVL398:
.LM1295:
	li	a0,0
	addi	sp,sp,16
	.cfi_def_cfa_offset 0
	jr	ra
	.cfi_endproc
.LFE187:
	.size	psa_remove_key_data_from_memory, .-psa_remove_key_data_from_memory
	.section	.text.psa_wipe_key_slot,"ax",@progbits
	.align	1
	.globl	psa_wipe_key_slot
	.type	psa_wipe_key_slot, @function
psa_wipe_key_slot:
.LVL399:
.LFB188:
.LM1296:
	.cfi_startproc
.LM1297:
.LM1298:
	addi	sp,sp,-16
	.cfi_def_cfa_offset 16
	sw	s1,4(sp)
	sw	ra,12(sp)
	.cfi_offset 9, -12
	.cfi_offset 1, -4
	mv	s1,a0
	sw	s0,8(sp)
	.cfi_offset 8, -8
.LM1299:
	call	psa_remove_key_data_from_memory
.LVL400:
.LM1300:
.LM1301:
	lbu	a5,24(s1)
.LM1302:
	li	a4,1
	beq	a5,a4,.L518
	addi	a5,a5,-2
	andi	a5,a5,0xff
	li	s0,-151
	bgtu	a5,a4,.L519
.LM1303:
.LM1304:
	lw	a5,28(s1)
	bne	a5,a4,.L519
.LM1305:
	li	s0,0
.L519:
.LVL401:
.LM1306:
	mv	a0,s1
	li	a2,40
	li	a1,0
	call	memset
.LVL402:
.LM1307:
.LM1308:
	lw	ra,12(sp)
	.cfi_remember_state
	.cfi_restore 1
	mv	a0,s0
	lw	s0,8(sp)
	.cfi_restore 8
.LVL403:
.LM1309:
	lw	s1,4(sp)
	.cfi_restore 9
.LVL404:
.LM1310:
	addi	sp,sp,16
	.cfi_def_cfa_offset 0
	jr	ra
.LVL405:
.L518:
	.cfi_restore_state
.LM1311:
.LM1312:
	lw	s0,28(s1)
.LM1313:
	snez	s0,s0
	neg	s0,s0
	andi	s0,s0,-151
	j	.L519
	.cfi_endproc
.LFE188:
	.size	psa_wipe_key_slot, .-psa_wipe_key_slot
	.section	.text.psa_destroy_key,"ax",@progbits
	.align	1
	.globl	psa_destroy_key
	.type	psa_destroy_key, @function
psa_destroy_key:
.LVL406:
.LFB189:
.LM1314:
	.cfi_startproc
.LM1315:
.LM1316:
.LM1317:
.LM1318:
.LM1319:
	beq	a0,zero,.L531
.LM1320:
.LM1321:
	addi	sp,sp,-32
	.cfi_def_cfa_offset 32
.LM1322:
	addi	a1,sp,12
.LM1323:
	sw	ra,28(sp)
	sw	s0,24(sp)
	.cfi_offset 1, -4
	.cfi_offset 8, -8
.LM1324:
	call	psa_get_and_lock_key_slot
.LVL407:
.LM1325:
.LM1326:
	bne	a0,zero,.L524
.LM1327:
.LM1328:
	lw	a0,12(sp)
.LVL408:
.LBB416:
.LBI416:
.LM1329:
.LBB417:
.LM1330:
.LM1331:
	li	a5,2
.LBE417:
.LBE416:
.LM1332:
	li	s0,-151
.LBB420:
.LBB418:
.LM1333:
	lbu	a4,24(a0)
	bne	a4,a5,.L526
.LM1334:
.LBE418:
.LBE420:
.LM1335:
	lbu	a4,4(a0)
.LBB421:
.LBB419:
.LM1336:
	li	a5,3
	sb	a5,24(a0)
.LM1337:
.LVL409:
.LM1338:
.LBE419:
.LBE421:
.LM1339:
.LM1340:
.LM1341:
	li	a5,255
.LM1342:
	li	s0,-133
.LM1343:
	beq	a4,a5,.L526
.LM1344:
	li	s0,0
.L526:
.LVL410:
.LM1345:
.LM1346:
	call	psa_unregister_read
.LVL411:
.LM1347:
.LM1348:
	bne	a0,zero,.L524
	mv	a0,s0
.LVL412:
.L524:
.LM1349:
	lw	ra,28(sp)
	.cfi_restore 1
	lw	s0,24(sp)
	.cfi_restore 8
	addi	sp,sp,32
	.cfi_def_cfa_offset 0
	jr	ra
.LVL413:
.L531:
.LM1350:
	ret
	.cfi_endproc
.LFE189:
	.size	psa_destroy_key, .-psa_destroy_key
	.section	.text.psa_get_key_attributes,"ax",@progbits
	.align	1
	.globl	psa_get_key_attributes
	.type	psa_get_key_attributes, @function
psa_get_key_attributes:
.LVL414:
.LFB190:
.LM1351:
	.cfi_startproc
.LM1352:
.LM1353:
.LM1354:
.LM1355:
	addi	sp,sp,-48
	.cfi_def_cfa_offset 48
	sw	s1,36(sp)
	.cfi_offset 9, -12
	mv	s1,a0
.LM1356:
	mv	a0,a1
.LVL415:
.LM1357:
	sw	s0,40(sp)
	sw	ra,44(sp)
	.cfi_offset 8, -8
	.cfi_offset 1, -4
.LM1358:
	mv	s0,a1
.LM1359:
	call	psa_reset_key_attributes
.LVL416:
.LM1360:
.LM1361:
	li	a3,0
	li	a2,0
	addi	a1,sp,28
	mv	a0,s1
	call	psa_get_and_lock_key_slot_with_policy
.LVL417:
.LM1362:
.LM1363:
	bne	a0,zero,.L534
.LM1364:
.LM1365:
	lw	a1,28(sp)
.LM1366:
	li	a2,24
	mv	a0,s0
.LVL418:
.LM1367:
	sw	a1,12(sp)
	call	memcpy
.LVL419:
.LM1368:
.LM1369:
	lw	a0,12(sp)
	call	psa_unregister_read_under_mutex
.LVL420:
.L534:
.LM1370:
	lw	ra,44(sp)
	.cfi_restore 1
	lw	s0,40(sp)
	.cfi_restore 8
.LVL421:
.LM1371:
	lw	s1,36(sp)
	.cfi_restore 9
.LVL422:
.LM1372:
	addi	sp,sp,48
	.cfi_def_cfa_offset 0
	jr	ra
	.cfi_endproc
.LFE190:
	.size	psa_get_key_attributes, .-psa_get_key_attributes
	.section	.text.psa_export_key_internal,"ax",@progbits
	.align	1
	.globl	psa_export_key_internal
	.type	psa_export_key_internal, @function
psa_export_key_internal:
.LVL423:
.LFB192:
.LM1373:
	.cfi_startproc
.LM1374:
.LM1375:
	addi	sp,sp,-48
	.cfi_def_cfa_offset 48
	sw	s1,36(sp)
	sw	s2,32(sp)
	sw	s3,28(sp)
	sw	s4,24(sp)
	sw	ra,44(sp)
	sw	s0,40(sp)
	.cfi_offset 9, -12
	.cfi_offset 18, -16
	.cfi_offset 19, -20
	.cfi_offset 20, -24
	.cfi_offset 1, -4
	.cfi_offset 8, -8
.LM1376:
	lhu	s0,0(a0)
.LVL424:
.LM1377:
.LM1378:
	sw	a1,12(sp)
	mv	s1,a2
.LM1379:
	mv	a0,s0
.LVL425:
.LM1380:
	mv	s3,a3
	mv	s2,a4
	mv	s4,a5
.LM1381:
	call	key_type_is_raw_bytes
.LVL426:
.LM1382:
	lw	a1,12(sp)
	bne	a0,zero,.L538
.LM1383:
	li	a5,-12288
	addi	a5,a5,-1
.LM1384:
	li	a4,16384
.LM1385:
	and	a5,s0,a5
.LM1386:
	addi	a4,a4,1
	beq	a5,a4,.L538
.LM1387:
	li	a5,-12288
	addi	a5,a5,-256
	and	s0,s0,a5
.LVL427:
.LM1388:
	li	a5,-16384
	addi	a5,a5,-256
	add	s0,s0,a5
	andi	s0,s0,-257
.LM1389:
	li	a0,-134
.LM1390:
	bne	s0,zero,.L537
.L538:
.LM1391:
.LVL428:
.LBB424:
.LBI424:
.LM1392:
.LBB425:
.LM1393:
.LM1394:
	li	a0,-138
.LM1395:
	bgtu	s1,s2,.L537
.LM1396:
	mv	a2,s1
	mv	a0,s3
	call	memcpy
.LVL429:
.LM1397:
	sub	a2,s2,s1
	li	a1,0
	add	a0,s3,s1
	call	memset
.LVL430:
.LM1398:
.LM1399:
	li	a0,0
.LM1400:
	sw	s1,0(s4)
.LM1401:
.LVL431:
.L537:
.LM1402:
.LBE425:
.LBE424:
.LM1403:
	lw	ra,44(sp)
	.cfi_restore 1
	lw	s0,40(sp)
	.cfi_restore 8
	lw	s1,36(sp)
	.cfi_restore 9
.LVL432:
.LM1404:
	lw	s2,32(sp)
	.cfi_restore 18
.LVL433:
.LM1405:
	lw	s3,28(sp)
	.cfi_restore 19
.LVL434:
.LM1406:
	lw	s4,24(sp)
	.cfi_restore 20
.LVL435:
.LM1407:
	addi	sp,sp,48
	.cfi_def_cfa_offset 0
.LVL436:
.LM1408:
	jr	ra
	.cfi_endproc
.LFE192:
	.size	psa_export_key_internal, .-psa_export_key_internal
	.section	.text.psa_export_public_key_internal,"ax",@progbits
	.align	1
	.globl	psa_export_public_key_internal
	.type	psa_export_public_key_internal, @function
psa_export_public_key_internal:
.LVL437:
.LFB194:
.LM1409:
	.cfi_startproc
.LM1410:
.LM1411:
	addi	sp,sp,-32
	.cfi_def_cfa_offset 32
	sw	s0,24(sp)
	sw	s1,20(sp)
	sw	ra,28(sp)
	.cfi_offset 8, -8
	.cfi_offset 9, -12
	.cfi_offset 1, -4
.LM1412:
	lhu	t1,0(a0)
.LVL438:
.LM1413:
.LM1414:
	li	a7,-12288
	addi	a7,a7,-1
.LM1415:
	srai	s0,t1,12
	li	t3,16384
	andi	s0,s0,7
	li	s1,4
.LM1416:
	mv	t2,a0
	mv	t6,a1
	mv	a6,a2
	mv	t4,a3
	mv	t5,a4
	mv	t0,a5
.LM1417:
	and	a7,t1,a7
	addi	t3,t3,1
.LM1418:
	bne	s0,s1,.L544
.LM1419:
	beq	a7,t3,.L545
.LM1420:
	li	a7,-12288
	addi	a7,a7,-256
.LM1421:
	li	a5,-16384
.LVL439:
.LM1422:
	and	a7,t1,a7
.LM1423:
	addi	a5,a5,-256
	add	a7,a7,a5
	andi	a7,a7,-257
.LM1424:
	bne	a7,zero,.L546
.L545:
.LM1425:
.LVL440:
.LBB428:
.LBI428:
.LM1426:
.LBB429:
.LM1427:
.LM1428:
	li	a0,-138
.LVL441:
.LM1429:
	bgtu	a6,t5,.L543
	mv	a1,t6
.LVL442:
.LM1430:
	mv	a2,a6
.LVL443:
.LM1431:
	mv	a0,t4
	mv	s0,a6
	sw	t0,12(sp)
	sw	t5,8(sp)
	sw	t4,4(sp)
	call	memcpy
.LVL444:
.LM1432:
	lw	t5,8(sp)
	lw	t4,4(sp)
	li	a1,0
	sub	a2,t5,s0
	add	a0,t4,s0
	call	memset
.LVL445:
.LM1433:
.LM1434:
	lw	t0,12(sp)
.LM1435:
	li	a0,0
.LM1436:
	sw	s0,0(t0)
.LM1437:
.LVL446:
.L543:
.LM1438:
.LBE429:
.LBE428:
.LM1439:
	lw	ra,28(sp)
	.cfi_remember_state
	.cfi_restore 1
	lw	s0,24(sp)
	.cfi_restore 8
	lw	s1,20(sp)
	.cfi_restore 9
	addi	sp,sp,32
	.cfi_def_cfa_offset 0
	jr	ra
.LVL447:
.L544:
	.cfi_restore_state
.LM1440:
.LM1441:
	bne	a7,t3,.L546
.LM1442:
.LM1443:
	lw	s0,24(sp)
	.cfi_remember_state
	.cfi_restore 8
	lw	ra,28(sp)
	.cfi_restore 1
	lw	s1,20(sp)
	.cfi_restore 9
	addi	sp,sp,32
	.cfi_def_cfa_offset 0
.LM1444:
	tail	mbedtls_psa_rsa_export_public_key
.LVL448:
.L546:
	.cfi_restore_state
.LM1445:
.LM1446:
	li	a5,-12288
	addi	a5,a5,-256
	and	t1,t1,a5
.LVL449:
.LM1447:
	li	a5,16384
	addi	a5,a5,256
	bne	t1,a5,.L548
.LM1448:
.LM1449:
	lw	s0,24(sp)
	.cfi_remember_state
	.cfi_restore 8
	lw	ra,28(sp)
	.cfi_restore 1
	lw	s1,20(sp)
	.cfi_restore 9
.LM1450:
	mv	a5,t0
.LM1451:
.LM1452:
	mv	a4,t5
.LVL450:
.LM1453:
	mv	a3,t4
.LVL451:
.LM1454:
	mv	a2,a6
.LVL452:
.LM1455:
	mv	a1,t6
.LVL453:
.LM1456:
	mv	a0,t2
.LM1457:
	addi	sp,sp,32
	.cfi_def_cfa_offset 0
.LM1458:
	tail	mbedtls_psa_ecp_export_public_key
.LVL454:
.L548:
	.cfi_restore_state
.LM1459:
.LM1460:
	li	a5,16384
	addi	a5,a5,512
	bne	t1,a5,.L550
.LM1461:
.LM1462:
	lw	s0,24(sp)
	.cfi_remember_state
	.cfi_restore 8
	lw	ra,28(sp)
	.cfi_restore 1
	lw	s1,20(sp)
	.cfi_restore 9
.LM1463:
	mv	a5,t0
.LM1464:
.LM1465:
	mv	a4,t5
.LVL455:
.LM1466:
	mv	a3,t4
.LVL456:
.LM1467:
	mv	a2,a6
.LVL457:
.LM1468:
	mv	a1,t6
.LVL458:
.LM1469:
	mv	a0,t2
.LM1470:
	addi	sp,sp,32
	.cfi_def_cfa_offset 0
.LM1471:
	tail	mbedtls_psa_ffdh_export_public_key
.LVL459:
.L550:
	.cfi_restore_state
.LM1472:
	li	a0,-134
	j	.L543
	.cfi_endproc
.LFE194:
	.size	psa_export_public_key_internal, .-psa_export_public_key_internal
	.section	.text.psa_copy_key,"ax",@progbits
	.align	1
	.globl	psa_copy_key
	.type	psa_copy_key, @function
psa_copy_key:
.LVL460:
.LFB203:
.LM1473:
	.cfi_startproc
.LM1474:
.LM1475:
.LM1476:
.LM1477:
	addi	sp,sp,-96
	.cfi_def_cfa_offset 96
	sw	s0,88(sp)
	sw	s1,84(sp)
	.cfi_offset 8, -8
	.cfi_offset 9, -12
	mv	s0,a0
	mv	s1,a2
.LM1478:
	addi	a0,sp,40
.LVL461:
.LM1479:
	li	a2,24
.LVL462:
.LM1480:
	sw	ra,92(sp)
	sw	s2,80(sp)
	sw	s3,76(sp)
	.cfi_offset 1, -4
	.cfi_offset 18, -16
	.cfi_offset 19, -20
.LM1481:
	mv	s2,a1
.LM1482:
	sw	zero,24(sp)
.LM1483:
.LM1484:
	sw	zero,28(sp)
.LM1485:
.LM1486:
	call	memcpy
.LVL463:
.LM1487:
.LM1488:
	mv	a0,s0
.LM1489:
	sw	zero,0(s1)
.LM1490:
	li	a3,0
	li	a2,2
	addi	a1,sp,24
.LM1491:
	sw	zero,32(sp)
.LM1492:
.LM1493:
	sw	zero,36(sp)
.LM1494:
.LM1495:
.LM1496:
	call	psa_get_and_lock_key_slot_with_policy
.LVL464:
	mv	s0,a0
.LVL465:
.LM1497:
.LM1498:
	bne	a0,zero,.L553
.LM1499:
.LBB442:
.LBB443:
.LM1500:
	lhu	a5,0(s2)
.LBE443:
.LBE442:
.LM1501:
	lw	s0,24(sp)
.LVL466:
.LBB445:
.LBI442:
.LM1502:
.LBB444:
.LM1503:
.LM1504:
	beq	a5,zero,.L554
.LM1505:
.LM1506:
	lhu	a4,0(s0)
	bne	a4,a5,.L555
.L554:
.LM1507:
.LM1508:
	lhu	a4,2(s2)
.LM1509:
	lhu	a5,2(s0)
.LM1510:
	beq	a4,zero,.L556
.LM1511:
.LM1512:
	bne	a4,a5,.L555
.L556:
.LVL467:
.LM1513:
.LBE444:
.LBE445:
.LM1514:
.LM1515:
	sh	a5,42(sp)
.LM1516:
.LM1517:
	lhu	s2,0(s0)
.LVL468:
.LBB446:
.LBB447:
.LM1518:
	lw	a2,12(s0)
.LM1519:
	lw	a1,52(sp)
	mv	a0,s2
	sw	a2,12(sp)
.LBE447:
.LBE446:
.LM1520:
	sh	s2,40(sp)
.LM1521:
.LVL469:
.LBB451:
.LBI446:
.LM1522:
.LBB448:
.LM1523:
.LM1524:
	call	psa_key_policy_algorithm_intersection
.LVL470:
.LM1525:
	lw	a1,52(sp)
.LM1526:
	lw	a2,12(sp)
.LM1527:
	mv	s3,a0
.LVL471:
.LM1528:
.LM1529:
.LM1530:
	snez	a1,a1
.LM1531:
	snez	a2,a2
	and	a1,a1,a2
	beq	a1,zero,.L566
	beq	a0,zero,.L555
.L566:
.LM1532:
	lw	a2,16(s0)
.LM1533:
	lw	a1,56(sp)
	mv	a0,s2
.LVL472:
.LM1534:
	sw	a2,12(sp)
	call	psa_key_policy_algorithm_intersection
.LVL473:
.LM1535:
.LM1536:
	lw	a2,12(sp)
.LM1537:
	lw	a1,56(sp)
.LM1538:
	snez	a2,a2
.LM1539:
	snez	a1,a1
.LM1540:
	and	a2,a2,a1
	beq	a2,zero,.L567
	beq	a0,zero,.L555
.L567:
.LM1541:
.LM1542:
	lw	a4,8(s0)
	lw	a5,48(sp)
.LM1543:
	sw	a0,56(sp)
.LBE448:
.LBE451:
.LM1544:
	addi	a2,sp,32
.LBB452:
.LBB449:
.LM1545:
	and	a5,a5,a4
.LBE449:
.LBE452:
.LM1546:
	addi	a1,sp,28
	addi	a0,sp,40
.LBB453:
.LBB450:
.LM1547:
	sw	a5,48(sp)
.LM1548:
.LM1549:
	sw	s3,52(sp)
.LM1550:
.LM1551:
.LVL474:
.LM1552:
.LBE450:
.LBE453:
.LM1553:
.LM1554:
.LM1555:
	call	psa_start_key_creation.isra.0
.LVL475:
	mv	s0,a0
.LVL476:
.LM1556:
.LM1557:
	bne	a0,zero,.L553
.LM1558:
	lw	a0,28(sp)
.LM1559:
.LM1560:
	lw	a5,24(sp)
.LM1561:
	lw	a3,4(a0)
.LM1562:
	lw	a4,4(a5)
.LM1563:
	srli	a3,a3,8
.LM1564:
	srli	a4,a4,8
.LM1565:
	bne	a3,a4,.L565
.LM1566:
.LVL477:
.LBB454:
.LBI454:
.LM1567:
.LBB455:
.LM1568:
.LM1569:
	lw	a4,44(sp)
	srli	a4,a4,8
.LBE455:
.LBE454:
.LM1570:
	beq	a4,zero,.L560
.LM1571:
.LM1572:
	addi	a1,sp,36
	addi	a0,sp,40
	call	psa_driver_wrapper_get_key_buffer_size
.LVL478:
	mv	s0,a0
.LVL479:
.LM1573:
.LM1574:
	bne	a0,zero,.L553
.LM1575:
.LM1576:
	lw	a1,36(sp)
	lw	a0,28(sp)
	call	psa_allocate_buffer_to_slot
.LVL480:
	mv	s0,a0
.LVL481:
.LM1577:
.LM1578:
	bne	a0,zero,.L553
.LVL482:
.L555:
.LM1579:
	li	s0,-135
	j	.L553
.LVL483:
.L560:
.LM1580:
.LM1581:
	lw	a2,36(a5)
	lw	a1,32(a5)
	call	psa_copy_key_material_into_slot
.LVL484:
	mv	s0,a0
.LVL485:
.LM1582:
.LM1583:
	bne	a0,zero,.L553
.LM1584:
	lw	a5,28(sp)
.LM1585:
.LVL486:
.LBB456:
.LBI456:
.LM1586:
.LBB457:
.LM1587:
.LM1588:
.LM1589:
.LM1590:
.LM1591:
.LM1592:
	lw	a4,20(a5)
.LM1593:
	sw	a4,0(s1)
.LM1594:
.LVL487:
.LBB458:
.LBI458:
.LM1595:
.LBB459:
.LM1596:
.LM1597:
	lbu	a3,24(a5)
	li	a4,1
	beq	a3,a4,.L561
.LVL488:
.LM1598:
.LBE459:
.LBE458:
.LM1599:
.LM1600:
.LM1601:
	sw	zero,0(s1)
.LM1602:
.LVL489:
.LM1603:
.LBE457:
.LBE456:
.LM1604:
.LM1605:
	li	s0,-151
.LVL490:
.L553:
.LM1606:
	lw	a0,28(sp)
.LVL491:
.LBB463:
.LBI463:
.LM1607:
.LBB464:
.LM1608:
.LM1609:
.LM1610:
	beq	a0,zero,.L562
.LM1611:
	call	psa_wipe_key_slot
.LVL492:
.LM1612:
	j	.L562
.LVL493:
.L561:
.LM1613:
.LBE464:
.LBE463:
.LBB465:
.LBB462:
.LBB461:
.LBB460:
.LM1614:
.LM1615:
	li	a4,2
	sb	a4,24(a5)
.LM1616:
.LVL494:
.LM1617:
.LBE460:
.LBE461:
.LM1618:
.LM1619:
.LM1620:
.LBE462:
.LBE465:
.LM1621:
.L562:
.LM1622:
.LM1623:
	lw	a0,24(sp)
	call	psa_unregister_read_under_mutex
.LVL495:
.LM1624:
.LM1625:
	bne	s0,zero,.L552
.LM1626:
	mv	s0,a0
.L552:
.LM1627:
	lw	ra,92(sp)
	.cfi_remember_state
	.cfi_restore 1
	mv	a0,s0
.LVL496:
.LM1628:
	lw	s0,88(sp)
	.cfi_restore 8
	lw	s1,84(sp)
	.cfi_restore 9
.LVL497:
.LM1629:
	lw	s2,80(sp)
	.cfi_restore 18
	lw	s3,76(sp)
	.cfi_restore 19
	addi	sp,sp,96
	.cfi_def_cfa_offset 0
	jr	ra
.LVL498:
.L565:
	.cfi_restore_state
.LM1630:
	li	s0,-134
.LVL499:
.LM1631:
	j	.L553
	.cfi_endproc
.LFE203:
	.size	psa_copy_key, .-psa_copy_key
	.section	.text.psa_hash_abort,"ax",@progbits
	.align	1
	.globl	psa_hash_abort
	.type	psa_hash_abort, @function
psa_hash_abort:
.LVL500:
.LFB205:
.LM1632:
	.cfi_startproc
.LM1633:
.LM1634:
	lw	a5,0(a0)
.LM1635:
	beq	a5,zero,.L587
.LM1636:
	addi	sp,sp,-16
	.cfi_def_cfa_offset 16
	sw	s0,8(sp)
	sw	ra,12(sp)
	.cfi_offset 8, -8
	.cfi_offset 1, -4
.LBB470:
.LBB471:
.LBB472:
.LBB473:
.LM1637:
	li	a4,1
	mv	s0,a0
.LVL501:
.LM1638:
.LBE473:
.LBE472:
.LBE471:
.LBI470:
.LM1639:
.LBB476:
.LM1640:
.LBB475:
.LBI472:
.LM1641:
.LBB474:
.LM1642:
.LM1643:
	li	a0,-137
.LVL502:
.LM1644:
	bne	a5,a4,.L586
.LM1645:
.LM1646:
	addi	a0,s0,8
	call	mbedtls_psa_hash_abort
.LVL503:
.L586:
.LM1647:
.LBE474:
.LBE475:
.LM1648:
.LM1649:
	sw	zero,0(s0)
.LM1650:
.LVL504:
.LM1651:
.LBE476:
.LBE470:
.LM1652:
	lw	ra,12(sp)
	.cfi_restore 1
	lw	s0,8(sp)
	.cfi_restore 8
.LVL505:
.LM1653:
	addi	sp,sp,16
	.cfi_def_cfa_offset 0
	jr	ra
.LVL506:
.L587:
.LM1654:
	li	a0,0
.LVL507:
.LM1655:
	ret
	.cfi_endproc
.LFE205:
	.size	psa_hash_abort, .-psa_hash_abort
	.section	.text.psa_hash_setup,"ax",@progbits
	.align	1
	.globl	psa_hash_setup
	.type	psa_hash_setup, @function
psa_hash_setup:
.LVL508:
.LFB206:
.LM1656:
	.cfi_startproc
.LM1657:
.LM1658:
.LM1659:
	addi	sp,sp,-16
	.cfi_def_cfa_offset 16
	sw	s1,4(sp)
	sw	ra,12(sp)
	sw	s0,8(sp)
	sw	s2,0(sp)
	.cfi_offset 9, -12
	.cfi_offset 1, -4
	.cfi_offset 8, -8
	.cfi_offset 18, -16
.LM1660:
	lw	a5,0(a0)
.LM1661:
	mv	s1,a0
.LM1662:
	bne	a5,zero,.L596
.LM1663:
	srai	a5,a1,24
	andi	a5,a5,127
	li	a4,2
	mv	s2,a1
.LM1664:
.LM1665:
	li	s0,-135
.LM1666:
	bne	a5,a4,.L594
.LM1667:
.LM1668:
	addi	s0,a0,8
.LM1669:
	li	a2,224
	li	a1,0
.LVL509:
.LM1670:
	mv	a0,s0
.LVL510:
.LM1671:
	call	memset
.LVL511:
.LM1672:
.LBB479:
.LBI479:
.LM1673:
.LBB480:
.LM1674:
.LM1675:
.LM1676:
	mv	a0,s0
	mv	a1,s2
	call	mbedtls_psa_hash_setup
.LVL512:
	mv	s0,a0
.LVL513:
.LM1677:
.LM1678:
	bne	a0,zero,.L594
.LM1679:
.LM1680:
	li	a5,1
	sw	a5,0(s1)
.LM1681:
.LVL514:
.LM1682:
.LBE480:
.LBE479:
.LM1683:
.L593:
.LM1684:
	lw	ra,12(sp)
	.cfi_remember_state
	.cfi_restore 1
	mv	a0,s0
	lw	s0,8(sp)
	.cfi_restore 8
	lw	s1,4(sp)
	.cfi_restore 9
.LVL515:
.LM1685:
	lw	s2,0(sp)
	.cfi_restore 18
	addi	sp,sp,16
	.cfi_def_cfa_offset 0
	jr	ra
.LVL516:
.L596:
	.cfi_restore_state
.LM1686:
	li	s0,-137
.LVL517:
.L594:
.LM1687:
	mv	a0,s1
	call	psa_hash_abort
.LVL518:
.LM1688:
.LM1689:
	j	.L593
	.cfi_endproc
.LFE206:
	.size	psa_hash_setup, .-psa_hash_setup
	.section	.text.psa_key_derivation_setup_kdf,"ax",@progbits
	.align	1
	.type	psa_key_derivation_setup_kdf, @function
psa_key_derivation_setup_kdf:
.LVL519:
.LFB313:
.LM1690:
	.cfi_startproc
.LM1691:
.LM1692:
	addi	sp,sp,-272
	.cfi_def_cfa_offset 272
	sw	s0,264(sp)
	sw	s3,252(sp)
	.cfi_offset 8, -8
	.cfi_offset 19, -20
	mv	s0,a1
.LM1693:
	li	a2,544
.LM1694:
	mv	s3,a0
.LM1695:
	li	a1,0
.LVL520:
.LM1696:
	addi	a0,a0,16
.LVL521:
.LM1697:
	sw	s2,256(sp)
	sw	ra,268(sp)
	sw	s1,260(sp)
	sw	s4,248(sp)
	.cfi_offset 18, -16
	.cfi_offset 1, -4
	.cfi_offset 9, -12
	.cfi_offset 20, -24
.LM1698:
	call	memset
.LVL522:
.LM1699:
.LBB487:
.LBI487:
.LM1700:
.LBB488:
.LM1701:
.LM1702:
	li	a5,-134217728
.LM1703:
	li	a4,-142606336
.LM1704:
	addi	a5,a5,-1545
.LM1705:
	addi	a4,a4,-512
.LM1706:
	add	a5,s0,a5
.LM1707:
	add	a4,s0,a4
	seqz	a4,a4
.LM1708:
	seqz	a5,a5
.LM1709:
	li	a3,-134217728
	or	a5,a5,a4
	addi	a3,a3,-1024
	andi	a4,s0,-512
.LM1710:
	li	a2,-134217728
.LM1711:
	add	a4,a4,a3
.LM1712:
	addi	a2,a2,-256
	andi	a3,s0,-768
.LM1713:
	seqz	a4,a4
.LM1714:
	add	a3,a3,a2
.LM1715:
	or	a4,a5,a4
.LM1716:
	seqz	a3,a3
.LM1717:
	or	a3,a3,a4
.LM1718:
	li	a4,-134217728
.LM1719:
	andi	s2,s0,-256
.LM1720:
.LM1721:
.LM1722:
.LM1723:
.LM1724:
.LM1725:
.LM1726:
.LM1727:
	addi	a4,a4,-512
	add	a4,s2,a4
	seqz	a4,a4
.LM1728:
	or	a4,a4,a3
	bne	a4,zero,.L601
.LM1729:
	li	a4,-142606336
	addi	a4,a4,-256
	add	a4,s2,a4
.LM1730:
	beq	a4,zero,.L601
.LVL523:
.L602:
.LM1731:
.LBE488:
.LBE487:
.LM1732:
	li	s4,-134
.L600:
.LM1733:
	lw	ra,268(sp)
	.cfi_remember_state
	.cfi_restore 1
	lw	s0,264(sp)
	.cfi_restore 8
	lw	s1,260(sp)
	.cfi_restore 9
	lw	s2,256(sp)
	.cfi_restore 18
	lw	s3,252(sp)
	.cfi_restore 19
.LVL524:
.LM1734:
	mv	a0,s4
	lw	s4,248(sp)
	.cfi_restore 20
	addi	sp,sp,272
	.cfi_def_cfa_offset 0
	jr	ra
.LVL525:
.L601:
	.cfi_restore_state
.LM1735:
.LBB489:
.LBI489:
.LM1736:
.LBB490:
.LM1737:
.LM1738:
	li	a4,134217728
	addi	a4,a4,1545
	bne	s0,a4,.L604
.LM1739:
.LM1740:
	li	a5,32
.LVL526:
.L626:
.LM1741:
	sw	a5,8(s3)
.LM1742:
.L605:
.LM1743:
	li	s4,0
.LVL527:
.LM1744:
	j	.L600
.LVL528:
.L604:
.LM1745:
.LM1746:
	beq	a5,zero,.L606
.LVL529:
.L619:
.LM1747:
.LM1748:
	li	a5,-1
	j	.L626
.LVL530:
.L606:
.LM1749:
.LM1750:
	andi	s0,s0,255
.LVL531:
.LM1751:
	beq	s0,zero,.L602
.LM1752:
	li	a5,33554432
	or	s0,s0,a5
.LVL532:
.LM1753:
	li	a5,-33554432
	addi	a5,a5,-3
	add	a5,s0,a5
	li	a4,16
	bgtu	a5,a4,.L602
	lui	a4,%hi(.L609)
	slli	a5,a5,2
	addi	a4,a4,%lo(.L609)
	add	a5,a5,a4
	lw	a5,0(a5)
	jr	a5
	.section	.rodata.psa_key_derivation_setup_kdf,"a",@progbits
	.align	2
	.align	2
.L609:
	.word	.L614
	.word	.L621
	.word	.L621
	.word	.L602
	.word	.L602
	.word	.L612
	.word	.L611
	.word	.L610
	.word	.L608
	.word	.L612
	.word	.L611
	.word	.L602
	.word	.L602
	.word	.L612
	.word	.L611
	.word	.L610
	.word	.L608
	.section	.text.psa_key_derivation_setup_kdf
.L614:
.LM1754:
	li	s1,16
.L613:
.LM1755:
.LVL533:
.LBB491:
.LBI491:
.LM1756:
.LBB492:
.LM1757:
.LM1758:
	mv	a1,s0
	addi	a0,sp,8
.LM1759:
	sw	zero,8(sp)
	sw	zero,16(sp)
.LM1760:
.LM1761:
	call	psa_hash_setup
.LVL534:
	mv	s4,a0
.LVL535:
.LM1762:
	addi	a0,sp,8
.LVL536:
.LM1763:
	call	psa_hash_abort
.LVL537:
.LM1764:
.LM1765:
.LBE492:
.LBE491:
.LM1766:
.LM1767:
	bne	s4,zero,.L600
.LM1768:
.LM1769:
	li	a5,134217728
	addi	a5,a5,256
	bne	s2,a5,.L615
.L627:
.LM1770:
.LM1771:
	li	a5,255
	mul	s1,s1,a5
	j	.L628
.LVL538:
.L612:
.LM1772:
	li	s1,28
	j	.L613
.L611:
	li	s1,32
	j	.L613
.L610:
	li	s1,48
	j	.L613
.L608:
	li	s1,64
	j	.L613
.L621:
	li	s1,20
	j	.L613
.LVL539:
.L615:
.LM1773:
.LM1774:
	li	a5,134217728
	addi	a5,a5,1024
	bne	s2,a5,.L616
.L628:
.LM1775:
	sw	s1,8(s3)
	j	.L605
.L616:
.LM1776:
.LM1777:
	li	a5,134217728
	addi	a5,a5,1280
	beq	s2,a5,.L627
.LM1778:
.LM1779:
	li	a5,134217728
	addi	a5,a5,512
	bne	s2,a5,.L618
.LM1780:
	li	a5,-33554432
	addi	a5,a5,-9
	add	a5,s0,a5
.LM1781:
	li	a4,1
	bgtu	a5,a4,.L602
	j	.L619
.L618:
.LM1782:
.LM1783:
	li	a5,134217728
	addi	a5,a5,768
	bne	s2,a5,.L620
.LM1784:
	li	a5,-33554432
	addi	a5,a5,-9
	add	s0,s0,a5
.LVL540:
.LM1785:
	li	a5,1
	bgtu	s0,a5,.L602
.LM1786:
.LM1787:
	li	a5,48
	j	.L626
.LVL541:
.L620:
.LM1788:
.LM1789:
	li	a5,142606336
	addi	a5,a5,256
	beq	s2,a5,.L619
	j	.L602
.LBE490:
.LBE489:
	.cfi_endproc
.LFE313:
	.size	psa_key_derivation_setup_kdf, .-psa_key_derivation_setup_kdf
	.section	.text.psa_hash_clone,"ax",@progbits
	.align	1
	.globl	psa_hash_clone
	.type	psa_hash_clone, @function
psa_hash_clone:
.LVL542:
.LFB213:
.LM1790:
	.cfi_startproc
.LM1791:
.LM1792:
	addi	sp,sp,-16
	.cfi_def_cfa_offset 16
	sw	s0,8(sp)
	sw	ra,12(sp)
	sw	s1,4(sp)
	sw	s2,0(sp)
	.cfi_offset 8, -8
	.cfi_offset 1, -4
	.cfi_offset 9, -12
	.cfi_offset 18, -16
.LM1793:
	lw	a5,0(a0)
.LM1794:
	li	s0,-137
.LM1795:
	beq	a5,zero,.L629
.LM1796:
	lw	a5,0(a1)
.LM1797:
	li	s0,-137
.LM1798:
	bne	a5,zero,.L629
	mv	s1,a1
	mv	s0,a0
.LM1799:
	li	a2,224
	li	a1,0
.LVL543:
.LM1800:
	addi	a0,s1,8
.LVL544:
.LM1801:
	call	memset
.LVL545:
.LM1802:
.LBB495:
.LBI495:
.LM1803:
.LBB496:
.LM1804:
	lw	a5,0(s0)
	li	a4,1
	bne	a5,a4,.L634
.LM1805:
.LM1806:
	addi	a0,s0,8
.LM1807:
	sw	a5,0(s1)
.LM1808:
.LM1809:
	addi	a1,s1,8
	call	mbedtls_psa_hash_clone
.LVL546:
	mv	s0,a0
.LVL547:
.LM1810:
.LBE496:
.LBE495:
.LM1811:
.LM1812:
	beq	a0,zero,.L629
.LVL548:
.L631:
.LM1813:
	mv	a0,s1
	call	psa_hash_abort
.LVL549:
.L629:
.LM1814:
	lw	ra,12(sp)
	.cfi_remember_state
	.cfi_restore 1
	mv	a0,s0
	lw	s0,8(sp)
	.cfi_restore 8
	lw	s1,4(sp)
	.cfi_restore 9
	lw	s2,0(sp)
	.cfi_restore 18
	addi	sp,sp,16
	.cfi_def_cfa_offset 0
	jr	ra
.LVL550:
.L634:
	.cfi_restore_state
.LBB498:
.LBB497:
.LM1815:
	li	s0,-137
.LVL551:
.LM1816:
	j	.L631
.LBE497:
.LBE498:
	.cfi_endproc
.LFE213:
	.size	psa_hash_clone, .-psa_hash_clone
	.section	.text.psa_mac_abort,"ax",@progbits
	.align	1
	.globl	psa_mac_abort
	.type	psa_mac_abort, @function
psa_mac_abort:
.LVL552:
.LFB214:
.LM1817:
	.cfi_startproc
.LM1818:
.LM1819:
	lw	a5,0(a0)
.LM1820:
	beq	a5,zero,.L642
.LM1821:
	addi	sp,sp,-16
	.cfi_def_cfa_offset 16
	sw	s0,8(sp)
	sw	ra,12(sp)
	.cfi_offset 8, -8
	.cfi_offset 1, -4
.LBB503:
.LBB504:
.LBB505:
.LBB506:
.LM1822:
	li	a4,1
	mv	s0,a0
.LVL553:
.LM1823:
.LBE506:
.LBE505:
.LBE504:
.LBI503:
.LM1824:
.LBB509:
.LM1825:
.LBB508:
.LBI505:
.LM1826:
.LBB507:
.LM1827:
.LM1828:
	li	a0,-135
.LVL554:
.LM1829:
	bne	a5,a4,.L641
.LM1830:
.LM1831:
	addi	a0,s0,8
	call	mbedtls_psa_mac_abort
.LVL555:
.L641:
.LM1832:
.LBE507:
.LBE508:
.LM1833:
.LM1834:
.LM1835:
.LM1836:
	lhu	a5,4(s0)
.LM1837:
	sw	zero,0(s0)
.LM1838:
	andi	a5,a5,-512
	sh	a5,4(s0)
.LM1839:
.LVL556:
.LM1840:
.LBE509:
.LBE503:
.LM1841:
	lw	ra,12(sp)
	.cfi_restore 1
	lw	s0,8(sp)
	.cfi_restore 8
.LVL557:
.LM1842:
	addi	sp,sp,16
	.cfi_def_cfa_offset 0
	jr	ra
.LVL558:
.L642:
.LM1843:
	li	a0,0
.LVL559:
.LM1844:
	ret
	.cfi_endproc
.LFE214:
	.size	psa_mac_abort, .-psa_mac_abort
	.section	.text.psa_mac_setup,"ax",@progbits
	.align	1
	.type	psa_mac_setup, @function
psa_mac_setup:
.LVL560:
.LFB216:
.LM1845:
	.cfi_startproc
.LM1846:
.LM1847:
.LM1848:
.LM1849:
	addi	sp,sp,-48
	.cfi_def_cfa_offset 48
	sw	s0,40(sp)
	sw	s2,32(sp)
	sw	ra,44(sp)
	sw	s1,36(sp)
	sw	s3,28(sp)
	sw	s4,24(sp)
	sw	s5,20(sp)
	.cfi_offset 8, -8
	.cfi_offset 18, -16
	.cfi_offset 1, -4
	.cfi_offset 9, -12
	.cfi_offset 19, -20
	.cfi_offset 20, -24
	.cfi_offset 21, -28
.LM1850:
	lw	a5,0(a0)
.LM1851:
	sw	zero,12(sp)
.LM1852:
.LM1853:
	mv	s2,a0
.LM1854:
	li	s0,-137
.LM1855:
	bne	a5,zero,.L649
	mv	s1,a1
	mv	s4,a2
.LM1856:
	li	a1,0
.LVL561:
.LM1857:
	li	a2,392
.LVL562:
.LM1858:
	addi	a0,a0,8
.LVL563:
.LM1859:
	mv	s3,a3
.LM1860:
	call	memset
.LVL564:
.LM1861:
.LM1862:
	li	a2,1024
.LM1863:
	bne	s3,zero,.L650
.LM1864:
	li	a2,4096
	addi	a2,a2,-2048
.L650:
.LM1865:
	mv	a3,s4
	addi	a1,sp,12
	mv	a0,s1
	call	psa_get_and_lock_key_slot_with_policy
.LVL565:
	mv	s0,a0
.LVL566:
.LM1866:
.LM1867:
	bne	a0,zero,.L649
.LM1868:
.LM1869:
	lw	s0,12(sp)
.LVL567:
.LM1870:
	addi	a2,s2,4
	mv	a0,s4
.LVL568:
.LM1871:
	lhu	a1,0(s0)
	call	psa_mac_finalize_alg_and_key_validation.isra.0
.LVL569:
	mv	s1,a0
.LVL570:
.LM1872:
.LM1873:
	bne	a0,zero,.L657
.LM1874:
.LM1875:
	lbu	a5,5(s2)
	andi	a4,s3,1
	andi	a5,a5,-2
	or	a5,a5,a4
	sb	a5,5(s2)
.LM1876:
.LM1877:
	lw	a2,32(s0)
.LM1878:
	lw	a3,36(s0)
.LM1879:
	beq	s3,zero,.L651
.LM1880:
.LM1881:
	mv	a1,s0
	mv	a4,s4
	mv	a0,s2
	call	psa_driver_wrapper_mac_sign_setup
.LVL571:
	mv	s0,a0
.LDL2:
.LVL572:
.LM1882:
.LM1883:
	beq	a0,zero,.L652
.LVL573:
.L649:
.LM1884:
	mv	a0,s2
	call	psa_mac_abort
.LVL574:
	mv	s1,s0
	j	.L652
.LVL575:
.L651:
.LM1885:
.LBB514:
.LBI514:
.LM1886:
.LBB515:
.LM1887:
.LM1888:
.LBB516:
.LBI516:
.LM1889:
.LBB517:
.LM1890:
.LM1891:
.LBE517:
.LBE516:
.LM1892:
.LM1893:
	lw	a5,4(s0)
	srli	a5,a5,8
.LVL576:
.LM1894:
	bne	a5,zero,.L658
.LM1895:
.LM1896:
	mv	a1,s0
	mv	a4,s4
	addi	a0,s2,8
	call	mbedtls_psa_mac_verify_setup
.LVL577:
.LM1897:
	mv	s0,a0
.LVL578:
.LM1898:
.LM1899:
	bne	a0,zero,.L649
.LM1900:
.LM1901:
	li	a5,1
	sw	a5,0(s2)
.LM1902:
.LVL579:
.LM1903:
.LBE515:
.LBE514:
.LM1904:
.L652:
.LM1905:
.LM1906:
	lw	a0,12(sp)
	call	psa_unregister_read_under_mutex
.LVL580:
.LM1907:
.LM1908:
	bne	s1,zero,.L648
.LM1909:
	mv	s1,a0
.L648:
.LM1910:
	lw	ra,44(sp)
	.cfi_remember_state
	.cfi_restore 1
	lw	s0,40(sp)
	.cfi_restore 8
	lw	s2,32(sp)
	.cfi_restore 18
.LVL581:
.LM1911:
	lw	s3,28(sp)
	.cfi_restore 19
	lw	s4,24(sp)
	.cfi_restore 20
	lw	s5,20(sp)
	.cfi_restore 21
	mv	a0,s1
.LVL582:
.LM1912:
	lw	s1,36(sp)
	.cfi_restore 9
	addi	sp,sp,48
	.cfi_def_cfa_offset 0
	jr	ra
.LVL583:
.L657:
	.cfi_restore_state
.LM1913:
	mv	s0,a0
	j	.L649
.LVL584:
.L658:
.LBB519:
.LBB518:
.LM1914:
	li	s0,-135
.LVL585:
.LM1915:
	j	.L649
.LBE518:
.LBE519:
	.cfi_endproc
.LFE216:
	.size	psa_mac_setup, .-psa_mac_setup
	.section	.text.psa_mac_sign_setup,"ax",@progbits
	.align	1
	.globl	psa_mac_sign_setup
	.type	psa_mac_sign_setup, @function
psa_mac_sign_setup:
.LVL586:
.LFB217:
.LM1916:
	.cfi_startproc
.LM1917:
.LM1918:
	li	a3,1
	tail	psa_mac_setup
.LVL587:
.LM1919:
	.cfi_endproc
.LFE217:
	.size	psa_mac_sign_setup, .-psa_mac_sign_setup
	.section	.text.psa_mac_verify_setup,"ax",@progbits
	.align	1
	.globl	psa_mac_verify_setup
	.type	psa_mac_verify_setup, @function
psa_mac_verify_setup:
.LVL588:
.LFB218:
.LM1920:
	.cfi_startproc
.LM1921:
.LM1922:
	li	a3,0
	tail	psa_mac_setup
.LVL589:
.LM1923:
	.cfi_endproc
.LFE218:
	.size	psa_mac_verify_setup, .-psa_mac_verify_setup
	.section	.text.psa_sign_hash_builtin,"ax",@progbits
	.align	1
	.globl	psa_sign_hash_builtin
	.type	psa_sign_hash_builtin, @function
psa_sign_hash_builtin:
.LVL590:
.LFB232:
.LM1924:
	.cfi_startproc
.LM1925:
.LM1926:
	lhu	t4,0(a0)
.LM1927:
	li	t3,28672
	addi	t3,t3,1
.LM1928:
	lw	t5,0(sp)
	mv	t1,a3
.LM1929:
	bne	t4,t3,.L663
.LM1930:
.LM1931:
	li	t3,-100667392
.LM1932:
	andi	a3,a3,-256
.LVL591:
.LM1933:
	addi	t3,t3,-768
	add	a3,a3,t3
	beq	a3,zero,.L669
.LM1934:
	li	t3,-100663296
	andi	a3,t1,-512
	addi	t3,t3,-512
	add	a3,a3,t3
.LM1935:
	bne	a3,zero,.L668
.L669:
.LM1936:
.LM1937:
	mv	a3,t1
	sw	t5,0(sp)
.LVL592:
.LM1938:
	tail	mbedtls_psa_rsa_sign_hash
.LVL593:
.L663:
.LM1939:
.LM1940:
	srai	t3,t4,8
	andi	t3,t3,207
	li	t5,65
.LVL594:
.LM1941:
	bne	t3,t5,.L667
.LM1942:
.LM1943:
	li	t3,100663296
.LM1944:
	andi	t1,a3,-512
.LVL595:
.LM1945:
	addi	t3,t3,1536
	bne	t1,t3,.L668
.LM1946:
.LM1947:
	tail	mbedtls_psa_ecdsa_sign_hash
.LVL596:
.L667:
.LM1948:
	li	a0,-134
.LVL597:
.LM1949:
	ret
.LVL598:
.L668:
.LM1950:
	li	a0,-135
.LVL599:
.LM1951:
	ret
	.cfi_endproc
.LFE232:
	.size	psa_sign_hash_builtin, .-psa_sign_hash_builtin
	.section	.text.psa_sign_message_builtin,"ax",@progbits
	.align	1
	.globl	psa_sign_message_builtin
	.type	psa_sign_message_builtin, @function
psa_sign_message_builtin:
.LVL600:
.LFB228:
.LM1952:
	.cfi_startproc
.LM1953:
.LM1954:
.LM1955:
	mv	t3,a1
.LM1956:
	li	a1,-100663296
.LVL601:
.LM1957:
	addi	sp,sp,-144
	.cfi_def_cfa_offset 144
	mv	t4,a2
.LM1958:
	addi	a1,a1,-512
	andi	a2,a3,-512
.LVL602:
.LM1959:
	sw	s0,136(sp)
	sw	ra,140(sp)
	sw	s1,132(sp)
	sw	s2,128(sp)
	sw	s3,124(sp)
	.cfi_offset 8, -8
	.cfi_offset 1, -4
	.cfi_offset 9, -12
	.cfi_offset 18, -16
	.cfi_offset 19, -20
.LM1960:
	add	a2,a2,a1
.LM1961:
	mv	s0,a0
.LM1962:
	beq	a2,zero,.L671
.LM1963:
	li	t1,-100667392
	andi	a0,a3,-256
.LVL603:
.LM1964:
	addi	t1,t1,-768
	add	t1,a0,t1
.LM1965:
	beq	t1,zero,.L671
.LM1966:
	li	a2,-100663296
	andi	t1,a3,-1024
	addi	a2,a2,-1024
	add	t1,t1,a2
	beq	t1,zero,.L671
.LM1967:
	li	t1,-100667392
	addi	t1,t1,1792
	add	t1,a0,t1
.LM1968:
	li	a0,-134
.LM1969:
	bne	t1,zero,.L670
.L671:
.LBB527:
.LM1970:
	andi	a0,a3,255
.LM1971:
	beq	a0,zero,.L674
.LM1972:
	li	a2,33554432
	or	a0,a0,a2
.L674:
	mv	a2,a5
	mv	a1,a4
	mv	s3,a3
.LBB528:
.LBB529:
.LM1973:
	addi	a5,sp,44
.LVL604:
.LM1974:
	li	a4,64
.LVL605:
.LM1975:
	addi	a3,sp,48
.LVL606:
.LM1976:
	sw	a7,28(sp)
	sw	a6,24(sp)
	mv	s2,t4
	mv	s1,t3
.LVL607:
.LM1977:
.LBE529:
.LBI528:
.LM1978:
.LBB530:
.LM1979:
.LM1980:
.LM1981:
	call	mbedtls_psa_hash_compute
.LVL608:
.LM1982:
.LM1983:
.LBE530:
.LBE528:
.LM1984:
.LM1985:
	lw	a6,24(sp)
	lw	a7,28(sp)
	bne	a0,zero,.L670
.LM1986:
.LVL609:
.LBB531:
.LBI531:
.LM1987:
.LBB532:
.LM1988:
.LM1989:
.LBB533:
.LBI533:
.LM1990:
.LBB534:
.LM1991:
.LM1992:
.LBE534:
.LBE533:
.LM1993:
.LM1994:
	lw	a5,4(s0)
.LM1995:
	li	a0,-135
.LVL610:
.LM1996:
	srli	a5,a5,8
.LVL611:
.LM1997:
	bne	a5,zero,.L670
.LM1998:
.LM1999:
	lw	a5,144(sp)
.LVL612:
.LM2000:
	addi	a4,sp,48
.LVL613:
.LM2001:
	mv	a3,s3
	sw	a5,0(sp)
.LVL614:
.LM2002:
	lw	a5,44(sp)
	mv	a2,s2
	mv	a1,s1
	mv	a0,s0
	call	psa_sign_hash_builtin
.LVL615:
.L670:
.LM2003:
.LBE532:
.LBE531:
.LBE527:
.LM2004:
	lw	ra,140(sp)
	.cfi_restore 1
	lw	s0,136(sp)
	.cfi_restore 8
.LVL616:
.LM2005:
	lw	s1,132(sp)
	.cfi_restore 9
	lw	s2,128(sp)
	.cfi_restore 18
	lw	s3,124(sp)
	.cfi_restore 19
	addi	sp,sp,144
	.cfi_def_cfa_offset 0
.LVL617:
.LM2006:
	jr	ra
	.cfi_endproc
.LFE228:
	.size	psa_sign_message_builtin, .-psa_sign_message_builtin
	.section	.text.psa_sign_internal,"ax",@progbits
	.align	1
	.type	psa_sign_internal, @function
psa_sign_internal:
.LVL618:
.LFB226:
.LM2007:
	.cfi_startproc
.LM2008:
.LM2009:
.LM2010:
.LM2011:
.LM2012:
	addi	sp,sp,-80
	.cfi_def_cfa_offset 80
	sw	s0,72(sp)
	sw	s1,68(sp)
	sw	s2,64(sp)
	sw	s3,60(sp)
	sw	s4,56(sp)
	sw	s5,52(sp)
	sw	s6,48(sp)
	sw	s7,44(sp)
	sw	s8,40(sp)
	sw	ra,76(sp)
	.cfi_offset 8, -8
	.cfi_offset 9, -12
	.cfi_offset 18, -16
	.cfi_offset 19, -20
	.cfi_offset 20, -24
	.cfi_offset 21, -28
	.cfi_offset 22, -32
	.cfi_offset 23, -36
	.cfi_offset 24, -40
	.cfi_offset 1, -4
.LM2013:
	mv	s2,a1
	mv	s8,a0
.LM2014:
	sw	zero,0(a7)
.LM2015:
.LM2016:
	mv	a1,a2
.LVL619:
.LM2017:
	mv	a0,s2
.LVL620:
.LM2018:
	mv	s3,a2
	mv	s6,a3
	mv	s7,a4
	mv	s5,a5
	mv	s4,a6
	mv	s1,a7
.LM2019:
	call	psa_sign_verify_check_alg
.LVL621:
.LM2020:
	mv	s0,a0
.LVL622:
.LM2021:
.LM2022:
	bne	a0,zero,.L682
.LM2023:
.LM2024:
	li	s0,-138
.LVL623:
.LM2025:
	beq	s4,zero,.L682
.LVL624:
.LBB545:
.LBI545:
.LM2026:
.LBB546:
.LM2027:
.LM2028:
	li	a2,4096
.LM2029:
	beq	s2,zero,.L684
.LM2030:
	li	a2,1024
.L684:
.LM2031:
	mv	a3,s3
	addi	a1,sp,28
	mv	a0,s8
.LVL625:
.LM2032:
	call	psa_get_and_lock_key_slot_with_policy
.LVL626:
	mv	s0,a0
.LVL627:
.LM2033:
.LM2034:
	bne	a0,zero,.L685
.LM2035:
.LM2036:
	lw	a0,28(sp)
.LM2037:
	li	a4,28672
.LM2038:
	li	s0,-135
.LVL628:
.LM2039:
	lhu	a5,0(a0)
	and	a5,a5,a4
	bne	a5,a4,.L685
.LM2040:
.LM2041:
	lw	a1,32(a0)
.LM2042:
	lw	a2,36(a0)
.LM2043:
	beq	s2,zero,.L686
.LM2044:
.LVL629:
.LBB547:
.LBI547:
.LM2045:
.LBB548:
.LM2046:
.LM2047:
.LM2048:
.LM2049:
.LM2050:
.LM2051:
.LM2052:
	sw	s1,0(sp)
.LVL630:
.LM2053:
	mv	a7,s4
	mv	a6,s5
	mv	a5,s7
	mv	a4,s6
	mv	a3,s3
	call	psa_sign_message_builtin
.LVL631:
.L694:
.LM2054:
.LBE548:
.LBE547:
.LBB549:
.LBB550:
.LM2055:
	mv	s0,a0
.L685:
.LVL632:
.LM2056:
.LBE550:
.LBE549:
.LM2057:
	lw	a3,0(s1)
	mv	a0,s5
	mv	a2,s4
	mv	a1,s0
	call	psa_wipe_tag_output_buffer
.LVL633:
.LM2058:
.LM2059:
	lw	a0,28(sp)
	call	psa_unregister_read_under_mutex
.LVL634:
.LM2060:
.LM2061:
	bne	s0,zero,.L682
.LM2062:
	mv	s0,a0
.LVL635:
.L682:
.LM2063:
.LBE546:
.LBE545:
.LM2064:
	lw	ra,76(sp)
	.cfi_remember_state
	.cfi_restore 1
	mv	a0,s0
	lw	s0,72(sp)
	.cfi_restore 8
	lw	s1,68(sp)
	.cfi_restore 9
.LVL636:
.LM2065:
	lw	s2,64(sp)
	.cfi_restore 18
.LVL637:
.LM2066:
	lw	s3,60(sp)
	.cfi_restore 19
.LVL638:
.LM2067:
	lw	s4,56(sp)
	.cfi_restore 20
.LVL639:
.LM2068:
	lw	s5,52(sp)
	.cfi_restore 21
.LVL640:
.LM2069:
	lw	s6,48(sp)
	.cfi_restore 22
.LVL641:
.LM2070:
	lw	s7,44(sp)
	.cfi_restore 23
.LVL642:
.LM2071:
	lw	s8,40(sp)
	.cfi_restore 24
.LVL643:
.LM2072:
	addi	sp,sp,80
	.cfi_def_cfa_offset 0
	jr	ra
.LVL644:
.L686:
	.cfi_restore_state
.LBB556:
.LBB555:
.LM2073:
.LBB554:
.LBI549:
.LM2074:
.LBB553:
.LM2075:
.LM2076:
.LBB551:
.LBI551:
.LM2077:
.LBB552:
.LM2078:
.LM2079:
.LBE552:
.LBE551:
.LM2080:
.LM2081:
	lw	a5,4(a0)
	srli	a5,a5,8
.LVL645:
.LM2082:
	bne	a5,zero,.L685
.LM2083:
.LM2084:
	sw	s1,0(sp)
.LVL646:
.LM2085:
	mv	a7,s4
	mv	a6,s5
	mv	a5,s7
.LVL647:
.LM2086:
	mv	a4,s6
	mv	a3,s3
	call	psa_sign_hash_builtin
.LVL648:
.LM2087:
	j	.L694
.LBE553:
.LBE554:
.LBE555:
.LBE556:
	.cfi_endproc
.LFE226:
	.size	psa_sign_internal, .-psa_sign_internal
	.section	.text.psa_verify_hash_builtin,"ax",@progbits
	.align	1
	.globl	psa_verify_hash_builtin
	.type	psa_verify_hash_builtin, @function
psa_verify_hash_builtin:
.LVL649:
.LFB234:
.LM2088:
	.cfi_startproc
.LM2089:
.LM2090:
	lhu	t5,0(a0)
.LM2091:
	li	t3,-12288
	addi	t3,t3,-1
.LM2092:
	li	t4,16384
.LM2093:
	and	t3,t5,t3
.LM2094:
	addi	t4,t4,1
.LM2095:
	mv	t1,a3
.LM2096:
	bne	t3,t4,.L696
.LM2097:
.LM2098:
	li	t3,-100667392
.LM2099:
	andi	a3,a3,-256
.LVL650:
.LM2100:
	addi	t3,t3,-768
	add	a3,a3,t3
	beq	a3,zero,.L702
.LM2101:
	li	t3,-100663296
	andi	a3,t1,-512
	addi	t3,t3,-512
	add	a3,a3,t3
.LM2102:
	bne	a3,zero,.L701
.L702:
.LM2103:
.LM2104:
	mv	a3,t1
	tail	mbedtls_psa_rsa_verify_hash
.LVL651:
.L696:
.LM2105:
.LM2106:
	srai	t3,t5,8
	andi	t3,t3,207
	li	t4,65
	bne	t3,t4,.L700
.LM2107:
.LM2108:
	li	t3,100663296
.LM2109:
	andi	t1,a3,-512
.LVL652:
.LM2110:
	addi	t3,t3,1536
	bne	t1,t3,.L701
.LM2111:
.LM2112:
	tail	mbedtls_psa_ecdsa_verify_hash
.LVL653:
.L700:
.LM2113:
	li	a0,-134
.LVL654:
.LM2114:
	ret
.LVL655:
.L701:
.LM2115:
	li	a0,-135
.LVL656:
.LM2116:
	ret
	.cfi_endproc
.LFE234:
	.size	psa_verify_hash_builtin, .-psa_verify_hash_builtin
	.section	.text.psa_verify_message_builtin,"ax",@progbits
	.align	1
	.globl	psa_verify_message_builtin
	.type	psa_verify_message_builtin, @function
psa_verify_message_builtin:
.LVL657:
.LFB230:
.LM2117:
	.cfi_startproc
.LM2118:
.LM2119:
.LM2120:
	mv	t3,a1
.LM2121:
	li	a1,-100663296
.LVL658:
.LM2122:
	addi	sp,sp,-128
	.cfi_def_cfa_offset 128
	mv	t4,a2
.LM2123:
	addi	a1,a1,-512
	andi	a2,a3,-512
.LVL659:
.LM2124:
	sw	s0,120(sp)
	sw	ra,124(sp)
	sw	s1,116(sp)
	sw	s2,112(sp)
	sw	s3,108(sp)
	.cfi_offset 8, -8
	.cfi_offset 1, -4
	.cfi_offset 9, -12
	.cfi_offset 18, -16
	.cfi_offset 19, -20
.LM2125:
	add	a2,a2,a1
.LM2126:
	mv	s0,a0
.LM2127:
	beq	a2,zero,.L704
.LM2128:
	li	t1,-100667392
	andi	a0,a3,-256
.LVL660:
.LM2129:
	addi	t1,t1,-768
	add	t1,a0,t1
.LM2130:
	beq	t1,zero,.L704
.LM2131:
	li	a2,-100663296
	andi	t1,a3,-1024
	addi	a2,a2,-1024
	add	t1,t1,a2
	beq	t1,zero,.L704
.LM2132:
	li	t1,-100667392
	addi	t1,t1,1792
	add	t1,a0,t1
.LM2133:
	li	a0,-134
.LM2134:
	bne	t1,zero,.L703
.L704:
.LBB564:
.LM2135:
	andi	a0,a3,255
.LM2136:
	beq	a0,zero,.L707
.LM2137:
	li	a2,33554432
	or	a0,a0,a2
.L707:
	mv	a2,a5
	mv	a1,a4
	mv	s3,a3
.LBB565:
.LBB566:
.LM2138:
	addi	a5,sp,28
.LVL661:
.LM2139:
	li	a4,64
.LVL662:
.LM2140:
	addi	a3,sp,32
.LVL663:
.LM2141:
	sw	a7,12(sp)
	sw	a6,8(sp)
	mv	s2,t4
	mv	s1,t3
.LVL664:
.LM2142:
.LBE566:
.LBI565:
.LM2143:
.LBB567:
.LM2144:
.LM2145:
.LM2146:
	call	mbedtls_psa_hash_compute
.LVL665:
.LM2147:
.LM2148:
.LBE567:
.LBE565:
.LM2149:
.LM2150:
	lw	a6,8(sp)
	lw	a7,12(sp)
	bne	a0,zero,.L703
.LM2151:
.LVL666:
.LBB568:
.LBI568:
.LM2152:
.LBB569:
.LM2153:
.LM2154:
.LBB570:
.LBI570:
.LM2155:
.LBB571:
.LM2156:
.LM2157:
.LBE571:
.LBE570:
.LM2158:
.LM2159:
	lw	a5,4(s0)
.LM2160:
	li	a0,-135
.LVL667:
.LM2161:
	srli	a5,a5,8
.LVL668:
.LM2162:
	bne	a5,zero,.L703
.LM2163:
.LM2164:
	lw	a5,28(sp)
.LVL669:
.LM2165:
	addi	a4,sp,32
.LVL670:
.LM2166:
	mv	a3,s3
	mv	a2,s2
	mv	a1,s1
	mv	a0,s0
	call	psa_verify_hash_builtin
.LVL671:
.L703:
.LM2167:
.LBE569:
.LBE568:
.LBE564:
.LM2168:
	lw	ra,124(sp)
	.cfi_restore 1
	lw	s0,120(sp)
	.cfi_restore 8
.LVL672:
.LM2169:
	lw	s1,116(sp)
	.cfi_restore 9
	lw	s2,112(sp)
	.cfi_restore 18
	lw	s3,108(sp)
	.cfi_restore 19
	addi	sp,sp,128
	.cfi_def_cfa_offset 0
	jr	ra
	.cfi_endproc
.LFE230:
	.size	psa_verify_message_builtin, .-psa_verify_message_builtin
	.section	.text.psa_interruptible_set_max_ops,"ax",@progbits
	.align	1
	.globl	psa_interruptible_set_max_ops
	.type	psa_interruptible_set_max_ops, @function
psa_interruptible_set_max_ops:
.LVL673:
.LFB238:
.LM2170:
	.cfi_startproc
.LM2171:
.LM2172:
	lui	a5,%hi(psa_interruptible_max_ops)
	sw	a0,%lo(psa_interruptible_max_ops)(a5)
.LM2173:
	ret
	.cfi_endproc
.LFE238:
	.size	psa_interruptible_set_max_ops, .-psa_interruptible_set_max_ops
	.section	.text.psa_interruptible_get_max_ops,"ax",@progbits
	.align	1
	.globl	psa_interruptible_get_max_ops
	.type	psa_interruptible_get_max_ops, @function
psa_interruptible_get_max_ops:
.LFB239:
.LM2174:
	.cfi_startproc
.LM2175:
.LM2176:
	lui	a5,%hi(psa_interruptible_max_ops)
	lw	a0,%lo(psa_interruptible_max_ops)(a5)
	ret
	.cfi_endproc
.LFE239:
	.size	psa_interruptible_get_max_ops, .-psa_interruptible_get_max_ops
	.section	.text.psa_sign_hash_get_num_ops,"ax",@progbits
	.align	1
	.globl	psa_sign_hash_get_num_ops
	.type	psa_sign_hash_get_num_ops, @function
psa_sign_hash_get_num_ops:
.LVL674:
.LFB240:
.LM2177:
	.cfi_startproc
.LM2178:
.LM2179:
	lw	a0,124(a0)
.LVL675:
.LM2180:
	ret
	.cfi_endproc
.LFE240:
	.size	psa_sign_hash_get_num_ops, .-psa_sign_hash_get_num_ops
	.section	.text.psa_verify_hash_get_num_ops,"ax",@progbits
	.align	1
	.globl	psa_verify_hash_get_num_ops
	.type	psa_verify_hash_get_num_ops, @function
psa_verify_hash_get_num_ops:
.LVL676:
.LFB241:
.LM2181:
	.cfi_startproc
.LM2182:
.LM2183:
	lw	a0,132(a0)
.LVL677:
.LM2184:
	ret
	.cfi_endproc
.LFE241:
	.size	psa_verify_hash_get_num_ops, .-psa_verify_hash_get_num_ops
	.section	.text.mbedtls_psa_interruptible_set_max_ops,"ax",@progbits
	.align	1
	.globl	mbedtls_psa_interruptible_set_max_ops
	.type	mbedtls_psa_interruptible_set_max_ops, @function
mbedtls_psa_interruptible_set_max_ops:
.LVL678:
.LFB250:
.LM2185:
	.cfi_startproc
.LM2186:
.LM2187:
.LM2188:
	bne	a0,zero,.L720
	li	a0,1
.LVL679:
.L720:
.LM2189:
	tail	mbedtls_ecp_set_max_ops
.LVL680:
	.cfi_endproc
.LFE250:
	.size	mbedtls_psa_interruptible_set_max_ops, .-mbedtls_psa_interruptible_set_max_ops
	.section	.text.mbedtls_psa_sign_hash_get_num_ops,"ax",@progbits
	.align	1
	.globl	mbedtls_psa_sign_hash_get_num_ops
	.type	mbedtls_psa_sign_hash_get_num_ops, @function
mbedtls_psa_sign_hash_get_num_ops:
.LVL681:
.LFB251:
.LM2190:
	.cfi_startproc
.LM2191:
.LM2192:
	lw	a0,32(a0)
.LVL682:
.LM2193:
	ret
	.cfi_endproc
.LFE251:
	.size	mbedtls_psa_sign_hash_get_num_ops, .-mbedtls_psa_sign_hash_get_num_ops
	.section	.text.mbedtls_psa_verify_hash_get_num_ops,"ax",@progbits
	.align	1
	.globl	mbedtls_psa_verify_hash_get_num_ops
	.type	mbedtls_psa_verify_hash_get_num_ops, @function
mbedtls_psa_verify_hash_get_num_ops:
.LVL683:
.LFB252:
.LM2194:
	.cfi_startproc
.LM2195:
.LM2196:
	lw	a0,32(a0)
.LVL684:
.LM2197:
	ret
	.cfi_endproc
.LFE252:
	.size	mbedtls_psa_verify_hash_get_num_ops, .-mbedtls_psa_verify_hash_get_num_ops
	.section	.text.mbedtls_psa_sign_hash_start,"ax",@progbits
	.align	1
	.globl	mbedtls_psa_sign_hash_start
	.type	mbedtls_psa_sign_hash_start, @function
mbedtls_psa_sign_hash_start:
.LVL685:
.LFB254:
.LM2198:
	.cfi_startproc
.LM2199:
.LM2200:
.LM2201:
.LM2202:
	addi	sp,sp,-48
	.cfi_def_cfa_offset 48
	sw	s1,36(sp)
	sw	ra,44(sp)
	sw	s0,40(sp)
	sw	s2,32(sp)
	sw	s3,28(sp)
	.cfi_offset 9, -12
	.cfi_offset 1, -4
	.cfi_offset 8, -8
	.cfi_offset 18, -16
	.cfi_offset 19, -20
.LM2203:
	lhu	a7,0(a1)
.LM2204:
	li	t3,113
.LM2205:
	li	s1,-134
.LM2206:
	srai	t1,a7,8
	andi	t1,t1,255
	bne	t1,t3,.L723
.LM2207:
.LVL686:
.LM2208:
.LM2209:
	andi	a7,a7,0xff
.LM2210:
	li	t1,63
.LM2211:
	li	s1,-135
.LM2212:
	bgtu	a7,t1,.L723
.LVL687:
.LM2213:
.LBB580:
.LBI580:
.LM2214:
.LBB581:
.LM2215:
.LM2216:
	li	a7,100663296
.LM2217:
	andi	t1,a4,-512
.LM2218:
	addi	a7,a7,1536
.LBE581:
.LBE580:
.LM2219:
	li	s1,-134
.LBB583:
.LBB582:
.LM2220:
	bne	t1,a7,.L723
	mv	s0,a0
.LVL688:
.LM2221:
.LBE582:
.LBE583:
.LBB584:
.LBB585:
.LM2222:
	addi	a0,a0,4
.LVL689:
.LM2223:
	mv	s1,a1
.LVL690:
.LM2224:
	sw	a6,12(sp)
	mv	s3,a5
	mv	s2,a4
.LVL691:
.LM2225:
.LBE585:
.LBI584:
.LM2226:
.LBB590:
.LM2227:
	sw	a3,8(sp)
.LVL692:
.LM2228:
	sw	a2,4(sp)
.LVL693:
.LM2229:
	call	mbedtls_ecdsa_restart_init
.LVL694:
.LM2230:
.LM2231:
	sw	zero,32(s0)
.LM2232:
.LM2233:
	lhu	a1,2(s1)
	lhu	a0,0(s1)
	lw	a3,8(sp)
	lw	a2,4(sp)
	mv	a4,s0
	call	mbedtls_psa_ecp_load_representation
.LVL695:
	mv	s1,a0
.LVL696:
.LM2234:
.LM2235:
	bne	a0,zero,.L723
.LM2236:
.LM2237:
	lw	a5,0(s0)
.LM2238:
	lw	a6,12(sp)
.LM2239:
	lw	a3,64(a5)
.LM2240:
	andi	a5,s2,255
.LM2241:
	addi	a3,a3,7
.LM2242:
	srli	a3,a3,3
.LM2243:
	sw	a3,36(s0)
.LM2244:
.LM2245:
	beq	a5,zero,.L725
.LM2246:
	li	a4,33554432
	or	a5,a5,a4
.L725:
.LVL697:
.LM2247:
.LBB586:
.LBI586:
.LM2248:
.LBB587:
.LM2249:
.LM2250:
.LBE587:
.LBE586:
.LM2251:
	sw	s2,40(s0)
.LBB589:
.LBB588:
.LM2252:
	sb	a5,44(s0)
.LBE588:
.LBE589:
.LM2253:
.LM2254:
.LM2255:
	mv	s2,a6
.LVL698:
.LM2256:
	bleu	a6,a3,.L726
.LM2257:
	mv	s2,a3
.L726:
.LVL699:
.LM2258:
.LM2259:
	li	a5,66
.LVL700:
.LM2260:
	bgtu	s2,a5,.L730
.LM2261:
	mv	a2,s2
	mv	a1,s3
	addi	a0,s0,45
	call	memcpy
.LVL701:
.LM2262:
.LM2263:
	sw	s2,112(s0)
.LM2264:
.LVL702:
.L723:
.LM2265:
.LBE590:
.LBE584:
.LM2266:
	lw	ra,44(sp)
	.cfi_remember_state
	.cfi_restore 1
	lw	s0,40(sp)
	.cfi_restore 8
	lw	s2,32(sp)
	.cfi_restore 18
	lw	s3,28(sp)
	.cfi_restore 19
	mv	a0,s1
	lw	s1,36(sp)
	.cfi_restore 9
	addi	sp,sp,48
	.cfi_def_cfa_offset 0
	jr	ra
.LVL703:
.L730:
	.cfi_restore_state
.LBB592:
.LBB591:
.LM2267:
	li	s1,-151
.LVL704:
.LM2268:
	j	.L723
.LBE591:
.LBE592:
	.cfi_endproc
.LFE254:
	.size	mbedtls_psa_sign_hash_start, .-mbedtls_psa_sign_hash_start
	.section	.text.mbedtls_psa_sign_hash_complete,"ax",@progbits
	.align	1
	.globl	mbedtls_psa_sign_hash_complete
	.type	mbedtls_psa_sign_hash_complete, @function
mbedtls_psa_sign_hash_complete:
.LVL705:
.LFB255:
.LM2269:
	.cfi_startproc
.LM2270:
.LM2271:
.LM2272:
.LM2273:
.LM2274:
	addi	sp,sp,-80
	.cfi_def_cfa_offset 80
	sw	s1,68(sp)
	.cfi_offset 9, -12
	mv	s1,a0
.LM2275:
	addi	a0,sp,32
.LVL706:
.LM2276:
	sw	a2,28(sp)
	sw	ra,76(sp)
	sw	s0,72(sp)
	sw	s2,64(sp)
	sw	s3,60(sp)
	.cfi_offset 1, -4
	.cfi_offset 8, -8
	.cfi_offset 18, -16
	.cfi_offset 19, -20
.LM2277:
	mv	s2,a1
	mv	s3,a3
.LM2278:
	call	mbedtls_mpi_init
.LVL707:
.LM2279:
	addi	a0,sp,40
	call	mbedtls_mpi_init
.LVL708:
.LM2280:
.LBB593:
.LBI593:
.LM2281:
.LBB594:
.LM2282:
.LBE594:
.LBE593:
.LM2283:
	lui	a5,%hi(psa_interruptible_max_ops)
	lw	a0,%lo(psa_interruptible_max_ops)(a5)
.LM2284:
	li	s0,-138
.LM2285:
	call	mbedtls_psa_interruptible_set_max_ops
.LVL709:
.LM2286:
.LM2287:
	lw	a5,36(s1)
.LM2288:
	lw	a2,28(sp)
.LM2289:
	slli	a5,a5,1
.LM2290:
	bgtu	a5,a2,.L736
.LM2291:
.LM2292:
	lw	a2,40(s1)
.LM2293:
	lw	a0,0(s1)
.LM2294:
	lw	a5,112(s1)
.LM2295:
	andi	a2,a2,256
	addi	a4,s1,45
	addi	a3,a0,96
	addi	a1,s1,4
	lui	a6,%hi(mbedtls_psa_get_random)
.LM2296:
	beq	a2,zero,.L737
.LM2297:
.LM2298:
	sw	a1,4(sp)
	sw	zero,0(sp)
	addi	a7,a6,%lo(mbedtls_psa_get_random)
	lbu	a6,44(s1)
	addi	a2,sp,40
	addi	a1,sp,32
	call	mbedtls_ecdsa_sign_det_restartable
.LVL710:
.L743:
.LM2299:
	call	mbedtls_to_psa_error
.LVL711:
.LM2300:
	lw	a5,32(s1)
	lw	a4,4(s1)
.LM2301:
	mv	s0,a0
.LVL712:
.LM2302:
.LM2303:
	add	a5,a5,a4
	sw	a5,32(s1)
.LM2304:
.LM2305:
	bne	a0,zero,.L736
.LM2306:
.LM2307:
	lw	a2,36(s1)
	mv	a1,s2
	addi	a0,sp,32
	call	mbedtls_mpi_write_binary
.LVL713:
.LM2308:
	call	mbedtls_to_psa_error
.LVL714:
	mv	s0,a0
.LVL715:
.LM2309:
.LM2310:
	bne	a0,zero,.L736
.LM2311:
.LM2312:
	lw	a2,36(s1)
.LM2313:
	addi	a0,sp,40
	add	a1,s2,a2
	call	mbedtls_mpi_write_binary
.LVL716:
.LM2314:
	call	mbedtls_to_psa_error
.LVL717:
	mv	s0,a0
.LVL718:
.LM2315:
.LM2316:
	bne	a0,zero,.L736
.LM2317:
.LM2318:
	lw	a5,36(s1)
	slli	a5,a5,1
.LM2319:
	sw	a5,0(s3)
.LM2320:
.LVL719:
.L736:
.LM2321:
	addi	a0,sp,32
	call	mbedtls_mpi_free
.LVL720:
.LM2322:
	addi	a0,sp,40
	call	mbedtls_mpi_free
.LVL721:
.LM2323:
.LM2324:
	lw	ra,76(sp)
	.cfi_remember_state
	.cfi_restore 1
	mv	a0,s0
	lw	s0,72(sp)
	.cfi_restore 8
.LVL722:
.LM2325:
	lw	s1,68(sp)
	.cfi_restore 9
.LVL723:
.LM2326:
	lw	s2,64(sp)
	.cfi_restore 18
.LVL724:
.LM2327:
	lw	s3,60(sp)
	.cfi_restore 19
.LVL725:
.LM2328:
	addi	sp,sp,80
	.cfi_def_cfa_offset 0
.LVL726:
.LM2329:
	jr	ra
.LVL727:
.L737:
	.cfi_restore_state
.LM2330:
.LM2331:
	addi	a6,a6,%lo(mbedtls_psa_get_random)
	sw	a1,8(sp)
	sw	zero,4(sp)
	sw	a6,0(sp)
	li	a7,0
	addi	a2,sp,40
	addi	a1,sp,32
	call	mbedtls_ecdsa_sign_restartable
.LVL728:
	j	.L743
	.cfi_endproc
.LFE255:
	.size	mbedtls_psa_sign_hash_complete, .-mbedtls_psa_sign_hash_complete
	.section	.text.mbedtls_psa_sign_hash_abort,"ax",@progbits
	.align	1
	.globl	mbedtls_psa_sign_hash_abort
	.type	mbedtls_psa_sign_hash_abort, @function
mbedtls_psa_sign_hash_abort:
.LVL729:
.LFB256:
.LM2332:
	.cfi_startproc
.LM2333:
.LM2334:
	addi	sp,sp,-16
	.cfi_def_cfa_offset 16
	sw	s0,8(sp)
	sw	ra,12(sp)
	.cfi_offset 8, -8
	.cfi_offset 1, -4
.LM2335:
	mv	s0,a0
.LM2336:
	lw	a0,0(a0)
.LVL730:
.LM2337:
	beq	a0,zero,.L745
.LM2338:
	call	mbedtls_ecdsa_free
.LVL731:
.LM2339:
	lw	a0,0(s0)
	call	free
.LVL732:
.LM2340:
.LM2341:
	sw	zero,0(s0)
.L745:
.LM2342:
	addi	a0,s0,4
	call	mbedtls_ecdsa_restart_free
.LVL733:
.LM2343:
.LM2344:
	sw	zero,32(s0)
.LM2345:
.LM2346:
	lw	ra,12(sp)
	.cfi_restore 1
	lw	s0,8(sp)
	.cfi_restore 8
.LVL734:
.LM2347:
	li	a0,0
	addi	sp,sp,16
	.cfi_def_cfa_offset 0
	jr	ra
	.cfi_endproc
.LFE256:
	.size	mbedtls_psa_sign_hash_abort, .-mbedtls_psa_sign_hash_abort
	.section	.text.psa_sign_hash_abort_internal,"ax",@progbits
	.align	1
	.type	psa_sign_hash_abort_internal, @function
psa_sign_hash_abort_internal:
.LVL735:
.LFB242:
.LM2348:
	.cfi_startproc
.LM2349:
.LM2350:
	lw	a5,0(a0)
.LM2351:
	beq	a5,zero,.L753
.LM2352:
	addi	sp,sp,-16
	.cfi_def_cfa_offset 16
	sw	s0,8(sp)
	sw	ra,12(sp)
	.cfi_offset 8, -8
	.cfi_offset 1, -4
.LBB599:
.LBB600:
.LBB601:
.LBB602:
.LM2353:
	li	a4,1
	mv	s0,a0
.LVL736:
.LM2354:
.LBE602:
.LBE601:
.LBE600:
.LBI599:
.LM2355:
.LBB605:
.LM2356:
.LM2357:
.LBB604:
.LBI601:
.LM2358:
.LBB603:
.LM2359:
.LM2360:
	li	a0,-135
.LVL737:
.LM2361:
	bne	a5,a4,.L752
.LM2362:
.LM2363:
	addi	a0,s0,4
	call	mbedtls_psa_sign_hash_abort
.LVL738:
	li	a0,0
.L752:
.LVL739:
.LM2364:
.LBE603:
.LBE604:
.LM2365:
.LM2366:
	sw	zero,0(s0)
.LM2367:
.LVL740:
.LM2368:
.LBE605:
.LBE599:
.LM2369:
	lw	ra,12(sp)
	.cfi_restore 1
	lw	s0,8(sp)
	.cfi_restore 8
.LVL741:
.LM2370:
	addi	sp,sp,16
	.cfi_def_cfa_offset 0
	jr	ra
.LVL742:
.L753:
.LM2371:
	li	a0,0
.LVL743:
.LM2372:
	ret
	.cfi_endproc
.LFE242:
	.size	psa_sign_hash_abort_internal, .-psa_sign_hash_abort_internal
	.section	.text.psa_sign_hash_abort,"ax",@progbits
	.align	1
	.globl	psa_sign_hash_abort
	.type	psa_sign_hash_abort, @function
psa_sign_hash_abort:
.LVL744:
.LFB245:
.LM2373:
	.cfi_startproc
.LM2374:
.LM2375:
.LM2376:
	addi	sp,sp,-16
	.cfi_def_cfa_offset 16
	sw	s0,8(sp)
	sw	ra,12(sp)
	.cfi_offset 8, -8
	.cfi_offset 1, -4
.LM2377:
	mv	s0,a0
.LM2378:
	call	psa_sign_hash_abort_internal
.LVL745:
.LM2379:
.LM2380:
	lbu	a5,120(s0)
.LM2381:
	sw	zero,124(s0)
.LM2382:
.LM2383:
	andi	a5,a5,-2
	sb	a5,120(s0)
.LM2384:
.LM2385:
	lw	ra,12(sp)
	.cfi_restore 1
	lw	s0,8(sp)
	.cfi_restore 8
.LVL746:
.LM2386:
	addi	sp,sp,16
	.cfi_def_cfa_offset 0
	jr	ra
	.cfi_endproc
.LFE245:
	.size	psa_sign_hash_abort, .-psa_sign_hash_abort
	.section	.text.mbedtls_psa_verify_hash_start,"ax",@progbits
	.align	1
	.globl	mbedtls_psa_verify_hash_start
	.type	mbedtls_psa_verify_hash_start, @function
mbedtls_psa_verify_hash_start:
.LVL747:
.LFB257:
.LM2387:
	.cfi_startproc
.LM2388:
.LM2389:
.LM2390:
.LM2391:
.LM2392:
	addi	sp,sp,-64
	.cfi_def_cfa_offset 64
	sw	s0,56(sp)
	sw	ra,60(sp)
	sw	s1,52(sp)
	sw	s2,48(sp)
	sw	s3,44(sp)
	sw	s4,40(sp)
	sw	s5,36(sp)
	sw	s6,32(sp)
	sw	s7,28(sp)
	.cfi_offset 8, -8
	.cfi_offset 1, -4
	.cfi_offset 9, -12
	.cfi_offset 18, -16
	.cfi_offset 19, -20
	.cfi_offset 20, -24
	.cfi_offset 21, -28
	.cfi_offset 22, -32
	.cfi_offset 23, -36
.LM2393:
	lhu	t1,0(a1)
.LM2394:
	li	t4,65
.LM2395:
	li	s0,-134
.LM2396:
	srai	t3,t1,8
	andi	t3,t3,207
	bne	t3,t4,.L761
.LM2397:
.LVL748:
.LM2398:
.LM2399:
	andi	t1,t1,0xff
.LM2400:
	li	t3,63
.LM2401:
	li	s0,-135
.LM2402:
	bgtu	t1,t3,.L761
.LM2403:
.LVL749:
.LBB612:
.LBI612:
.LM2404:
.LBB613:
.LM2405:
.LM2406:
	li	t1,100663296
.LVL750:
.LM2407:
	andi	a4,a4,-512
.LVL751:
.LM2408:
	addi	t1,t1,1536
.LBE613:
.LBE612:
.LM2409:
	li	s0,-134
.LBB615:
.LBB614:
.LM2410:
	bne	a4,t1,.L761
	mv	s1,a0
.LVL752:
.LM2411:
.LBE614:
.LBE615:
.LBB616:
.LBB617:
.LM2412:
	addi	a0,a0,4
.LVL753:
.LM2413:
	mv	s0,a1
.LVL754:
.LM2414:
	mv	s4,a7
	mv	s3,a6
	mv	s7,a5
.LVL755:
.LM2415:
.LBE617:
.LBI616:
.LM2416:
.LBB618:
.LM2417:
	sw	a3,12(sp)
.LVL756:
.LM2418:
	sw	a2,8(sp)
.LVL757:
.LM2419:
	call	mbedtls_ecdsa_restart_init
.LVL758:
.LM2420:
	addi	a0,s1,108
	call	mbedtls_mpi_init
.LVL759:
.LM2421:
	addi	a0,s1,116
	call	mbedtls_mpi_init
.LVL760:
.LM2422:
.LM2423:
	sw	zero,32(s1)
.LM2424:
.LM2425:
	lhu	a1,2(s0)
	lhu	a0,0(s0)
	lw	a3,12(sp)
	lw	a2,8(sp)
	mv	a4,s1
	call	mbedtls_psa_ecp_load_representation
.LVL761:
	mv	s0,a0
.LVL762:
.LM2426:
.LM2427:
	bne	a0,zero,.L761
.LM2428:
.LM2429:
	lw	a5,0(s1)
.LM2430:
	lw	a4,64(sp)
.LM2431:
	li	s0,-149
.LVL763:
.LM2432:
	lw	s2,64(a5)
	addi	s2,s2,7
.LM2433:
	srli	s2,s2,3
.LVL764:
.LM2434:
.LM2435:
	slli	a5,s2,1
.LM2436:
	bne	a4,a5,.L761
.LM2437:
.LM2438:
	mv	a2,s2
	mv	a1,s4
	addi	a0,s1,108
.LVL765:
.LM2439:
	call	mbedtls_mpi_read_binary
.LVL766:
.LM2440:
	call	mbedtls_to_psa_error
.LVL767:
	mv	s0,a0
.LVL768:
.LM2441:
.LM2442:
	bne	a0,zero,.L761
.LM2443:
.LM2444:
	mv	a2,s2
	add	a1,s4,s2
	addi	a0,s1,116
	call	mbedtls_mpi_read_binary
.LVL769:
.LM2445:
	call	mbedtls_to_psa_error
.LVL770:
	mv	s0,a0
.LVL771:
.LM2446:
.LM2447:
	bne	a0,zero,.L761
.LM2448:
.LM2449:
	lw	a0,0(s1)
	call	mbedtls_psa_ecp_load_public_part
.LVL772:
	mv	s0,a0
.LVL773:
.LM2450:
.LM2451:
	bne	a0,zero,.L761
.LM2452:
.LM2453:
	bleu	s3,s2,.L763
	mv	s3,s2
.LVL774:
.L763:
.LM2454:
.LM2455:
	li	a5,66
	bgtu	s3,a5,.L768
.LM2456:
	mv	a2,s3
	mv	a1,s7
	addi	a0,s1,36
	call	memcpy
.LVL775:
.LM2457:
.LM2458:
	sw	s3,104(s1)
.LM2459:
.LVL776:
.L761:
.LM2460:
.LBE618:
.LBE616:
.LM2461:
	lw	ra,60(sp)
	.cfi_remember_state
	.cfi_restore 1
	mv	a0,s0
	lw	s0,56(sp)
	.cfi_restore 8
	lw	s1,52(sp)
	.cfi_restore 9
	lw	s2,48(sp)
	.cfi_restore 18
	lw	s3,44(sp)
	.cfi_restore 19
	lw	s4,40(sp)
	.cfi_restore 20
	lw	s5,36(sp)
	.cfi_restore 21
	lw	s6,32(sp)
	.cfi_restore 22
	lw	s7,28(sp)
	.cfi_restore 23
	addi	sp,sp,64
	.cfi_def_cfa_offset 0
.LVL777:
.LM2462:
	jr	ra
.LVL778:
.L768:
	.cfi_restore_state
.LBB620:
.LBB619:
.LM2463:
	li	s0,-151
.LVL779:
.LM2464:
	j	.L761
.LBE619:
.LBE620:
	.cfi_endproc
.LFE257:
	.size	mbedtls_psa_verify_hash_start, .-mbedtls_psa_verify_hash_start
	.section	.text.mbedtls_psa_verify_hash_complete,"ax",@progbits
	.align	1
	.globl	mbedtls_psa_verify_hash_complete
	.type	mbedtls_psa_verify_hash_complete, @function
mbedtls_psa_verify_hash_complete:
.LVL780:
.LFB258:
.LM2465:
	.cfi_startproc
.LM2466:
.LM2467:
.LBB621:
.LBI621:
.LM2468:
.LBB622:
.LM2469:
.LBE622:
.LBE621:
.LM2470:
	addi	sp,sp,-16
	.cfi_def_cfa_offset 16
.LM2471:
	lui	a5,%hi(psa_interruptible_max_ops)
.LM2472:
	sw	s0,8(sp)
	.cfi_offset 8, -8
	mv	s0,a0
.LM2473:
	lw	a0,%lo(psa_interruptible_max_ops)(a5)
.LVL781:
.LM2474:
	sw	ra,12(sp)
	.cfi_offset 1, -4
.LM2475:
	call	mbedtls_psa_interruptible_set_max_ops
.LVL782:
.LM2476:
.LM2477:
	lw	a0,0(s0)
.LM2478:
	lw	a2,104(s0)
	addi	a5,s0,116
	addi	a4,s0,108
	addi	a6,s0,4
	addi	a1,s0,36
	addi	a3,a0,104
	call	mbedtls_ecdsa_verify_restartable
.LVL783:
.LM2479:
	call	mbedtls_to_psa_error
.LVL784:
.LM2480:
.LM2481:
	lw	a5,32(s0)
	lw	a4,4(s0)
	add	a5,a5,a4
	sw	a5,32(s0)
.LM2482:
.LM2483:
	lw	ra,12(sp)
	.cfi_restore 1
	lw	s0,8(sp)
	.cfi_restore 8
.LVL785:
.LM2484:
	addi	sp,sp,16
	.cfi_def_cfa_offset 0
	jr	ra
	.cfi_endproc
.LFE258:
	.size	mbedtls_psa_verify_hash_complete, .-mbedtls_psa_verify_hash_complete
	.section	.text.mbedtls_psa_verify_hash_abort,"ax",@progbits
	.align	1
	.globl	mbedtls_psa_verify_hash_abort
	.type	mbedtls_psa_verify_hash_abort, @function
mbedtls_psa_verify_hash_abort:
.LVL786:
.LFB259:
.LM2485:
	.cfi_startproc
.LM2486:
.LM2487:
	addi	sp,sp,-16
	.cfi_def_cfa_offset 16
	sw	s0,8(sp)
	sw	ra,12(sp)
	.cfi_offset 8, -8
	.cfi_offset 1, -4
.LM2488:
	mv	s0,a0
.LM2489:
	lw	a0,0(a0)
.LVL787:
.LM2490:
	beq	a0,zero,.L773
.LM2491:
	call	mbedtls_ecdsa_free
.LVL788:
.LM2492:
	lw	a0,0(s0)
	call	free
.LVL789:
.LM2493:
.LM2494:
	sw	zero,0(s0)
.L773:
.LM2495:
	addi	a0,s0,4
	call	mbedtls_ecdsa_restart_free
.LVL790:
.LM2496:
.LM2497:
	addi	a0,s0,108
.LM2498:
	sw	zero,32(s0)
.LM2499:
	call	mbedtls_mpi_free
.LVL791:
.LM2500:
	addi	a0,s0,116
	call	mbedtls_mpi_free
.LVL792:
.LM2501:
.LM2502:
	lw	ra,12(sp)
	.cfi_restore 1
	lw	s0,8(sp)
	.cfi_restore 8
.LVL793:
.LM2503:
	li	a0,0
	addi	sp,sp,16
	.cfi_def_cfa_offset 0
	jr	ra
	.cfi_endproc
.LFE259:
	.size	mbedtls_psa_verify_hash_abort, .-mbedtls_psa_verify_hash_abort
	.section	.text.psa_verify_hash_abort_internal,"ax",@progbits
	.align	1
	.type	psa_verify_hash_abort_internal, @function
psa_verify_hash_abort_internal:
.LVL794:
.LFB246:
.LM2504:
	.cfi_startproc
.LM2505:
.LM2506:
	lw	a5,0(a0)
.LM2507:
	beq	a5,zero,.L781
.LM2508:
	addi	sp,sp,-16
	.cfi_def_cfa_offset 16
	sw	s0,8(sp)
	sw	ra,12(sp)
	.cfi_offset 8, -8
	.cfi_offset 1, -4
.LBB627:
.LBB628:
.LBB629:
.LBB630:
.LM2509:
	li	a4,1
	mv	s0,a0
.LVL795:
.LM2510:
.LBE630:
.LBE629:
.LBE628:
.LBI627:
.LM2511:
.LBB633:
.LM2512:
.LM2513:
.LBB632:
.LBI629:
.LM2514:
.LBB631:
.LM2515:
.LM2516:
	li	a0,-135
.LVL796:
.LM2517:
	bne	a5,a4,.L780
.LM2518:
.LM2519:
	addi	a0,s0,4
	call	mbedtls_psa_verify_hash_abort
.LVL797:
	li	a0,0
.L780:
.LVL798:
.LM2520:
.LBE631:
.LBE632:
.LM2521:
.LM2522:
	sw	zero,0(s0)
.LM2523:
.LVL799:
.LM2524:
.LBE633:
.LBE627:
.LM2525:
	lw	ra,12(sp)
	.cfi_restore 1
	lw	s0,8(sp)
	.cfi_restore 8
.LVL800:
.LM2526:
	addi	sp,sp,16
	.cfi_def_cfa_offset 0
	jr	ra
.LVL801:
.L781:
.LM2527:
	li	a0,0
.LVL802:
.LM2528:
	ret
	.cfi_endproc
.LFE246:
	.size	psa_verify_hash_abort_internal, .-psa_verify_hash_abort_internal
	.section	.text.psa_verify_hash_complete,"ax",@progbits
	.align	1
	.globl	psa_verify_hash_complete
	.type	psa_verify_hash_complete, @function
psa_verify_hash_complete:
.LVL803:
.LFB248:
.LM2529:
	.cfi_startproc
.LM2530:
.LM2531:
.LM2532:
	addi	sp,sp,-16
	.cfi_def_cfa_offset 16
	sw	s0,8(sp)
	sw	ra,12(sp)
	sw	s1,4(sp)
	sw	s2,0(sp)
	.cfi_offset 8, -8
	.cfi_offset 1, -4
	.cfi_offset 9, -12
	.cfi_offset 18, -16
.LM2533:
	lw	s2,0(a0)
.LM2534:
	mv	s0,a0
.LM2535:
	beq	s2,zero,.L793
.LM2536:
	lbu	a5,128(a0)
.LM2537:
	li	s1,-137
.LM2538:
	andi	a5,a5,1
	bne	a5,zero,.L788
.LM2539:
.LVL804:
.LBB640:
.LBI640:
.LM2540:
.LBB641:
.LM2541:
	li	a5,1
	beq	s2,a5,.L789
.LVL805:
.LM2542:
.LBE641:
.LBE640:
.LM2543:
	sw	zero,132(a0)
.LM2544:
.LM2545:
.LBB645:
.LBB642:
.LM2546:
	li	s1,-135
.LVL806:
.L788:
.LM2547:
.LBE642:
.LBE645:
.LM2548:
.LM2549:
	lbu	a5,128(s0)
	ori	a5,a5,1
	sb	a5,128(s0)
	j	.L792
.LVL807:
.L789:
.LBB646:
.LBB643:
.LM2550:
.LM2551:
	addi	a0,a0,4
	call	mbedtls_psa_verify_hash_complete
.LVL808:
.LBE643:
.LBE646:
.LBB647:
.LBB648:
.LM2552:
	lw	a4,0(s0)
.LBE648:
.LBE647:
.LBB652:
.LBB644:
.LM2553:
	mv	s1,a0
.LVL809:
.LM2554:
.LBE644:
.LBE652:
.LM2555:
.LBB653:
.LBI647:
.LM2556:
.LBB651:
.LM2557:
.LM2558:
	li	a5,0
.LM2559:
	bne	a4,s2,.L790
.LM2560:
.LVL810:
.LBB649:
.LBI649:
.LM2561:
.LBB650:
.LM2562:
.LM2563:
	lw	a5,36(s0)
.LVL811:
.L790:
.LM2564:
.LBE650:
.LBE649:
.LBE651:
.LBE653:
.LM2565:
	sw	a5,132(s0)
.LDL3:
.LVL812:
.LM2566:
.LM2567:
	li	a5,-248
	beq	s1,a5,.L787
.LVL813:
.LM2568:
.LM2569:
	bne	s1,zero,.L788
.L792:
.LM2570:
	mv	a0,s0
	call	psa_verify_hash_abort_internal
.LVL814:
.LM2571:
.L787:
.LM2572:
	lw	ra,12(sp)
	.cfi_remember_state
	.cfi_restore 1
	lw	s0,8(sp)
	.cfi_restore 8
.LVL815:
.LM2573:
	lw	s2,0(sp)
	.cfi_restore 18
	mv	a0,s1
	lw	s1,4(sp)
	.cfi_restore 9
	addi	sp,sp,16
	.cfi_def_cfa_offset 0
	jr	ra
.LVL816:
.L793:
	.cfi_restore_state
.LM2574:
	li	s1,-137
	j	.L788
	.cfi_endproc
.LFE248:
	.size	psa_verify_hash_complete, .-psa_verify_hash_complete
	.section	.text.psa_verify_hash_abort,"ax",@progbits
	.align	1
	.globl	psa_verify_hash_abort
	.type	psa_verify_hash_abort, @function
psa_verify_hash_abort:
.LVL817:
.LFB249:
.LM2575:
	.cfi_startproc
.LM2576:
.LM2577:
.LM2578:
	addi	sp,sp,-16
	.cfi_def_cfa_offset 16
	sw	s0,8(sp)
	sw	ra,12(sp)
	.cfi_offset 8, -8
	.cfi_offset 1, -4
.LM2579:
	mv	s0,a0
.LM2580:
	call	psa_verify_hash_abort_internal
.LVL818:
.LM2581:
.LM2582:
	lbu	a5,128(s0)
.LM2583:
	sw	zero,132(s0)
.LM2584:
.LM2585:
	andi	a5,a5,-2
	sb	a5,128(s0)
.LM2586:
.LM2587:
	lw	ra,12(sp)
	.cfi_restore 1
	lw	s0,8(sp)
	.cfi_restore 8
.LVL819:
.LM2588:
	addi	sp,sp,16
	.cfi_def_cfa_offset 0
	jr	ra
	.cfi_endproc
.LFE249:
	.size	psa_verify_hash_abort, .-psa_verify_hash_abort
	.section	.text.psa_cipher_abort,"ax",@progbits
	.align	1
	.globl	psa_cipher_abort
	.type	psa_cipher_abort, @function
psa_cipher_abort:
.LVL820:
.LFB268:
.LM2589:
	.cfi_startproc
.LM2590:
.LM2591:
	lw	a5,0(a0)
.LM2592:
	beq	a5,zero,.L809
.LM2593:
	addi	sp,sp,-16
	.cfi_def_cfa_offset 16
	sw	s0,8(sp)
	sw	ra,12(sp)
	.cfi_offset 8, -8
	.cfi_offset 1, -4
.LBB658:
.LBB659:
.LBB660:
.LBB661:
.LM2594:
	li	a4,1
	mv	s0,a0
.LVL821:
.LM2595:
.LBE661:
.LBE660:
.LBE659:
.LBI658:
.LM2596:
.LBB664:
.LM2597:
.LBB663:
.LBI660:
.LM2598:
.LBB662:
.LM2599:
.LM2600:
	bne	a5,a4,.L804
.LM2601:
.LM2602:
	addi	a0,a0,8
.LVL822:
.LM2603:
	call	mbedtls_psa_cipher_abort
.LVL823:
.L804:
.LM2604:
.LBE662:
.LBE663:
.LM2605:
.LM2606:
.LM2607:
.LM2608:
	lbu	a5,4(s0)
.LM2609:
	sw	zero,0(s0)
.LBE664:
.LBE658:
.LM2610:
	li	a0,0
.LBB666:
.LBB665:
.LM2611:
	andi	a5,a5,-4
	sb	a5,4(s0)
.LM2612:
.LVL824:
.LM2613:
.LBE665:
.LBE666:
.LM2614:
	lw	ra,12(sp)
	.cfi_restore 1
	lw	s0,8(sp)
	.cfi_restore 8
.LVL825:
.LM2615:
	addi	sp,sp,16
	.cfi_def_cfa_offset 0
	jr	ra
.LVL826:
.L809:
.LM2616:
	li	a0,0
.LVL827:
.LM2617:
	ret
	.cfi_endproc
.LFE268:
	.size	psa_cipher_abort, .-psa_cipher_abort
	.section	.text.psa_cipher_setup,"ax",@progbits
	.align	1
	.type	psa_cipher_setup, @function
psa_cipher_setup:
.LVL828:
.LFB261:
.LM2618:
	.cfi_startproc
.LM2619:
.LM2620:
.LM2621:
.LM2622:
	addi	sp,sp,-64
	.cfi_def_cfa_offset 64
	sw	s0,56(sp)
	sw	s2,48(sp)
	sw	ra,60(sp)
	sw	s1,52(sp)
	sw	s3,44(sp)
	.cfi_offset 8, -8
	.cfi_offset 18, -16
	.cfi_offset 1, -4
	.cfi_offset 9, -12
	.cfi_offset 19, -20
.LM2623:
	sw	zero,28(sp)
.LM2624:
.LM2625:
	li	a5,1
.LM2626:
	mv	s2,a0
	mv	a4,a2
	mv	a0,a1
.LVL829:
.LM2627:
	mv	s0,a3
.LM2628:
	li	a2,256
.LVL830:
.LM2629:
	beq	a3,a5,.L813
	li	a2,512
.L813:
.LVL831:
.LM2630:
.LM2631:
	lw	a5,0(s2)
	bne	a5,zero,.L826
.LM2632:
.LM2633:
	srai	a5,a4,24
	andi	a5,a5,127
	li	a3,4
.LVL832:
.LM2634:
	beq	a5,a3,.L815
.LVL833:
.L821:
.LM2635:
	li	s0,-135
.LVL834:
.L814:
.LM2636:
	mv	a0,s2
	call	psa_cipher_abort
.LVL835:
	mv	s1,s0
	j	.L822
.LVL836:
.L815:
.LM2637:
.LM2638:
	mv	a3,a4
	addi	a1,sp,28
	sw	a4,12(sp)
	call	psa_get_and_lock_key_slot_with_policy
.LVL837:
.LM2639:
	mv	s1,a0
.LVL838:
.LM2640:
.LM2641:
	bne	a0,zero,.L827
.LM2642:
.LM2643:
.LM2644:
	lbu	a5,4(s2)
.LM2645:
	lw	a4,12(sp)
.LM2646:
	li	a2,2
.LM2647:
	andi	a3,a5,-4
.LM2648:
	li	a5,-71319552
	addi	a5,a5,-1024
	add	a5,a4,a5
.LM2649:
	snez	a5,a5
	or	a5,a3,a5
	sb	a5,4(s2)
.LM2650:
.LM2651:
	lw	a5,28(sp)
	lhu	a5,0(a5)
.LM2652:
	srai	a3,a5,12
	andi	a3,a3,7
	bne	a3,a2,.L816
.LM2653:
	andi	a3,a5,1792
	beq	a3,zero,.L816
.LM2654:
	li	a3,-79695872
.LM2655:
	li	a2,-71368704
.LM2656:
	addi	a3,a3,-512
.LM2657:
	addi	a2,a2,256
.LM2658:
	add	a3,a4,a3
.LM2659:
	add	a2,a4,a2
	seqz	a2,a2
.LM2660:
	seqz	a3,a3
.LM2661:
	or	a3,a3,a2
.LM2662:
	andi	a1,a4,-257
	li	a2,-79695872
	add	a2,a1,a2
	seqz	a2,a2
.LM2663:
	or	a3,a2,a3
	bne	a3,zero,.L830
.LM2664:
	li	a3,-71319552
	add	a1,a1,a3
.LM2665:
	bne	a1,zero,.L816
.L830:
.LM2666:
	srli	a5,a5,8
	andi	a5,a5,7
.LM2667:
	li	a3,1
	sll	a3,a3,a5
.L818:
.LM2668:
	sb	a3,5(s2)
.LM2669:
	li	a2,76
	li	a1,0
	addi	a0,s2,8
	sw	a4,12(sp)
.LVL839:
.LM2670:
	call	memset
.LVL840:
.LM2671:
.LM2672:
	lw	a1,28(sp)
.LM2673:
	li	a0,1
	lw	a4,12(sp)
.LBB675:
.LBB676:
.LM2674:
	lw	a5,4(a1)
.LBE676:
.LBE675:
.LM2675:
	lw	a2,32(a1)
.LM2676:
	lw	a3,36(a1)
.LBB681:
.LBB679:
.LM2677:
	srli	a5,a5,8
.LBE679:
.LBE681:
.LM2678:
	bne	s0,a0,.L820
.LM2679:
.LVL841:
.LBB682:
.LBI675:
.LM2680:
.LBB680:
.LM2681:
.LM2682:
.LBB677:
.LBI677:
.LM2683:
.LBB678:
.LM2684:
.LM2685:
.LBE678:
.LBE677:
.LM2686:
	bne	a5,zero,.L821
.LM2687:
.LM2688:
	addi	a0,s2,8
	call	mbedtls_psa_cipher_encrypt_setup
.LVL842:
.L844:
.LM2689:
	mv	s0,a0
.LVL843:
.LM2690:
.LM2691:
	bne	a0,zero,.L814
.LM2692:
.LM2693:
	li	a5,1
	sw	a5,0(s2)
.LM2694:
.LVL844:
.LM2695:
.LBE680:
.LBE682:
.LM2696:
.L822:
.LM2697:
.LM2698:
	lw	a0,28(sp)
	call	psa_unregister_read_under_mutex
.LVL845:
.LM2699:
.LM2700:
	bne	s1,zero,.L812
.LM2701:
	mv	s1,a0
.L812:
.LM2702:
	lw	ra,60(sp)
	.cfi_remember_state
	.cfi_restore 1
	lw	s0,56(sp)
	.cfi_restore 8
	lw	s2,48(sp)
	.cfi_restore 18
.LVL846:
.LM2703:
	lw	s3,44(sp)
	.cfi_restore 19
	mv	a0,s1
.LVL847:
.LM2704:
	lw	s1,52(sp)
	.cfi_restore 9
	addi	sp,sp,64
	.cfi_def_cfa_offset 0
	jr	ra
.LVL848:
.L816:
	.cfi_restore_state
.LM2705:
	li	a3,-75497472
	addi	a3,a3,-256
	add	a3,a4,a3
	bne	a3,zero,.L831
.LM2706:
	li	a3,-8192
	addi	a3,a3,-4
	add	a5,a5,a3
.LM2707:
	li	a3,12
.LM2708:
	beq	a5,zero,.L818
.L831:
.LM2709:
	li	a5,79695872
	addi	a5,a5,768
.LM2710:
	li	a3,0
.LM2711:
	bne	a4,a5,.L818
.LM2712:
	li	a3,13
	j	.L818
.LVL849:
.L820:
.LM2713:
.LBB683:
.LBI683:
.LM2714:
.LBB684:
.LM2715:
.LM2716:
.LM2717:
	bne	a5,zero,.L821
.LM2718:
.LM2719:
	addi	a0,s2,8
	call	mbedtls_psa_cipher_decrypt_setup
.LVL850:
.LM2720:
	j	.L844
.LVL851:
.L826:
.LM2721:
.LBE684:
.LBE683:
.LM2722:
	li	s0,-137
	j	.L814
.LVL852:
.L827:
.LM2723:
	mv	s0,a0
.LVL853:
.LM2724:
	j	.L814
	.cfi_endproc
.LFE261:
	.size	psa_cipher_setup, .-psa_cipher_setup
	.section	.text.psa_cipher_encrypt_setup,"ax",@progbits
	.align	1
	.globl	psa_cipher_encrypt_setup
	.type	psa_cipher_encrypt_setup, @function
psa_cipher_encrypt_setup:
.LVL854:
.LFB262:
.LM2725:
	.cfi_startproc
.LM2726:
.LM2727:
	li	a3,1
	tail	psa_cipher_setup
.LVL855:
.LM2728:
	.cfi_endproc
.LFE262:
	.size	psa_cipher_encrypt_setup, .-psa_cipher_encrypt_setup
	.section	.text.psa_cipher_decrypt_setup,"ax",@progbits
	.align	1
	.globl	psa_cipher_decrypt_setup
	.type	psa_cipher_decrypt_setup, @function
psa_cipher_decrypt_setup:
.LVL856:
.LFB263:
.LM2729:
	.cfi_startproc
.LM2730:
.LM2731:
	li	a3,0
	tail	psa_cipher_setup
.LVL857:
.LM2732:
	.cfi_endproc
.LFE263:
	.size	psa_cipher_decrypt_setup, .-psa_cipher_decrypt_setup
	.section	.text.psa_aead_abort,"ax",@progbits
	.align	1
	.globl	psa_aead_abort
	.type	psa_aead_abort, @function
psa_aead_abort:
.LVL858:
.LFB289:
.LM2733:
	.cfi_startproc
.LM2734:
.LM2735:
.LM2736:
	addi	sp,sp,-16
	.cfi_def_cfa_offset 16
	sw	s0,8(sp)
	sw	ra,12(sp)
	sw	s1,4(sp)
	.cfi_offset 8, -8
	.cfi_offset 1, -4
	.cfi_offset 9, -12
.LM2737:
	lw	a5,0(a0)
.LM2738:
	li	s0,0
.LM2739:
	beq	a5,zero,.L847
.LBB689:
.LBB690:
.LBB691:
.LBB692:
.LM2740:
	li	a4,1
	mv	s1,a0
.LVL859:
.LM2741:
.LBE692:
.LBE691:
.LBE690:
.LBI689:
.LM2742:
.LBB695:
.LM2743:
.LBB694:
.LBI691:
.LM2744:
.LBB693:
.LM2745:
.LM2746:
	li	s0,-135
.LM2747:
	bne	a5,a4,.L849
.LM2748:
.LM2749:
	addi	a0,a0,24
.LVL860:
.LM2750:
	call	mbedtls_psa_aead_abort
.LVL861:
	mv	s0,a0
.L849:
.LVL862:
.LM2751:
.LBE693:
.LBE694:
.LM2752:
	li	a2,4096
	addi	a2,a2,176
	li	a1,0
	mv	a0,s1
	call	memset
.LVL863:
.LM2753:
.L847:
.LM2754:
.LBE695:
.LBE689:
.LM2755:
	lw	ra,12(sp)
	.cfi_restore 1
	mv	a0,s0
	lw	s0,8(sp)
	.cfi_restore 8
	lw	s1,4(sp)
	.cfi_restore 9
	addi	sp,sp,16
	.cfi_def_cfa_offset 0
	jr	ra
	.cfi_endproc
.LFE289:
	.size	psa_aead_abort, .-psa_aead_abort
	.section	.text.psa_aead_setup,"ax",@progbits
	.align	1
	.type	psa_aead_setup, @function
psa_aead_setup:
.LVL864:
.LFB277:
.LM2756:
	.cfi_startproc
.LM2757:
.LM2758:
.LM2759:
.LM2760:
	addi	sp,sp,-48
	.cfi_def_cfa_offset 48
	sw	s2,32(sp)
	.cfi_offset 18, -16
	mv	s2,a0
.LM2761:
	mv	a0,a3
.LVL865:
.LM2762:
	sw	s1,36(sp)
	sw	s3,28(sp)
	sw	s5,20(sp)
	sw	ra,44(sp)
	sw	s0,40(sp)
	sw	s4,24(sp)
	.cfi_offset 9, -12
	.cfi_offset 19, -20
	.cfi_offset 21, -28
	.cfi_offset 1, -4
	.cfi_offset 8, -8
	.cfi_offset 20, -24
.LM2763:
	mv	s3,a1
	mv	s5,a2
	mv	s1,a3
.LM2764:
	sw	zero,12(sp)
.LM2765:
.LVL866:
.LM2766:
.LM2767:
	call	psa_aead_check_algorithm
.LVL867:
.LM2768:
.LM2769:
	beq	a0,zero,.L854
.LVL868:
.L861:
.LM2770:
	li	s0,-135
.L855:
.LVL869:
.LM2771:
.LM2772:
	lw	a0,12(sp)
	call	psa_unregister_read_under_mutex
.LVL870:
.LM2773:
.LM2774:
	bne	s0,zero,.L865
.LM2775:
.LVL871:
.LM2776:
.LBB710:
.LBI710:
.LM2777:
.LBB711:
.LM2778:
.LM2779:
	li	a5,-4161536
	addi	a5,a5,-1
.LM2780:
	li	a4,88080384
.LM2781:
	and	s1,s1,a5
.LVL872:
.LM2782:
	addi	a4,a4,256
.LM2783:
	li	a5,89128960
	addi	a5,a5,256
.LM2784:
	beq	s1,a4,.L866
.LM2785:
	li	a4,88080384
.LM2786:
	li	a5,89128960
.LM2787:
	addi	a4,a4,512
.LM2788:
	addi	a5,a5,512
.LM2789:
	beq	s1,a4,.L866
.LM2790:
	li	a4,83886080
	addi	a4,a4,1280
.LM2791:
	li	a5,0
.LM2792:
	bne	s1,a4,.L866
.LM2793:
	li	a5,84934656
	addi	a5,a5,1280
.L866:
.LVL873:
.LM2794:
.LBE711:
.LBE710:
.LM2795:
	sw	a5,4(s2)
.LM2796:
.LM2797:
	lbu	a5,20(s2)
	andi	s3,s3,1
.LVL874:
.LM2798:
	slli	s3,s3,4
	andi	a5,a5,-17
	or	a5,a5,s3
	sb	a5,20(s2)
.LM2799:
	mv	s0,a0
.LVL875:
.L853:
.LM2800:
	lw	ra,44(sp)
	.cfi_remember_state
	.cfi_restore 1
	mv	a0,s0
	lw	s0,40(sp)
	.cfi_restore 8
	lw	s1,36(sp)
	.cfi_restore 9
	lw	s2,32(sp)
	.cfi_restore 18
.LVL876:
.LM2801:
	lw	s3,28(sp)
	.cfi_restore 19
	lw	s4,24(sp)
	.cfi_restore 20
	lw	s5,20(sp)
	.cfi_restore 21
.LVL877:
.LM2802:
	addi	sp,sp,48
	.cfi_def_cfa_offset 0
	jr	ra
.LVL878:
.L854:
	.cfi_restore_state
.LM2803:
.LM2804:
	lw	a5,0(s2)
.LM2805:
	li	s0,-137
.LM2806:
	bne	a5,zero,.L855
.LM2807:
.LM2808:
	lbu	a5,20(s2)
	andi	a5,a5,15
	bne	a5,zero,.L855
.LM2809:
	li	a2,4096
	addi	a2,a2,152
	li	a1,0
	addi	a0,s2,24
.LVL879:
.LM2810:
	call	memset
.LVL880:
.LM2811:
.LM2812:
	seqz	a2,s3
	slli	a2,a2,8
.LVL881:
.LM2813:
.LM2814:
	mv	a3,s1
	addi	a2,a2,256
.LVL882:
.LM2815:
	addi	a1,sp,12
	mv	a0,s5
	call	psa_get_and_lock_key_slot_with_policy
.LVL883:
.LM2816:
	mv	s0,a0
.LVL884:
.LM2817:
.LM2818:
	bne	a0,zero,.L855
.LM2819:
.LVL885:
.LBB712:
.LBI712:
.LM2820:
.LBB713:
.LM2821:
.LM2822:
	li	a5,-4161536
	addi	a5,a5,-1
.LM2823:
	li	a2,88080384
.LM2824:
	srli	a3,s1,16
.LM2825:
	and	a5,s1,a5
.LM2826:
	addi	a2,a2,256
.LM2827:
	andi	a4,a3,63
.LVL886:
.LM2828:
	beq	a5,a2,.L857
	li	a3,88080384
	addi	a3,a3,512
	li	s0,-134
.LVL887:
.LM2829:
	bne	a5,a3,.L855
.LM2830:
	li	a5,16
	bgtu	a4,a5,.L861
	li	a5,126976
	addi	a5,a5,272
	srl	a5,a5,a4
	andi	a5,a5,1
	bne	a5,zero,.L860
	j	.L861
.LVL888:
.L857:
.LM2831:
.LM2832:
	addi	a4,a4,-4
.LVL889:
.LM2833:
	andi	a4,a4,0xff
.LVL890:
.LM2834:
	li	a5,12
	bgtu	a4,a5,.L861
.LM2835:
	andi	a3,a3,1
.LVL891:
.LM2836:
	bne	a3,zero,.L861
.LVL892:
.L860:
.LM2837:
.LBE713:
.LBE712:
.LM2838:
.LM2839:
	lw	a1,12(sp)
.LBB714:
.LBB715:
.LM2840:
	lw	a5,4(a1)
.LBE715:
.LBE714:
.LM2841:
	lw	a2,32(a1)
.LM2842:
	lw	a3,36(a1)
.LBB720:
.LBB718:
.LM2843:
	srli	a5,a5,8
.LBE718:
.LBE720:
.LM2844:
	beq	s3,zero,.L862
.LM2845:
.LVL893:
.LBB721:
.LBI714:
.LM2846:
.LBB719:
.LM2847:
.LM2848:
.LBB716:
.LBI716:
.LM2849:
.LBB717:
.LM2850:
.LM2851:
.LBE717:
.LBE716:
.LM2852:
	bne	a5,zero,.L861
.LM2853:
.LM2854:
	li	a5,1
	sw	a5,0(s2)
.LVL894:
.LM2855:
.LM2856:
	mv	a4,s1
	addi	a0,s2,24
	call	mbedtls_psa_aead_encrypt_setup
.LVL895:
.L878:
.LM2857:
.LBE719:
.LBE721:
.LBB722:
.LBB723:
.LM2858:
	mv	s0,a0
.LVL896:
.LM2859:
.LM2860:
.LBE723:
.LBE722:
.LM2861:
.LM2862:
	bne	a0,zero,.L855
.LM2863:
.LVL897:
.LBB725:
.LBI725:
.LM2864:
.LBB726:
.LM2865:
.LM2866:
	lw	a5,12(sp)
	lhu	a5,0(a5)
.LVL898:
.LM2867:
.LBE726:
.LBE725:
.LM2868:
	sh	a5,8(s2)
	j	.L855
.LVL899:
.L862:
.LM2869:
.LBB727:
.LBI722:
.LM2870:
.LBB724:
.LM2871:
.LM2872:
.LM2873:
	bne	a5,zero,.L861
.LM2874:
.LM2875:
	li	a5,1
	sw	a5,0(s2)
.LVL900:
.LM2876:
.LM2877:
	mv	a4,s1
	addi	a0,s2,24
	call	mbedtls_psa_aead_decrypt_setup
.LVL901:
.LM2878:
	j	.L878
.LVL902:
.L865:
.LM2879:
.LBE724:
.LBE727:
.LM2880:
	mv	a0,s2
.LVL903:
.LM2881:
	call	psa_aead_abort
.LVL904:
.LM2882:
.LM2883:
	j	.L853
	.cfi_endproc
.LFE277:
	.size	psa_aead_setup, .-psa_aead_setup
	.section	.text.psa_aead_encrypt_setup,"ax",@progbits
	.align	1
	.globl	psa_aead_encrypt_setup
	.type	psa_aead_encrypt_setup, @function
psa_aead_encrypt_setup:
.LVL905:
.LFB278:
.LM2884:
	.cfi_startproc
.LM2885:
.LM2886:
	mv	a3,a2
.LM2887:
	mv	a2,a1
.LVL906:
.LM2888:
	li	a1,1
.LVL907:
.LM2889:
	tail	psa_aead_setup
.LVL908:
.LM2890:
	.cfi_endproc
.LFE278:
	.size	psa_aead_encrypt_setup, .-psa_aead_encrypt_setup
	.section	.text.psa_aead_decrypt_setup,"ax",@progbits
	.align	1
	.globl	psa_aead_decrypt_setup
	.type	psa_aead_decrypt_setup, @function
psa_aead_decrypt_setup:
.LVL909:
.LFB279:
.LM2891:
	.cfi_startproc
.LM2892:
.LM2893:
	mv	a3,a2
.LM2894:
	mv	a2,a1
.LVL910:
.LM2895:
	li	a1,0
.LVL911:
.LM2896:
	tail	psa_aead_setup
.LVL912:
.LM2897:
	.cfi_endproc
.LFE279:
	.size	psa_aead_decrypt_setup, .-psa_aead_decrypt_setup
	.section	.text.psa_aead_set_nonce_internal,"ax",@progbits
	.align	1
	.type	psa_aead_set_nonce_internal, @function
psa_aead_set_nonce_internal:
.LVL913:
.LFB280:
.LM2898:
	.cfi_startproc
.LM2899:
.LM2900:
.LM2901:
	addi	sp,sp,-32
	.cfi_def_cfa_offset 32
	sw	s1,20(sp)
	sw	ra,28(sp)
	sw	s0,24(sp)
	sw	s2,16(sp)
	.cfi_offset 9, -12
	.cfi_offset 1, -4
	.cfi_offset 8, -8
	.cfi_offset 18, -16
.LM2902:
	lw	s0,0(a0)
.LM2903:
	mv	s1,a0
.LM2904:
	beq	s0,zero,.L885
.LM2905:
.LM2906:
	lbu	a5,20(a0)
.LM2907:
	andi	a5,a5,1
	bne	a5,zero,.L885
.LM2908:
	lw	a0,4(a0)
.LVL914:
.LM2909:
	mv	s2,a1
.LM2910:
.LM2911:
	mv	a1,a2
.LVL915:
.LM2912:
	sw	a2,12(sp)
	call	psa_aead_check_nonce_length
.LVL916:
.LM2913:
.LM2914:
.LBB730:
.LBI730:
.LM2915:
.LBB731:
.LM2916:
	bne	a0,zero,.L886
	addi	s0,s0,-1
	bne	s0,zero,.L886
.LM2917:
.LM2918:
	lw	a2,12(sp)
	mv	a1,s2
	addi	a0,s1,24
.LVL917:
.LM2919:
	call	mbedtls_psa_aead_set_nonce
.LVL918:
	mv	s0,a0
.LVL919:
.LDL4:
.LM2920:
.LBE731:
.LBE730:
.LM2921:
.LM2922:
	bne	a0,zero,.L882
.LM2923:
.LM2924:
	lbu	a5,20(s1)
	ori	a5,a5,1
	sb	a5,20(s1)
.LVL920:
.L881:
.LM2925:
	lw	ra,28(sp)
	.cfi_remember_state
	.cfi_restore 1
	mv	a0,s0
	lw	s0,24(sp)
	.cfi_restore 8
	lw	s1,20(sp)
	.cfi_restore 9
.LVL921:
.LM2926:
	lw	s2,16(sp)
	.cfi_restore 18
	addi	sp,sp,32
	.cfi_def_cfa_offset 0
	jr	ra
.LVL922:
.L885:
	.cfi_restore_state
.LM2927:
	li	s0,-137
.LVL923:
.L882:
.LM2928:
	mv	a0,s1
	call	psa_aead_abort
.LVL924:
.LM2929:
.LM2930:
	j	.L881
.LVL925:
.L886:
.LBB733:
.LBB732:
.LM2931:
	li	s0,-135
	j	.L882
.LBE732:
.LBE733:
	.cfi_endproc
.LFE280:
	.size	psa_aead_set_nonce_internal, .-psa_aead_set_nonce_internal
	.section	.text.psa_aead_set_lengths,"ax",@progbits
	.align	1
	.globl	psa_aead_set_lengths
	.type	psa_aead_set_lengths, @function
psa_aead_set_lengths:
.LVL926:
.LFB283:
.LM2932:
	.cfi_startproc
.LM2933:
.LM2934:
.LM2935:
	addi	sp,sp,-32
	.cfi_def_cfa_offset 32
	sw	s0,24(sp)
	sw	ra,28(sp)
	sw	s1,20(sp)
	.cfi_offset 8, -8
	.cfi_offset 1, -4
	.cfi_offset 9, -12
.LM2936:
	lw	a3,0(a0)
.LM2937:
	mv	s0,a0
.LM2938:
	beq	a3,zero,.L898
.LM2939:
.LM2940:
	lbu	a5,20(a0)
.LM2941:
	li	s1,-137
.LM2942:
	andi	a5,a5,14
	bne	a5,zero,.L895
.LM2943:
.LM2944:
.LM2945:
	lw	a5,4(a0)
	li	a4,-89128960
	addi	a4,a4,-256
	add	a5,a5,a4
.LM2946:
	bne	a5,zero,.L902
	li	a5,65536
	addi	a5,a5,-256
	bgtu	a1,a5,.L901
.L902:
.LM2947:
.LVL927:
.LBB736:
.LBI736:
.LM2948:
.LBB737:
.LM2949:
	li	a5,1
	bne	a3,a5,.L901
.LM2950:
.LM2951:
	addi	a0,s0,24
.LVL928:
.LM2952:
	sw	a2,12(sp)
	sw	a1,8(sp)
	call	mbedtls_psa_aead_set_lengths
.LVL929:
.LM2953:
	mv	s1,a0
.LVL930:
.LDL5:
.LM2954:
.LBE737:
.LBE736:
.LM2955:
.LM2956:
	bne	a0,zero,.L895
.LM2957:
.LM2958:
	lbu	a5,20(s0)
.LM2959:
	lw	a1,8(sp)
.LM2960:
	lw	a2,12(sp)
.LM2961:
	ori	a5,a5,2
.LM2962:
	sw	a1,12(s0)
.LM2963:
.LM2964:
	sw	a2,16(s0)
.LM2965:
.LM2966:
	sb	a5,20(s0)
.LVL931:
.L894:
.LM2967:
	lw	ra,28(sp)
	.cfi_remember_state
	.cfi_restore 1
	lw	s0,24(sp)
	.cfi_restore 8
.LVL932:
.LM2968:
	mv	a0,s1
	lw	s1,20(sp)
	.cfi_restore 9
	addi	sp,sp,32
	.cfi_def_cfa_offset 0
	jr	ra
.LVL933:
.L898:
	.cfi_restore_state
.LM2969:
	li	s1,-137
.LVL934:
.L895:
.LM2970:
	mv	a0,s0
	call	psa_aead_abort
.LVL935:
.LM2971:
.LM2972:
	j	.L894
.LVL936:
.L901:
.LM2973:
	li	s1,-135
	j	.L895
	.cfi_endproc
.LFE283:
	.size	psa_aead_set_lengths, .-psa_aead_set_lengths
	.section	.text.psa_key_derivation_abort,"ax",@progbits
	.align	1
	.globl	psa_key_derivation_abort
	.type	psa_key_derivation_abort, @function
psa_key_derivation_abort:
.LVL937:
.LFB292:
.LM2974:
	.cfi_startproc
.LM2975:
.LM2976:
.LM2977:
	addi	sp,sp,-16
	.cfi_def_cfa_offset 16
	sw	s0,8(sp)
	sw	ra,12(sp)
	sw	s1,4(sp)
	.cfi_offset 8, -8
	.cfi_offset 1, -4
	.cfi_offset 9, -12
.LM2978:
	mv	s0,a0
.LM2979:
	lw	a0,0(a0)
.LVL938:
.LM2980:
	call	psa_key_derivation_get_kdf_alg.isra.0
.LVL939:
.LM2981:
.LM2982:
	beq	a0,zero,.L909
.LM2983:
.LM2984:
	li	a3,-134217728
	andi	a5,a0,-1280
	addi	a3,a3,-256
	add	a5,a5,a3
.LM2985:
	andi	a4,a0,-256
.LM2986:
	beq	a5,zero,.L921
.LM2987:
	li	a5,-134217728
	addi	a5,a5,-1024
	add	a5,a4,a5
.LM2988:
	bne	a5,zero,.L910
.L921:
.LM2989:
	lw	a0,16(s0)
.LVL940:
.LM2990:
	call	free
.LVL941:
.LM2991:
.LM2992:
	addi	a0,s0,160
	call	psa_mac_abort
.LVL942:
	mv	s1,a0
.LVL943:
.L912:
.LM2993:
	mv	a0,s0
	li	a1,560
	call	mbedtls_platform_zeroize
.LVL944:
.LM2994:
.LM2995:
	lw	ra,12(sp)
	.cfi_remember_state
	.cfi_restore 1
	lw	s0,8(sp)
	.cfi_restore 8
.LVL945:
.LM2996:
	mv	a0,s1
	lw	s1,4(sp)
	.cfi_restore 9
.LVL946:
.LM2997:
	addi	sp,sp,16
	.cfi_def_cfa_offset 0
	jr	ra
.LVL947:
.L910:
	.cfi_restore_state
.LM2998:
.LM2999:
	li	a5,134217728
.LM3000:
	andi	a3,a0,-512
.LM3001:
	addi	a5,a5,512
	bne	a3,a5,.L913
.LM3002:
.LM3003:
	lw	a0,20(s0)
.LVL948:
.LM3004:
	beq	a0,zero,.L914
.LM3005:
	lw	a1,24(s0)
	call	mbedtls_zeroize_and_free
.LVL949:
.L914:
.LM3006:
.LM3007:
	lw	a0,28(s0)
.LM3008:
	beq	a0,zero,.L915
.LM3009:
	lw	a1,32(s0)
	call	mbedtls_zeroize_and_free
.LVL950:
.L915:
.LM3010:
.LM3011:
	lw	a0,36(s0)
.LM3012:
	beq	a0,zero,.L916
.LM3013:
	lw	a1,40(s0)
	call	mbedtls_zeroize_and_free
.LVL951:
.L916:
.LM3014:
.LM3015:
	lw	a0,44(s0)
.LM3016:
	beq	a0,zero,.L909
.LM3017:
	lw	a1,48(s0)
.L939:
.LM3018:
	call	mbedtls_zeroize_and_free
.LVL952:
.L909:
.LM3019:
	li	s1,0
	j	.L912
.LVL953:
.L913:
.LM3020:
.LM3021:
	li	a5,134217728
	addi	a5,a5,1545
	bne	a0,a5,.L918
.LM3022:
	li	a1,32
	addi	a0,s0,16
.LVL954:
.LM3023:
	call	mbedtls_platform_zeroize
.LVL955:
	j	.L909
.LVL956:
.L918:
.LM3024:
.LM3025:
	li	a5,-142606336
	addi	a5,a5,-512
	add	a0,a0,a5
.LVL957:
.LM3026:
	beq	a0,zero,.L922
.LM3027:
	li	a5,-142606336
	addi	a5,a5,-256
	add	a4,a4,a5
.LM3028:
	li	s1,-137
.LM3029:
	bne	a4,zero,.L912
.L922:
.LM3030:
.LM3031:
	lw	a0,32(s0)
.LVL958:
.LM3032:
	beq	a0,zero,.L909
.LM3033:
	lw	a1,36(s0)
	j	.L939
	.cfi_endproc
.LFE292:
	.size	psa_key_derivation_abort, .-psa_key_derivation_abort
	.section	.text.psa_key_derivation_get_capacity,"ax",@progbits
	.align	1
	.globl	psa_key_derivation_get_capacity
	.type	psa_key_derivation_get_capacity, @function
psa_key_derivation_get_capacity:
.LVL959:
.LFB293:
.LM3034:
	.cfi_startproc
.LM3035:
.LM3036:
	lw	a5,0(a0)
	beq	a5,zero,.L942
.LM3037:
.LM3038:
	lw	a5,8(a0)
.LM3039:
	li	a0,0
.LVL960:
.LM3040:
	sw	a5,0(a1)
.LM3041:
.LM3042:
	ret
.LVL961:
.L942:
.LM3043:
	li	a0,-137
.LVL962:
.LM3044:
	ret
	.cfi_endproc
.LFE293:
	.size	psa_key_derivation_get_capacity, .-psa_key_derivation_get_capacity
	.section	.text.psa_key_derivation_set_capacity,"ax",@progbits
	.align	1
	.globl	psa_key_derivation_set_capacity
	.type	psa_key_derivation_set_capacity, @function
psa_key_derivation_set_capacity:
.LVL963:
.LFB294:
.LM3045:
	.cfi_startproc
.LM3046:
.LM3047:
	lw	a5,0(a0)
	beq	a5,zero,.L945
.LM3048:
.LM3049:
	lw	a4,8(a0)
.LM3050:
	li	a5,-135
.LM3051:
	bltu	a4,a1,.L943
.LM3052:
.LM3053:
	sw	a1,8(a0)
.LM3054:
.LM3055:
	li	a5,0
.L943:
.LM3056:
	mv	a0,a5
.LVL964:
.LM3057:
	ret
.LVL965:
.L945:
.LM3058:
	li	a5,-137
	j	.L943
	.cfi_endproc
.LFE294:
	.size	psa_key_derivation_set_capacity, .-psa_key_derivation_set_capacity
	.section	.text.psa_custom_key_parameters_are_default,"ax",@progbits
	.align	1
	.globl	psa_custom_key_parameters_are_default
	.type	psa_custom_key_parameters_are_default, @function
psa_custom_key_parameters_are_default:
.LVL966:
.LFB306:
.LM3059:
	.cfi_startproc
.LM3060:
.LM3061:
.LM3062:
	lw	a5,0(a0)
	or	a1,a1,a5
.LVL967:
.LM3063:
	seqz	a0,a1
.LVL968:
.LM3064:
	ret
	.cfi_endproc
.LFE306:
	.size	psa_custom_key_parameters_are_default, .-psa_custom_key_parameters_are_default
	.section	.text.psa_key_derivation_setup,"ax",@progbits
	.align	1
	.globl	psa_key_derivation_setup
	.type	psa_key_derivation_setup, @function
psa_key_derivation_setup:
.LVL969:
.LFB316:
.LM3065:
	.cfi_startproc
.LM3066:
.LM3067:
.LM3068:
	lw	a5,0(a0)
	bne	a5,zero,.L953
.LM3069:
	addi	sp,sp,-16
	.cfi_def_cfa_offset 16
.LM3070:
	li	a4,2130706432
.LM3071:
	sw	s0,8(sp)
	sw	s1,4(sp)
	sw	ra,12(sp)
	.cfi_offset 8, -8
	.cfi_offset 9, -12
	.cfi_offset 1, -4
.LM3072:
	and	a4,a1,a4
.LM3073:
	li	a5,150994944
	mv	s1,a0
	mv	s0,a1
.LM3074:
.LM3075:
	bne	a4,a5,.L950
.LM3076:
	li	a1,-167706624
.LVL970:
.LM3077:
	addi	a1,a1,-1
	and	a1,s0,a1
.LM3078:
	li	a5,-135
.LM3079:
	beq	a1,zero,.L948
.LM3080:
.LBB743:
.LM3081:
.LVL971:
.LM3082:
.LM3083:
.LBB744:
.LBI744:
.LM3084:
.LBB745:
.LM3085:
.LM3086:
.LBE745:
.LBE744:
.LM3087:
	li	a3,-151060480
	and	a5,s0,a3
.LM3088:
	or	a4,a5,a4
.LBB748:
.LBB746:
.LM3089:
	add	a4,a4,a3
	srli	a3,a4,17
	andi	a3,a3,-1
.LBE746:
.LBE748:
.LM3090:
	li	a5,-134
.LBB749:
.LBB747:
.LM3091:
	bne	a3,zero,.L948
.LBE747:
.LBE749:
.LM3092:
	li	a5,134217728
	or	a1,a1,a5
.LVL972:
.LM3093:
.LBB750:
.LBI750:
.LM3094:
.LBB751:
.LM3095:
.LM3096:
	addi	a4,a5,1545
.LBE751:
.LBE750:
.LBE743:
.LM3097:
	li	a5,-135
.LBB754:
.LBB753:
.LBB752:
.LM3098:
	beq	a1,a4,.L948
.LVL973:
.L963:
.LM3099:
.LBE752:
.LBE753:
.LBE754:
.LM3100:
.LM3101:
	call	psa_key_derivation_setup_kdf
.LVL974:
.LM3102:
	mv	a5,a0
.LVL975:
.LM3103:
.LM3104:
	bne	a0,zero,.L948
.LM3105:
.LM3106:
	sw	s0,0(s1)
	j	.L948
.LVL976:
.L950:
.LM3107:
.LM3108:
.LM3109:
	li	a3,134217728
.LM3110:
	li	a5,-135
.LM3111:
	beq	a4,a3,.L963
.L948:
.LM3112:
	lw	ra,12(sp)
	.cfi_restore 1
	lw	s0,8(sp)
	.cfi_restore 8
.LVL977:
.LM3113:
	lw	s1,4(sp)
	.cfi_restore 9
.LVL978:
.LM3114:
	mv	a0,a5
	addi	sp,sp,16
	.cfi_def_cfa_offset 0
	jr	ra
.LVL979:
.L953:
.LM3115:
	li	a5,-137
.LM3116:
	mv	a0,a5
.LVL980:
.LM3117:
	ret
	.cfi_endproc
.LFE316:
	.size	psa_key_derivation_setup, .-psa_key_derivation_setup
	.section	.text.psa_key_derivation_input_integer,"ax",@progbits
	.align	1
	.globl	psa_key_derivation_input_integer
	.type	psa_key_derivation_input_integer, @function
psa_key_derivation_input_integer:
.LVL981:
.LFB336:
.LM3118:
	.cfi_startproc
.LM3119:
.LM3120:
	addi	sp,sp,-32
	.cfi_def_cfa_offset 32
.LVL982:
.LBB759:
.LBI759:
.LM3121:
.LBB760:
.LM3122:
.LM3123:
.LBE760:
.LBE759:
.LM3124:
	sw	s1,20(sp)
	sw	ra,28(sp)
	sw	s0,24(sp)
	.cfi_offset 9, -12
	.cfi_offset 1, -4
	.cfi_offset 8, -8
.LM3125:
	mv	s1,a0
.LBB771:
.LBB767:
.LM3126:
	lw	a0,0(a0)
.LVL983:
.LM3127:
.LBE767:
.LBE771:
.LM3128:
	sw	a1,12(sp)
.LVL984:
.LM3129:
	sw	a2,8(sp)
.LVL985:
.LM3130:
	sw	a3,4(sp)
.LBB772:
.LBB768:
.LM3131:
	call	psa_key_derivation_get_kdf_alg.isra.0
.LVL986:
.LM3132:
.LM3133:
	beq	a0,zero,.L973
.LM3134:
.LM3135:
	li	a4,-142606336
.LM3136:
	andi	a5,a0,-256
.LM3137:
	addi	a4,a4,-256
	add	a5,a5,a4
.LM3138:
	lw	a3,4(sp)
	lw	a2,8(sp)
	lw	a1,12(sp)
	beq	a5,zero,.L976
	li	a5,-142606336
	addi	a5,a5,-512
	add	a0,a0,a5
.LVL987:
.LM3139:
	li	s0,-135
.LM3140:
	bne	a0,zero,.L965
.LVL988:
.L976:
.LM3141:
.LBB761:
.LBI761:
.LM3142:
.LBB762:
.LM3143:
.LM3144:
	li	a5,517
	bne	a1,a5,.L975
.LM3145:
.LM3146:
	lbu	a5,16(s1)
	bne	a5,zero,.L973
.LM3147:
.LM3148:
	bne	a3,zero,.L974
.LM3149:
.LM3150:
	beq	a2,zero,.L975
.LM3151:
.LM3152:
	li	a5,1
.LM3153:
	sw	a2,24(s1)
	sw	zero,28(s1)
.LM3154:
.LM3155:
	sb	a5,16(s1)
.LM3156:
.LVL989:
.LM3157:
.LBE762:
.LBE761:
.LM3158:
.LBB765:
.LBB763:
.LM3159:
	li	s0,0
.LVL990:
.L964:
.LM3160:
.LBE763:
.LBE765:
.LBE768:
.LBE772:
.LM3161:
	lw	ra,28(sp)
	.cfi_remember_state
	.cfi_restore 1
	mv	a0,s0
	lw	s0,24(sp)
	.cfi_restore 8
	lw	s1,20(sp)
	.cfi_restore 9
.LVL991:
.LM3162:
	addi	sp,sp,32
	.cfi_def_cfa_offset 0
.LVL992:
.LM3163:
	jr	ra
.LVL993:
.L973:
	.cfi_restore_state
.LBB773:
.LBB769:
.LM3164:
	li	s0,-137
.L965:
.LM3165:
	mv	a0,s1
	call	psa_key_derivation_abort
.LVL994:
.LM3166:
.LM3167:
.LBE769:
.LBE773:
.LM3168:
	j	.L964
.LVL995:
.L974:
.LBB774:
.LBB770:
.LBB766:
.LBB764:
.LM3169:
	li	s0,-134
	j	.L965
.L975:
.LBE764:
.LBE766:
.LM3170:
	li	s0,-135
	j	.L965
.LBE770:
.LBE774:
	.cfi_endproc
.LFE336:
	.size	psa_key_derivation_input_integer, .-psa_key_derivation_input_integer
	.section	.text.psa_key_agreement_raw_builtin,"ax",@progbits
	.align	1
	.globl	psa_key_agreement_raw_builtin
	.type	psa_key_agreement_raw_builtin, @function
psa_key_agreement_raw_builtin:
.LVL996:
.LFB338:
.LM3171:
	.cfi_startproc
.LM3172:
	li	t2,151060480
.LM3173:
	mv	t3,a4
	mv	t4,a5
	mv	t6,a7
.LM3174:
	beq	a3,t2,.L980
	li	t3,151126016
	bne	a3,t3,.L981
.LM3175:
.LM3176:
	tail	mbedtls_psa_key_agreement_ecdh
.LVL997:
.L980:
.LM3177:
.LM3178:
	lw	a7,0(sp)
.LVL998:
.LM3179:
	mv	a5,a6
.LVL999:
.LM3180:
	mv	a4,a2
.LVL1000:
.LM3181:
	mv	a3,a1
.LVL1001:
.LM3182:
	mv	a6,t6
.LVL1002:
.LM3183:
	mv	a2,t4
.LVL1003:
.LM3184:
	mv	a1,t3
.LVL1004:
.LM3185:
	tail	mbedtls_psa_ffdh_key_agreement
.LVL1005:
.L981:
.LM3186:
	li	a0,-134
.LVL1006:
.LM3187:
	ret
	.cfi_endproc
.LFE338:
	.size	psa_key_agreement_raw_builtin, .-psa_key_agreement_raw_builtin
	.section	.text.psa_generate_key_internal,"ax",@progbits
	.align	1
	.globl	psa_generate_key_internal
	.type	psa_generate_key_internal, @function
psa_generate_key_internal:
.LVL1007:
.LFB348:
.LM3188:
	.cfi_startproc
.LM3189:
.LM3190:
.LM3191:
	addi	sp,sp,-48
	.cfi_def_cfa_offset 48
	sw	s2,32(sp)
	sw	s3,28(sp)
	sw	s4,24(sp)
	sw	ra,44(sp)
	sw	s0,40(sp)
	sw	s1,36(sp)
	.cfi_offset 18, -16
	.cfi_offset 19, -20
	.cfi_offset 20, -24
	.cfi_offset 1, -4
	.cfi_offset 8, -8
	.cfi_offset 9, -12
.LM3192:
	lhu	s0,0(a0)
.LVL1008:
.LM3193:
.LM3194:
.LM3195:
.LM3196:
.LM3197:
	mv	s2,a0
	sw	a2,12(sp)
.LM3198:
	mv	a0,s0
.LVL1009:
.LM3199:
	sw	a3,8(sp)
	mv	s3,a4
	mv	s4,a5
	sw	a6,4(sp)
.LM3200:
	call	key_type_is_raw_bytes
.LVL1010:
.LM3201:
	lw	a3,4(sp)
	lw	a2,8(sp)
	lw	a1,12(sp)
	beq	a0,zero,.L983
.LM3202:
.LM3203:
	mv	a1,s4
	mv	a0,s3
	call	psa_generate_random_internal
.LVL1011:
	mv	s1,a0
.LVL1012:
.LM3204:
.LM3205:
	bne	a0,zero,.L982
.LM3206:
.LM3207:
	li	a5,8192
	addi	a5,a5,769
	bne	s0,a5,.L982
.LM3208:
	mv	a1,s4
	mv	a0,s3
	call	psa_des_set_key_parity
.LVL1013:
.L982:
.LM3209:
	lw	ra,44(sp)
	.cfi_remember_state
	.cfi_restore 1
	lw	s0,40(sp)
	.cfi_restore 8
	lw	s2,32(sp)
	.cfi_restore 18
.LVL1014:
.LM3210:
	lw	s3,28(sp)
	.cfi_restore 19
.LVL1015:
.LM3211:
	lw	s4,24(sp)
	.cfi_restore 20
.LVL1016:
.LM3212:
	mv	a0,s1
	lw	s1,36(sp)
	.cfi_restore 9
	addi	sp,sp,48
	.cfi_def_cfa_offset 0
.LVL1017:
.LM3213:
	jr	ra
.LVL1018:
.L983:
	.cfi_restore_state
.LM3214:
.LM3215:
	li	a4,28672
	addi	a5,a4,1
	bne	s0,a5,.L987
.LM3216:
.LM3217:
	lw	s0,40(sp)
	.cfi_remember_state
	.cfi_restore 8
.LVL1019:
.LM3218:
	lw	ra,44(sp)
	.cfi_restore 1
	lw	s1,36(sp)
	.cfi_restore 9
.LM3219:
	mv	a5,a3
	mv	a4,s4
	mv	a3,s3
.LVL1020:
.LM3220:
	lw	s4,24(sp)
	.cfi_restore 20
.LVL1021:
.LM3221:
	lw	s3,28(sp)
	.cfi_restore 19
.LVL1022:
.LM3222:
	mv	a0,s2
.LM3223:
	lw	s2,32(sp)
	.cfi_restore 18
.LVL1023:
.LM3224:
	addi	sp,sp,48
	.cfi_def_cfa_offset 0
.LVL1024:
.LM3225:
	tail	mbedtls_psa_rsa_generate_key
.LVL1025:
.L987:
	.cfi_restore_state
.LM3226:
.LM3227:
	srai	a5,s0,8
	andi	a5,a5,207
	li	a2,65
.LVL1026:
.LM3228:
	bne	a5,a2,.L988
.LM3229:
	and	s0,s0,a4
.LVL1027:
.LM3230:
	li	s1,-134
.LM3231:
	bne	s0,a4,.L982
.LM3232:
.LM3233:
	lw	s0,40(sp)
	.cfi_remember_state
	.cfi_restore 8
	lw	ra,44(sp)
	.cfi_restore 1
	lw	s1,36(sp)
	.cfi_restore 9
.LM3234:
	mv	a2,s4
	mv	a1,s3
.LVL1028:
.LM3235:
	lw	s4,24(sp)
	.cfi_restore 20
.LVL1029:
.LM3236:
	lw	s3,28(sp)
	.cfi_restore 19
.LVL1030:
.LM3237:
	mv	a0,s2
.LM3238:
	lw	s2,32(sp)
	.cfi_restore 18
.LVL1031:
.LM3239:
	addi	sp,sp,48
	.cfi_def_cfa_offset 0
.LVL1032:
.LM3240:
	tail	mbedtls_psa_ecp_generate_key
.LVL1033:
.L988:
	.cfi_restore_state
.LM3241:
.LM3242:
	lw	a5,0(s2)
.LM3243:
	li	a2,114
	srai	a4,a5,8
	andi	a4,a4,255
	bne	a4,a2,.L990
.LM3244:
.LM3245:
	lw	s0,40(sp)
	.cfi_remember_state
	.cfi_restore 8
.LVL1034:
.LM3246:
	lw	ra,44(sp)
	.cfi_restore 1
	lw	s1,36(sp)
	.cfi_restore 9
.LM3247:
	mv	a2,s4
	mv	a1,s3
.LVL1035:
.LM3248:
	lw	s4,24(sp)
	.cfi_restore 20
.LVL1036:
.LM3249:
	lw	s3,28(sp)
	.cfi_restore 19
.LVL1037:
.LM3250:
	mv	a0,s2
.LM3251:
	lw	s2,32(sp)
	.cfi_restore 18
.LVL1038:
.LM3252:
	addi	sp,sp,48
	.cfi_def_cfa_offset 0
.LVL1039:
.LM3253:
	tail	mbedtls_psa_ffdh_generate_key
.LVL1040:
.L990:
	.cfi_restore_state
.LM3254:
	li	s1,-134
	j	.L982
	.cfi_endproc
.LFE348:
	.size	psa_generate_key_internal, .-psa_generate_key_internal
	.section	.text.psa_generate_key_custom,"ax",@progbits
	.align	1
	.globl	psa_generate_key_custom
	.type	psa_generate_key_custom, @function
psa_generate_key_custom:
.LVL1041:
.LFB349:
.LM3255:
	.cfi_startproc
.LM3256:
.LM3257:
.LM3258:
	addi	sp,sp,-64
	.cfi_def_cfa_offset 64
	sw	s1,52(sp)
	sw	ra,60(sp)
	sw	s0,56(sp)
	sw	s2,48(sp)
	sw	s3,44(sp)
	sw	s4,40(sp)
	sw	s5,36(sp)
	sw	s6,32(sp)
	sw	s7,28(sp)
	sw	s8,24(sp)
	.cfi_offset 9, -12
	.cfi_offset 1, -4
	.cfi_offset 8, -8
	.cfi_offset 18, -16
	.cfi_offset 19, -20
	.cfi_offset 20, -24
	.cfi_offset 21, -28
	.cfi_offset 22, -32
	.cfi_offset 23, -36
	.cfi_offset 24, -40
.LM3259:
	sw	zero,0(a4)
.LM3260:
	lhu	a5,2(a0)
.LM3261:
	sw	zero,4(sp)
.LM3262:
.LM3263:
	sw	zero,8(sp)
.LM3264:
.LM3265:
.LM3266:
.LVL1042:
.LBB789:
.LBI789:
.LM3267:
.LBB790:
.LM3268:
.LM3269:
.LBE790:
.LBE789:
.LM3270:
	li	s1,-135
.LM3271:
	beq	a5,zero,.L992
.LM3272:
.LM3273:
	lhu	a6,0(a0)
.LM3274:
	li	a7,4
.LM3275:
	li	s1,-135
.LM3276:
	srai	a5,a6,12
	andi	a5,a5,7
	beq	a5,a7,.L992
.LM3277:
	li	a5,28672
	addi	a5,a5,1
	mv	s4,a4
	mv	s7,a3
	mv	s8,a2
	mv	s3,a1
	mv	s2,a0
.LM3278:
.LM3279:
	bne	a6,a5,.L994
.LM3280:
.LM3281:
	lw	a5,0(a1)
	beq	a5,zero,.L995
.LVL1043:
.L992:
.LM3282:
	lw	ra,60(sp)
	.cfi_remember_state
	.cfi_restore 1
	lw	s0,56(sp)
	.cfi_restore 8
	lw	s2,48(sp)
	.cfi_restore 18
	lw	s3,44(sp)
	.cfi_restore 19
	lw	s4,40(sp)
	.cfi_restore 20
	lw	s5,36(sp)
	.cfi_restore 21
	lw	s6,32(sp)
	.cfi_restore 22
	lw	s7,28(sp)
	.cfi_restore 23
	lw	s8,24(sp)
	.cfi_restore 24
	mv	a0,s1
	lw	s1,52(sp)
	.cfi_restore 9
	addi	sp,sp,64
	.cfi_def_cfa_offset 0
	jr	ra
.LVL1044:
.L994:
	.cfi_restore_state
.LM3283:
.LM3284:
	mv	a1,a3
.LVL1045:
.LM3285:
	mv	a0,s3
.LVL1046:
.LM3286:
	call	psa_custom_key_parameters_are_default
.LVL1047:
.LM3287:
	li	s1,-135
.LM3288:
	beq	a0,zero,.L992
.L995:
.LM3289:
.LM3290:
	addi	a2,sp,8
	addi	a1,sp,4
	mv	a0,s2
	call	psa_start_key_creation.isra.0
.LVL1048:
	mv	s1,a0
.LVL1049:
.LM3291:
.LM3292:
	bne	a0,zero,.L996
.LM3293:
.LM3294:
	lw	a5,4(sp)
.LM3295:
	lw	a5,36(a5)
	beq	a5,zero,.L997
.L1015:
.LM3296:
.LVL1050:
.LBB791:
.LBI791:
.LM3297:
.LBB792:
.LM3298:
.LM3299:
.LBB793:
.LBI793:
.LM3300:
.LBB794:
.LM3301:
.LM3302:
.LBE794:
.LBE793:
.LM3303:
.LM3304:
.LM3305:
	lw	a5,4(s2)
	srli	a5,a5,8
.LVL1051:
.LM3306:
	bne	a5,zero,.L998
.LBE792:
.LBE791:
.LM3307:
	lw	a4,4(sp)
.LBB797:
.LBB795:
.LM3308:
.LM3309:
	mv	a3,s7
	mv	a2,s8
	lw	a5,36(a4)
.LVL1052:
.LM3310:
	addi	a6,a4,36
	lw	a4,32(a4)
	mv	a1,s3
	mv	a0,s2
	call	psa_generate_key_internal
.LVL1053:
.LM3311:
	mv	s1,a0
.LVL1054:
.LM3312:
.LM3313:
.LBE795:
.LBE797:
.LM3314:
.LM3315:
	bne	a0,zero,.L1016
.LM3316:
	lw	a5,4(sp)
.LVL1055:
.LM3317:
.LM3318:
.LBB798:
.LBI798:
.LM3319:
.LBB799:
.LM3320:
.LM3321:
.LM3322:
.LM3323:
.LM3324:
.LM3325:
	lw	a4,20(a5)
.LM3326:
	sw	a4,0(s4)
.LM3327:
.LVL1056:
.LBB800:
.LBI800:
.LM3328:
.LBB801:
.LM3329:
.LM3330:
	lbu	a3,24(a5)
	li	a4,1
	beq	a3,a4,.L1030
.LVL1057:
.LM3331:
.LBE801:
.LBE800:
.LM3332:
.LM3333:
.LM3334:
	sw	zero,0(s4)
.LM3335:
.LVL1058:
.LM3336:
.LBE799:
.LBE798:
.LM3337:
.LM3338:
	li	s1,-151
	j	.L996
.LVL1059:
.L997:
.LM3339:
	lw	s6,4(s2)
	srli	s6,s6,8
.LM3340:
.LM3341:
	bne	s6,zero,.L1000
.LM3342:
.LM3343:
	lhu	s5,0(s2)
.LM3344:
	lhu	s0,2(s2)
.LVL1060:
.LBB805:
.LBI805:
.LM3345:
.LBB806:
.LM3346:
.LM3347:
.LM3348:
	mv	a0,s5
	call	key_type_is_raw_bytes
.LVL1061:
.LM3349:
	beq	a0,zero,.L1001
.LM3350:
.LM3351:
	mv	a1,s0
	mv	a0,s5
	call	psa_validate_unstructured_key_bit_size
.LVL1062:
	mv	s1,a0
.LVL1063:
.LM3352:
.LM3353:
.LBE806:
.LBE805:
.LM3354:
.LM3355:
	bne	a0,zero,.L996
.L1002:
.LVL1064:
.LM3356:
.LM3357:
	li	a5,28672
	and	a5,s5,a5
	addi	a5,a5,-2048
	addi	a5,a5,-2048
.LM3358:
	srli	a4,a5,13
	andi	a4,a4,7
	bne	a4,zero,.L1006
.L1035:
.LM3359:
	addi	s0,s0,7
.LM3360:
	srli	s6,s0,3
	j	.L1007
.LVL1065:
.L1001:
.LM3361:
	lw	a4,0(s2)
.LBB810:
.LBB807:
.LM3362:
.LM3363:
	li	a3,28672
	addi	a5,a3,1
.LM3364:
	slli	a2,a4,16
	srli	a2,a2,16
.LM3365:
	bne	a2,a5,.L1003
.LM3366:
.LM3367:
.LM3368:
	li	a5,4096
	addi	a4,s0,-1024
	addi	a5,a5,-1024
	bgtu	a4,a5,.L1028
.LM3369:
.LM3370:
	andi	a5,s0,7
	beq	a5,zero,.L1002
.L1028:
.LM3371:
.LBE807:
.LBE810:
.LM3372:
	li	s1,-134
.LVL1066:
.LM3373:
	j	.L996
.LVL1067:
.L1003:
.LBB811:
.LBB808:
.LM3374:
.LM3375:
	srai	a5,s5,8
	andi	a5,a5,207
	li	a2,65
	bne	a5,a2,.L1004
.LM3376:
	and	a5,s5,a3
	bne	a5,a3,.L1028
.LVL1068:
.L1008:
.LM3377:
.LBE808:
.LBE811:
.LM3378:
	li	a5,28672
	addi	a5,a5,1
	bne	s5,a5,.L1009
.LM3379:
	srli	s0,s0,1
.LM3380:
	addi	s0,s0,1
.LM3381:
	srli	s0,s0,3
.LM3382:
	li	a5,9
	mul	s0,s0,a5
	addi	s6,s0,59
.L1007:
.LM3383:
	sw	s6,12(sp)
.L1014:
.LM3384:
.LM3385:
	lw	a1,12(sp)
	lw	a0,4(sp)
	call	psa_allocate_buffer_to_slot
.LVL1069:
	mv	s1,a0
.LVL1070:
.LM3386:
.LM3387:
	beq	a0,zero,.L1015
	j	.L996
.LVL1071:
.L1004:
.LBB812:
.LBB809:
.LM3388:
.LM3389:
	srai	a5,a4,8
	andi	a5,a5,255
	li	a3,114
	bne	a5,a3,.L1028
.LM3390:
.LM3391:
	mv	a0,s0
	call	psa_is_dh_key_size_valid
.LVL1072:
.LM3392:
	bne	a0,zero,.L1002
	j	.L1028
.LVL1073:
.L1006:
.LM3393:
.LBE809:
.LBE812:
.LM3394:
	srai	a5,s5,8
	andi	a5,a5,207
	li	a4,66
	bne	a5,a4,.L1008
	j	.L1035
.L1009:
.LM3395:
	li	a5,16384
	addi	a5,a5,1
	bne	s5,a5,.L1010
.LM3396:
	srli	s0,s0,3
.LM3397:
	addi	s6,s0,16
	j	.L1007
.L1010:
.LM3398:
	li	a5,28672
	addi	a5,a5,2
	bne	s5,a5,.L1011
.LM3399:
	srli	s0,s0,3
.LM3400:
	li	a5,3
	mul	s0,s0,a5
	addi	s6,s0,90
	j	.L1007
.L1011:
.LM3401:
	li	a5,16384
	addi	a5,a5,2
	bne	s5,a5,.L1012
.LM3402:
	srli	s0,s0,3
.LM3403:
	li	a5,3
	mul	s0,s0,a5
	addi	s6,s0,74
	j	.L1007
.L1012:
.LM3404:
	srai	a5,s5,8
	andi	a5,a5,255
	li	a3,113
	andi	a4,s5,-256
	beq	a5,a3,.L1035
.LM3405:
	li	a5,16384
	addi	a5,a5,256
	bne	a4,a5,.L1007
.LM3406:
	addi	s0,s0,7
.LM3407:
	srli	s0,s0,3
.LM3408:
	slli	s0,s0,1
.LM3409:
	addi	s6,s0,1
	j	.L1007
.LVL1074:
.L1000:
.LM3410:
.LM3411:
	addi	a1,sp,12
	mv	a0,s2
	call	psa_driver_wrapper_get_key_buffer_size
.LVL1075:
	mv	s1,a0
.LVL1076:
.LM3412:
.LM3413:
	beq	a0,zero,.L1014
.LVL1077:
.L996:
.LM3414:
	lw	a0,4(sp)
.LVL1078:
.LBB813:
.LBI813:
.LM3415:
.LBB814:
.LM3416:
.LM3417:
.LM3418:
	beq	a0,zero,.L992
.LM3419:
	call	psa_wipe_key_slot
.LVL1079:
.LM3420:
	j	.L992
.LVL1080:
.L998:
.LM3421:
.LBE814:
.LBE813:
.LBB815:
.LBB796:
.LM3422:
	mv	a1,s7
	mv	a0,s3
	call	psa_custom_key_parameters_are_default
.LVL1081:
.LM3423:
	li	s1,-134
.LVL1082:
.LM3424:
	sub	s1,s1,a0
.LVL1083:
.L1016:
.LM3425:
.LBE796:
.LBE815:
.LM3426:
	lw	a0,4(sp)
	call	psa_remove_key_data_from_memory
.LVL1084:
.LDL6:
.LM3427:
	j	.L996
.LVL1085:
.L1030:
.LBB816:
.LBB804:
.LBB803:
.LBB802:
.LM3428:
.LM3429:
	li	a4,2
	sb	a4,24(a5)
.LM3430:
.LVL1086:
.LM3431:
.LBE802:
.LBE803:
.LM3432:
.LM3433:
.LM3434:
.LBE804:
.LBE816:
.LM3435:
	j	.L992
	.cfi_endproc
.LFE349:
	.size	psa_generate_key_custom, .-psa_generate_key_custom
	.section	.text.psa_generate_key_ext,"ax",@progbits
	.align	1
	.globl	psa_generate_key_ext
	.type	psa_generate_key_ext, @function
psa_generate_key_ext:
.LVL1087:
.LFB350:
.LM3436:
	.cfi_startproc
.LM3437:
.LM3438:
	mv	a4,a3
.LM3439:
	mv	a3,a2
.LVL1088:
.LM3440:
	addi	a2,a1,4
.LVL1089:
.LM3441:
	tail	psa_generate_key_custom
.LVL1090:
.LM3442:
	.cfi_endproc
.LFE350:
	.size	psa_generate_key_ext, .-psa_generate_key_ext
	.section	.text.psa_generate_key,"ax",@progbits
	.align	1
	.globl	psa_generate_key
	.type	psa_generate_key, @function
psa_generate_key:
.LVL1091:
.LFB351:
.LM3443:
	.cfi_startproc
.LM3444:
.LM3445:
	mv	a4,a1
.LM3446:
	lui	a1,%hi(default_custom_production)
.LVL1092:
.LM3447:
	li	a3,0
	li	a2,0
	addi	a1,a1,%lo(default_custom_production)
	tail	psa_generate_key_custom
.LVL1093:
.LM3448:
	.cfi_endproc
.LFE351:
	.size	psa_generate_key, .-psa_generate_key
	.section	.text.mbedtls_psa_crypto_configure_entropy_sources,"ax",@progbits
	.align	1
	.globl	mbedtls_psa_crypto_configure_entropy_sources
	.type	mbedtls_psa_crypto_configure_entropy_sources, @function
mbedtls_psa_crypto_configure_entropy_sources:
.LVL1094:
.LFB352:
.LM3449:
	.cfi_startproc
.LM3450:
.LM3451:
.LM3452:
	lui	a5,%hi(global_data)
	addi	a5,a5,%lo(global_data)
.LM3453:
	lbu	a4,1(a5)
	bne	a4,zero,.L1040
.LM3454:
.LM3455:
	sw	a0,4(a5)
.LM3456:
.LM3457:
	sw	a1,8(a5)
.LM3458:
.LVL1095:
.LM3459:
	li	a0,0
.LVL1096:
.LM3460:
	ret
.LVL1097:
.L1040:
.LM3461:
	li	a0,-137
.LVL1098:
.LM3462:
.LM3463:
	ret
	.cfi_endproc
.LFE352:
	.size	mbedtls_psa_crypto_configure_entropy_sources, .-mbedtls_psa_crypto_configure_entropy_sources
	.section	.text.mbedtls_psa_crypto_free,"ax",@progbits
	.align	1
	.globl	mbedtls_psa_crypto_free
	.type	mbedtls_psa_crypto_free, @function
mbedtls_psa_crypto_free:
.LFB353:
.LM3464:
	.cfi_startproc
.LM3465:
.LM3466:
	addi	sp,sp,-16
	.cfi_def_cfa_offset 16
	sw	s0,8(sp)
	.cfi_offset 8, -8
.LM3467:
	lui	s0,%hi(global_data)
.LM3468:
	sw	ra,12(sp)
	.cfi_offset 1, -4
.LM3469:
	addi	s0,s0,%lo(global_data)
	lbu	a5,0(s0)
.LM3470:
	andi	a4,a5,4
	beq	a4,zero,.L1042
.LM3471:
.LM3472:
	andi	a5,a5,251
	sb	a5,0(s0)
.L1042:
.LM3473:
.LM3474:
	andi	a5,a5,2
	beq	a5,zero,.L1043
.LM3475:
	call	psa_wipe_all_key_slots
.LVL1099:
.LM3476:
.LM3477:
	lbu	a5,0(s0)
	andi	a5,a5,-3
	sb	a5,0(s0)
.L1043:
.LM3478:
.LM3479:
	lbu	a5,1(s0)
	beq	a5,zero,.L1044
.LM3480:
.LBB823:
.LBI823:
.LM3481:
.LVL1100:
.LBB824:
.LM3482:
.LBB825:
.LBI825:
.LM3483:
.LBB826:
.LM3484:
	lui	a0,%hi(global_data+432)
	addi	a0,a0,%lo(global_data+432)
	call	mbedtls_ctr_drbg_free
.LVL1101:
.LM3485:
.LBE826:
.LBE825:
.LM3486:
	lw	a5,8(s0)
	lui	a0,%hi(global_data+12)
	addi	a0,a0,%lo(global_data+12)
	jalr	a5
.LVL1102:
.L1044:
.LM3487:
.LBE824:
.LBE823:
.LM3488:
.LM3489:
	lui	a0,%hi(global_data+4)
	li	a1,748
	addi	a0,a0,%lo(global_data+4)
.LM3490:
	sb	zero,1(s0)
.LM3491:
	call	mbedtls_platform_zeroize
.LVL1103:
.LM3492:
.LM3493:
	lbu	a5,0(s0)
.LM3494:
	andi	a4,a5,1
	beq	a4,zero,.L1041
.LM3495:
.LM3496:
.LM3497:
	andi	a5,a5,-2
	sb	a5,0(s0)
.L1041:
.LM3498:
	lw	ra,12(sp)
	.cfi_restore 1
	lw	s0,8(sp)
	.cfi_restore 8
	addi	sp,sp,16
	.cfi_def_cfa_offset 0
	jr	ra
	.cfi_endproc
.LFE353:
	.size	mbedtls_psa_crypto_free, .-mbedtls_psa_crypto_free
	.section	.text.psa_crypto_init,"ax",@progbits
	.align	1
	.globl	psa_crypto_init
	.type	psa_crypto_init, @function
psa_crypto_init:
.LFB355:
.LM3499:
	.cfi_startproc
.LM3500:
.LM3501:
.LBB847:
.LBI847:
.LM3502:
.LBB848:
.LM3503:
.LM3504:
.LVL1104:
.LM3505:
.LBE848:
.LBE847:
.LM3506:
	addi	sp,sp,-48
	.cfi_def_cfa_offset 48
	sw	s0,40(sp)
	.cfi_offset 8, -8
.LBB851:
.LBB849:
.LM3507:
	lui	s0,%hi(global_data)
.LBE849:
.LBE851:
.LM3508:
	sw	ra,44(sp)
	sw	s1,36(sp)
	sw	s2,32(sp)
	.cfi_offset 1, -4
	.cfi_offset 9, -12
	.cfi_offset 18, -16
.LBB852:
.LBB850:
.LM3509:
	addi	s0,s0,%lo(global_data)
.LM3510:
	lhu	a4,0(s0)
.LM3511:
	li	a5,519
	beq	a4,a5,.L1061
.LM3512:
	lbu	a5,0(s0)
.LM3513:
.LVL1105:
.LM3514:
.LBE850:
.LBE852:
.LM3515:
.LBB853:
.LBI853:
.LM3516:
.LBB854:
.LM3517:
.LM3518:
.LM3519:
.LM3520:
.LM3521:
	andi	a4,a5,1
	bne	a4,zero,.L1062
.LM3522:
.LVL1106:
.LM3523:
.LM3524:
	ori	a5,a5,1
	sb	a5,0(s0)
.LVL1107:
.L1062:
.LM3525:
.LM3526:
.LBE854:
.LBE853:
.LM3527:
.LM3528:
.LBB855:
.LBI855:
.LM3529:
.LBB856:
.LM3530:
.LM3531:
.LM3532:
.LM3533:
.LM3534:
	andi	a5,a5,2
	beq	a5,zero,.L1063
.LVL1108:
.L1067:
.LM3535:
.LBE856:
.LBE855:
.LM3536:
.LBB858:
.LBI858:
.LM3537:
.LBB859:
.LM3538:
.LM3539:
.LM3540:
.LM3541:
.LM3542:
.LM3543:
	lw	a5,0(s0)
	li	a4,65536
	addi	a4,a4,-255
	and	a5,a5,a4
.LM3544:
	li	a4,1
	bne	a5,a4,.L1065
.LM3545:
.LBB860:
.LBI860:
.LM3546:
.LVL1109:
.LBB861:
.LM3547:
.LM3548:
	lw	a5,4(s0)
.LM3549:
	bne	a5,zero,.L1068
.LM3550:
.LM3551:
	lui	a5,%hi(mbedtls_entropy_init)
	addi	a5,a5,%lo(mbedtls_entropy_init)
	sw	a5,4(s0)
.L1068:
.LM3552:
.LM3553:
	lw	a4,8(s0)
	bne	a4,zero,.L1069
.LM3554:
.LM3555:
	lui	a4,%hi(mbedtls_entropy_free)
	addi	a4,a4,%lo(mbedtls_entropy_free)
	sw	a4,8(s0)
.L1069:
.LM3556:
	lui	s2,%hi(global_data+12)
	addi	a0,s2,%lo(global_data+12)
	jalr	a5
.LVL1110:
.LM3557:
.LBB862:
.LBI862:
.LM3558:
.LBB863:
.LM3559:
	lui	s1,%hi(global_data+432)
	addi	a0,s1,%lo(global_data+432)
	call	mbedtls_ctr_drbg_init
.LVL1111:
.LM3560:
.LBE863:
.LBE862:
.LBE861:
.LBE860:
.LM3561:
.LM3562:
	li	a5,1
	sb	a5,1(s0)
.LM3563:
.LBB864:
.LBI864:
.LM3564:
.LVL1112:
.LBB865:
.LM3565:
.LBB866:
.LBB867:
.LM3566:
	lui	a1,%hi(mbedtls_entropy_func)
.LBE867:
.LBE866:
.LM3567:
	li	a5,4280320
	addi	a5,a5,848
.LBB870:
.LBB868:
.LM3568:
	li	a4,3
	addi	a3,sp,28
	addi	a2,s2,%lo(global_data+12)
	addi	a1,a1,%lo(mbedtls_entropy_func)
	addi	a0,s1,%lo(global_data+432)
.LBE868:
.LBE870:
.LM3569:
	sw	a5,28(sp)
.LM3570:
.LVL1113:
.LBB871:
.LBI866:
.LM3571:
.LBB869:
.LM3572:
.LM3573:
	call	mbedtls_ctr_drbg_seed
.LVL1114:
.LM3574:
.LBE869:
.LBE871:
.LM3575:
.LM3576:
	call	mbedtls_to_psa_error
.LVL1115:
.LM3577:
.LBE865:
.LBE864:
.LM3578:
.LM3579:
	bne	a0,zero,.L1066
.LM3580:
.LM3581:
	li	a5,2
	sb	a5,1(s0)
.LM3582:
.LVL1116:
.LM3583:
.LBE859:
.LBE858:
.LM3584:
.L1065:
.LM3585:
.LBB872:
.LBI872:
.LM3586:
.LBB873:
.LM3587:
.LM3588:
.LM3589:
.LM3590:
.LM3591:
	lbu	a5,0(s0)
.LM3592:
	andi	a4,a5,4
	bne	a4,zero,.L1061
.LM3593:
.LM3594:
	ori	a5,a5,4
	sb	a5,0(s0)
.LM3595:
.LVL1117:
.L1061:
.LM3596:
.LBE873:
.LBE872:
.LM3597:
	li	a0,0
.L1059:
.LM3598:
	lw	ra,44(sp)
	.cfi_remember_state
	.cfi_restore 1
	lw	s0,40(sp)
	.cfi_restore 8
	lw	s1,36(sp)
	.cfi_restore 9
	lw	s2,32(sp)
	.cfi_restore 18
	addi	sp,sp,48
	.cfi_def_cfa_offset 0
	jr	ra
.LVL1118:
.L1063:
	.cfi_restore_state
.LBB874:
.LBB857:
.LM3599:
.LM3600:
	call	psa_initialize_key_slots
.LVL1119:
.LM3601:
.LM3602:
	lbu	a5,0(s0)
	ori	a5,a5,2
	sb	a5,0(s0)
.LM3603:
.LVL1120:
.LM3604:
.LBE857:
.LBE874:
.LM3605:
.LM3606:
	beq	a0,zero,.L1067
.LVL1121:
.L1066:
.LM3607:
	sw	a0,12(sp)
.LM3608:
	call	mbedtls_psa_crypto_free
.LVL1122:
	lw	a0,12(sp)
.LDL7:
	j	.L1059
	.cfi_endproc
.LFE355:
	.size	psa_crypto_init, .-psa_crypto_init
	.section	.text.psa_crypto_driver_pake_get_password_len,"ax",@progbits
	.align	1
	.globl	psa_crypto_driver_pake_get_password_len
	.type	psa_crypto_driver_pake_get_password_len, @function
psa_crypto_driver_pake_get_password_len:
.LVL1123:
.LFB356:
.LM3609:
	.cfi_startproc
.LM3610:
.LM3611:
	lw	a5,4(a0)
.LM3612:
	beq	a5,zero,.L1075
.LM3613:
.LM3614:
	sw	a5,0(a1)
.LM3615:
.LM3616:
	li	a0,0
.LVL1124:
.LM3617:
	ret
.LVL1125:
.L1075:
.LM3618:
	li	a0,-137
.LVL1126:
.LM3619:
	ret
	.cfi_endproc
.LFE356:
	.size	psa_crypto_driver_pake_get_password_len, .-psa_crypto_driver_pake_get_password_len
	.section	.text.psa_crypto_driver_pake_get_password,"ax",@progbits
	.align	1
	.globl	psa_crypto_driver_pake_get_password
	.type	psa_crypto_driver_pake_get_password, @function
psa_crypto_driver_pake_get_password:
.LVL1127:
.LFB357:
.LM3620:
	.cfi_startproc
.LM3621:
.LM3622:
	lw	a4,4(a0)
.LM3623:
	beq	a4,zero,.L1078
	mv	a5,a0
.LM3624:
.LM3625:
	li	a0,-138
.LVL1128:
.LM3626:
	bgtu	a4,a2,.L1081
.LM3627:
	addi	sp,sp,-32
	.cfi_def_cfa_offset 32
	sw	ra,28(sp)
	.cfi_offset 1, -4
	mv	a0,a1
.LM3628:
	lw	a1,0(a5)
.LVL1129:
.LM3629:
	mv	a2,a4
.LVL1130:
.LM3630:
	sw	a3,12(sp)
	sw	a5,8(sp)
	call	memcpy
.LVL1131:
.LM3631:
.LM3632:
	lw	a5,8(sp)
.LM3633:
	lw	a3,12(sp)
.LM3634:
	li	a0,0
.LM3635:
	lw	a5,4(a5)
.LM3636:
	sw	a5,0(a3)
.LM3637:
.LM3638:
	lw	ra,28(sp)
	.cfi_restore 1
	addi	sp,sp,32
	.cfi_def_cfa_offset 0
.LVL1132:
.LM3639:
	jr	ra
.LVL1133:
.L1078:
.LM3640:
	li	a0,-137
.LVL1134:
.LM3641:
	ret
.LVL1135:
.L1081:
.LM3642:
	ret
	.cfi_endproc
.LFE357:
	.size	psa_crypto_driver_pake_get_password, .-psa_crypto_driver_pake_get_password
	.section	.text.psa_crypto_driver_pake_get_user_len,"ax",@progbits
	.align	1
	.globl	psa_crypto_driver_pake_get_user_len
	.type	psa_crypto_driver_pake_get_user_len, @function
psa_crypto_driver_pake_get_user_len:
.LVL1136:
.LFB358:
.LM3643:
	.cfi_startproc
.LM3644:
.LM3645:
	lw	a5,12(a0)
.LM3646:
	beq	a5,zero,.L1086
.LM3647:
.LM3648:
	sw	a5,0(a1)
.LM3649:
.LM3650:
	li	a0,0
.LVL1137:
.LM3651:
	ret
.LVL1138:
.L1086:
.LM3652:
	li	a0,-137
.LVL1139:
.LM3653:
	ret
	.cfi_endproc
.LFE358:
	.size	psa_crypto_driver_pake_get_user_len, .-psa_crypto_driver_pake_get_user_len
	.section	.text.psa_crypto_driver_pake_get_user,"ax",@progbits
	.align	1
	.globl	psa_crypto_driver_pake_get_user
	.type	psa_crypto_driver_pake_get_user, @function
psa_crypto_driver_pake_get_user:
.LVL1140:
.LFB359:
.LM3654:
	.cfi_startproc
.LM3655:
.LM3656:
	lw	a4,12(a0)
.LM3657:
	beq	a4,zero,.L1089
	mv	a5,a0
.LM3658:
.LM3659:
	li	a0,-138
.LVL1141:
.LM3660:
	bgtu	a4,a2,.L1092
.LM3661:
	addi	sp,sp,-32
	.cfi_def_cfa_offset 32
	sw	ra,28(sp)
	.cfi_offset 1, -4
	mv	a0,a1
.LM3662:
	lw	a1,8(a5)
.LVL1142:
.LM3663:
	mv	a2,a4
.LVL1143:
.LM3664:
	sw	a3,12(sp)
	sw	a5,8(sp)
	call	memcpy
.LVL1144:
.LM3665:
.LM3666:
	lw	a5,8(sp)
.LM3667:
	lw	a3,12(sp)
.LM3668:
	li	a0,0
.LM3669:
	lw	a5,12(a5)
.LM3670:
	sw	a5,0(a3)
.LM3671:
.LM3672:
	lw	ra,28(sp)
	.cfi_restore 1
	addi	sp,sp,32
	.cfi_def_cfa_offset 0
.LVL1145:
.LM3673:
	jr	ra
.LVL1146:
.L1089:
.LM3674:
	li	a0,-137
.LVL1147:
.LM3675:
	ret
.LVL1148:
.L1092:
.LM3676:
	ret
	.cfi_endproc
.LFE359:
	.size	psa_crypto_driver_pake_get_user, .-psa_crypto_driver_pake_get_user
	.section	.text.psa_crypto_driver_pake_get_peer_len,"ax",@progbits
	.align	1
	.globl	psa_crypto_driver_pake_get_peer_len
	.type	psa_crypto_driver_pake_get_peer_len, @function
psa_crypto_driver_pake_get_peer_len:
.LVL1149:
.LFB360:
.LM3677:
	.cfi_startproc
.LM3678:
.LM3679:
	lw	a5,20(a0)
.LM3680:
	beq	a5,zero,.L1097
.LM3681:
.LM3682:
	sw	a5,0(a1)
.LM3683:
.LM3684:
	li	a0,0
.LVL1150:
.LM3685:
	ret
.LVL1151:
.L1097:
.LM3686:
	li	a0,-137
.LVL1152:
.LM3687:
	ret
	.cfi_endproc
.LFE360:
	.size	psa_crypto_driver_pake_get_peer_len, .-psa_crypto_driver_pake_get_peer_len
	.section	.text.psa_crypto_driver_pake_get_peer,"ax",@progbits
	.align	1
	.globl	psa_crypto_driver_pake_get_peer
	.type	psa_crypto_driver_pake_get_peer, @function
psa_crypto_driver_pake_get_peer:
.LVL1153:
.LFB361:
.LM3688:
	.cfi_startproc
.LM3689:
.LM3690:
	lw	a4,20(a0)
.LM3691:
	beq	a4,zero,.L1100
	mv	a5,a0
.LM3692:
.LM3693:
	li	a0,-138
.LVL1154:
.LM3694:
	bgtu	a4,a2,.L1103
.LM3695:
	addi	sp,sp,-32
	.cfi_def_cfa_offset 32
	sw	ra,28(sp)
	.cfi_offset 1, -4
	mv	a0,a1
.LM3696:
	lw	a1,16(a5)
.LVL1155:
.LM3697:
	mv	a2,a4
.LVL1156:
.LM3698:
	sw	a3,12(sp)
	sw	a5,8(sp)
	call	memcpy
.LVL1157:
.LM3699:
.LM3700:
	lw	a5,8(sp)
.LM3701:
	lw	a3,12(sp)
.LM3702:
	li	a0,0
.LM3703:
	lw	a5,20(a5)
.LM3704:
	sw	a5,0(a3)
.LM3705:
.LM3706:
	lw	ra,28(sp)
	.cfi_restore 1
	addi	sp,sp,32
	.cfi_def_cfa_offset 0
.LVL1158:
.LM3707:
	jr	ra
.LVL1159:
.L1100:
.LM3708:
	li	a0,-137
.LVL1160:
.LM3709:
	ret
.LVL1161:
.L1103:
.LM3710:
	ret
	.cfi_endproc
.LFE361:
	.size	psa_crypto_driver_pake_get_peer, .-psa_crypto_driver_pake_get_peer
	.section	.text.psa_crypto_driver_pake_get_cipher_suite,"ax",@progbits
	.align	1
	.globl	psa_crypto_driver_pake_get_cipher_suite
	.type	psa_crypto_driver_pake_get_cipher_suite, @function
psa_crypto_driver_pake_get_cipher_suite:
.LVL1162:
.LFB362:
.LM3711:
	.cfi_startproc
.LM3712:
.LM3713:
	lw	a4,48(a0)
	beq	a4,zero,.L1108
	mv	a5,a0
.LM3714:
	addi	sp,sp,-16
	.cfi_def_cfa_offset 16
	mv	a0,a1
.LVL1163:
.LM3715:
.LM3716:
	li	a2,12
	addi	a1,a5,48
.LVL1164:
.LM3717:
	sw	ra,12(sp)
	.cfi_offset 1, -4
.LM3718:
	call	memcpy
.LVL1165:
.LM3719:
.LM3720:
	lw	ra,12(sp)
	.cfi_restore 1
.LM3721:
	li	a0,0
.LM3722:
	addi	sp,sp,16
	.cfi_def_cfa_offset 0
	jr	ra
.LVL1166:
.L1108:
.LM3723:
	li	a0,-137
.LVL1167:
.LM3724:
	ret
	.cfi_endproc
.LFE362:
	.size	psa_crypto_driver_pake_get_cipher_suite, .-psa_crypto_driver_pake_get_cipher_suite
	.section	.text.psa_pake_abort,"ax",@progbits
	.align	1
	.globl	psa_pake_abort
	.type	psa_pake_abort, @function
psa_pake_abort:
.LVL1168:
.LFB375:
.LM3725:
	.cfi_startproc
.LM3726:
.LM3727:
.LM3728:
	addi	sp,sp,-16
	.cfi_def_cfa_offset 16
	sw	s0,8(sp)
	sw	s1,4(sp)
	sw	ra,12(sp)
	.cfi_offset 8, -8
	.cfi_offset 9, -12
	.cfi_offset 1, -4
.LM3729:
	lbu	a4,12(a0)
	li	a5,2
.LM3730:
	mv	s0,a0
.LM3731:
	li	s1,0
.LM3732:
	bne	a4,a5,.L1114
.LM3733:
.LVL1169:
.LBB877:
.LBI877:
.LM3734:
.LBB878:
.LM3735:
	lw	a4,0(a0)
	li	a5,1
.LM3736:
	li	s1,-135
.LM3737:
	bne	a4,a5,.L1114
.LM3738:
.LM3739:
	addi	a0,a0,20
.LVL1170:
.LM3740:
	call	mbedtls_psa_pake_abort
.LVL1171:
	mv	s1,a0
.LVL1172:
.L1114:
.LM3741:
.LBE878:
.LBE877:
.LM3742:
.LM3743:
	lbu	a4,12(s0)
	li	a5,1
	bne	a4,a5,.L1116
.LM3744:
.LM3745:
	lw	a0,20(s0)
.LM3746:
	beq	a0,zero,.L1117
.LM3747:
	lw	a1,24(s0)
	call	mbedtls_zeroize_and_free
.LVL1173:
.L1117:
.LM3748:
.LM3749:
	lw	a0,28(s0)
.LM3750:
	beq	a0,zero,.L1118
.LM3751:
	call	free
.LVL1174:
.L1118:
.LM3752:
.LM3753:
	lw	a0,36(s0)
.LM3754:
	beq	a0,zero,.L1116
.LM3755:
	call	free
.LVL1175:
.L1116:
.LM3756:
	mv	a0,s0
	li	a2,632
	li	a1,0
	call	memset
.LVL1176:
.LM3757:
.LM3758:
	lw	ra,12(sp)
	.cfi_restore 1
	lw	s0,8(sp)
	.cfi_restore 8
.LVL1177:
.LM3759:
	mv	a0,s1
	lw	s1,4(sp)
	.cfi_restore 9
.LVL1178:
.LM3760:
	addi	sp,sp,16
	.cfi_def_cfa_offset 0
	jr	ra
	.cfi_endproc
.LFE375:
	.size	psa_pake_abort, .-psa_pake_abort
	.section	.text.psa_pake_setup,"ax",@progbits
	.align	1
	.globl	psa_pake_setup
	.type	psa_pake_setup, @function
psa_pake_setup:
.LVL1179:
.LFB363:
.LM3761:
	.cfi_startproc
.LM3762:
.LM3763:
.LM3764:
	addi	sp,sp,-32
	.cfi_def_cfa_offset 32
	sw	s0,24(sp)
	sw	ra,28(sp)
	sw	s1,20(sp)
	sw	s2,16(sp)
	sw	s3,12(sp)
	.cfi_offset 8, -8
	.cfi_offset 1, -4
	.cfi_offset 9, -12
	.cfi_offset 18, -16
	.cfi_offset 19, -20
.LM3765:
	lbu	a5,12(a0)
.LM3766:
	mv	s0,a0
.LM3767:
	bne	a5,zero,.L1135
.LM3768:
	lw	a5,0(a1)
.LM3769:
	li	a3,10
	mv	s1,a1
.LM3770:
.LM3771:
	srai	a4,a5,24
	andi	a4,a4,127
	bne	a4,a3,.L1136
.LM3772:
	lw	a5,8(a1)
	li	a4,2130706432
.LM3773:
	li	s2,-135
.LM3774:
	and	a5,a5,a4
.LM3775:
	li	a4,33554432
	bne	a5,a4,.L1133
.LM3776:
	li	a2,612
	li	a1,0
.LVL1180:
.LM3777:
	addi	a0,a0,20
.LVL1181:
.LM3778:
	call	memset
.LVL1182:
.LM3779:
.LM3780:
	lw	s3,0(s1)
.LM3781:
	li	a2,12
	mv	a1,s1
.LM3782:
	sw	s3,4(s0)
.LM3783:
.LM3784:
	lbu	a5,4(s1)
.LM3785:
	lbu	a4,5(s1)
.LM3786:
	addi	a0,s0,68
.LM3787:
	slli	a5,a5,24
.LM3788:
	slli	a4,a4,16
.LM3789:
	or	a5,a5,a4
.LM3790:
	lhu	a4,6(s1)
.LM3791:
	li	s2,-134
.LM3792:
	or	a5,a5,a4
.LM3793:
	sw	a5,8(s0)
.LM3794:
.LM3795:
	call	memcpy
.LVL1183:
.LM3796:
.LM3797:
	li	a5,167772160
	addi	a5,a5,256
	bne	s3,a5,.L1133
.LBB879:
.LM3798:
.LVL1184:
.LM3799:
	li	a2,5
	li	a1,0
	addi	a0,s0,13
.LVL1185:
.LM3800:
	call	memset
.LVL1186:
.LM3801:
.LM3802:
	li	a5,1
	sb	a5,17(s0)
.LBE879:
.LM3803:
.LM3804:
	sb	a5,12(s0)
.LM3805:
.LM3806:
	li	s2,0
.LVL1187:
.L1132:
.LM3807:
	lw	ra,28(sp)
	.cfi_remember_state
	.cfi_restore 1
	lw	s0,24(sp)
	.cfi_restore 8
.LVL1188:
.LM3808:
	lw	s1,20(sp)
	.cfi_restore 9
	lw	s3,12(sp)
	.cfi_restore 19
	mv	a0,s2
	lw	s2,16(sp)
	.cfi_restore 18
	addi	sp,sp,32
	.cfi_def_cfa_offset 0
	jr	ra
.LVL1189:
.L1135:
	.cfi_restore_state
.LM3809:
	li	s2,-137
.LVL1190:
.L1133:
.LM3810:
	mv	a0,s0
	call	psa_pake_abort
.LVL1191:
.LM3811:
.LM3812:
	j	.L1132
.LVL1192:
.L1136:
.LM3813:
	li	s2,-135
	j	.L1133
	.cfi_endproc
.LFE363:
	.size	psa_pake_setup, .-psa_pake_setup
	.section	.text.psa_pake_set_password_key,"ax",@progbits
	.align	1
	.globl	psa_pake_set_password_key
	.type	psa_pake_set_password_key, @function
psa_pake_set_password_key:
.LVL1193:
.LFB364:
.LM3814:
	.cfi_startproc
.LM3815:
.LM3816:
.LM3817:
.LM3818:
	addi	sp,sp,-32
	.cfi_def_cfa_offset 32
	sw	s0,24(sp)
	sw	s1,20(sp)
	sw	ra,28(sp)
	sw	s2,16(sp)
	.cfi_offset 8, -8
	.cfi_offset 9, -12
	.cfi_offset 1, -4
	.cfi_offset 18, -16
.LM3819:
	lbu	s2,12(a0)
.LM3820:
	sw	zero,12(sp)
.LM3821:
.LM3822:
.LM3823:
	li	a5,1
.LM3824:
	mv	s1,a0
.LM3825:
	li	s0,-137
.LM3826:
	bne	s2,a5,.L1141
.LM3827:
	lw	a3,4(s1)
	mv	a0,a1
.LVL1194:
.LM3828:
.LM3829:
	li	a2,16384
	addi	a1,sp,12
.LVL1195:
.LM3830:
	call	psa_get_and_lock_key_slot_with_policy
.LVL1196:
.LM3831:
	mv	s0,a0
.LVL1197:
.LM3832:
.LM3833:
	bne	a0,zero,.L1141
.LM3834:
.LM3835:
	lw	a3,12(sp)
.LVL1198:
.LBB880:
.LBI880:
.LM3836:
.LBB881:
.LM3837:
.LM3838:
.LBE881:
.LBE880:
.LM3839:
.LM3840:
	li	a4,-4096
	addi	a4,a4,-515
	lhu	a5,0(a3)
	add	a5,a5,a4
	andi	a5,a5,-3
.LM3841:
	slli	a5,a5,16
	srli	a5,a5,16
	bne	a5,zero,.L1145
.LM3842:
.LM3843:
	lw	a1,36(a3)
	mv	a0,s2
	call	calloc
.LVL1199:
.LM3844:
	sw	a0,20(s1)
.LM3845:
.LM3846:
	beq	a0,zero,.L1146
.LM3847:
.LM3848:
	lw	a5,12(sp)
.LM3849:
	lw	a2,36(a5)
	lw	a1,32(a5)
	call	memcpy
.LVL1200:
.LM3850:
.LM3851:
	lw	a1,12(sp)
.LM3852:
	li	a2,24
	addi	a0,s1,44
.LM3853:
	lw	a5,36(a1)
.LM3854:
	sw	a5,24(s1)
.LM3855:
.LM3856:
	call	memcpy
.LVL1201:
.LDL8:
.LM3857:
.L1142:
.LM3858:
.LM3859:
	lw	a0,12(sp)
	call	psa_unregister_read_under_mutex
.LVL1202:
.LM3860:
.LM3861:
	bne	s0,zero,.L1140
.LM3862:
	mv	s0,a0
.L1140:
.LM3863:
	lw	ra,28(sp)
	.cfi_remember_state
	.cfi_restore 1
	mv	a0,s0
.LVL1203:
.LM3864:
	lw	s0,24(sp)
	.cfi_restore 8
	lw	s1,20(sp)
	.cfi_restore 9
.LVL1204:
.LM3865:
	lw	s2,16(sp)
	.cfi_restore 18
	addi	sp,sp,32
	.cfi_def_cfa_offset 0
	jr	ra
.LVL1205:
.L1145:
	.cfi_restore_state
.LM3866:
	li	s0,-135
.LVL1206:
.L1141:
.LM3867:
	mv	a0,s1
	call	psa_pake_abort
.LVL1207:
	j	.L1142
.LVL1208:
.L1146:
.LM3868:
	li	s0,-141
.LVL1209:
.LM3869:
	j	.L1141
	.cfi_endproc
.LFE364:
	.size	psa_pake_set_password_key, .-psa_pake_set_password_key
	.section	.text.psa_pake_set_role,"ax",@progbits
	.align	1
	.globl	psa_pake_set_role
	.type	psa_pake_set_role, @function
psa_pake_set_role:
.LVL1210:
.LFB367:
.LM3870:
	.cfi_startproc
.LM3871:
.LM3872:
.LM3873:
	addi	sp,sp,-16
	.cfi_def_cfa_offset 16
	sw	ra,12(sp)
	sw	s0,8(sp)
	.cfi_offset 1, -4
	.cfi_offset 8, -8
.LM3874:
	lbu	a4,12(a0)
	li	a5,1
	bne	a4,a5,.L1151
.LM3875:
	lw	a4,4(a0)
	li	a5,167772160
	addi	a5,a5,256
	bne	a4,a5,.L1152
.LM3876:
.LM3877:
	li	s0,0
.LM3878:
	beq	a1,zero,.L1148
.LM3879:
	li	s0,-135
.L1149:
.LVL1211:
.LM3880:
	call	psa_pake_abort
.LVL1212:
.LM3881:
.L1148:
.LM3882:
	lw	ra,12(sp)
	.cfi_remember_state
	.cfi_restore 1
	mv	a0,s0
	lw	s0,8(sp)
	.cfi_restore 8
	addi	sp,sp,16
	.cfi_def_cfa_offset 0
	jr	ra
.LVL1213:
.L1151:
	.cfi_restore_state
.LM3883:
	li	s0,-137
	j	.L1149
.L1152:
.LM3884:
	li	s0,-134
	j	.L1149
	.cfi_endproc
.LFE367:
	.size	psa_pake_set_role, .-psa_pake_set_role
	.section	.text.psa_crypto_local_input_alloc,"ax",@progbits
	.align	1
	.globl	psa_crypto_local_input_alloc
	.type	psa_crypto_local_input_alloc, @function
psa_crypto_local_input_alloc:
.LVL1214:
.LFB378:
.LM3885:
	.cfi_startproc
.LM3886:
.LM3887:
.LM3888:
	sw	zero,0(a2)
	sw	zero,4(a2)
.LM3889:
.LM3890:
	beq	a1,zero,.L1163
.LM3891:
	addi	sp,sp,-32
	.cfi_def_cfa_offset 32
	sw	s1,20(sp)
.LM3892:
	sw	a1,12(sp)
.LM3893:
	.cfi_offset 9, -12
	mv	s1,a0
.LM3894:
	mv	a0,a1
.LVL1215:
.LM3895:
	li	a1,1
.LVL1216:
.LM3896:
	sw	s0,24(sp)
	sw	ra,28(sp)
	.cfi_offset 8, -8
	.cfi_offset 1, -4
	mv	s0,a2
.LM3897:
	call	calloc
.LVL1217:
.LM3898:
	sw	a0,0(s0)
.LM3899:
.LM3900:
	li	a5,-141
.LM3901:
	beq	a0,zero,.L1155
.LM3902:
.LM3903:
	lw	a2,12(sp)
.LBB886:
.LBB887:
.LM3904:
	mv	a1,s1
.LBE887:
.LBE886:
.LM3905:
	sw	a2,4(s0)
.LM3906:
.LVL1218:
.LBB889:
.LBI886:
.LM3907:
.LBB888:
.LM3908:
.LM3909:
.LM3910:
	call	memcpy
.LVL1219:
.LM3911:
.LBE888:
.LBE889:
.LM3912:
.LM3913:
	li	a5,0
.LVL1220:
.L1155:
.LM3914:
	lw	ra,28(sp)
	.cfi_restore 1
	lw	s0,24(sp)
	.cfi_restore 8
.LVL1221:
.LM3915:
	lw	s1,20(sp)
	.cfi_restore 9
.LVL1222:
.LM3916:
	mv	a0,a5
	addi	sp,sp,32
	.cfi_def_cfa_offset 0
.LVL1223:
.LM3917:
	jr	ra
.LVL1224:
.L1163:
.LM3918:
	li	a5,0
.LM3919:
	mv	a0,a5
.LVL1225:
.LM3920:
	ret
	.cfi_endproc
.LFE378:
	.size	psa_crypto_local_input_alloc, .-psa_crypto_local_input_alloc
	.section	.text.psa_crypto_local_input_free,"ax",@progbits
	.align	1
	.globl	psa_crypto_local_input_free
	.type	psa_crypto_local_input_free, @function
psa_crypto_local_input_free:
.LVL1226:
.LFB379:
.LM3921:
	.cfi_startproc
.LM3922:
.LM3923:
	addi	sp,sp,-16
	.cfi_def_cfa_offset 16
	sw	s0,8(sp)
	sw	ra,12(sp)
	.cfi_offset 8, -8
	.cfi_offset 1, -4
.LM3924:
	mv	s0,a0
.LM3925:
	lw	a1,4(a0)
	lw	a0,0(a0)
.LVL1227:
.LM3926:
	call	mbedtls_zeroize_and_free
.LVL1228:
.LM3927:
.LM3928:
	sw	zero,0(s0)
.LM3929:
.LM3930:
	sw	zero,4(s0)
.LM3931:
	lw	ra,12(sp)
	.cfi_restore 1
	lw	s0,8(sp)
	.cfi_restore 8
.LVL1229:
.LM3932:
	addi	sp,sp,16
	.cfi_def_cfa_offset 0
	jr	ra
	.cfi_endproc
.LFE379:
	.size	psa_crypto_local_input_free, .-psa_crypto_local_input_free
	.section	.text.psa_import_key,"ax",@progbits
	.align	1
	.globl	psa_import_key
	.type	psa_import_key, @function
psa_import_key:
.LVL1230:
.LFB202:
.LM3933:
	.cfi_startproc
.LM3934:
.LM3935:
.LM3936:
.LM3937:
.LM3938:
.LM3939:
	addi	sp,sp,-64
	.cfi_def_cfa_offset 64
	sw	s0,56(sp)
	sw	ra,60(sp)
	sw	s1,52(sp)
	sw	s2,48(sp)
	sw	s3,44(sp)
	sw	s4,40(sp)
	.cfi_offset 8, -8
	.cfi_offset 1, -4
	.cfi_offset 9, -12
	.cfi_offset 18, -16
	.cfi_offset 19, -20
	.cfi_offset 20, -24
.LM3940:
	sw	zero,12(sp)
.LM3941:
.LM3942:
	sw	zero,16(sp)
.LM3943:
.LM3944:
.LVL1231:
.LM3945:
.LM3946:
	sw	zero,0(a3)
.LM3947:
.LM3948:
	li	s0,-135
.LM3949:
	beq	a2,zero,.L1169
.LM3950:
.LM3951:
	li	a5,536870912
.LM3952:
	li	s0,-134
.LM3953:
	bgeu	a2,a5,.L1169
	mv	s3,a2
	mv	s1,a0
.LM3954:
	addi	a2,sp,24
.LVL1232:
.LM3955:
	mv	a0,a1
.LVL1233:
.LM3956:
.LM3957:
	mv	a1,s3
.LVL1234:
.LM3958:
	mv	s2,a3
	call	psa_crypto_local_input_alloc
.LVL1235:
.LM3959:
.LM3960:
	li	s0,-141
.LM3961:
	bne	a0,zero,.L1171
.LM3962:
.LM3963:
	addi	a2,sp,16
	addi	a1,sp,12
	mv	a0,s1
.LVL1236:
.LM3964:
	lw	s4,24(sp)
.LVL1237:
.LM3965:
.LM3966:
.LM3967:
	call	psa_start_key_creation.isra.0
.LVL1238:
	mv	s0,a0
.LVL1239:
.LM3968:
.LM3969:
	bne	a0,zero,.L1171
.LM3970:
.LM3971:
	lw	a0,12(sp)
.LM3972:
	lw	a5,36(a0)
	beq	a5,zero,.L1172
.L1177:
.LM3973:
.LM3974:
	lw	a3,12(sp)
.LM3975:
	lhu	a5,2(a3)
	sw	a5,20(sp)
.LM3976:
.LVL1240:
.LBB904:
.LBI904:
.LM3977:
.LBB905:
.LM3978:
.LM3979:
.LBB906:
.LBI906:
.LM3980:
.LBB907:
.LM3981:
.LM3982:
.LBE907:
.LBE906:
.LM3983:
.LM3984:
	lw	a5,4(s1)
	srli	a5,a5,8
.LVL1241:
.LM3985:
	beq	a5,zero,.L1173
.LVL1242:
.L1176:
.LM3986:
.LBE905:
.LBE904:
.LM3987:
	li	s0,-135
.LVL1243:
.LM3988:
	j	.L1171
.LVL1244:
.L1172:
.LM3989:
.LBB909:
.LBI909:
.LM3990:
.LBB910:
.LM3991:
.LM3992:
	lw	a5,4(s1)
	srli	a5,a5,8
.LBE910:
.LBE909:
.LM3993:
	bne	a5,zero,.L1176
.LM3994:
.LM3995:
	mv	a1,s3
	call	psa_allocate_buffer_to_slot
.LVL1245:
	mv	s0,a0
.LVL1246:
.LM3996:
.LM3997:
	beq	a0,zero,.L1177
.LVL1247:
.L1171:
.LM3998:
.LM3999:
	addi	a0,sp,24
	call	psa_crypto_local_input_free
.LVL1248:
.LM4000:
.LM4001:
.LM4002:
	beq	s0,zero,.L1169
.LM4003:
	lw	a0,12(sp)
.LVL1249:
.LBB911:
.LBI911:
.LM4004:
.LBB912:
.LM4005:
.LM4006:
.LM4007:
	beq	a0,zero,.L1169
.LM4008:
	call	psa_wipe_key_slot
.LVL1250:
.L1169:
.LM4009:
.LBE912:
.LBE911:
.LM4010:
	lw	ra,60(sp)
	.cfi_remember_state
	.cfi_restore 1
	mv	a0,s0
	lw	s0,56(sp)
	.cfi_restore 8
	lw	s1,52(sp)
	.cfi_restore 9
	lw	s2,48(sp)
	.cfi_restore 18
	lw	s3,44(sp)
	.cfi_restore 19
	lw	s4,40(sp)
	.cfi_restore 20
	addi	sp,sp,64
	.cfi_def_cfa_offset 0
	jr	ra
.LVL1251:
.L1173:
	.cfi_restore_state
.LBB913:
.LBB908:
.LM4011:
.LM4012:
	lw	a4,36(a3)
	addi	a5,a3,36
.LVL1252:
.LM4013:
	lw	a3,32(a3)
.LVL1253:
.LM4014:
	addi	a6,sp,20
.LVL1254:
.LM4015:
	mv	a2,s3
	mv	a1,s4
	mv	a0,s1
	call	psa_import_key_into_slot
.LVL1255:
.LM4016:
	mv	s0,a0
.LVL1256:
.LM4017:
.LBE908:
.LBE913:
.LM4018:
.LM4019:
	bne	a0,zero,.L1171
.LM4020:
.LM4021:
	lw	a3,12(sp)
.LM4022:
	lw	a5,20(sp)
.LM4023:
	lhu	a4,2(a3)
.LM4024:
	bne	a4,zero,.L1178
.LM4025:
.LM4026:
	sh	a5,2(a3)
.L1179:
.LM4027:
.LM4028:
	lw	a4,20(sp)
	li	a5,65536
	addi	a5,a5,-8
	bgtu	a4,a5,.L1188
.LM4029:
.LBB914:
.LBB915:
.LM4030:
	lhu	a4,0(s1)
.LBE915:
.LBE914:
.LM4031:
	lw	a5,12(sp)
.LVL1257:
.LBB917:
.LBI914:
.LM4032:
.LBB916:
.LM4033:
.LM4034:
	beq	a4,zero,.L1180
.LM4035:
.LM4036:
	lhu	a3,0(a5)
	bne	a3,a4,.L1176
.L1180:
.LM4037:
.LM4038:
	lhu	a4,2(s1)
.LM4039:
	beq	a4,zero,.L1182
.LM4040:
.LM4041:
	lhu	a3,2(a5)
	bne	a3,a4,.L1176
.L1182:
.LVL1258:
.LM4042:
.LBE916:
.LBE917:
.LM4043:
.LBB918:
.LBI918:
.LM4044:
.LBB919:
.LM4045:
.LM4046:
.LM4047:
.LM4048:
.LM4049:
.LM4050:
	lw	a4,20(a5)
.LM4051:
	sw	a4,0(s2)
.LM4052:
.LVL1259:
.LBB920:
.LBI920:
.LM4053:
.LBB921:
.LM4054:
.LM4055:
	lbu	a3,24(a5)
	li	a4,1
	beq	a3,a4,.L1183
.LVL1260:
.LM4056:
.LBE921:
.LBE920:
.LM4057:
.LM4058:
.LM4059:
	sw	zero,0(s2)
.LBB924:
.LBB922:
.LM4060:
	li	s0,-151
	j	.L1171
.LVL1261:
.L1178:
.LM4061:
.LBE922:
.LBE924:
.LBE919:
.LBE918:
.LM4062:
.LM4063:
	beq	a4,a5,.L1179
	j	.L1176
.LVL1262:
.L1183:
.LBB927:
.LBB926:
.LBB925:
.LBB923:
.LM4064:
.LM4065:
	li	a4,2
	sb	a4,24(a5)
.LM4066:
.LVL1263:
.LM4067:
.LBE923:
.LBE925:
.LM4068:
	j	.L1171
.LVL1264:
.L1188:
.LM4069:
.LBE926:
.LBE927:
.LM4070:
	li	s0,-134
.LVL1265:
.LM4071:
	j	.L1171
	.cfi_endproc
.LFE202:
	.size	psa_import_key, .-psa_import_key
	.section	.text.psa_hash_update,"ax",@progbits
	.align	1
	.globl	psa_hash_update
	.type	psa_hash_update, @function
psa_hash_update:
.LVL1266:
.LFB207:
.LM4072:
	.cfi_startproc
.LM4073:
.LM4074:
.LM4075:
	addi	sp,sp,-48
	.cfi_def_cfa_offset 48
	sw	s1,36(sp)
	sw	ra,44(sp)
	sw	s0,40(sp)
	sw	s2,32(sp)
	.cfi_offset 9, -12
	.cfi_offset 1, -4
	.cfi_offset 8, -8
	.cfi_offset 18, -16
.LM4076:
	lw	a5,0(a0)
.LM4077:
	sw	zero,28(sp)
.LM4078:
.LVL1267:
.LM4079:
.LM4080:
.LM4081:
	mv	s1,a0
.LM4082:
	beq	a5,zero,.L1206
	mv	a0,a1
.LVL1268:
.LM4083:
	li	s0,0
	mv	a1,a2
.LVL1269:
.LM4084:
.LM4085:
	beq	a2,zero,.L1202
.LM4086:
.LM4087:
	addi	a2,sp,24
.LVL1270:
.LM4088:
	sw	a1,12(sp)
	call	psa_crypto_local_input_alloc
.LVL1271:
.LM4089:
	li	s0,-141
	lw	s2,24(sp)
.LVL1272:
.LM4090:
.LM4091:
	bne	a0,zero,.L1203
.LM4092:
.LVL1273:
.LM4093:
.LM4094:
.LBB930:
.LBI930:
.LM4095:
.LBB931:
.LM4096:
	lw	a4,0(s1)
	li	a5,1
	bne	a4,a5,.L1209
.LM4097:
.LM4098:
	lw	a2,12(sp)
	mv	a1,s2
	addi	a0,s1,8
.LVL1274:
.LM4099:
	call	mbedtls_psa_hash_update
.LVL1275:
	mv	s0,a0
.LVL1276:
.LDL9:
.LM4100:
.LBE931:
.LBE930:
.LM4101:
.LM4102:
	beq	a0,zero,.L1205
.LVL1277:
.L1203:
.LM4103:
	mv	a0,s1
	call	psa_hash_abort
.LVL1278:
.L1205:
.LM4104:
.LM4105:
	addi	a0,sp,24
	sw	s2,24(sp)
	call	psa_crypto_local_input_free
.LVL1279:
.LM4106:
.LM4107:
.L1202:
.LM4108:
	lw	ra,44(sp)
	.cfi_remember_state
	.cfi_restore 1
	mv	a0,s0
	lw	s0,40(sp)
	.cfi_restore 8
	lw	s1,36(sp)
	.cfi_restore 9
.LVL1280:
.LM4109:
	lw	s2,32(sp)
	.cfi_restore 18
	addi	sp,sp,48
	.cfi_def_cfa_offset 0
	jr	ra
.LVL1281:
.L1206:
	.cfi_restore_state
.LM4110:
	li	s2,0
.LVL1282:
.L1209:
.LBB933:
.LBB932:
.LM4111:
	li	s0,-137
	j	.L1203
.LBE932:
.LBE933:
	.cfi_endproc
.LFE207:
	.size	psa_hash_update, .-psa_hash_update
	.section	.text.psa_hash_verify,"ax",@progbits
	.align	1
	.globl	psa_hash_verify
	.type	psa_hash_verify, @function
psa_hash_verify:
.LVL1283:
.LFB210:
.LM4112:
	.cfi_startproc
.LM4113:
.LM4114:
.LM4115:
.LM4116:
.LM4117:
	addi	sp,sp,-112
	.cfi_def_cfa_offset 112
	sw	s2,96(sp)
	sw	ra,108(sp)
	sw	s0,104(sp)
	sw	s1,100(sp)
	sw	s3,92(sp)
	sw	s4,88(sp)
	.cfi_offset 18, -16
	.cfi_offset 1, -4
	.cfi_offset 8, -8
	.cfi_offset 9, -12
	.cfi_offset 19, -20
	.cfi_offset 20, -24
.LBB938:
.LBB939:
.LM4118:
	lw	a5,0(a0)
.LBE939:
.LBE938:
.LM4119:
	sw	zero,12(sp)
.LM4120:
.LVL1284:
.LM4121:
.LM4122:
.LBB946:
.LBI938:
.LM4123:
.LBB944:
.LM4124:
.LM4125:
.LM4126:
	sw	zero,4(sp)
.LM4127:
.LBE944:
.LBE946:
.LM4128:
	mv	s2,a0
.LBB947:
.LBB945:
.LM4129:
	beq	a5,zero,.L1219
.LBB940:
.LBB941:
.LM4130:
	li	a4,1
	mv	s4,a1
	mv	s3,a2
.LBE941:
.LBE940:
.LM4131:
.LVL1285:
.LBB943:
.LBI940:
.LM4132:
.LBB942:
.LM4133:
.LM4134:
	li	s0,-137
.LM4135:
	bne	a5,a4,.L1217
.LM4136:
.LM4137:
	addi	a3,sp,4
.LVL1286:
.LM4138:
	li	a2,64
.LVL1287:
.LM4139:
	addi	a1,sp,16
.LVL1288:
.LM4140:
	addi	a0,a0,8
.LVL1289:
.LM4141:
	call	mbedtls_psa_hash_finish
.LVL1290:
.LM4142:
	mv	s0,a0
.L1217:
.LVL1291:
.LM4143:
.LBE942:
.LBE943:
.LM4144:
	mv	a0,s2
	call	psa_hash_abort
.LVL1292:
.LM4145:
.LM4146:
.LBE945:
.LBE947:
.LM4147:
.LM4148:
	li	s1,0
.LM4149:
	bne	s0,zero,.L1216
.LM4150:
.LM4151:
	lw	a5,4(sp)
	bne	a5,s3,.L1222
.LM4152:
.LM4153:
	addi	a2,sp,8
	mv	a1,s3
	mv	a0,s4
	call	psa_crypto_local_input_alloc
.LVL1293:
	li	s0,-141
.LVL1294:
.LM4154:
	lw	s1,8(sp)
.LVL1295:
.LM4155:
.LM4156:
	bne	a0,zero,.L1216
.LM4157:
.LVL1296:
.LM4158:
.LM4159:
.LM4160:
	lw	a2,4(sp)
	addi	a1,sp,16
	mv	a0,s1
.LVL1297:
.LM4161:
	call	mbedtls_ct_memcmp
.LVL1298:
	mv	s0,a0
.LM4162:
	beq	a0,zero,.L1216
.LVL1299:
.L1224:
.LM4163:
	li	s0,-149
	j	.L1216
.LVL1300:
.L1219:
.LM4164:
	li	s1,0
.LM4165:
	li	s0,-137
.LVL1301:
.L1216:
.LM4166:
	li	a1,64
	addi	a0,sp,16
	call	mbedtls_platform_zeroize
.LVL1302:
.LM4167:
.LM4168:
	beq	s0,zero,.L1218
.LM4169:
	mv	a0,s2
	call	psa_hash_abort
.LVL1303:
.L1218:
.LM4170:
.LM4171:
	addi	a0,sp,8
	sw	s1,8(sp)
	call	psa_crypto_local_input_free
.LVL1304:
.LM4172:
.LM4173:
.LM4174:
	lw	ra,108(sp)
	.cfi_remember_state
	.cfi_restore 1
	mv	a0,s0
	lw	s0,104(sp)
	.cfi_restore 8
.LVL1305:
.LM4175:
	lw	s1,100(sp)
	.cfi_restore 9
	lw	s2,96(sp)
	.cfi_restore 18
.LVL1306:
.LM4176:
	lw	s3,92(sp)
	.cfi_restore 19
	lw	s4,88(sp)
	.cfi_restore 20
	addi	sp,sp,112
	.cfi_def_cfa_offset 0
	jr	ra
.LVL1307:
.L1222:
	.cfi_restore_state
.LM4177:
	li	s1,0
	j	.L1224
	.cfi_endproc
.LFE210:
	.size	psa_hash_verify, .-psa_hash_verify
	.section	.text.psa_hash_compare,"ax",@progbits
	.align	1
	.globl	psa_hash_compare
	.type	psa_hash_compare, @function
psa_hash_compare:
.LVL1308:
.LFB212:
.LM4178:
	.cfi_startproc
.LM4179:
.LM4180:
.LM4181:
.LM4182:
.LM4183:
.LM4184:
.LM4185:
.LM4186:
	addi	sp,sp,-128
	.cfi_def_cfa_offset 128
	sw	s0,120(sp)
	.cfi_offset 8, -8
	mv	s0,a0
.LM4187:
	srai	a0,a0,24
.LVL1309:
.LM4188:
	sw	ra,124(sp)
	sw	s1,116(sp)
	sw	s2,112(sp)
	sw	s3,108(sp)
	.cfi_offset 1, -4
	.cfi_offset 9, -12
	.cfi_offset 18, -16
	.cfi_offset 19, -20
.LM4189:
	sw	zero,28(sp)
.LM4190:
.LVL1310:
.LM4191:
.LM4192:
.LM4193:
	andi	a0,a0,127
	li	a6,2
	bne	a0,a6,.L1232
	mv	s1,a2
	mv	a0,a1
.LM4194:
.LM4195:
	addi	a2,sp,16
.LVL1311:
.LM4196:
	mv	a1,s1
.LVL1312:
.LM4197:
	mv	s2,a4
	mv	s3,a3
	call	psa_crypto_local_input_alloc
.LVL1313:
.LM4198:
.LM4199:
	bne	a0,zero,.L1233
.LM4200:
.LVL1314:
.LM4201:
.LM4202:
.LBB948:
.LBI948:
.LM4203:
.LBB949:
.LM4204:
.LM4205:
.LM4206:
	lw	a1,16(sp)
	mv	a2,s1
	mv	a0,s0
.LVL1315:
.LM4207:
	addi	a5,sp,12
.LVL1316:
.LM4208:
	li	a4,64
	addi	a3,sp,32
.LVL1317:
.LM4209:
	call	mbedtls_psa_hash_compute
.LVL1318:
.LM4210:
	mv	s0,a0
.LVL1319:
.LM4211:
.LM4212:
.LBE949:
.LBE948:
.LM4213:
.LM4214:
	li	s1,0
.LVL1320:
.LM4215:
	bne	a0,zero,.L1231
.LM4216:
.LM4217:
	lw	a1,12(sp)
.LM4218:
	li	s1,0
.LM4219:
	bne	a1,s2,.L1237
.LM4220:
.LM4221:
	addi	a2,sp,24
	mv	a0,s3
	call	psa_crypto_local_input_alloc
.LVL1321:
	li	s0,-141
.LVL1322:
.LM4222:
	lw	s1,24(sp)
.LVL1323:
.LM4223:
.LM4224:
	bne	a0,zero,.L1231
.LM4225:
.LVL1324:
.LM4226:
.LM4227:
.LM4228:
	lw	a2,12(sp)
	addi	a1,sp,32
	mv	a0,s1
.LVL1325:
.LM4229:
	call	mbedtls_ct_memcmp
.LVL1326:
	mv	s0,a0
.LM4230:
	bne	a0,zero,.L1237
.LVL1327:
.L1231:
.LM4231:
	li	a1,64
	addi	a0,sp,32
	call	mbedtls_platform_zeroize
.LVL1328:
.LM4232:
.LM4233:
	addi	a0,sp,16
	call	psa_crypto_local_input_free
.LVL1329:
.LM4234:
.LM4235:
.LM4236:
	addi	a0,sp,24
	sw	s1,24(sp)
	call	psa_crypto_local_input_free
.LVL1330:
.LM4237:
.LM4238:
.L1229:
.LM4239:
	lw	ra,124(sp)
	.cfi_remember_state
	.cfi_restore 1
	mv	a0,s0
	lw	s0,120(sp)
	.cfi_restore 8
	lw	s1,116(sp)
	.cfi_restore 9
	lw	s2,112(sp)
	.cfi_restore 18
	lw	s3,108(sp)
	.cfi_restore 19
	addi	sp,sp,128
	.cfi_def_cfa_offset 0
	jr	ra
.LVL1331:
.L1233:
	.cfi_restore_state
.LM4240:
	li	s1,0
.LVL1332:
.LM4241:
	li	s0,-141
.LVL1333:
.LM4242:
	j	.L1231
.LVL1334:
.L1237:
.LM4243:
	li	s0,-149
	j	.L1231
.LVL1335:
.L1232:
.LM4244:
	li	s0,-135
.LVL1336:
.LM4245:
	j	.L1229
	.cfi_endproc
.LFE212:
	.size	psa_hash_compare, .-psa_hash_compare
	.section	.text.psa_mac_update,"ax",@progbits
	.align	1
	.globl	psa_mac_update
	.type	psa_mac_update, @function
psa_mac_update:
.LVL1337:
.LFB219:
.LM4246:
	.cfi_startproc
.LM4247:
.LM4248:
.LM4249:
.LM4250:
.LM4251:
.LM4252:
	addi	sp,sp,-32
	.cfi_def_cfa_offset 32
	sw	s0,24(sp)
	sw	ra,28(sp)
	sw	s1,20(sp)
	sw	s2,16(sp)
	.cfi_offset 8, -8
	.cfi_offset 1, -4
	.cfi_offset 9, -12
	.cfi_offset 18, -16
.LM4253:
	lw	a5,0(a0)
.LM4254:
	li	s0,-137
.LM4255:
	beq	a5,zero,.L1239
.LM4256:
.LM4257:
	li	s0,0
.LM4258:
	beq	a2,zero,.L1239
	mv	s2,a2
	mv	s1,a0
.LM4259:
	addi	a2,sp,8
.LVL1338:
.LM4260:
	mv	a0,a1
.LVL1339:
.LM4261:
.LM4262:
	mv	a1,s2
.LVL1340:
.LM4263:
	call	psa_crypto_local_input_alloc
.LVL1341:
.LM4264:
.LM4265:
	li	s0,-141
.LM4266:
	bne	a0,zero,.L1241
.LM4267:
.LVL1342:
.LM4268:
.LM4269:
.LBB952:
.LBI952:
.LM4270:
.LBB953:
.LM4271:
	lw	a4,0(s1)
	li	a5,1
	bne	a4,a5,.L1246
.LM4272:
.LM4273:
	lw	a1,8(sp)
	mv	a2,s2
	addi	a0,s1,8
.LVL1343:
.LM4274:
	call	mbedtls_psa_mac_update
.LVL1344:
.LM4275:
	mv	s0,a0
.LVL1345:
.LM4276:
.LBE953:
.LBE952:
.LM4277:
.LM4278:
	beq	a0,zero,.L1241
.LVL1346:
.L1242:
.LM4279:
	mv	a0,s1
	call	psa_mac_abort
.LVL1347:
.L1241:
.LM4280:
.LM4281:
	addi	a0,sp,8
	call	psa_crypto_local_input_free
.LVL1348:
.LM4282:
.LM4283:
.L1239:
.LM4284:
	lw	ra,28(sp)
	.cfi_remember_state
	.cfi_restore 1
	mv	a0,s0
	lw	s0,24(sp)
	.cfi_restore 8
	lw	s1,20(sp)
	.cfi_restore 9
	lw	s2,16(sp)
	.cfi_restore 18
	addi	sp,sp,32
	.cfi_def_cfa_offset 0
	jr	ra
.LVL1349:
.L1246:
	.cfi_restore_state
.LBB955:
.LBB954:
.LM4285:
	li	s0,-135
	j	.L1242
.LBE954:
.LBE955:
	.cfi_endproc
.LFE219:
	.size	psa_mac_update, .-psa_mac_update
	.section	.text.psa_mac_verify_finish,"ax",@progbits
	.align	1
	.globl	psa_mac_verify_finish
	.type	psa_mac_verify_finish, @function
psa_mac_verify_finish:
.LVL1350:
.LFB221:
.LM4286:
	.cfi_startproc
.LM4287:
.LM4288:
.LM4289:
.LM4290:
	addi	sp,sp,-48
	.cfi_def_cfa_offset 48
	sw	s1,36(sp)
	sw	ra,44(sp)
	sw	s0,40(sp)
	sw	s2,32(sp)
	.cfi_offset 9, -12
	.cfi_offset 1, -4
	.cfi_offset 8, -8
	.cfi_offset 18, -16
.LM4291:
	lw	a5,0(a0)
.LM4292:
	sw	zero,28(sp)
.LM4293:
.LVL1351:
.LM4294:
.LM4295:
.LM4296:
	mv	s1,a0
.LM4297:
	beq	a5,zero,.L1256
.LM4298:
.LM4299:
	lbu	a5,5(a0)
.LM4300:
	andi	a5,a5,1
	bne	a5,zero,.L1256
	mv	a0,a1
.LVL1352:
.LM4301:
.LM4302:
	lbu	a1,4(s1)
.LVL1353:
.LM4303:
	bne	a1,a2,.L1257
.LM4304:
.LM4305:
	addi	a2,sp,24
.LVL1354:
.LM4306:
	sw	a1,12(sp)
	call	psa_crypto_local_input_alloc
.LVL1355:
.LM4307:
	li	s0,-141
	lw	s2,24(sp)
.LVL1356:
.LM4308:
.LM4309:
	bne	a0,zero,.L1253
.LM4310:
.LVL1357:
.LM4311:
.LM4312:
.LBB958:
.LBI958:
.LM4313:
.LBB959:
.LM4314:
	lw	a4,0(s1)
	li	a5,1
.LM4315:
	li	s0,-135
.LM4316:
	bne	a4,a5,.L1253
.LM4317:
.LM4318:
	lw	a2,12(sp)
	mv	a1,s2
	addi	a0,s1,8
.LVL1358:
.LM4319:
	call	mbedtls_psa_mac_verify_finish
.LVL1359:
	mv	s0,a0
.LVL1360:
.L1253:
.LM4320:
.LBE959:
.LBE958:
.LM4321:
.LM4322:
	mv	a0,s1
	call	psa_mac_abort
.LVL1361:
	mv	s1,a0
.LVL1362:
.LM4323:
.LM4324:
	addi	a0,sp,24
	sw	s2,24(sp)
	call	psa_crypto_local_input_free
.LVL1363:
.LM4325:
.LM4326:
.LM4327:
	bne	s0,zero,.L1252
.LM4328:
	mv	s0,s1
.LVL1364:
.L1252:
.LM4329:
	lw	ra,44(sp)
	.cfi_remember_state
	.cfi_restore 1
	mv	a0,s0
	lw	s0,40(sp)
	.cfi_restore 8
	lw	s1,36(sp)
	.cfi_restore 9
.LVL1365:
.LM4330:
	lw	s2,32(sp)
	.cfi_restore 18
	addi	sp,sp,48
	.cfi_def_cfa_offset 0
	jr	ra
.LVL1366:
.L1256:
	.cfi_restore_state
.LM4331:
	li	s2,0
.LM4332:
	li	s0,-137
	j	.L1253
.LVL1367:
.L1257:
.LM4333:
	li	s2,0
.LM4334:
	li	s0,-149
	j	.L1253
	.cfi_endproc
.LFE221:
	.size	psa_mac_verify_finish, .-psa_mac_verify_finish
	.section	.text.psa_mac_verify,"ax",@progbits
	.align	1
	.globl	psa_mac_verify
	.type	psa_mac_verify, @function
psa_mac_verify:
.LVL1368:
.LFB224:
.LM4335:
	.cfi_startproc
.LM4336:
.LM4337:
.LM4338:
.LM4339:
.LM4340:
.LM4341:
.LM4342:
.LM4343:
	addi	sp,sp,-144
	.cfi_def_cfa_offset 144
	sw	s0,136(sp)
	sw	s1,132(sp)
	.cfi_offset 8, -8
	.cfi_offset 9, -12
	mv	s0,a0
	mv	s1,a1
	mv	a0,a2
.LVL1369:
.LM4344:
	mv	a1,a3
.LVL1370:
.LM4345:
	addi	a2,sp,32
.LVL1371:
.LM4346:
	sw	s2,128(sp)
	sw	s3,124(sp)
	sw	ra,140(sp)
	.cfi_offset 18, -16
	.cfi_offset 19, -20
	.cfi_offset 1, -4
.LM4347:
	mv	s2,a4
	mv	s3,a5
.LM4348:
	sw	zero,44(sp)
.LM4349:
.LVL1372:
.LM4350:
.LM4351:
.LM4352:
	sw	a3,12(sp)
	call	psa_crypto_local_input_alloc
.LVL1373:
.LM4353:
.LM4354:
	bne	a0,zero,.L1263
.LM4355:
.LVL1374:
.LM4356:
.LM4357:
.LM4358:
	lw	a3,12(sp)
	lw	a2,32(sp)
	mv	a1,s1
	mv	a0,s0
.LVL1375:
.LM4359:
	li	a7,0
	addi	a6,sp,28
	li	a5,64
	addi	a4,sp,48
	call	psa_mac_compute_internal
.LVL1376:
.LM4360:
	mv	s0,a0
.LVL1377:
.LM4361:
.LM4362:
	li	s1,0
.LVL1378:
.LM4363:
	bne	a0,zero,.L1262
.LM4364:
.LM4365:
	lw	a1,28(sp)
	bne	a1,s3,.L1265
.LM4366:
.LM4367:
	addi	a2,sp,40
	mv	a0,s2
	call	psa_crypto_local_input_alloc
.LVL1379:
	li	s0,-141
.LVL1380:
.LM4368:
	lw	s1,40(sp)
.LVL1381:
.LM4369:
.LM4370:
	bne	a0,zero,.L1262
.LM4371:
.LVL1382:
.LM4372:
.LM4373:
.LM4374:
	lw	a2,28(sp)
	addi	a1,sp,48
	mv	a0,s1
.LVL1383:
.LM4375:
	call	mbedtls_ct_memcmp
.LVL1384:
	mv	s0,a0
.LM4376:
	beq	a0,zero,.L1262
.LVL1385:
.L1267:
.LM4377:
	li	s0,-149
	j	.L1262
.LVL1386:
.L1263:
.LM4378:
	li	s1,0
.LVL1387:
.LM4379:
	li	s0,-141
.LVL1388:
.L1262:
.LM4380:
	li	a1,64
	addi	a0,sp,48
	call	mbedtls_platform_zeroize
.LVL1389:
.LM4381:
.LM4382:
	addi	a0,sp,32
	call	psa_crypto_local_input_free
.LVL1390:
.LM4383:
.LM4384:
.LM4385:
	addi	a0,sp,40
	sw	s1,40(sp)
	call	psa_crypto_local_input_free
.LVL1391:
.LM4386:
.LM4387:
.LM4388:
	lw	ra,140(sp)
	.cfi_remember_state
	.cfi_restore 1
	mv	a0,s0
	lw	s0,136(sp)
	.cfi_restore 8
.LVL1392:
.LM4389:
	lw	s1,132(sp)
	.cfi_restore 9
	lw	s2,128(sp)
	.cfi_restore 18
.LVL1393:
.LM4390:
	lw	s3,124(sp)
	.cfi_restore 19
.LVL1394:
.LM4391:
	addi	sp,sp,144
	.cfi_def_cfa_offset 0
.LVL1395:
.LM4392:
	jr	ra
.LVL1396:
.L1265:
	.cfi_restore_state
.LM4393:
	li	s1,0
	j	.L1267
	.cfi_endproc
.LFE224:
	.size	psa_mac_verify, .-psa_mac_verify
	.section	.text.psa_verify_message,"ax",@progbits
	.align	1
	.globl	psa_verify_message
	.type	psa_verify_message, @function
psa_verify_message:
.LVL1397:
.LFB231:
.LM4394:
	.cfi_startproc
.LM4395:
.LM4396:
.LM4397:
.LM4398:
.LM4399:
.LM4400:
	addi	sp,sp,-80
	.cfi_def_cfa_offset 80
	sw	s2,64(sp)
	sw	s6,48(sp)
	.cfi_offset 18, -16
	.cfi_offset 22, -32
	mv	s2,a1
	mv	s6,a0
.LM4401:
	mv	a1,a3
.LVL1398:
.LM4402:
	mv	a0,a2
.LVL1399:
.LM4403:
	addi	a2,sp,32
.LVL1400:
.LM4404:
	sw	s3,60(sp)
	sw	s4,56(sp)
	sw	ra,76(sp)
	sw	s0,72(sp)
	sw	s1,68(sp)
	sw	s5,52(sp)
	.cfi_offset 19, -20
	.cfi_offset 20, -24
	.cfi_offset 1, -4
	.cfi_offset 8, -8
	.cfi_offset 9, -12
	.cfi_offset 21, -28
.LM4405:
	mv	s3,a3
	sw	a4,12(sp)
	mv	s4,a5
.LM4406:
	sw	zero,44(sp)
.LM4407:
.LVL1401:
.LM4408:
.LM4409:
.LM4410:
	call	psa_crypto_local_input_alloc
.LVL1402:
.LM4411:
.LM4412:
	bne	a0,zero,.L1272
.LM4413:
.LM4414:
	lw	a0,12(sp)
.LVL1403:
.LM4415:
	addi	a2,sp,40
	mv	a1,s4
.LM4416:
	lw	s5,32(sp)
.LVL1404:
.LM4417:
.LM4418:
.LM4419:
	call	psa_crypto_local_input_alloc
.LVL1405:
	li	s0,-141
	lw	s1,40(sp)
.LVL1406:
.LM4420:
.LM4421:
	bne	a0,zero,.L1270
.LM4422:
.LVL1407:
.LM4423:
.LM4424:
.LBB966:
.LBI966:
.LM4425:
.LBB967:
.LM4426:
.LM4427:
.LM4428:
.LM4429:
.LM4430:
	mv	a1,s2
	li	a0,1
.LVL1408:
.LM4431:
	call	psa_sign_verify_check_alg
.LVL1409:
	mv	s0,a0
.LVL1410:
.LM4432:
.LM4433:
	bne	a0,zero,.L1270
.LVL1411:
.LBB968:
.LBI968:
.LM4434:
.LBB969:
.LM4435:
.LM4436:
	li	a2,4096
	mv	a3,s2
	addi	a2,a2,-2048
	addi	a1,sp,28
	mv	a0,s6
	call	psa_get_and_lock_key_slot_with_policy
.LVL1412:
	mv	s0,a0
.LVL1413:
.LM4437:
.LM4438:
	bne	a0,zero,.L1270
.LM4439:
.LM4440:
.LM4441:
	lw	a0,28(sp)
.LVL1414:
.LBB970:
.LBI970:
.LM4442:
.LBB971:
.LM4443:
.LM4444:
.LM4445:
.LM4446:
.LM4447:
.LM4448:
.LM4449:
	mv	a7,s4
	mv	a6,s1
	lw	a2,36(a0)
	lw	a1,32(a0)
	mv	a5,s3
	mv	a4,s5
	mv	a3,s2
	call	psa_verify_message_builtin
.LVL1415:
.LM4450:
	mv	s0,a0
.LVL1416:
.LM4451:
.LBE971:
.LBE970:
.LM4452:
.LM4453:
	lw	a0,28(sp)
	call	psa_unregister_read_under_mutex
.LVL1417:
.LM4454:
.LM4455:
	bne	s0,zero,.L1270
.LM4456:
	mv	s0,a0
.LVL1418:
.L1270:
.LM4457:
.LBE969:
.LBE968:
.LBE967:
.LBE966:
.LM4458:
.LM4459:
	addi	a0,sp,32
	call	psa_crypto_local_input_free
.LVL1419:
.LM4460:
.LM4461:
.LM4462:
	addi	a0,sp,40
	sw	s1,40(sp)
	call	psa_crypto_local_input_free
.LVL1420:
.LM4463:
.LM4464:
.LM4465:
	lw	ra,76(sp)
	.cfi_remember_state
	.cfi_restore 1
	mv	a0,s0
	lw	s0,72(sp)
	.cfi_restore 8
.LVL1421:
.LM4466:
	lw	s1,68(sp)
	.cfi_restore 9
	lw	s2,64(sp)
	.cfi_restore 18
.LVL1422:
.LM4467:
	lw	s3,60(sp)
	.cfi_restore 19
.LVL1423:
.LM4468:
	lw	s4,56(sp)
	.cfi_restore 20
.LVL1424:
.LM4469:
	lw	s5,52(sp)
	.cfi_restore 21
	lw	s6,48(sp)
	.cfi_restore 22
.LVL1425:
.LM4470:
	addi	sp,sp,80
	.cfi_def_cfa_offset 0
.LVL1426:
.LM4471:
	jr	ra
.LVL1427:
.L1272:
	.cfi_restore_state
.LM4472:
	li	s1,0
.LM4473:
	li	s0,-141
	j	.L1270
	.cfi_endproc
.LFE231:
	.size	psa_verify_message, .-psa_verify_message
	.section	.text.psa_verify_hash,"ax",@progbits
	.align	1
	.globl	psa_verify_hash
	.type	psa_verify_hash, @function
psa_verify_hash:
.LVL1428:
.LFB235:
.LM4474:
	.cfi_startproc
.LM4475:
.LM4476:
.LM4477:
.LM4478:
.LM4479:
.LM4480:
	addi	sp,sp,-80
	.cfi_def_cfa_offset 80
	sw	s2,64(sp)
	sw	s6,48(sp)
	.cfi_offset 18, -16
	.cfi_offset 22, -32
	mv	s2,a1
	mv	s6,a0
.LM4481:
	mv	a1,a3
.LVL1429:
.LM4482:
	mv	a0,a2
.LVL1430:
.LM4483:
	addi	a2,sp,32
.LVL1431:
.LM4484:
	sw	s3,60(sp)
	sw	s4,56(sp)
	sw	ra,76(sp)
	sw	s0,72(sp)
	sw	s1,68(sp)
	sw	s5,52(sp)
	.cfi_offset 19, -20
	.cfi_offset 20, -24
	.cfi_offset 1, -4
	.cfi_offset 8, -8
	.cfi_offset 9, -12
	.cfi_offset 21, -28
.LM4485:
	mv	s3,a3
	sw	a4,12(sp)
	mv	s4,a5
.LM4486:
	sw	zero,44(sp)
.LM4487:
.LVL1432:
.LM4488:
.LM4489:
.LM4490:
	call	psa_crypto_local_input_alloc
.LVL1433:
.LM4491:
.LM4492:
	bne	a0,zero,.L1279
.LM4493:
.LM4494:
	lw	a0,12(sp)
.LVL1434:
.LM4495:
	addi	a2,sp,40
	mv	a1,s4
.LM4496:
	lw	s5,32(sp)
.LVL1435:
.LM4497:
.LM4498:
.LM4499:
	call	psa_crypto_local_input_alloc
.LVL1436:
	li	s0,-141
	lw	s1,40(sp)
.LVL1437:
.LM4500:
.LM4501:
	bne	a0,zero,.L1276
.LM4502:
.LVL1438:
.LM4503:
.LM4504:
.LBB982:
.LBI982:
.LM4505:
.LBB983:
.LM4506:
.LM4507:
.LM4508:
.LM4509:
.LM4510:
	mv	a1,s2
	call	psa_sign_verify_check_alg
.LVL1439:
.LM4511:
	mv	s0,a0
.LVL1440:
.LM4512:
.LM4513:
	bne	a0,zero,.L1276
.LVL1441:
.LBB984:
.LBI984:
.LM4514:
.LBB985:
.LM4515:
.LM4516:
	mv	a3,s2
	li	a2,8192
	addi	a1,sp,28
	mv	a0,s6
	call	psa_get_and_lock_key_slot_with_policy
.LVL1442:
	mv	s0,a0
.LVL1443:
.LM4517:
.LM4518:
	bne	a0,zero,.L1276
.LM4519:
.LM4520:
.LM4521:
	lw	a0,28(sp)
.LVL1444:
.LBB986:
.LBI986:
.LM4522:
.LBB987:
.LM4523:
.LM4524:
.LBB988:
.LBI988:
.LM4525:
.LBB989:
.LM4526:
.LM4527:
.LBE989:
.LBE988:
.LM4528:
.LM4529:
	li	s0,-135
.LVL1445:
.LM4530:
	lw	a5,4(a0)
	srli	a5,a5,8
.LVL1446:
.LM4531:
	bne	a5,zero,.L1278
.LM4532:
.LM4533:
	lw	a2,36(a0)
	lw	a1,32(a0)
	mv	a7,s4
	mv	a6,s1
	mv	a5,s3
.LVL1447:
.LM4534:
	mv	a4,s5
	mv	a3,s2
	call	psa_verify_hash_builtin
.LVL1448:
.LM4535:
	mv	s0,a0
.L1278:
.LVL1449:
.LM4536:
.LBE987:
.LBE986:
.LM4537:
.LM4538:
	lw	a0,28(sp)
	call	psa_unregister_read_under_mutex
.LVL1450:
.LM4539:
.LM4540:
	bne	s0,zero,.L1276
.LM4541:
	mv	s0,a0
.LVL1451:
.L1276:
.LM4542:
.LBE985:
.LBE984:
.LBE983:
.LBE982:
.LM4543:
.LM4544:
	addi	a0,sp,32
	call	psa_crypto_local_input_free
.LVL1452:
.LM4545:
.LM4546:
.LM4547:
	addi	a0,sp,40
	sw	s1,40(sp)
	call	psa_crypto_local_input_free
.LVL1453:
.LM4548:
.LM4549:
.LM4550:
	lw	ra,76(sp)
	.cfi_remember_state
	.cfi_restore 1
	mv	a0,s0
	lw	s0,72(sp)
	.cfi_restore 8
.LVL1454:
.LM4551:
	lw	s1,68(sp)
	.cfi_restore 9
	lw	s2,64(sp)
	.cfi_restore 18
.LVL1455:
.LM4552:
	lw	s3,60(sp)
	.cfi_restore 19
.LVL1456:
.LM4553:
	lw	s4,56(sp)
	.cfi_restore 20
.LVL1457:
.LM4554:
	lw	s5,52(sp)
	.cfi_restore 21
	lw	s6,48(sp)
	.cfi_restore 22
.LVL1458:
.LM4555:
	addi	sp,sp,80
	.cfi_def_cfa_offset 0
.LVL1459:
.LM4556:
	jr	ra
.LVL1460:
.L1279:
	.cfi_restore_state
.LM4557:
	li	s1,0
.LM4558:
	li	s0,-141
	j	.L1276
	.cfi_endproc
.LFE235:
	.size	psa_verify_hash, .-psa_verify_hash
	.section	.text.psa_sign_hash_start,"ax",@progbits
	.align	1
	.globl	psa_sign_hash_start
	.type	psa_sign_hash_start, @function
psa_sign_hash_start:
.LVL1461:
.LFB243:
.LM4559:
	.cfi_startproc
.LM4560:
.LM4561:
.LM4562:
.LM4563:
.LM4564:
	addi	sp,sp,-48
	.cfi_def_cfa_offset 48
	sw	s0,40(sp)
	sw	ra,44(sp)
	sw	s1,36(sp)
	sw	s2,32(sp)
	sw	s3,28(sp)
	sw	s4,24(sp)
	sw	s5,20(sp)
	sw	s6,16(sp)
	.cfi_offset 8, -8
	.cfi_offset 1, -4
	.cfi_offset 9, -12
	.cfi_offset 18, -16
	.cfi_offset 19, -20
	.cfi_offset 20, -24
	.cfi_offset 21, -28
	.cfi_offset 22, -32
.LM4565:
	lw	a5,0(a0)
.LM4566:
	sw	zero,12(sp)
.LM4567:
.LVL1462:
.LM4568:
.LM4569:
.LM4570:
	li	s0,-137
.LM4571:
	bne	a5,zero,.L1283
.LM4572:
	lbu	a5,120(a0)
.LM4573:
	li	s0,-137
.LM4574:
	andi	a5,a5,1
	bne	a5,zero,.L1283
	mv	s4,a2
	mv	s6,a1
.LM4575:
	li	a2,116
.LVL1463:
.LM4576:
	li	a1,0
.LVL1464:
.LM4577:
	mv	s1,a0
.LM4578:
	addi	a0,a0,4
.LVL1465:
.LM4579:
	mv	s5,a4
	mv	s2,a3
	call	memset
.LVL1466:
.LM4580:
.LM4581:
	mv	a1,s4
	li	a0,0
	call	psa_sign_verify_check_alg
.LVL1467:
	mv	s0,a0
.LVL1468:
.LM4582:
.LM4583:
	beq	a0,zero,.L1285
.LM4584:
.LM4585:
	lbu	a5,120(s1)
	ori	a5,a5,1
	sb	a5,120(s1)
.LM4586:
.LVL1469:
.L1283:
.LM4587:
	lw	ra,44(sp)
	.cfi_remember_state
	.cfi_restore 1
	mv	a0,s0
	lw	s0,40(sp)
	.cfi_restore 8
	lw	s1,36(sp)
	.cfi_restore 9
	lw	s2,32(sp)
	.cfi_restore 18
	lw	s3,28(sp)
	.cfi_restore 19
	lw	s4,24(sp)
	.cfi_restore 20
	lw	s5,20(sp)
	.cfi_restore 21
	lw	s6,16(sp)
	.cfi_restore 22
	addi	sp,sp,48
	.cfi_def_cfa_offset 0
	jr	ra
.LVL1470:
.L1285:
	.cfi_restore_state
.LM4588:
.LM4589:
	mv	a3,s4
	li	a2,4096
	addi	a1,sp,4
	mv	a0,s6
	call	psa_get_and_lock_key_slot_with_policy
.LVL1471:
	mv	s0,a0
.LVL1472:
.LM4590:
.LM4591:
	bne	a0,zero,.L1291
.LM4592:
.LM4593:
	lw	a5,4(sp)
.LM4594:
	li	a4,28672
	lhu	a5,0(a5)
	and	a5,a5,a4
	bne	a5,a4,.L1292
.LM4595:
.LM4596:
	mv	a0,s2
	addi	a2,sp,8
	mv	a1,s5
	call	psa_crypto_local_input_alloc
.LVL1473:
	li	s0,-141
.LVL1474:
.LM4597:
	lw	s2,8(sp)
.LVL1475:
.LM4598:
.LM4599:
	bne	a0,zero,.L1286
.LM4600:
.LVL1476:
.LM4601:
.LM4602:
.LM4603:
	lw	a1,4(sp)
.LM4604:
	sw	zero,124(s1)
.LM4605:
.LVL1477:
.LBB996:
.LBI996:
.LM4606:
.LBB997:
.LM4607:
.LM4608:
.LBB998:
.LBI998:
.LM4609:
.LBB999:
.LM4610:
.LM4611:
.LBE999:
.LBE998:
.LM4612:
.LM4613:
	lw	a5,4(a1)
	srli	a5,a5,8
.LVL1478:
.LM4614:
	bne	a5,zero,.L1294
.LBE997:
.LBE996:
.LM4615:
	lw	a2,32(a1)
.LM4616:
	lw	a3,36(a1)
.LBB1002:
.LBB1000:
.LM4617:
.LM4618:
	li	a5,1
.LVL1479:
.LM4619:
	sw	a5,0(s1)
.LVL1480:
.LM4620:
.LM4621:
	mv	a6,s5
	mv	a5,s2
	mv	a4,s4
	addi	a0,s1,4
.LVL1481:
.LM4622:
	call	mbedtls_psa_sign_hash_start
.LVL1482:
.LM4623:
	mv	s0,a0
.LM4624:
.LM4625:
.LVL1483:
.LDL10:
.LM4626:
.LBE1000:
.LBE1002:
.LM4627:
.LM4628:
	beq	a0,zero,.L1287
.LVL1484:
.L1286:
.LM4629:
.LM4630:
	lbu	a5,120(s1)
.LM4631:
	mv	a0,s1
.LM4632:
	ori	a5,a5,1
	sb	a5,120(s1)
.LM4633:
	call	psa_sign_hash_abort_internal
.LVL1485:
.L1287:
.LM4634:
.LM4635:
	lw	a0,4(sp)
	call	psa_unregister_read_under_mutex
.LVL1486:
	mv	s3,a0
.LVL1487:
.LM4636:
.LM4637:
	beq	a0,zero,.L1288
.LM4638:
.LM4639:
	lbu	a5,120(s1)
	ori	a5,a5,1
	sb	a5,120(s1)
.L1288:
.LM4640:
.LVL1488:
.LM4641:
	addi	a0,sp,8
.LVL1489:
.LM4642:
	sw	s2,8(sp)
	call	psa_crypto_local_input_free
.LVL1490:
.LM4643:
.LM4644:
.LM4645:
	bne	s0,zero,.L1283
.LM4646:
	mv	s0,s3
	j	.L1283
.LVL1491:
.L1291:
.LM4647:
	li	s2,0
.LVL1492:
.LM4648:
	j	.L1286
.LVL1493:
.L1292:
.LM4649:
	li	s2,0
.LVL1494:
.L1294:
.LBB1003:
.LBB1001:
.LM4650:
	li	s0,-135
	j	.L1286
.LBE1001:
.LBE1003:
	.cfi_endproc
.LFE243:
	.size	psa_sign_hash_start, .-psa_sign_hash_start
	.section	.text.psa_verify_hash_start,"ax",@progbits
	.align	1
	.globl	psa_verify_hash_start
	.type	psa_verify_hash_start, @function
psa_verify_hash_start:
.LVL1495:
.LFB247:
.LM4651:
	.cfi_startproc
.LM4652:
.LM4653:
.LM4654:
.LM4655:
.LM4656:
.LM4657:
.LM4658:
.LM4659:
	addi	sp,sp,-112
	.cfi_def_cfa_offset 112
	sw	s0,104(sp)
	sw	ra,108(sp)
	sw	s1,100(sp)
	sw	s2,96(sp)
	sw	s3,92(sp)
	sw	s4,88(sp)
	sw	s5,84(sp)
	sw	s6,80(sp)
	sw	s7,76(sp)
	sw	s8,72(sp)
	.cfi_offset 8, -8
	.cfi_offset 1, -4
	.cfi_offset 9, -12
	.cfi_offset 18, -16
	.cfi_offset 19, -20
	.cfi_offset 20, -24
	.cfi_offset 21, -28
	.cfi_offset 22, -32
	.cfi_offset 23, -36
	.cfi_offset 24, -40
.LM4660:
	lw	a7,0(a0)
.LM4661:
	sw	zero,60(sp)
.LM4662:
.LVL1496:
.LM4663:
.LM4664:
.LM4665:
	li	s0,-137
.LM4666:
	bne	a7,zero,.L1302
.LM4667:
	lbu	a7,128(a0)
.LM4668:
	li	s0,-137
.LM4669:
	andi	a7,a7,1
	bne	a7,zero,.L1302
	mv	s2,a2
	mv	s7,a1
.LM4670:
	li	a2,124
.LVL1497:
.LM4671:
	li	a1,0
.LVL1498:
.LM4672:
	mv	s1,a0
.LM4673:
	addi	a0,a0,4
.LVL1499:
.LM4674:
	mv	s4,a6
	mv	s3,a5
	mv	s6,a4
	mv	s8,a3
	call	memset
.LVL1500:
.LM4675:
.LM4676:
	mv	a1,s2
	li	a0,0
	call	psa_sign_verify_check_alg
.LVL1501:
	mv	s0,a0
.LVL1502:
.LM4677:
.LM4678:
	beq	a0,zero,.L1304
.L1321:
.LM4679:
.LM4680:
	lbu	a5,128(s1)
	ori	a5,a5,1
	sb	a5,128(s1)
.LM4681:
.LVL1503:
.L1302:
.LM4682:
	lw	ra,108(sp)
	.cfi_remember_state
	.cfi_restore 1
	mv	a0,s0
	lw	s0,104(sp)
	.cfi_restore 8
	lw	s1,100(sp)
	.cfi_restore 9
	lw	s2,96(sp)
	.cfi_restore 18
	lw	s3,92(sp)
	.cfi_restore 19
	lw	s4,88(sp)
	.cfi_restore 20
	lw	s5,84(sp)
	.cfi_restore 21
	lw	s6,80(sp)
	.cfi_restore 22
	lw	s7,76(sp)
	.cfi_restore 23
	lw	s8,72(sp)
	.cfi_restore 24
	addi	sp,sp,112
	.cfi_def_cfa_offset 0
	jr	ra
.LVL1504:
.L1304:
	.cfi_restore_state
.LM4683:
.LM4684:
	mv	a3,s2
	li	a2,8192
	addi	a1,sp,44
	mv	a0,s7
	call	psa_get_and_lock_key_slot_with_policy
.LVL1505:
	mv	s0,a0
.LVL1506:
.LM4685:
.LM4686:
	bne	a0,zero,.L1321
.LM4687:
.LM4688:
	addi	a2,sp,48
	mv	a1,s6
	mv	a0,s8
	call	psa_crypto_local_input_alloc
.LVL1507:
.LM4689:
.LM4690:
	bne	a0,zero,.L1311
.LM4691:
.LM4692:
	lw	a5,48(sp)
.LM4693:
	mv	a0,s3
.LVL1508:
.LM4694:
	addi	a2,sp,56
	mv	a1,s4
.LM4695:
	sw	a5,28(sp)
.LVL1509:
.LM4696:
.LM4697:
.LM4698:
	call	psa_crypto_local_input_alloc
.LVL1510:
.LM4699:
	li	s0,-141
	lw	s3,56(sp)
.LVL1511:
.LM4700:
.LM4701:
	bne	a0,zero,.L1306
.LM4702:
.LVL1512:
.LM4703:
.LM4704:
.LM4705:
	lw	a1,44(sp)
.LM4706:
	sw	zero,132(s1)
.LM4707:
.LVL1513:
.LBB1010:
.LBI1010:
.LM4708:
.LBB1011:
.LM4709:
.LM4710:
.LBB1012:
.LBI1012:
.LM4711:
.LBB1013:
.LM4712:
.LM4713:
.LBE1013:
.LBE1012:
.LM4714:
.LM4715:
	lw	a0,4(a1)
.LVL1514:
.LM4716:
	srli	a0,a0,8
.LVL1515:
.LM4717:
	bne	a0,zero,.L1313
.LBE1011:
.LBE1010:
.LM4718:
	lw	a2,32(a1)
.LM4719:
	lw	a3,36(a1)
.LBB1016:
.LBB1014:
.LM4720:
.LM4721:
	li	a4,1
.LM4722:
	lw	a5,28(sp)
.LM4723:
	sw	a4,0(s1)
.LVL1516:
.LM4724:
.LM4725:
	sw	s4,0(sp)
	mv	a7,s3
	mv	a6,s6
	mv	a4,s2
	addi	a0,s1,4
.LVL1517:
.LM4726:
	call	mbedtls_psa_verify_hash_start
.LVL1518:
.LM4727:
	mv	s0,a0
.LM4728:
.LM4729:
.LVL1519:
.LDL11:
.LM4730:
.LBE1014:
.LBE1016:
.LM4731:
.LM4732:
	beq	a0,zero,.L1307
.LVL1520:
.L1306:
.LM4733:
.LM4734:
	lbu	a5,128(s1)
.LM4735:
	mv	a0,s1
.LM4736:
	ori	a5,a5,1
	sb	a5,128(s1)
.LM4737:
	call	psa_verify_hash_abort_internal
.LVL1521:
.L1307:
.LM4738:
.LM4739:
	lw	a0,44(sp)
	call	psa_unregister_read_under_mutex
.LVL1522:
	mv	s2,a0
.LVL1523:
.LM4740:
.LM4741:
	beq	a0,zero,.L1308
.LM4742:
.LM4743:
	lbu	a5,128(s1)
	ori	a5,a5,1
	sb	a5,128(s1)
.L1308:
.LM4744:
.LVL1524:
.LM4745:
	addi	a0,sp,48
.LVL1525:
.LM4746:
	call	psa_crypto_local_input_free
.LVL1526:
.LM4747:
.LM4748:
.LM4749:
	addi	a0,sp,56
	sw	s3,56(sp)
	call	psa_crypto_local_input_free
.LVL1527:
.LM4750:
.LM4751:
.LM4752:
	bne	s0,zero,.L1302
.LM4753:
	mv	s0,s2
	j	.L1302
.LVL1528:
.L1311:
.LM4754:
	li	s3,0
.LVL1529:
.LM4755:
	li	s0,-141
	j	.L1306
.LVL1530:
.L1313:
.LBB1017:
.LBB1015:
.LM4756:
	li	s0,-135
	j	.L1306
.LBE1015:
.LBE1017:
	.cfi_endproc
.LFE247:
	.size	psa_verify_hash_start, .-psa_verify_hash_start
	.section	.text.psa_cipher_set_iv,"ax",@progbits
	.align	1
	.globl	psa_cipher_set_iv
	.type	psa_cipher_set_iv, @function
psa_cipher_set_iv:
.LVL1531:
.LFB265:
.LM4757:
	.cfi_startproc
.LM4758:
.LM4759:
.LM4760:
	addi	sp,sp,-64
	.cfi_def_cfa_offset 64
	sw	s1,52(sp)
	sw	ra,60(sp)
	sw	s0,56(sp)
	sw	s2,48(sp)
	sw	s3,44(sp)
	.cfi_offset 9, -12
	.cfi_offset 1, -4
	.cfi_offset 8, -8
	.cfi_offset 18, -16
	.cfi_offset 19, -20
.LM4761:
	lw	a5,0(a0)
.LM4762:
	sw	zero,28(sp)
.LM4763:
.LVL1532:
.LM4764:
.LM4765:
.LM4766:
	mv	s1,a0
.LM4767:
	beq	a5,zero,.L1326
.LM4768:
.LM4769:
	lw	s3,4(a0)
.LM4770:
	li	a5,1
.LM4771:
	andi	s3,s3,3
.LM4772:
	bne	s3,a5,.L1326
.LM4773:
	li	a5,16
	mv	a0,a1
.LVL1533:
.LM4774:
	li	s2,0
	mv	a1,a2
.LVL1534:
.LM4775:
.LM4776:
	bgtu	a2,a5,.L1329
.LM4777:
.LM4778:
	addi	a2,sp,24
.LVL1535:
.LM4779:
	sw	a1,12(sp)
	call	psa_crypto_local_input_alloc
.LVL1536:
.LM4780:
	li	s0,-141
	lw	s2,24(sp)
.LVL1537:
.LM4781:
.LM4782:
	bne	a0,zero,.L1323
.LM4783:
.LVL1538:
.LM4784:
.LM4785:
.LBB1020:
.LBI1020:
.LM4786:
.LBB1021:
.LM4787:
	lw	a5,0(s1)
	bne	a5,s3,.L1329
.LM4788:
.LM4789:
	lw	a2,12(sp)
	mv	a1,s2
	addi	a0,s1,8
.LVL1539:
.LM4790:
	call	mbedtls_psa_cipher_set_iv
.LVL1540:
	mv	s0,a0
.LVL1541:
.LDL12:
.LM4791:
.LBE1021:
.LBE1020:
.LM4792:
.LM4793:
	bne	a0,zero,.L1323
.LM4794:
.LM4795:
	lbu	a5,4(s1)
	ori	a5,a5,2
	sb	a5,4(s1)
.LVL1542:
.L1324:
.LM4796:
.LM4797:
	addi	a0,sp,24
	sw	s2,24(sp)
	call	psa_crypto_local_input_free
.LVL1543:
.LM4798:
.LM4799:
.LM4800:
	lw	ra,60(sp)
	.cfi_remember_state
	.cfi_restore 1
	mv	a0,s0
	lw	s0,56(sp)
	.cfi_restore 8
	lw	s1,52(sp)
	.cfi_restore 9
.LVL1544:
.LM4801:
	lw	s2,48(sp)
	.cfi_restore 18
	lw	s3,44(sp)
	.cfi_restore 19
	addi	sp,sp,64
	.cfi_def_cfa_offset 0
	jr	ra
.LVL1545:
.L1326:
	.cfi_restore_state
.LM4802:
	li	s2,0
.LM4803:
	li	s0,-137
.LVL1546:
.L1323:
.LM4804:
	mv	a0,s1
	call	psa_cipher_abort
.LVL1547:
	j	.L1324
.LVL1548:
.L1329:
.LBB1023:
.LBB1022:
.LM4805:
	li	s0,-135
	j	.L1323
.LBE1022:
.LBE1023:
	.cfi_endproc
.LFE265:
	.size	psa_cipher_set_iv, .-psa_cipher_set_iv
	.section	.text.psa_aead_set_nonce,"ax",@progbits
	.align	1
	.globl	psa_aead_set_nonce
	.type	psa_aead_set_nonce, @function
psa_aead_set_nonce:
.LVL1549:
.LFB282:
.LM4806:
	.cfi_startproc
.LM4807:
.LM4808:
.LM4809:
.LM4810:
.LM4811:
.LM4812:
	addi	sp,sp,-32
	.cfi_def_cfa_offset 32
	sw	s0,24(sp)
	.cfi_offset 8, -8
	mv	s0,a2
	sw	s1,20(sp)
.LM4813:
	addi	a2,sp,8
.LVL1550:
	.cfi_offset 9, -12
.LM4814:
	mv	s1,a0
	mv	a0,a1
.LVL1551:
.LM4815:
	mv	a1,s0
.LVL1552:
.LM4816:
	sw	ra,28(sp)
	.cfi_offset 1, -4
.LM4817:
	call	psa_crypto_local_input_alloc
.LVL1553:
.LM4818:
.LM4819:
	bne	a0,zero,.L1333
.LM4820:
.LVL1554:
.LM4821:
.LM4822:
.LM4823:
	lw	a1,8(sp)
	mv	a2,s0
	mv	a0,s1
.LVL1555:
.LM4824:
	call	psa_aead_set_nonce_internal
.LVL1556:
.LM4825:
	mv	s0,a0
.LVL1557:
.L1332:
.LM4826:
.LM4827:
	addi	a0,sp,8
	call	psa_crypto_local_input_free
.LVL1558:
.LM4828:
.LM4829:
.LM4830:
	lw	ra,28(sp)
	.cfi_remember_state
	.cfi_restore 1
	mv	a0,s0
	lw	s0,24(sp)
	.cfi_restore 8
.LVL1559:
.LM4831:
	lw	s1,20(sp)
	.cfi_restore 9
.LVL1560:
.LM4832:
	addi	sp,sp,32
	.cfi_def_cfa_offset 0
	jr	ra
.LVL1561:
.L1333:
	.cfi_restore_state
.LM4833:
	li	s0,-141
.LVL1562:
.LM4834:
	j	.L1332
	.cfi_endproc
.LFE282:
	.size	psa_aead_set_nonce, .-psa_aead_set_nonce
	.section	.text.psa_aead_update_ad,"ax",@progbits
	.align	1
	.globl	psa_aead_update_ad
	.type	psa_aead_update_ad, @function
psa_aead_update_ad:
.LVL1563:
.LFB284:
.LM4835:
	.cfi_startproc
.LM4836:
.LM4837:
.LM4838:
.LM4839:
.LM4840:
.LM4841:
	addi	sp,sp,-48
	.cfi_def_cfa_offset 48
	sw	s3,28(sp)
	.cfi_offset 19, -20
	mv	s3,a2
	sw	s0,40(sp)
.LM4842:
	addi	a2,sp,8
.LVL1564:
	.cfi_offset 8, -8
.LM4843:
	mv	s0,a0
	mv	a0,a1
.LVL1565:
.LM4844:
	mv	a1,s3
.LVL1566:
.LM4845:
	sw	ra,44(sp)
	sw	s1,36(sp)
	sw	s2,32(sp)
	.cfi_offset 1, -4
	.cfi_offset 9, -12
	.cfi_offset 18, -16
.LM4846:
	call	psa_crypto_local_input_alloc
.LVL1567:
.LM4847:
.LM4848:
	bne	a0,zero,.L1344
.LM4849:
.LVL1568:
.LM4850:
.LM4851:
.LM4852:
	lw	a4,0(s0)
.LM4853:
	beq	a4,zero,.L1345
.LM4854:
.LM4855:
	lw	a5,20(s0)
.LM4856:
	li	a3,1
.LM4857:
	li	s1,-137
.LM4858:
	andi	a5,a5,9
.LM4859:
	bne	a5,a3,.L1336
	mv	s2,a0
.LM4860:
.LM4861:
	bne	s3,zero,.L1337
.LVL1569:
.L1343:
.LM4862:
.LM4863:
	lbu	a5,20(s0)
	ori	a5,a5,4
	sb	a5,20(s0)
.LVL1570:
.L1338:
.LM4864:
.LM4865:
	addi	a0,sp,8
	call	psa_crypto_local_input_free
.LVL1571:
.LM4866:
.LM4867:
.LM4868:
	lw	ra,44(sp)
	.cfi_remember_state
	.cfi_restore 1
	lw	s0,40(sp)
	.cfi_restore 8
.LVL1572:
.LM4869:
	lw	s1,36(sp)
	.cfi_restore 9
	lw	s3,28(sp)
	.cfi_restore 19
.LVL1573:
.LM4870:
	mv	a0,s2
	lw	s2,32(sp)
	.cfi_restore 18
	addi	sp,sp,48
	.cfi_def_cfa_offset 0
	jr	ra
.LVL1574:
.L1337:
	.cfi_restore_state
.LM4871:
	lbu	a5,20(s0)
.LM4872:
	lw	a1,8(sp)
.LM4873:
.LM4874:
	andi	a5,a5,2
	beq	a5,zero,.L1339
.LM4875:
.LM4876:
	lw	a5,12(s0)
.LM4877:
	bgeu	a5,s3,.L1340
.L1342:
.LM4878:
	li	s1,-135
.LVL1575:
.L1336:
.LM4879:
	mv	a0,s0
	call	psa_aead_abort
.LVL1576:
	mv	s2,s1
	j	.L1338
.LVL1577:
.L1340:
.LM4880:
.LM4881:
	sub	a5,a5,s3
	sw	a5,12(s0)
.L1341:
.LM4882:
.LVL1578:
.LBB1026:
.LBI1026:
.LM4883:
.LBB1027:
.LM4884:
	li	a5,1
	bne	a4,a5,.L1342
.LM4885:
.LM4886:
	mv	a2,s3
	addi	a0,s0,24
.LVL1579:
.LM4887:
	call	mbedtls_psa_aead_update_ad
.LVL1580:
.LM4888:
	mv	s1,a0
.LVL1581:
.LDL13:
.LM4889:
.LBE1027:
.LBE1026:
.LM4890:
.LM4891:
	beq	a0,zero,.L1343
	j	.L1336
.LVL1582:
.L1339:
.LM4892:
.LM4893:
	lw	a3,4(s0)
	li	a5,89128960
	addi	a5,a5,256
	bne	a3,a5,.L1341
	j	.L1336
.LVL1583:
.L1344:
.LM4894:
	li	s1,-141
	j	.L1336
.LVL1584:
.L1345:
.LM4895:
	li	s1,-137
	j	.L1336
	.cfi_endproc
.LFE284:
	.size	psa_aead_update_ad, .-psa_aead_update_ad
	.section	.text.psa_pake_set_user,"ax",@progbits
	.align	1
	.globl	psa_pake_set_user
	.type	psa_pake_set_user, @function
psa_pake_set_user:
.LVL1585:
.LFB365:
.LM4896:
	.cfi_startproc
.LM4897:
.LM4898:
.LM4899:
	addi	sp,sp,-64
	.cfi_def_cfa_offset 64
	sw	s1,52(sp)
	sw	ra,60(sp)
	sw	s0,56(sp)
	sw	s2,48(sp)
	sw	s3,44(sp)
	.cfi_offset 9, -12
	.cfi_offset 1, -4
	.cfi_offset 8, -8
	.cfi_offset 18, -16
	.cfi_offset 19, -20
.LM4900:
	mv	s1,a0
.LM4901:
	lbu	a0,12(a0)
.LVL1586:
.LM4902:
	sw	zero,28(sp)
.LM4903:
.LVL1587:
.LM4904:
.LM4905:
.LM4906:
	li	a5,1
	bne	a0,a5,.L1357
	mv	s2,a2
.LM4907:
.LM4908:
	beq	a2,zero,.L1356
.LM4909:
.LM4910:
	lw	a5,32(s1)
	bne	a5,zero,.L1357
	mv	s3,a1
.LM4911:
.LM4912:
	mv	a1,a2
.LVL1588:
.LM4913:
	call	calloc
.LVL1589:
.LM4914:
	sw	a0,28(s1)
.LM4915:
.LM4916:
	mv	a1,a0
.LM4917:
	li	s0,-141
.LM4918:
	beq	a0,zero,.L1353
.LM4919:
.LM4920:
	mv	a1,s2
	addi	a2,sp,24
	mv	a0,s3
	call	psa_crypto_local_input_alloc
.LVL1590:
	lw	a1,24(sp)
.LVL1591:
.LM4921:
.LM4922:
	mv	s0,a0
.LM4923:
	bne	a0,zero,.L1359
.LM4924:
.LVL1592:
.LM4925:
.LM4926:
	lw	a0,28(s1)
.LVL1593:
.LM4927:
	mv	a2,s2
	sw	a1,12(sp)
	call	memcpy
.LVL1594:
.LM4928:
	lw	a1,12(sp)
.LM4929:
	sw	s2,32(s1)
.LM4930:
.LVL1595:
.L1353:
.LM4931:
.LM4932:
	addi	a0,sp,24
	sw	a1,24(sp)
	call	psa_crypto_local_input_free
.LVL1596:
.LM4933:
.LM4934:
.LM4935:
	beq	s0,zero,.L1352
.LM4936:
	mv	a0,s1
	call	psa_pake_abort
.LVL1597:
.LM4937:
.L1352:
.LM4938:
	lw	ra,60(sp)
	.cfi_remember_state
	.cfi_restore 1
	mv	a0,s0
	lw	s0,56(sp)
	.cfi_restore 8
.LVL1598:
.LM4939:
	lw	s1,52(sp)
	.cfi_restore 9
.LVL1599:
.LM4940:
	lw	s2,48(sp)
	.cfi_restore 18
	lw	s3,44(sp)
	.cfi_restore 19
	addi	sp,sp,64
	.cfi_def_cfa_offset 0
	jr	ra
.LVL1600:
.L1356:
	.cfi_restore_state
.LM4941:
	li	a1,0
.LVL1601:
.LM4942:
	li	s0,-135
	j	.L1353
.LVL1602:
.L1357:
.LM4943:
	li	a1,0
.LVL1603:
.LM4944:
	li	s0,-137
	j	.L1353
.LVL1604:
.L1359:
.LM4945:
	li	s0,-141
.LVL1605:
.LM4946:
	j	.L1353
	.cfi_endproc
.LFE365:
	.size	psa_pake_set_user, .-psa_pake_set_user
	.section	.text.psa_pake_set_peer,"ax",@progbits
	.align	1
	.globl	psa_pake_set_peer
	.type	psa_pake_set_peer, @function
psa_pake_set_peer:
.LVL1606:
.LFB366:
.LM4947:
	.cfi_startproc
.LM4948:
.LM4949:
.LM4950:
	addi	sp,sp,-64
	.cfi_def_cfa_offset 64
	sw	s1,52(sp)
	sw	ra,60(sp)
	sw	s0,56(sp)
	sw	s2,48(sp)
	sw	s3,44(sp)
	.cfi_offset 9, -12
	.cfi_offset 1, -4
	.cfi_offset 8, -8
	.cfi_offset 18, -16
	.cfi_offset 19, -20
.LM4951:
	mv	s1,a0
.LM4952:
	lbu	a0,12(a0)
.LVL1607:
.LM4953:
	sw	zero,28(sp)
.LM4954:
.LVL1608:
.LM4955:
.LM4956:
.LM4957:
	li	a5,1
	bne	a0,a5,.L1369
	mv	s2,a2
.LM4958:
.LM4959:
	beq	a2,zero,.L1368
.LM4960:
.LM4961:
	lw	a5,40(s1)
	bne	a5,zero,.L1369
	mv	s3,a1
.LM4962:
.LM4963:
	mv	a1,a2
.LVL1609:
.LM4964:
	call	calloc
.LVL1610:
.LM4965:
	sw	a0,36(s1)
.LM4966:
.LM4967:
	mv	a1,a0
.LM4968:
	li	s0,-141
.LM4969:
	beq	a0,zero,.L1365
.LM4970:
.LM4971:
	mv	a1,s2
	addi	a2,sp,24
	mv	a0,s3
	call	psa_crypto_local_input_alloc
.LVL1611:
	lw	a1,24(sp)
.LVL1612:
.LM4972:
.LM4973:
	mv	s0,a0
.LM4974:
	bne	a0,zero,.L1371
.LM4975:
.LVL1613:
.LM4976:
.LM4977:
	lw	a0,36(s1)
.LVL1614:
.LM4978:
	mv	a2,s2
	sw	a1,12(sp)
	call	memcpy
.LVL1615:
.LM4979:
	lw	a1,12(sp)
.LM4980:
	sw	s2,40(s1)
.LM4981:
.LVL1616:
.L1365:
.LM4982:
.LM4983:
	addi	a0,sp,24
	sw	a1,24(sp)
	call	psa_crypto_local_input_free
.LVL1617:
.LM4984:
.LM4985:
.LM4986:
	beq	s0,zero,.L1364
.LM4987:
	mv	a0,s1
	call	psa_pake_abort
.LVL1618:
.LM4988:
.L1364:
.LM4989:
	lw	ra,60(sp)
	.cfi_remember_state
	.cfi_restore 1
	mv	a0,s0
	lw	s0,56(sp)
	.cfi_restore 8
.LVL1619:
.LM4990:
	lw	s1,52(sp)
	.cfi_restore 9
.LVL1620:
.LM4991:
	lw	s2,48(sp)
	.cfi_restore 18
	lw	s3,44(sp)
	.cfi_restore 19
	addi	sp,sp,64
	.cfi_def_cfa_offset 0
	jr	ra
.LVL1621:
.L1368:
	.cfi_restore_state
.LM4992:
	li	a1,0
.LVL1622:
.LM4993:
	li	s0,-135
	j	.L1365
.LVL1623:
.L1369:
.LM4994:
	li	a1,0
.LVL1624:
.LM4995:
	li	s0,-137
	j	.L1365
.LVL1625:
.L1371:
.LM4996:
	li	s0,-141
.LVL1626:
.LM4997:
	j	.L1365
	.cfi_endproc
.LFE366:
	.size	psa_pake_set_peer, .-psa_pake_set_peer
	.section	.text.psa_pake_input,"ax",@progbits
	.align	1
	.globl	psa_pake_input
	.type	psa_pake_input, @function
psa_pake_input:
.LVL1627:
.LFB373:
.LM4998:
	.cfi_startproc
.LM4999:
.LM5000:
.LM5001:
.LM5002:
	addi	sp,sp,-80
	.cfi_def_cfa_offset 80
	sw	s0,72(sp)
	sw	s5,52(sp)
	sw	s6,48(sp)
	sw	ra,76(sp)
	sw	s1,68(sp)
	sw	s2,64(sp)
	sw	s3,60(sp)
	sw	s4,56(sp)
	sw	s7,44(sp)
	.cfi_offset 8, -8
	.cfi_offset 21, -28
	.cfi_offset 22, -32
	.cfi_offset 1, -4
	.cfi_offset 9, -12
	.cfi_offset 18, -16
	.cfi_offset 19, -20
	.cfi_offset 20, -24
	.cfi_offset 23, -36
.LM5003:
	lw	a4,4(a0)
	li	a5,167772160
	addi	a5,a5,256
.LM5004:
	mv	s0,a0
	mv	s6,a2
	mv	s5,a3
.LM5005:
	bne	a4,a5,.L1377
.LM5006:
	lw	s2,8(a0)
.LM5007:
	beq	s2,zero,.L1378
.L1377:
.LM5008:
	addi	a5,a1,-1
	andi	a5,a5,0xff
	li	a4,1
.LM5009:
	li	s2,65
.LM5010:
	bleu	a5,a4,.L1378
.LM5011:
	li	s2,32
.L1378:
.LVL1628:
.LM5012:
.LM5013:
	lbu	a4,12(s0)
.LM5014:
	sw	zero,28(sp)
.LM5015:
.LVL1629:
.LM5016:
.LM5017:
.LM5018:
	li	a5,1
	beq	a4,a5,.L1379
.LVL1630:
.L1382:
.LM5019:
.LM5020:
	lbu	s3,12(s0)
	li	a5,2
	beq	s3,a5,.L1412
.LM5021:
	li	a2,0
.LM5022:
	li	s1,-137
	j	.L1380
.LVL1631:
.L1379:
.LM5023:
	mv	a0,s0
	sw	a1,12(sp)
.LM5024:
.LM5025:
	call	psa_pake_complete_inputs
.LVL1632:
.LM5026:
	lw	a1,12(sp)
.LM5027:
	mv	s1,a0
.LVL1633:
.LM5028:
.LM5029:
	li	a2,0
.LM5030:
	beq	a0,zero,.L1382
.LVL1634:
.L1380:
.LM5031:
.LM5032:
	addi	a0,sp,24
	sw	a2,24(sp)
	call	psa_crypto_local_input_free
.LVL1635:
.LM5033:
.LM5034:
.LM5035:
	beq	s1,zero,.L1376
.LM5036:
	mv	a0,s0
	call	psa_pake_abort
.LVL1636:
.LM5037:
.L1376:
.LM5038:
	lw	ra,76(sp)
	.cfi_remember_state
	.cfi_restore 1
	lw	s0,72(sp)
	.cfi_restore 8
.LVL1637:
.LM5039:
	lw	s2,64(sp)
	.cfi_restore 18
	lw	s3,60(sp)
	.cfi_restore 19
	lw	s4,56(sp)
	.cfi_restore 20
	lw	s5,52(sp)
	.cfi_restore 21
.LVL1638:
.LM5040:
	lw	s6,48(sp)
	.cfi_restore 22
.LVL1639:
.LM5041:
	lw	s7,44(sp)
	.cfi_restore 23
	mv	a0,s1
	lw	s1,68(sp)
	.cfi_restore 9
.LVL1640:
.LM5042:
	addi	sp,sp,80
	.cfi_def_cfa_offset 0
	jr	ra
.LVL1641:
.L1412:
	.cfi_restore_state
.LM5043:
.LM5044:
	addi	a5,s5,-1
	bleu	s2,a5,.L1394
.LM5045:
	lw	s4,4(s0)
	li	a5,167772160
	addi	a5,a5,256
.LM5046:
	li	a2,0
.LM5047:
	bne	s4,a5,.L1399
.LM5048:
.LM5049:
	mv	a0,s0
	call	psa_jpake_prologue
.LVL1642:
	mv	s1,a0
.LVL1643:
.LM5050:
.LM5051:
	li	a2,0
.LM5052:
	bne	a0,zero,.L1380
.LM5053:
.LM5054:
	addi	a0,s0,13
	call	convert_jpake_computation_stage_to_driver_step
.LVL1644:
.LM5055:
	addi	a2,sp,24
.LM5056:
	mv	s7,a0
.LVL1645:
.LM5057:
.LM5058:
.LM5059:
	mv	a1,s5
	mv	a0,s6
	call	psa_crypto_local_input_alloc
.LVL1646:
	lw	a2,24(sp)
.LVL1647:
.LM5060:
.LM5061:
	li	s1,-141
.LM5062:
	bne	a0,zero,.L1380
.LM5063:
.LVL1648:
.LM5064:
.LM5065:
.LBB1034:
.LBI1034:
.LM5066:
.LBB1035:
.LM5067:
	lw	s2,0(s0)
.LVL1649:
.LM5068:
	li	a5,1
.LBE1035:
.LBE1034:
.LM5069:
	li	s1,-135
.LBB1038:
.LBB1036:
.LM5070:
	bne	s2,a5,.L1380
.LM5071:
.LM5072:
	mv	a3,s5
	mv	a1,s7
	addi	a0,s0,20
.LVL1650:
.LM5073:
	sw	a2,12(sp)
	call	mbedtls_psa_pake_input
.LVL1651:
.LM5074:
.LBE1036:
.LBE1038:
.LM5075:
	lw	a2,12(sp)
.LBB1039:
.LBB1037:
.LM5076:
	mv	s1,a0
.LVL1652:
.LM5077:
.LBE1037:
.LBE1039:
.LM5078:
.LM5079:
	bne	a0,zero,.L1380
.LM5080:
	lw	a5,4(s0)
	bne	a5,s4,.L1399
.LM5081:
.LVL1653:
.LBB1040:
.LBI1040:
.LM5082:
.LBB1041:
.LM5083:
.LM5084:
.LM5085:
	lbu	a5,17(s0)
.LM5086:
	li	a4,3
	bne	a5,a4,.L1383
.LVL1654:
.LBB1042:
.LBI1042:
.LM5087:
.LBB1043:
.LM5088:
.LM5089:
.LM5090:
	lbu	a4,15(s0)
.LM5091:
	lbu	a5,13(s0)
.LM5092:
	li	a3,0
.LM5093:
	add	a4,a4,s2
	andi	a4,a4,0xff
	sb	a4,15(s0)
.LM5094:
.LM5095:
	beq	a5,s3,.L1384
.LM5096:
	seqz	a3,a5
	add	a3,a3,s2
.L1384:
.LM5097:
	bne	a4,a3,.L1385
.LM5098:
.LM5099:
	sb	s2,14(s0)
.L1385:
.LM5100:
.LM5101:
.LM5102:
	li	a1,2
.LM5103:
	li	a3,0
.LM5104:
	beq	a5,a1,.L1386
.LM5105:
	seqz	a3,a5
	addi	a3,a3,1
.L1386:
.LM5106:
	bne	a4,a3,.L1387
.LM5107:
	li	a1,2
.LM5108:
	lbu	a3,16(s0)
.LM5109:
	li	a4,0
.LM5110:
	beq	a5,a1,.L1388
.LM5111:
	seqz	a4,a5
	addi	a4,a4,1
.L1388:
.LM5112:
	bne	a3,a4,.L1387
.LM5113:
.LM5114:
	addi	a5,a5,1
.LM5115:
	sb	zero,15(s0)
.LM5116:
.LM5117:
	sb	zero,16(s0)
.LM5118:
.LM5119:
	sb	a5,13(s0)
.L1387:
.LM5120:
.LM5121:
	li	a5,1
.LVL1655:
.L1414:
.LM5122:
.LBE1043:
.LBE1042:
.LM5123:
	sb	a5,17(s0)
	j	.L1380
.L1383:
.LM5124:
.LM5125:
	addi	a5,a5,1
	j	.L1414
.LVL1656:
.L1394:
.LM5126:
.LBE1041:
.LBE1040:
.LM5127:
	li	a2,0
.LM5128:
	li	s1,-135
	j	.L1380
.LVL1657:
.L1399:
.LM5129:
	li	s1,-134
	j	.L1380
	.cfi_endproc
.LFE373:
	.size	psa_pake_input, .-psa_pake_input
	.section	.text.psa_crypto_local_output_alloc,"ax",@progbits
	.align	1
	.globl	psa_crypto_local_output_alloc
	.type	psa_crypto_local_output_alloc, @function
psa_crypto_local_output_alloc:
.LVL1658:
.LFB380:
.LM5130:
	.cfi_startproc
.LM5131:
.LM5132:
	sw	zero,0(a2)
	sw	zero,4(a2)
	sw	zero,8(a2)
.LM5133:
.LM5134:
	beq	a1,zero,.L1423
.LM5135:
	addi	sp,sp,-32
	.cfi_def_cfa_offset 32
	sw	s0,24(sp)
	.cfi_offset 8, -8
	mv	s0,a1
	sw	s1,20(sp)
.LM5136:
	li	a1,1
.LVL1659:
	.cfi_offset 9, -12
.LM5137:
	mv	s1,a0
.LM5138:
.LM5139:
	mv	a0,s0
.LVL1660:
.LM5140:
	sw	a2,12(sp)
.LM5141:
	sw	ra,28(sp)
	.cfi_offset 1, -4
.LM5142:
	call	calloc
.LVL1661:
.LM5143:
	lw	a2,12(sp)
.LM5144:
	li	a5,-141
.LM5145:
	sw	a0,4(a2)
.LM5146:
.LM5147:
	beq	a0,zero,.L1415
.LM5148:
.LM5149:
	sw	s0,8(a2)
.LM5150:
.LM5151:
	sw	s1,0(a2)
.LM5152:
.LM5153:
	li	a5,0
.L1415:
.LM5154:
	lw	ra,28(sp)
	.cfi_restore 1
	lw	s0,24(sp)
	.cfi_restore 8
.LVL1662:
.LM5155:
	lw	s1,20(sp)
	.cfi_restore 9
.LVL1663:
.LM5156:
	mv	a0,a5
	addi	sp,sp,32
	.cfi_def_cfa_offset 0
.LVL1664:
.LM5157:
	jr	ra
.LVL1665:
.L1423:
.LM5158:
	li	a5,0
.LM5159:
	mv	a0,a5
.LVL1666:
.LM5160:
	ret
	.cfi_endproc
.LFE380:
	.size	psa_crypto_local_output_alloc, .-psa_crypto_local_output_alloc
	.section	.text.psa_crypto_local_output_free,"ax",@progbits
	.align	1
	.globl	psa_crypto_local_output_free
	.type	psa_crypto_local_output_free, @function
psa_crypto_local_output_free:
.LVL1667:
.LFB381:
.LM5161:
	.cfi_startproc
.LM5162:
.LM5163:
.LM5164:
	addi	sp,sp,-16
	.cfi_def_cfa_offset 16
	sw	s0,8(sp)
	sw	ra,12(sp)
	.cfi_offset 8, -8
	.cfi_offset 1, -4
.LM5165:
	lw	a1,4(a0)
.LM5166:
	mv	s0,a0
.LM5167:
	bne	a1,zero,.L1428
.LVL1668:
.L1437:
.LM5168:
.LM5169:
	sw	zero,8(s0)
.LM5170:
.LM5171:
	li	a5,0
.L1427:
.LM5172:
	lw	ra,12(sp)
	.cfi_remember_state
	.cfi_restore 1
	lw	s0,8(sp)
	.cfi_restore 8
.LVL1669:
.LM5173:
	mv	a0,a5
	addi	sp,sp,16
	.cfi_def_cfa_offset 0
	jr	ra
.LVL1670:
.L1428:
	.cfi_restore_state
.LM5174:
.LM5175:
	lw	a0,0(a0)
.LM5176:
	li	a5,-151
.LM5177:
	beq	a0,zero,.L1427
.LM5178:
.LM5179:
	lw	a2,8(s0)
.LVL1671:
.LBB1046:
.LBI1046:
.LM5180:
.LBB1047:
.LM5181:
.LM5182:
.LM5183:
	beq	a2,zero,.L1431
.LM5184:
	call	memcpy
.LVL1672:
.L1431:
.LM5185:
.LBE1047:
.LBE1046:
.LM5186:
.LM5187:
	lw	a1,8(s0)
	lw	a0,4(s0)
	call	mbedtls_zeroize_and_free
.LVL1673:
.LM5188:
.LM5189:
	sw	zero,4(s0)
	j	.L1437
	.cfi_endproc
.LFE381:
	.size	psa_crypto_local_output_free, .-psa_crypto_local_output_free
	.section	.text.psa_export_key,"ax",@progbits
	.align	1
	.globl	psa_export_key
	.type	psa_export_key, @function
psa_export_key:
.LVL1674:
.LFB193:
.LM5190:
	.cfi_startproc
.LM5191:
.LM5192:
.LM5193:
.LM5194:
.LM5195:
.LM5196:
.LM5197:
.LM5198:
	addi	sp,sp,-48
	.cfi_def_cfa_offset 48
	sw	s0,40(sp)
	sw	ra,44(sp)
	sw	s1,36(sp)
	sw	s2,32(sp)
	sw	s3,28(sp)
	.cfi_offset 8, -8
	.cfi_offset 1, -4
	.cfi_offset 9, -12
	.cfi_offset 18, -16
	.cfi_offset 19, -20
.LM5199:
	li	s0,-138
.LM5200:
	beq	a2,zero,.L1438
.LM5201:
	sw	zero,0(a3)
	mv	s1,a3
	mv	s2,a2
	mv	s3,a1
.LM5202:
.LM5203:
.LM5204:
	li	a3,0
.LVL1675:
.LM5205:
	li	a2,1
.LVL1676:
.LM5206:
	mv	a1,sp
.LVL1677:
.LM5207:
	call	psa_get_and_lock_key_slot_with_policy
.LVL1678:
.LM5208:
	mv	s0,a0
.LVL1679:
.LM5209:
.LM5210:
	bne	a0,zero,.L1438
.LM5211:
.LM5212:
	addi	a2,sp,4
	mv	a1,s2
	mv	a0,s3
	call	psa_crypto_local_output_alloc
.LVL1680:
.LM5213:
.LM5214:
	li	s0,-141
.LM5215:
	bne	a0,zero,.L1440
.LM5216:
	lw	a0,0(sp)
.LVL1681:
.LM5217:
.LM5218:
.LM5219:
.LBB1053:
.LBI1053:
.LM5220:
.LBB1054:
.LM5221:
.LM5222:
.LBB1055:
.LBI1055:
.LM5223:
.LBB1056:
.LM5224:
.LM5225:
.LBE1056:
.LBE1055:
.LM5226:
.LM5227:
	li	s0,-135
.LM5228:
	lw	a5,4(a0)
	srli	a5,a5,8
.LVL1682:
.LM5229:
	bne	a5,zero,.L1440
.LM5230:
.LM5231:
	lw	a3,8(sp)
	lw	a2,36(a0)
	lw	a1,32(a0)
	mv	a5,s1
.LVL1683:
.LM5232:
	mv	a4,s2
	call	psa_export_key_internal
.LVL1684:
.LM5233:
	mv	s0,a0
.LVL1685:
.L1440:
.LM5234:
.LBE1054:
.LBE1053:
.LM5235:
.LM5236:
	lw	a0,0(sp)
	call	psa_unregister_read_under_mutex
.LVL1686:
	mv	s1,a0
.LVL1687:
.LM5237:
.LM5238:
.LBB1057:
.LM5239:
.LM5240:
.LM5241:
	addi	a0,sp,4
	call	psa_crypto_local_output_free
.LVL1688:
.LM5242:
.LM5243:
	bne	a0,zero,.L1444
.LM5244:
.LBE1057:
.LM5245:
.LM5246:
.LM5247:
	bne	s0,zero,.L1438
.LM5248:
	mv	s0,s1
.LVL1689:
.L1438:
.LM5249:
	lw	ra,44(sp)
	.cfi_remember_state
	.cfi_restore 1
	mv	a0,s0
	lw	s0,40(sp)
	.cfi_restore 8
	lw	s1,36(sp)
	.cfi_restore 9
	lw	s2,32(sp)
	.cfi_restore 18
	lw	s3,28(sp)
	.cfi_restore 19
	addi	sp,sp,48
	.cfi_def_cfa_offset 0
	jr	ra
.LVL1690:
.L1444:
	.cfi_restore_state
.LBB1058:
.LM5250:
	li	s0,-151
.LVL1691:
.LM5251:
	j	.L1438
.LBE1058:
	.cfi_endproc
.LFE193:
	.size	psa_export_key, .-psa_export_key
	.section	.text.psa_export_public_key,"ax",@progbits
	.align	1
	.globl	psa_export_public_key
	.type	psa_export_public_key, @function
psa_export_public_key:
.LVL1692:
.LFB195:
.LM5252:
	.cfi_startproc
.LM5253:
.LM5254:
.LM5255:
.LM5256:
.LM5257:
.LM5258:
.LM5259:
.LM5260:
	addi	sp,sp,-48
	.cfi_def_cfa_offset 48
	sw	s0,40(sp)
	sw	ra,44(sp)
	sw	s1,36(sp)
	sw	s2,32(sp)
	sw	s3,28(sp)
	.cfi_offset 8, -8
	.cfi_offset 1, -4
	.cfi_offset 9, -12
	.cfi_offset 18, -16
	.cfi_offset 19, -20
.LM5261:
	li	s0,-138
.LM5262:
	beq	a2,zero,.L1446
.LM5263:
	sw	zero,0(a3)
	mv	s1,a3
	mv	s2,a2
	mv	s3,a1
.LM5264:
.LM5265:
.LM5266:
	li	a3,0
.LVL1693:
.LM5267:
	li	a2,0
.LVL1694:
.LM5268:
	mv	a1,sp
.LVL1695:
.LM5269:
	call	psa_get_and_lock_key_slot_with_policy
.LVL1696:
.LM5270:
	mv	s0,a0
.LVL1697:
.LM5271:
.LM5272:
	bne	a0,zero,.L1446
.LM5273:
.LM5274:
	addi	a2,sp,4
	mv	a1,s2
	mv	a0,s3
	call	psa_crypto_local_output_alloc
.LVL1698:
.LM5275:
.LM5276:
	li	s0,-141
.LM5277:
	bne	a0,zero,.L1448
.LM5278:
	lw	a0,0(sp)
.LVL1699:
.LM5279:
.LM5280:
.LM5281:
.LM5282:
	li	s0,-135
.LM5283:
	lhu	a5,0(a0)
	slli	a4,a5,17
	bge	a4,zero,.L1448
.LM5284:
.LM5285:
	lw	a3,8(sp)
	lw	a2,36(a0)
	lw	a1,32(a0)
	mv	a5,s1
	mv	a4,s2
	call	psa_driver_wrapper_export_public_key
.LVL1700:
.LM5286:
	mv	s0,a0
.LVL1701:
.L1448:
.LM5287:
.LM5288:
	lw	a0,0(sp)
	call	psa_unregister_read_under_mutex
.LVL1702:
	mv	s1,a0
.LVL1703:
.LM5289:
.LM5290:
.LBB1059:
.LM5291:
.LM5292:
.LM5293:
	addi	a0,sp,4
	call	psa_crypto_local_output_free
.LVL1704:
.LM5294:
.LM5295:
	bne	a0,zero,.L1452
.LM5296:
.LBE1059:
.LM5297:
.LM5298:
.LM5299:
	bne	s0,zero,.L1446
.LM5300:
	mv	s0,s1
.LVL1705:
.L1446:
.LM5301:
	lw	ra,44(sp)
	.cfi_remember_state
	.cfi_restore 1
	mv	a0,s0
	lw	s0,40(sp)
	.cfi_restore 8
	lw	s1,36(sp)
	.cfi_restore 9
	lw	s2,32(sp)
	.cfi_restore 18
	lw	s3,28(sp)
	.cfi_restore 19
	addi	sp,sp,48
	.cfi_def_cfa_offset 0
	jr	ra
.LVL1706:
.L1452:
	.cfi_restore_state
.LBB1060:
.LM5302:
	li	s0,-151
.LVL1707:
.LM5303:
	j	.L1446
.LBE1060:
	.cfi_endproc
.LFE195:
	.size	psa_export_public_key, .-psa_export_public_key
	.section	.text.psa_hash_finish,"ax",@progbits
	.align	1
	.globl	psa_hash_finish
	.type	psa_hash_finish, @function
psa_hash_finish:
.LVL1708:
.LFB209:
.LM5304:
	.cfi_startproc
.LM5305:
.LM5306:
.LM5307:
.LM5308:
.LM5309:
.LM5310:
	addi	sp,sp,-48
	.cfi_def_cfa_offset 48
	sw	s2,32(sp)
	.cfi_offset 18, -16
	mv	s2,a2
	sw	s1,36(sp)
.LM5311:
	addi	a2,sp,20
.LVL1709:
	.cfi_offset 9, -12
.LM5312:
	mv	s1,a0
	mv	a0,a1
.LVL1710:
.LM5313:
	mv	a1,s2
.LVL1711:
.LM5314:
	sw	s0,40(sp)
	sw	ra,44(sp)
	.cfi_offset 8, -8
	.cfi_offset 1, -4
.LM5315:
	sw	a3,12(sp)
.LM5316:
	call	psa_crypto_local_output_alloc
.LVL1712:
.LM5317:
.LM5318:
	li	s0,-141
.LM5319:
	bne	a0,zero,.L1457
.LM5320:
.LBB1066:
.LBB1067:
.LM5321:
	lw	a3,12(sp)
.LBE1067:
.LBE1066:
.LM5322:
	lw	a1,24(sp)
.LVL1713:
.LM5323:
.LM5324:
.LBB1071:
.LBI1066:
.LM5325:
.LBB1070:
.LM5326:
.LM5327:
.LM5328:
	li	s0,-137
.LM5329:
	sw	zero,0(a3)
.LM5330:
.LM5331:
	lw	a5,0(s1)
.LM5332:
	beq	a5,zero,.L1457
.LM5333:
.LVL1714:
.LBB1068:
.LBI1068:
.LM5334:
.LBB1069:
.LM5335:
	li	a4,1
	bne	a5,a4,.L1458
.LM5336:
.LM5337:
	mv	a2,s2
	addi	a0,s1,8
.LVL1715:
.LM5338:
	call	mbedtls_psa_hash_finish
.LVL1716:
.LM5339:
	mv	s0,a0
.L1458:
.LVL1717:
.LM5340:
.LBE1069:
.LBE1068:
.LM5341:
	mv	a0,s1
	call	psa_hash_abort
.LVL1718:
.LM5342:
.L1457:
.LM5343:
.LBE1070:
.LBE1071:
.LM5344:
.LM5345:
.LBB1072:
.LM5346:
.LM5347:
.LM5348:
	addi	a0,sp,20
	call	psa_crypto_local_output_free
.LVL1719:
.LM5349:
.LM5350:
	beq	a0,zero,.L1456
.LM5351:
	li	s0,-151
.LVL1720:
.LM5352:
.LBE1072:
.LM5353:
.LM5354:
.L1456:
.LM5355:
	lw	ra,44(sp)
	.cfi_restore 1
	mv	a0,s0
.LVL1721:
.LM5356:
	lw	s0,40(sp)
	.cfi_restore 8
	lw	s1,36(sp)
	.cfi_restore 9
.LVL1722:
.LM5357:
	lw	s2,32(sp)
	.cfi_restore 18
.LVL1723:
.LM5358:
	addi	sp,sp,48
	.cfi_def_cfa_offset 0
.LVL1724:
.LM5359:
	jr	ra
	.cfi_endproc
.LFE209:
	.size	psa_hash_finish, .-psa_hash_finish
	.section	.text.psa_hash_compute,"ax",@progbits
	.align	1
	.globl	psa_hash_compute
	.type	psa_hash_compute, @function
psa_hash_compute:
.LVL1725:
.LFB211:
.LM5360:
	.cfi_startproc
.LM5361:
.LM5362:
.LM5363:
.LM5364:
.LM5365:
.LM5366:
	addi	sp,sp,-64
	.cfi_def_cfa_offset 64
	sw	s0,56(sp)
	sw	ra,60(sp)
	sw	s1,52(sp)
	sw	s2,48(sp)
	sw	s3,44(sp)
	sw	s4,40(sp)
	sw	s5,36(sp)
	sw	s6,32(sp)
	.cfi_offset 8, -8
	.cfi_offset 1, -4
	.cfi_offset 9, -12
	.cfi_offset 18, -16
	.cfi_offset 19, -20
	.cfi_offset 20, -24
	.cfi_offset 21, -28
	.cfi_offset 22, -32
.LM5367:
	mv	a6,a0
.LM5368:
	srai	a0,a0,24
.LVL1726:
.LM5369:
	sw	zero,20(sp)
.LVL1727:
.LM5370:
	sw	zero,28(sp)
.LM5371:
.LVL1728:
.LM5372:
.LM5373:
.LM5374:
	sw	zero,0(a5)
.LM5375:
.LM5376:
	andi	a0,a0,127
	li	a7,2
.LM5377:
	li	s0,-135
.LM5378:
	bne	a0,a7,.L1465
	mv	s2,a2
	mv	a0,a1
.LM5379:
	addi	a2,sp,12
.LVL1729:
.LM5380:
	mv	a1,s2
.LVL1730:
.LM5381:
	mv	s6,a5
	mv	s3,a4
	mv	s0,a3
	mv	s5,a6
.LM5382:
.LM5383:
	call	psa_crypto_local_input_alloc
.LVL1731:
.LM5384:
.LM5385:
	bne	a0,zero,.L1469
.LM5386:
.LM5387:
	mv	a0,s0
.LVL1732:
.LM5388:
	addi	a2,sp,20
	mv	a1,s3
.LM5389:
	lw	s4,12(sp)
.LVL1733:
.LM5390:
.LM5391:
.LM5392:
	call	psa_crypto_local_output_alloc
.LVL1734:
	li	s0,-141
.LVL1735:
.LM5393:
	lw	s1,24(sp)
.LVL1736:
.LM5394:
.LM5395:
	bne	a0,zero,.L1467
.LM5396:
.LVL1737:
.LM5397:
.LM5398:
.LBB1073:
.LBI1073:
.LM5399:
.LBB1074:
.LM5400:
.LM5401:
.LM5402:
	mv	a5,s6
	mv	a4,s3
	mv	a3,s1
	mv	a2,s2
	mv	a1,s4
	mv	a0,s5
.LVL1738:
.LM5403:
	call	mbedtls_psa_hash_compute
.LVL1739:
	mv	s0,a0
.LM5404:
.LVL1740:
.L1467:
.LM5405:
.LBE1074:
.LBE1073:
.LM5406:
.LM5407:
	addi	a0,sp,12
	call	psa_crypto_local_input_free
.LVL1741:
.LM5408:
.LM5409:
.LM5410:
.LBB1075:
.LM5411:
.LM5412:
.LM5413:
	addi	a0,sp,20
	sw	s1,24(sp)
	call	psa_crypto_local_output_free
.LVL1742:
.LM5414:
.LM5415:
	bne	a0,zero,.L1471
.LVL1743:
.L1465:
.LM5416:
.LBE1075:
.LM5417:
	lw	ra,60(sp)
	.cfi_remember_state
	.cfi_restore 1
	mv	a0,s0
	lw	s0,56(sp)
	.cfi_restore 8
	lw	s1,52(sp)
	.cfi_restore 9
	lw	s2,48(sp)
	.cfi_restore 18
	lw	s3,44(sp)
	.cfi_restore 19
	lw	s4,40(sp)
	.cfi_restore 20
	lw	s5,36(sp)
	.cfi_restore 21
	lw	s6,32(sp)
	.cfi_restore 22
	addi	sp,sp,64
	.cfi_def_cfa_offset 0
	jr	ra
.LVL1744:
.L1469:
	.cfi_restore_state
.LM5418:
	li	s1,0
.LM5419:
	li	s0,-141
.LVL1745:
.LM5420:
	j	.L1467
.LVL1746:
.L1471:
.LBB1076:
.LM5421:
	li	s0,-151
.LVL1747:
.LM5422:
	j	.L1465
.LBE1076:
	.cfi_endproc
.LFE211:
	.size	psa_hash_compute, .-psa_hash_compute
	.section	.text.psa_mac_sign_finish,"ax",@progbits
	.align	1
	.globl	psa_mac_sign_finish
	.type	psa_mac_sign_finish, @function
psa_mac_sign_finish:
.LVL1748:
.LFB220:
.LM5423:
	.cfi_startproc
.LM5424:
.LM5425:
.LM5426:
.LM5427:
.LM5428:
.LM5429:
.LM5430:
	addi	sp,sp,-64
	.cfi_def_cfa_offset 64
	sw	s3,44(sp)
	.cfi_offset 19, -20
	mv	s3,a2
	sw	s1,52(sp)
.LM5431:
	addi	a2,sp,20
.LVL1749:
	.cfi_offset 9, -12
.LM5432:
	mv	s1,a0
	mv	a0,a1
.LVL1750:
.LM5433:
	mv	a1,s3
.LVL1751:
.LM5434:
	sw	a3,12(sp)
	sw	ra,60(sp)
	sw	s0,56(sp)
	sw	s2,48(sp)
	.cfi_offset 1, -4
	.cfi_offset 8, -8
	.cfi_offset 18, -16
.LM5435:
	call	psa_crypto_local_output_alloc
.LVL1752:
.LM5436:
.LM5437:
	lw	a3,12(sp)
	bne	a0,zero,.L1478
.LM5438:
.LM5439:
	lw	a4,0(s1)
.LM5440:
	lw	s2,24(sp)
.LVL1753:
.LM5441:
.LM5442:
.LM5443:
	beq	a4,zero,.L1481
.LM5444:
.LM5445:
	lbu	a5,5(s1)
.LM5446:
	andi	a5,a5,1
	beq	a5,zero,.L1481
.LM5447:
.LM5448:
	lbu	a2,4(s1)
.LM5449:
	beq	a2,zero,.L1481
.LM5450:
.LM5451:
	li	s0,-138
.LM5452:
	bgtu	a2,s3,.L1474
.LM5453:
.LVL1754:
.LBB1080:
.LBI1080:
.LM5454:
.LBB1081:
.LM5455:
	li	a5,1
	bne	a4,a5,.L1483
.LM5456:
.LM5457:
	mv	a1,s2
	addi	a0,s1,8
.LVL1755:
.LM5458:
	call	mbedtls_psa_mac_sign_finish
.LVL1756:
.LM5459:
.LBE1081:
.LBE1080:
.LM5460:
	lw	a3,12(sp)
.LBB1084:
.LBB1082:
.LM5461:
	mv	s0,a0
.LVL1757:
.LDL14:
.LM5462:
.LBE1082:
.LBE1084:
.LM5463:
.LM5464:
	beq	a0,zero,.L1475
.LVL1758:
.L1474:
.LM5465:
.LM5466:
	sw	s3,0(a3)
.LM5467:
.LM5468:
	sb	zero,4(s1)
.L1475:
.LM5469:
.LM5470:
	beq	s2,zero,.L1476
.LM5471:
	lw	a3,0(a3)
	mv	a2,s3
	mv	a1,s0
	mv	a0,s2
	call	psa_wipe_tag_output_buffer
.LVL1759:
.L1476:
.LM5472:
.LM5473:
	mv	a0,s1
	call	psa_mac_abort
.LVL1760:
	mv	s1,a0
.LVL1761:
.LM5474:
.LM5475:
.LBB1085:
.LM5476:
.LM5477:
.LM5478:
	addi	a0,sp,20
	call	psa_crypto_local_output_free
.LVL1762:
.LM5479:
.LM5480:
	bne	a0,zero,.L1484
.LVL1763:
.LM5481:
.LBE1085:
.LM5482:
.LM5483:
.LM5484:
	bne	s0,zero,.L1473
.LM5485:
	mv	s0,s1
.LVL1764:
.L1473:
.LM5486:
	lw	ra,60(sp)
	.cfi_remember_state
	.cfi_restore 1
	mv	a0,s0
.LVL1765:
.LM5487:
	lw	s0,56(sp)
	.cfi_restore 8
	lw	s1,52(sp)
	.cfi_restore 9
.LVL1766:
.LM5488:
	lw	s2,48(sp)
	.cfi_restore 18
	lw	s3,44(sp)
	.cfi_restore 19
.LVL1767:
.LM5489:
	addi	sp,sp,64
	.cfi_def_cfa_offset 0
.LVL1768:
.LM5490:
	jr	ra
.LVL1769:
.L1478:
	.cfi_restore_state
.LM5491:
	li	s2,0
.LM5492:
	li	s0,-141
	j	.L1474
.LVL1770:
.L1481:
.LM5493:
	li	s0,-137
	j	.L1474
.LVL1771:
.L1483:
.LBB1086:
.LBB1083:
.LM5494:
	li	s0,-135
	j	.L1474
.LVL1772:
.L1484:
.LM5495:
.LBE1083:
.LBE1086:
.LBB1087:
.LM5496:
	li	s0,-151
.LBE1087:
.LM5497:
	j	.L1473
	.cfi_endproc
.LFE220:
	.size	psa_mac_sign_finish, .-psa_mac_sign_finish
	.section	.text.psa_key_derivation_tls12_prf_generate_next_block,"ax",@progbits
	.align	1
	.type	psa_key_derivation_tls12_prf_generate_next_block, @function
psa_key_derivation_tls12_prf_generate_next_block:
.LVL1773:
.LFB296:
.LM5498:
	.cfi_startproc
.LM5499:
.LM5500:
	addi	sp,sp,-448
	.cfi_def_cfa_offset 448
.LM5501:
	li	a5,33554432
.LM5502:
	sw	s3,428(sp)
	.cfi_offset 19, -20
.LM5503:
	andi	s3,a1,0xff
.LM5504:
	or	s3,s3,a5
.LVL1774:
.LM5505:
	li	a5,-33554432
	addi	a5,a5,-3
.LM5506:
	sw	s1,436(sp)
	sw	s2,432(sp)
	sw	ra,444(sp)
	sw	s0,440(sp)
	sw	s4,424(sp)
	.cfi_offset 9, -12
	.cfi_offset 18, -16
	.cfi_offset 1, -4
	.cfi_offset 8, -8
	.cfi_offset 20, -24
	add	a5,s3,a5
	li	a4,16
.LM5507:
	mv	s1,a0
	li	s2,0
	bgtu	a5,a4,.L1493
	lui	a4,%hi(CSWTCH.527)
	addi	a4,a4,%lo(CSWTCH.527)
	add	a5,a4,a5
	lbu	s2,0(a5)
.L1493:
.LVL1775:
.LM5508:
.LM5509:
.LM5510:
.LM5511:
.LM5512:
	lbu	a5,1(s1)
.LM5513:
	li	a4,255
.LM5514:
	li	a0,-151
.LVL1776:
.LM5515:
	beq	a5,a4,.L1492
.LM5516:
.LM5517:
	lw	a3,8(s1)
	lw	a2,4(s1)
.LM5518:
	addi	a5,a5,1
	sb	a5,1(s1)
.LM5519:
.LM5520:
	sb	s2,0(s1)
.LM5521:
.LM5522:
	mv	a1,s3
.LVL1777:
.LM5523:
	addi	a0,sp,16
	call	psa_key_derivation_start_hmac
.LVL1778:
	mv	s0,a0
.LVL1779:
.LM5524:
.LM5525:
	bne	a0,zero,.L1495
.LM5526:
.LM5527:
	lbu	a4,1(s1)
	li	a5,1
	bne	a4,a5,.L1496
.LM5528:
.LM5529:
	lw	a2,24(s1)
	lw	a1,20(s1)
	addi	a0,sp,16
	call	psa_mac_update
.LVL1780:
	mv	s0,a0
.LVL1781:
.LM5530:
.LM5531:
	bne	a0,zero,.L1495
.LM5532:
.LM5533:
	lw	a2,16(s1)
	lw	a1,12(s1)
.L1508:
.LM5534:
	addi	a0,sp,16
	call	psa_mac_update
.LVL1782:
	mv	s0,a0
.LVL1783:
.LM5535:
.LM5536:
	bne	a0,zero,.L1495
.LM5537:
.LM5538:
	addi	a3,sp,12
	mv	a2,s2
	addi	a1,s1,36
	addi	a0,sp,16
	call	psa_mac_sign_finish
.LVL1784:
.LM5539:
	lw	a5,12(sp)
.LM5540:
	mv	s0,a0
.LVL1785:
.LM5541:
.LM5542:
	bne	s2,a5,.L1501
.LM5543:
.LM5544:
	bne	a0,zero,.L1495
.LM5545:
.LM5546:
	lw	a3,8(s1)
	lw	a2,4(s1)
	mv	a1,s3
	addi	a0,sp,16
	call	psa_key_derivation_start_hmac
.LVL1786:
	mv	s0,a0
.LVL1787:
.LM5547:
.LM5548:
	bne	a0,zero,.L1495
.LM5549:
.LM5550:
	mv	a2,s2
	addi	a1,s1,36
	addi	a0,sp,16
	call	psa_mac_update
.LVL1788:
	mv	s0,a0
.LVL1789:
.LM5551:
.LM5552:
	bne	a0,zero,.L1495
.LM5553:
.LM5554:
	lw	a2,24(s1)
	lw	a1,20(s1)
	addi	a0,sp,16
	call	psa_mac_update
.LVL1790:
	mv	s0,a0
.LVL1791:
.LM5555:
.LM5556:
	bne	a0,zero,.L1495
.LM5557:
.LM5558:
	lw	a2,16(s1)
	lw	a1,12(s1)
	addi	a0,sp,16
	call	psa_mac_update
.LVL1792:
	mv	s0,a0
.LVL1793:
.LM5559:
.LM5560:
	bne	a0,zero,.L1495
.LM5561:
.LM5562:
	addi	a3,sp,12
	mv	a2,s2
	addi	a1,s1,100
	addi	a0,sp,16
	call	psa_mac_sign_finish
.LVL1794:
	mv	s0,a0
.LVL1795:
.LM5563:
.L1495:
.LM5564:
.LM5565:
	addi	a0,sp,16
	call	psa_mac_abort
.LVL1796:
.LM5566:
.LM5567:
	beq	s0,zero,.L1492
	mv	a0,s0
.LVL1797:
.L1492:
.LM5568:
	lw	ra,444(sp)
	.cfi_remember_state
	.cfi_restore 1
	lw	s0,440(sp)
	.cfi_restore 8
	lw	s1,436(sp)
	.cfi_restore 9
.LVL1798:
.LM5569:
	lw	s2,432(sp)
	.cfi_restore 18
.LVL1799:
.LM5570:
	lw	s3,428(sp)
	.cfi_restore 19
.LVL1800:
.LM5571:
	lw	s4,424(sp)
	.cfi_restore 20
	addi	sp,sp,448
	.cfi_def_cfa_offset 0
	jr	ra
.LVL1801:
.L1496:
	.cfi_restore_state
.LM5572:
.LM5573:
	mv	a2,s2
	addi	a1,s1,36
	j	.L1508
.L1501:
.LM5574:
	li	s0,-151
.LVL1802:
.LM5575:
	j	.L1495
	.cfi_endproc
.LFE296:
	.size	psa_key_derivation_tls12_prf_generate_next_block, .-psa_key_derivation_tls12_prf_generate_next_block
	.section	.text.psa_key_derivation_input_internal,"ax",@progbits
	.align	1
	.type	psa_key_derivation_input_internal, @function
psa_key_derivation_input_internal:
.LVL1803:
.LFB333:
.LM5576:
	.cfi_startproc
.LM5577:
.LM5578:
.LM5579:
	addi	sp,sp,-128
	.cfi_def_cfa_offset 128
	sw	s0,120(sp)
	sw	s2,112(sp)
	sw	s4,104(sp)
	sw	ra,124(sp)
	sw	s1,116(sp)
	sw	s3,108(sp)
	sw	s5,100(sp)
	sw	s6,96(sp)
	sw	s7,92(sp)
	sw	s8,88(sp)
	.cfi_offset 8, -8
	.cfi_offset 18, -16
	.cfi_offset 20, -24
	.cfi_offset 1, -4
	.cfi_offset 9, -12
	.cfi_offset 19, -20
	.cfi_offset 21, -28
	.cfi_offset 22, -32
	.cfi_offset 23, -36
	.cfi_offset 24, -40
.LM5580:
	mv	s0,a0
.LM5581:
	lw	a0,0(a0)
.LVL1804:
.LM5582:
	sw	a1,28(sp)
	sw	a2,24(sp)
	mv	s4,a3
	mv	s2,a4
.LM5583:
	call	psa_key_derivation_get_kdf_alg.isra.0
.LVL1805:
.LM5584:
.LM5585:
	beq	a0,zero,.L1586
.LM5586:
.LVL1806:
.LBB1123:
.LBI1123:
.LM5587:
.LBB1124:
.LM5588:
	lw	a1,28(sp)
	li	a5,259
	lw	a2,24(sp)
	beq	a1,a5,.L1511
	bgtu	a1,a5,.L1512
	li	a5,257
	beq	a1,a5,.L1511
	li	a5,258
	beq	a1,a5,.L1513
.LVL1807:
.L1584:
.LM5589:
.LBE1124:
.LBE1123:
.LM5590:
	li	s1,-135
	j	.L1510
.LVL1808:
.L1512:
.LBB1127:
.LBB1125:
.LM5591:
	addi	a5,a1,-513
	slli	a5,a5,16
	srli	a5,a5,16
	li	a4,3
	bgtu	a5,a4,.L1584
.LM5592:
.LM5593:
.LM5594:
	li	a5,-4096
	addi	a5,a5,-1
	add	a5,a2,a5
.LM5595:
	beq	a5,zero,.L1515
.LVL1809:
.L1622:
.LM5596:
	beq	a2,zero,.L1515
	j	.L1584
.L1511:
.LM5597:
.LM5598:
.LM5599:
	beq	a2,zero,.L1515
.LM5600:
	li	a5,-4096
	addi	a5,a5,-512
	add	a5,a2,a5
.LM5601:
	bne	a5,zero,.L1584
.L1515:
.LVL1810:
.LM5602:
.LBE1125:
.LBE1127:
.LM5603:
.LM5604:
	li	a4,-134217728
	andi	a5,a0,-1280
	addi	a4,a4,-256
	add	a5,a5,a4
.LM5605:
	andi	s5,a0,-256
.LM5606:
	beq	a5,zero,.L1587
.LM5607:
	li	a5,-134217728
	addi	a5,a5,-1024
	add	a5,s5,a5
.LM5608:
	bne	a5,zero,.L1517
.L1587:
.LM5609:
.LVL1811:
.LBB1128:
.LBB1129:
.LM5610:
	li	a5,33554432
.LM5611:
	andi	a0,a0,255
.LVL1812:
.LM5612:
	or	s3,a0,a5
	sw	s2,56(sp)
.LVL1813:
.LM5613:
.LBE1129:
.LBI1128:
.LM5614:
.LBB1130:
.LM5615:
.LM5616:
.LM5617:
	li	a5,514
	beq	a1,a5,.L1519
.LVL1814:
.LM5618:
	li	a5,515
	beq	a1,a5,.L1520
.LM5619:
	li	a5,257
	bne	a1,a5,.L1584
.LVL1815:
.LM5620:
.LM5621:
	lbu	a5,26(s0)
.LM5622:
	li	a4,134217728
	addi	a4,a4,1280
.LM5623:
	andi	a5,a5,3
.LM5624:
	bne	s5,a4,.L1526
.LM5625:
.LM5626:
	bne	a5,zero,.L1586
.LM5627:
	li	a5,-33554432
	addi	a5,a5,-3
	add	a5,s3,a5
	li	a3,16
.LM5628:
	li	a4,0
	bgtu	a5,a3,.L1527
	lui	a4,%hi(CSWTCH.534)
	addi	a4,a4,%lo(CSWTCH.534)
	add	a5,a4,a5
	lbu	a4,0(a5)
.L1527:
.LM5629:
	bne	s2,a4,.L1584
.LM5630:
	mv	a2,s2
.LVL1816:
.LM5631:
	mv	a1,s4
.LVL1817:
.LM5632:
	addi	a0,s0,91
	call	memcpy
.LVL1818:
.L1528:
.LM5633:
.LM5634:
	lbu	a5,26(s0)
.LM5635:
	sb	zero,25(s0)
	li	a4,16
.LM5636:
	andi	a5,a5,-4
	ori	a5,a5,2
	sb	a5,26(s0)
.LM5637:
.LM5638:
	li	a5,-33554432
	addi	a5,a5,-3
	add	s3,s3,a5
.LVL1819:
.LM5639:
	li	a5,134217728
	addi	a5,a5,1024
	bne	s5,a5,.L1531
.LM5640:
.LM5641:
	addi	a0,s0,27
.LM5642:
	addi	a1,s0,91
	li	a2,0
	bgtu	s3,a4,.L1532
	lui	a5,%hi(CSWTCH.535)
	addi	a5,a5,%lo(CSWTCH.535)
	add	a5,a5,s3
	lbu	a2,0(a5)
.L1532:
.LM5643:
	call	memcpy
.LVL1820:
.LM5644:
.LM5645:
	sb	zero,24(s0)
.LVL1821:
.L1551:
.LM5646:
.LBE1130:
.LBE1128:
.LM5647:
	li	s1,0
.L1509:
.LM5648:
	lw	ra,124(sp)
	.cfi_remember_state
	.cfi_restore 1
	lw	s0,120(sp)
	.cfi_restore 8
.LVL1822:
.LM5649:
	lw	s2,112(sp)
	.cfi_restore 18
	lw	s3,108(sp)
	.cfi_restore 19
	lw	s4,104(sp)
	.cfi_restore 20
.LVL1823:
.LM5650:
	lw	s5,100(sp)
	.cfi_restore 21
	lw	s6,96(sp)
	.cfi_restore 22
	lw	s7,92(sp)
	.cfi_restore 23
	lw	s8,88(sp)
	.cfi_restore 24
	mv	a0,s1
	lw	s1,116(sp)
	.cfi_restore 9
	addi	sp,sp,128
	.cfi_def_cfa_offset 0
	jr	ra
.LVL1824:
.L1513:
	.cfi_restore_state
.LBB1133:
.LBB1126:
.LM5651:
.LM5652:
.LM5653:
.LM5654:
	li	a5,-4096
.LM5655:
	li	a4,-4096
.LM5656:
	addi	a5,a5,-515
.LM5657:
	addi	a4,a4,-512
.LM5658:
	add	a5,a2,a5
.LM5659:
	add	a4,a2,a4
.LM5660:
	seqz	a5,a5
.LM5661:
	seqz	a4,a4
.LM5662:
	or	a5,a5,a4
	beq	a5,zero,.L1622
	j	.L1515
.LVL1825:
.L1519:
.LM5663:
.LBE1126:
.LBE1133:
.LBB1134:
.LBB1131:
.LM5664:
.LM5665:
	li	a5,134217728
	addi	a5,a5,1280
	beq	s5,a5,.L1584
.LM5666:
.LM5667:
	lbu	a5,26(s0)
.LM5668:
	andi	a5,a5,3
	bne	a5,zero,.L1586
.LM5669:
.LM5670:
	mv	a3,s2
	mv	a2,s4
	mv	a1,s3
.LVL1826:
.LM5671:
	addi	a0,s0,160
	call	psa_key_derivation_start_hmac
.LVL1827:
	mv	s1,a0
.LVL1828:
.LM5672:
.LM5673:
	bne	a0,zero,.L1510
.LM5674:
.LM5675:
	lbu	a5,26(s0)
	andi	a5,a5,-4
	ori	a5,a5,1
.LVL1829:
.L1619:
.LM5676:
	sb	a5,26(s0)
.LM5677:
.LM5678:
	j	.L1551
.LVL1830:
.L1526:
.LM5679:
.LM5680:
	bne	a5,zero,.L1529
.LM5681:
.LM5682:
	li	a5,134217728
	addi	a5,a5,1024
	beq	s5,a5,.L1586
.LM5683:
.LM5684:
	li	a3,0
	li	a2,0
	mv	a1,s3
	addi	a0,s0,160
	call	psa_key_derivation_start_hmac
.LVL1831:
	mv	s1,a0
.LVL1832:
.LM5685:
.LM5686:
	bne	a0,zero,.L1510
.LM5687:
.LM5688:
	lbu	a5,26(s0)
	andi	a5,a5,-4
	ori	a5,a5,1
	sb	a5,26(s0)
.LVL1833:
.L1529:
.LM5689:
.LM5690:
	lbu	a5,26(s0)
.LM5691:
	li	a4,1
	andi	a5,a5,3
	bne	a5,a4,.L1586
.LM5692:
.LM5693:
	lw	a2,56(sp)
	mv	a1,s4
	addi	a0,s0,160
	call	psa_mac_update
.LVL1834:
	mv	s1,a0
.LVL1835:
.LM5694:
.LM5695:
	bne	a0,zero,.L1510
.LM5696:
.LM5697:
	addi	a3,sp,56
	li	a2,64
	addi	a1,s0,91
	addi	a0,s0,160
	call	psa_mac_sign_finish
.LVL1836:
	mv	s1,a0
.LVL1837:
.LM5698:
.LM5699:
	beq	a0,zero,.L1528
.LVL1838:
.L1510:
.LM5700:
.LBE1131:
.LBE1134:
.LM5701:
	mv	a0,s0
	call	psa_key_derivation_abort
.LVL1839:
	j	.L1509
.LVL1840:
.L1531:
.LBB1135:
.LBB1132:
.LM5702:
.LM5703:
	li	a5,0
	bgtu	s3,a4,.L1533
	lui	a5,%hi(CSWTCH.536)
	addi	a5,a5,%lo(CSWTCH.536)
	add	a5,a5,s3
	lbu	a5,0(a5)
.L1533:
.LM5704:
	sb	a5,24(s0)
	j	.L1551
.LVL1841:
.L1520:
.LM5705:
.LM5706:
	li	a5,134217728
	addi	a5,a5,1024
	beq	s5,a5,.L1584
.LM5707:
.LM5708:
	lbu	a5,26(s0)
.LM5709:
	li	a4,134217728
	addi	a4,a4,1280
.LM5710:
	andi	a3,a5,3
.LM5711:
	bne	s5,a4,.L1535
.LM5712:
	beq	a3,zero,.L1586
.L1535:
.LM5713:
.LM5714:
	li	a4,3
	beq	a3,a4,.L1586
.LM5715:
.LM5716:
	andi	a5,a5,4
	bne	a5,zero,.L1586
.LM5717:
.LM5718:
	sw	s2,20(s0)
.LM5719:
.LM5720:
	beq	s2,zero,.L1537
.LM5721:
.LM5722:
	mv	a1,s2
.LVL1842:
.LM5723:
	li	a0,1
	call	calloc
.LVL1843:
.LM5724:
	sw	a0,16(s0)
.LM5725:
.LM5726:
	beq	a0,zero,.L1550
.LM5727:
	lw	a2,56(sp)
	mv	a1,s4
	call	memcpy
.LVL1844:
.L1537:
.LM5728:
.LM5729:
	lbu	a5,26(s0)
	ori	a5,a5,4
	j	.L1619
.LVL1845:
.L1517:
.LM5730:
.LBE1132:
.LBE1135:
.LM5731:
.LM5732:
	li	a5,134217728
	addi	a5,a5,512
	bne	s5,a5,.L1539
.L1617:
.LBB1136:
.LBB1137:
.LM5733:
.LM5734:
.LM5735:
	mv	a3,s2
	mv	a2,s4
	addi	a0,s0,16
.LVL1846:
.LM5736:
	call	psa_tls12_prf_input
.LVL1847:
	mv	s1,a0
	j	.L1538
.LVL1848:
.L1539:
.LM5737:
.LBE1137:
.LBE1136:
.LM5738:
.LM5739:
	li	a5,134217728
	addi	a5,a5,768
	bne	s5,a5,.L1540
.LM5740:
.LVL1849:
.LBB1147:
.LBI1136:
.LM5741:
.LBB1144:
.LM5742:
	li	a5,257
	beq	a1,a5,.L1541
	li	a5,259
	bne	a1,a5,.L1617
.LM5743:
.LM5744:
.LVL1850:
.LBB1138:
.LBI1138:
.LM5745:
.LBB1139:
.LM5746:
.LM5747:
	lbu	a0,18(s0)
.LVL1851:
.LM5748:
	li	a5,1
	bne	a0,a5,.L1586
.LM5749:
.LM5750:
	beq	s2,zero,.L1549
.LM5751:
.LM5752:
	mv	a1,s2
.LVL1852:
.LM5753:
	call	calloc
.LVL1853:
.LM5754:
	sw	a0,44(s0)
.LM5755:
.LM5756:
	beq	a0,zero,.L1550
.LM5757:
	mv	a2,s2
	mv	a1,s4
	call	memcpy
.LVL1854:
.LM5758:
.L1549:
.LM5759:
	li	a5,2
.LM5760:
	sw	s2,48(s0)
.LM5761:
.LM5762:
	sb	a5,18(s0)
.LM5763:
.LVL1855:
.LM5764:
.LBE1139:
.LBE1138:
.LBE1144:
.LBE1147:
.LM5765:
	j	.L1551
.LVL1856:
.L1541:
.LBB1148:
.LBB1145:
.LM5766:
.LBB1140:
.LBI1140:
.LM5767:
.LBB1141:
.LM5768:
.LM5769:
.LM5770:
	lbu	a4,18(s0)
	li	a5,2
	bne	a4,a5,.L1544
.LM5771:
	lw	a5,48(s0)
	addi	s5,s2,4
	add	s5,s5,a5
.LVL1857:
.L1545:
.LM5772:
.LM5773:
	li	a5,128
	bgtu	s2,a5,.L1584
.LM5774:
.LM5775:
	mv	a1,s5
.LVL1858:
.LM5776:
	li	a0,1
.LVL1859:
.LM5777:
	call	calloc
.LVL1860:
	mv	s3,a0
.LVL1861:
.LM5778:
.LM5779:
	bne	a0,zero,.L1546
.LVL1862:
.L1550:
.LM5780:
	li	s1,-141
	j	.L1510
.LVL1863:
.L1544:
.LM5781:
	addi	s5,s2,2
.LM5782:
	slli	s5,s5,1
	j	.L1545
.LVL1864:
.L1546:
.LM5783:
.LM5784:
.LM5785:
	lbu	a4,18(s0)
	li	a5,2
.LM5786:
	addi	s1,a0,2
.LM5787:
	mv	s7,s2
.LM5788:
	bne	a4,a5,.L1547
.LM5789:
.LM5790:
	lw	a2,48(s0)
.LVL1865:
.LM5791:
	srli	a5,a2,8
.LM5792:
	sb	a5,0(a0)
.LM5793:
.LVL1866:
.LM5794:
	sb	a2,1(a0)
.LM5795:
.LM5796:
	beq	a2,zero,.L1548
.LM5797:
	lw	a1,44(s0)
	mv	a0,s1
.LVL1867:
.LM5798:
	call	memcpy
.LVL1868:
.LM5799:
	lw	a1,48(s0)
	lw	a0,44(s0)
	call	mbedtls_platform_zeroize
.LVL1869:
.LM5800:
.LM5801:
	lw	a5,48(s0)
	add	s1,s1,a5
.LVL1870:
.L1548:
.LM5802:
.LM5803:
	addi	s6,s1,2
.LM5804:
	sb	zero,0(s1)
.LM5805:
.LVL1871:
.LM5806:
	sb	s7,1(s1)
.LM5807:
	mv	a2,s2
	mv	a1,s4
	mv	a0,s6
	call	memcpy
.LVL1872:
.LM5808:
.LM5809:
.LM5810:
	add	a2,s6,s2
.LVL1873:
.LM5811:
	mv	a1,s3
	sub	a2,a2,s3
.LVL1874:
.LM5812:
	addi	a0,s0,16
	call	psa_tls12_prf_set_key
.LVL1875:
	mv	s1,a0
.LVL1876:
.LM5813:
	mv	a1,s5
	mv	a0,s3
	call	mbedtls_zeroize_and_free
.LVL1877:
.LM5814:
.L1538:
.LM5815:
.LBE1141:
.LBE1140:
.LBE1145:
.LBE1148:
.LM5816:
.LM5817:
	beq	s1,zero,.L1551
	j	.L1510
.LVL1878:
.L1547:
.LBB1149:
.LBB1146:
.LBB1143:
.LBB1142:
.LM5818:
.LM5819:
	sb	zero,0(a0)
.LM5820:
.LVL1879:
.LM5821:
	sb	s2,1(a0)
.LM5822:
	mv	a2,s2
	mv	a0,s1
.LVL1880:
.LM5823:
	li	a1,0
	call	memset
.LVL1881:
.LM5824:
.LM5825:
	add	s1,s1,s2
.LVL1882:
.LM5826:
	j	.L1548
.LVL1883:
.L1540:
.LM5827:
.LBE1142:
.LBE1143:
.LBE1146:
.LBE1149:
.LM5828:
.LM5829:
	li	a5,134217728
	addi	a5,a5,1545
	bne	a0,a5,.L1552
.LM5830:
.LVL1884:
.LBB1150:
.LBI1150:
.LM5831:
.LBB1151:
.LM5832:
.LM5833:
	addi	s2,s2,-65
.LVL1885:
.LM5834:
	bne	s2,zero,.L1584
	addi	a1,a1,-257
.LVL1886:
.LM5835:
	bne	a1,zero,.L1584
.LM5836:
.LM5837:
	lbu	a4,0(s4)
	li	a5,4
	bne	a4,a5,.L1584
.LM5838:
	li	a2,32
	addi	a1,s4,1
	addi	a0,s0,16
.LVL1887:
.LM5839:
	call	memcpy
.LVL1888:
.LM5840:
.LM5841:
.LBE1151:
.LBE1150:
.LM5842:
	j	.L1551
.LVL1889:
.L1552:
.LM5843:
.LM5844:
	li	a5,-142606336
	addi	a5,a5,-256
	add	a5,s5,a5
.LM5845:
	beq	a5,zero,.L1588
	li	a5,-142606336
	addi	a5,a5,-512
	add	a5,a0,a5
.LM5846:
	li	s1,-137
.LM5847:
	bne	a5,zero,.L1509
.L1588:
.LM5848:
.LVL1890:
.LBB1152:
.LBI1152:
.LM5849:
.LBB1153:
.LM5850:
	li	a5,258
	beq	a1,a5,.L1555
	li	a5,514
	bne	a1,a5,.L1584
.LM5851:
.LVL1891:
.LBB1154:
.LBI1154:
.LM5852:
.LBB1155:
.LM5853:
.LM5854:
	lbu	a4,16(s0)
.LM5855:
	li	a3,1
	li	a5,2
	bne	a4,a3,.L1556
.LM5856:
.LM5857:
	sb	a5,16(s0)
.L1557:
.LM5858:
.LM5859:
	beq	s2,zero,.L1551
.LBB1156:
.LM5860:
.LM5861:
.LM5862:
	lw	a1,36(s0)
.LVL1892:
.LM5863:
	li	a0,1
.LVL1893:
.LM5864:
	add	a1,s2,a1
	call	calloc
.LVL1894:
	mv	s1,a0
.LVL1895:
.LM5865:
.LM5866:
	beq	a0,zero,.L1550
.LM5867:
.LM5868:
	lw	a2,36(s0)
.LM5869:
	beq	a2,zero,.L1559
.LM5870:
	lw	a1,32(s0)
	call	memcpy
.LVL1896:
.L1559:
.LM5871:
.LM5872:
	lw	a0,36(s0)
.LM5873:
	mv	a2,s2
	mv	a1,s4
	add	a0,s1,a0
	call	memcpy
.LVL1897:
.LM5874:
.LM5875:
	lw	a5,36(s0)
.LM5876:
	lw	a0,32(s0)
.LM5877:
	add	a5,a5,s2
	sw	a5,36(s0)
.LM5878:
	call	free
.LVL1898:
.LM5879:
.LM5880:
	sw	s1,32(s0)
.LVL1899:
.LM5881:
.LBE1156:
.LBE1155:
.LBE1154:
.LBE1153:
.LBE1152:
.LM5882:
	j	.L1551
.LVL1900:
.L1556:
.LBB1204:
.LBB1201:
.LBB1158:
.LBB1157:
.LM5883:
.LM5884:
	beq	a4,a5,.L1557
.LVL1901:
.L1586:
.LM5885:
.LBE1157:
.LBE1158:
.LBE1201:
.LBE1204:
.LM5886:
	li	s1,-137
	j	.L1510
.LVL1902:
.L1555:
.LBB1205:
.LBB1202:
.LM5887:
.LBB1159:
.LBI1159:
.LM5888:
.LBB1160:
.LM5889:
.LM5890:
.LM5891:
	lbu	a4,16(s0)
	li	a5,2
	bne	a4,a5,.L1586
.LM5892:
.LM5893:
	li	a5,142606336
	addi	a5,a5,256
	addi	a3,s0,40
	bne	s5,a5,.L1560
.LBB1161:
.LM5894:
.LM5895:
	li	a5,33554432
.LM5896:
	andi	a0,a0,255
.LVL1903:
.LM5897:
	li	s1,-33554432
.LM5898:
	or	a0,a0,a5
.LVL1904:
.LM5899:
.LBB1162:
.LBI1162:
.LM5900:
.LBB1163:
.LM5901:
.LM5902:
	addi	s1,s1,-3
	add	s1,a0,s1
	li	a5,16
	bgtu	s1,a5,.L1561
.LM5903:
	lui	a5,%hi(CSWTCH.519)
	addi	a5,a5,%lo(CSWTCH.519)
	add	a5,a5,s1
	lbu	a5,0(a5)
	bleu	s2,a5,.L1562
.L1567:
.LM5904:
.LM5905:
	addi	a5,s0,184
	li	a4,144
	mv	a2,s2
	mv	a1,s4
.LVL1905:
.LM5906:
	call	psa_hash_compute
.LVL1906:
.L1621:
.LM5907:
.LBE1163:
.LBE1162:
.LBE1161:
.LM5908:
	li	a5,3
.LBB1168:
.LBB1169:
.LBB1170:
.LBB1171:
.LBB1172:
.LM5909:
	mv	s1,a0
.LM5910:
.LVL1907:
.LM5911:
.LBE1172:
.LBE1171:
.LBE1170:
.LBE1169:
.LBE1168:
.LM5912:
.LM5913:
	sb	a5,16(s0)
.LM5914:
.LM5915:
	j	.L1538
.LVL1908:
.L1562:
.LBB1194:
.LBB1166:
.LBB1164:
.LM5916:
.LM5917:
	beq	s2,zero,.L1564
.LM5918:
	mv	a2,s2
	mv	a1,s4
.LVL1909:
.LM5919:
	mv	a0,a3
.LVL1910:
.LM5920:
	call	memcpy
.LVL1911:
.L1564:
.LM5921:
	lui	a5,%hi(CSWTCH.520)
	addi	a5,a5,%lo(CSWTCH.520)
	add	a5,a5,s1
	lbu	s2,0(a5)
.LVL1912:
.LM5922:
	j	.L1620
.LVL1913:
.L1560:
.LM5923:
.LBE1164:
.LBE1166:
.LBE1194:
.LM5924:
.LM5925:
.LBB1195:
.LBI1168:
.LM5926:
.LBB1191:
.LM5927:
.LM5928:
.LM5929:
	li	a7,16
	beq	s2,a7,.L1565
.LBB1189:
.LBB1176:
.LBB1177:
.LM5930:
	li	a5,8396800
	addi	a5,a5,1024
	sw	a5,56(sp)
.LBE1177:
.LBE1176:
.LBB1179:
.LBB1180:
.LM5931:
	addi	a0,sp,36
.LVL1914:
.LM5932:
	li	a5,1024
	sw	a3,24(sp)
.LBE1180:
.LBE1179:
.LM5933:
.LM5934:
	sw	a5,36(sp)
.LM5935:
	sw	zero,40(sp)
	sw	zero,44(sp)
	sw	zero,48(sp)
	sw	zero,52(sp)
.LM5936:
.LVL1915:
.LBB1183:
.LBI1176:
.LM5937:
.LBB1178:
.LM5938:
.LM5939:
.LBE1178:
.LBE1183:
.LM5940:
.LM5941:
	sw	zero,60(sp)
	sw	zero,64(sp)
	sw	zero,68(sp)
	sw	zero,72(sp)
	sw	zero,76(sp)
.LVL1916:
.LM5942:
.LBB1184:
.LBI1179:
.LM5943:
.LBB1181:
.LM5944:
	call	psa_extend_key_usage_flags
.LVL1917:
.LM5945:
.LM5946:
	lw	a5,36(sp)
.LBE1181:
.LBE1184:
.LBB1185:
.LBB1173:
.LM5947:
	lw	a6,24(sp)
	li	a7,16
.LBE1173:
.LBE1185:
.LBB1186:
.LBB1182:
.LM5948:
	sw	a5,64(sp)
.LVL1918:
.LM5949:
.LBE1182:
.LBE1186:
.LM5950:
.LBB1187:
.LBI1171:
.LM5951:
.LBB1174:
.LM5952:
.LM5953:
.LM5954:
.LM5955:
.LM5956:
	li	a3,62914560
.LBE1174:
.LBE1187:
.LBE1189:
.LBE1191:
.LBE1195:
.LM5957:
	addi	a5,s0,184
.LVL1919:
.LBB1196:
.LBB1192:
.LBB1190:
.LBB1188:
.LBB1175:
.LM5958:
	sw	a5,0(sp)
	mv	a4,s4
	mv	a5,s2
.LVL1920:
.LM5959:
	addi	a3,a3,512
	mv	a2,a7
	addi	a1,sp,40
.LVL1921:
.LM5960:
	addi	a0,sp,56
.LVL1922:
.LM5961:
	call	mbedtls_psa_mac_compute
.LVL1923:
.LM5962:
	j	.L1621
.LVL1924:
.L1565:
.LM5963:
.LBE1175:
.LBE1188:
.LBE1190:
.LM5964:
	mv	a2,s2
	mv	a1,s4
.LVL1925:
.LM5965:
	mv	a0,a3
.LVL1926:
.LM5966:
	call	memcpy
.LVL1927:
.L1620:
.LM5967:
.LBE1192:
.LBE1196:
.LM5968:
	li	a5,3
.LBB1197:
.LBB1193:
.LM5969:
	sw	s2,184(s0)
.LM5970:
.LBE1193:
.LBE1197:
.LM5971:
.LM5972:
	sb	a5,16(s0)
.LM5973:
.LVL1928:
.LM5974:
.LBE1160:
.LBE1159:
.LBE1202:
.LBE1205:
.LM5975:
	j	.L1551
.LVL1929:
.L1561:
.LBB1206:
.LBB1203:
.LBB1200:
.LBB1199:
.LBB1198:
.LBB1167:
.LBB1165:
.LM5976:
	beq	s2,zero,.L1620
	j	.L1567
.LBE1165:
.LBE1167:
.LBE1198:
.LBE1199:
.LBE1200:
.LBE1203:
.LBE1206:
	.cfi_endproc
.LFE333:
	.size	psa_key_derivation_input_internal, .-psa_key_derivation_input_internal
	.section	.text.psa_key_derivation_input_bytes,"ax",@progbits
	.align	1
	.globl	psa_key_derivation_input_bytes
	.type	psa_key_derivation_input_bytes, @function
psa_key_derivation_input_bytes:
.LVL1930:
.LFB335:
.LM5977:
	.cfi_startproc
.LM5978:
.LM5979:
.LM5980:
.LM5981:
.LM5982:
.LM5983:
	addi	sp,sp,-48
	.cfi_def_cfa_offset 48
	sw	s0,40(sp)
	sw	s1,36(sp)
	.cfi_offset 8, -8
	.cfi_offset 9, -12
	mv	s0,a0
	mv	s1,a1
	mv	a0,a2
.LVL1931:
.LM5984:
	mv	a1,a3
.LVL1932:
.LM5985:
	addi	a2,sp,24
.LVL1933:
.LM5986:
	sw	ra,44(sp)
	.cfi_offset 1, -4
.LM5987:
	sw	a3,12(sp)
	call	psa_crypto_local_input_alloc
.LVL1934:
.LM5988:
.LM5989:
	bne	a0,zero,.L1625
.LM5990:
.LVL1935:
.LM5991:
.LM5992:
.LM5993:
	lw	a4,12(sp)
	lw	a3,24(sp)
	mv	a0,s0
.LVL1936:
.LM5994:
	li	a2,0
	mv	a1,s1
	call	psa_key_derivation_input_internal
.LVL1937:
.LM5995:
	mv	s0,a0
.LVL1938:
.L1624:
.LM5996:
.LM5997:
	addi	a0,sp,24
	call	psa_crypto_local_input_free
.LVL1939:
.LM5998:
.LM5999:
.LM6000:
	lw	ra,44(sp)
	.cfi_remember_state
	.cfi_restore 1
	mv	a0,s0
	lw	s0,40(sp)
	.cfi_restore 8
.LVL1940:
.LM6001:
	lw	s1,36(sp)
	.cfi_restore 9
.LVL1941:
.LM6002:
	addi	sp,sp,48
	.cfi_def_cfa_offset 0
.LVL1942:
.LM6003:
	jr	ra
.LVL1943:
.L1625:
	.cfi_restore_state
.LM6004:
	li	s0,-141
.LVL1944:
.LM6005:
	j	.L1624
	.cfi_endproc
.LFE335:
	.size	psa_key_derivation_input_bytes, .-psa_key_derivation_input_bytes
	.section	.text.psa_pake_get_implicit_key,"ax",@progbits
	.align	1
	.globl	psa_pake_get_implicit_key
	.type	psa_pake_get_implicit_key, @function
psa_pake_get_implicit_key:
.LVL1945:
.LFB374:
.LM6006:
	.cfi_startproc
.LM6007:
.LM6008:
.LM6009:
.LM6010:
.LM6011:
	addi	sp,sp,-368
	.cfi_def_cfa_offset 368
