	.file	"psa_crypto_cipher.c"
	.option nopic
	.attribute arch, "rv32i2p1_m2p0_f2p2_c2p0_zicsr2p0_zmmul1p0_zca1p0_zcf1p0"
	.attribute unaligned_access, 0
	.attribute stack_align, 16
	.text
.Ltext0:
	.cfi_sections	.debug_frame
	.section	.text.mbedtls_cipher_values_from_psa,"ax",@progbits
	.align	1
	.globl	mbedtls_cipher_values_from_psa
	.type	mbedtls_cipher_values_from_psa, @function
mbedtls_cipher_values_from_psa:
.LVL0:
.LFB98:
.LM1:
	.cfi_startproc
.LM2:
.LM3:
.LM4:
	srai	a5,a0,24
	andi	a5,a5,127
	li	a6,5
	bne	a5,a6,.L2
.LM5:
.LM6:
	li	a5,-4161536
	addi	a5,a5,-1
	and	a0,a0,a5
.LVL1:
.L2:
.LM7:
.LM8:
	srai	a5,a0,25
	andi	a5,a5,63
	li	a6,2
	bne	a5,a6,.L3
.LM9:
	li	a6,79695872
	addi	a5,a6,256
	beq	a0,a5,.L22
	bgtu	a0,a5,.L5
	li	a7,71319552
	addi	a5,a7,1024
	beq	a0,a5,.L23
	bgtu	a0,a5,.L6
	andi	a5,a0,-257
	bne	a5,a7,.L9
	li	a5,2
	j	.L4
.L6:
	li	a5,75497472
	addi	a5,a5,256
	beq	a0,a5,.L25
	li	a5,5
.L48:
	beq	a0,a6,.L4
.LVL2:
.L9:
.LM10:
	li	a0,-134
	ret
.LVL3:
.L5:
.LM11:
	li	a5,88080384
	addi	a5,a5,256
	beq	a0,a5,.L27
	bgtu	a0,a5,.L8
	li	a5,79695872
	addi	a5,a5,512
	beq	a0,a5,.L28
	li	a6,79695872
	addi	a6,a6,768
	li	a5,9
	j	.L48
.L8:
	li	a6,88080384
	addi	a6,a6,512
	li	a5,6
	j	.L48
.L3:
.LM12:
.LM13:
	li	a5,62914560
	addi	a5,a5,512
	bne	a0,a5,.L9
.L23:
.LM14:
	li	a5,1
	j	.L4
.L22:
	li	a5,3
.L4:
.LM15:
	sb	a5,0(a3)
.LM16:
	li	a5,8192
	addi	a5,a5,769
	beq	a1,a5,.L11
	li	a5,8192
	addi	a5,a5,1024
	beq	a1,a5,.L31
	li	a5,8192
	addi	a5,a5,4
	bne	a1,a5,.L9
	li	a5,7
	j	.L12
.L25:
.LM17:
	li	a5,7
	j	.L4
.L27:
	li	a5,8
	j	.L4
.L28:
	li	a5,4
	j	.L4
.L11:
.LM18:
.LM19:
	lw	a3,0(a2)
.LVL4:
.LM20:
	li	a6,64
.LM21:
	li	a5,3
.LM22:
	beq	a3,a6,.L12
.LM23:
.LVL5:
.LM24:
.LM25:
	li	a5,128
	beq	a3,a5,.L13
.L14:
.LM26:
	li	a5,4
.LVL6:
.L12:
.LM27:
.LM28:
	beq	a4,zero,.L15
.LM29:
.LM30:
	sb	a5,0(a4)
.LM31:
.LVL7:
.LBB31:
.LBI31:
.LM32:
.LBB32:
.LM33:
.LM34:
.L15:
.LM35:
.LM36:
.LM37:
.LM38:
.LM39:
.LM40:
.LM41:
.LM42:
.LM43:
	li	a5,75497472
.LVL8:
.LM44:
	addi	a5,a5,256
	bne	a0,a5,.L16
.LM45:
.LM46:
	li	a5,8192
	addi	a5,a5,4
.LM47:
	li	a0,0
.LVL9:
.LM48:
	bne	a1,a5,.L9
	ret
.LVL10:
.L13:
.LM49:
.LBE32:
.LBE31:
.LM50:
.LM51:
	li	a5,192
	sw	a5,0(a2)
	j	.L14
.LVL11:
.L31:
.LM52:
	li	a5,2
	j	.L12
.LVL12:
.L16:
.LBB34:
.LBB33:
.LM53:
.LM54:
	li	a5,-88080384
	addi	a5,a5,-256
	add	a5,a0,a5
	andi	a5,a5,-257
	beq	a5,zero,.L18
.LM55:
	li	a4,79695872
.LVL13:
.LM56:
	addi	a5,a4,768
	bne	a0,a5,.L19
.L18:
.LM57:
.LM58:
	li	a5,8192
	addi	a5,a5,1024
.LM59:
	li	a0,0
.LVL14:
.LM60:
	bne	a1,a5,.L9
	ret
.LVL15:
.L19:
.LM61:
.LM62:
	beq	a0,a4,.L20
.LM63:
	li	a5,-71319552
.LM64:
	li	a4,-62914560
.LM65:
	addi	a5,a5,-1024
.LM66:
	addi	a4,a4,-512
.LM67:
	add	a5,a0,a5
.LM68:
	add	a4,a0,a4
	seqz	a4,a4
.LM69:
	seqz	a5,a5
.LM70:
	or	a5,a5,a4
.LM71:
	li	a3,-71319552
	andi	a4,a0,-257
	add	a4,a4,a3
	seqz	a4,a4
.LM72:
	or	a5,a4,a5
	bne	a5,zero,.L20
.LM73:
	li	a5,-79695872
	addi	a5,a5,-256
	add	a0,a0,a5
.LVL16:
.LM74:
	andi	a0,a0,-257
.LVL17:
.LM75:
	bne	a0,zero,.L9
.L20:
.LM76:
.LM77:
	li	a5,-8192
	addi	a5,a5,-769
	add	a5,a1,a5
	beq	a5,zero,.L36
.LM78:
	li	a5,-8192
	addi	a5,a5,-1024
	add	a1,a1,a5
.LVL18:
.LM79:
	bne	a1,zero,.L9
.L36:
.LM80:
	li	a0,0
.LBE33:
.LBE34:
.LM81:
	ret
	.cfi_endproc
.LFE98:
	.size	mbedtls_cipher_values_from_psa, .-mbedtls_cipher_values_from_psa
	.section	.text.mbedtls_cipher_info_from_psa,"ax",@progbits
	.align	1
	.globl	mbedtls_cipher_info_from_psa
	.type	mbedtls_cipher_info_from_psa, @function
mbedtls_cipher_info_from_psa:
.LVL19:
.LFB99:
.LM82:
	.cfi_startproc
.LM83:
.LM84:
.LM85:
.LM86:
	addi	sp,sp,-48
	.cfi_def_cfa_offset 48
	sw	s0,40(sp)
	sw	a2,12(sp)
	.cfi_offset 8, -8
	mv	s0,a3
.LM87:
	addi	a4,sp,31
	addi	a3,sp,30
.LVL20:
.LM88:
	addi	a2,sp,12
.LVL21:
.LM89:
	sw	ra,44(sp)
	.cfi_offset 1, -4
.LM90:
	sb	zero,31(sp)
.LM91:
.LM92:
	call	mbedtls_cipher_values_from_psa
.LVL22:
.LM93:
.LM94:
	bne	a0,zero,.L53
.LM95:
.LM96:
	lbu	a0,31(sp)
.LVL23:
.LM97:
	beq	s0,zero,.L52
.LM98:
.LM99:
	sb	a0,0(s0)
.L52:
.LM100:
.LM101:
	lbu	a2,30(sp)
	lw	a1,12(sp)
	call	mbedtls_cipher_info_from_values
.LVL24:
.L50:
.LM102:
	lw	ra,44(sp)
	.cfi_remember_state
	.cfi_restore 1
	lw	s0,40(sp)
	.cfi_restore 8
.LVL25:
.LM103:
	addi	sp,sp,48
	.cfi_def_cfa_offset 0
	jr	ra
.LVL26:
.L53:
	.cfi_restore_state
.LM104:
	li	a0,0
.LVL27:
.LM105:
	j	.L50
	.cfi_endproc
.LFE99:
	.size	mbedtls_cipher_info_from_psa, .-mbedtls_cipher_info_from_psa
	.section	.text.psa_cipher_setup.isra.0,"ax",@progbits
	.align	1
	.type	psa_cipher_setup.isra.0, @function
psa_cipher_setup.isra.0:
.LVL28:
.LFB110:
.LM106:
	.cfi_startproc
.LM107:
.LM108:
.LM109:
.LM110:
.LM111:
	addi	sp,sp,-80
	.cfi_def_cfa_offset 80
	sw	s2,64(sp)
	sw	s3,60(sp)
	sw	s5,52(sp)
	sw	s6,48(sp)
	sw	ra,76(sp)
	sw	s0,72(sp)
	sw	s1,68(sp)
	sw	s4,56(sp)
	.cfi_offset 18, -16
	.cfi_offset 19, -20
	.cfi_offset 21, -28
	.cfi_offset 22, -32
	.cfi_offset 1, -4
	.cfi_offset 8, -8
	.cfi_offset 9, -12
	.cfi_offset 20, -24
.LM112:
	mv	s3,a0
.LM113:
	addi	a0,a0,8
.LVL29:
.LM114:
	mv	s2,a3
.LM115:
	lhu	s0,0(a1)
.LM116:
	mv	s5,a2
.LM117:
	sw	a1,12(sp)
.LVL30:
.LM118:
.LM119:
.LM120:
	mv	s6,a4
.LM121:
	call	mbedtls_cipher_init
.LVL31:
.LM122:
.LM123:
	lw	a1,12(sp)
.LM124:
	sw	s2,0(s3)
.LM125:
.LM126:
	li	a3,0
.LM127:
	lhu	a2,2(a1)
.LVL32:
.LM128:
.LM129:
	mv	a0,s2
	mv	a1,s0
	sw	a2,12(sp)
.LVL33:
.LM130:
	call	mbedtls_cipher_info_from_psa
.LVL34:
.LM131:
.LM132:
	beq	a0,zero,.L59
	mv	a1,a0
.LM133:
.LM134:
	addi	a0,s3,8
.LVL35:
.LM135:
	call	mbedtls_cipher_setup
.LVL36:
.LM136:
	mv	s1,a0
.LVL37:
.LM137:
.LM138:
	bne	a0,zero,.L60
.LM139:
.LM140:
	lw	a2,12(sp)
	addi	a5,a2,-128
	bne	a5,zero,.L61
.LM141:
	li	a5,-8192
	addi	a5,a5,-769
	add	a5,s0,a5
.LM142:
	bne	a5,zero,.L61
.LBB36:
.LM143:
.LM144:
	li	a2,16
	mv	a1,s5
	addi	a0,sp,24
	call	memcpy
.LVL38:
.LM145:
	li	a2,8
	mv	a1,s5
	addi	a0,sp,40
	call	memcpy
.LVL39:
.LM146:
.LM147:
	mv	a3,s6
	li	a2,192
	addi	a1,sp,24
.L95:
.LBE36:
.LM148:
	addi	a0,s3,8
	call	mbedtls_cipher_setkey
.LVL40:
	mv	s1,a0
.LVL41:
.LM149:
.LM150:
	bne	a0,zero,.L60
.LM151:
	li	a5,71319552
	beq	s2,a5,.L63
	addi	a5,a5,256
	beq	s2,a5,.L64
.LVL42:
.LM152:
.LM153:
	srai	a5,s2,23
	andi	a5,a5,255
	li	a4,9
	bne	a5,a4,.L69
.LM154:
	li	a5,1
	j	.L68
.LVL43:
.L61:
.LM155:
.LM156:
	mv	a3,s6
	mv	a1,s5
	j	.L95
.L63:
.LM157:
.LM158:
	li	a1,4
.L96:
.LM159:
	addi	a0,s3,8
	call	mbedtls_cipher_set_padding_mode
.LVL44:
.LM160:
.LM161:
.LM162:
	bne	a0,zero,.L74
.LVL45:
.L69:
.LM163:
	srai	a5,s0,12
	andi	a5,a5,7
	li	a4,2
	beq	a5,a4,.L67
.LM164:
	li	a5,0
.L68:
.LM165:
	sb	a5,5(s3)
.LM166:
.LM167:
	srai	a5,s0,12
	andi	a5,a5,7
	li	a4,2
	bne	a5,a4,.L70
.LM168:
	andi	a5,s0,1792
	beq	a5,zero,.L70
.LM169:
	li	a5,-79695872
.LM170:
	li	a4,-71368704
.LM171:
	addi	a5,a5,-512
.LM172:
	addi	a4,a4,256
.LM173:
	add	a5,s2,a5
.LM174:
	add	a4,s2,a4
	seqz	a4,a4
.LM175:
	seqz	a5,a5
.LM176:
	or	a5,a5,a4
.LM177:
	andi	a3,s2,-257
	li	a4,-79695872
	add	a4,a3,a4
	seqz	a4,a4
.LM178:
	or	a5,a4,a5
	bne	a5,zero,.L77
.LM179:
	li	a5,-71319552
	add	a3,a3,a5
.LM180:
	bne	a3,zero,.L70
.L77:
.LM181:
	srli	s0,s0,8
.LVL46:
.LM182:
	andi	s0,s0,7
.LM183:
	li	a5,1
	sll	a5,a5,s0
.L72:
.LM184:
	sb	a5,4(s3)
.L60:
.LVL47:
.LM185:
.LM186:
	lw	s0,72(sp)
	.cfi_remember_state
	.cfi_restore 8
	lw	ra,76(sp)
	.cfi_restore 1
	lw	s2,64(sp)
	.cfi_restore 18
.LVL48:
.LM187:
	lw	s3,60(sp)
	.cfi_restore 19
.LVL49:
.LM188:
	lw	s4,56(sp)
	.cfi_restore 20
	lw	s5,52(sp)
	.cfi_restore 21
.LVL50:
.LM189:
	lw	s6,48(sp)
	.cfi_restore 22
.LVL51:
.LM190:
	mv	a0,s1
.LM191:
	lw	s1,68(sp)
	.cfi_restore 9
.LVL52:
.LM192:
	addi	sp,sp,80
	.cfi_def_cfa_offset 0
.LVL53:
.LM193:
	tail	mbedtls_to_psa_error
.LVL54:
.L64:
	.cfi_restore_state
.LM194:
.LM195:
	li	a1,0
	j	.L96
.LVL55:
.L67:
.LM196:
	srli	a4,s0,8
	andi	a4,a4,7
.LM197:
	li	a5,1
	sll	a5,a5,a4
	j	.L68
.L70:
.LM198:
	li	a5,-75497472
	addi	a5,a5,-256
	add	a5,s2,a5
	bne	a5,zero,.L78
.LM199:
	li	a5,-8192
	addi	a5,a5,-4
	add	s0,s0,a5
.LVL56:
.LM200:
	li	a5,12
.LM201:
	beq	s0,zero,.L72
.LVL57:
.L78:
.LM202:
	li	a4,79695872
	addi	a4,a4,768
.LM203:
	li	a5,0
.LM204:
	bne	s2,a4,.L72
.LM205:
	li	a5,13
	j	.L72
.LVL58:
.L74:
.LM206:
	mv	s1,a0
	j	.L60
.LVL59:
.L59:
.LM207:
	lw	ra,76(sp)
	.cfi_restore 1
	lw	s0,72(sp)
	.cfi_restore 8
.LVL60:
.LM208:
	lw	s1,68(sp)
	.cfi_restore 9
	lw	s2,64(sp)
	.cfi_restore 18
.LVL61:
.LM209:
	lw	s3,60(sp)
	.cfi_restore 19
.LVL62:
.LM210:
	lw	s4,56(sp)
	.cfi_restore 20
	lw	s5,52(sp)
	.cfi_restore 21
.LVL63:
.LM211:
	lw	s6,48(sp)
	.cfi_restore 22
	li	a0,-134
.LVL64:
.LM212:
	addi	sp,sp,80
	.cfi_def_cfa_offset 0
.LVL65:
.LM213:
	jr	ra
	.cfi_endproc
.LFE110:
	.size	psa_cipher_setup.isra.0, .-psa_cipher_setup.isra.0
	.section	.text.mbedtls_psa_cipher_encrypt_setup,"ax",@progbits
	.align	1
	.globl	mbedtls_psa_cipher_encrypt_setup
	.type	mbedtls_psa_cipher_encrypt_setup, @function
mbedtls_psa_cipher_encrypt_setup:
.LVL66:
.LFB101:
.LM214:
	.cfi_startproc
.LM215:
.LM216:
	mv	a3,a4
.LVL67:
.LM217:
	li	a4,1
.LVL68:
.LM218:
	tail	psa_cipher_setup.isra.0
.LVL69:
.LM219:
	.cfi_endproc
.LFE101:
	.size	mbedtls_psa_cipher_encrypt_setup, .-mbedtls_psa_cipher_encrypt_setup
	.section	.text.mbedtls_psa_cipher_decrypt_setup,"ax",@progbits
	.align	1
	.globl	mbedtls_psa_cipher_decrypt_setup
	.type	mbedtls_psa_cipher_decrypt_setup, @function
mbedtls_psa_cipher_decrypt_setup:
.LVL70:
.LFB102:
.LM220:
	.cfi_startproc
.LM221:
.LM222:
	mv	a3,a4
.LVL71:
.LM223:
	li	a4,0
.LVL72:
.LM224:
	tail	psa_cipher_setup.isra.0
.LVL73:
.LM225:
	.cfi_endproc
.LFE102:
	.size	mbedtls_psa_cipher_decrypt_setup, .-mbedtls_psa_cipher_decrypt_setup
	.section	.text.mbedtls_psa_cipher_set_iv,"ax",@progbits
	.align	1
	.globl	mbedtls_psa_cipher_set_iv
	.type	mbedtls_psa_cipher_set_iv, @function
mbedtls_psa_cipher_set_iv:
.LVL74:
.LFB103:
.LM226:
	.cfi_startproc
.LM227:
.LM228:
	lbu	a5,4(a0)
.LM229:
	bne	a5,a2,.L100
.LM230:
.LM231:
	addi	sp,sp,-16
	.cfi_def_cfa_offset 16
.LM232:
	addi	a0,a0,8
.LVL75:
.LM233:
	sw	ra,12(sp)
	.cfi_offset 1, -4
.LM234:
	call	mbedtls_cipher_set_iv
.LVL76:
.LM235:
	lw	ra,12(sp)
	.cfi_restore 1
	addi	sp,sp,16
	.cfi_def_cfa_offset 0
.LM236:
	tail	mbedtls_to_psa_error
.LVL77:
.L100:
.LM237:
	li	a0,-135
.LVL78:
.LM238:
	ret
	.cfi_endproc
.LFE103:
	.size	mbedtls_psa_cipher_set_iv, .-mbedtls_psa_cipher_set_iv
	.section	.text.mbedtls_psa_cipher_update,"ax",@progbits
	.align	1
	.globl	mbedtls_psa_cipher_update
	.type	mbedtls_psa_cipher_update, @function
mbedtls_psa_cipher_update:
.LVL79:
.LFB105:
.LM239:
	.cfi_startproc
.LM240:
	addi	sp,sp,-64
	.cfi_def_cfa_offset 64
	sw	s0,56(sp)
	sw	s1,52(sp)
	sw	s2,48(sp)
	sw	s3,44(sp)
	sw	s4,40(sp)
	sw	s6,32(sp)
	sw	ra,60(sp)
	sw	s5,36(sp)
	.cfi_offset 8, -8
	.cfi_offset 9, -12
	.cfi_offset 18, -16
	.cfi_offset 19, -20
	.cfi_offset 20, -24
	.cfi_offset 22, -32
	.cfi_offset 1, -4
	.cfi_offset 21, -28
.LM241:
	mv	s1,a4
.LM242:
	lw	a4,0(a0)
.LVL80:
.LM243:
	mv	s6,a5
	mv	s4,a3
.LM244:
	srai	a5,a4,23
.LVL81:
.LM245:
	andi	a5,a5,255
	li	a3,9
.LVL82:
.LM246:
	mv	s2,a0
	mv	s3,a1
.LM247:
.LVL83:
.LM248:
.LM249:
.LM250:
	mv	s0,a2
.LM251:
	beq	a5,a3,.L105
.LM252:
.LM253:
	lw	a5,44(a0)
.LM254:
	lbu	a3,5(a0)
.LVL84:
.LM255:
.LM256:
	li	a0,-138
.LVL85:
.LM257:
	add	a5,a2,a5
.LM258:
	divu	a5,a5,a3
	mul	a5,a5,a3
.LM259:
	bgtu	a5,s1,.L104
.LM260:
.LM261:
	li	a5,71319552
	addi	a5,a5,1024
	bne	a4,a5,.L107
.LM262:
.LVL86:
.LBB42:
.LBI42:
.LM263:
.LBB43:
.LM264:
.LM265:
.LM266:
	lw	a5,8(s2)
.LVL87:
.LBB44:
.LBI44:
.LM267:
.LBB45:
.LM268:
.LM269:
	li	s1,0
.LVL88:
.LM270:
	beq	a5,zero,.L108
.LM271:
.LM272:
	lw	s1,4(a5)
.LM273:
	andi	s1,s1,31
.L108:
.LVL89:
.LM274:
.LBE45:
.LBE44:
.LM275:
.LM276:
	sw	zero,28(sp)
.LM277:
.LM278:
	sw	zero,0(s6)
.LVL90:
.LM279:
.LM280:
	beq	s0,zero,.L129
.LM281:
	lw	a0,44(s2)
.LBE43:
.LBE42:
.LM282:
	addi	s5,s2,8
.LBB49:
.LBB47:
.LM283:
.LM284:
	beq	a0,zero,.L111
.LBB46:
.LM285:
.LVL91:
.LM286:
.LM287:
	sub	a2,s1,a0
.LVL92:
.LM288:
	bleu	a2,s0,.L112
	mv	a2,s0
.LVL93:
.L112:
.LM289:
.LM290:
	addi	a0,a0,20
.LM291:
	mv	a1,s3
.LVL94:
.LM292:
	add	a0,s5,a0
	sw	a2,12(sp)
	call	memcpy
.LVL95:
.LM293:
.LM294:
	lw	a2,12(sp)
.LM295:
	lw	a5,44(s2)
.LM296:
	sub	s0,s0,a2
.LVL96:
.LM297:
.LM298:
	add	s3,s3,a2
.LVL97:
.LM299:
.LM300:
	add	a2,a2,a5
	sw	a2,44(s2)
.LM301:
.LM302:
	bne	s1,a2,.L111
.LM303:
.LM304:
	addi	a4,sp,28
	mv	a3,s4
	addi	a1,s2,28
	mv	a0,s5
	call	mbedtls_cipher_update
.LVL98:
.LM305:
	call	mbedtls_to_psa_error
.LVL99:
.LM306:
.LM307:
	bne	a0,zero,.L104
.LM308:
.LM309:
	lw	a5,0(s6)
.LM310:
	lw	a4,28(sp)
.LM311:
	add	a5,a5,a4
	sw	a5,0(s6)
.LM312:
	add	s4,s4,a4
.LVL100:
.LM313:
.LM314:
.LM315:
	sw	zero,44(s2)
.LVL101:
.L111:
.LM316:
	add	s3,s3,s0
.LVL102:
.L114:
.LM317:
	sub	a1,s3,s0
.LVL103:
.LM318:
.LBE46:
.LM319:
	bleu	s1,s0,.L115
.LM320:
.LM321:
	beq	s0,zero,.L129
.LM322:
.LM323:
	lw	a0,44(s2)
.LM324:
	mv	a2,s0
.LM325:
	addi	a0,a0,20
.LM326:
	add	a0,s5,a0
	call	memcpy
.LVL104:
.LM327:
.LM328:
	lw	a5,44(s2)
	add	a5,a5,s0
	sw	a5,44(s2)
.LVL105:
.L129:
.LM329:
.LBE47:
.LBE49:
.LM330:
.LM331:
	li	a0,0
.LVL106:
.L104:
.LM332:
	lw	ra,60(sp)
	.cfi_remember_state
	.cfi_restore 1
	lw	s0,56(sp)
	.cfi_restore 8
	lw	s1,52(sp)
	.cfi_restore 9
	lw	s2,48(sp)
	.cfi_restore 18
.LVL107:
.LM333:
	lw	s3,44(sp)
	.cfi_restore 19
	lw	s4,40(sp)
	.cfi_restore 20
	lw	s5,36(sp)
	.cfi_restore 21
	lw	s6,32(sp)
	.cfi_restore 22
.LVL108:
.LM334:
	addi	sp,sp,64
	.cfi_def_cfa_offset 0
	jr	ra
.LVL109:
.L115:
	.cfi_restore_state
.LBB50:
.LBB48:
.LM335:
.LM336:
	addi	a4,sp,28
	mv	a3,s4
	mv	a2,s1
	mv	a0,s5
	call	mbedtls_cipher_update
.LVL110:
.LM337:
	call	mbedtls_to_psa_error
.LVL111:
.LM338:
.LM339:
	bne	a0,zero,.L104
.LM340:
.LM341:
	lw	a4,28(sp)
.LM342:
	lw	a5,0(s6)
.LM343:
	sub	s0,s0,s1
.LVL112:
.LM344:
.LM345:
.LM346:
	add	s4,s4,a4
.LVL113:
.LM347:
.LM348:
	add	a5,a5,a4
	sw	a5,0(s6)
	j	.L114
.LVL114:
.L117:
.LM349:
.LBE48:
.LBE50:
.LM350:
.LM351:
	mv	a4,s6
	mv	a3,s4
	mv	a2,s0
	mv	a1,s3
.LVL115:
.LM352:
	addi	a0,s2,8
	call	mbedtls_cipher_update
.LVL116:
.LM353:
	call	mbedtls_to_psa_error
.LVL117:
.LM354:
.LM355:
	lw	a5,0(s6)
	bleu	a5,s1,.L104
.LM356:
	li	a0,-151
.LVL118:
.LM357:
	j	.L104
.LVL119:
.L105:
.LM358:
.LM359:
	li	a0,-138
.LVL120:
.LM360:
	bgtu	a2,s1,.L104
.L113:
.LVL121:
.L107:
.LM361:
.LM362:
	bne	s0,zero,.L117
.LM363:
.LM364:
	sw	zero,0(s6)
	j	.L129
	.cfi_endproc
.LFE105:
	.size	mbedtls_psa_cipher_update, .-mbedtls_psa_cipher_update
	.section	.text.mbedtls_psa_cipher_finish,"ax",@progbits
	.align	1
	.globl	mbedtls_psa_cipher_finish
	.type	mbedtls_psa_cipher_finish, @function
mbedtls_psa_cipher_finish:
.LVL122:
.LFB106:
.LM365:
	.cfi_startproc
.LM366:
.LM367:
.LM368:
	addi	sp,sp,-64
	.cfi_def_cfa_offset 64
	sw	s1,52(sp)
	sw	s2,48(sp)
	sw	s3,44(sp)
	sw	ra,60(sp)
	sw	s0,56(sp)
	.cfi_offset 9, -12
	.cfi_offset 18, -16
	.cfi_offset 19, -20
	.cfi_offset 1, -4
	.cfi_offset 8, -8
.LM369:
	lw	a5,44(a0)
.LM370:
	sw	zero,12(sp)
.LM371:
.LM372:
	sw	zero,16(sp)
	sw	zero,20(sp)
	sw	zero,24(sp)
	sw	zero,28(sp)
.LM373:
.LM374:
	mv	s3,a1
	mv	s1,a2
.LVL123:
.LM375:
.LM376:
	mv	s2,a3
.LM377:
	beq	a5,zero,.L131
.LM378:
.LM379:
	lw	a5,0(a0)
	li	a4,71319552
.LM380:
	li	s0,-135
.LM381:
	andi	a5,a5,-1025
	beq	a5,a4,.L132
.L131:
.LM382:
.LM383:
	addi	a3,sp,12
.LVL124:
.LM384:
	mv	a2,s2
.LVL125:
.LM385:
	addi	a1,sp,16
.LVL126:
.LM386:
	addi	a0,a0,8
.LVL127:
.LM387:
	call	mbedtls_cipher_finish_padded
.LVL128:
.LM388:
	call	mbedtls_to_psa_error
.LVL129:
	mv	s0,a0
.LVL130:
.LM389:
.LM390:
	bne	a0,zero,.L132
.LM391:
	li	a5,16
	mv	s0,s1
.LVL131:
.LM392:
	bleu	s1,a5,.L133
.LVL132:
.LM393:
	mv	s0,a5
.LVL133:
.L133:
.LM394:
.LM395:
	beq	s1,zero,.L134
.LM396:
	mv	a2,s0
	addi	a1,sp,16
	mv	a0,s3
.LVL134:
.LM397:
	call	memcpy
.LVL135:
.L134:
.LM398:
.LM399:
.LBB81:
.LBI81:
.LM400:
.LBB82:
.LM401:
.LBB83:
.LBI83:
.LM402:
.LBB84:
.LM403:
.LVL136:
.LM404:
.LM405:
.LBE84:
.LBE83:
.LM406:
.LBB85:
.LBI85:
.LM407:
.LBB86:
.LM408:
	lw	a4,0(s2)
.LVL137:
.LM409:
.LM410:
.LBE86:
.LBE85:
.LM411:
.LBB87:
.LBI87:
.LM412:
.LBB88:
.LM413:
.LBB89:
.LBI89:
.LM414:
.LBB90:
.LM415:
.LBE90:
.LBE89:
.LBE88:
.LBE87:
.LM416:
	xor	a5,s0,a4
.LM417:
	srli	a5,a5,31
.LVL138:
.LBB94:
.LBB93:
.LBB92:
.LBB91:
.LM418:
.LVL139:
.LM419:
.LM420:
.LBE91:
.LBE92:
.LM421:
.LM422:
.LM423:
.LM424:
	srli	a3,a5,1
.LM425:
	neg	a3,a3
.LM426:
	neg	a5,a5
.LVL140:
.LM427:
	or	a5,a3,a5
.LVL141:
.LM428:
	srai	a5,a5,31
.LVL142:
.LM429:
.LBE93:
.LBE94:
.LM430:
.LBB95:
.LBI95:
.LM431:
.LBB96:
.LM432:
.LBB97:
.LBI97:
.LM433:
.LBB98:
.LM434:
	mv	a3,a5
.LVL143:
.LM435:
.LM436:
.LBE98:
.LBE97:
.LM437:
.LM438:
.LBE96:
.LBE95:
.LM439:
.LM440:
.LBB100:
.LBI100:
.LM441:
.LBB101:
.LM442:
.LBB102:
.LBI102:
.LM443:
.LBB103:
.LM444:
.LBE103:
.LBE102:
.LBE101:
.LBE100:
.LM445:
	sub	a2,s0,a4
.LBB107:
.LBB99:
.LM446:
	not	a3,a3
.LVL144:
.LM447:
	and	a2,a2,a3
.LM448:
	and	a4,a4,a5
.LVL145:
.LM449:
	or	a2,a2,a4
.LBE99:
.LBE107:
.LM450:
	srli	a2,a2,31
.LVL146:
.LBB108:
.LBB106:
.LBB105:
.LBB104:
.LM451:
.LVL147:
.LM452:
.LM453:
.LBE104:
.LBE105:
.LM454:
.LM455:
.LM456:
.LM457:
	srli	a4,a2,1
.LM458:
	neg	a4,a4
.LM459:
	neg	a2,a2
.LVL148:
.LM460:
	or	a4,a4,a2
	srai	a4,a4,31
.LVL149:
.LM461:
.LBE106:
.LBE108:
.LBE82:
.LBE81:
.LM462:
.LBB109:
.LBI109:
.LM463:
.LBB110:
.LM464:
.LBB111:
.LBI111:
.LM465:
.LBB112:
.LM466:
.LBB113:
.LBI113:
.LM467:
.LBB114:
.LM468:
	mv	a5,a4
.LVL150:
.LM469:
.LM470:
.LBE114:
.LBE113:
.LM471:
.LM472:
	not	s0,a5
.LVL151:
.LM473:
	lw	a5,12(sp)
.LBE112:
.LBE111:
.LM474:
	andi	a4,a4,138
.LVL152:
.LBB116:
.LBB115:
.LM475:
	and	s0,s0,a5
	andi	s0,s0,150
.LBE115:
.LBE116:
.LM476:
	or	s0,s0,a4
.LM477:
	neg	s0,s0
.LVL153:
.L132:
.LM478:
.LBE110:
.LBE109:
.LM479:
	li	a1,16
	add	a0,sp,a1
	call	mbedtls_platform_zeroize
.LVL154:
.LM480:
.LM481:
	lw	ra,60(sp)
	.cfi_restore 1
	mv	a0,s0
	lw	s0,56(sp)
	.cfi_restore 8
.LVL155:
.LM482:
	lw	s1,52(sp)
	.cfi_restore 9
.LVL156:
.LM483:
	lw	s2,48(sp)
	.cfi_restore 18
.LVL157:
.LM484:
	lw	s3,44(sp)
	.cfi_restore 19
.LVL158:
.LM485:
	addi	sp,sp,64
	.cfi_def_cfa_offset 0
	jr	ra
	.cfi_endproc
.LFE106:
	.size	mbedtls_psa_cipher_finish, .-mbedtls_psa_cipher_finish
	.section	.text.mbedtls_psa_cipher_abort,"ax",@progbits
	.align	1
	.globl	mbedtls_psa_cipher_abort
	.type	mbedtls_psa_cipher_abort, @function
mbedtls_psa_cipher_abort:
.LVL159:
.LFB107:
.LM486:
	.cfi_startproc
.LM487:
.LM488:
	lw	a5,0(a0)
.LM489:
	li	a3,4
	srai	a4,a5,24
	andi	a4,a4,127
	bne	a4,a3,.L145
.LM490:
.LM491:
	addi	sp,sp,-16
	.cfi_def_cfa_offset 16
.LM492:
	addi	a0,a0,8
.LVL160:
.LM493:
	sw	ra,12(sp)
	.cfi_offset 1, -4
.LM494:
	call	mbedtls_cipher_free
.LVL161:
.LM495:
.LM496:
	lw	ra,12(sp)
	.cfi_restore 1
.LM497:
	li	a0,0
.LM498:
	addi	sp,sp,16
	.cfi_def_cfa_offset 0
	jr	ra
.LVL162:
.L145:
.LM499:
	li	a0,-137
.LVL163:
.LM500:
	ret
	.cfi_endproc
.LFE107:
	.size	mbedtls_psa_cipher_abort, .-mbedtls_psa_cipher_abort
	.section	.text.mbedtls_psa_cipher_encrypt,"ax",@progbits
	.align	1
	.globl	mbedtls_psa_cipher_encrypt
	.type	mbedtls_psa_cipher_encrypt, @function
mbedtls_psa_cipher_encrypt:
.LVL164:
.LFB108:
.LM501:
	.cfi_startproc
.LM502:
.LM503:
.LM504:
	addi	sp,sp,-144
	.cfi_def_cfa_offset 144
	sw	s2,128(sp)
	.cfi_offset 18, -16
	mv	s2,a4
.LM505:
	mv	a4,a3
.LVL165:
.LM506:
	mv	a3,a2
.LVL166:
.LM507:
	mv	a2,a1
.LVL167:
.LM508:
	mv	a1,a0
.LVL168:
.LM509:
	addi	a0,sp,36
.LVL169:
.LM510:
	sw	s0,136(sp)
	sw	s1,132(sp)
	sw	s3,124(sp)
	sw	s4,120(sp)
	.cfi_offset 8, -8
	.cfi_offset 9, -12
	.cfi_offset 19, -20
	.cfi_offset 20, -24
	lw	s1,144(sp)
	sw	ra,140(sp)
	.cfi_offset 1, -4
.LM511:
	sw	a5,12(sp)
	mv	s3,a6
	mv	s4,a7
.LM512:
	sw	zero,36(sp)
	sh	zero,40(sp)
	sw	zero,44(sp)
.LM513:
.LM514:
.LM515:
	call	mbedtls_psa_cipher_encrypt_setup
.LVL170:
.LM516:
	mv	s0,a0
.LVL171:
.LM517:
.LM518:
	bne	a0,zero,.L151
.LM519:
.LM520:
	lw	a5,12(sp)
	bne	a5,zero,.L152
.L154:
.LM521:
.LM522:
	lw	a4,148(sp)
	addi	a5,sp,28
	mv	a3,s1
	mv	a2,s4
	mv	a1,s3
	addi	a0,sp,36
	call	mbedtls_psa_cipher_update
.LVL172:
	mv	s0,a0
.LVL173:
.LM523:
.LM524:
	beq	a0,zero,.L160
.L151:
.LVL174:
.LM525:
	addi	a0,sp,36
	call	mbedtls_psa_cipher_abort
.LVL175:
.LM526:
.LM527:
	j	.L150
.L152:
.LM528:
.LM529:
	mv	a2,a5
	mv	a1,s2
	addi	a0,sp,36
	call	mbedtls_psa_cipher_set_iv
.LVL176:
	mv	s0,a0
.LVL177:
.LM530:
.LM531:
	beq	a0,zero,.L154
	j	.L151
.L160:
.LM532:
.LM533:
	lw	a2,28(sp)
.LVL178:
.LBB117:
.LBI117:
.LM534:
.LBB118:
.LM535:
.LM536:
	beq	s1,zero,.L155
.LM537:
	add	s1,s1,a2
.LVL179:
.L155:
.LM538:
.LBE118:
.LBE117:
.LM539:
	lw	a5,148(sp)
	addi	a3,sp,32
	mv	a1,s1
	sub	a2,a5,a2
	addi	a0,sp,36
	call	mbedtls_psa_cipher_finish
.LVL180:
	mv	s0,a0
.LVL181:
.LM540:
.LM541:
	bne	a0,zero,.L151
.LM542:
.LM543:
	lw	a4,32(sp)
	lw	a5,28(sp)
.LM544:
	addi	a0,sp,36
.LM545:
	add	a5,a5,a4
.LM546:
	lw	a4,152(sp)
	sw	a5,0(a4)
.LDL1:
.LVL182:
.LM547:
.LM548:
.LM549:
	call	mbedtls_psa_cipher_abort
.LVL183:
	mv	s0,a0
.LVL184:
.L150:
.LM550:
	lw	ra,140(sp)
	.cfi_restore 1
	mv	a0,s0
	lw	s0,136(sp)
	.cfi_restore 8
	lw	s1,132(sp)
	.cfi_restore 9
	lw	s2,128(sp)
	.cfi_restore 18
.LVL185:
.LM551:
	lw	s3,124(sp)
	.cfi_restore 19
.LVL186:
.LM552:
	lw	s4,120(sp)
	.cfi_restore 20
.LVL187:
.LM553:
	addi	sp,sp,144
	.cfi_def_cfa_offset 0
.LVL188:
.LM554:
	jr	ra
	.cfi_endproc
.LFE108:
	.size	mbedtls_psa_cipher_encrypt, .-mbedtls_psa_cipher_encrypt
	.section	.text.mbedtls_psa_cipher_decrypt,"ax",@progbits
	.align	1
	.globl	mbedtls_psa_cipher_decrypt
	.type	mbedtls_psa_cipher_decrypt, @function
mbedtls_psa_cipher_decrypt:
.LVL189:
.LFB109:
.LM555:
	.cfi_startproc
.LM556:
.LM557:
.LM558:
	addi	sp,sp,-112
	.cfi_def_cfa_offset 112
	sw	s2,96(sp)
	.cfi_offset 18, -16
	mv	s2,a4
.LM559:
	mv	a4,a3
.LVL190:
.LM560:
	mv	a3,a2
.LVL191:
.LM561:
	mv	a2,a1
.LVL192:
.LM562:
	mv	a1,a0
.LVL193:
.LM563:
	addi	a0,sp,4
.LVL194:
.LM564:
	sw	s0,104(sp)
	sw	s1,100(sp)
	sw	s3,92(sp)
	sw	s4,88(sp)
	sw	ra,108(sp)
	.cfi_offset 8, -8
	.cfi_offset 9, -12
	.cfi_offset 19, -20
	.cfi_offset 20, -24
	.cfi_offset 1, -4
.LM565:
	mv	s4,a5
	mv	s1,a6
	mv	s3,a7
.LM566:
	sw	zero,4(sp)
	sh	zero,8(sp)
	sw	zero,12(sp)
.LM567:
.LM568:
.LM569:
	call	mbedtls_psa_cipher_decrypt_setup
.LVL195:
.LM570:
	mv	s0,a0
.LVL196:
.LM571:
.LM572:
	bne	a0,zero,.L163
.LM573:
.LM574:
	lbu	a2,8(sp)
.LM575:
	bne	a2,zero,.L164
.L167:
.LM576:
.LM577:
	lbu	a2,8(sp)
.LVL197:
.LBB119:
.LBI119:
.LM578:
.LBB120:
.LM579:
.LM580:
	bne	s2,zero,.L165
.LVL198:
.L166:
.LM581:
.LBE120:
.LBE119:
.LM582:
	mv	a5,sp
	mv	a4,s3
	mv	a3,s1
	sub	a2,s4,a2
	mv	a1,s2
	addi	a0,sp,4
	call	mbedtls_psa_cipher_update
.LVL199:
	mv	s0,a0
.LVL200:
.LM583:
.LM584:
	bne	a0,zero,.L163
.LM585:
.LM586:
	lw	s2,0(sp)
.LVL201:
.LM587:
.LBB122:
.LBI122:
.LM588:
.LBB123:
.LM589:
.LM590:
	beq	s1,zero,.L168
.LM591:
	add	s1,s1,s2
.LVL202:
.L168:
.LM592:
.LBE123:
.LBE122:
.LM593:
	mv	a3,sp
	sub	a2,s3,s2
	mv	a1,s1
	addi	a0,sp,4
	call	mbedtls_psa_cipher_finish
.LVL203:
.LM594:
	lw	a5,0(sp)
.LM595:
	lw	a4,112(sp)
.LM596:
	mv	s0,a0
.LVL204:
.LM597:
.LM598:
	add	a5,a5,s2
.LM599:
	sw	a5,0(a4)
	j	.L163
.LVL205:
.L164:
.LM600:
.LM601:
	mv	a1,s2
	addi	a0,sp,4
	call	mbedtls_psa_cipher_set_iv
.LVL206:
	mv	s0,a0
.LVL207:
.LM602:
.LM603:
	beq	a0,zero,.L167
.LVL208:
.L163:
.LM604:
.LM605:
.LM606:
	addi	a0,sp,4
	call	mbedtls_psa_cipher_abort
.LVL209:
.LM607:
.LM608:
	beq	a0,zero,.L162
.LM609:
	li	s0,-137
.LVL210:
.LM610:
.L162:
.LM611:
	lw	ra,108(sp)
	.cfi_remember_state
	.cfi_restore 1
	mv	a0,s0
.LVL211:
.LM612:
	lw	s0,104(sp)
	.cfi_restore 8
	lw	s1,100(sp)
	.cfi_restore 9
	lw	s2,96(sp)
	.cfi_restore 18
	lw	s3,92(sp)
	.cfi_restore 19
.LVL212:
.LM613:
	lw	s4,88(sp)
	.cfi_restore 20
.LVL213:
.LM614:
	addi	sp,sp,112
	.cfi_def_cfa_offset 0
.LVL214:
.LM615:
	jr	ra
.LVL215:
.L165:
	.cfi_restore_state
.LBB124:
.LBB121:
.LM616:
	add	s2,s2,a2
.LVL216:
.LM617:
	j	.L166
.LBE121:
.LBE124:
	.cfi_endproc
.LFE109:
	.size	mbedtls_psa_cipher_decrypt, .-mbedtls_psa_cipher_decrypt
	.text
.Letext0:
	.section	.note.GNU-stack,"",@progbits
