	.file	"psa_crypto_rsa.c"
	.option nopic
	.attribute arch, "rv32i2p1_m2p0_f2p2_c2p0_zicsr2p0_zmmul1p0_zca1p0_zcf1p0"
	.attribute unaligned_access, 0
	.attribute stack_align, 16
	.text
.Ltext0:
	.cfi_sections	.debug_frame
	.section	.text.psa_rsa_oaep_set_padding_mode,"ax",@progbits
	.align	1
	.type	psa_rsa_oaep_set_padding_mode, @function
psa_rsa_oaep_set_padding_mode:
.LVL0:
.LFB87:
.LM1:
	.cfi_startproc
.LM2:
.LM3:
	addi	sp,sp,-32
	.cfi_def_cfa_offset 32
.LM4:
	li	a5,117440512
.LM5:
	sw	s0,24(sp)
	sw	ra,28(sp)
	.cfi_offset 8, -8
	.cfi_offset 1, -4
.LM6:
	andi	a4,a0,-256
.LM7:
	addi	a5,a5,768
.LM8:
	mv	s0,a1
	li	a2,0
.LM9:
	bne	a4,a5,.L2
.LM10:
	andi	a0,a0,255
.LVL1:
.LM11:
	li	a2,33554432
	or	a2,a0,a2
.L2:
.LVL2:
.LM12:
.LBB6:
.LBI6:
.LM13:
.LBB7:
.LM14:
.LM15:
	andi	a2,a2,0xff
.LVL3:
.LM16:
.LBE7:
.LBE6:
.LM17:
.LM18:
	mv	a0,a2
	sw	a2,12(sp)
	call	mbedtls_md_info_from_type
.LVL4:
.LM19:
	beq	a0,zero,.L3
.LM20:
.LM21:
	mv	a0,s0
.LM22:
	lw	s0,24(sp)
	.cfi_remember_state
	.cfi_restore 8
.LVL5:
.LM23:
	lw	a2,12(sp)
.LM24:
	lw	ra,28(sp)
	.cfi_restore 1
.LM25:
	li	a1,1
.LM26:
	addi	sp,sp,32
	.cfi_def_cfa_offset 0
.LVL6:
.LM27:
	tail	mbedtls_rsa_set_padding
.LVL7:
.L3:
	.cfi_restore_state
.LM28:
	lw	ra,28(sp)
	.cfi_restore 1
	lw	s0,24(sp)
	.cfi_restore 8
.LVL8:
.LM29:
	li	a0,-134
	addi	sp,sp,32
	.cfi_def_cfa_offset 0
.LVL9:
.LM30:
	jr	ra
	.cfi_endproc
.LFE87:
	.size	psa_rsa_oaep_set_padding_mode, .-psa_rsa_oaep_set_padding_mode
	.section	.text.psa_rsa_decode_md_type,"ax",@progbits
	.align	1
	.type	psa_rsa_decode_md_type, @function
psa_rsa_decode_md_type:
.LVL10:
.LFB83:
.LM31:
	.cfi_startproc
.LM32:
.LM33:
	li	a3,-100663296
	andi	a5,a0,-512
	addi	a3,a3,-512
	add	a5,a5,a3
	beq	a5,zero,.L8
.LM34:
	li	a5,-100667392
	andi	a4,a0,-256
	addi	a5,a5,-768
	add	a5,a4,a5
.LM35:
	beq	a5,zero,.L8
.LM36:
	li	a3,-100663296
	andi	a5,a0,-1024
	addi	a3,a3,-1024
	add	a5,a5,a3
	beq	a5,zero,.L8
.LM37:
	li	a5,-100667392
	addi	a5,a5,1792
	add	a4,a4,a5
.LM38:
	beq	a4,zero,.L8
.LVL11:
.LM39:
.LBB12:
.LBI12:
.LM40:
.LBB13:
.LM41:
.LM42:
.LBE13:
.LBE12:
.LM43:
	sb	zero,0(a2)
.LM44:
.LM45:
.LVL12:
.L9:
.LM46:
	li	a5,-134
.L20:
.LM47:
	mv	a0,a5
.LVL13:
.LM48:
	ret
.LVL14:
.L8:
.LM49:
	andi	a5,a0,255
.LM50:
	beq	a5,zero,.L10
.LM51:
	li	a4,33554432
	or	a5,a5,a4
.L10:
.LVL15:
.LM52:
.LBB15:
.LM53:
.LBB14:
.LM54:
.LM55:
	andi	a5,a5,0xff
.LVL16:
.LM56:
.LBE14:
.LBE15:
.LM57:
	li	a4,100663296
.LM58:
	sb	a5,0(a2)
.LM59:
.LM60:
	addi	a4,a4,512
	beq	a0,a4,.L19
.LM61:
.LM62:
	beq	a5,zero,.L9
.LM63:
	addi	sp,sp,-32
	.cfi_def_cfa_offset 32
.LBB16:
.LBB17:
.LM64:
	mv	a0,a5
.LVL17:
.LM65:
	sw	a1,12(sp)
.LM66:
.LBE17:
.LBE16:
.LM67:
.LVL18:
.LBB20:
.LBI16:
.LM68:
.LBB18:
.LM69:
.LBE18:
.LBE20:
.LM70:
	sw	ra,28(sp)
	.cfi_offset 1, -4
.LBB21:
.LBB19:
.LM71:
	call	mbedtls_md_info_from_type
.LVL19:
.LM72:
	call	mbedtls_md_get_size
.LVL20:
.LM73:
.LBE19:
.LBE21:
.LM74:
	lw	a1,12(sp)
.LM75:
	li	a5,-135
.LM76:
	bne	a0,a1,.L7
.LM77:
	li	a5,0
.L7:
.LM78:
	lw	ra,28(sp)
	.cfi_restore 1
	mv	a0,a5
	addi	sp,sp,32
	.cfi_def_cfa_offset 0
.LVL21:
.LM79:
	jr	ra
.LVL22:
.L19:
.LM80:
	li	a5,0
	j	.L20
	.cfi_endproc
.LFE83:
	.size	psa_rsa_decode_md_type, .-psa_rsa_decode_md_type
	.section	.text.mbedtls_psa_rsa_load_representation,"ax",@progbits
	.align	1
	.globl	mbedtls_psa_rsa_load_representation
	.type	mbedtls_psa_rsa_load_representation, @function
mbedtls_psa_rsa_load_representation:
.LVL23:
.LFB77:
.LM81:
	.cfi_startproc
.LM82:
.LM83:
.LM84:
.LM85:
	addi	sp,sp,-48
	.cfi_def_cfa_offset 48
	sw	s0,40(sp)
	sw	s2,32(sp)
	.cfi_offset 8, -8
	.cfi_offset 18, -16
	mv	s0,a0
	mv	s2,a1
.LM86:
	li	a0,1
.LVL24:
.LM87:
	li	a1,120
.LVL25:
.LM88:
	sw	s1,36(sp)
	sw	ra,44(sp)
	.cfi_offset 9, -12
	.cfi_offset 1, -4
.LM89:
	mv	s1,a3
	sw	a2,12(sp)
.LM90:
	call	calloc
.LVL26:
.LM91:
	sw	a0,0(s1)
.LM92:
.LM93:
	beq	a0,zero,.L27
.LM94:
	call	mbedtls_rsa_init
.LVL27:
.LM95:
.LM96:
	li	a5,28672
	and	s0,s0,a5
.LVL28:
.LM97:
	lw	a0,0(s1)
.LM98:
	lw	a2,12(sp)
.LM99:
	mv	a1,s2
.LM100:
	bne	s0,a5,.L24
.LM101:
.LM102:
	call	mbedtls_rsa_parse_key
.LVL29:
.L31:
.LM103:
	call	mbedtls_to_psa_error
.LVL30:
	mv	s0,a0
.LVL31:
.LM104:
.LM105:
	bne	a0,zero,.L22
.LM106:
.LM107:
	lw	a0,0(s1)
.LM108:
	li	s0,-134
.LVL32:
.LM109:
	call	mbedtls_rsa_get_len
.LVL33:
.LM110:
.LM111:
	slli	a0,a0,3
.LVL34:
.LM112:
	li	a5,4096
	bgtu	a0,a5,.L22
.LM113:
.LM114:
	lw	s0,0(s1)
.LVL35:
.LBB24:
.LBI24:
.LM115:
.LBB25:
.LM116:
.LM117:
.LM118:
	addi	a0,sp,24
.LVL36:
.LM119:
	call	mbedtls_mpi_init
.LVL37:
.LM120:
.LM121:
	li	a5,0
	li	a4,0
	li	a3,0
	li	a2,0
	addi	a1,sp,24
	mv	a0,s0
	call	mbedtls_rsa_export
.LVL38:
.LM122:
	call	mbedtls_to_psa_error
.LVL39:
	mv	s0,a0
.LVL40:
.LM123:
.LM124:
	bne	a0,zero,.L26
.LM125:
.LM126:
	addi	a0,sp,24
	call	mbedtls_mpi_bitlen
.LVL41:
.LM127:
	andi	a0,a0,7
.LM128:
	beq	a0,zero,.L26
.LM129:
	li	s0,-134
.LVL42:
.L26:
.LM130:
	addi	a0,sp,24
	call	mbedtls_mpi_free
.LVL43:
.LM131:
.LM132:
.LBE25:
.LBE24:
.LM133:
.L22:
.LM134:
	lw	ra,44(sp)
	.cfi_remember_state
	.cfi_restore 1
	mv	a0,s0
	lw	s0,40(sp)
	.cfi_restore 8
	lw	s1,36(sp)
	.cfi_restore 9
.LVL44:
.LM135:
	lw	s2,32(sp)
	.cfi_restore 18
.LVL45:
.LM136:
	addi	sp,sp,48
	.cfi_def_cfa_offset 0
.LVL46:
.LM137:
	jr	ra
.LVL47:
.L24:
	.cfi_restore_state
.LM138:
.LM139:
	call	mbedtls_rsa_parse_pubkey
.LVL48:
.LM140:
	j	.L31
.L27:
.LM141:
	li	s0,-141
	j	.L22
	.cfi_endproc
.LFE77:
	.size	mbedtls_psa_rsa_load_representation, .-mbedtls_psa_rsa_load_representation
	.section	.text.mbedtls_psa_rsa_export_key,"ax",@progbits
	.align	1
	.globl	mbedtls_psa_rsa_export_key
	.type	mbedtls_psa_rsa_export_key, @function
mbedtls_psa_rsa_export_key:
.LVL49:
.LFB79:
.LM142:
	.cfi_startproc
.LM143:
.LM144:
.LM145:
	addi	sp,sp,-48
	.cfi_def_cfa_offset 48
	sw	s3,28(sp)
	.cfi_offset 19, -20
	mv	s3,a4
.LM146:
	add	a4,a2,a3
.LVL50:
.LM147:
	mv	a5,a0
.LM148:
	sw	a4,12(sp)
.LM149:
.LM150:
	li	a4,28672
.LM151:
	sw	s1,36(sp)
	sw	s2,32(sp)
	sw	ra,44(sp)
	.cfi_offset 9, -12
	.cfi_offset 18, -16
	.cfi_offset 1, -4
	mv	s2,a2
	sw	s0,40(sp)
	.cfi_offset 8, -8
.LM152:
	and	a5,a5,a4
.LM153:
	mv	a0,a1
.LVL51:
.LM154:
	mv	s1,a3
.LM155:
	addi	a2,sp,12
.LVL52:
.LM156:
	mv	a1,s2
.LVL53:
.LM157:
	bne	a5,a4,.L33
.LM158:
.LM159:
	call	mbedtls_rsa_write_key
.LVL54:
.L40:
.LM160:
	mv	s0,a0
.LVL55:
.LM161:
.LM162:
	bge	a0,zero,.L35
.LM163:
	mv	a2,s1
	li	a1,0
	mv	a0,s2
	call	memset
.LVL56:
.LM164:
.LM165:
	mv	a0,s0
	call	mbedtls_to_psa_error
.LVL57:
.L32:
.LM166:
	lw	ra,44(sp)
	.cfi_remember_state
	.cfi_restore 1
	lw	s0,40(sp)
	.cfi_restore 8
.LVL58:
.LM167:
	lw	s1,36(sp)
	.cfi_restore 9
	lw	s2,32(sp)
	.cfi_restore 18
.LVL59:
.LM168:
	lw	s3,28(sp)
	.cfi_restore 19
.LVL60:
.LM169:
	addi	sp,sp,48
	.cfi_def_cfa_offset 0
	jr	ra
.LVL61:
.L33:
	.cfi_restore_state
.LM170:
.LM171:
	call	mbedtls_rsa_write_pubkey
.LVL62:
.LM172:
	j	.L40
.LVL63:
.L35:
.LM173:
.LM174:
	slli	a5,a0,1
.LM175:
	bgtu	a5,s1,.L37
.LM176:
.LM177:
	sub	s1,s1,a0
.LVL64:
.LM178:
	mv	a2,a0
	add	a1,s2,s1
	mv	a0,s2
	call	memcpy
.LVL65:
.LM179:
	mv	a2,s0
	li	a1,0
	add	a0,s2,s1
.L41:
.LM180:
	call	memset
.LVL66:
.L38:
.LM181:
.LM182:
	sw	s0,0(s3)
.LM183:
.LM184:
	li	a0,0
	j	.L32
.LVL67:
.L37:
.LM185:
.LM186:
	bgeu	a0,s1,.L38
.LM187:
.LM188:
	sub	s1,s1,a0
.LVL68:
.LM189:
	mv	a2,a0
	add	a1,s2,s1
	mv	a0,s2
	call	memmove
.LVL69:
.LM190:
	mv	a2,s1
	li	a1,0
	add	a0,s2,s0
	j	.L41
	.cfi_endproc
.LFE79:
	.size	mbedtls_psa_rsa_export_key, .-mbedtls_psa_rsa_export_key
	.section	.text.mbedtls_psa_rsa_import_key,"ax",@progbits
	.align	1
	.globl	mbedtls_psa_rsa_import_key
	.type	mbedtls_psa_rsa_import_key, @function
mbedtls_psa_rsa_import_key:
.LVL70:
.LFB78:
.LM191:
	.cfi_startproc
.LM192:
.LM193:
.LM194:
	addi	sp,sp,-48
	.cfi_def_cfa_offset 48
	sw	s1,36(sp)
	sw	s2,32(sp)
	sw	s3,28(sp)
	sw	s4,24(sp)
	sw	s5,20(sp)
	sw	s6,16(sp)
	sw	ra,44(sp)
	sw	s0,40(sp)
	.cfi_offset 9, -12
	.cfi_offset 18, -16
	.cfi_offset 19, -20
	.cfi_offset 20, -24
	.cfi_offset 21, -28
	.cfi_offset 22, -32
	.cfi_offset 1, -4
	.cfi_offset 8, -8
.LM195:
	mv	s1,a0
.LM196:
	lhu	a0,0(a0)
.LVL71:
.LM197:
	mv	s3,a3
.LM198:
	addi	a3,sp,12
.LVL72:
.LM199:
	mv	s4,a4
	mv	s5,a5
	mv	s6,a6
.LM200:
	sw	zero,12(sp)
.LM201:
.LM202:
	call	mbedtls_psa_rsa_load_representation
.LVL73:
.LM203:
.LM204:
	lw	s2,12(sp)
.LM205:
	bne	a0,zero,.L44
.LM206:
.LM207:
	mv	a0,s2
.LVL74:
.LM208:
	call	mbedtls_rsa_get_len
.LVL75:
.LM209:
	slli	a0,a0,3
	slli	a0,a0,16
	srli	a0,a0,16
	sw	a0,0(s6)
.LM210:
.LM211:
	lhu	a0,0(s1)
	mv	a4,s5
	mv	a3,s4
	mv	a2,s3
	mv	a1,s2
	call	mbedtls_psa_rsa_export_key
.LVL76:
.L44:
.L43:
	mv	s0,a0
.LVL77:
.LM212:
	mv	a0,s2
	call	mbedtls_rsa_free
.LVL78:
.LM213:
	mv	a0,s2
	call	free
.LVL79:
.LM214:
.LM215:
	lw	ra,44(sp)
	.cfi_restore 1
	mv	a0,s0
	lw	s0,40(sp)
	.cfi_restore 8
.LVL80:
.LM216:
	lw	s1,36(sp)
	.cfi_restore 9
.LVL81:
.LM217:
	lw	s2,32(sp)
	.cfi_restore 18
	lw	s3,28(sp)
	.cfi_restore 19
.LVL82:
.LM218:
	lw	s4,24(sp)
	.cfi_restore 20
.LVL83:
.LM219:
	lw	s5,20(sp)
	.cfi_restore 21
.LVL84:
.LM220:
	lw	s6,16(sp)
	.cfi_restore 22
.LVL85:
.LM221:
	addi	sp,sp,48
	.cfi_def_cfa_offset 0
	jr	ra
	.cfi_endproc
.LFE78:
	.size	mbedtls_psa_rsa_import_key, .-mbedtls_psa_rsa_import_key
	.section	.text.mbedtls_psa_rsa_export_public_key,"ax",@progbits
	.align	1
	.globl	mbedtls_psa_rsa_export_public_key
	.type	mbedtls_psa_rsa_export_public_key, @function
mbedtls_psa_rsa_export_public_key:
.LVL86:
.LFB80:
.LM222:
	.cfi_startproc
.LM223:
.LM224:
.LM225:
	addi	sp,sp,-64
	.cfi_def_cfa_offset 64
	sw	s1,52(sp)
	sw	s2,48(sp)
	sw	s3,44(sp)
	sw	ra,60(sp)
	sw	s0,56(sp)
	.cfi_offset 9, -12
	.cfi_offset 18, -16
	.cfi_offset 19, -20
	.cfi_offset 1, -4
	.cfi_offset 8, -8
.LM226:
	lhu	a0,0(a0)
.LVL87:
.LM227:
	mv	s2,a3
.LM228:
	addi	a3,sp,28
.LVL88:
.LM229:
	mv	s3,a4
	sw	a5,12(sp)
.LM230:
	sw	zero,28(sp)
.LM231:
.LM232:
	call	mbedtls_psa_rsa_load_representation
.LVL89:
.LM233:
.LM234:
	lw	s1,28(sp)
.LM235:
	bne	a0,zero,.L48
.LM236:
.LM237:
	lw	a4,12(sp)
	li	a0,16384
.LVL90:
.LM238:
	mv	a3,s3
	mv	a2,s2
	mv	a1,s1
	addi	a0,a0,1
	call	mbedtls_psa_rsa_export_key
.LVL91:
.L48:
	mv	s0,a0
.LVL92:
.LM239:
	mv	a0,s1
	call	mbedtls_rsa_free
.LVL93:
.LM240:
	mv	a0,s1
	call	free
.LVL94:
.LM241:
.LM242:
	lw	ra,60(sp)
	.cfi_restore 1
	mv	a0,s0
	lw	s0,56(sp)
	.cfi_restore 8
.LVL95:
.LM243:
	lw	s1,52(sp)
	.cfi_restore 9
	lw	s2,48(sp)
	.cfi_restore 18
.LVL96:
.LM244:
	lw	s3,44(sp)
	.cfi_restore 19
.LVL97:
.LM245:
	addi	sp,sp,64
	.cfi_def_cfa_offset 0
.LVL98:
.LM246:
	jr	ra
	.cfi_endproc
.LFE80:
	.size	mbedtls_psa_rsa_export_public_key, .-mbedtls_psa_rsa_export_public_key
	.section	.text.mbedtls_psa_rsa_generate_key,"ax",@progbits
	.align	1
	.globl	mbedtls_psa_rsa_generate_key
	.type	mbedtls_psa_rsa_generate_key, @function
mbedtls_psa_rsa_generate_key:
.LVL99:
.LFB82:
.LM247:
	.cfi_startproc
.LM248:
.LM249:
.LM250:
.LM251:
.LM252:
.LM253:
	addi	sp,sp,-160
	.cfi_def_cfa_offset 160
	sw	ra,156(sp)
	sw	s0,152(sp)
	sw	s1,148(sp)
	sw	s2,144(sp)
	sw	s3,140(sp)
	sw	s4,136(sp)
	.cfi_offset 1, -4
	.cfi_offset 8, -8
	.cfi_offset 9, -12
	.cfi_offset 18, -16
	.cfi_offset 19, -20
	.cfi_offset 20, -24
.LM254:
	beq	a2,zero,.L55
.LM255:
.LVL100:
.LBB28:
.LBI28:
.LM256:
.LBB29:
.LM257:
.LM258:
.LM259:
.LM260:
	li	a6,4
.LBE29:
.LBE28:
.LM261:
	li	s1,-134
.LBB32:
.LBB30:
.LM262:
	bgtu	a2,a6,.L50
.LM263:
	li	a6,0
.LM264:
	li	s0,0
.LVL101:
.L53:
.LM265:
.LM266:
	add	a7,a1,a6
	lbu	a7,0(a7)
.LM267:
	slli	s0,s0,8
.LVL102:
.LM268:
	addi	a6,a6,1
.LVL103:
.LM269:
	or	s0,a7,s0
.LVL104:
.LM270:
.LM271:
	bne	a2,a6,.L53
.LM272:
.LBE30:
.LBE32:
.LM273:
	li	s1,-134
.LBB33:
.LBB31:
.LM274:
	bge	s0,zero,.L51
.LVL105:
.L50:
.LM275:
.LBE31:
.LBE33:
.LM276:
	lw	ra,156(sp)
	.cfi_remember_state
	.cfi_restore 1
	lw	s0,152(sp)
	.cfi_restore 8
	lw	s2,144(sp)
	.cfi_restore 18
	lw	s3,140(sp)
	.cfi_restore 19
	lw	s4,136(sp)
	.cfi_restore 20
	mv	a0,s1
	lw	s1,148(sp)
	.cfi_restore 9
	addi	sp,sp,160
	.cfi_def_cfa_offset 0
	jr	ra
.LVL106:
.L55:
	.cfi_restore_state
.LM277:
	li	s0,65536
	addi	s0,s0,1
.L51:
	mv	s1,a0
.LVL107:
.LM278:
	addi	a0,sp,8
.LVL108:
.LM279:
	mv	s4,a5
	mv	s3,a4
	mv	s2,a3
	call	mbedtls_rsa_init
.LVL109:
.LM280:
.LM281:
	lhu	a3,2(s1)
	lui	a1,%hi(mbedtls_psa_get_random)
	mv	a4,s0
	li	a2,0
	addi	a1,a1,%lo(mbedtls_psa_get_random)
	addi	a0,sp,8
	call	mbedtls_rsa_gen_key
.LVL110:
	mv	s0,a0
.LVL111:
.LM282:
.LM283:
	beq	a0,zero,.L54
.LM284:
	addi	a0,sp,8
	call	mbedtls_rsa_free
.LVL112:
.LM285:
.LM286:
	mv	a0,s0
	call	mbedtls_to_psa_error
.LVL113:
	mv	s1,a0
.LVL114:
.LM287:
	j	.L50
.LVL115:
.L54:
.LM288:
.LM289:
	lhu	a0,0(s1)
	mv	a4,s4
	mv	a3,s3
	mv	a2,s2
	addi	a1,sp,8
	call	mbedtls_psa_rsa_export_key
.LVL116:
	mv	s1,a0
.LVL117:
.LM290:
	addi	a0,sp,8
	call	mbedtls_rsa_free
.LVL118:
.LM291:
.LM292:
	j	.L50
	.cfi_endproc
.LFE82:
	.size	mbedtls_psa_rsa_generate_key, .-mbedtls_psa_rsa_generate_key
	.section	.text.mbedtls_psa_rsa_sign_hash,"ax",@progbits
	.align	1
	.globl	mbedtls_psa_rsa_sign_hash
	.type	mbedtls_psa_rsa_sign_hash, @function
mbedtls_psa_rsa_sign_hash:
.LVL119:
.LFB84:
.LM293:
	.cfi_startproc
.LM294:
.LM295:
.LM296:
	addi	sp,sp,-48
	.cfi_def_cfa_offset 48
	sw	s0,40(sp)
	sw	s1,36(sp)
	sw	s2,32(sp)
	sw	s3,28(sp)
	sw	s4,24(sp)
	sw	s5,20(sp)
	sw	s6,16(sp)
	sw	ra,44(sp)
	.cfi_offset 8, -8
	.cfi_offset 9, -12
	.cfi_offset 18, -16
	.cfi_offset 19, -20
	.cfi_offset 20, -24
	.cfi_offset 21, -28
	.cfi_offset 22, -32
	.cfi_offset 1, -4
.LM297:
	lhu	a0,0(a0)
.LVL120:
.LM298:
	mv	s1,a3
.LM299:
	addi	a3,sp,12
.LVL121:
.LM300:
	mv	s4,a4
	mv	s3,a5
	mv	s5,a6
	mv	s6,a7
.LM301:
	sw	zero,12(sp)
.LM302:
.LVL122:
.LM303:
.LM304:
.LM305:
	call	mbedtls_psa_rsa_load_representation
.LVL123:
.LM306:
	mv	s0,a0
.LVL124:
.LM307:
.LM308:
	lw	s2,12(sp)
.LM309:
	bne	a0,zero,.L61
.LM310:
.LM311:
	addi	a2,sp,11
	mv	a1,s3
	mv	a0,s1
	call	psa_rsa_decode_md_type
.LVL125:
	mv	s0,a0
.LVL126:
.LM312:
.LM313:
	bne	a0,zero,.L61
.LM314:
.LM315:
	mv	a0,s2
	call	mbedtls_rsa_get_len
.LVL127:
.LM316:
	li	s0,-138
.LVL128:
.LM317:
	bgtu	a0,s6,.L61
.LM318:
.LM319:
	li	a5,100663296
.LM320:
	andi	a4,s1,-256
.LM321:
	addi	a5,a5,512
	bne	a4,a5,.L62
.LM322:
.LM323:
	li	a2,0
	li	a1,0
	mv	a0,s2
	call	mbedtls_rsa_set_padding
.LVL129:
	mv	s0,a0
.LVL130:
.LM324:
.LM325:
	bne	a0,zero,.L63
.LM326:
.LM327:
	lbu	a3,11(sp)
	lui	a1,%hi(mbedtls_psa_get_random)
	mv	a6,s5
	mv	a5,s4
	mv	a4,s3
	li	a2,0
	addi	a1,a1,%lo(mbedtls_psa_get_random)
	mv	a0,s2
	call	mbedtls_rsa_pkcs1_sign
.LVL131:
.L70:
.LM328:
	mv	s0,a0
.LVL132:
.LM329:
.LM330:
	bne	a0,zero,.L63
.LM331:
.LM332:
	mv	a0,s2
	call	mbedtls_rsa_get_len
.LVL133:
.LM333:
	lw	a5,48(sp)
	sw	a0,0(a5)
.L63:
.LVL134:
.LM334:
.LM335:
	mv	a0,s0
	call	mbedtls_to_psa_error
.LVL135:
	mv	s0,a0
.LVL136:
.L61:
.LM336:
	mv	a0,s2
	call	mbedtls_rsa_free
.LVL137:
.LM337:
	mv	a0,s2
	call	free
.LVL138:
.LM338:
.LM339:
	lw	ra,44(sp)
	.cfi_remember_state
	.cfi_restore 1
	mv	a0,s0
	lw	s0,40(sp)
	.cfi_restore 8
.LVL139:
.LM340:
	lw	s1,36(sp)
	.cfi_restore 9
	lw	s2,32(sp)
	.cfi_restore 18
	lw	s3,28(sp)
	.cfi_restore 19
.LVL140:
.LM341:
	lw	s4,24(sp)
	.cfi_restore 20
.LVL141:
.LM342:
	lw	s5,20(sp)
	.cfi_restore 21
.LVL142:
.LM343:
	lw	s6,16(sp)
	.cfi_restore 22
.LVL143:
.LM344:
	addi	sp,sp,48
	.cfi_def_cfa_offset 0
.LVL144:
.LM345:
	jr	ra
.LVL145:
.L62:
	.cfi_restore_state
.LM346:
.LM347:
	li	a5,-4096
	addi	a5,a5,-256
	and	s1,s1,a5
.LVL146:
.LM348:
	li	a5,100663296
	addi	a5,a5,768
.LM349:
	li	s0,-135
.LM350:
	bne	s1,a5,.L61
.LM351:
.LM352:
	lbu	a2,11(sp)
	li	a1,1
	mv	a0,s2
	call	mbedtls_rsa_set_padding
.LVL147:
	mv	s0,a0
.LVL148:
.LM353:
.LM354:
	bne	a0,zero,.L63
.LM355:
.LM356:
	lui	a1,%hi(mbedtls_psa_get_random)
	mv	a6,s5
	mv	a5,s4
	mv	a4,s3
	li	a3,0
	li	a2,0
	addi	a1,a1,%lo(mbedtls_psa_get_random)
	mv	a0,s2
	call	mbedtls_rsa_rsassa_pss_sign
.LVL149:
	j	.L70
	.cfi_endproc
.LFE84:
	.size	mbedtls_psa_rsa_sign_hash, .-mbedtls_psa_rsa_sign_hash
	.section	.text.mbedtls_psa_rsa_verify_hash,"ax",@progbits
	.align	1
	.globl	mbedtls_psa_rsa_verify_hash
	.type	mbedtls_psa_rsa_verify_hash, @function
mbedtls_psa_rsa_verify_hash:
.LVL150:
.LFB86:
.LM357:
	.cfi_startproc
.LM358:
.LM359:
.LM360:
	addi	sp,sp,-64
	.cfi_def_cfa_offset 64
	sw	s0,56(sp)
	sw	s1,52(sp)
	sw	s2,48(sp)
	sw	s3,44(sp)
	sw	s4,40(sp)
	sw	s5,36(sp)
	sw	s6,32(sp)
	sw	ra,60(sp)
	.cfi_offset 8, -8
	.cfi_offset 9, -12
	.cfi_offset 18, -16
	.cfi_offset 19, -20
	.cfi_offset 20, -24
	.cfi_offset 21, -28
	.cfi_offset 22, -32
	.cfi_offset 1, -4
.LM361:
	lhu	a0,0(a0)
.LVL151:
.LM362:
	mv	s2,a3
.LM363:
	addi	a3,sp,28
.LVL152:
.LM364:
	mv	s5,a4
	mv	s1,a5
	mv	s6,a6
	mv	s3,a7
.LM365:
	sw	zero,28(sp)
.LM366:
.LVL153:
.LM367:
.LM368:
.LM369:
	call	mbedtls_psa_rsa_load_representation
.LVL154:
.LM370:
	mv	s0,a0
.LVL155:
.LM371:
.LM372:
	lw	s4,28(sp)
.LM373:
	bne	a0,zero,.L72
.LM374:
.LM375:
	addi	a2,sp,27
	mv	a1,s1
	mv	a0,s2
	call	psa_rsa_decode_md_type
.LVL156:
	mv	s0,a0
.LVL157:
.LM376:
.LM377:
	bne	a0,zero,.L72
.LM378:
.LM379:
	mv	a0,s4
	call	mbedtls_rsa_get_len
.LVL158:
.LM380:
	beq	a0,s3,.L73
.LVL159:
.L78:
.LM381:
	li	s0,-149
.LVL160:
.L72:
.LM382:
	mv	a0,s4
	call	mbedtls_rsa_free
.LVL161:
.LM383:
	mv	a0,s4
	call	free
.LVL162:
.LM384:
.LM385:
	lw	ra,60(sp)
	.cfi_remember_state
	.cfi_restore 1
	mv	a0,s0
	lw	s0,56(sp)
	.cfi_restore 8
.LVL163:
.LM386:
	lw	s1,52(sp)
	.cfi_restore 9
.LVL164:
.LM387:
	lw	s2,48(sp)
	.cfi_restore 18
	lw	s3,44(sp)
	.cfi_restore 19
	lw	s4,40(sp)
	.cfi_restore 20
	lw	s5,36(sp)
	.cfi_restore 21
.LVL165:
.LM388:
	lw	s6,32(sp)
	.cfi_restore 22
.LVL166:
.LM389:
	addi	sp,sp,64
	.cfi_def_cfa_offset 0
	jr	ra
.LVL167:
.L73:
	.cfi_restore_state
.LM390:
.LM391:
	li	a5,100663296
.LM392:
	andi	s3,s2,-256
.LVL168:
.LM393:
	addi	a5,a5,512
	bne	s3,a5,.L74
.LM394:
.LM395:
	li	a2,0
	li	a1,0
	mv	a0,s4
	call	mbedtls_rsa_set_padding
.LVL169:
	mv	a5,a0
.LVL170:
.LM396:
.LM397:
	bne	a0,zero,.L75
.LM398:
.LM399:
	lbu	a1,27(sp)
	mv	a4,s6
	mv	a3,s5
	mv	a2,s1
	mv	a0,s4
.LVL171:
.LM400:
	call	mbedtls_rsa_pkcs1_verify
.LVL172:
.L82:
.LBB37:
.LM401:
	mv	a5,a0
.L75:
.LVL173:
.LM402:
.LBE37:
.LM403:
.LM404:
	li	a4,-16384
	addi	a4,a4,-256
	beq	a5,a4,.L78
.LM405:
	mv	a0,a5
	call	mbedtls_to_psa_error
.LVL174:
.LM406:
	mv	s0,a0
	j	.L72
.LVL175:
.L74:
.LM407:
.LM408:
	li	a5,-4096
	addi	a5,a5,-256
	and	s2,s2,a5
.LVL176:
.LM409:
	li	a5,100663296
	addi	a5,a5,768
.LM410:
	li	s0,-135
.LVL177:
.LM411:
	bne	s2,a5,.L72
.LM412:
.LM413:
	lbu	s0,27(sp)
	li	a1,1
	mv	a0,s4
	mv	a2,s0
	call	mbedtls_rsa_set_padding
.LVL178:
	mv	a5,a0
.LVL179:
.LM414:
.LM415:
	bne	a0,zero,.L75
.LBB42:
.LM416:
.LVL180:
.LBB38:
.LBI38:
.LM417:
.LBB39:
.LM418:
.LM419:
	li	a4,100667392
	addi	a4,a4,768
	beq	s3,a4,.L80
.LM420:
.LM421:
	mv	a0,s4
.LVL181:
.LM422:
	sw	a5,12(sp)
	call	mbedtls_rsa_get_len
.LVL182:
.LM423:
.LM424:
.LM425:
	addi	a0,a0,-2
.LVL183:
.LM426:
	sub	a0,a0,s1
.LVL184:
.LM427:
.LM428:
	lw	a5,12(sp)
	blt	a0,zero,.L76
.LM429:
.LM430:
	mv	a5,s1
	ble	s1,a0,.L76
.LM431:
	mv	a5,a0
.LVL185:
.L76:
.LM432:
.LBE39:
.LBE38:
.LM433:
.LM434:
	mv	a6,s6
	mv	a4,s0
	mv	a3,s5
	mv	a2,s1
	mv	a1,s0
	mv	a0,s4
	call	mbedtls_rsa_rsassa_pss_verify_ext
.LVL186:
.LM435:
	j	.L82
.LVL187:
.L80:
.LBB41:
.LBB40:
.LM436:
	li	a5,-1
	j	.L76
.LBE40:
.LBE41:
.LBE42:
	.cfi_endproc
.LFE86:
	.size	mbedtls_psa_rsa_verify_hash, .-mbedtls_psa_rsa_verify_hash
	.section	.text.mbedtls_psa_asymmetric_encrypt,"ax",@progbits
	.align	1
	.globl	mbedtls_psa_asymmetric_encrypt
	.type	mbedtls_psa_asymmetric_encrypt, @function
mbedtls_psa_asymmetric_encrypt:
.LVL188:
.LFB88:
.LM437:
	.cfi_startproc
.LM438:
.LM439:
.LM440:
.LM441:
.LM442:
.LM443:
.LM444:
.LM445:
.LM446:
.LM447:
.LM448:
.LM449:
	addi	sp,sp,-48
	.cfi_def_cfa_offset 48
	sw	s0,40(sp)
	sw	ra,44(sp)
	sw	s1,36(sp)
	sw	s2,32(sp)
	sw	s3,28(sp)
	sw	s4,24(sp)
	sw	s5,20(sp)
	sw	s6,16(sp)
	.cfi_offset 8, -8
	.cfi_offset 1, -4
	.cfi_offset 9, -12
	.cfi_offset 18, -16
	.cfi_offset 19, -20
	.cfi_offset 20, -24
	.cfi_offset 21, -28
	.cfi_offset 22, -32
.LM450:
	lhu	a0,0(a0)
.LVL189:
.LM451:
	li	t1,-12288
	addi	t1,t1,-1
.LM452:
	li	t3,16384
.LM453:
	and	t1,a0,t1
.LM454:
	addi	t3,t3,1
.LM455:
	li	s0,-134
.LM456:
	bne	t1,t3,.L83
	mv	s1,a3
.LBB43:
.LM457:
.LM458:
	addi	a3,sp,12
.LVL190:
.LM459:
	mv	s6,a7
	mv	s5,a6
	mv	s4,a5
	mv	s3,a4
.LM460:
	sw	zero,12(sp)
.LM461:
.LM462:
	call	mbedtls_psa_rsa_load_representation
.LVL191:
.LM463:
	mv	s0,a0
.LVL192:
.LM464:
.LM465:
	lw	s2,12(sp)
.LM466:
	bne	a0,zero,.L85
.LM467:
.LM468:
	mv	a0,s2
	call	mbedtls_rsa_get_len
.LVL193:
.LM469:
	lw	a5,52(sp)
.LM470:
	li	s0,-138
.LVL194:
.LM471:
	bgtu	a0,a5,.L85
.LM472:
.LM473:
	li	a5,117440512
	addi	a5,a5,512
	bne	s1,a5,.L86
.LM474:
.LM475:
	lw	a5,48(sp)
	lui	a1,%hi(mbedtls_psa_get_random)
	mv	a4,s3
	mv	a3,s4
	li	a2,0
	addi	a1,a1,%lo(mbedtls_psa_get_random)
	mv	a0,s2
	call	mbedtls_rsa_pkcs1_encrypt
.LVL195:
.L94:
.L87:
.LM476:
	call	mbedtls_to_psa_error
.LVL196:
.LM477:
.LM478:
	mv	s0,a0
.LM479:
	bne	a0,zero,.L85
.LM480:
.LM481:
	mv	a0,s2
.LVL197:
.LM482:
	call	mbedtls_rsa_get_len
.LVL198:
.LM483:
	lw	a5,56(sp)
	sw	a0,0(a5)
.LVL199:
.L85:
.LM484:
	mv	a0,s2
	call	mbedtls_rsa_free
.LVL200:
.LM485:
	mv	a0,s2
	call	free
.LVL201:
.L83:
.LM486:
.LBE43:
.LM487:
	lw	ra,44(sp)
	.cfi_remember_state
	.cfi_restore 1
	mv	a0,s0
	lw	s0,40(sp)
	.cfi_restore 8
	lw	s1,36(sp)
	.cfi_restore 9
	lw	s2,32(sp)
	.cfi_restore 18
	lw	s3,28(sp)
	.cfi_restore 19
	lw	s4,24(sp)
	.cfi_restore 20
	lw	s5,20(sp)
	.cfi_restore 21
	lw	s6,16(sp)
	.cfi_restore 22
	addi	sp,sp,48
	.cfi_def_cfa_offset 0
.LVL202:
.LM488:
	jr	ra
.LVL203:
.L86:
	.cfi_restore_state
.LBB44:
.LM489:
.LM490:
	li	a5,117440512
.LM491:
	andi	a4,s1,-256
.LM492:
	addi	a5,a5,768
.LM493:
	li	s0,-135
.LM494:
	bne	a4,a5,.L85
.LM495:
.LM496:
	mv	a1,s2
	mv	a0,s1
	call	psa_rsa_oaep_set_padding_mode
.LVL204:
.LM497:
	call	mbedtls_to_psa_error
.LVL205:
	mv	s0,a0
.LVL206:
.LM498:
.LM499:
	bne	a0,zero,.L85
.LM500:
.LM501:
	lw	a7,48(sp)
	lui	a1,%hi(mbedtls_psa_get_random)
	mv	a6,s3
	mv	a5,s4
	mv	a4,s6
	mv	a3,s5
	li	a2,0
	addi	a1,a1,%lo(mbedtls_psa_get_random)
	mv	a0,s2
	call	mbedtls_rsa_rsaes_oaep_encrypt
.LVL207:
	j	.L94
.LBE44:
	.cfi_endproc
.LFE88:
	.size	mbedtls_psa_asymmetric_encrypt, .-mbedtls_psa_asymmetric_encrypt
	.section	.text.mbedtls_psa_asymmetric_decrypt,"ax",@progbits
	.align	1
	.globl	mbedtls_psa_asymmetric_decrypt
	.type	mbedtls_psa_asymmetric_decrypt, @function
mbedtls_psa_asymmetric_decrypt:
.LVL208:
.LFB89:
.LM502:
	.cfi_startproc
.LM503:
.LM504:
.LM505:
.LM506:
.LM507:
.LM508:
.LM509:
.LM510:
.LM511:
.LM512:
.LM513:
.LM514:
	addi	sp,sp,-64
	.cfi_def_cfa_offset 64
	sw	s0,56(sp)
	.cfi_offset 8, -8
.LM515:
	lw	s0,72(sp)
.LM516:
	sw	ra,60(sp)
	sw	s1,52(sp)
	sw	s2,48(sp)
	sw	s3,44(sp)
	sw	s4,40(sp)
	sw	s5,36(sp)
	sw	s6,32(sp)
	.cfi_offset 1, -4
	.cfi_offset 9, -12
	.cfi_offset 18, -16
	.cfi_offset 19, -20
	.cfi_offset 20, -24
	.cfi_offset 21, -28
	.cfi_offset 22, -32
.LM517:
	sw	zero,0(s0)
.LM518:
.LM519:
	lhu	a0,0(a0)
.LVL209:
.LM520:
	li	t1,28672
	addi	t1,t1,1
.LM521:
	li	s0,-134
.LM522:
	bne	a0,t1,.L95
	mv	s1,a3
.LBB45:
.LM523:
.LM524:
	addi	a3,sp,28
.LVL210:
.LM525:
	mv	s6,a7
	mv	s5,a6
	mv	s2,a5
	mv	s4,a4
.LM526:
	sw	zero,28(sp)
.LM527:
.LM528:
	call	mbedtls_psa_rsa_load_representation
.LVL211:
.LM529:
	mv	s0,a0
.LVL212:
.LM530:
.LM531:
	lw	s3,28(sp)
.LM532:
	bne	a0,zero,.L97
.LM533:
.LM534:
	mv	a0,s3
	call	mbedtls_rsa_get_len
.LVL213:
.LM535:
	li	s0,-135
.LVL214:
.LM536:
	bne	a0,s2,.L97
.LM537:
.LM538:
	li	a5,117440512
	addi	a5,a5,512
	bne	s1,a5,.L98
.LM539:
.LM540:
	lw	a6,68(sp)
	lw	a5,64(sp)
	lw	a3,72(sp)
	lui	a1,%hi(mbedtls_psa_get_random)
	mv	a4,s4
	li	a2,0
	addi	a1,a1,%lo(mbedtls_psa_get_random)
	mv	a0,s3
	call	mbedtls_rsa_pkcs1_decrypt
.LVL215:
.L103:
.LM541:
	call	mbedtls_to_psa_error
.LVL216:
	mv	s0,a0
.L97:
.LVL217:
.LM542:
	mv	a0,s3
	call	mbedtls_rsa_free
.LVL218:
.LM543:
	mv	a0,s3
	call	free
.LVL219:
.L95:
.LM544:
.LBE45:
.LM545:
	lw	ra,60(sp)
	.cfi_remember_state
	.cfi_restore 1
	mv	a0,s0
	lw	s0,56(sp)
	.cfi_restore 8
	lw	s1,52(sp)
	.cfi_restore 9
	lw	s2,48(sp)
	.cfi_restore 18
	lw	s3,44(sp)
	.cfi_restore 19
	lw	s4,40(sp)
	.cfi_restore 20
	lw	s5,36(sp)
	.cfi_restore 21
	lw	s6,32(sp)
	.cfi_restore 22
	addi	sp,sp,64
	.cfi_def_cfa_offset 0
.LVL220:
.LM546:
	jr	ra
.LVL221:
.L98:
	.cfi_restore_state
.LBB46:
.LM547:
.LM548:
	li	a5,117440512
.LM549:
	andi	a4,s1,-256
.LM550:
	addi	a5,a5,768
	bne	a4,a5,.L97
.LM551:
.LM552:
	mv	a1,s3
	mv	a0,s1
	call	psa_rsa_oaep_set_padding_mode
.LVL222:
.LM553:
	call	mbedtls_to_psa_error
.LVL223:
	mv	s0,a0
.LVL224:
.LM554:
.LM555:
	bne	a0,zero,.L97
.LM556:
.LM557:
	lw	a5,68(sp)
	lw	a7,64(sp)
	lui	a1,%hi(mbedtls_psa_get_random)
	sw	a5,0(sp)
	lw	a5,72(sp)
	mv	a6,s4
	mv	a4,s6
	mv	a3,s5
	li	a2,0
	addi	a1,a1,%lo(mbedtls_psa_get_random)
	mv	a0,s3
	call	mbedtls_rsa_rsaes_oaep_decrypt
.LVL225:
	j	.L103
.LBE46:
	.cfi_endproc
.LFE89:
	.size	mbedtls_psa_asymmetric_decrypt, .-mbedtls_psa_asymmetric_decrypt
	.text
.Letext0:
	.section	.note.GNU-stack,"",@progbits
