	.file	"psa_crypto_ffdh.c"
	.option nopic
	.attribute arch, "rv32i2p1_m2p0_f2p2_c2p0_zicsr2p0_zmmul1p0_zca1p0_zcf1p0"
	.attribute unaligned_access, 0
	.attribute stack_align, 16
	.text
.Ltext0:
	.cfi_sections	.debug_frame
	.section	.text.mbedtls_psa_ffdh_set_prime_generator,"ax",@progbits
	.align	1
	.type	mbedtls_psa_ffdh_set_prime_generator, @function
mbedtls_psa_ffdh_set_prime_generator:
.LVL0:
.LFB76:
.LM1:
	.cfi_startproc
.LM2:
.LM3:
.LM4:
.LM5:
.LM6:
.LM7:
.LM8:
.LM9:
.LM10:
.LM11:
.LM12:
.LM13:
.LM14:
.LM15:
.LM16:
.LM17:
.LM18:
.LM19:
	addi	sp,sp,-16
	.cfi_def_cfa_offset 16
	sw	ra,12(sp)
	sw	s0,8(sp)
	sw	s1,4(sp)
	sw	s2,0(sp)
	.cfi_offset 1, -4
	.cfi_offset 8, -8
	.cfi_offset 9, -12
	.cfi_offset 18, -16
.LM20:
	li	a5,512
.LM21:
	mv	a4,a0
.LM22:
	beq	a0,a5,.L8
	bgtu	a0,a5,.L3
	li	a5,256
	beq	a0,a5,.L9
	li	a5,384
	beq	a0,a5,.L10
.L12:
	li	s1,-135
.LVL1:
.L1:
.LM23:
	lw	ra,12(sp)
	.cfi_remember_state
	.cfi_restore 1
	lw	s0,8(sp)
	.cfi_restore 8
	lw	s2,0(sp)
	.cfi_restore 18
	mv	a0,s1
	lw	s1,4(sp)
	.cfi_restore 9
	addi	sp,sp,16
	.cfi_def_cfa_offset 0
	jr	ra
.LVL2:
.L3:
	.cfi_restore_state
.LM24:
	li	a5,768
	beq	a0,a5,.L11
	li	a5,1024
	bne	a0,a5,.L12
.LM25:
	lui	s0,%hi(dhm_G_8192.0)
.LM26:
	lui	a5,%hi(dhm_P_8192.1)
.LM27:
	addi	s0,s0,%lo(dhm_G_8192.0)
.LM28:
	addi	a5,a5,%lo(dhm_P_8192.1)
.L2:
	mv	a0,a1
.LVL3:
.LM29:
	mv	s2,a2
.LM30:
	mv	a1,a5
.LVL4:
.LM31:
	mv	a2,a4
.LVL5:
.LM32:
.LM33:
.LM34:
.LM35:
	call	mbedtls_mpi_read_binary
.LVL6:
.LM36:
	mv	s1,a0
.LVL7:
.LM37:
	bne	a0,zero,.L5
.LVL8:
.LM38:
.LM39:
.LM40:
	beq	s2,zero,.L1
.LM41:
.LM42:
.LM43:
	li	a2,1
	mv	a1,s0
	mv	a0,s2
	call	mbedtls_mpi_read_binary
.LVL9:
.LM44:
	beq	a0,zero,.L1
.L5:
.LVL10:
.LM45:
.LM46:
	lw	s0,8(sp)
	.cfi_remember_state
	.cfi_restore 8
.LVL11:
.LM47:
	lw	ra,12(sp)
	.cfi_restore 1
	lw	s1,4(sp)
	.cfi_restore 9
	lw	s2,0(sp)
	.cfi_restore 18
.LVL12:
.LM48:
	addi	sp,sp,16
	.cfi_def_cfa_offset 0
.LM49:
	tail	mbedtls_to_psa_error
.LVL13:
.L8:
	.cfi_restore_state
.LM50:
	lui	s0,%hi(dhm_G_4096.4)
.LM51:
	lui	a5,%hi(dhm_P_4096.5)
.LM52:
	addi	s0,s0,%lo(dhm_G_4096.4)
.LM53:
	addi	a5,a5,%lo(dhm_P_4096.5)
	j	.L2
.L9:
.LM54:
	lui	s0,%hi(dhm_G_2048.8)
.LM55:
	lui	a5,%hi(dhm_P_2048.9)
.LM56:
	addi	s0,s0,%lo(dhm_G_2048.8)
.LM57:
	addi	a5,a5,%lo(dhm_P_2048.9)
	j	.L2
.L10:
.LM58:
	lui	s0,%hi(dhm_G_3072.6)
	lui	a5,%hi(dhm_P_3072.7)
	addi	s0,s0,%lo(dhm_G_3072.6)
	addi	a5,a5,%lo(dhm_P_3072.7)
	j	.L2
.L11:
.LM59:
	lui	s0,%hi(dhm_G_6144.2)
.LM60:
	lui	a5,%hi(dhm_P_6144.3)
.LM61:
	addi	s0,s0,%lo(dhm_G_6144.2)
.LM62:
	addi	a5,a5,%lo(dhm_P_6144.3)
	j	.L2
	.cfi_endproc
.LFE76:
	.size	mbedtls_psa_ffdh_set_prime_generator, .-mbedtls_psa_ffdh_set_prime_generator
	.section	.text.mbedtls_psa_ffdh_export_public_key,"ax",@progbits
	.align	1
	.globl	mbedtls_psa_ffdh_export_public_key
	.type	mbedtls_psa_ffdh_export_public_key, @function
mbedtls_psa_ffdh_export_public_key:
.LVL14:
.LFB77:
.LM63:
	.cfi_startproc
.LM64:
.LM65:
.LM66:
.LM67:
.LM68:
.LM69:
	addi	sp,sp,-80
	.cfi_def_cfa_offset 80
	sw	s0,72(sp)
.LVL15:
.LM70:
	sw	s3,60(sp)
	sw	s4,56(sp)
	sw	s5,52(sp)
	sw	ra,76(sp)
	sw	s1,68(sp)
	sw	s2,64(sp)
	sw	s6,48(sp)
	.cfi_offset 8, -8
	.cfi_offset 19, -20
	.cfi_offset 20, -24
	.cfi_offset 21, -28
	.cfi_offset 1, -4
	.cfi_offset 9, -12
	.cfi_offset 18, -16
	.cfi_offset 22, -32
.LM71:
	mv	s4,a5
.LM72:
	lhu	a5,0(a0)
.LVL16:
.LM73:
	mv	s5,a3
	mv	s0,a0
.LM74:
	srai	a3,a5,12
.LVL17:
.LM75:
	andi	a3,a3,7
	li	a0,4
.LVL18:
.LM76:
	mv	s3,a2
.LM77:
	bne	a3,a0,.L19
.LM78:
.LM79:
	li	s1,-138
.LM80:
	bgtu	a2,a4,.L18
.LM81:
	mv	a0,s5
	sw	a4,12(sp)
	call	memcpy
.LVL19:
.LM82:
	lw	a4,12(sp)
	li	a1,0
	add	a0,s5,s3
	sub	a2,a4,s3
	call	memset
.LVL20:
.LM83:
.LM84:
	sw	s3,0(s4)
.LM85:
.LVL21:
.L21:
.LM86:
	li	s1,0
.L18:
.LM87:
	lw	ra,76(sp)
	.cfi_remember_state
	.cfi_restore 1
	lw	s0,72(sp)
	.cfi_restore 8
	lw	s2,64(sp)
	.cfi_restore 18
	lw	s3,60(sp)
	.cfi_restore 19
.LVL22:
.LM88:
	lw	s4,56(sp)
	.cfi_restore 20
.LVL23:
.LM89:
	lw	s5,52(sp)
	.cfi_restore 21
.LVL24:
.LM90:
	lw	s6,48(sp)
	.cfi_restore 22
	mv	a0,s1
	lw	s1,68(sp)
	.cfi_restore 9
	addi	sp,sp,80
	.cfi_def_cfa_offset 0
	jr	ra
.LVL25:
.L19:
	.cfi_restore_state
.LM91:
	addi	a0,sp,16
	mv	s6,a1
.LM92:
	call	mbedtls_mpi_init
.LVL26:
.LM93:
	addi	a0,sp,24
	call	mbedtls_mpi_init
.LVL27:
.LM94:
	addi	a0,sp,32
	call	mbedtls_mpi_init
.LVL28:
.LM95:
	addi	a0,sp,40
	call	mbedtls_mpi_init
.LVL29:
.LM96:
.LM97:
	lhu	s2,2(s0)
.LM98:
	addi	a2,sp,24
	addi	a1,sp,40
.LM99:
	addi	s2,s2,7
.LM100:
	srli	s2,s2,3
.LVL30:
.LM101:
.LM102:
	mv	a0,s2
	call	mbedtls_psa_ffdh_set_prime_generator
.LVL31:
	mv	s1,a0
.LVL32:
.LM103:
.LM104:
	li	s0,-110
.LVL33:
.LM105:
	bne	a0,zero,.L22
.LM106:
.LM107:
.LM108:
	mv	a2,s3
	mv	a1,s6
	addi	a0,sp,32
	call	mbedtls_mpi_read_binary
.LVL34:
	mv	s0,a0
.LVL35:
.LM109:
	bne	a0,zero,.L22
.LM110:
.LM111:
.LM112:
.LM113:
	li	a4,0
	addi	a3,sp,40
	addi	a2,sp,32
	addi	a1,sp,24
	addi	a0,sp,16
	call	mbedtls_mpi_exp_mod
.LVL36:
	mv	s0,a0
.LVL37:
.LM114:
	bne	a0,zero,.L22
.LM115:
.LM116:
.LM117:
.LM118:
	mv	a2,s2
	mv	a1,s5
	addi	a0,sp,16
	call	mbedtls_mpi_write_binary
.LVL38:
	mv	s0,a0
.LVL39:
.LM119:
	bne	a0,zero,.L22
.LM120:
.LM121:
.LM122:
	sw	s2,0(s4)
.LM123:
.LVL40:
.L22:
.LM124:
	addi	a0,sp,40
	call	mbedtls_mpi_free
.LVL41:
.LM125:
	addi	a0,sp,24
	call	mbedtls_mpi_free
.LVL42:
.LM126:
	addi	a0,sp,32
	call	mbedtls_mpi_free
.LVL43:
.LM127:
	addi	a0,sp,16
	call	mbedtls_mpi_free
.LVL44:
.LM128:
.LM129:
	bne	s1,zero,.L18
.LM130:
	beq	s0,zero,.L21
.LM131:
.LM132:
	mv	a0,s0
	call	mbedtls_to_psa_error
.LVL45:
	mv	s1,a0
.LVL46:
.LM133:
	j	.L18
	.cfi_endproc
.LFE77:
	.size	mbedtls_psa_ffdh_export_public_key, .-mbedtls_psa_ffdh_export_public_key
	.section	.text.mbedtls_psa_ffdh_generate_key,"ax",@progbits
	.align	1
	.globl	mbedtls_psa_ffdh_generate_key
	.type	mbedtls_psa_ffdh_generate_key, @function
mbedtls_psa_ffdh_generate_key:
.LVL47:
.LFB78:
.LM134:
	.cfi_startproc
.LM135:
.LM136:
.LM137:
.LM138:
.LM139:
	addi	sp,sp,-48
	.cfi_def_cfa_offset 48
.LM140:
	addi	a0,sp,8
.LVL48:
.LM141:
	sw	ra,44(sp)
	sw	s0,40(sp)
	sw	s1,36(sp)
	sw	s2,32(sp)
	sw	s3,28(sp)
	.cfi_offset 1, -4
	.cfi_offset 8, -8
	.cfi_offset 9, -12
	.cfi_offset 18, -16
	.cfi_offset 19, -20
	mv	s2,a2
	mv	s3,a1
	sw	s4,24(sp)
	.cfi_offset 20, -24
.LM142:
	mv	s4,a3
.LM143:
	call	mbedtls_mpi_init
.LVL49:
.LM144:
	mv	a0,sp
	call	mbedtls_mpi_init
.LVL50:
.LM145:
.LM146:
.LM147:
	li	a2,0
	addi	a1,sp,8
	mv	a0,s2
	call	mbedtls_psa_ffdh_set_prime_generator
.LVL51:
	mv	s1,a0
.LVL52:
.LM148:
.LM149:
	li	s0,-110
.LM150:
	bne	a0,zero,.L30
.LM151:
.LM152:
.LM153:
	lui	a3,%hi(mbedtls_psa_get_random)
	li	a4,0
	addi	a3,a3,%lo(mbedtls_psa_get_random)
	addi	a2,sp,8
	li	a1,3
	mv	a0,sp
	call	mbedtls_mpi_random
.LVL53:
	mv	s0,a0
.LVL54:
.LM154:
	bne	a0,zero,.L30
.LM155:
.LM156:
.LM157:
.LM158:
	li	a2,1
	mv	a1,sp
	mv	a0,sp
	call	mbedtls_mpi_sub_int
.LVL55:
	mv	s0,a0
.LVL56:
.LM159:
	bne	a0,zero,.L30
.LM160:
.LM161:
.LM162:
.LM163:
	mv	a2,s2
	mv	a1,s3
	mv	a0,sp
	call	mbedtls_mpi_write_binary
.LVL57:
	mv	s0,a0
.LVL58:
.LM164:
	bne	a0,zero,.L30
.LM165:
.LM166:
.LM167:
	sw	s2,0(s4)
.LVL59:
.L30:
.LM168:
	addi	a0,sp,8
	call	mbedtls_mpi_free
.LVL60:
.LM169:
	mv	a0,sp
	call	mbedtls_mpi_free
.LVL61:
.LM170:
.LM171:
	bne	s1,zero,.L35
.LM172:
	beq	s0,zero,.L29
.LM173:
.LM174:
	mv	a0,s0
	call	mbedtls_to_psa_error
.LVL62:
	mv	s0,a0
.LVL63:
.L29:
.LM175:
	lw	ra,44(sp)
	.cfi_remember_state
	.cfi_restore 1
	mv	a0,s0
	lw	s0,40(sp)
	.cfi_restore 8
	lw	s1,36(sp)
	.cfi_restore 9
.LVL64:
.LM176:
	lw	s2,32(sp)
	.cfi_restore 18
.LVL65:
.LM177:
	lw	s3,28(sp)
	.cfi_restore 19
.LVL66:
.LM178:
	lw	s4,24(sp)
	.cfi_restore 20
.LVL67:
.LM179:
	addi	sp,sp,48
	.cfi_def_cfa_offset 0
	jr	ra
.LVL68:
.L35:
	.cfi_restore_state
.LM180:
	mv	s0,s1
.LVL69:
.LM181:
	j	.L29
	.cfi_endproc
.LFE78:
	.size	mbedtls_psa_ffdh_generate_key, .-mbedtls_psa_ffdh_generate_key
	.section	.text.mbedtls_psa_ffdh_import_key,"ax",@progbits
	.align	1
	.globl	mbedtls_psa_ffdh_import_key
	.type	mbedtls_psa_ffdh_import_key, @function
mbedtls_psa_ffdh_import_key:
.LVL70:
.LFB79:
.LM182:
	.cfi_startproc
.LM183:
.LM184:
.LM185:
	bltu	a4,a2,.L43
.LM186:
	addi	sp,sp,-32
	.cfi_def_cfa_offset 32
	mv	a0,a3
.LVL71:
.LM187:
	sw	ra,28(sp)
	.cfi_offset 1, -4
	sw	a6,12(sp)
	sw	a5,8(sp)
	sw	a2,4(sp)
.LM188:
	call	memcpy
.LVL72:
.LM189:
.LM190:
	lw	a7,4(sp)
	lw	a5,8(sp)
.LM191:
	lw	a6,12(sp)
.LM192:
	li	a0,0
.LM193:
	sw	a7,0(a5)
.LM194:
.LM195:
	slli	a7,a7,3
.LM196:
	sw	a7,0(a6)
.LM197:
.LM198:
	lw	ra,28(sp)
	.cfi_restore 1
	addi	sp,sp,32
	.cfi_def_cfa_offset 0
.LVL73:
.LM199:
	jr	ra
.LVL74:
.L43:
.LM200:
	li	a0,-138
.LVL75:
.LM201:
	ret
	.cfi_endproc
.LFE79:
	.size	mbedtls_psa_ffdh_import_key, .-mbedtls_psa_ffdh_import_key
	.section	.text.mbedtls_psa_ffdh_key_agreement,"ax",@progbits
	.align	1
	.globl	mbedtls_psa_ffdh_key_agreement
	.type	mbedtls_psa_ffdh_key_agreement, @function
mbedtls_psa_ffdh_key_agreement:
.LVL76:
.LFB80:
.LM202:
	.cfi_startproc
.LM203:
.LM204:
.LM205:
.LM206:
.LM207:
.LM208:
	addi	sp,sp,-96
	.cfi_def_cfa_offset 96
	sw	ra,92(sp)
	sw	s0,88(sp)
	sw	s1,84(sp)
	sw	s2,80(sp)
	sw	s3,76(sp)
	sw	s4,72(sp)
	sw	s5,68(sp)
	sw	s6,64(sp)
	sw	s7,60(sp)
	.cfi_offset 1, -4
	.cfi_offset 8, -8
	.cfi_offset 9, -12
	.cfi_offset 18, -16
	.cfi_offset 19, -20
	.cfi_offset 20, -24
	.cfi_offset 21, -28
	.cfi_offset 22, -32
	.cfi_offset 23, -36
.LM209:
	bgtu	a2,a6,.L53
	bne	a2,a4,.L53
.LM210:
.LVL77:
.LBB4:
.LBI4:
.LM211:
.LBB5:
.LM212:
.LM213:
.LBE5:
.LBE4:
.LM214:
	lhu	a6,0(a0)
.LVL78:
.LM215:
	li	t3,114
.LM216:
	li	s0,-135
.LM217:
	srai	t1,a6,8
	andi	t1,t1,255
	bne	t1,t3,.L48
	mv	s0,a0
.LM218:
	addi	a0,sp,8
.LVL79:
.LM219:
	mv	s3,a7
	mv	s7,a5
	mv	s6,a4
	mv	s5,a3
	mv	s1,a2
	mv	s4,a1
	call	mbedtls_mpi_init
.LVL80:
.LM220:
	addi	a0,sp,16
	call	mbedtls_mpi_init
.LVL81:
.LM221:
	addi	a0,sp,24
	call	mbedtls_mpi_init
.LVL82:
.LM222:
	addi	a0,sp,32
	call	mbedtls_mpi_init
.LVL83:
.LM223:
	addi	a0,sp,40
	call	mbedtls_mpi_init
.LVL84:
.LM224:
.LM225:
	lhu	a0,2(s0)
.LM226:
	addi	a2,sp,16
	addi	a1,sp,8
.LM227:
	addi	a0,a0,7
.LM228:
	srli	a0,a0,3
	call	mbedtls_psa_ffdh_set_prime_generator
.LVL85:
	mv	s2,a0
.LVL86:
.LM229:
.LM230:
	li	s0,-110
.LVL87:
.LM231:
	bne	a0,zero,.L50
.LM232:
.LM233:
.LM234:
	mv	a2,s6
	mv	a1,s5
	addi	a0,sp,24
.LVL88:
.LM235:
	call	mbedtls_mpi_read_binary
.LVL89:
	mv	s0,a0
.LVL90:
.LM236:
	bne	a0,zero,.L50
.LM237:
.LM238:
.LM239:
.LM240:
	mv	a2,s1
	mv	a1,s4
	addi	a0,sp,32
	call	mbedtls_mpi_read_binary
.LVL91:
	mv	s0,a0
.LVL92:
.LM241:
	bne	a0,zero,.L50
.LM242:
.LM243:
.LM244:
.LM245:
	li	a4,0
	addi	a3,sp,8
	addi	a2,sp,24
	addi	a1,sp,32
	addi	a0,sp,40
	call	mbedtls_mpi_exp_mod
.LVL93:
	mv	s0,a0
.LVL94:
.LM246:
	bne	a0,zero,.L50
.LM247:
.LM248:
.LM249:
.LM250:
	mv	a2,s1
	mv	a1,s7
	addi	a0,sp,40
	call	mbedtls_mpi_write_binary
.LVL95:
	mv	s0,a0
.LVL96:
.LM251:
	bne	a0,zero,.L50
.LM252:
.LM253:
.LM254:
	sw	s1,0(s3)
.LM255:
.LVL97:
.L50:
.LM256:
	addi	a0,sp,8
	call	mbedtls_mpi_free
.LVL98:
.LM257:
	addi	a0,sp,16
	call	mbedtls_mpi_free
.LVL99:
.LM258:
	addi	a0,sp,24
	call	mbedtls_mpi_free
.LVL100:
.LM259:
	addi	a0,sp,32
	call	mbedtls_mpi_free
.LVL101:
.LM260:
	addi	a0,sp,40
	call	mbedtls_mpi_free
.LVL102:
.LM261:
.LM262:
	bne	s2,zero,.L56
.LM263:
	beq	s0,zero,.L48
.LM264:
.LM265:
	mv	a0,s0
	call	mbedtls_to_psa_error
.LVL103:
	mv	s0,a0
.LVL104:
.L48:
.LM266:
	lw	ra,92(sp)
	.cfi_remember_state
	.cfi_restore 1
	mv	a0,s0
	lw	s0,88(sp)
	.cfi_restore 8
	lw	s1,84(sp)
	.cfi_restore 9
	lw	s2,80(sp)
	.cfi_restore 18
	lw	s3,76(sp)
	.cfi_restore 19
	lw	s4,72(sp)
	.cfi_restore 20
	lw	s5,68(sp)
	.cfi_restore 21
	lw	s6,64(sp)
	.cfi_restore 22
	lw	s7,60(sp)
	.cfi_restore 23
	addi	sp,sp,96
	.cfi_def_cfa_offset 0
	jr	ra
.LVL105:
.L53:
	.cfi_restore_state
.LM267:
	li	s0,-135
	j	.L48
.LVL106:
.L56:
.LM268:
	mv	s0,s2
.LVL107:
.LM269:
	j	.L48
	.cfi_endproc
.LFE80:
	.size	mbedtls_psa_ffdh_key_agreement, .-mbedtls_psa_ffdh_key_agreement
	.section	.srodata.dhm_G_8192.0,"a"
	.align	2
	.type	dhm_G_8192.0, @object
	.size	dhm_G_8192.0, 1
dhm_G_8192.0:
	.ascii	"\002"
	.section	.rodata.dhm_P_8192.1,"a"
	.align	2
	.type	dhm_P_8192.1, @object
	.size	dhm_P_8192.1, 1024
dhm_P_8192.1:
	.base64	"//////////+t+FRYortKmq/cViAnPTzx2LnFg84tNpWp4TZBFGQz+8yTnc4kmz75fS/jY2MMddj2gbICrsRhetPfHtXV/WVhJDP1H18GbtCFY2VVPe0a87VXE15/V8k1mE8McODmi3fipona8+/och3xWKE2rec1MKzKT0g6eXq8CrGCsyT7YdEIqUuyyOP7uWrat2DX9GgdT0Kj3jlN9K5W7edjcrsZCwenyO4KbXCeAvzhzffi7MA0BM0oNC9hkXL+nOmFg/+OTxIy7vKBg8P+OxtMb61zO7X8vC7CIAXFjvGDfRaDssbzSibBsu/6iGtCOGEfz9zeNVs7ZRkD"
	.base64	"W7w09N75nAI4YbRvydbmyQd62R0mkff37lmMsPrBhtkcrv4TCYUTknC0EwyTvEN5RPT9RFLi103TZPLiHnH1S/9croKrnJ32nuhtK8UiNjoNq8Uhl5sN6todv5pC1cRITgq80Gv6U93vPBsg7j/VnXwl5B0rZp4e8W5vUsMWTfT7eTDp5OWIV7asfV9C1p9tGHdjzx1VA0AEh/VbpX4xzHpxNciG77Qxiu1qHgEtnmgyqQdgCpGBMMRtx3j5ca0AOAkpmaMzy4t6Gh25PXFAADwqTs6p+Y0KzAqCkc3OyX3Pjsm1Wn+IpGtNtahR9EGC4caKAH5eDdkCC/1ktkUD"
	.base64	"bHpOZ30sOFMqOiO6RELK9T6mO7RUMpt2JMiRe91kscD9TLOOjDNMcBw6za0GV/zP7HGbH1w+TkYEHziBR/tM/bR3pSRx96mpaRC4VTIu22NA2KAO8JI1BRHjCr7B//njom5/sp+MGDAjw1h+ONoAd9m0dj5OS5Syu8GUxmUed8r5ku6qwCMqKBv2s6c5wSJhFoIK6NtYR6Z8vvnJCRtGLVOM1ysDdGrnf15iKSwxFWKoRlBdyC24VDOK5J9SNclbkReMzy3Vys70A+ydGBDGJysEWztx+dxrgNY/3UqOmtseaWKmlSbUMWHBpB1XDXk42tSkDjKcz/RqqjatAEz2"
	.base64	"AMg4HkJaMdlRrmT9sj/OyVCdQ2h/62nt0cxeC4zDvfZLEO+GtjFCo6uIKVVbL3R8kyZlyywPHMAb1wIpOIg50q8F5FRQSseLdYKCKEbAujXDX1xZFgzARv2CUVQfxoychrAiu3CZh2pGDnRRqKkxCXA/7hwhfmw4JuUsUappHg5CPPyZ6eMWUMEhe2JIFs2tmpX51bgBlIjZwKCh/jB1pXfiMYP4HUo/L6RXHvyM4LqKT+i2hV3+crCmbt7S+6v75Yow+vq+HF1xqH4vdB74wf6G/qa7/eUwZ38Nl9EdSfeoRD0IIuUGqfRhTgEeKpSDj/iM1oyLt8XGQkz/////"
	.base64	"/////w=="
	.section	.srodata.dhm_G_6144.2,"a"
	.align	2
	.type	dhm_G_6144.2, @object
	.size	dhm_G_6144.2, 1
dhm_G_6144.2:
	.ascii	"\002"
	.section	.rodata.dhm_P_6144.3,"a"
	.align	2
	.type	dhm_P_6144.3, @object
	.size	dhm_P_6144.3, 768
dhm_P_6144.3:
	.base64	"//////////+t+FRYortKmq/cViAnPTzx2LnFg84tNpWp4TZBFGQz+8yTnc4kmz75fS/jY2MMddj2gbICrsRhetPfHtXV/WVhJDP1H18GbtCFY2VVPe0a87VXE15/V8k1mE8McODmi3fipona8+/och3xWKE2rec1MKzKT0g6eXq8CrGCsyT7YdEIqUuyyOP7uWrat2DX9GgdT0Kj3jlN9K5W7edjcrsZCwenyO4KbXCeAvzhzffi7MA0BM0oNC9hkXL+nOmFg/+OTxIy7vKBg8P+OxtMb61zO7X8vC7CIAXFjvGDfRaDssbzSibBsu/6iGtCOGEfz9zeNVs7ZRkD"
	.base64	"W7w09N75nAI4YbRvydbmyQd62R0mkff37lmMsPrBhtkcrv4TCYUTknC0EwyTvEN5RPT9RFLi103TZPLiHnH1S/9croKrnJ32nuhtK8UiNjoNq8Uhl5sN6todv5pC1cRITgq80Gv6U93vPBsg7j/VnXwl5B0rZp4e8W5vUsMWTfT7eTDp5OWIV7asfV9C1p9tGHdjzx1VA0AEh/VbpX4xzHpxNciG77Qxiu1qHgEtnmgyqQdgCpGBMMRtx3j5ca0AOAkpmaMzy4t6Gh25PXFAADwqTs6p+Y0KzAqCkc3OyX3Pjsm1Wn+IpGtNtahR9EGC4caKAH5eDdkCC/1ktkUD"
	.base64	"bHpOZ30sOFMqOiO6RELK9T6mO7RUMpt2JMiRe91kscD9TLOOjDNMcBw6za0GV/zP7HGbH1w+TkYEHziBR/tM/bR3pSRx96mpaRC4VTIu22NA2KAO8JI1BRHjCr7B//njom5/sp+MGDAjw1h+ONoAd9m0dj5OS5Syu8GUxmUed8r5ku6qwCMqKBv2s6c5wSJhFoIK6NtYR6Z8vvnJCRtGLVOM1ysDdGrnf15iKSwxFWKoRlBdyC24VDOK5J9SNclbkReMzy3Vys70A+ydGBDGJysEWztx+dxrgNY/3UqOmtseaWKmlSbUMWHBpB1XDXk42tSkDjKc0OQOZf//////"
	.base64	"////"
	.section	.srodata.dhm_G_4096.4,"a"
	.align	2
	.type	dhm_G_4096.4, @object
	.size	dhm_G_4096.4, 1
dhm_G_4096.4:
	.ascii	"\002"
	.section	.rodata.dhm_P_4096.5,"a"
	.align	2
	.type	dhm_P_4096.5, @object
	.size	dhm_P_4096.5, 512
dhm_P_4096.5:
	.base64	"//////////+t+FRYortKmq/cViAnPTzx2LnFg84tNpWp4TZBFGQz+8yTnc4kmz75fS/jY2MMddj2gbICrsRhetPfHtXV/WVhJDP1H18GbtCFY2VVPe0a87VXE15/V8k1mE8McODmi3fipona8+/och3xWKE2rec1MKzKT0g6eXq8CrGCsyT7YdEIqUuyyOP7uWrat2DX9GgdT0Kj3jlN9K5W7edjcrsZCwenyO4KbXCeAvzhzffi7MA0BM0oNC9hkXL+nOmFg/+OTxIy7vKBg8P+OxtMb61zO7X8vC7CIAXFjvGDfRaDssbzSibBsu/6iGtCOGEfz9zeNVs7ZRkD"
	.base64	"W7w09N75nAI4YbRvydbmyQd62R0mkff37lmMsPrBhtkcrv4TCYUTknC0EwyTvEN5RPT9RFLi103TZPLiHnH1S/9croKrnJ32nuhtK8UiNjoNq8Uhl5sN6todv5pC1cRITgq80Gv6U93vPBsg7j/VnXwl5B0rZp4e8W5vUsMWTfT7eTDp5OWIV7asfV9C1p9tGHdjzx1VA0AEh/VbpX4xzHpxNciG77Qxiu1qHgEtnmgyqQdgCpGBMMRtx3j5ca0AOAkpmaMzy4t6Gh25PXFAADwqTs6p+Y0KzAqCkc3OyX3Pjsm1Wn+IpGtNtahR9EGC4caKAH5eZV9q////////"
	.ascii	"\377\377"
	.section	.srodata.dhm_G_3072.6,"a"
	.align	2
	.type	dhm_G_3072.6, @object
	.size	dhm_G_3072.6, 1
dhm_G_3072.6:
	.ascii	"\002"
	.section	.rodata.dhm_P_3072.7,"a"
	.align	2
	.type	dhm_P_3072.7, @object
	.size	dhm_P_3072.7, 384
dhm_P_3072.7:
	.base64	"//////////+t+FRYortKmq/cViAnPTzx2LnFg84tNpWp4TZBFGQz+8yTnc4kmz75fS/jY2MMddj2gbICrsRhetPfHtXV/WVhJDP1H18GbtCFY2VVPe0a87VXE15/V8k1mE8McODmi3fipona8+/och3xWKE2rec1MKzKT0g6eXq8CrGCsyT7YdEIqUuyyOP7uWrat2DX9GgdT0Kj3jlN9K5W7edjcrsZCwenyO4KbXCeAvzhzffi7MA0BM0oNC9hkXL+nOmFg/+OTxIy7vKBg8P+OxtMb61zO7X8vC7CIAXFjvGDfRaDssbzSibBsu/6iGtCOGEfz9zeNVs7ZRkD"
	.base64	"W7w09N75nAI4YbRvydbmyQd62R0mkff37lmMsPrBhtkcrv4TCYUTknC0EwyTvEN5RPT9RFLi103TZPLiHnH1S/9croKrnJ32nuhtK8UiNjoNq8Uhl5sN6todv5pC1cRITgq80Gv6U93vPBsg7j/VnXwl5B0rZsYuN///////////"
	.section	.srodata.dhm_G_2048.8,"a"
	.align	2
	.type	dhm_G_2048.8, @object
	.size	dhm_G_2048.8, 1
dhm_G_2048.8:
	.ascii	"\002"
	.section	.rodata.dhm_P_2048.9,"a"
	.align	2
	.type	dhm_P_2048.9, @object
	.size	dhm_P_2048.9, 256
dhm_P_2048.9:
	.base64	"//////////+t+FRYortKmq/cViAnPTzx2LnFg84tNpWp4TZBFGQz+8yTnc4kmz75fS/jY2MMddj2gbICrsRhetPfHtXV/WVhJDP1H18GbtCFY2VVPe0a87VXE15/V8k1mE8McODmi3fipona8+/och3xWKE2rec1MKzKT0g6eXq8CrGCsyT7YdEIqUuyyOP7uWrat2DX9GgdT0Kj3jlN9K5W7edjcrsZCwenyO4KbXCeAvzhzffi7MA0BM0oNC9hkXL+nOmFg/+OTxIy7vKBg8P+OxtMb61zO7X8vC7CIAXFjvGDfRaDssbzSibBsu/6iGtCOGEoXJf/////////"
	.ascii	"\377"
	.text
.Letext0:
	.section	.note.GNU-stack,"",@progbits
