	.file	"psa_util.c"
	.option nopic
	.attribute arch, "rv32i2p1_m2p0_f2p2_c2p0_zicsr2p0_zmmul1p0_zca1p0_zcf1p0"
	.attribute unaligned_access, 0
	.attribute stack_align, 16
	.text
.Ltext0:
	.cfi_sections	.debug_frame
	.section	.text.convert_raw_to_der_single_int,"ax",@progbits
	.align	1
	.type	convert_raw_to_der_single_int, @function
convert_raw_to_der_single_int:
.LVL0:
.LFB78:
.LM1:
	.cfi_startproc
.LM2:
	addi	sp,sp,-32
	.cfi_def_cfa_offset 32
	sw	s0,24(sp)
	sw	ra,28(sp)
	sw	s1,20(sp)
	sw	s2,16(sp)
	.cfi_offset 8, -8
	.cfi_offset 1, -4
	.cfi_offset 9, -12
	.cfi_offset 18, -16
	mv	a5,a0
	mv	s0,a1
.LM3:
.LM4:
.LM5:
.LVL1:
.LM6:
.L2:
.LM7:
	lbu	a4,0(a5)
	beq	a4,zero,.L4
.LM8:
.LVL2:
.LM9:
.LM10:
	sub	a4,a3,a2
.LM11:
	bge	a4,s0,.L5
.LVL3:
.L7:
.LM12:
	li	s1,-108
.LVL4:
.L1:
.LM13:
	lw	ra,28(sp)
	.cfi_remember_state
	.cfi_restore 1
	lw	s0,24(sp)
	.cfi_restore 8
	lw	s2,16(sp)
	.cfi_restore 18
	mv	a0,s1
	lw	s1,20(sp)
	.cfi_restore 9
	addi	sp,sp,32
	.cfi_def_cfa_offset 0
	jr	ra
.LVL5:
.L4:
	.cfi_restore_state
.LM14:
.LM15:
	addi	s0,s0,-1
.LVL6:
.LM16:
	addi	a5,a5,1
.LVL7:
.LM17:
.LM18:
.LM19:
	bne	s0,zero,.L2
.LM20:
	li	s1,-104
	j	.L1
.LVL8:
.L5:
.LM21:
	sub	a0,a3,s0
.LM22:
	mv	a1,a5
	mv	s2,a2
.LM23:
.LM24:
	mv	a2,s0
.LVL9:
.LM25:
	sw	a0,12(sp)
.LM26:
	call	memcpy
.LVL10:
.LM27:
.LM28:
	lw	a5,12(sp)
.LM29:
	lb	a4,0(a5)
	bge	a4,zero,.L6
.LM30:
.LM31:
	sub	a4,a5,s2
.LM32:
	ble	a4,zero,.L7
.LM33:
	addi	a4,a5,-1
	sw	a4,12(sp)
.LM34:
.LM35:
	sb	zero,-1(a5)
.LM36:
	addi	s0,s0,1
.LVL11:
.L6:
.LM37:
.LM38:
.LM39:
	mv	a2,s0
	mv	a1,s2
	addi	a0,sp,12
	call	mbedtls_asn1_write_len
.LVL12:
	mv	s1,a0
.LVL13:
.LM40:
	blt	a0,zero,.L1
.LM41:
.LVL14:
.LM42:
.LM43:
.LM44:
.LM45:
	li	a2,2
	mv	a1,s2
	addi	a0,sp,12
	call	mbedtls_asn1_write_tag
.LVL15:
.LM46:
	blt	a0,zero,.L9
.LM47:
	add	s1,s0,s1
.LVL16:
.LM48:
.LM49:
	add	s1,s1,a0
.LVL17:
.LM50:
.LM51:
.LM52:
	j	.L1
.LVL18:
.L9:
.LM53:
	mv	s1,a0
.LVL19:
.LM54:
	j	.L1
	.cfi_endproc
.LFE78:
	.size	convert_raw_to_der_single_int, .-convert_raw_to_der_single_int
	.section	.text.convert_der_to_raw_single_int,"ax",@progbits
	.align	1
	.type	convert_der_to_raw_single_int, @function
convert_der_to_raw_single_int:
.LVL20:
.LFB80:
.LM55:
	.cfi_startproc
.LM56:
.LM57:
	addi	sp,sp,-32
	.cfi_def_cfa_offset 32
	sw	s0,24(sp)
	sw	s1,20(sp)
	sw	s2,16(sp)
	.cfi_offset 8, -8
	.cfi_offset 9, -12
	.cfi_offset 18, -16
	mv	s1,a0
	mv	s2,a2
	mv	s0,a3
.LM58:
	sw	a0,8(sp)
.LM59:
.LVL21:
.LM60:
.LM61:
.LM62:
	add	a1,a0,a1
.LVL22:
.LM63:
	li	a3,2
.LVL23:
.LM64:
	addi	a2,sp,12
.LVL24:
.LM65:
	addi	a0,sp,8
.LVL25:
.LM66:
	sw	ra,28(sp)
	.cfi_offset 1, -4
.LM67:
	call	mbedtls_asn1_get_tag
.LVL26:
.LM68:
.LM69:
	bne	a0,zero,.L11
.LM70:
.LM71:
	lw	a2,12(sp)
.LM72:
	bne	a2,zero,.L13
.L14:
.LM73:
	li	a0,-104
.LVL27:
.L11:
.LM74:
	lw	ra,28(sp)
	.cfi_remember_state
	.cfi_restore 1
	lw	s0,24(sp)
	.cfi_restore 8
.LVL28:
.LM75:
	lw	s1,20(sp)
	.cfi_restore 9
.LVL29:
.LM76:
	lw	s2,16(sp)
	.cfi_restore 18
.LVL30:
.LM77:
	addi	sp,sp,32
	.cfi_def_cfa_offset 0
	jr	ra
.LVL31:
.L13:
	.cfi_restore_state
.LM78:
	lw	a5,8(sp)
	lbu	a4,0(a5)
.LM79:
	slli	a3,a4,24
	srai	a3,a3,24
	blt	a3,zero,.L14
.LM80:
.LM81:
	bne	a4,zero,.L15
.LM82:
.LM83:
	addi	a4,a5,1
.LM84:
	addi	a2,a2,-1
.LM85:
	sw	a4,8(sp)
.LM86:
.LM87:
	sw	a2,12(sp)
.LM88:
.LM89:
	beq	a2,zero,.L16
.LM90:
	lbu	a5,1(a5)
	beq	a5,zero,.L14
.L15:
.LM91:
.LM92:
	bltu	s0,a2,.L14
.L16:
.LM93:
.LVL32:
.LM94:
	lw	a1,8(sp)
.LM95:
	sub	a0,s0,a2
.LVL33:
.LM96:
	add	a0,s2,a0
.LVL34:
.LM97:
	call	memcpy
.LVL35:
.LM98:
.LM99:
.LM100:
	lw	a0,8(sp)
	lw	a5,12(sp)
	add	a0,a0,a5
.LM101:
	sub	a0,a0,s1
	j	.L11
	.cfi_endproc
.LFE80:
	.size	convert_der_to_raw_single_int, .-convert_der_to_raw_single_int
	.section	.text.psa_generic_status_to_mbedtls,"ax",@progbits
	.align	1
	.globl	psa_generic_status_to_mbedtls
	.type	psa_generic_status_to_mbedtls, @function
psa_generic_status_to_mbedtls:
.LVL36:
.LFB72:
.LM102:
	.cfi_startproc
.LM103:
	li	a4,-134
.LM104:
	mv	a5,a0
.LM105:
	beq	a0,a4,.L27
	li	a4,-133
	bge	a0,a4,.L26
	andi	a4,a0,-3
	li	a3,-147
.LM106:
	li	a0,-112
.LVL37:
.LM107:
	beq	a4,a3,.L24
	li	a4,-151
.LM108:
	li	a0,-110
.LM109:
	beq	a5,a4,.L24
.LM110:
	li	a0,-1
	ret
.LVL38:
.L26:
.LM111:
	snez	a5,a0
	neg	a0,a5
.LVL39:
.LM112:
	ret
.LVL40:
.L27:
.LM113:
	li	a0,-114
.LVL41:
.L24:
.LM114:
	ret
	.cfi_endproc
.LFE72:
	.size	psa_generic_status_to_mbedtls, .-psa_generic_status_to_mbedtls
	.section	.text.psa_status_to_mbedtls,"ax",@progbits
	.align	1
	.globl	psa_status_to_mbedtls
	.type	psa_status_to_mbedtls, @function
psa_status_to_mbedtls:
.LVL42:
.LFB73:
.LM115:
	.cfi_startproc
.LM116:
.LBB2:
.LM117:
.LM118:
	li	a5,0
.LVL43:
.L31:
.LM119:
	bne	a5,a2,.L34
.LBE2:
.LM120:
.LM121:
	jr	a3
.LVL44:
.L34:
.LBB3:
.LM122:
.LM123:
	lh	a4,0(a1)
.LM124:
	beq	a4,a0,.L36
	addi	a1,a1,4
.LM125:
	addi	a5,a5,1
.LVL45:
.LM126:
	j	.L31
.LVL46:
.L36:
.LM127:
.LM128:
	lh	a0,2(a1)
.LVL47:
.LM129:
.LBE3:
.LM130:
	ret
	.cfi_endproc
.LFE73:
	.size	psa_status_to_mbedtls, .-psa_status_to_mbedtls
	.section	.text.psa_pk_status_to_mbedtls,"ax",@progbits
	.align	1
	.globl	psa_pk_status_to_mbedtls
	.type	psa_pk_status_to_mbedtls, @function
psa_pk_status_to_mbedtls:
.LVL48:
.LFB74:
.LM131:
	.cfi_startproc
.LM132:
	addi	a5,a0,153
	li	a4,20
	bgtu	a5,a4,.L38
	lui	a4,%hi(.L40)
	slli	a5,a5,2
	addi	a4,a4,%lo(.L40)
	add	a5,a5,a4
	lw	a5,0(a5)
	jr	a5
	.section	.rodata.psa_pk_status_to_mbedtls,"a",@progbits
	.align	2
	.align	2
.L40:
	.word	.L47
	.word	.L47
	.word	.L38
	.word	.L38
	.word	.L38
	.word	.L38
	.word	.L38
	.word	.L47
	.word	.L38
	.word	.L38
	.word	.L38
	.word	.L38
	.word	.L46
	.word	.L38
	.word	.L38
	.word	.L48
	.word	.L44
	.word	.L43
	.word	.L42
	.word	.L41
	.word	.L39
	.section	.text.psa_pk_status_to_mbedtls
.L43:
.LM133:
	li	a0,-16384
.LVL49:
.LM134:
	addi	a0,a0,768
	ret
.LVL50:
.L41:
.LM135:
.LM136:
	li	a0,-16384
.LVL51:
.LM137:
	addi	a0,a0,1664
	ret
.LVL52:
.L42:
.LM138:
.LM139:
	li	a0,-16384
.LVL53:
.LM140:
	addi	a0,a0,1408
	ret
.LVL54:
.L39:
.LM141:
.LM142:
	li	a0,-16384
.LVL55:
.LM143:
	addi	a0,a0,256
	ret
.LVL56:
.L46:
.LM144:
.LM145:
	li	a0,-16384
.LVL57:
.LM146:
	addi	a0,a0,128
	ret
.LVL58:
.L44:
.LM147:
.LM148:
	li	a0,-16384
.LVL59:
.LM149:
	addi	a0,a0,384
	ret
.LVL60:
.L47:
.LM150:
.LM151:
	li	a0,-16384
.LVL61:
.LM152:
	addi	a0,a0,512
	ret
.LVL62:
.L38:
.LM153:
.LM154:
	tail	psa_generic_status_to_mbedtls
.LVL63:
.L48:
.LM155:
	li	a0,-16384
.LVL64:
.LM156:
	addi	a0,a0,1920
.LM157:
	ret
	.cfi_endproc
.LFE74:
	.size	psa_pk_status_to_mbedtls, .-psa_pk_status_to_mbedtls
	.section	.text.mbedtls_ecc_group_to_psa,"ax",@progbits
	.align	1
	.globl	mbedtls_ecc_group_to_psa
	.type	mbedtls_ecc_group_to_psa, @function
mbedtls_ecc_group_to_psa:
.LVL65:
.LFB75:
.LM158:
	.cfi_startproc
.LM159:
	addi	a0,a0,-1
.LVL66:
.LM160:
	andi	a0,a0,0xff
.LVL67:
.LM161:
	li	a5,12
	bgtu	a0,a5,.L50
	lui	a5,%hi(.L52)
	addi	a5,a5,%lo(.L52)
	slli	a0,a0,2
	add	a0,a0,a5
	lw	a5,0(a0)
	jr	a5
	.section	.rodata.mbedtls_ecc_group_to_psa,"a",@progbits
	.align	2
	.align	2
.L52:
	.word	.L64
	.word	.L62
	.word	.L61
	.word	.L60
	.word	.L59
	.word	.L58
	.word	.L57
	.word	.L56
	.word	.L55
	.word	.L54
	.word	.L50
	.word	.L53
	.word	.L51
	.section	.text.mbedtls_ecc_group_to_psa
.L62:
	li	a5,224
.L66:
	li	a0,18
	j	.L63
.L61:
.LM162:
.LM163:
.LM164:
	li	a5,256
	j	.L66
.L60:
.LM165:
.LM166:
.LM167:
	li	a5,384
	j	.L66
.L59:
.LM168:
.LM169:
.LM170:
	li	a5,521
	j	.L66
.L58:
.LM171:
.LM172:
.LM173:
	li	a5,256
.L67:
	li	a0,48
.L63:
.LM174:
	sw	a5,0(a1)
.LM175:
	ret
.L57:
.LM176:
.LM177:
.LM178:
	li	a5,384
	j	.L67
.L56:
.LM179:
.LM180:
.LM181:
	li	a5,512
	j	.L67
.L55:
.LM182:
.LM183:
.LM184:
	li	a5,255
.L68:
	li	a0,65
.LM185:
	j	.L63
.L54:
.LM186:
.LM187:
.LM188:
	li	a5,192
.L65:
	li	a0,23
.LM189:
	j	.L63
.L53:
.LM190:
.LM191:
.LM192:
	li	a5,256
	j	.L65
.L51:
.LM193:
.LM194:
.LM195:
	li	a5,448
	j	.L68
.L50:
.LM196:
.LM197:
.LM198:
	li	a5,0
	li	a0,0
	j	.L63
.L64:
.LM199:
	li	a5,192
	j	.L66
	.cfi_endproc
.LFE75:
	.size	mbedtls_ecc_group_to_psa, .-mbedtls_ecc_group_to_psa
	.section	.text.mbedtls_ecc_group_from_psa,"ax",@progbits
	.align	1
	.globl	mbedtls_ecc_group_from_psa
	.type	mbedtls_ecc_group_from_psa, @function
mbedtls_ecc_group_from_psa:
.LVL68:
.LFB76:
.LM200:
	.cfi_startproc
.LM201:
	li	a5,48
	beq	a0,a5,.L70
	bgtu	a0,a5,.L71
	li	a5,18
	beq	a0,a5,.L72
	li	a5,23
	beq	a0,a5,.L73
.L88:
.LM202:
	li	a0,0
.LVL69:
.LM203:
	ret
.LVL70:
.L71:
.LM204:
	li	a5,65
	bne	a0,a5,.L88
.LM205:
	li	a5,255
.LM206:
	li	a0,9
.LVL71:
.LM207:
	beq	a1,a5,.L74
	li	a5,448
.LM208:
	li	a0,0
.LM209:
	bne	a1,a5,.L74
	li	a0,13
	ret
.LVL72:
.L72:
.LM210:
	li	a5,256
.LM211:
	li	a0,3
.LVL73:
.LM212:
	beq	a1,a5,.L74
	bgtu	a1,a5,.L76
	li	a5,192
.LM213:
	li	a0,1
.LM214:
	beq	a1,a5,.L74
	addi	a1,a1,-224
.LVL74:
.LM215:
	seqz	a1,a1
.LVL75:
.LM216:
	slli	a0,a1,1
	ret
.LVL76:
.L76:
.LM217:
	li	a5,384
.LM218:
	li	a0,4
.LM219:
	beq	a1,a5,.L74
	li	a5,521
.LM220:
	li	a0,0
.LM221:
	bne	a1,a5,.L74
.LM222:
	li	a0,5
	ret
.LVL77:
.L70:
.LM223:
	li	a5,384
	li	a0,7
.LVL78:
.LM224:
	beq	a1,a5,.L74
	li	a5,512
.LM225:
	li	a0,8
.LM226:
	beq	a1,a5,.L74
	li	a5,256
.LM227:
	li	a0,0
.LM228:
	bne	a1,a5,.L74
.LM229:
	li	a0,6
	ret
.LVL79:
.L73:
.LM230:
	li	a5,192
.LM231:
	li	a0,10
.LVL80:
.LM232:
	beq	a1,a5,.L74
	li	a5,256
.LM233:
	li	a0,0
.LM234:
	bne	a1,a5,.L74
	li	a0,12
.L74:
.LM235:
	ret
	.cfi_endproc
.LFE76:
	.size	mbedtls_ecc_group_from_psa, .-mbedtls_ecc_group_from_psa
	.section	.text.mbedtls_psa_get_random,"ax",@progbits
	.align	1
	.globl	mbedtls_psa_get_random
	.type	mbedtls_psa_get_random, @function
mbedtls_psa_get_random:
.LVL81:
.LFB77:
.LM236:
	.cfi_startproc
.LM237:
.LM238:
.LM239:
	addi	sp,sp,-16
	.cfi_def_cfa_offset 16
	mv	a0,a1
.LVL82:
.LM240:
	mv	a1,a2
.LVL83:
.LM241:
	sw	ra,12(sp)
	.cfi_offset 1, -4
.LM242:
	call	psa_generate_random
.LVL84:
.LM243:
.LM244:
	beq	a0,zero,.L89
.LM245:
	li	a0,-60
.LVL85:
.L89:
.LM246:
	lw	ra,12(sp)
	.cfi_restore 1
	addi	sp,sp,16
	.cfi_def_cfa_offset 0
	jr	ra
	.cfi_endproc
.LFE77:
	.size	mbedtls_psa_get_random, .-mbedtls_psa_get_random
	.section	.text.mbedtls_ecdsa_raw_to_der,"ax",@progbits
	.align	1
	.globl	mbedtls_ecdsa_raw_to_der
	.type	mbedtls_ecdsa_raw_to_der, @function
mbedtls_ecdsa_raw_to_der:
.LVL86:
.LFB79:
.LM247:
	.cfi_startproc
.LM248:
.LM249:
.LM250:
.LM251:
.LM252:
.LM253:
	addi	sp,sp,-176
	.cfi_def_cfa_offset 176
.LM254:
	add	a4,a3,a4
.LVL87:
.LM255:
	sw	s0,168(sp)
	sw	ra,172(sp)
	sw	s1,164(sp)
	sw	s2,160(sp)
	sw	s3,156(sp)
	sw	s4,152(sp)
	.cfi_offset 8, -8
	.cfi_offset 1, -4
	.cfi_offset 9, -12
	.cfi_offset 18, -16
	.cfi_offset 19, -20
	.cfi_offset 20, -24
.LM256:
	sw	a4,4(sp)
.LM257:
.LVL88:
.LM258:
.LM259:
	li	s0,-104
.LM260:
	beq	a0,zero,.L93
.LM261:
	addi	a0,a0,7
.LVL89:
.LM262:
	srli	s1,a0,3
.LM263:
.LM264:
	slli	a4,s1,1
.LM265:
	li	s0,-104
.LM266:
	bne	a4,a2,.L93
.LM267:
.LM268:
	li	a4,66
.LM269:
	li	s0,-108
.LM270:
	bgtu	s1,a4,.L93
.LM271:
	mv	a2,s1
.LVL90:
.LM272:
	addi	a0,sp,8
.LVL91:
.LM273:
	mv	s4,a3
	mv	s3,a5
	mv	s0,a1
.LM274:
	call	memcpy
.LVL92:
.LM275:
	add	a1,s0,s1
	mv	a2,s1
	addi	a0,sp,76
	call	memcpy
.LVL93:
.LM276:
.LM277:
	lw	a3,4(sp)
	mv	a2,s4
	mv	a1,s1
	addi	a0,sp,76
	call	convert_raw_to_der_single_int
.LVL94:
	mv	s0,a0
.LVL95:
.LM278:
.LM279:
	blt	a0,zero,.L93
.LM280:
.LM281:
	lw	a3,4(sp)
	mv	s2,a0
.LM282:
	mv	a2,s4
.LM283:
	sub	a3,a3,a0
.LM284:
	mv	a1,s1
	addi	a0,sp,8
.LM285:
	sw	a3,4(sp)
.LM286:
.LVL96:
.LM287:
.LM288:
	call	convert_raw_to_der_single_int
.LVL97:
.LM289:
	mv	s0,a0
.LM290:
.LM291:
	blt	a0,zero,.L93
.LM292:
.LM293:
	lw	a5,4(sp)
.LM294:
	add	s2,s2,a0
.LM295:
	mv	a2,s2
.LM296:
	sub	a5,a5,a0
.LM297:
	mv	a1,s4
	addi	a0,sp,4
.LVL98:
.LM298:
	sw	a5,4(sp)
.LM299:
.LVL99:
.LM300:
.LM301:
.LM302:
	call	mbedtls_asn1_write_len
.LVL100:
.LM303:
	mv	s0,a0
.LM304:
	blt	a0,zero,.L93
.LM305:
.LVL101:
.LM306:
.LM307:
.LM308:
.LM309:
	li	a2,48
	mv	a1,s4
	addi	a0,sp,4
.LVL102:
.LM310:
	call	mbedtls_asn1_write_tag
.LVL103:
.LM311:
	blt	a0,zero,.L98
.LM312:
	lw	a1,4(sp)
.LM313:
	add	s0,s0,s2
.LVL104:
.LM314:
.LM315:
	add	s0,a0,s0
.LVL105:
.LM316:
.LM317:
	mv	a2,s0
	mv	a0,s4
.LVL106:
.LM318:
	call	memmove
.LVL107:
.LM319:
.LM320:
	sw	s0,0(s3)
.LM321:
.LM322:
	li	s0,0
.LVL108:
.L93:
.LM323:
	lw	ra,172(sp)
	.cfi_remember_state
	.cfi_restore 1
	mv	a0,s0
	lw	s0,168(sp)
	.cfi_restore 8
	lw	s1,164(sp)
	.cfi_restore 9
	lw	s2,160(sp)
	.cfi_restore 18
	lw	s3,156(sp)
	.cfi_restore 19
	lw	s4,152(sp)
	.cfi_restore 20
	addi	sp,sp,176
	.cfi_def_cfa_offset 0
	jr	ra
.LVL109:
.L98:
	.cfi_restore_state
.LM324:
	mv	s0,a0
	j	.L93
	.cfi_endproc
.LFE79:
	.size	mbedtls_ecdsa_raw_to_der, .-mbedtls_ecdsa_raw_to_der
	.section	.text.mbedtls_ecdsa_der_to_raw,"ax",@progbits
	.align	1
	.globl	mbedtls_ecdsa_der_to_raw
	.type	mbedtls_ecdsa_der_to_raw, @function
mbedtls_ecdsa_der_to_raw:
.LVL110:
.LFB81:
.LM325:
	.cfi_startproc
.LM326:
.LM327:
.LM328:
	addi	sp,sp,-192
	.cfi_def_cfa_offset 192
	sw	s0,184(sp)
	sw	ra,188(sp)
	sw	s1,180(sp)
	sw	s2,176(sp)
	sw	s3,172(sp)
	sw	s4,168(sp)
	sw	s5,164(sp)
	sw	s6,160(sp)
	sw	s7,156(sp)
	.cfi_offset 8, -8
	.cfi_offset 1, -4
	.cfi_offset 9, -12
	.cfi_offset 18, -16
	.cfi_offset 19, -20
	.cfi_offset 20, -24
	.cfi_offset 21, -28
	.cfi_offset 22, -32
	.cfi_offset 23, -36
.LM329:
	sw	a1,4(sp)
.LM330:
.LM331:
.LVL111:
.LM332:
.LM333:
.LM334:
	li	s0,-104
.LM335:
	beq	a0,zero,.L100
.LM336:
	addi	a0,a0,7
.LVL112:
.LM337:
	srli	s1,a0,3
.LM338:
.LM339:
	li	a0,132
.LVL113:
.LM340:
	slli	s3,s1,1
.LM341:
.LM342:
	bleu	a4,a0,.L102
	mv	a4,a0
.LVL114:
.L102:
.LM343:
	li	s0,-108
.LM344:
	bgtu	s3,a4,.L100
	mv	s5,a2
	mv	s7,a3
	mv	s2,a1
.LM345:
.LM346:
	li	a3,48
.LVL115:
.LM347:
	addi	a2,sp,8
.LVL116:
.LM348:
	add	a1,a1,s5
.LVL117:
.LM349:
	addi	a0,sp,4
.LVL118:
.LM350:
	mv	s6,a5
	call	mbedtls_asn1_get_tag
.LVL119:
.LM351:
	mv	s0,a0
.LVL120:
.LM352:
.LM353:
	bne	a0,zero,.L100
.LM354:
	addi	s4,sp,12
	mv	a2,s3
	li	a1,0
	mv	a0,s4
	call	memset
.LVL121:
.LM355:
.LM356:
	lw	a1,8(sp)
	lw	a0,4(sp)
	mv	a3,s1
	mv	a2,s4
	call	convert_der_to_raw_single_int
.LVL122:
	mv	a5,a0
.LVL123:
.LM357:
.LM358:
	blt	a0,zero,.L105
.LM359:
.LM360:
	lw	a0,4(sp)
.LVL124:
.LM361:
	lw	a1,8(sp)
.LM362:
	mv	a3,s1
.LM363:
	add	a0,a0,a5
.LM364:
	sub	a1,a1,a5
.LM365:
	add	a2,s4,s1
.LM366:
	sw	a0,4(sp)
.LM367:
.LM368:
	sw	a1,8(sp)
.LM369:
.LM370:
	call	convert_der_to_raw_single_int
.LVL125:
.LM371:
.LM372:
	blt	a0,zero,.L106
.LM373:
.LM374:
	lw	a4,4(sp)
.LM375:
	lw	a5,8(sp)
.LM376:
	add	a4,a4,a0
.LM377:
	sub	a5,a5,a0
.LM378:
	sw	a4,4(sp)
.LM379:
.LM380:
	sw	a5,8(sp)
.LM381:
.LM382:
	sub	a4,a4,s2
.LM383:
	bne	a4,s5,.L107
.LM384:
	mv	a2,s3
	mv	a1,s4
	mv	a0,s7
.LVL126:
.LM385:
	call	memcpy
.LVL127:
.LM386:
.LM387:
	sw	s3,0(s6)
.LM388:
.LVL128:
.L100:
.LM389:
	lw	ra,188(sp)
	.cfi_remember_state
	.cfi_restore 1
	mv	a0,s0
	lw	s0,184(sp)
	.cfi_restore 8
	lw	s1,180(sp)
	.cfi_restore 9
	lw	s2,176(sp)
	.cfi_restore 18
	lw	s3,172(sp)
	.cfi_restore 19
	lw	s4,168(sp)
	.cfi_restore 20
	lw	s5,164(sp)
	.cfi_restore 21
	lw	s6,160(sp)
	.cfi_restore 22
	lw	s7,156(sp)
	.cfi_restore 23
	addi	sp,sp,192
	.cfi_def_cfa_offset 0
	jr	ra
.LVL129:
.L105:
	.cfi_restore_state
.LM390:
	mv	s0,a0
	j	.L100
.L106:
.LM391:
	mv	s0,a0
	j	.L100
.L107:
.LM392:
	li	s0,-102
	j	.L100
	.cfi_endproc
.LFE81:
	.size	mbedtls_ecdsa_der_to_raw, .-mbedtls_ecdsa_der_to_raw
	.globl	psa_to_pk_rsa_errors
	.section	.rodata.psa_to_pk_rsa_errors,"a"
	.align	2
	.type	psa_to_pk_rsa_errors, @object
	.size	psa_to_pk_rsa_errors, 32
psa_to_pk_rsa_errors:
	.half	0
	.half	0
	.half	-133
	.half	-16512
	.half	-135
	.half	-16512
	.half	-136
	.half	-16512
	.half	-138
	.half	-17408
	.half	-148
	.half	-17536
	.half	-149
	.half	-17280
	.half	-150
	.half	-16640
	.globl	psa_to_md_errors
	.section	.rodata.psa_to_md_errors,"a"
	.align	2
	.type	psa_to_md_errors, @object
	.size	psa_to_md_errors, 16
psa_to_md_errors:
	.half	0
	.half	0
	.half	-134
	.half	-20608
	.half	-135
	.half	-20736
	.half	-141
	.half	-20864
	.text
.Letext0:
	.section	.note.GNU-stack,"",@progbits
