	.file	"sha1.c"
	.option nopic
	.attribute arch, "rv32i2p1_m2p0_f2p2_c2p0_zicsr2p0_zmmul1p0_zca1p0_zcf1p0"
	.attribute unaligned_access, 0
	.attribute stack_align, 16
	.text
.Ltext0:
	.cfi_sections	.debug_frame
	.section	.text.mbedtls_sha1_init,"ax",@progbits
	.align	1
	.globl	mbedtls_sha1_init
	.type	mbedtls_sha1_init, @function
mbedtls_sha1_init:
.LVL0:
.LFB15:
.LM1:
	.cfi_startproc
.LM2:
	li	a2,92
	li	a1,0
	tail	memset
.LVL1:
.LM3:
	.cfi_endproc
.LFE15:
	.size	mbedtls_sha1_init, .-mbedtls_sha1_init
	.section	.text.mbedtls_sha1_free,"ax",@progbits
	.align	1
	.globl	mbedtls_sha1_free
	.type	mbedtls_sha1_free, @function
mbedtls_sha1_free:
.LVL2:
.LFB16:
.LM4:
	.cfi_startproc
.LM5:
.LM6:
	beq	a0,zero,.L2
.LVL3:
.LBB54:
.LBI54:
.LM7:
.LBB55:
.LM8:
	li	a1,92
	tail	mbedtls_platform_zeroize
.LVL4:
.L2:
.LM9:
.LBE55:
.LBE54:
.LM10:
	ret
	.cfi_endproc
.LFE16:
	.size	mbedtls_sha1_free, .-mbedtls_sha1_free
	.section	.text.mbedtls_sha1_clone,"ax",@progbits
	.align	1
	.globl	mbedtls_sha1_clone
	.type	mbedtls_sha1_clone, @function
mbedtls_sha1_clone:
.LVL5:
.LFB17:
.LM11:
	.cfi_startproc
.LM12:
.LM13:
	addi	sp,sp,-16
	.cfi_def_cfa_offset 16
.LM14:
	li	a2,92
.LM15:
	sw	ra,12(sp)
	.cfi_offset 1, -4
.LM16:
	call	memcpy
.LVL6:
.LM17:
	lw	ra,12(sp)
	.cfi_restore 1
	addi	sp,sp,16
	.cfi_def_cfa_offset 0
	jr	ra
	.cfi_endproc
.LFE17:
	.size	mbedtls_sha1_clone, .-mbedtls_sha1_clone
	.section	.text.mbedtls_sha1_starts,"ax",@progbits
	.align	1
	.globl	mbedtls_sha1_starts
	.type	mbedtls_sha1_starts, @function
mbedtls_sha1_starts:
.LVL7:
.LFB18:
.LM18:
	.cfi_startproc
.LM19:
.LM20:
	li	a5,1732583424
	addi	a5,a5,769
	sw	a5,8(a0)
.LM21:
	li	a5,-271732736
	addi	a5,a5,-1143
	sw	a5,12(a0)
.LM22:
	li	a5,-1732583424
	addi	a5,a5,-770
	sw	a5,16(a0)
.LM23:
	li	a5,271732736
	addi	a5,a5,1142
	sw	a5,20(a0)
.LM24:
	li	a5,-1009590272
	addi	a5,a5,496
.LM25:
	sw	zero,0(a0)
.LM26:
.LM27:
	sw	zero,4(a0)
.LM28:
.LM29:
.LM30:
.LM31:
.LM32:
.LM33:
	sw	a5,24(a0)
.LM34:
.LM35:
	li	a0,0
.LVL8:
.LM36:
	ret
	.cfi_endproc
.LFE18:
	.size	mbedtls_sha1_starts, .-mbedtls_sha1_starts
	.section	.text.mbedtls_internal_sha1_process,"ax",@progbits
	.align	1
	.globl	mbedtls_internal_sha1_process
	.type	mbedtls_internal_sha1_process, @function
mbedtls_internal_sha1_process:
.LVL9:
.LFB19:
.LM37:
	.cfi_startproc
.LM38:
.LM39:
.LBB56:
.LBI56:
.LM40:
.LBB57:
.LM41:
.LM42:
.LM43:
.LM44:
.LM45:
.LBE57:
.LBE56:
.LM46:
	addi	sp,sp,-192
	.cfi_def_cfa_offset 192
	sw	ra,188(sp)
	sw	s0,184(sp)
	sw	s1,180(sp)
	sw	s2,176(sp)
	sw	s3,172(sp)
	sw	s4,168(sp)
	sw	s5,164(sp)
	sw	s6,160(sp)
	sw	s7,156(sp)
	sw	s8,152(sp)
	sw	s9,148(sp)
	sw	s10,144(sp)
	sw	s11,140(sp)
	.cfi_offset 1, -4
	.cfi_offset 8, -8
	.cfi_offset 9, -12
	.cfi_offset 18, -16
	.cfi_offset 19, -20
	.cfi_offset 20, -24
	.cfi_offset 21, -28
	.cfi_offset 22, -32
	.cfi_offset 23, -36
	.cfi_offset 24, -40
	.cfi_offset 25, -44
	.cfi_offset 26, -48
	.cfi_offset 27, -52
.LBB61:
.LBB58:
.LM47:
	lbu	a4,1(a1)
	lbu	a5,0(a1)
.LBE58:
.LBE61:
.LM48:
	mv	s0,a0
.LBB62:
.LBB59:
.LM49:
	slli	a4,a4,8
	or	a4,a4,a5
	lbu	a5,2(a1)
	lbu	a0,3(a1)
.LVL10:
.LM50:
.LBE59:
.LBE62:
.LM51:
	mv	s9,a1
.LBB63:
.LBB60:
.LM52:
	slli	a5,a5,16
	or	a5,a5,a4
	slli	a0,a0,24
.LBE60:
.LBE63:
.LM53:
	or	a0,a0,a5
	call	__bswapsi2
.LVL11:
.LBB64:
.LBB65:
.LM54:
	lbu	a4,5(s9)
	lbu	a5,4(s9)
.LBE65:
.LBE64:
.LM55:
	sw	a0,28(sp)
.LM56:
.LVL12:
.LBB67:
.LBI64:
.LM57:
.LBB66:
.LM58:
.LM59:
.LM60:
.LM61:
.LM62:
	slli	a4,a4,8
	or	a4,a4,a5
	lbu	a5,6(s9)
	lbu	a0,7(s9)
	slli	a5,a5,16
	or	a5,a5,a4
	slli	a0,a0,24
.LBE66:
.LBE67:
.LM63:
	or	a0,a0,a5
	call	__bswapsi2
.LVL13:
.LBB68:
.LBB69:
.LM64:
	lbu	a4,9(s9)
	lbu	a5,8(s9)
.LBE69:
.LBE68:
.LM65:
	sw	a0,12(sp)
.LM66:
.LVL14:
.LBB71:
.LBI68:
.LM67:
.LBB70:
.LM68:
.LM69:
.LM70:
.LM71:
.LM72:
	slli	a4,a4,8
	or	a4,a4,a5
	lbu	a5,10(s9)
	lbu	a0,11(s9)
	slli	a5,a5,16
	or	a5,a5,a4
	slli	a0,a0,24
.LBE70:
.LBE71:
.LM73:
	or	a0,a0,a5
	call	__bswapsi2
.LVL15:
.LBB72:
.LBB73:
.LM74:
	lbu	a4,13(s9)
	lbu	a5,12(s9)
.LBE73:
.LBE72:
.LM75:
	mv	s3,a0
.LM76:
.LVL16:
.LBB75:
.LBI72:
.LM77:
.LBB74:
.LM78:
.LM79:
.LM80:
.LM81:
.LM82:
	slli	a4,a4,8
	or	a4,a4,a5
	lbu	a5,14(s9)
	lbu	a0,15(s9)
	slli	a5,a5,16
	or	a5,a5,a4
	slli	a0,a0,24
.LBE74:
.LBE75:
.LM83:
	or	a0,a0,a5
	call	__bswapsi2
.LVL17:
.LBB76:
.LBB77:
.LM84:
	lbu	a4,17(s9)
	lbu	a5,16(s9)
.LBE77:
.LBE76:
.LM85:
	mv	s2,a0
.LM86:
.LVL18:
.LBB79:
.LBI76:
.LM87:
.LBB78:
.LM88:
.LM89:
.LM90:
.LM91:
.LM92:
	slli	a4,a4,8
	or	a4,a4,a5
	lbu	a5,18(s9)
	lbu	a0,19(s9)
	slli	a5,a5,16
	or	a5,a5,a4
	slli	a0,a0,24
.LBE78:
.LBE79:
.LM93:
	or	a0,a0,a5
	call	__bswapsi2
.LVL19:
.LBB80:
.LBB81:
.LM94:
	lbu	a4,21(s9)
	lbu	a5,20(s9)
.LBE81:
.LBE80:
.LM95:
	sw	a0,24(sp)
.LM96:
.LVL20:
.LBB83:
.LBI80:
.LM97:
.LBB82:
.LM98:
.LM99:
.LM100:
.LM101:
.LM102:
	slli	a4,a4,8
	or	a4,a4,a5
	lbu	a5,22(s9)
	lbu	a0,23(s9)
	slli	a5,a5,16
	or	a5,a5,a4
	slli	a0,a0,24
.LBE82:
.LBE83:
.LM103:
	or	a0,a0,a5
	call	__bswapsi2
.LVL21:
	sw	a0,20(sp)
.LM104:
.LVL22:
.LBB84:
.LBI84:
.LM105:
.LBB85:
.LM106:
.LM107:
.LM108:
.LM109:
.LM110:
	lbu	a5,24(s9)
	lbu	a4,25(s9)
	lbu	a0,27(s9)
	slli	a4,a4,8
	or	a4,a4,a5
	lbu	a5,26(s9)
	slli	a0,a0,24
	slli	a5,a5,16
	or	a5,a5,a4
.LBE85:
.LBE84:
.LM111:
	or	a0,a0,a5
	call	__bswapsi2
.LVL23:
.LBB86:
.LBB87:
.LM112:
	lbu	a4,29(s9)
	lbu	a5,28(s9)
.LBE87:
.LBE86:
.LM113:
	sw	a0,16(sp)
.LM114:
.LVL24:
.LBB89:
.LBI86:
.LM115:
.LBB88:
.LM116:
.LM117:
.LM118:
.LM119:
.LM120:
	slli	a4,a4,8
	or	a4,a4,a5
	lbu	a5,30(s9)
	lbu	a0,31(s9)
	slli	a5,a5,16
	or	a5,a5,a4
	slli	a0,a0,24
.LBE88:
.LBE89:
.LM121:
	or	a0,a0,a5
	call	__bswapsi2
.LVL25:
.LBB90:
.LBB91:
.LM122:
	lbu	a4,33(s9)
	lbu	a5,32(s9)
.LBE91:
.LBE90:
.LM123:
	mv	s6,a0
.LM124:
.LVL26:
.LBB93:
.LBI90:
.LM125:
.LBB92:
.LM126:
.LM127:
.LM128:
.LM129:
.LM130:
	slli	a4,a4,8
	or	a4,a4,a5
	lbu	a5,34(s9)
	lbu	a0,35(s9)
	slli	a5,a5,16
	or	a5,a5,a4
	slli	a0,a0,24
.LBE92:
.LBE93:
.LM131:
	or	a0,a0,a5
	call	__bswapsi2
.LVL27:
.LBB94:
.LBB95:
.LM132:
	lbu	a4,37(s9)
	lbu	a5,36(s9)
.LBE95:
.LBE94:
.LM133:
	mv	s1,a0
.LM134:
.LVL28:
.LBB97:
.LBI94:
.LM135:
.LBB96:
.LM136:
.LM137:
.LM138:
.LM139:
.LM140:
	slli	a4,a4,8
	or	a4,a4,a5
	lbu	a5,38(s9)
	lbu	a0,39(s9)
	slli	a5,a5,16
	or	a5,a5,a4
	slli	a0,a0,24
.LBE96:
.LBE97:
.LM141:
	or	a0,a0,a5
	call	__bswapsi2
.LVL29:
.LBB98:
.LBB99:
.LM142:
	lbu	a4,41(s9)
	lbu	a5,40(s9)
.LBE99:
.LBE98:
.LM143:
	mv	s11,a0
.LM144:
.LVL30:
.LBB101:
.LBI98:
.LM145:
.LBB100:
.LM146:
.LM147:
.LM148:
.LM149:
.LM150:
	slli	a4,a4,8
	or	a4,a4,a5
	lbu	a5,42(s9)
	lbu	a0,43(s9)
	slli	a5,a5,16
	or	a5,a5,a4
	slli	a0,a0,24
.LBE100:
.LBE101:
.LM151:
	or	a0,a0,a5
	call	__bswapsi2
.LVL31:
.LBB102:
.LBB103:
.LM152:
	lbu	a4,45(s9)
	lbu	a5,44(s9)
.LBE103:
.LBE102:
.LM153:
	mv	s5,a0
.LM154:
.LVL32:
.LBB105:
.LBI102:
.LM155:
.LBB104:
.LM156:
.LM157:
.LM158:
.LM159:
.LM160:
	slli	a4,a4,8
	or	a4,a4,a5
	lbu	a5,46(s9)
	lbu	a0,47(s9)
	slli	a5,a5,16
	or	a5,a5,a4
	slli	a0,a0,24
.LBE104:
.LBE105:
.LM161:
	or	a0,a0,a5
	call	__bswapsi2
.LVL33:
.LBB106:
.LBB107:
.LM162:
	lbu	a4,49(s9)
	lbu	a5,48(s9)
.LBE107:
.LBE106:
.LM163:
	mv	s7,a0
.LM164:
.LVL34:
.LBB109:
.LBI106:
.LM165:
.LBB108:
.LM166:
.LM167:
.LM168:
.LM169:
.LM170:
	slli	a4,a4,8
	or	a4,a4,a5
	lbu	a5,50(s9)
	lbu	a0,51(s9)
	slli	a5,a5,16
	or	a5,a5,a4
	slli	a0,a0,24
.LBE108:
.LBE109:
.LM171:
	or	a0,a0,a5
	call	__bswapsi2
.LVL35:
.LBB110:
.LBB111:
.LM172:
	lbu	a4,53(s9)
	lbu	a5,52(s9)
.LBE111:
.LBE110:
.LM173:
	mv	s10,a0
.LM174:
.LVL36:
.LBB113:
.LBI110:
.LM175:
.LBB112:
.LM176:
.LM177:
.LM178:
.LM179:
.LM180:
	slli	a4,a4,8
	or	a4,a4,a5
	lbu	a5,54(s9)
	lbu	a0,55(s9)
	slli	a5,a5,16
	or	a5,a5,a4
	slli	a0,a0,24
.LBE112:
.LBE113:
.LM181:
	or	a0,a0,a5
	call	__bswapsi2
.LVL37:
.LBB114:
.LBB115:
.LM182:
	lbu	a4,57(s9)
	lbu	a5,56(s9)
.LBE115:
.LBE114:
.LM183:
	mv	s4,a0
.LM184:
.LVL38:
.LBB117:
.LBI114:
.LM185:
.LBB116:
.LM186:
.LM187:
.LM188:
.LM189:
.LM190:
	slli	a4,a4,8
	or	a4,a4,a5
	lbu	a5,58(s9)
	lbu	a0,59(s9)
	slli	a5,a5,16
	or	a5,a5,a4
	slli	a0,a0,24
.LBE116:
.LBE117:
.LM191:
	or	a0,a0,a5
	call	__bswapsi2
.LVL39:
.LBB118:
.LBB119:
.LM192:
	lbu	a4,61(s9)
	lbu	a5,60(s9)
.LBE119:
.LBE118:
.LM193:
	mv	s8,a0
.LM194:
.LVL40:
.LBB121:
.LBI118:
.LM195:
.LBB120:
.LM196:
.LM197:
.LM198:
.LM199:
.LM200:
	slli	a4,a4,8
	or	a4,a4,a5
	lbu	a5,62(s9)
	lbu	a0,63(s9)
	slli	a5,a5,16
	or	a5,a5,a4
	slli	a0,a0,24
.LBE120:
.LBE121:
.LM201:
	or	a0,a0,a5
	call	__bswapsi2
.LVL41:
.LM202:
.LM203:
	lw	t2,16(s0)
.LM204:
	lw	a5,20(s0)
.LM205:
	lw	t0,8(s0)
.LM206:
.LM207:
.LM208:
.LM209:
.LM210:
.LM211:
.LM212:
	lw	a2,24(s0)
.LM213:
	xor	a3,t2,a5
.LM214:
	lw	a5,12(s0)
.LM215:
	srli	a4,t0,27
.LM216:
	lw	t1,28(sp)
.LM217:
	and	a3,a3,a5
.LM218:
	lw	a5,20(s0)
.LM219:
	lw	t6,24(sp)
.LM220:
	lw	t4,20(sp)
.LM221:
	xor	a3,a3,a5
.LM222:
	slli	a5,t0,5
	add	a4,a4,a5
.LM223:
	li	a5,1518501888
	addi	a5,a5,-1639
	add	a2,a2,a5
	add	a4,a4,a2
	add	a3,a3,a4
.LM224:
	lw	a2,12(s0)
	lw	a4,12(s0)
.LM225:
	add	a3,a3,t1
.LM226:
.LM227:
	slli	a6,a2,30
	srli	a4,a4,2
	add	a6,a6,a4
.LM228:
.LM229:
.LM230:
.LM231:
	lw	a2,20(s0)
.LM232:
	xor	a4,t2,a6
.LM233:
	and	a4,a4,t0
.LM234:
	add	a2,a2,a5
.LM235:
	xor	a4,a4,t2
.LM236:
	add	a4,a4,a2
	lw	a2,12(sp)
.LM237:
	slli	a1,a3,5
.LM238:
	add	t3,t2,a5
.LM239:
	add	a4,a4,a2
.LM240:
	srli	a2,a3,27
	add	a2,a2,a1
.LM241:
	add	a4,a4,a2
.LM242:
.LM243:
	slli	a1,t0,30
	srli	a2,t0,2
	add	a1,a1,a2
.LM244:
.LM245:
.LM246:
.LM247:
	xor	a2,a6,a1
.LM248:
	and	a2,a2,a3
.LM249:
	add	t3,t3,s3
.LM250:
	xor	a2,a2,a6
.LM251:
	slli	t5,a4,5
.LM252:
	add	a2,a2,t3
.LM253:
	srli	t3,a4,27
	add	t3,t3,t5
.LM254:
	add	a2,a2,t3
.LM255:
.LM256:
	srli	t3,a3,2
	slli	a3,a3,30
	add	a3,a3,t3
.LM257:
.LM258:
.LM259:
.LM260:
	xor	t3,a1,a3
.LM261:
	and	t3,t3,a4
.LM262:
	add	a6,a6,a5
	add	a6,a6,s2
.LM263:
	xor	t3,t3,a1
.LM264:
	slli	t5,a2,5
.LM265:
	add	t3,t3,a6
.LM266:
	srli	a6,a2,27
	add	a6,a6,t5
.LM267:
	add	t3,t3,a6
.LM268:
.LM269:
	srli	a6,a4,2
	slli	a4,a4,30
	add	a4,a4,a6
.LM270:
.LM271:
.LM272:
.LM273:
	xor	a6,a3,a4
.LM274:
	and	a6,a6,a2
.LM275:
	add	a1,a1,a5
	add	a1,a1,t6
.LM276:
	xor	a6,a6,a3
.LM277:
	slli	t5,t3,5
.LM278:
	add	a6,a6,a1
.LM279:
	srli	a1,t3,27
	add	a1,a1,t5
.LM280:
	add	a6,a6,a1
.LM281:
.LM282:
	srli	a1,a2,2
	slli	a2,a2,30
	add	a2,a2,a1
.LM283:
.LM284:
.LM285:
.LM286:
	xor	t5,a4,a2
.LM287:
	add	a1,t4,a5
.LM288:
	and	t5,t5,t3
.LM289:
	xor	t5,t5,a4
.LM290:
	add	a1,a1,a3
	add	a1,t5,a1
.LM291:
	srli	a3,a6,27
	slli	t5,a6,5
	add	a3,a3,t5
.LM292:
	add	a1,a1,a3
.LM293:
.LM294:
	lw	a7,16(sp)
.LM295:
	srli	t5,t3,2
	slli	a3,t3,30
	add	a3,a3,t5
.LM296:
.LM297:
.LM298:
.LM299:
	xor	t3,a2,a3
.LM300:
	add	t5,a7,a5
.LM301:
	and	t3,t3,a6
.LM302:
	xor	t3,t3,a2
.LM303:
	add	t5,t5,a4
	add	t5,t3,t5
.LM304:
	srli	a4,a1,27
	slli	t3,a1,5
	add	a4,a4,t3
.LM305:
	add	t5,t5,a4
.LM306:
.LM307:
	srli	t3,a6,2
	slli	a4,a6,30
	add	a4,a4,t3
.LM308:
.LM309:
.LM310:
.LM311:
	xor	a6,a3,a4
.LM312:
	add	t3,s6,a5
.LM313:
	and	a6,a6,a1
.LM314:
	xor	a6,a6,a3
.LM315:
	add	t3,t3,a2
	add	t3,a6,t3
.LM316:
	srli	a2,t5,27
	slli	a6,t5,5
	add	a2,a2,a6
.LM317:
	add	t3,t3,a2
.LM318:
.LM319:
	srli	a2,a1,2
	slli	a1,a1,30
	add	a1,a1,a2
.LM320:
.LM321:
.LM322:
.LM323:
	xor	a6,a4,a1
.LM324:
	add	a2,s1,a5
.LM325:
	and	a6,a6,t5
.LM326:
	xor	a6,a6,a4
.LM327:
	add	a2,a2,a3
	add	a2,a6,a2
.LM328:
	srli	a3,t3,27
	slli	a6,t3,5
	add	a3,a3,a6
.LM329:
	add	a2,a2,a3
.LM330:
.LM331:
	srli	a3,t5,2
	slli	t5,t5,30
	add	t5,t5,a3
.LM332:
.LM333:
.LM334:
.LM335:
	xor	a3,a1,t5
.LM336:
	add	a6,s11,a5
.LM337:
	and	a3,a3,t3
.LM338:
	xor	a3,a3,a1
.LM339:
	add	a6,a6,a4
	add	a6,a3,a6
.LM340:
	srli	a4,a2,27
	slli	a3,a2,5
	add	a4,a4,a3
.LM341:
	add	a6,a6,a4
.LM342:
.LM343:
	srli	a4,t3,2
	slli	t3,t3,30
	add	t3,t3,a4
.LM344:
.LM345:
.LM346:
.LM347:
	xor	a3,t5,t3
.LM348:
	add	a4,s5,a5
.LM349:
	and	a3,a3,a2
.LM350:
	xor	a3,a3,t5
.LM351:
	add	a1,a4,a1
	add	a1,a3,a1
.LM352:
	srli	a4,a6,27
	slli	a3,a6,5
	add	a4,a4,a3
.LM353:
	add	a1,a1,a4
.LM354:
.LM355:
	srli	a4,a2,2
	slli	a2,a2,30
	add	a2,a2,a4
.LM356:
.LM357:
.LM358:
.LM359:
	xor	a4,t3,a2
.LM360:
	add	a3,s7,a5
.LM361:
	and	a4,a4,a6
.LM362:
	xor	a4,a4,t3
.LM363:
	add	a3,a3,t5
	add	a3,a4,a3
.LM364:
	slli	t5,a1,5
	srli	a4,a1,27
	add	a4,a4,t5
.LM365:
	add	a3,a3,a4
.LM366:
.LM367:
	srli	a4,a6,2
	slli	a6,a6,30
	add	a6,a6,a4
.LM368:
.LM369:
.LM370:
.LM371:
	xor	t5,a2,a6
.LM372:
	add	a4,s10,a5
.LM373:
	and	t5,t5,a1
.LM374:
	xor	t5,t5,a2
.LM375:
	add	a4,a4,t3
	add	a4,t5,a4
.LM376:
	srli	t3,a3,27
	slli	t5,a3,5
	add	t3,t3,t5
.LM377:
	add	a4,a4,t3
.LM378:
.LM379:
	srli	t3,a1,2
	slli	a1,a1,30
	add	a1,a1,t3
.LM380:
.LM381:
.LM382:
.LM383:
	xor	t5,a6,a1
.LM384:
	add	t3,s4,a5
.LM385:
	and	t5,t5,a3
.LM386:
	xor	t5,t5,a6
.LM387:
	add	t3,t3,a2
	add	t3,t5,t3
.LM388:
	srli	a2,a4,27
	slli	t5,a4,5
	add	a2,a2,t5
.LM389:
	add	t3,t3,a2
.LM390:
.LM391:
	srli	a2,a3,2
	slli	a3,a3,30
	add	a3,a3,a2
.LM392:
.LM393:
.LM394:
.LM395:
	xor	t5,a1,a3
.LM396:
	add	a2,s8,a5
.LM397:
	and	t5,t5,a4
.LM398:
	xor	t5,t5,a1
.LM399:
	add	a2,a2,a6
	add	a2,t5,a2
.LM400:
	srli	a6,t3,27
	slli	t5,t3,5
	add	a6,a6,t5
.LM401:
	add	a2,a2,a6
.LM402:
.LM403:
	srli	a6,a4,2
	slli	a4,a4,30
	add	a4,a4,a6
.LM404:
.LM405:
.LM406:
.LM407:
	xor	t5,a3,a4
.LM408:
	add	a6,a0,a5
.LM409:
	and	t5,t5,t3
.LM410:
	xor	t5,t5,a3
.LM411:
	add	a6,a6,a1
	add	a6,t5,a6
.LM412:
	srli	a1,a2,27
	slli	t5,a2,5
.LM413:
	xor	t1,t1,s3
.LM414:
	add	a1,a1,t5
.LM415:
	xor	t1,t1,s1
.LM416:
	add	a6,a6,a1
.LM417:
.LM418:
	xor	t1,t1,s4
.LM419:
	srli	a1,t3,2
	slli	t3,t3,30
	add	t3,t3,a1
.LM420:
.LM421:
.LM422:
.LM423:
	srli	a1,t1,31
	slli	t1,t1,1
	add	t1,t1,a1
.LM424:
	xor	t5,a4,t3
.LM425:
	add	a1,t1,a5
.LM426:
	and	t5,t5,a2
.LM427:
	xor	t5,t5,a4
.LM428:
	add	a1,a1,a3
	add	a1,t5,a1
.LM429:
	srli	a3,a6,27
	slli	t5,a6,5
	add	a3,a3,t5
.LM430:
	add	a1,a1,a3
.LM431:
.LM432:
	srli	a3,a2,2
	slli	a2,a2,30
	add	a2,a2,a3
.LM433:
.LM434:
.LM435:
.LM436:
	lw	a3,12(sp)
.LM437:
	xor	t5,t3,a2
.LM438:
	and	t5,t5,a6
.LM439:
	xor	s9,a3,s2
.LVL42:
.LM440:
	xor	s9,s9,s11
	xor	s9,s9,s8
.LM441:
	srli	a3,s9,31
	slli	s9,s9,1
	add	s9,s9,a3
.LM442:
	add	a3,s9,a5
.LM443:
	xor	t5,t5,t3
.LM444:
	add	a3,a3,a4
	add	a3,t5,a3
.LM445:
	srli	a4,a1,27
	slli	t5,a1,5
.LM446:
	xor	s3,s3,t6
.LM447:
	add	a4,a4,t5
.LM448:
	xor	s3,s3,s5
.LM449:
	add	a3,a3,a4
.LM450:
.LM451:
	xor	s3,s3,a0
.LM452:
	srli	a4,a6,2
	slli	a6,a6,30
	add	a6,a6,a4
.LM453:
.LM454:
.LM455:
.LM456:
	srli	a4,s3,31
	slli	s3,s3,1
	add	s3,s3,a4
.LM457:
	xor	t5,a2,a6
.LM458:
	add	a4,s3,a5
.LM459:
	and	t5,t5,a1
.LM460:
	xor	t5,t5,a2
.LM461:
	add	a4,a4,t3
	add	a4,t5,a4
.LM462:
	srli	t3,a3,27
	slli	t5,a3,5
.LM463:
	xor	s2,s2,t4
.LM464:
	add	t3,t3,t5
.LM465:
	xor	s2,s2,s7
.LM466:
	add	a4,a4,t3
.LM467:
.LM468:
	xor	s2,s2,t1
.LM469:
	srli	t3,a1,2
	slli	a1,a1,30
	add	a1,a1,t3
.LM470:
.LM471:
.LM472:
.LM473:
	srli	t3,s2,31
	slli	s2,s2,1
	add	s2,s2,t3
.LM474:
	xor	t3,a6,a1
.LM475:
	and	t3,t3,a3
.LM476:
	add	a5,s2,a5
.LM477:
	xor	t3,t3,a6
.LM478:
	add	a5,a5,a2
	add	a5,t3,a5
.LM479:
	srli	a2,a4,27
	slli	t3,a4,5
.LM480:
	xor	t6,t6,a7
.LM481:
	add	a2,a2,t3
.LM482:
	xor	t6,t6,s10
.LM483:
	add	a5,a5,a2
.LM484:
.LM485:
	xor	t6,t6,s9
.LM486:
	srli	a2,a3,2
	slli	a3,a3,30
	add	a3,a3,a2
.LM487:
.LM488:
.LM489:
.LM490:
	srli	a2,t6,31
	slli	t6,t6,1
	add	t6,t6,a2
.LM491:
	li	a2,1859776512
	addi	a2,a2,-1119
.LM492:
	xor	t5,a1,a3
.LM493:
	add	t3,t6,a2
.LM494:
	xor	t5,t5,a4
.LM495:
	add	t3,t3,a6
	add	t3,t5,t3
.LM496:
	srli	a6,a5,27
	slli	t5,a5,5
.LM497:
	xor	t4,t4,s6
.LM498:
	add	a6,a6,t5
.LM499:
	xor	t4,t4,s4
.LM500:
	add	t3,t3,a6
.LM501:
.LM502:
	xor	t4,t4,s3
.LM503:
	srli	a6,a4,2
	slli	a4,a4,30
	add	a4,a4,a6
.LM504:
.LM505:
.LM506:
.LM507:
	srli	a6,t4,31
	slli	t4,t4,1
	add	t4,t4,a6
.LM508:
	xor	t5,a3,a4
.LM509:
	add	a6,t4,a2
.LM510:
	xor	t5,t5,a5
.LM511:
	add	a6,a6,a1
	add	a6,t5,a6
.LM512:
	srli	a1,t3,27
	slli	t5,t3,5
.LM513:
	xor	a7,a7,s1
.LM514:
	add	a1,a1,t5
.LM515:
	xor	a7,a7,s8
.LM516:
	add	a6,a6,a1
.LM517:
.LM518:
	xor	a7,a7,s2
.LM519:
	srli	a1,a5,2
	slli	a5,a5,30
	add	a5,a5,a1
.LM520:
.LM521:
.LM522:
.LM523:
	srli	a1,a7,31
	slli	a7,a7,1
	add	a7,a7,a1
.LM524:
	xor	t5,a4,a5
.LM525:
	add	a1,a7,a2
.LM526:
	xor	t5,t5,t3
.LM527:
	add	a1,a1,a3
	add	a1,t5,a1
.LM528:
	srli	a3,a6,27
	slli	t5,a6,5
.LM529:
	xor	s6,s6,s11
.LM530:
	add	a3,a3,t5
.LM531:
	xor	s6,s6,a0
.LM532:
	add	a1,a1,a3
.LM533:
.LM534:
	xor	s6,s6,t6
.LM535:
	srli	a3,t3,2
	slli	t3,t3,30
	add	t3,t3,a3
.LM536:
.LM537:
.LM538:
.LM539:
	srli	a3,s6,31
	slli	s6,s6,1
	add	s6,s6,a3
.LM540:
	xor	t5,a5,t3
.LM541:
	add	a3,s6,a2
.LM542:
	xor	t5,t5,a6
.LM543:
	add	a3,a3,a4
	add	a3,t5,a3
.LM544:
	srli	a4,a1,27
	slli	t5,a1,5
.LM545:
	xor	s1,s1,s5
.LM546:
	add	a4,a4,t5
.LM547:
	xor	s1,s1,t1
.LM548:
	add	a3,a3,a4
.LM549:
.LM550:
	xor	s1,s1,t4
.LM551:
	srli	a4,a6,2
	slli	a6,a6,30
	add	a6,a6,a4
.LM552:
.LM553:
.LM554:
.LM555:
	srli	a4,s1,31
	slli	s1,s1,1
	add	s1,s1,a4
.LM556:
	xor	t5,t3,a6
.LM557:
	add	a4,s1,a2
.LM558:
	xor	t5,t5,a1
.LM559:
	add	a4,a4,a5
	add	a4,t5,a4
.LM560:
	srli	a5,a3,27
	slli	t5,a3,5
	add	a5,a5,t5
.LM561:
	xor	t5,s11,s7
	xor	t5,t5,s9
.LM562:
	add	a4,a4,a5
.LM563:
.LM564:
	xor	t5,t5,a7
.LM565:
	srli	a5,a1,2
	slli	a1,a1,30
	add	a1,a1,a5
.LM566:
.LM567:
.LM568:
.LM569:
	srli	a5,t5,31
	slli	t5,t5,1
	add	t5,t5,a5
.LM570:
	xor	s11,a6,a1
.LM571:
	add	a5,t5,a2
.LM572:
	xor	s11,s11,a3
.LM573:
	add	a5,a5,t3
	add	a5,s11,a5
.LM574:
	srli	t3,a4,27
	slli	s11,a4,5
	add	t3,t3,s11
.LM575:
	add	a5,a5,t3
.LM576:
.LM577:
	srli	t3,a3,2
	slli	a3,a3,30
	add	a3,a3,t3
.LM578:
.LM579:
.LM580:
.LM581:
	xor	t3,s5,s10
	xor	t3,t3,s3
	xor	t3,t3,s6
.LM582:
	srli	s11,t3,31
	slli	t3,t3,1
	add	t3,t3,s11
.LM583:
	add	s5,t3,a2
.LM584:
	xor	s11,a1,a3
	xor	s11,s11,a4
.LM585:
	add	s5,s5,a6
	add	s5,s11,s5
.LM586:
	srli	a6,a5,27
	slli	s11,a5,5
	add	a6,a6,s11
.LM587:
	add	s5,s5,a6
.LM588:
.LM589:
	srli	a6,a4,2
	slli	a4,a4,30
	add	a4,a4,a6
.LM590:
.LM591:
.LM592:
.LM593:
	xor	a6,s7,s4
	xor	a6,a6,s2
	xor	a6,a6,s1
.LM594:
	srli	s11,a6,31
	slli	a6,a6,1
	add	a6,a6,s11
.LM595:
	add	s7,a6,a2
.LM596:
	xor	s11,a3,a4
	xor	s11,s11,a5
.LM597:
	add	s7,s7,a1
	add	s7,s11,s7
.LM598:
	srli	a1,s5,27
	slli	s11,s5,5
.LM599:
	xor	s10,s10,s8
.LM600:
	add	a1,a1,s11
.LM601:
	xor	s10,s10,t6
.LM602:
	add	s7,s7,a1
.LM603:
.LM604:
	xor	s10,s10,t5
.LM605:
	srli	a1,a5,2
	slli	a5,a5,30
	add	a5,a5,a1
.LM606:
.LM607:
.LM608:
.LM609:
	srli	a1,s10,31
	slli	s10,s10,1
	add	s10,s10,a1
.LM610:
	xor	s11,a4,a5
.LM611:
	add	a1,s10,a2
.LM612:
	xor	s11,s11,s5
.LM613:
	add	a1,a1,a3
	add	a1,s11,a1
.LM614:
	srli	a3,s7,27
	slli	s11,s7,5
	add	a3,a3,s11
.LM615:
	add	a1,a1,a3
.LM616:
.LM617:
	srli	a3,s5,2
	slli	s5,s5,30
	add	s5,s5,a3
.LM618:
.LM619:
.LM620:
.LM621:
	xor	a3,s4,a0
	xor	a3,a3,t4
	xor	a3,a3,t3
.LM622:
	srli	s11,a3,31
	slli	a3,a3,1
	add	a3,a3,s11
.LM623:
	add	s4,a3,a2
.LM624:
	xor	s11,a5,s5
	xor	s11,s11,s7
.LM625:
	add	s4,s4,a4
	add	s4,s11,s4
.LM626:
	srli	a4,a1,27
	slli	s11,a1,5
	add	a4,a4,s11
.LM627:
	add	s4,s4,a4
.LM628:
.LM629:
	srli	a4,s7,2
	slli	s7,s7,30
	add	s7,s7,a4
.LM630:
.LM631:
.LM632:
.LM633:
	xor	a4,s8,t1
	xor	a4,a4,a7
	xor	a4,a4,a6
.LM634:
	srli	s11,a4,31
	slli	a4,a4,1
	add	a4,a4,s11
.LM635:
	add	s8,a4,a2
.LM636:
	xor	s11,s5,s7
	xor	s11,s11,a1
.LM637:
	add	s8,s8,a5
	add	s8,s11,s8
.LM638:
	srli	a5,s4,27
	slli	s11,s4,5
	add	a5,a5,s11
.LM639:
	add	s8,s8,a5
.LM640:
.LM641:
	srli	a5,a1,2
	slli	a1,a1,30
	add	a1,a1,a5
.LM642:
.LM643:
.LM644:
.LM645:
	xor	a5,a0,s9
	xor	a5,a5,s6
	xor	a5,a5,s10
.LM646:
	srli	s11,a5,31
	slli	a5,a5,1
	add	a5,a5,s11
.LM647:
	add	a0,a5,a2
.LM648:
	xor	s11,s7,a1
	xor	s11,s11,s4
.LM649:
	add	s5,a0,s5
	add	s5,s11,s5
.LM650:
	srli	a0,s8,27
	slli	s11,s8,5
.LM651:
	xor	t1,t1,s3
.LM652:
	add	a0,a0,s11
.LM653:
	xor	t1,t1,s1
.LM654:
	add	s5,s5,a0
.LM655:
.LM656:
	xor	t1,t1,a3
.LM657:
	srli	a0,s4,2
	slli	s4,s4,30
	add	s4,s4,a0
.LM658:
.LM659:
.LM660:
.LM661:
	srli	a0,t1,31
	slli	t1,t1,1
	add	t1,t1,a0
.LM662:
	add	a0,t1,a2
.LM663:
	xor	s11,a1,s4
	xor	s11,s11,s8
.LM664:
	add	s7,a0,s7
	add	s7,s11,s7
.LM665:
	srli	a0,s5,27
	slli	s11,s5,5
	add	a0,a0,s11
.LM666:
	add	s7,s7,a0
.LM667:
.LM668:
	srli	a0,s8,2
	slli	s8,s8,30
	add	s8,s8,a0
.LM669:
.LM670:
.LM671:
.LM672:
	xor	a0,s9,s2
	xor	a0,a0,t5
	xor	a0,a0,a4
.LM673:
	srli	s11,a0,31
	slli	a0,a0,1
	add	a0,a0,s11
.LM674:
	add	s9,a0,a2
.LM675:
	xor	s11,s4,s8
	xor	s11,s11,s5
.LM676:
	add	a1,s9,a1
	add	a1,s11,a1
.LM677:
	srli	s9,s7,27
	slli	s11,s7,5
.LM678:
	xor	s3,s3,t6
.LM679:
	add	s9,s9,s11
.LM680:
	xor	s3,s3,t3
.LM681:
	add	a1,a1,s9
.LM682:
.LM683:
	xor	s3,s3,a5
.LM684:
	srli	s9,s5,2
	slli	s5,s5,30
	add	s5,s5,s9
.LM685:
.LM686:
.LM687:
.LM688:
	srli	s9,s3,31
	slli	s3,s3,1
	add	s3,s3,s9
.LM689:
	add	s9,s3,a2
.LM690:
	xor	s11,s8,s5
	xor	s11,s11,s7
.LM691:
	add	s4,s9,s4
	add	s4,s11,s4
.LM692:
	srli	s9,a1,27
	slli	s11,a1,5
.LM693:
	xor	s2,s2,t4
.LM694:
	add	s9,s9,s11
.LM695:
	xor	s2,s2,a6
.LM696:
	add	s4,s4,s9
.LM697:
.LM698:
	xor	s2,s2,t1
.LM699:
	srli	s9,s7,2
	slli	s7,s7,30
	add	s7,s7,s9
.LM700:
.LM701:
.LM702:
.LM703:
	srli	s9,s2,31
	slli	s2,s2,1
	add	s2,s2,s9
.LM704:
	xor	s11,s5,s7
.LM705:
	add	s9,s2,a2
.LM706:
	xor	s11,s11,a1
.LM707:
	add	s9,s9,s8
	add	s9,s11,s9
.LM708:
	srli	s8,s4,27
	slli	s11,s4,5
.LM709:
	xor	t6,t6,a7
.LM710:
	add	s8,s8,s11
.LM711:
	xor	t6,t6,s10
.LM712:
	add	s9,s9,s8
.LM713:
.LM714:
	xor	t6,t6,a0
.LM715:
	srli	s8,a1,2
	slli	a1,a1,30
	add	a1,a1,s8
.LM716:
.LM717:
.LM718:
.LM719:
	srli	s8,t6,31
	slli	t6,t6,1
	add	t6,t6,s8
.LM720:
	xor	s11,s7,a1
.LM721:
	add	s8,t6,a2
.LM722:
	xor	s11,s11,s4
.LM723:
	add	s8,s8,s5
	add	s8,s11,s8
.LM724:
	srli	s5,s9,27
	slli	s11,s9,5
.LM725:
	xor	t4,t4,s6
.LM726:
	add	s5,s5,s11
.LM727:
	xor	t4,t4,a3
.LM728:
	add	s8,s8,s5
.LM729:
.LM730:
	xor	t4,t4,s3
.LM731:
	srli	s5,s4,2
	slli	s4,s4,30
	add	s4,s4,s5
.LM732:
.LM733:
.LM734:
.LM735:
	srli	s5,t4,31
	slli	t4,t4,1
	add	t4,t4,s5
.LM736:
	xor	s11,a1,s4
.LM737:
	add	s5,t4,a2
.LM738:
	xor	s11,s11,s9
.LM739:
	add	s5,s5,s7
	add	s5,s11,s5
.LM740:
	srli	s7,s8,27
	slli	s11,s8,5
.LM741:
	xor	a7,a7,s1
.LM742:
	add	s7,s7,s11
.LM743:
	xor	a7,a7,a4
.LM744:
	add	s5,s5,s7
.LM745:
.LM746:
	xor	a7,a7,s2
.LM747:
	srli	s7,s9,2
	slli	s9,s9,30
	add	s9,s9,s7
.LM748:
.LM749:
.LM750:
.LM751:
	srli	s7,a7,31
	slli	a7,a7,1
	add	a7,a7,s7
.LM752:
	xor	s11,s4,s9
.LM753:
	add	s7,a7,a2
.LM754:
	xor	s11,s11,s8
.LM755:
	add	s7,s7,a1
.LM756:
	xor	s6,s6,t5
.LM757:
	add	s7,s11,s7
.LM758:
	srli	a1,s5,27
	slli	s11,s5,5
.LM759:
	xor	s6,s6,a5
.LM760:
	add	a1,a1,s11
.LM761:
	xor	s6,s6,t6
.LM762:
	add	s7,s7,a1
.LM763:
.LM764:
	srli	s11,s6,31
.LM765:
	srli	a1,s8,2
.LM766:
	slli	s6,s6,1
.LM767:
	slli	s8,s8,30
.LM768:
	add	s6,s6,s11
.LM769:
	add	s8,s8,a1
.LM770:
.LM771:
.LM772:
.LM773:
	xor	s11,s9,s8
.LM774:
	add	a2,s6,a2
.LM775:
	xor	s11,s11,s5
.LM776:
	add	a1,a2,s4
.LM777:
	xor	s1,s1,t3
.LM778:
	slli	s4,s7,5
	srli	a2,s7,27
	add	a2,a2,s4
.LM779:
	add	a1,s11,a1
.LM780:
	xor	s1,s1,t1
.LM781:
	add	a1,a1,a2
.LM782:
.LM783:
	xor	s1,s1,t4
.LM784:
	srli	a2,s5,2
	slli	s5,s5,30
	add	s5,s5,a2
.LM785:
.LM786:
.LM787:
.LM788:
	li	s4,-1894006784
.LM789:
	srli	a2,s1,31
	slli	s1,s1,1
.LM790:
	addi	s4,s4,-804
.LM791:
	add	s1,s1,a2
.LM792:
	add	a2,s1,s4
	add	a2,a2,s9
.LM793:
	slli	s11,a1,5
	srli	s9,a1,27
	add	s9,s9,s11
.LM794:
	add	s9,a2,s9
.LM795:
	or	a2,s7,s5
.LM796:
	and	s11,s7,s5
.LM797:
	and	a2,a2,s8
.LM798:
	xor	t5,t5,a6
.LM799:
	or	a2,a2,s11
.LM800:
	xor	t5,t5,a0
.LM801:
	add	s9,s9,a2
.LM802:
.LM803:
	srli	s11,s7,2
.LM804:
	xor	t5,t5,a7
.LM805:
	slli	a2,s7,30
	add	a2,a2,s11
.LM806:
.LM807:
.LM808:
.LM809:
	srli	s7,t5,31
	slli	t5,t5,1
	add	t5,t5,s7
.LM810:
	or	s7,a1,a2
.LM811:
	and	s7,s7,s5
.LM812:
	and	s11,a1,a2
.LM813:
	or	s11,s7,s11
.LM814:
	add	s7,t5,s4
	add	s7,s7,s8
	add	s7,s11,s7
.LM815:
	srli	s8,s9,27
	slli	s11,s9,5
.LM816:
	xor	t3,t3,s10
.LM817:
	add	s8,s8,s11
.LM818:
	xor	t3,t3,s3
.LM819:
	add	s7,s7,s8
.LM820:
.LM821:
	xor	t3,t3,s6
.LM822:
	srli	s8,a1,2
	slli	a1,a1,30
	add	a1,a1,s8
.LM823:
.LM824:
.LM825:
.LM826:
	srli	s8,t3,31
	slli	t3,t3,1
	add	t3,t3,s8
.LM827:
	add	s8,t3,s4
	add	s8,s8,s5
.LM828:
	slli	s11,s7,5
	srli	s5,s7,27
	add	s5,s5,s11
.LM829:
	add	s5,s8,s5
.LM830:
	or	s8,s9,a1
.LM831:
	and	s11,s9,a1
.LM832:
	and	s8,s8,a2
.LM833:
	xor	a6,a6,a3
.LM834:
	or	s8,s8,s11
.LM835:
	xor	a6,a6,s2
.LM836:
	add	s5,s5,s8
.LM837:
.LM838:
	xor	a6,a6,s1
.LM839:
	srli	s8,s9,2
	slli	s9,s9,30
	add	s9,s9,s8
.LM840:
.LM841:
.LM842:
.LM843:
	srli	s8,a6,31
	slli	a6,a6,1
	add	a6,a6,s8
.LM844:
	or	s8,s7,s9
.LM845:
	and	s8,s8,a1
.LM846:
	and	s11,s7,s9
.LM847:
	or	s11,s8,s11
.LM848:
	add	s8,a6,s4
	add	s8,s8,a2
	add	s8,s11,s8
.LM849:
	srli	a2,s5,27
	slli	s11,s5,5
	add	a2,a2,s11
.LM850:
	add	s8,s8,a2
.LM851:
.LM852:
	srli	a2,s7,2
	slli	s7,s7,30
	add	s7,s7,a2
.LM853:
.LM854:
.LM855:
.LM856:
	xor	a2,s10,a4
	xor	a2,a2,t6
	xor	a2,a2,t5
.LM857:
	srli	s11,a2,31
	slli	a2,a2,1
	add	a2,a2,s11
.LM858:
	add	s10,a2,s4
	add	a1,s10,a1
.LM859:
	slli	s11,s8,5
	srli	s10,s8,27
	add	s10,s10,s11
.LM860:
	add	s10,a1,s10
.LM861:
	or	a1,s5,s7
.LM862:
	and	s11,s5,s7
.LM863:
	and	a1,a1,s9
.LM864:
	xor	a3,a3,a5
.LM865:
	or	a1,a1,s11
.LM866:
	xor	a3,a3,t4
.LM867:
	add	s10,s10,a1
.LM868:
.LM869:
	xor	a3,a3,t3
.LM870:
	srli	a1,s5,2
	slli	s5,s5,30
	add	s5,s5,a1
.LM871:
.LM872:
.LM873:
.LM874:
	srli	a1,a3,31
	slli	a3,a3,1
	add	a3,a3,a1
.LM875:
	or	a1,s8,s5
.LM876:
	and	a1,a1,s7
.LM877:
	and	s11,s8,s5
.LM878:
	or	s11,a1,s11
.LM879:
	add	a1,a3,s4
	add	s9,a1,s9
.LM880:
	xor	a4,a4,t1
.LM881:
	add	s9,s11,s9
.LM882:
	srli	a1,s10,27
	slli	s11,s10,5
.LM883:
	xor	a4,a4,a7
.LM884:
	add	a1,a1,s11
.LM885:
	xor	a4,a4,a6
.LM886:
	add	s9,s9,a1
.LM887:
.LM888:
	srli	s11,s8,2
	slli	a1,s8,30
.LM889:
	srli	s8,a4,31
	slli	a4,a4,1
	add	a4,a4,s8
.LM890:
	add	s8,a4,s4
.LM891:
	add	a1,a1,s11
.LM892:
.LM893:
.LM894:
.LM895:
	add	s7,s8,s7
.LM896:
	slli	s11,s9,5
	srli	s8,s9,27
	add	s8,s8,s11
.LM897:
	add	s8,s7,s8
.LM898:
	or	s7,s10,a1
.LM899:
	and	s11,s10,a1
.LM900:
	and	s7,s7,s5
.LM901:
	xor	a5,a5,a0
.LM902:
	or	s7,s7,s11
.LM903:
	xor	a5,a5,s6
.LM904:
	add	s8,s8,s7
.LM905:
.LM906:
	xor	a5,a5,a2
.LM907:
	srli	s7,s10,2
	slli	s10,s10,30
	add	s10,s10,s7
.LM908:
.LM909:
.LM910:
.LM911:
	srli	s7,a5,31
	slli	a5,a5,1
	add	a5,a5,s7
.LM912:
	or	s7,s9,s10
.LM913:
	and	s7,s7,a1
.LM914:
	and	s11,s9,s10
.LM915:
	or	s11,s7,s11
.LM916:
	add	s7,a5,s4
	add	s7,s7,s5
	add	s7,s11,s7
.LM917:
	srli	s5,s8,27
	slli	s11,s8,5
.LM918:
	xor	t1,t1,s3
.LM919:
	add	s5,s5,s11
.LM920:
	xor	t1,t1,s1
.LM921:
	add	s7,s7,s5
.LM922:
.LM923:
	xor	t1,t1,a3
.LM924:
	srli	s5,s9,2
	slli	s9,s9,30
	add	s9,s9,s5
.LM925:
.LM926:
.LM927:
.LM928:
	srli	s5,t1,31
	slli	t1,t1,1
	add	t1,t1,s5
.LM929:
	add	s5,t1,s4
	add	a1,s5,a1
.LM930:
	slli	s11,s7,5
	srli	s5,s7,27
	add	s5,s5,s11
.LM931:
	add	s5,a1,s5
.LM932:
	or	a1,s8,s9
.LM933:
	and	s11,s8,s9
.LM934:
	and	a1,a1,s10
.LM935:
	xor	a0,a0,s2
.LM936:
	or	a1,a1,s11
.LM937:
	xor	a0,a0,t5
.LM938:
	add	s5,s5,a1
.LM939:
.LM940:
	xor	a0,a0,a4
.LM941:
	srli	a1,s8,2
	slli	s8,s8,30
	add	s8,s8,a1
.LM942:
.LM943:
.LM944:
.LM945:
	srli	a1,a0,31
	slli	a0,a0,1
	add	a0,a0,a1
.LM946:
	or	a1,s7,s8
.LM947:
	and	a1,a1,s9
.LM948:
	and	s11,s7,s8
.LM949:
	or	s11,a1,s11
.LM950:
	add	a1,a0,s4
	add	a1,a1,s10
	add	a1,s11,a1
.LM951:
	srli	s10,s5,27
	slli	s11,s5,5
.LM952:
	xor	s3,s3,t6
.LM953:
	add	s10,s10,s11
.LM954:
	xor	s3,s3,t3
.LM955:
	add	a1,a1,s10
.LM956:
.LM957:
	xor	s3,s3,a5
.LM958:
	srli	s10,s7,2
	slli	s7,s7,30
	add	s7,s7,s10
.LM959:
.LM960:
.LM961:
.LM962:
	srli	s10,s3,31
	slli	s3,s3,1
	add	s3,s3,s10
.LM963:
	add	s10,s3,s4
	add	s10,s10,s9
.LM964:
	slli	s11,a1,5
	srli	s9,a1,27
	add	s9,s9,s11
.LM965:
	add	s9,s10,s9
.LM966:
	or	s10,s5,s7
.LM967:
	and	s11,s5,s7
.LM968:
	and	s10,s10,s8
.LM969:
	xor	s2,s2,t4
.LM970:
	or	s10,s10,s11
.LM971:
	xor	s2,s2,a6
.LM972:
	add	s9,s9,s10
.LM973:
.LM974:
	xor	s2,s2,t1
.LM975:
	srli	s10,s5,2
	slli	s5,s5,30
	add	s5,s5,s10
.LM976:
.LM977:
.LM978:
.LM979:
	srli	s10,s2,31
	slli	s2,s2,1
	add	s2,s2,s10
.LM980:
	or	s10,a1,s5
.LM981:
	and	s10,s10,s7
.LM982:
	and	s11,a1,s5
.LM983:
	or	s11,s10,s11
.LM984:
	add	s10,s2,s4
	add	s10,s10,s8
	add	s10,s11,s10
.LM985:
	srli	s8,s9,27
	slli	s11,s9,5
.LM986:
	xor	t6,t6,a7
.LM987:
	add	s8,s8,s11
.LM988:
	xor	t6,t6,a2
.LM989:
	add	s10,s10,s8
.LM990:
.LM991:
	xor	t6,t6,a0
.LM992:
	srli	s8,a1,2
	slli	a1,a1,30
	add	a1,a1,s8
.LM993:
.LM994:
.LM995:
.LM996:
	srli	s8,t6,31
	slli	t6,t6,1
	add	t6,t6,s8
.LM997:
	add	s8,t6,s4
	add	s8,s8,s7
.LM998:
	slli	s11,s10,5
	srli	s7,s10,27
	add	s7,s7,s11
.LM999:
	add	s7,s8,s7
.LM1000:
	or	s8,s9,a1
.LM1001:
	and	s11,s9,a1
.LM1002:
	and	s8,s8,s5
.LM1003:
	xor	t4,t4,s6
.LM1004:
	or	s8,s8,s11
.LM1005:
	xor	t4,t4,a3
.LM1006:
	add	s7,s7,s8
.LM1007:
.LM1008:
	xor	t4,t4,s3
.LM1009:
	srli	s8,s9,2
	slli	s9,s9,30
	add	s9,s9,s8
.LM1010:
.LM1011:
.LM1012:
.LM1013:
	srli	s8,t4,31
	slli	t4,t4,1
	add	t4,t4,s8
.LM1014:
	or	s8,s10,s9
.LM1015:
	and	s8,s8,a1
.LM1016:
	and	s11,s10,s9
.LM1017:
	or	s11,s8,s11
.LM1018:
	add	s8,t4,s4
	add	s8,s8,s5
	add	s8,s11,s8
.LM1019:
	srli	s5,s7,27
	slli	s11,s7,5
.LM1020:
	xor	a7,a7,s1
.LM1021:
	add	s5,s5,s11
.LM1022:
	xor	a7,a7,a4
.LM1023:
	add	s8,s8,s5
.LM1024:
.LM1025:
	xor	a7,a7,s2
.LM1026:
	srli	s5,s10,2
	slli	s10,s10,30
	add	s10,s10,s5
.LM1027:
.LM1028:
.LM1029:
.LM1030:
	srli	s5,a7,31
	slli	a7,a7,1
	add	a7,a7,s5
.LM1031:
	add	s5,a7,s4
	add	a1,s5,a1
.LM1032:
	slli	s11,s8,5
	srli	s5,s8,27
	add	s5,s5,s11
.LM1033:
	add	s5,a1,s5
.LM1034:
	or	a1,s7,s10
.LM1035:
	and	s11,s7,s10
.LM1036:
	and	a1,a1,s9
.LM1037:
	or	a1,a1,s11
.LM1038:
	add	s5,s5,a1
.LM1039:
.LM1040:
	srli	a1,s7,2
	slli	s7,s7,30
	add	s7,s7,a1
.LM1041:
.LM1042:
.LM1043:
.LM1044:
	xor	a1,s6,t5
	xor	a1,a1,a5
	xor	a1,a1,t6
.LM1045:
	srli	s11,a1,31
.LM1046:
	or	s6,s8,s7
.LM1047:
	slli	a1,a1,1
	add	a1,a1,s11
.LM1048:
	and	s6,s6,s10
.LM1049:
	and	s11,s8,s7
.LM1050:
	or	s11,s6,s11
.LM1051:
	add	s6,a1,s4
	add	s9,s6,s9
	add	s9,s11,s9
.LM1052:
	srli	s6,s5,27
	slli	s11,s5,5
.LM1053:
	xor	s1,s1,t3
.LM1054:
	add	s6,s6,s11
.LM1055:
	xor	s1,s1,t1
.LM1056:
	add	s9,s9,s6
.LM1057:
.LM1058:
	xor	s1,s1,t4
.LM1059:
	srli	s6,s8,2
	slli	s8,s8,30
	add	s8,s8,s6
.LM1060:
.LM1061:
.LM1062:
.LM1063:
	srli	s6,s1,31
	slli	s1,s1,1
	add	s1,s1,s6
.LM1064:
	add	s6,s1,s4
	add	s10,s6,s10
.LM1065:
	slli	s11,s9,5
	srli	s6,s9,27
	add	s6,s6,s11
.LM1066:
	add	s6,s10,s6
.LM1067:
	or	s10,s5,s8
.LM1068:
	and	s11,s5,s8
.LM1069:
	and	s10,s10,s7
.LM1070:
	xor	t5,t5,a6
.LM1071:
	or	s10,s10,s11
.LM1072:
	xor	t5,t5,a0
.LM1073:
	add	s6,s6,s10
.LM1074:
.LM1075:
	xor	t5,t5,a7
.LM1076:
	srli	s10,s5,2
	slli	s5,s5,30
	add	s5,s5,s10
.LM1077:
.LM1078:
.LM1079:
.LM1080:
	srli	s10,t5,31
	slli	t5,t5,1
	add	t5,t5,s10
.LM1081:
	or	s10,s9,s5
.LM1082:
	and	s10,s10,s8
.LM1083:
	and	s11,s9,s5
.LM1084:
	or	s11,s10,s11
.LM1085:
	add	s10,t5,s4
	add	s7,s10,s7
	add	s7,s11,s7
.LM1086:
	srli	s10,s6,27
	slli	s11,s6,5
.LM1087:
	xor	t3,t3,a2
.LM1088:
	add	s10,s10,s11
.LM1089:
	xor	t3,t3,s3
.LM1090:
	add	s7,s7,s10
.LM1091:
.LM1092:
	xor	t3,t3,a1
.LM1093:
	srli	s10,s9,2
	slli	s9,s9,30
	add	s9,s9,s10
.LM1094:
.LM1095:
.LM1096:
.LM1097:
	srli	s10,t3,31
	slli	t3,t3,1
	add	t3,t3,s10
.LM1098:
	add	s10,t3,s4
	add	s10,s10,s8
.LM1099:
	slli	s11,s7,5
	srli	s8,s7,27
	add	s8,s8,s11
.LM1100:
	add	s8,s10,s8
.LM1101:
	or	s10,s6,s9
.LM1102:
	and	s11,s6,s9
.LM1103:
	and	s10,s10,s5
.LM1104:
	xor	a6,a6,a3
.LM1105:
	or	s10,s10,s11
.LM1106:
	xor	a6,a6,s2
.LM1107:
	add	s8,s8,s10
.LM1108:
.LM1109:
	xor	a6,a6,s1
.LM1110:
	srli	s10,s6,2
	slli	s6,s6,30
	add	s6,s6,s10
.LM1111:
.LM1112:
.LM1113:
.LM1114:
	srli	s10,a6,31
	slli	a6,a6,1
	add	a6,a6,s10
.LM1115:
	or	s11,s7,s6
.LM1116:
	and	s11,s11,s9
.LM1117:
	and	s10,s7,s6
.LM1118:
	add	s4,a6,s4
.LM1119:
	or	s10,s11,s10
.LM1120:
	add	s4,s4,s5
	add	s4,s10,s4
.LM1121:
	srli	s5,s8,27
	slli	s10,s8,5
.LM1122:
	xor	a2,a2,a4
.LM1123:
	add	s5,s5,s10
.LM1124:
	xor	a2,a2,t6
.LM1125:
	add	s4,s4,s5
.LM1126:
.LM1127:
	xor	a2,a2,t5
.LM1128:
	srli	s5,s7,2
	slli	s7,s7,30
	add	s7,s7,s5
.LM1129:
.LM1130:
.LM1131:
.LM1132:
	srli	s5,a2,31
	slli	a2,a2,1
	add	a2,a2,s5
.LM1133:
	li	s5,-899497984
	addi	s5,s5,470
	add	s10,a2,s5
.LM1134:
	xor	s11,s6,s7
	xor	s11,s11,s8
.LM1135:
	add	s9,s10,s9
	add	s9,s11,s9
.LM1136:
	srli	s10,s4,27
	slli	s11,s4,5
.LM1137:
	xor	a3,a3,a5
.LM1138:
	add	s10,s10,s11
.LM1139:
	xor	a3,a3,t4
.LM1140:
	add	s9,s9,s10
.LM1141:
.LM1142:
	xor	a3,a3,t3
.LM1143:
	srli	s10,s8,2
	slli	s8,s8,30
	add	s8,s8,s10
.LM1144:
.LM1145:
.LM1146:
.LM1147:
	srli	s10,a3,31
	slli	a3,a3,1
	add	a3,a3,s10
.LM1148:
	add	s10,a3,s5
.LM1149:
	xor	s11,s7,s8
	xor	s11,s11,s4
.LM1150:
	add	s6,s10,s6
	add	s6,s11,s6
.LM1151:
	srli	s10,s9,27
	slli	s11,s9,5
.LM1152:
	xor	a4,a4,t1
.LM1153:
	add	s10,s10,s11
.LM1154:
	xor	a4,a4,a7
.LM1155:
	add	s6,s6,s10
.LM1156:
.LM1157:
	xor	a4,a4,a6
.LM1158:
	srli	s10,s4,2
	slli	s4,s4,30
	add	s4,s4,s10
.LM1159:
.LM1160:
.LM1161:
.LM1162:
	srli	s10,a4,31
	slli	a4,a4,1
	add	a4,a4,s10
.LM1163:
	add	s10,a4,s5
.LM1164:
	xor	s11,s8,s4
	xor	s11,s11,s9
.LM1165:
	add	s7,s10,s7
	add	s7,s11,s7
.LM1166:
	srli	s10,s6,27
	slli	s11,s6,5
.LM1167:
	xor	a5,a5,a0
.LM1168:
	add	s10,s10,s11
.LM1169:
	xor	a5,a5,a1
.LM1170:
	add	s7,s7,s10
.LM1171:
.LM1172:
	xor	a5,a5,a2
.LM1173:
	srli	s10,s9,2
	slli	s9,s9,30
	add	s9,s9,s10
.LM1174:
.LM1175:
.LM1176:
.LM1177:
	srli	s10,a5,31
	slli	a5,a5,1
	add	a5,a5,s10
.LM1178:
	add	s10,a5,s5
.LM1179:
	xor	s11,s4,s9
	xor	s11,s11,s6
.LM1180:
	add	s8,s10,s8
	add	s8,s11,s8
.LM1181:
	srli	s10,s7,27
	slli	s11,s7,5
.LM1182:
	xor	t1,t1,s3
.LM1183:
	add	s10,s10,s11
.LM1184:
	xor	t1,t1,s1
.LM1185:
	add	s8,s8,s10
.LM1186:
.LM1187:
	xor	t1,t1,a3
.LM1188:
	srli	s10,s6,2
	slli	s6,s6,30
	add	s6,s6,s10
.LM1189:
.LM1190:
.LM1191:
.LM1192:
	srli	s10,t1,31
	slli	t1,t1,1
	add	t1,t1,s10
.LM1193:
	add	s10,t1,s5
.LM1194:
	xor	s11,s9,s6
	xor	s11,s11,s7
.LM1195:
	add	s4,s10,s4
	add	s4,s11,s4
.LM1196:
	srli	s10,s8,27
	slli	s11,s8,5
.LM1197:
	xor	a0,a0,s2
.LM1198:
	add	s10,s10,s11
.LM1199:
	xor	a0,a0,t5
.LM1200:
	add	s4,s4,s10
.LM1201:
.LM1202:
	xor	a0,a0,a4
.LM1203:
	srli	s10,s7,2
	slli	s7,s7,30
	add	s7,s7,s10
.LM1204:
.LM1205:
.LM1206:
.LM1207:
	srli	s10,a0,31
	slli	a0,a0,1
	add	a0,a0,s10
.LM1208:
	add	s10,a0,s5
.LM1209:
	xor	s11,s6,s7
	xor	s11,s11,s8
.LM1210:
	add	s9,s10,s9
	add	s9,s11,s9
.LM1211:
	srli	s10,s4,27
	slli	s11,s4,5
.LM1212:
	xor	s3,s3,t6
.LM1213:
	add	s10,s10,s11
.LM1214:
	xor	s3,s3,t3
.LM1215:
	add	s9,s9,s10
.LM1216:
.LM1217:
	xor	s3,s3,a5
.LM1218:
	srli	s10,s8,2
	slli	s8,s8,30
	add	s8,s8,s10
.LM1219:
.LM1220:
.LM1221:
.LM1222:
	srli	s10,s3,31
	slli	s3,s3,1
	add	s3,s3,s10
.LM1223:
	add	s10,s3,s5
.LM1224:
	xor	s11,s7,s8
	xor	s11,s11,s4
.LM1225:
	add	s6,s10,s6
	add	s6,s11,s6
.LM1226:
	srli	s10,s9,27
	slli	s11,s9,5
.LM1227:
	xor	s2,s2,t4
.LM1228:
	add	s10,s10,s11
.LM1229:
	xor	s2,s2,a6
.LM1230:
	add	s6,s6,s10
.LM1231:
.LM1232:
	xor	s2,s2,t1
.LM1233:
	srli	s10,s4,2
	slli	s4,s4,30
	add	s4,s4,s10
.LM1234:
.LM1235:
.LM1236:
.LM1237:
	srli	s10,s2,31
	slli	s2,s2,1
	add	s2,s2,s10
.LM1238:
	add	s10,s2,s5
.LM1239:
	xor	s11,s8,s4
	xor	s11,s11,s9
.LM1240:
	add	s7,s10,s7
	add	s7,s11,s7
.LM1241:
	srli	s10,s6,27
	slli	s11,s6,5
.LM1242:
	xor	t6,t6,a7
.LM1243:
	add	s10,s10,s11
.LM1244:
	xor	t6,t6,a2
.LM1245:
	add	s7,s7,s10
.LM1246:
.LM1247:
	xor	t6,t6,a0
.LM1248:
	srli	s10,s9,2
	slli	s9,s9,30
	add	s9,s9,s10
.LM1249:
.LM1250:
.LM1251:
.LM1252:
	srli	s10,t6,31
	slli	t6,t6,1
	add	t6,t6,s10
.LM1253:
	add	s10,t6,s5
.LM1254:
	xor	s11,s4,s9
	xor	s11,s11,s6
.LM1255:
	add	s8,s10,s8
	add	s8,s11,s8
.LM1256:
	srli	s10,s7,27
	slli	s11,s7,5
.LM1257:
	xor	t4,t4,a1
.LM1258:
	add	s10,s10,s11
.LM1259:
	xor	t4,t4,a3
.LM1260:
	add	s8,s8,s10
.LM1261:
.LM1262:
	xor	t4,t4,s3
.LM1263:
	srli	s10,s6,2
	slli	s6,s6,30
	add	s6,s6,s10
.LM1264:
.LM1265:
.LM1266:
.LM1267:
	srli	s10,t4,31
	slli	t4,t4,1
	add	t4,t4,s10
.LM1268:
	add	s10,t4,s5
.LM1269:
	xor	s11,s9,s6
	xor	s11,s11,s7
.LM1270:
	add	s4,s10,s4
	add	s4,s11,s4
.LM1271:
	srli	s10,s8,27
	slli	s11,s8,5
.LM1272:
	xor	a7,a7,s1
.LM1273:
	add	s10,s10,s11
.LM1274:
	xor	a7,a7,a4
.LM1275:
	add	s4,s4,s10
.LM1276:
.LM1277:
	xor	a7,a7,s2
.LM1278:
	srli	s10,s7,2
	slli	s7,s7,30
	add	s7,s7,s10
.LM1279:
.LM1280:
.LM1281:
.LM1282:
	srli	s10,a7,31
	slli	a7,a7,1
	add	a7,a7,s10
.LM1283:
	add	s10,a7,s5
.LM1284:
	xor	s11,s6,s7
	xor	s11,s11,s8
.LM1285:
	add	s9,s10,s9
	add	s9,s11,s9
.LM1286:
	srli	s10,s4,27
	slli	s11,s4,5
.LM1287:
	xor	a1,a1,t5
.LM1288:
	add	s10,s10,s11
.LM1289:
	xor	a1,a1,a5
.LM1290:
	add	s9,s9,s10
.LM1291:
.LM1292:
	xor	a1,a1,t6
.LM1293:
	srli	s10,s8,2
	slli	s8,s8,30
	add	s8,s8,s10
.LM1294:
.LM1295:
.LM1296:
.LM1297:
	srli	s10,a1,31
	slli	a1,a1,1
	add	a1,a1,s10
.LM1298:
	add	s10,a1,s5
.LM1299:
	xor	s11,s7,s8
	xor	s11,s11,s4
.LM1300:
	add	s6,s10,s6
	add	s6,s11,s6
.LM1301:
	srli	s10,s9,27
	slli	s11,s9,5
.LM1302:
	xor	s1,s1,t3
.LM1303:
	add	s10,s10,s11
.LM1304:
	xor	s1,s1,t1
.LM1305:
	add	s6,s6,s10
.LM1306:
.LM1307:
	xor	s1,s1,t4
.LM1308:
	srli	s10,s4,2
	slli	s4,s4,30
	add	s4,s4,s10
.LM1309:
.LM1310:
.LM1311:
.LM1312:
	srli	s10,s1,31
	slli	s1,s1,1
	add	s1,s1,s10
.LM1313:
	add	s10,s1,s5
.LM1314:
	xor	s11,s8,s4
	xor	s11,s11,s9
.LM1315:
	add	s7,s10,s7
	add	s7,s11,s7
.LM1316:
	srli	s10,s6,27
	slli	s11,s6,5
.LM1317:
	xor	t5,t5,a6
.LM1318:
	add	s10,s10,s11
.LM1319:
	xor	t5,t5,a0
.LM1320:
	add	s7,s7,s10
.LM1321:
.LM1322:
	xor	t5,t5,a7
.LM1323:
	srli	s10,s9,2
	slli	s9,s9,30
	add	s9,s9,s10
.LM1324:
.LM1325:
.LM1326:
.LM1327:
	srli	s10,t5,31
	slli	t5,t5,1
	add	t5,t5,s10
.LM1328:
	xor	s11,s4,s9
.LM1329:
	add	s10,t5,s5
.LM1330:
	xor	s11,s11,s6
.LM1331:
	add	s10,s10,s8
.LM1332:
	xor	t3,t3,a2
.LM1333:
	add	s10,s11,s10
.LM1334:
	srli	s8,s7,27
	slli	s11,s7,5
.LM1335:
	xor	t3,t3,s3
	xor	t3,t3,a1
.LM1336:
	add	s8,s8,s11
.LM1337:
	add	s8,s10,s8
.LM1338:
.LM1339:
	sw	s3,52(sp)
.LM1340:
	srli	s10,s6,2
.LM1341:
	srli	s3,t3,31
.LM1342:
	slli	s6,s6,30
.LM1343:
	slli	t3,t3,1
.LM1344:
	add	s6,s6,s10
.LM1345:
.LM1346:
.LM1347:
.LM1348:
	add	t3,t3,s3
.LM1349:
	add	s3,t3,s5
.LM1350:
	xor	s10,s9,s6
	xor	s10,s10,s7
.LM1351:
	add	s4,s3,s4
.LM1352:
	xor	a6,a6,a3
.LM1353:
	add	s4,s10,s4
.LM1354:
	srli	s3,s8,27
	slli	s10,s8,5
.LM1355:
	xor	a6,a6,s2
.LM1356:
	add	s3,s3,s10
.LM1357:
	xor	a6,a6,s1
.LM1358:
	add	s3,s4,s3
.LM1359:
.LM1360:
	sw	s1,76(sp)
.LM1361:
	srli	s4,s7,2
.LM1362:
	srli	s1,a6,31
.LM1363:
	slli	s7,s7,30
.LM1364:
	slli	a6,a6,1
.LM1365:
	add	s7,s7,s4
.LM1366:
.LM1367:
.LM1368:
.LM1369:
	add	a6,a6,s1
.LM1370:
	sw	s2,56(sp)
.LM1371:
	add	s1,a6,s5
.LM1372:
	xor	s2,s6,s7
	xor	s2,s2,s8
.LM1373:
	add	s1,s1,s9
.LM1374:
	xor	a2,a2,a4
.LM1375:
	slli	s4,s3,5
.LM1376:
	add	s1,s2,s1
.LM1377:
	xor	a2,a2,t6
.LM1378:
	srli	s2,s3,27
	add	s2,s2,s4
.LM1379:
	xor	a2,a2,t5
.LM1380:
	add	s1,s1,s2
.LM1381:
.LM1382:
	sw	t5,80(sp)
.LM1383:
	srli	s2,s8,2
.LM1384:
	srli	t5,a2,31
.LM1385:
	slli	s8,s8,30
.LM1386:
	slli	a2,a2,1
.LM1387:
	add	s8,s8,s2
.LM1388:
.LM1389:
.LM1390:
.LM1391:
	add	a2,a2,t5
.LM1392:
	sw	t6,60(sp)
.LM1393:
	xor	t5,s7,s8
.LM1394:
	add	t6,a2,s5
	add	t6,t6,s6
.LM1395:
	xor	t5,t5,s3
.LM1396:
	xor	a3,a3,a5
.LM1397:
	slli	s2,s1,5
.LM1398:
	xor	a3,a3,t4
.LM1399:
	add	t5,t5,t6
.LM1400:
	srli	t6,s1,27
.LM1401:
	sw	t3,84(sp)
.LM1402:
	add	t6,t6,s2
.LM1403:
	xor	t3,a3,t3
.LM1404:
	add	t5,t5,t6
.LM1405:
.LM1406:
	srli	a3,t3,31
.LM1407:
	srli	t6,s3,2
.LM1408:
	slli	t3,t3,1
.LM1409:
	slli	s3,s3,30
	add	s3,s3,t6
.LM1410:
.LM1411:
.LM1412:
.LM1413:
	add	t3,t3,a3
.LM1414:
	sw	t3,96(sp)
.LM1415:
	xor	a3,s8,s3
.LM1416:
	add	t3,t3,s5
	add	t3,t3,s7
.LM1417:
	xor	a3,a3,s1
.LM1418:
	xor	a4,a4,t1
.LM1419:
	sw	t4,64(sp)
.LM1420:
	add	a3,a3,t3
.LM1421:
	slli	t4,t5,5
	srli	t3,t5,27
.LM1422:
	xor	a4,a4,a7
.LM1423:
	add	t3,t3,t4
.LM1424:
	xor	a4,a4,a6
.LM1425:
	add	a3,a3,t3
.LM1426:
.LM1427:
	sw	a6,88(sp)
.LM1428:
	srli	t3,s1,2
.LM1429:
	srli	a6,a4,31
.LM1430:
	slli	s1,s1,30
.LM1431:
	slli	a4,a4,1
.LM1432:
	add	s1,s1,t3
.LM1433:
	add	a4,a4,a6
.LM1434:
	sw	a4,100(sp)
.LM1435:
	xor	a6,s3,s1
.LM1436:
	add	a4,a4,s5
.LM1437:
	xor	a6,a6,t5
.LM1438:
	add	a4,a4,s8
.LM1439:
	xor	a5,a5,a0
.LM1440:
	sw	a7,68(sp)
.LM1441:
	add	a4,a6,a4
.LM1442:
	slli	a7,a3,5
	srli	a6,a3,27
.LM1443:
	xor	a5,a5,a1
.LM1444:
	add	a6,a6,a7
.LM1445:
	xor	a5,a5,a2
.LM1446:
	add	a4,a4,a6
.LM1447:
	sw	a2,92(sp)
.LM1448:
	srli	a6,t5,2
.LM1449:
	sw	a5,40(sp)
.LM1450:
	srli	a2,a5,31
.LM1451:
	slli	t5,t5,30
.LM1452:
	slli	a5,a5,1
.LM1453:
	add	t5,t5,a6
.LM1454:
	add	a5,a5,a2
.LM1455:
	sw	a5,104(sp)
.LM1456:
	xor	a2,s1,t5
.LM1457:
	add	a5,a5,s5
.LM1458:
	xor	a2,a2,a3
.LM1459:
	add	a5,a5,s3
.LM1460:
	sw	a1,72(sp)
.LM1461:
	add	a5,a2,a5
.LM1462:
	slli	a1,a4,5
	srli	a2,a4,27
	add	a2,a2,a1
.LM1463:
	add	a5,a5,a2
	sw	a5,108(sp)
.LM1464:
	add	t0,t0,a5
.LM1465:
	lw	a5,12(s0)
.LM1466:
	srli	a2,a3,2
	slli	a3,a3,30
.LM1467:
	add	a5,a5,a4
	sw	a5,12(s0)
.LM1468:
	lw	a5,20(s0)
.LM1469:
	add	a3,a3,a2
.LM1470:
	add	t2,t2,a3
.LM1471:
	add	a5,a5,t5
	sw	a5,20(s0)
.LM1472:
	lw	a5,24(s0)
.LM1473:
	sw	a0,48(sp)
.LM1474:
	sw	t0,8(s0)
.LM1475:
	add	a5,a5,s1
.LM1476:
	addi	a0,sp,40
.LM1477:
	sw	t2,16(s0)
.LM1478:
	sw	a5,24(s0)
.LM1479:
	li	a1,88
.LM1480:
	sw	s1,124(sp)
.LM1481:
.LM1482:
.LM1483:
.LM1484:
	sw	t1,44(sp)
.LM1485:
	sw	a4,112(sp)
.LM1486:
.LM1487:
	sw	t5,120(sp)
.LM1488:
.LM1489:
.LM1490:
.LM1491:
.LM1492:
	sw	a3,116(sp)
.LM1493:
.LM1494:
.LM1495:
.LM1496:
.LM1497:
.LM1498:
.LM1499:
	call	mbedtls_platform_zeroize
.LVL43:
.LM1500:
.LM1501:
	lw	ra,188(sp)
	.cfi_restore 1
	lw	s0,184(sp)
	.cfi_restore 8
.LVL44:
.LM1502:
	lw	s1,180(sp)
	.cfi_restore 9
	lw	s2,176(sp)
	.cfi_restore 18
	lw	s3,172(sp)
	.cfi_restore 19
	lw	s4,168(sp)
	.cfi_restore 20
	lw	s5,164(sp)
	.cfi_restore 21
	lw	s6,160(sp)
	.cfi_restore 22
	lw	s7,156(sp)
	.cfi_restore 23
	lw	s8,152(sp)
	.cfi_restore 24
	lw	s9,148(sp)
	.cfi_restore 25
	lw	s10,144(sp)
	.cfi_restore 26
	lw	s11,140(sp)
	.cfi_restore 27
	li	a0,0
	addi	sp,sp,192
	.cfi_def_cfa_offset 0
	jr	ra
	.cfi_endproc
.LFE19:
	.size	mbedtls_internal_sha1_process, .-mbedtls_internal_sha1_process
	.section	.text.mbedtls_sha1_update.part.0,"ax",@progbits
	.align	1
	.type	mbedtls_sha1_update.part.0, @function
mbedtls_sha1_update.part.0:
.LVL45:
.LFB25:
.LM1503:
	.cfi_startproc
.LM1504:
.LM1505:
	addi	sp,sp,-32
	.cfi_def_cfa_offset 32
	sw	s0,24(sp)
	sw	s1,20(sp)
	sw	s2,16(sp)
	sw	s3,12(sp)
	sw	ra,28(sp)
	sw	s4,8(sp)
	sw	s5,4(sp)
	sw	s6,0(sp)
	.cfi_offset 8, -8
	.cfi_offset 9, -12
	.cfi_offset 18, -16
	.cfi_offset 19, -20
	.cfi_offset 1, -4
	.cfi_offset 20, -24
	.cfi_offset 21, -28
	.cfi_offset 22, -32
.LM1506:
	lw	a5,0(a0)
.LM1507:
	mv	s1,a0
	mv	s2,a1
	add	a4,a5,a2
.LM1508:
	sw	a4,0(a0)
.LM1509:
	mv	s0,a2
.LM1510:
	andi	s3,a5,63
.LVL46:
.LM1511:
.LM1512:
.LM1513:
.LM1514:
.LM1515:
	bgeu	a4,a5,.L12
.LM1516:
.LM1517:
	lw	a5,4(a0)
	addi	a5,a5,1
	sw	a5,4(a0)
.L12:
.LM1518:
.LM1519:
	beq	s3,zero,.L13
.LM1520:
	li	a2,64
.LVL47:
.LM1521:
	sub	s5,a2,s3
.LM1522:
	bgtu	s5,s0,.L13
.LM1523:
.LM1524:
	addi	s4,s1,28
.LM1525:
	mv	a1,s2
.LVL48:
.LM1526:
	mv	a2,s5
	add	a0,s4,s3
.LVL49:
.LM1527:
	call	memcpy
.LVL50:
.LM1528:
.LM1529:
	mv	a1,s4
	mv	a0,s1
	addi	s0,s0,-64
.LVL51:
.LM1530:
	add	s0,s3,s0
.LVL52:
.LM1531:
	call	mbedtls_internal_sha1_process
.LVL53:
.LM1532:
.LM1533:
	add	s2,s2,s5
.LVL54:
.LM1534:
.LM1535:
.LM1536:
	li	s3,0
.LVL55:
.L13:
.LM1537:
	mv	s4,s0
.LM1538:
	li	s5,63
.LM1539:
	add	s6,s0,s2
	j	.L14
.LVL56:
.L15:
.LM1540:
.LM1541:
	sub	a1,s6,s4
	mv	a0,s1
	call	mbedtls_internal_sha1_process
.LVL57:
.LM1542:
.LM1543:
.LM1544:
	addi	s4,s4,-64
.LVL58:
.L14:
.LM1545:
	bgtu	s4,s5,.L15
.LM1546:
	srli	a1,s0,6
	li	a5,-64
	mul	a1,a1,a5
	add	a2,s0,a1
.LVL59:
.LM1547:
.LM1548:
	beq	a2,zero,.L9
.LM1549:
.LM1550:
	lw	s0,24(sp)
	.cfi_remember_state
	.cfi_restore 8
.LM1551:
	addi	a0,s1,28
.LM1552:
	lw	ra,28(sp)
	.cfi_restore 1
	lw	s1,20(sp)
	.cfi_restore 9
.LVL60:
.LM1553:
	lw	s4,8(sp)
	.cfi_restore 20
	lw	s5,4(sp)
	.cfi_restore 21
	lw	s6,0(sp)
	.cfi_restore 22
.LM1554:
	sub	a1,s2,a1
.LVL61:
.LM1555:
	add	a0,a0,s3
.LVL62:
.LM1556:
	lw	s2,16(sp)
	.cfi_restore 18
	lw	s3,12(sp)
	.cfi_restore 19
.LVL63:
.LM1557:
	addi	sp,sp,32
	.cfi_def_cfa_offset 0
.LM1558:
	tail	memcpy
.LVL64:
.L9:
	.cfi_restore_state
.LM1559:
	lw	ra,28(sp)
	.cfi_restore 1
	lw	s0,24(sp)
	.cfi_restore 8
	lw	s1,20(sp)
	.cfi_restore 9
.LVL65:
.LM1560:
	lw	s2,16(sp)
	.cfi_restore 18
.LVL66:
.LM1561:
	lw	s3,12(sp)
	.cfi_restore 19
.LVL67:
.LM1562:
	lw	s4,8(sp)
	.cfi_restore 20
	lw	s5,4(sp)
	.cfi_restore 21
	lw	s6,0(sp)
	.cfi_restore 22
	addi	sp,sp,32
	.cfi_def_cfa_offset 0
	jr	ra
	.cfi_endproc
.LFE25:
	.size	mbedtls_sha1_update.part.0, .-mbedtls_sha1_update.part.0
	.section	.text.mbedtls_sha1_update,"ax",@progbits
	.align	1
	.globl	mbedtls_sha1_update
	.type	mbedtls_sha1_update, @function
mbedtls_sha1_update:
.LVL68:
.LFB20:
.LM1563:
	.cfi_startproc
.LM1564:
.LM1565:
.LM1566:
.LM1567:
.LM1568:
	beq	a2,zero,.L29
.LM1569:
	addi	sp,sp,-16
	.cfi_def_cfa_offset 16
	sw	ra,12(sp)
	.cfi_offset 1, -4
	call	mbedtls_sha1_update.part.0
.LVL69:
.LM1570:
	lw	ra,12(sp)
	.cfi_restore 1
	li	a0,0
	addi	sp,sp,16
	.cfi_def_cfa_offset 0
	jr	ra
.LVL70:
.L29:
.LM1571:
	li	a0,0
.LVL71:
.LM1572:
	ret
	.cfi_endproc
.LFE20:
	.size	mbedtls_sha1_update, .-mbedtls_sha1_update
	.section	.text.mbedtls_sha1_finish,"ax",@progbits
	.align	1
	.globl	mbedtls_sha1_finish
	.type	mbedtls_sha1_finish, @function
mbedtls_sha1_finish:
.LVL72:
.LFB21:
.LM1573:
	.cfi_startproc
.LM1574:
.LM1575:
.LM1576:
.LM1577:
.LM1578:
	addi	sp,sp,-32
	.cfi_def_cfa_offset 32
	sw	s0,24(sp)
	sw	s1,20(sp)
	sw	s2,16(sp)
	sw	s3,12(sp)
	sw	ra,28(sp)
	.cfi_offset 8, -8
	.cfi_offset 9, -12
	.cfi_offset 18, -16
	.cfi_offset 19, -20
	.cfi_offset 1, -4
.LM1579:
	lw	a5,0(a0)
.LM1580:
	mv	s0,a0
.LM1581:
	li	a4,-128
.LM1582:
	andi	a5,a5,63
.LVL73:
.LM1583:
.LM1584:
	addi	a0,a5,1
.LVL74:
.LM1585:
	add	a5,s0,a5
	sb	a4,28(a5)
.LM1586:
.LM1587:
	li	s3,56
.LM1588:
	mv	s1,a1
	addi	s2,s0,28
.LM1589:
	bgtu	a0,s3,.L33
.LM1590:
	sub	a2,s3,a0
	li	a1,0
.LVL75:
.LM1591:
	add	a0,s2,a0
.LVL76:
.L36:
.LM1592:
	call	memset
.LVL77:
.LM1593:
.LM1594:
	lw	a5,4(s0)
.LM1595:
	lw	s3,0(s0)
.LVL78:
.LM1596:
.LM1597:
.LM1598:
.LM1599:
	slli	a5,a5,3
.LVL79:
.LM1600:
	srli	a0,s3,29
.LM1601:
	or	a0,a5,a0
.LVL80:
.LM1602:
	call	__bswapsi2
.LVL81:
.LBB122:
.LBI122:
.LM1603:
.LBB123:
.LM1604:
.LM1605:
.LM1606:
	srli	a5,a0,8
	sb	a0,84(s0)
	sb	a5,85(s0)
	srli	a5,a0,16
	srli	a0,a0,24
.LVL82:
.LM1607:
	sb	a5,86(s0)
	sb	a0,87(s0)
.LVL83:
.LM1608:
.LBE123:
.LBE122:
.LM1609:
.LM1610:
.LM1611:
.LM1612:
	slli	a0,s3,3
.LVL84:
.LM1613:
	call	__bswapsi2
.LVL85:
.LBB124:
.LBI124:
.LM1614:
.LBB125:
.LM1615:
.LM1616:
.LM1617:
	srli	a5,a0,8
	sb	a0,88(s0)
	sb	a5,89(s0)
	srli	a5,a0,16
	srli	a0,a0,24
.LVL86:
.LM1618:
.LBE125:
.LBE124:
.LM1619:
	mv	a1,s2
.LBB127:
.LBB126:
.LM1620:
	sb	a5,90(s0)
	sb	a0,91(s0)
.LVL87:
.LM1621:
.LBE126:
.LBE127:
.LM1622:
.LM1623:
.LM1624:
	mv	a0,s0
	call	mbedtls_internal_sha1_process
.LVL88:
.LM1625:
.LM1626:
.LM1627:
	lw	a0,8(s0)
	call	__bswapsi2
.LVL89:
.LBB128:
.LBI128:
.LM1628:
.LBB129:
.LM1629:
.LM1630:
.LM1631:
	srli	a5,a0,8
	sb	a0,0(s1)
	sb	a5,1(s1)
	srli	a5,a0,16
	srli	a0,a0,24
.LVL90:
.LM1632:
	sb	a5,2(s1)
	sb	a0,3(s1)
.LVL91:
.LM1633:
.LBE129:
.LBE128:
.LM1634:
.LM1635:
.LM1636:
.LM1637:
	lw	a0,12(s0)
	call	__bswapsi2
.LVL92:
.LBB130:
.LBI130:
.LM1638:
.LBB131:
.LM1639:
.LM1640:
.LM1641:
	srli	a5,a0,8
	sb	a0,4(s1)
	sb	a5,5(s1)
	srli	a5,a0,16
	srli	a0,a0,24
.LVL93:
.LM1642:
	sb	a5,6(s1)
	sb	a0,7(s1)
.LVL94:
.LM1643:
.LBE131:
.LBE130:
.LM1644:
.LM1645:
.LM1646:
.LM1647:
	lw	a0,16(s0)
	call	__bswapsi2
.LVL95:
.LBB132:
.LBI132:
.LM1648:
.LBB133:
.LM1649:
.LM1650:
.LM1651:
	srli	a5,a0,8
	sb	a0,8(s1)
	sb	a5,9(s1)
	srli	a5,a0,16
	srli	a0,a0,24
.LVL96:
.LM1652:
	sb	a5,10(s1)
	sb	a0,11(s1)
.LVL97:
.LM1653:
.LBE133:
.LBE132:
.LM1654:
.LM1655:
.LM1656:
.LM1657:
	lw	a0,20(s0)
	call	__bswapsi2
.LVL98:
.LBB134:
.LBI134:
.LM1658:
.LBB135:
.LM1659:
.LM1660:
.LM1661:
	srli	a5,a0,8
	sb	a0,12(s1)
	sb	a5,13(s1)
	srli	a5,a0,16
	srli	a0,a0,24
.LVL99:
.LM1662:
	sb	a5,14(s1)
	sb	a0,15(s1)
.LVL100:
.LM1663:
.LBE135:
.LBE134:
.LM1664:
.LM1665:
.LM1666:
.LM1667:
	lw	a0,24(s0)
	call	__bswapsi2
.LVL101:
.LBB136:
.LBI136:
.LM1668:
.LBB137:
.LM1669:
.LM1670:
.LM1671:
	srli	a5,a0,8
	sb	a0,16(s1)
	sb	a5,17(s1)
	srli	a5,a0,16
	srli	a0,a0,24
.LVL102:
.LM1672:
	sb	a0,19(s1)
.LVL103:
.LM1673:
.LBE137:
.LBE136:
.LM1674:
.LM1675:
.LDL1:
.LM1676:
.LBB139:
.LBB138:
.LM1677:
	sb	a5,18(s1)
.LBE138:
.LBE139:
.LM1678:
	mv	a0,s0
	call	mbedtls_sha1_free
.LVL104:
.LM1679:
.LM1680:
	lw	ra,28(sp)
	.cfi_remember_state
	.cfi_restore 1
	lw	s0,24(sp)
	.cfi_restore 8
.LVL105:
.LM1681:
	lw	s1,20(sp)
	.cfi_restore 9
.LVL106:
.LM1682:
	lw	s2,16(sp)
	.cfi_restore 18
.LVL107:
.LM1683:
	lw	s3,12(sp)
	.cfi_restore 19
.LVL108:
.LM1684:
	li	a0,0
	addi	sp,sp,32
	.cfi_def_cfa_offset 0
	jr	ra
.LVL109:
.L33:
	.cfi_restore_state
.LM1685:
	li	a2,64
	sub	a2,a2,a0
	li	a1,0
	add	a0,s2,a0
.LVL110:
.LM1686:
	call	memset
.LVL111:
.LM1687:
.LM1688:
	mv	a1,s2
	mv	a0,s0
	call	mbedtls_internal_sha1_process
.LVL112:
.LM1689:
	mv	a2,s3
	li	a1,0
	mv	a0,s2
	j	.L36
	.cfi_endproc
.LFE21:
	.size	mbedtls_sha1_finish, .-mbedtls_sha1_finish
	.section	.text.mbedtls_sha1,"ax",@progbits
	.align	1
	.globl	mbedtls_sha1
	.type	mbedtls_sha1, @function
mbedtls_sha1:
.LVL113:
.LFB22:
.LM1690:
	.cfi_startproc
.LM1691:
.LM1692:
.LM1693:
.LM1694:
	addi	sp,sp,-128
	.cfi_def_cfa_offset 128
	sw	s0,120(sp)
	.cfi_offset 8, -8
	mv	s0,a0
.LM1695:
	addi	a0,sp,20
.LVL114:
.LM1696:
	sw	ra,124(sp)
	sw	s1,116(sp)
	.cfi_offset 1, -4
	.cfi_offset 9, -12
.LM1697:
	sw	a1,12(sp)
	mv	s1,a2
.LM1698:
	call	mbedtls_sha1_init
.LVL115:
.LM1699:
.LBB146:
.LBI146:
.LM1700:
.LBB147:
.LM1701:
.LM1702:
	li	a5,1732583424
	addi	a5,a5,769
	sw	a5,28(sp)
.LM1703:
	li	a5,-271732736
	addi	a5,a5,-1143
	sw	a5,32(sp)
.LM1704:
	li	a5,-1732583424
	addi	a5,a5,-770
	sw	a5,36(sp)
.LM1705:
	li	a5,271732736
.LBE147:
.LBE146:
.LM1706:
	lw	a2,12(sp)
.LBB150:
.LBB148:
.LM1707:
	addi	a5,a5,1142
	sw	a5,40(sp)
.LM1708:
	li	a5,-1009590272
	addi	a5,a5,496
.LBE148:
.LBE150:
.LM1709:
	mv	a1,s0
	addi	a0,sp,20
.LVL116:
.LBB151:
.LBB149:
.LM1710:
	sw	a5,44(sp)
.LM1711:
	sw	zero,20(sp)
.LM1712:
.LM1713:
	sw	zero,24(sp)
.LM1714:
.LM1715:
.LM1716:
.LM1717:
.LM1718:
.LM1719:
.LVL117:
.LM1720:
.LBE149:
.LBE151:
.LM1721:
.LM1722:
	call	mbedtls_sha1_update
.LVL118:
.LM1723:
.LM1724:
	mv	a1,s1
	addi	a0,sp,20
	call	mbedtls_sha1_finish
.LVL119:
.LDL2:
.LM1725:
.LBB152:
.LBI152:
.LM1726:
.LM1727:
.LBB153:
.LBI153:
.LM1728:
.LBB154:
.LM1729:
	addi	a0,sp,20
.LVL120:
.LM1730:
	li	a1,92
	call	mbedtls_platform_zeroize
.LVL121:
.LM1731:
.LBE154:
.LBE153:
.LBE152:
.LM1732:
.LM1733:
	lw	ra,124(sp)
	.cfi_restore 1
	lw	s0,120(sp)
	.cfi_restore 8
.LVL122:
.LM1734:
	lw	s1,116(sp)
	.cfi_restore 9
.LVL123:
.LM1735:
	li	a0,0
	addi	sp,sp,128
	.cfi_def_cfa_offset 0
.LVL124:
.LM1736:
	jr	ra
	.cfi_endproc
.LFE22:
	.size	mbedtls_sha1, .-mbedtls_sha1
	.section	.rodata.mbedtls_sha1_self_test.str1.4,"aMS",@progbits,1
	.align	2
.LC0:
	.string	"  SHA-1 test #%d: "
	.align	2
.LC1:
	.string	"passed\n"
	.align	2
.LC2:
	.string	"\n"
	.align	2
.LC3:
	.string	"failed\n"
	.section	.text.mbedtls_sha1_self_test,"ax",@progbits
	.align	1
	.globl	mbedtls_sha1_self_test
	.type	mbedtls_sha1_self_test, @function
mbedtls_sha1_self_test:
.LVL125:
.LFB23:
.LM1737:
	.cfi_startproc
.LM1738:
.LM1739:
.LM1740:
.LM1741:
.LM1742:
.LM1743:
	addi	sp,sp,-1200
	.cfi_def_cfa_offset 1200
	sw	s2,1184(sp)
	sw	s3,1180(sp)
	sw	s4,1176(sp)
	sw	s5,1172(sp)
	sw	s6,1168(sp)
	sw	s7,1164(sp)
	sw	s8,1160(sp)
	sw	s9,1156(sp)
	sw	s10,1152(sp)
	.cfi_offset 18, -16
	.cfi_offset 19, -20
	.cfi_offset 20, -24
	.cfi_offset 21, -28
	.cfi_offset 22, -32
	.cfi_offset 23, -36
	.cfi_offset 24, -40
	.cfi_offset 25, -44
	.cfi_offset 26, -48
	mv	s5,a0
	lui	s4,%hi(sha1_test_sum)
.LM1744:
	addi	a0,sp,20
.LVL126:
.LM1745:
	lui	s3,%hi(sha1_test_buflen)
	lui	s2,%hi(sha1_test_buf)
.LBB163:
.LBB164:
.LM1746:
	li	s6,1732583424
.LM1747:
	li	s7,-271732736
.LM1748:
	li	s8,-1732583424
.LM1749:
	li	s9,271732736
.LM1750:
	li	s10,-1009590272
.LBE164:
.LBE163:
.LM1751:
	sw	s1,1188(sp)
	sw	s11,1148(sp)
	sw	ra,1196(sp)
	sw	s0,1192(sp)
	.cfi_offset 9, -12
	.cfi_offset 27, -52
	.cfi_offset 1, -4
	.cfi_offset 8, -8
	addi	s4,s4,%lo(sha1_test_sum)
.LM1752:
	call	mbedtls_sha1_init
.LVL127:
.LM1753:
.LM1754:
	addi	s3,s3,%lo(sha1_test_buflen)
	addi	s2,s2,%lo(sha1_test_buf)
.LM1755:
	li	s1,0
.LBB167:
.LBB165:
.LM1756:
	addi	s6,s6,769
.LM1757:
	addi	s7,s7,-1143
.LM1758:
	addi	s8,s8,-770
.LM1759:
	addi	s9,s9,1142
.LM1760:
	addi	s10,s10,496
.LBE165:
.LBE167:
.LM1761:
	li	s11,2
.LVL128:
.L48:
.LM1762:
.LM1763:
	beq	s5,zero,.L40
.LM1764:
	lui	a0,%hi(.LC0)
	addi	a1,s1,1
	addi	a0,a0,%lo(.LC0)
	call	printf
.LVL129:
.L40:
.LM1765:
.LBB168:
.LBI163:
.LM1766:
.LBB166:
.LM1767:
.LM1768:
	sw	zero,20(sp)
.LM1769:
.LM1770:
	sw	zero,24(sp)
.LM1771:
.LM1772:
	sw	s6,28(sp)
.LM1773:
.LM1774:
	sw	s7,32(sp)
.LM1775:
.LM1776:
	sw	s8,36(sp)
.LM1777:
.LM1778:
	sw	s9,40(sp)
.LM1779:
.LM1780:
	sw	s10,44(sp)
.LM1781:
.LVL130:
.LM1782:
.LBE166:
.LBE168:
.LM1783:
.LM1784:
	bne	s1,s11,.L41
.LM1785:
.LVL131:
.LM1786:
	li	a2,1000
	li	a1,97
	addi	a0,sp,112
	call	memset
.LVL132:
.LM1787:
.LM1788:
.LM1789:
	li	s0,1000
.LVL133:
.L42:
.LM1790:
.LBB169:
.LBI169:
.LM1791:
.LBB170:
.LM1792:
.LM1793:
.LM1794:
.LM1795:
	li	a2,1000
	addi	a1,sp,112
.LVL134:
.LM1796:
	addi	a0,sp,20
.LVL135:
.LM1797:
.LBE170:
.LBE169:
.LM1798:
	addi	s0,s0,-1
.LVL136:
.LBB172:
.LBB171:
.LM1799:
	call	mbedtls_sha1_update.part.0
.LVL137:
.LM1800:
.LBE171:
.LBE172:
.LM1801:
.LM1802:
.LM1803:
	bne	s0,zero,.L42
.LVL138:
.L43:
.LM1804:
.LM1805:
	mv	a1,sp
	addi	a0,sp,20
	call	mbedtls_sha1_finish
.LVL139:
.LM1806:
.LM1807:
	li	a2,20
	mv	a1,s4
	mv	a0,sp
	call	memcmp
.LVL140:
	mv	s0,a0
.LM1808:
	beq	a0,zero,.L44
.LM1809:
.LM1810:
.LDL3:
.LVL141:
.LM1811:
.LM1812:
	beq	s5,zero,.L46
.LM1813:
	lui	a0,%hi(.LC3)
	addi	a0,a0,%lo(.LC3)
	call	printf
.LVL142:
.L46:
.LM1814:
	li	s0,1
	j	.L50
.LVL143:
.L41:
.LM1815:
.LM1816:
	lw	a2,0(s3)
	mv	a1,s2
	addi	a0,sp,20
	call	mbedtls_sha1_update
.LVL144:
.LM1817:
	j	.L43
.L44:
.LM1818:
.LM1819:
	beq	s5,zero,.L47
.LM1820:
	lui	a0,%hi(.LC1)
	addi	a0,a0,%lo(.LC1)
	call	printf
.LVL145:
.L47:
.LM1821:
	addi	s1,s1,1
.LVL146:
.LM1822:
	li	a5,3
	addi	s4,s4,20
	addi	s3,s3,4
	addi	s2,s2,57
	bne	s1,a5,.L48
.LM1823:
.LM1824:
	beq	s5,zero,.L50
.LM1825:
	lui	a0,%hi(.LC2)
	addi	a0,a0,%lo(.LC2)
	call	printf
.LVL147:
.L50:
.LM1826:
.LBB173:
.LBI173:
.LM1827:
.LM1828:
.LBB174:
.LBI174:
.LM1829:
.LBB175:
.LM1830:
	addi	a0,sp,20
.LVL148:
.LM1831:
	li	a1,92
	call	mbedtls_platform_zeroize
.LVL149:
.LM1832:
.LBE175:
.LBE174:
.LBE173:
.LM1833:
.LM1834:
	lw	ra,1196(sp)
	.cfi_restore 1
	mv	a0,s0
	lw	s0,1192(sp)
	.cfi_restore 8
.LVL150:
.LM1835:
	lw	s1,1188(sp)
	.cfi_restore 9
.LVL151:
.LM1836:
	lw	s2,1184(sp)
	.cfi_restore 18
	lw	s3,1180(sp)
	.cfi_restore 19
	lw	s4,1176(sp)
	.cfi_restore 20
	lw	s5,1172(sp)
	.cfi_restore 21
.LVL152:
.LM1837:
	lw	s6,1168(sp)
	.cfi_restore 22
	lw	s7,1164(sp)
	.cfi_restore 23
	lw	s8,1160(sp)
	.cfi_restore 24
	lw	s9,1156(sp)
	.cfi_restore 25
	lw	s10,1152(sp)
	.cfi_restore 26
	lw	s11,1148(sp)
	.cfi_restore 27
	addi	sp,sp,1200
	.cfi_def_cfa_offset 0
	jr	ra
	.cfi_endproc
.LFE23:
	.size	mbedtls_sha1_self_test, .-mbedtls_sha1_self_test
	.section	.rodata.sha1_test_sum,"a"
	.align	2
	.type	sha1_test_sum, @object
	.size	sha1_test_sum, 60
sha1_test_sum:
	.base64	"qZk+NkcGgWq6PiVxeFDCbJzQ2J0="
	.base64	"hJg+RBw70m66rkqh+VEp5eVGcPE="
	.base64	"NKqXPNTE2qT2Husr260nMWU0AW8="
	.section	.rodata.sha1_test_buflen,"a"
	.align	2
	.type	sha1_test_buflen, @object
	.size	sha1_test_buflen, 12
sha1_test_buflen:
	.word	3
	.word	56
	.word	1000
	.section	.rodata.sha1_test_buf,"a"
	.align	2
	.type	sha1_test_buf, @object
	.size	sha1_test_buf, 171
sha1_test_buf:
	.string	"abc"
	.zero	53
	.string	"abcdbcdecdefdefgefghfghighijhijkijkljklmklmnlmnomnopnopq"
	.string	""
	.zero	56
	.text
.Letext0:
	.section	.note.GNU-stack,"",@progbits
