	.file	"sha256.c"
	.option nopic
	.attribute arch, "rv32i2p1_m2p0_f2p2_c2p0_zicsr2p0_zmmul1p0_zca1p0_zcf1p0"
	.attribute unaligned_access, 0
	.attribute stack_align, 16
	.text
.Ltext0:
	.cfi_sections	.debug_frame
	.section	.text.mbedtls_sha256_init,"ax",@progbits
	.align	1
	.globl	mbedtls_sha256_init
	.type	mbedtls_sha256_init, @function
mbedtls_sha256_init:
.LVL0:
.LFB15:
.LM1:
	.cfi_startproc
.LM2:
	li	a2,108
	li	a1,0
	tail	memset
.LVL1:
.LM3:
	.cfi_endproc
.LFE15:
	.size	mbedtls_sha256_init, .-mbedtls_sha256_init
	.section	.text.mbedtls_sha256_free,"ax",@progbits
	.align	1
	.globl	mbedtls_sha256_free
	.type	mbedtls_sha256_free, @function
mbedtls_sha256_free:
.LVL2:
.LFB16:
.LM4:
	.cfi_startproc
.LM5:
.LM6:
	beq	a0,zero,.L2
.LVL3:
.LBB31:
.LBI31:
.LM7:
.LBB32:
.LM8:
	li	a1,108
	tail	mbedtls_platform_zeroize
.LVL4:
.L2:
.LM9:
.LBE32:
.LBE31:
.LM10:
	ret
	.cfi_endproc
.LFE16:
	.size	mbedtls_sha256_free, .-mbedtls_sha256_free
	.section	.text.mbedtls_sha256_clone,"ax",@progbits
	.align	1
	.globl	mbedtls_sha256_clone
	.type	mbedtls_sha256_clone, @function
mbedtls_sha256_clone:
.LVL5:
.LFB17:
.LM11:
	.cfi_startproc
.LM12:
.LM13:
	addi	sp,sp,-16
	.cfi_def_cfa_offset 16
.LM14:
	li	a2,108
.LM15:
	sw	ra,12(sp)
	.cfi_offset 1, -4
.LM16:
	call	memcpy
.LVL6:
.LM17:
	lw	ra,12(sp)
	.cfi_restore 1
	addi	sp,sp,16
	.cfi_def_cfa_offset 0
	jr	ra
	.cfi_endproc
.LFE17:
	.size	mbedtls_sha256_clone, .-mbedtls_sha256_clone
	.section	.text.mbedtls_sha256_starts,"ax",@progbits
	.align	1
	.globl	mbedtls_sha256_starts
	.type	mbedtls_sha256_starts, @function
mbedtls_sha256_starts:
.LVL7:
.LFB18:
.LM18:
	.cfi_startproc
.LM19:
.LM20:
	li	a5,1
	bgtu	a1,a5,.L9
.LM21:
.LM22:
.LM23:
.LM24:
	beq	a1,zero,.L10
	li	t3,-1056595968
	li	t1,914149376
	li	a7,812703744
	li	a6,-150052864
	li	a2,-4190208
	li	a3,1750601728
	li	a4,1694076928
	li	a5,-1090891776
	addi	t3,t3,-296
	addi	t1,t1,1287
	addi	a7,a7,-745
	addi	a6,a6,-1735
	addi	a2,a2,-1231
	addi	a3,a3,1297
	addi	a4,a4,-89
	addi	a5,a5,-92
.L8:
.LM25:
	sw	zero,64(a0)
.LM26:
	sw	zero,68(a0)
.LM27:
	sw	t3,72(a0)
.LM28:
	sw	t1,76(a0)
.LM29:
	sw	a7,80(a0)
.LM30:
	sw	a6,84(a0)
.LM31:
	sw	a2,88(a0)
.LM32:
	sw	a3,92(a0)
.LM33:
	sw	a4,96(a0)
.LM34:
	sw	a5,100(a0)
.LM35:
.LM36:
	sw	a1,104(a0)
.LM37:
.LM38:
	li	a0,0
.LVL8:
.LM39:
	ret
.LVL9:
.L10:
.LM40:
	li	t3,1779032064
	li	t1,-1150832640
	li	a7,1013903360
	li	a6,-1521487872
	li	a2,1359892480
	li	a3,-1694142464
	li	a4,528736256
	li	a5,1541459968
	addi	t3,t3,1639
	addi	t1,t1,-379
	addi	a7,a7,882
	addi	a6,a6,1338
	addi	a2,a2,639
	addi	a3,a3,-1908
	addi	a4,a4,-1621
	addi	a5,a5,-743
	j	.L8
.L9:
.LM41:
	li	a0,-116
.LVL10:
.LM42:
	ret
	.cfi_endproc
.LFE18:
	.size	mbedtls_sha256_starts, .-mbedtls_sha256_starts
	.section	.text.mbedtls_internal_sha256_process,"ax",@progbits
	.align	1
	.globl	mbedtls_internal_sha256_process
	.type	mbedtls_internal_sha256_process, @function
mbedtls_internal_sha256_process:
.LVL11:
.LFB19:
.LM43:
	.cfi_startproc
.LM44:
.LM45:
.LM46:
.LM47:
.LM48:
	addi	sp,sp,-384
	.cfi_def_cfa_offset 384
	sw	s3,364(sp)
	sw	s4,360(sp)
	.cfi_offset 19, -20
	.cfi_offset 20, -24
	addi	s3,a0,72
	addi	s4,sp,24
	sw	s5,356(sp)
	sw	ra,380(sp)
	sw	s0,376(sp)
	sw	s1,372(sp)
	sw	s2,368(sp)
	sw	s6,352(sp)
	sw	s7,348(sp)
	sw	s8,344(sp)
	sw	s9,340(sp)
	sw	s10,336(sp)
	sw	s11,332(sp)
	.cfi_offset 21, -28
	.cfi_offset 1, -4
	.cfi_offset 8, -8
	.cfi_offset 9, -12
	.cfi_offset 18, -16
	.cfi_offset 22, -32
	.cfi_offset 23, -36
	.cfi_offset 24, -40
	.cfi_offset 25, -44
	.cfi_offset 26, -48
	.cfi_offset 27, -52
	addi	s5,a0,104
.LM49:
	mv	a4,s4
	mv	a5,s3
.LVL12:
.L12:
.LM50:
.LM51:
	lw	a3,0(a5)
.LM52:
	addi	a5,a5,4
	addi	a4,a4,4
.LM53:
	sw	a3,260(a4)
.LM54:
.LM55:
	bne	s5,a5,.L12
	lw	a3,316(sp)
	lw	s1,304(sp)
	lw	s7,312(sp)
	lw	s11,308(sp)
	lw	s0,288(sp)
	lw	s6,292(sp)
	lw	s10,296(sp)
	lw	a4,300(sp)
	lui	s9,%hi(K)
	addi	s9,s9,%lo(K)
	mv	s2,s4
.LM56:
	li	s8,0
.LM57:
	li	a6,15
.LM58:
	li	a2,64
.LVL13:
.L15:
.LM59:
.LM60:
	bgtu	s8,a6,.L13
.LBB33:
.LBB34:
.LM61:
	slli	a5,s8,2
	add	a5,a1,a5
	lbu	a0,1(a5)
	lbu	a7,0(a5)
	sw	a4,12(sp)
	slli	a0,a0,8
	or	a0,a0,a7
	lbu	a7,2(a5)
	sw	a3,8(sp)
.LM62:
.LBE34:
.LBE33:
.LM63:
.LBB36:
.LBI33:
.LM64:
.LBB35:
.LM65:
.LM66:
.LM67:
.LM68:
.LM69:
	sw	a1,4(sp)
	slli	a7,a7,16
	or	a7,a7,a0
	lbu	a0,3(a5)
	slli	a0,a0,24
.LBE35:
.LBE36:
.LM70:
	or	a0,a0,a7
	call	__bswapsi2
.LVL14:
.LM71:
	lw	a1,4(sp)
	lw	a3,8(sp)
	lw	a4,12(sp)
	li	a6,15
	li	a2,64
.LVL15:
.L14:
.LM72:
	slli	a7,s1,26
	srli	a5,s1,6
	add	a5,a5,a7
.LM73:
	slli	t1,s1,21
	srli	a7,s1,11
	add	a7,a7,t1
.LM74:
	xor	a5,a5,a7
.LM75:
	slli	t1,s1,7
	srli	a7,s1,25
	add	a7,a7,t1
.LM76:
	xor	a5,a5,a7
.LM77:
	xor	a7,s7,s11
.LM78:
	and	a7,a7,s1
.LM79:
	xor	a7,a7,s7
.LM80:
	add	a5,a5,a7
	lw	a7,0(s9)
	sw	a0,8(s2)
.LM81:
.LM82:
.LM83:
	addi	s8,s8,1
.LVL16:
.LM84:
	add	a5,a5,a7
	add	a0,a5,a0
	add	a0,a0,a3
.LM85:
.LM86:
	srli	a5,s0,2
	slli	a3,s0,30
	add	a5,a5,a3
.LM87:
	slli	a7,s0,19
	srli	a3,s0,13
	add	a3,a3,a7
.LM88:
	xor	a5,a5,a3
.LM89:
	slli	a7,s0,10
	srli	a3,s0,22
	add	a3,a3,a7
.LM90:
	xor	a5,a5,a3
.LM91:
	or	a3,s6,s0
.LM92:
	and	a7,s6,s0
.LM93:
	and	a3,a3,s10
.LM94:
	or	a3,a3,a7
.LM95:
	add	a5,a5,a3
.LM96:
.LM97:
	add	a7,a0,a4
.LM98:
.LM99:
	addi	s2,s2,4
.LM100:
	add	a0,a0,a5
.LM101:
.LM102:
.LM103:
.LM104:
.LM105:
.LM106:
.LM107:
.LM108:
.LM109:
.LM110:
.LM111:
.LVL17:
.LM112:
	addi	s9,s9,4
.LM113:
	mv	a3,s7
.LM114:
	mv	a4,s10
.LM115:
	bne	s8,a2,.L17
	sw	a5,28(sp)
	sw	a0,24(sp)
	sw	s7,316(sp)
	sw	s11,312(sp)
	sw	s1,308(sp)
	sw	a7,304(sp)
	sw	s10,300(sp)
	sw	s6,296(sp)
	sw	s0,292(sp)
	sw	a0,288(sp)
.LVL18:
.L16:
.LM116:
.LM117:
	lw	a5,0(s3)
	lw	a4,264(s4)
.LM118:
	addi	s3,s3,4
	addi	s4,s4,4
.LM119:
	add	a5,a5,a4
	sw	a5,-4(s3)
.LM120:
.LM121:
	bne	s5,s3,.L16
.LM122:
	addi	a0,sp,24
	li	a1,296
.LVL19:
.LM123:
	call	mbedtls_platform_zeroize
.LVL20:
.LM124:
.LM125:
	lw	ra,380(sp)
	.cfi_remember_state
	.cfi_restore 1
	lw	s0,376(sp)
	.cfi_restore 8
	lw	s1,372(sp)
	.cfi_restore 9
	lw	s2,368(sp)
	.cfi_restore 18
	lw	s3,364(sp)
	.cfi_restore 19
	lw	s4,360(sp)
	.cfi_restore 20
	lw	s5,356(sp)
	.cfi_restore 21
.LVL21:
.LM126:
	lw	s6,352(sp)
	.cfi_restore 22
	lw	s7,348(sp)
	.cfi_restore 23
	lw	s8,344(sp)
	.cfi_restore 24
	lw	s9,340(sp)
	.cfi_restore 25
	lw	s10,336(sp)
	.cfi_restore 26
	lw	s11,332(sp)
	.cfi_restore 27
	li	a0,0
	addi	sp,sp,384
	.cfi_def_cfa_offset 0
	jr	ra
.LVL22:
.L17:
	.cfi_restore_state
.LM127:
	mv	s10,s6
.LM128:
	mv	s7,s11
.LM129:
	mv	s6,s0
.LM130:
	mv	s11,s1
.LM131:
	mv	s0,a0
.LM132:
	mv	s1,a7
	j	.L15
.L13:
.LM133:
.LM134:
	lw	a5,0(s2)
.LM135:
	lw	a7,-52(s2)
.LM136:
	slli	t1,a5,15
	srli	a0,a5,17
.LM137:
	slli	t3,a5,13
.LM138:
	add	a0,a0,t1
.LM139:
	srli	t1,a5,19
	add	t1,t1,t3
.LM140:
	xor	a0,a0,t1
.LM141:
	srli	a5,a5,10
.LM142:
	lw	t1,-56(s2)
.LM143:
	xor	a0,a0,a5
.LM144:
	lw	a5,-20(s2)
.LM145:
	slli	t3,a7,14
.LM146:
	add	a5,a5,t1
	add	a0,a0,a5
.LM147:
	slli	t1,a7,25
	srli	a5,a7,7
	add	a5,a5,t1
.LM148:
	srli	t1,a7,18
	add	t1,t1,t3
.LM149:
	xor	a5,a5,t1
.LM150:
	srli	a7,a7,3
.LM151:
	xor	a5,a5,a7
.LM152:
	add	a0,a0,a5
	j	.L14
	.cfi_endproc
.LFE19:
	.size	mbedtls_internal_sha256_process, .-mbedtls_internal_sha256_process
	.section	.text.mbedtls_sha256_update,"ax",@progbits
	.align	1
	.globl	mbedtls_sha256_update
	.type	mbedtls_sha256_update, @function
mbedtls_sha256_update:
.LVL23:
.LFB21:
.LM153:
	.cfi_startproc
.LM154:
.LM155:
.LM156:
.LM157:
.LM158:
	beq	a2,zero,.L43
.LM159:
	addi	sp,sp,-32
	.cfi_def_cfa_offset 32
	sw	s0,24(sp)
	sw	s2,16(sp)
	sw	s3,12(sp)
	sw	ra,28(sp)
	sw	s1,20(sp)
	sw	s4,8(sp)
	sw	s5,4(sp)
	.cfi_offset 8, -8
	.cfi_offset 18, -16
	.cfi_offset 19, -20
	.cfi_offset 1, -4
	.cfi_offset 9, -12
	.cfi_offset 20, -24
	.cfi_offset 21, -28
.LM160:
	lw	a5,64(a0)
	mv	s2,a1
	mv	s0,a2
.LM161:
	add	a4,a5,a2
.LM162:
	sw	a4,64(a0)
.LM163:
	andi	s3,a5,63
.LVL24:
.LM164:
.LM165:
.LM166:
.LM167:
.LM168:
	bgeu	a4,a5,.L26
.LM169:
.LM170:
	lw	a5,68(a0)
	addi	a5,a5,1
	sw	a5,68(a0)
.L26:
	mv	s1,a0
.LM171:
.LM172:
	beq	s3,zero,.L27
.LVL25:
.LM173:
	li	a2,64
.LVL26:
.LM174:
	sub	s4,a2,s3
.LM175:
	bltu	s0,s4,.L28
.LM176:
	mv	a1,s2
.LVL27:
.LM177:
	mv	a2,s4
	add	a0,a0,s3
	call	memcpy
.LVL28:
.LM178:
.LM179:
	mv	a1,s1
	mv	a0,s1
	add	s0,s0,s3
.LVL29:
.LM180:
	call	mbedtls_internal_sha256_process
.LVL30:
.LM181:
.LM182:
	add	s2,s2,s4
.LVL31:
.LM183:
.LM184:
	addi	s0,s0,-64
.LVL32:
.LM185:
.L27:
.LM186:
	li	s4,63
	j	.L30
.LVL33:
.L32:
.LM187:
	mv	s3,s2
.LBB40:
.LBB41:
.LBB42:
.LM188:
	add	s5,s2,s0
.L29:
.LVL34:
.LM189:
.LM190:
	mv	a1,s3
	mv	a0,s1
	call	mbedtls_internal_sha256_process
.LVL35:
.LM191:
.LM192:
	addi	s3,s3,64
.LVL36:
.LM193:
.LM194:
.LM195:
	sub	a5,s5,s3
	bgtu	a5,s4,.L29
	addi	a5,s0,-64
	andi	a5,a5,-64
	addi	a5,a5,64
.LBE42:
.LBE41:
.LM196:
.LVL37:
.LM197:
.LM198:
	add	s2,s2,a5
.LVL38:
.LM199:
.LM200:
	sub	s0,s0,a5
.LVL39:
.L30:
.LM201:
.LBE40:
.LM202:
	bgtu	s0,s4,.L32
.LM203:
.LM204:
	beq	s0,zero,.L23
	li	s3,0
.LVL40:
.L28:
.LM205:
	mv	a2,s0
	mv	a1,s2
	add	a0,s1,s3
	call	memcpy
.LVL41:
.L23:
.LM206:
	lw	ra,28(sp)
	.cfi_restore 1
	lw	s0,24(sp)
	.cfi_restore 8
.LVL42:
.LM207:
	lw	s1,20(sp)
	.cfi_restore 9
.LVL43:
.LM208:
	lw	s2,16(sp)
	.cfi_restore 18
.LVL44:
.LM209:
	lw	s3,12(sp)
	.cfi_restore 19
	lw	s4,8(sp)
	.cfi_restore 20
	lw	s5,4(sp)
	.cfi_restore 21
	li	a0,0
	addi	sp,sp,32
	.cfi_def_cfa_offset 0
	jr	ra
.LVL45:
.L43:
.LM210:
	li	a0,0
.LVL46:
.LM211:
	ret
	.cfi_endproc
.LFE21:
	.size	mbedtls_sha256_update, .-mbedtls_sha256_update
	.section	.text.mbedtls_sha256_finish,"ax",@progbits
	.align	1
	.globl	mbedtls_sha256_finish
	.type	mbedtls_sha256_finish, @function
mbedtls_sha256_finish:
.LVL47:
.LFB22:
.LM212:
	.cfi_startproc
.LM213:
.LM214:
.LM215:
.LM216:
.LM217:
.LM218:
	addi	sp,sp,-16
	.cfi_def_cfa_offset 16
	sw	s0,8(sp)
	sw	s1,4(sp)
	sw	s2,0(sp)
	sw	ra,12(sp)
	.cfi_offset 8, -8
	.cfi_offset 9, -12
	.cfi_offset 18, -16
	.cfi_offset 1, -4
.LM219:
	lw	a5,64(a0)
.LM220:
	li	a4,-128
.LM221:
	li	s2,56
.LM222:
	andi	a5,a5,63
.LVL48:
.LM223:
.LM224:
	addi	a2,a5,1
.LVL49:
.LM225:
	add	a5,a0,a5
	sb	a4,0(a5)
.LM226:
.LM227:
	mv	s1,a0
	mv	s0,a1
	add	a0,a0,a2
.LVL50:
.LM228:
	bgtu	a2,s2,.L47
.LM229:
	sub	a2,s2,a2
.LVL51:
.LM230:
	li	a1,0
.LVL52:
.L51:
.LM231:
	call	memset
.LVL53:
.LM232:
.LM233:
	lw	a5,68(s1)
.LM234:
	lw	s2,64(s1)
.LVL54:
.LM235:
.LM236:
.LM237:
.LM238:
	slli	a5,a5,3
.LVL55:
.LM239:
	srli	a0,s2,29
.LM240:
	or	a0,a5,a0
.LVL56:
.LM241:
	call	__bswapsi2
.LVL57:
.LBB43:
.LBI43:
.LM242:
.LBB44:
.LM243:
.LM244:
.LM245:
	srli	a5,a0,8
	sb	a0,56(s1)
	sb	a5,57(s1)
	srli	a5,a0,16
	srli	a0,a0,24
.LVL58:
.LM246:
	sb	a5,58(s1)
	sb	a0,59(s1)
.LVL59:
.LM247:
.LBE44:
.LBE43:
.LM248:
.LM249:
.LM250:
.LM251:
	slli	a0,s2,3
.LVL60:
.LM252:
	call	__bswapsi2
.LVL61:
.LBB45:
.LBI45:
.LM253:
.LBB46:
.LM254:
.LM255:
.LM256:
	srli	a5,a0,8
	sb	a0,60(s1)
	sb	a5,61(s1)
	srli	a5,a0,16
	srli	a0,a0,24
.LVL62:
.LM257:
.LBE46:
.LBE45:
.LM258:
	mv	a1,s1
.LBB48:
.LBB47:
.LM259:
	sb	a5,62(s1)
	sb	a0,63(s1)
.LVL63:
.LM260:
.LBE47:
.LBE48:
.LM261:
.LM262:
.LM263:
	mv	a0,s1
	call	mbedtls_internal_sha256_process
.LVL64:
.LM264:
.LM265:
.LM266:
	lw	a0,72(s1)
	call	__bswapsi2
.LVL65:
.LBB49:
.LBI49:
.LM267:
.LBB50:
.LM268:
.LM269:
.LM270:
	srli	a5,a0,8
	sb	a0,0(s0)
	sb	a5,1(s0)
	srli	a5,a0,16
	srli	a0,a0,24
.LVL66:
.LM271:
	sb	a5,2(s0)
	sb	a0,3(s0)
.LVL67:
.LM272:
.LBE50:
.LBE49:
.LM273:
.LM274:
.LM275:
.LM276:
	lw	a0,76(s1)
	call	__bswapsi2
.LVL68:
.LBB51:
.LBI51:
.LM277:
.LBB52:
.LM278:
.LM279:
.LM280:
	srli	a5,a0,8
	sb	a0,4(s0)
	sb	a5,5(s0)
	srli	a5,a0,16
	srli	a0,a0,24
.LVL69:
.LM281:
	sb	a5,6(s0)
	sb	a0,7(s0)
.LVL70:
.LM282:
.LBE52:
.LBE51:
.LM283:
.LM284:
.LM285:
.LM286:
	lw	a0,80(s1)
	call	__bswapsi2
.LVL71:
.LBB53:
.LBI53:
.LM287:
.LBB54:
.LM288:
.LM289:
.LM290:
	srli	a5,a0,8
	sb	a0,8(s0)
	sb	a5,9(s0)
	srli	a5,a0,16
	srli	a0,a0,24
.LVL72:
.LM291:
	sb	a5,10(s0)
	sb	a0,11(s0)
.LVL73:
.LM292:
.LBE54:
.LBE53:
.LM293:
.LM294:
.LM295:
.LM296:
	lw	a0,84(s1)
	call	__bswapsi2
.LVL74:
.LBB55:
.LBI55:
.LM297:
.LBB56:
.LM298:
.LM299:
.LM300:
	srli	a5,a0,8
	sb	a0,12(s0)
	sb	a5,13(s0)
	srli	a5,a0,16
	srli	a0,a0,24
.LVL75:
.LM301:
	sb	a5,14(s0)
	sb	a0,15(s0)
.LVL76:
.LM302:
.LBE56:
.LBE55:
.LM303:
.LM304:
.LM305:
.LM306:
	lw	a0,88(s1)
	call	__bswapsi2
.LVL77:
.LBB57:
.LBI57:
.LM307:
.LBB58:
.LM308:
.LM309:
.LM310:
	srli	a5,a0,8
	sb	a0,16(s0)
	sb	a5,17(s0)
	srli	a5,a0,16
	srli	a0,a0,24
.LVL78:
.LM311:
	sb	a5,18(s0)
	sb	a0,19(s0)
.LVL79:
.LM312:
.LBE58:
.LBE57:
.LM313:
.LM314:
.LM315:
.LM316:
	lw	a0,92(s1)
	call	__bswapsi2
.LVL80:
.LBB59:
.LBI59:
.LM317:
.LBB60:
.LM318:
.LM319:
.LM320:
	srli	a5,a0,8
	sb	a0,20(s0)
	sb	a5,21(s0)
	srli	a5,a0,16
	srli	a0,a0,24
.LVL81:
.LM321:
	sb	a5,22(s0)
	sb	a0,23(s0)
.LVL82:
.LM322:
.LBE60:
.LBE59:
.LM323:
.LM324:
.LM325:
.LM326:
	lw	a0,96(s1)
	call	__bswapsi2
.LVL83:
.LBB61:
.LBI61:
.LM327:
.LBB62:
.LM328:
.LM329:
.LM330:
	srli	a5,a0,8
	sb	a0,24(s0)
	sb	a5,25(s0)
	srli	a5,a0,16
	srli	a0,a0,24
.LVL84:
.LM331:
	sb	a5,26(s0)
	sb	a0,27(s0)
.LVL85:
.LM332:
.LBE62:
.LBE61:
.LM333:
.LM334:
.LM335:
.LM336:
	lw	a5,104(s1)
	bne	a5,zero,.L49
.LM337:
.LM338:
.LM339:
	lw	a0,100(s1)
	call	__bswapsi2
.LVL86:
.LBB63:
.LBI63:
.LM340:
.LBB64:
.LM341:
.LM342:
.LM343:
	srli	a5,a0,8
	sb	a0,28(s0)
	sb	a5,29(s0)
	srli	a5,a0,16
	srli	a0,a0,24
.LVL87:
.LM344:
	sb	a5,30(s0)
	sb	a0,31(s0)
.LVL88:
.L49:
.LM345:
.LBE64:
.LBE63:
.LM346:
.LM347:
.LDL1:
.LM348:
	mv	a0,s1
	call	mbedtls_sha256_free
.LVL89:
.LM349:
.LM350:
	lw	ra,12(sp)
	.cfi_remember_state
	.cfi_restore 1
	lw	s0,8(sp)
	.cfi_restore 8
.LVL90:
.LM351:
	lw	s1,4(sp)
	.cfi_restore 9
.LVL91:
.LM352:
	lw	s2,0(sp)
	.cfi_restore 18
.LVL92:
.LM353:
	li	a0,0
	addi	sp,sp,16
	.cfi_def_cfa_offset 0
	jr	ra
.LVL93:
.L47:
	.cfi_restore_state
.LM354:
	li	a5,64
	sub	a2,a5,a2
.LVL94:
.LM355:
	li	a1,0
	call	memset
.LVL95:
.LM356:
.LM357:
	mv	a1,s1
	mv	a0,s1
	call	mbedtls_internal_sha256_process
.LVL96:
.LM358:
	mv	a2,s2
	li	a1,0
	mv	a0,s1
	j	.L51
	.cfi_endproc
.LFE22:
	.size	mbedtls_sha256_finish, .-mbedtls_sha256_finish
	.section	.rodata.mbedtls_sha256_common_self_test.str1.4,"aMS",@progbits,1
	.align	2
.LC0:
	.string	"Buffer allocation failed\n"
	.align	2
.LC1:
	.string	"  SHA-%d test #%d: "
	.align	2
.LC2:
	.string	"passed\n"
	.align	2
.LC3:
	.string	"\n"
	.align	2
.LC4:
	.string	"failed\n"
	.section	.text.mbedtls_sha256_common_self_test,"ax",@progbits
	.align	1
	.type	mbedtls_sha256_common_self_test, @function
mbedtls_sha256_common_self_test:
.LVL97:
.LFB24:
.LM359:
	.cfi_startproc
.LM360:
.LM361:
.LM362:
.LM363:
.LM364:
.LM365:
	addi	sp,sp,-192
	.cfi_def_cfa_offset 192
	sw	s3,172(sp)
	sw	s6,160(sp)
	sw	ra,188(sp)
	sw	s0,184(sp)
	sw	s1,180(sp)
	sw	s2,176(sp)
	sw	s4,168(sp)
	sw	s5,164(sp)
	sw	s7,156(sp)
	sw	s8,152(sp)
	.cfi_offset 19, -20
	.cfi_offset 22, -32
	.cfi_offset 1, -4
	.cfi_offset 8, -8
	.cfi_offset 9, -12
	.cfi_offset 18, -16
	.cfi_offset 20, -24
	.cfi_offset 21, -28
	.cfi_offset 23, -36
	.cfi_offset 24, -40
.LM366:
	mv	s3,a0
	mv	s6,a1
.LM367:
	beq	a1,zero,.L68
.LM368:
	lui	s2,%hi(sha224_test_sum)
	addi	s2,s2,%lo(sha224_test_sum)
.L53:
.LVL98:
.LM369:
.LM370:
	li	a1,1
.LVL99:
.LM371:
	li	a0,1024
.LVL100:
.LM372:
	call	calloc
.LVL101:
	mv	s7,a0
.LVL102:
.LM373:
.LM374:
	bne	a0,zero,.L54
.LM375:
.LM376:
	beq	s3,zero,.L55
.LM377:
	lui	a0,%hi(.LC0)
.LVL103:
.LM378:
	addi	a0,a0,%lo(.LC0)
	call	printf
.LVL104:
.L55:
.LM379:
	li	s0,1
.LVL105:
.L52:
.LM380:
	lw	ra,188(sp)
	.cfi_remember_state
	.cfi_restore 1
	mv	a0,s0
	lw	s0,184(sp)
	.cfi_restore 8
	lw	s1,180(sp)
	.cfi_restore 9
	lw	s2,176(sp)
	.cfi_restore 18
.LVL106:
.LM381:
	lw	s3,172(sp)
	.cfi_restore 19
.LVL107:
.LM382:
	lw	s4,168(sp)
	.cfi_restore 20
	lw	s5,164(sp)
	.cfi_restore 21
	lw	s6,160(sp)
	.cfi_restore 22
.LVL108:
.LM383:
	lw	s7,156(sp)
	.cfi_restore 23
.LVL109:
.LM384:
	lw	s8,152(sp)
	.cfi_restore 24
	addi	sp,sp,192
	.cfi_def_cfa_offset 0
	jr	ra
.LVL110:
.L68:
	.cfi_restore_state
.LM385:
	lui	s2,%hi(sha256_test_sum)
	addi	s2,s2,%lo(sha256_test_sum)
	j	.L53
.LVL111:
.L54:
.LM386:
	addi	a0,sp,36
.LVL112:
.LM387:
	call	mbedtls_sha256_init
.LVL113:
.LM388:
.LM389:
.LM390:
	li	a5,8
	sub	a5,a5,s6
	lui	s5,%hi(sha_test_buflen)
	lui	s4,%hi(sha_test_buf)
	slli	s8,a5,2
	addi	s5,s5,%lo(sha_test_buflen)
	addi	s4,s4,%lo(sha_test_buf)
.LM391:
	li	s1,0
.LVL114:
.L64:
.LM392:
.LM393:
	beq	s3,zero,.L57
.LM394:
.LM395:
	li	a1,8
	sub	a1,a1,s6
.LM396:
	lui	a0,%hi(.LC1)
	addi	a2,s1,1
	slli	a1,a1,5
	addi	a0,a0,%lo(.LC1)
	call	printf
.LVL115:
.L57:
.LM397:
.LBB72:
.LBI72:
.LM398:
.LBB73:
.LM399:
.LM400:
.LM401:
.LM402:
.LM403:
	beq	s6,zero,.L69
	li	a7,-1056595968
	li	a6,914149376
	li	a0,812703744
	li	a1,-150052864
	li	a2,-4190208
	li	a3,1750601728
	li	a4,1694076928
	li	a5,-1090891776
	addi	a7,a7,-296
	addi	a6,a6,1287
	addi	a0,a0,-745
	addi	a1,a1,-1735
	addi	a2,a2,-1231
	addi	a3,a3,1297
	addi	a4,a4,-89
	addi	a5,a5,-92
.L58:
.LM404:
	sw	a5,136(sp)
.LM405:
.LM406:
	sw	zero,100(sp)
.LM407:
	sw	zero,104(sp)
.LM408:
	sw	a7,108(sp)
.LM409:
	sw	a6,112(sp)
.LM410:
	sw	a0,116(sp)
.LM411:
	sw	a1,120(sp)
.LM412:
	sw	a2,124(sp)
.LM413:
	sw	a3,128(sp)
.LM414:
	sw	a4,132(sp)
.LM415:
	sw	s6,140(sp)
.LM416:
.LVL116:
.LM417:
.LBE73:
.LBE72:
.LM418:
.LM419:
	li	a5,2
	bne	s1,a5,.L59
.LM420:
.LVL117:
.LM421:
	li	a2,1000
	li	a1,97
	mv	a0,s7
	call	memset
.LVL118:
.LM422:
.LBB75:
.LM423:
.LM424:
.LBE75:
.LM425:
	li	s0,1000
.LVL119:
.L60:
.LBB76:
.LM426:
.LM427:
	li	a2,1000
	mv	a1,s7
	addi	a0,sp,36
.LM428:
	addi	s0,s0,-1
.LVL120:
.LM429:
	call	mbedtls_sha256_update
.LVL121:
.LM430:
.LM431:
.LM432:
	bne	s0,zero,.L60
.LVL122:
.L61:
.LM433:
.LBE76:
.LM434:
.LM435:
	addi	a1,sp,4
	addi	a0,sp,36
	call	mbedtls_sha256_finish
.LVL123:
.LM436:
.LM437:
	slli	a1,s1,5
.LM438:
	mv	a2,s8
	add	a1,s2,a1
	addi	a0,sp,4
	call	memcmp
.LVL124:
	mv	s0,a0
.LM439:
	bne	a0,zero,.L62
.LM440:
.LM441:
	beq	s3,zero,.L63
.LM442:
	lui	a0,%hi(.LC2)
	addi	a0,a0,%lo(.LC2)
	call	printf
.LVL125:
.L63:
.LM443:
	addi	s1,s1,1
.LVL126:
.LM444:
	li	a5,3
	addi	s5,s5,4
	addi	s4,s4,57
	bne	s1,a5,.L64
.LM445:
.LM446:
	beq	s3,zero,.L66
.LM447:
	lui	a0,%hi(.LC3)
	addi	a0,a0,%lo(.LC3)
	call	printf
.LVL127:
.L66:
.LM448:
.LBB77:
.LBI77:
.LM449:
.LM450:
.LBB78:
.LBI78:
.LM451:
.LBB79:
.LM452:
	addi	a0,sp,36
.LVL128:
.LM453:
	li	a1,108
	call	mbedtls_platform_zeroize
.LVL129:
.LM454:
.LBE79:
.LBE78:
.LBE77:
.LM455:
	mv	a0,s7
	call	free
.LVL130:
.LM456:
.LM457:
	j	.L52
.LVL131:
.L69:
.LBB80:
.LBB74:
.LM458:
	li	a7,1779032064
	li	a6,-1150832640
	li	a0,1013903360
	li	a1,-1521487872
	li	a2,1359892480
	li	a3,-1694142464
	li	a4,528736256
	li	a5,1541459968
	addi	a7,a7,1639
	addi	a6,a6,-379
	addi	a0,a0,882
	addi	a1,a1,1338
	addi	a2,a2,639
	addi	a3,a3,-1908
	addi	a4,a4,-1621
	addi	a5,a5,-743
	j	.L58
.LVL132:
.L59:
.LM459:
.LBE74:
.LBE80:
.LM460:
.LM461:
	lw	a2,0(s5)
	mv	a1,s4
	addi	a0,sp,36
	call	mbedtls_sha256_update
.LVL133:
.LM462:
	j	.L61
.L62:
.LVL134:
.LM463:
.LM464:
	beq	s3,zero,.L67
.LM465:
	lui	a0,%hi(.LC4)
	addi	a0,a0,%lo(.LC4)
	call	printf
.LVL135:
.L67:
.LM466:
	li	s0,1
	j	.L66
	.cfi_endproc
.LFE24:
	.size	mbedtls_sha256_common_self_test, .-mbedtls_sha256_common_self_test
	.section	.text.mbedtls_sha256,"ax",@progbits
	.align	1
	.globl	mbedtls_sha256
	.type	mbedtls_sha256, @function
mbedtls_sha256:
.LVL136:
.LFB23:
.LM467:
	.cfi_startproc
.LM468:
.LM469:
.LM470:
.LM471:
	li	a5,1
	bgtu	a3,a5,.L91
.LM472:
	addi	sp,sp,-144
	.cfi_def_cfa_offset 144
	sw	a0,8(sp)
.LM473:
	addi	a0,sp,20
.LVL137:
.LM474:
	sw	s0,136(sp)
	sw	s1,132(sp)
	sw	a1,12(sp)
	.cfi_offset 8, -8
	.cfi_offset 9, -12
	mv	s1,a2
	sw	ra,140(sp)
	.cfi_offset 1, -4
	mv	s0,a3
.LM475:
	call	mbedtls_sha256_init
.LVL138:
.LM476:
.LBB87:
.LBI87:
.LM477:
.LBB88:
.LM478:
.LM479:
.LM480:
.LM481:
.LM482:
	lw	a1,8(sp)
	lw	a2,12(sp)
	beq	s0,zero,.L92
	li	t4,-1056595968
	li	t3,914149376
	li	t1,812703744
	li	a0,-150052864
	li	a7,-4190208
	li	a6,1750601728
	li	a4,1694076928
	li	a5,-1090891776
	addi	t4,t4,-296
	addi	t3,t3,1287
	addi	t1,t1,-745
	addi	a0,a0,-1735
	addi	a7,a7,-1231
	addi	a6,a6,1297
	addi	a4,a4,-89
	addi	a5,a5,-92
.L90:
.LM483:
	sw	a0,104(sp)
.LBE88:
.LBE87:
.LM484:
	addi	a0,sp,20
.LVL139:
.LBB92:
.LBB89:
.LM485:
	sw	t4,92(sp)
.LM486:
	sw	t3,96(sp)
.LM487:
	sw	t1,100(sp)
.LM488:
	sw	a7,108(sp)
.LM489:
	sw	a6,112(sp)
.LM490:
	sw	a4,116(sp)
.LM491:
	sw	a5,120(sp)
.LM492:
.LM493:
	sw	s0,124(sp)
.LM494:
.LVL140:
.LM495:
.LBE89:
.LBE92:
.LM496:
.LBB93:
.LBB90:
.LM497:
	sw	zero,84(sp)
.LM498:
	sw	zero,88(sp)
.LBE90:
.LBE93:
.LM499:
	call	mbedtls_sha256_update
.LVL141:
.LM500:
.LM501:
	mv	a1,s1
	addi	a0,sp,20
	call	mbedtls_sha256_finish
.LVL142:
.LDL2:
.LM502:
.LBB94:
.LBI94:
.LM503:
.LM504:
.LBB95:
.LBI95:
.LM505:
.LBB96:
.LM506:
	addi	a0,sp,20
.LVL143:
.LM507:
	li	a1,108
	call	mbedtls_platform_zeroize
.LVL144:
.LM508:
.LBE96:
.LBE95:
.LBE94:
.LM509:
.LM510:
	lw	ra,140(sp)
	.cfi_remember_state
	.cfi_restore 1
	lw	s0,136(sp)
	.cfi_restore 8
.LVL145:
.LM511:
	lw	s1,132(sp)
	.cfi_restore 9
.LVL146:
.LM512:
	li	a0,0
.LM513:
	addi	sp,sp,144
	.cfi_def_cfa_offset 0
.LVL147:
.LM514:
	jr	ra
.LVL148:
.L92:
	.cfi_restore_state
.LBB97:
.LBB91:
.LM515:
	li	t4,1779032064
	li	t3,-1150832640
	li	t1,1013903360
	li	a0,-1521487872
	li	a7,1359892480
	li	a6,-1694142464
	li	a4,528736256
	li	a5,1541459968
	addi	t4,t4,1639
	addi	t3,t3,-379
	addi	t1,t1,882
	addi	a0,a0,1338
	addi	a7,a7,639
	addi	a6,a6,-1908
	addi	a4,a4,-1621
	addi	a5,a5,-743
	j	.L90
.LVL149:
.L91:
	.cfi_def_cfa_offset 0
	.cfi_restore 1
	.cfi_restore 8
	.cfi_restore 9
.LM516:
.LBE91:
.LBE97:
.LM517:
	li	a0,-116
.LVL150:
.LM518:
	ret
	.cfi_endproc
.LFE23:
	.size	mbedtls_sha256, .-mbedtls_sha256
	.section	.text.mbedtls_sha256_self_test,"ax",@progbits
	.align	1
	.globl	mbedtls_sha256_self_test
	.type	mbedtls_sha256_self_test, @function
mbedtls_sha256_self_test:
.LVL151:
.LFB25:
.LM519:
	.cfi_startproc
.LM520:
.LM521:
	li	a1,0
	tail	mbedtls_sha256_common_self_test
.LVL152:
.LM522:
	.cfi_endproc
.LFE25:
	.size	mbedtls_sha256_self_test, .-mbedtls_sha256_self_test
	.section	.text.mbedtls_sha224_self_test,"ax",@progbits
	.align	1
	.globl	mbedtls_sha224_self_test
	.type	mbedtls_sha224_self_test, @function
mbedtls_sha224_self_test:
.LVL153:
.LFB26:
.LM523:
	.cfi_startproc
.LM524:
.LM525:
	li	a1,1
	tail	mbedtls_sha256_common_self_test
.LVL154:
.LM526:
	.cfi_endproc
.LFE26:
	.size	mbedtls_sha224_self_test, .-mbedtls_sha224_self_test
	.section	.rodata.sha256_test_sum,"a"
	.align	2
	.type	sha256_test_sum, @object
	.size	sha256_test_sum, 96
sha256_test_sum:
	.base64	"ungWv48Bz+pBQUDeXa4iI7ADYaOWF3qctBD/YfIAFa0="
	.base64	"JI1qYdIGOLjlwCaTDD5gOaM85Flk/yFn9uzt1BnbBsE="
	.base64	"zcduXJkU+5KBocfihNc+Z/GAmkiklyAOBG05zMcRLNA="
	.section	.rodata.sha224_test_sum,"a"
	.align	2
	.type	sha224_test_sum, @object
	.size	sha224_test_sum, 96
sha224_test_sum:
	.base64	"Iwl9IjQF2CKGQqR3vaJVsyqtvOS9oLP342ydpwA="
	.zero	3
	.base64	"dTiLFlEndsxdul2h/YkBULDGRVy09YsZUlIlJQA="
	.zero	3
	.base64	"IHlGVZgMkdi7tMHql2GKS/A/QlgZSLLuTuetZwA="
	.zero	3
	.section	.rodata.sha_test_buflen,"a"
	.align	2
	.type	sha_test_buflen, @object
	.size	sha_test_buflen, 12
sha_test_buflen:
	.word	3
	.word	56
	.word	1000
	.section	.rodata.sha_test_buf,"a"
	.align	2
	.type	sha_test_buf, @object
	.size	sha_test_buf, 171
sha_test_buf:
	.string	"abc"
	.zero	53
	.string	"abcdbcdecdefdefgefghfghighijhijkijkljklmklmnlmnomnopnopq"
	.string	""
	.zero	56
	.section	.rodata.K,"a"
	.align	2
	.type	K, @object
	.size	K, 256
K:
	.word	1116352408
	.word	1899447441
	.word	-1245643825
	.word	-373957723
	.word	961987163
	.word	1508970993
	.word	-1841331548
	.word	-1424204075
	.word	-670586216
	.word	310598401
	.word	607225278
	.word	1426881987
	.word	1925078388
	.word	-2132889090
	.word	-1680079193
	.word	-1046744716
	.word	-459576895
	.word	-272742522
	.word	264347078
	.word	604807628
	.word	770255983
	.word	1249150122
	.word	1555081692
	.word	1996064986
	.word	-1740746414
	.word	-1473132947
	.word	-1341970488
	.word	-1084653625
	.word	-958395405
	.word	-710438585
	.word	113926993
	.word	338241895
	.word	666307205
	.word	773529912
	.word	1294757372
	.word	1396182291
	.word	1695183700
	.word	1986661051
	.word	-2117940946
	.word	-1838011259
	.word	-1564481375
	.word	-1474664885
	.word	-1035236496
	.word	-949202525
	.word	-778901479
	.word	-694614492
	.word	-200395387
	.word	275423344
	.word	430227734
	.word	506948616
	.word	659060556
	.word	883997877
	.word	958139571
	.word	1322822218
	.word	1537002063
	.word	1747873779
	.word	1955562222
	.word	2024104815
	.word	-2067236844
	.word	-1933114872
	.word	-1866530822
	.word	-1538233109
	.word	-1090935817
	.word	-965641998
	.text
.Letext0:
	.section	.note.GNU-stack,"",@progbits
