	.file	"ssl_ticket.c"
	.option nopic
	.attribute arch, "rv32i2p1_m2p0_f2p2_c2p0_zicsr2p0_zmmul1p0_zca1p0_zcf1p0"
	.attribute unaligned_access, 0
	.attribute stack_align, 16
	.text
.Ltext0:
	.cfi_sections	.debug_frame
	.section	.text.ssl_ticket_gen_key,"ax",@progbits
	.align	1
	.type	ssl_ticket_gen_key, @function
ssl_ticket_gen_key:
.LVL0:
.LFB143:
.LM1:
	.cfi_startproc
.LM2:
.LM3:
.LM4:
	addi	sp,sp,-64
	.cfi_def_cfa_offset 64
	sw	s0,56(sp)
	sw	s1,52(sp)
	.cfi_offset 8, -8
	.cfi_offset 9, -12
	mv	s0,a1
	mv	s1,a0
.LM5:
	li	a2,32
	li	a1,0
.LVL1:
.LM6:
	addi	a0,sp,16
.LVL2:
.LM7:
	sw	ra,60(sp)
	.cfi_offset 1, -4
.LM8:
	call	memset
.LVL3:
.LM9:
.LM10:
	lw	a5,156(s1)
.LM11:
	neg	s0,s0
.LVL4:
.LM12:
	andi	s0,s0,76
.LVL5:
.LM13:
	add	s0,s1,s0
.LVL6:
.LM14:
.LM15:
	sw	a5,4(s0)
.LM16:
.LM17:
	lw	a5,160(s1)
	lw	a0,164(s1)
	li	a2,4
	mv	a1,s0
	jalr	a5
.LVL7:
	mv	a2,a0
.LVL8:
.LM18:
	bne	a0,zero,.L1
.LM19:
.LM20:
	lw	a5,160(s1)
	lw	a0,164(s1)
.LVL9:
.LM21:
	li	a2,32
.LVL10:
.LM22:
	addi	a1,sp,16
	jalr	a5
.LVL11:
	mv	a2,a0
.LVL12:
.LM23:
	bne	a0,zero,.L1
.LM24:
	lw	a5,8(s0)
.LM25:
	addi	a0,s0,8
.LVL13:
.LBB24:
.LBI24:
.LM26:
.LBB25:
.LM27:
.LM28:
	beq	a5,zero,.L3
.LM29:
.LM30:
	lw	a2,4(a5)
.LVL14:
.LM31:
	srli	a2,a2,2
.LM32:
	andi	a2,a2,960
.L3:
.LVL15:
.LM33:
.LBE25:
.LBE24:
.LM34:
	li	a3,1
	addi	a1,sp,16
	call	mbedtls_cipher_setkey
.LVL16:
	sw	a0,12(sp)
.LVL17:
.LM35:
	li	a1,32
	addi	a0,sp,16
.LVL18:
.LM36:
	call	mbedtls_platform_zeroize
.LVL19:
	lw	a2,12(sp)
.LM37:
.LVL20:
.L1:
.LM38:
	lw	ra,60(sp)
	.cfi_restore 1
	lw	s0,56(sp)
	.cfi_restore 8
.LVL21:
.LM39:
	lw	s1,52(sp)
	.cfi_restore 9
.LVL22:
.LM40:
	mv	a0,a2
	addi	sp,sp,64
	.cfi_def_cfa_offset 0
	jr	ra
	.cfi_endproc
.LFE143:
	.size	ssl_ticket_gen_key, .-ssl_ticket_gen_key
	.section	.text.mbedtls_ssl_ticket_init,"ax",@progbits
	.align	1
	.globl	mbedtls_ssl_ticket_init
	.type	mbedtls_ssl_ticket_init, @function
mbedtls_ssl_ticket_init:
.LVL23:
.LFB142:
.LM41:
	.cfi_startproc
.LM42:
	li	a2,168
	li	a1,0
	tail	memset
.LVL24:
.LM43:
	.cfi_endproc
.LFE142:
	.size	mbedtls_ssl_ticket_init, .-mbedtls_ssl_ticket_init
	.section	.text.mbedtls_ssl_ticket_rotate,"ax",@progbits
	.align	1
	.globl	mbedtls_ssl_ticket_rotate
	.type	mbedtls_ssl_ticket_rotate, @function
mbedtls_ssl_ticket_rotate:
.LVL25:
.LFB145:
.LM44:
	.cfi_startproc
.LM45:
.LM46:
	addi	sp,sp,-32
	.cfi_def_cfa_offset 32
	sw	s0,24(sp)
	sw	s1,20(sp)
	sw	s2,16(sp)
	sw	ra,28(sp)
	sw	s3,12(sp)
	sw	s4,8(sp)
	sw	s5,4(sp)
	.cfi_offset 8, -8
	.cfi_offset 9, -12
	.cfi_offset 18, -16
	.cfi_offset 1, -4
	.cfi_offset 19, -20
	.cfi_offset 20, -24
	.cfi_offset 21, -28
.LM47:
	lbu	a6,152(a0)
	li	s2,1
.LM48:
	li	s1,76
.LM49:
	sub	s2,s2,a6
	andi	s2,s2,0xff
.LVL26:
.LM50:
.LM51:
	mul	s1,s2,s1
.LM52:
	li	s0,-24576
	li	a6,3
	addi	s0,s0,-256
.LM53:
	add	s1,a0,s1
.LVL27:
.LM54:
.LM55:
	lw	a7,8(s1)
.LBB28:
.LBI28:
.LM56:
.LVL28:
.LBB29:
.LM57:
.LM58:
	beq	a7,zero,.L10
.LM59:
.LVL29:
.LM60:
.LBE29:
.LBE28:
.LM61:
.LM62:
	bleu	a2,a6,.L9
.LBB33:
.LBB30:
.LM63:
	lw	a2,4(a7)
.LVL30:
.LM64:
.LBE30:
.LBE33:
.LM65:
	li	s0,-24576
.LM66:
	slli	a4,a4,3
.LVL31:
.LBB34:
.LBB31:
.LM67:
	srli	a2,a2,2
.LM68:
	andi	a2,a2,960
.LBE31:
.LBE34:
.LM69:
	addi	s0,s0,-256
.LM70:
	bltu	a4,a2,.L9
.LVL32:
.L14:
.LM71:
	mv	s5,a1
	mv	s4,a0
.LM72:
	mv	a1,a3
.LVL33:
.LM73:
.LM74:
	addi	a0,s1,8
.LVL34:
.LM75:
	li	a3,1
.LVL35:
.LM76:
	mv	s3,a5
	call	mbedtls_cipher_setkey
.LVL36:
.LM77:
	mv	s0,a0
.LVL37:
.LM78:
.LM79:
	bne	a0,zero,.L9
.LM80:
.LM81:
	sb	s2,152(s4)
.LM82:
.LM83:
	sw	s3,156(s4)
.LM84:
	li	a2,4
	mv	a1,s5
	mv	a0,s1
	call	memcpy
.LVL38:
.LM85:
.LM86:
	sw	s3,4(s1)
.LM87:
.LVL39:
.L9:
.LM88:
	lw	ra,28(sp)
	.cfi_remember_state
	.cfi_restore 1
	mv	a0,s0
	lw	s0,24(sp)
	.cfi_restore 8
	lw	s1,20(sp)
	.cfi_restore 9
.LVL40:
.LM89:
	lw	s2,16(sp)
	.cfi_restore 18
.LVL41:
.LM90:
	lw	s3,12(sp)
	.cfi_restore 19
	lw	s4,8(sp)
	.cfi_restore 20
	lw	s5,4(sp)
	.cfi_restore 21
	addi	sp,sp,32
	.cfi_def_cfa_offset 0
	jr	ra
.LVL42:
.L10:
	.cfi_restore_state
.LM91:
.LM92:
	bleu	a2,a6,.L9
.LBB35:
.LBB32:
.LM93:
	li	a2,0
.LVL43:
.LM94:
	j	.L14
.LBE32:
.LBE35:
	.cfi_endproc
.LFE145:
	.size	mbedtls_ssl_ticket_rotate, .-mbedtls_ssl_ticket_rotate
	.section	.text.mbedtls_ssl_ticket_setup,"ax",@progbits
	.align	1
	.globl	mbedtls_ssl_ticket_setup
	.type	mbedtls_ssl_ticket_setup, @function
mbedtls_ssl_ticket_setup:
.LVL44:
.LFB146:
.LM95:
	.cfi_startproc
.LM96:
.LM97:
.LM98:
.LM99:
.LM100:
	addi	sp,sp,-32
	.cfi_def_cfa_offset 32
	sw	s0,24(sp)
	.cfi_offset 8, -8
	mv	s0,a0
.LM101:
	mv	a0,a3
.LVL45:
.LM102:
	sw	s1,20(sp)
	sw	ra,28(sp)
	.cfi_offset 9, -12
	.cfi_offset 1, -4
.LM103:
	mv	s1,a1
	sw	a2,12(sp)
	sw	a4,8(sp)
.LM104:
	call	mbedtls_cipher_info_from_type
.LVL46:
.LM105:
.LBB44:
.LBI44:
.LM106:
.LBB45:
.LM107:
.LM108:
	beq	a0,zero,.L24
.LM109:
	lw	a5,4(a0)
	mv	a1,a0
.LM110:
.LBE45:
.LBE44:
.LM111:
	lw	a4,8(sp)
.LBB47:
.LBB46:
.LM112:
	srli	a3,a5,12
	andi	a3,a3,15
.LVL47:
.LM113:
.LBE46:
.LBE47:
.LM114:
	addi	a0,a3,-6
.LVL48:
.LM115:
	andi	a0,a0,253
	lw	a2,12(sp)
	beq	a0,zero,.L21
.LM116:
	li	a0,11
	bne	a3,a0,.L24
.L21:
.LBB48:
.LBB49:
.LM117:
.LBE49:
.LBE48:
.LM118:
.LBB51:
.LBB50:
.LM119:
	srli	a5,a5,2
	andi	a5,a5,960
.LBE50:
.LBE51:
.LM120:
	li	a3,256
	bgtu	a5,a3,.L24
.LM121:
.LM122:
	sw	s1,160(s0)
.LM123:
.LM124:
	sw	a2,164(s0)
.LM125:
.LM126:
	sw	a4,156(s0)
.LM127:
.LM128:
	addi	a0,s0,8
	sw	a1,8(sp)
.LVL49:
.LM129:
	call	mbedtls_cipher_setup
.LVL50:
.LM130:
	bne	a0,zero,.L19
.LM131:
.LM132:
	lw	a1,8(sp)
	addi	a0,s0,84
.LVL51:
.LM133:
	call	mbedtls_cipher_setup
.LVL52:
.LM134:
	bne	a0,zero,.L19
.LM135:
.LM136:
	li	a1,0
	mv	a0,s0
.LVL53:
.LM137:
	call	ssl_ticket_gen_key
.LVL54:
.LM138:
	bne	a0,zero,.L19
.LM139:
	mv	a0,s0
.LVL55:
.LM140:
	lw	s0,24(sp)
	.cfi_remember_state
	.cfi_restore 8
.LVL56:
.LM141:
	lw	ra,28(sp)
	.cfi_restore 1
	lw	s1,20(sp)
	.cfi_restore 9
.LVL57:
.LM142:
	li	a1,1
.LM143:
	addi	sp,sp,32
	.cfi_def_cfa_offset 0
.LVL58:
.LM144:
	tail	ssl_ticket_gen_key
.LVL59:
.L24:
	.cfi_restore_state
.LM145:
	li	a0,-28672
	addi	a0,a0,-256
.LVL60:
.L19:
.LM146:
	lw	ra,28(sp)
	.cfi_restore 1
	lw	s0,24(sp)
	.cfi_restore 8
.LVL61:
.LM147:
	lw	s1,20(sp)
	.cfi_restore 9
.LVL62:
.LM148:
	addi	sp,sp,32
	.cfi_def_cfa_offset 0
.LVL63:
.LM149:
	jr	ra
	.cfi_endproc
.LFE146:
	.size	mbedtls_ssl_ticket_setup, .-mbedtls_ssl_ticket_setup
	.section	.text.mbedtls_ssl_ticket_write,"ax",@progbits
	.align	1
	.globl	mbedtls_ssl_ticket_write
	.type	mbedtls_ssl_ticket_write, @function
mbedtls_ssl_ticket_write:
.LVL64:
.LFB147:
.LM150:
	.cfi_startproc
.LM151:
.LM152:
.LM153:
.LM154:
.LM155:
.LM156:
.LM157:
.LM158:
.LM159:
.LM160:
	addi	sp,sp,-80
	.cfi_def_cfa_offset 80
	sw	ra,76(sp)
	sw	s0,72(sp)
	sw	s1,68(sp)
	sw	s2,64(sp)
	sw	s3,60(sp)
	sw	s4,56(sp)
	sw	s5,52(sp)
	sw	s6,48(sp)
	.cfi_offset 1, -4
	.cfi_offset 8, -8
	.cfi_offset 9, -12
	.cfi_offset 18, -16
	.cfi_offset 19, -20
	.cfi_offset 20, -24
	.cfi_offset 21, -28
	.cfi_offset 22, -32
.LM161:
	sw	zero,0(a4)
.LM162:
.LM163:
	beq	a0,zero,.L32
.LM164:
	lw	a6,160(a0)
.LM165:
	li	s0,-28672
	addi	s0,s0,-256
.LM166:
	beq	a6,zero,.L29
.LM167:
.LM168:
.LVL65:
.LBB52:
.LBI52:
.LM169:
.LBB53:
.LM170:
.LBE53:
.LBE52:
.LM171:
	li	s0,-28672
	addi	s0,s0,1536
.LBB55:
.LBB54:
.LM172:
	bgtu	a2,a3,.L29
.LM173:
	sub	a6,a3,a2
.LM174:
	li	a7,33
	ble	a6,a7,.L29
.LBE54:
.LBE55:
.LM175:
	lbu	s3,152(a0)
	mv	s4,a4
.LM176:
	li	a4,76
.LVL66:
.LM177:
	mul	s3,s3,a4
	mv	s6,a1
	mv	s1,a2
	mv	s2,a0
.LVL67:
.LM178:
.LM179:
.LM180:
.LM181:
.LM182:
	li	a2,4
.LVL68:
.LM183:
	sw	a3,24(sp)
.LM184:
	add	a1,a0,s3
.LVL69:
.LM185:
	lw	a4,4(a1)
.LM186:
	mv	a0,s1
.LVL70:
.LM187:
	sw	a4,0(a5)
.LM188:
	call	memcpy
.LVL71:
.LM189:
.LM190:
	lw	a5,160(s2)
	lw	a0,164(s2)
	li	a2,12
	addi	a1,s1,4
.LVL72:
.LM191:
	jalr	a5
.LVL73:
.LM192:
	mv	s0,a0
.LVL74:
.LM193:
	bne	a0,zero,.L29
.LM194:
	lw	a3,24(sp)
.LM195:
	addi	a7,s1,18
.LVL75:
.LM196:
.LM197:
	mv	a1,a7
.LM198:
	sub	a2,a3,a7
.LM199:
	mv	a0,s6
	addi	a3,sp,40
	sw	a2,28(sp)
	sw	a7,24(sp)
.LVL76:
.LM200:
	call	mbedtls_ssl_session_save
.LVL77:
.LM201:
	mv	s0,a0
.LVL78:
.LM202:
	bne	a0,zero,.L29
.LM203:
	lw	a6,40(sp)
.LM204:
	li	a5,65536
	bgeu	a6,a5,.L29
.LM205:
.LM206:
.LM207:
	slli	a3,a6,16
	slli	a5,a6,8
	srli	a4,a3,24
.LVL79:
.LBB56:
.LBI56:
.LM208:
.LBB57:
.LM209:
.LM210:
.LBE57:
.LBE56:
.LM211:
	lw	a2,28(sp)
.LBB60:
.LBB58:
.LM212:
	srli	a5,a5,8
.LVL80:
.LM213:
.LBE58:
.LBE60:
.LM214:
	lw	a7,24(sp)
.LBB61:
.LBB59:
.LM215:
	sb	a4,16(s1)
	sb	a5,17(s1)
.LVL81:
.LM216:
.LBE59:
.LBE61:
.LM217:
.LM218:
.LM219:
	li	a5,16
	addi	a0,s3,8
	sw	a5,8(sp)
	addi	a5,sp,44
	sw	a5,4(sp)
	sw	a2,0(sp)
	mv	a5,a7
	li	a4,18
	mv	a3,s1
	li	a2,12
	addi	a1,s1,4
.LVL82:
.LM220:
	add	a0,s2,a0
	call	mbedtls_cipher_auth_encrypt_ext
.LVL83:
.LM221:
	bne	a0,zero,.L36
.LM222:
.LM223:
	lw	a5,40(sp)
.LM224:
	lw	a4,44(sp)
.LM225:
	addi	a3,a5,16
.LM226:
	bne	a3,a4,.L37
.LM227:
.LM228:
	addi	a5,a5,34
.LM229:
	sw	a5,0(s4)
.LVL84:
.L29:
.LM230:
	lw	ra,76(sp)
	.cfi_remember_state
	.cfi_restore 1
	mv	a0,s0
	lw	s0,72(sp)
	.cfi_restore 8
	lw	s1,68(sp)
	.cfi_restore 9
	lw	s2,64(sp)
	.cfi_restore 18
	lw	s3,60(sp)
	.cfi_restore 19
	lw	s4,56(sp)
	.cfi_restore 20
	lw	s5,52(sp)
	.cfi_restore 21
	lw	s6,48(sp)
	.cfi_restore 22
	addi	sp,sp,80
	.cfi_def_cfa_offset 0
	jr	ra
.LVL85:
.L32:
	.cfi_restore_state
.LM231:
	li	s0,-28672
	addi	s0,s0,-256
	j	.L29
.LVL86:
.L36:
.LM232:
	mv	s0,a0
	j	.L29
.L37:
.LM233:
	li	s0,-28672
	addi	s0,s0,1024
.LVL87:
.LM234:
	j	.L29
	.cfi_endproc
.LFE147:
	.size	mbedtls_ssl_ticket_write, .-mbedtls_ssl_ticket_write
	.section	.text.mbedtls_ssl_ticket_parse,"ax",@progbits
	.align	1
	.globl	mbedtls_ssl_ticket_parse
	.type	mbedtls_ssl_ticket_parse, @function
mbedtls_ssl_ticket_parse:
.LVL88:
.LFB149:
.LM235:
	.cfi_startproc
.LM236:
.LM237:
.LM238:
.LM239:
.LM240:
.LM241:
.LM242:
.LM243:
.LM244:
.LM245:
	beq	a0,zero,.L45
.LM246:
	addi	sp,sp,-80
	.cfi_def_cfa_offset 80
	sw	s0,72(sp)
	sw	ra,76(sp)
	sw	s1,68(sp)
	sw	s2,64(sp)
	sw	s3,60(sp)
	.cfi_offset 8, -8
	.cfi_offset 1, -4
	.cfi_offset 9, -12
	.cfi_offset 18, -16
	.cfi_offset 19, -20
.LM247:
	lw	a5,160(a0)
	mv	s0,a0
.LM248:
.LM249:
	beq	a5,zero,.L46
	sltiu	a5,a3,34
	bne	a5,zero,.L46
.LM250:
.LVL89:
.LM251:
.LBB66:
.LBI66:
.LM252:
.LBB67:
.LM253:
.LM254:
.LM255:
.LM256:
.LM257:
	lbu	a5,17(a2)
	lbu	s1,16(a2)
.LBE67:
.LBE66:
.LM258:
	li	a0,-28672
.LVL90:
.LBB69:
.LBB68:
.LM259:
	slli	a5,a5,8
.LBE68:
.LBE69:
.LM260:
	srli	a5,a5,8
	slli	s1,s1,8
	or	s1,s1,a5
.LVL91:
.LM261:
.LM262:
	addi	a4,s1,34
.LM263:
	addi	a0,a0,-256
.LM264:
	bne	a4,a3,.L39
	mv	a3,a2
.LVL92:
.LM265:
	mv	s3,a1
	addi	s2,s0,152
.LVL93:
.L42:
.LBB70:
.LBB71:
.LM266:
.LM267:
	mv	a0,a3
	li	a2,4
	mv	a1,s0
	sw	a3,28(sp)
	call	memcmp
.LVL94:
.LM268:
	lw	a3,28(sp)
	beq	a0,zero,.L41
.LM269:
.LVL95:
.LM270:
	addi	s0,s0,76
.LVL96:
.LM271:
	bne	s0,s2,.L42
.LBE71:
.LBE70:
.LM272:
	li	a0,-28672
	addi	a0,a0,640
.LVL97:
.L39:
.LM273:
	lw	ra,76(sp)
	.cfi_remember_state
	.cfi_restore 1
	lw	s0,72(sp)
	.cfi_restore 8
	lw	s1,68(sp)
	.cfi_restore 9
	lw	s2,64(sp)
	.cfi_restore 18
	lw	s3,60(sp)
	.cfi_restore 19
	addi	sp,sp,80
	.cfi_def_cfa_offset 0
	jr	ra
.LVL98:
.L51:
	.cfi_restore_state
.LM274:
.LM275:
	lw	a4,44(sp)
.LM276:
	li	a0,-28672
.LVL99:
.LM277:
	addi	a0,a0,1024
.LM278:
	bne	a4,s1,.L39
.LM279:
.LM280:
	mv	a2,s1
	mv	a1,s2
	mv	a0,s3
	call	mbedtls_ssl_session_load
.LVL100:
.LM281:
	j	.L39
.LVL101:
.L45:
	.cfi_def_cfa_offset 0
	.cfi_restore 1
	.cfi_restore 8
	.cfi_restore 9
	.cfi_restore 18
	.cfi_restore 19
.LM282:
	li	a0,-28672
.LVL102:
.LM283:
	addi	a0,a0,-256
.LM284:
	ret
.LVL103:
.L46:
	.cfi_def_cfa_offset 80
	.cfi_offset 1, -4
	.cfi_offset 8, -8
	.cfi_offset 9, -12
	.cfi_offset 18, -16
	.cfi_offset 19, -20
.LM285:
	li	a0,-28672
	addi	a0,a0,-256
	j	.L39
.LVL104:
.L41:
.LM286:
	li	a4,16
.LM287:
	addi	s2,a3,18
.LVL105:
.LM288:
.LM289:
	sw	a4,8(sp)
	addi	a4,sp,44
	sw	a4,4(sp)
	sw	s1,0(sp)
	mv	a7,s2
	addi	a6,s1,16
	mv	a5,s2
	li	a4,18
	li	a2,12
	addi	a1,a3,4
	addi	a0,s0,8
	call	mbedtls_cipher_auth_decrypt_ext
.LVL106:
.LM290:
	beq	a0,zero,.L51
.LM291:
.LM292:
	li	a5,-24576
	addi	a5,a5,-768
	bne	a0,a5,.L39
.LM293:
	li	a0,-28672
.LVL107:
.LM294:
	addi	a0,a0,-384
	j	.L39
	.cfi_endproc
.LFE149:
	.size	mbedtls_ssl_ticket_parse, .-mbedtls_ssl_ticket_parse
	.section	.text.mbedtls_ssl_ticket_free,"ax",@progbits
	.align	1
	.globl	mbedtls_ssl_ticket_free
	.type	mbedtls_ssl_ticket_free, @function
mbedtls_ssl_ticket_free:
.LVL108:
.LFB150:
.LM295:
	.cfi_startproc
.LM296:
.LM297:
	beq	a0,zero,.L56
.LM298:
	addi	sp,sp,-16
	.cfi_def_cfa_offset 16
	sw	s0,8(sp)
	.cfi_offset 8, -8
	mv	s0,a0
.LM299:
	addi	a0,a0,8
.LVL109:
.LM300:
	sw	ra,12(sp)
	.cfi_offset 1, -4
.LM301:
	call	mbedtls_cipher_free
.LVL110:
.LM302:
	addi	a0,s0,84
	call	mbedtls_cipher_free
.LVL111:
.LM303:
	mv	a0,s0
.LM304:
	lw	s0,8(sp)
	.cfi_restore 8
.LVL112:
.LM305:
	lw	ra,12(sp)
	.cfi_restore 1
.LM306:
	li	a1,168
.LM307:
	addi	sp,sp,16
	.cfi_def_cfa_offset 0
.LM308:
	tail	mbedtls_platform_zeroize
.LVL113:
.L56:
.LM309:
	ret
	.cfi_endproc
.LFE150:
	.size	mbedtls_ssl_ticket_free, .-mbedtls_ssl_ticket_free
	.text
.Letext0:
	.section	.note.GNU-stack,"",@progbits
