	.file	"ssl_tls12_server.c"
	.option nopic
	.attribute arch, "rv32i2p1_m2p0_f2p2_c2p0_zicsr2p0_zmmul1p0_zca1p0_zcf1p0"
	.attribute unaligned_access, 0
	.attribute stack_align, 16
	.text
.Ltext0:
	.cfi_sections	.debug_frame
	.section	.text.mbedtls_ssl_own_key,"ax",@progbits
	.align	1
	.type	mbedtls_ssl_own_key, @function
mbedtls_ssl_own_key:
.LVL0:
.LFB120:
.LM1:
	.cfi_startproc
.LM2:
.LM3:
.LM4:
	lw	a5,64(a0)
.LM5:
	beq	a5,zero,.L2
.LM6:
	lw	a5,540(a5)
.LM7:
	bne	a5,zero,.L3
.L2:
.LM8:
.LM9:
	lw	a5,0(a0)
	lw	a5,108(a5)
.LVL1:
.LM10:
.LM11:
	beq	a5,zero,.L1
.LVL2:
.L3:
.LM12:
	lw	a5,4(a5)
.L1:
.LM13:
	mv	a0,a5
.LVL3:
.LM14:
	ret
	.cfi_endproc
.LFE120:
	.size	mbedtls_ssl_own_key, .-mbedtls_ssl_own_key
	.section	.text.mbedtls_ssl_write_handshake_msg,"ax",@progbits
	.align	1
	.type	mbedtls_ssl_write_handshake_msg, @function
mbedtls_ssl_write_handshake_msg:
.LVL4:
.LFB117:
.LM15:
	.cfi_startproc
.LM16:
.LM17:
	li	a2,1
	mv	a1,a2
	tail	mbedtls_ssl_write_handshake_msg_ext
.LVL5:
.LM18:
	.cfi_endproc
.LFE117:
	.size	mbedtls_ssl_write_handshake_msg, .-mbedtls_ssl_write_handshake_msg
	.section	.rodata.ssl_resume_server_key_exchange.str1.4,"aMS",@progbits,1
	.align	2
.LC1:
	.string	"ssl_resume_server_key_exchange"
	.align	2
.LC2:
	.string	"/home/chandu/sdk/bl602_iot_sdk/components/security/mbedtls-bl602/library/ssl_tls12_server.c"
	.section	.text.ssl_resume_server_key_exchange,"ax",@progbits
	.align	1
	.type	ssl_resume_server_key_exchange, @function
ssl_resume_server_key_exchange:
.LVL6:
.LFB195:
.LM19:
	.cfi_startproc
.LM20:
.LM21:
	addi	sp,sp,-16
	.cfi_def_cfa_offset 16
	sw	s0,8(sp)
	sw	s1,4(sp)
	sw	ra,12(sp)
	.cfi_offset 8, -8
	.cfi_offset 9, -12
	.cfi_offset 1, -4
.LM22:
	lw	a4,224(a0)
.LM23:
	lw	a5,216(a0)
.LM24:
	lw	a3,192(a0)
.LM25:
	addi	a4,a4,2
.LM26:
	mv	a2,a1
.LM27:
	add	a1,a5,a4
.LVL7:
.LM28:
.LM29:
.LM30:
	li	a5,16384
	add	a3,a3,a5
.LVL8:
.LM31:
	lw	a5,0(a0)
.LM32:
	sub	a3,a3,a1
.LM33:
	mv	s0,a0
.LM34:
	lw	a5,136(a5)
	jalr	a5
.LVL9:
.LM35:
	li	a5,-24576
	addi	a5,a5,-1280
.LM36:
	mv	s1,a0
.LVL10:
.LM37:
.LM38:
	beq	a0,a5,.L13
.LM39:
.LM40:
	lw	a5,64(s0)
.LM41:
	li	a1,0
	mv	a0,s0
.LM42:
	sb	zero,9(a5)
.LM43:
	call	mbedtls_ssl_set_async_operation_data
.LVL11:
.L13:
.LM44:
	lui	a4,%hi(.LC1)
	li	a3,4096
	lui	a2,%hi(.LC2)
	mv	a0,s0
	mv	a5,s1
	addi	a4,a4,%lo(.LC1)
	addi	a3,a3,-1332
	addi	a2,a2,%lo(.LC2)
	li	a1,2
	call	mbedtls_debug_print_ret
.LVL12:
.LM45:
.LM46:
	lw	ra,12(sp)
	.cfi_restore 1
	lw	s0,8(sp)
	.cfi_restore 8
.LVL13:
.LM47:
	mv	a0,s1
	lw	s1,4(sp)
	.cfi_restore 9
.LVL14:
.LM48:
	addi	sp,sp,16
	.cfi_def_cfa_offset 0
	jr	ra
	.cfi_endproc
.LFE195:
	.size	ssl_resume_server_key_exchange, .-ssl_resume_server_key_exchange
	.section	.rodata.mbedtls_ssl_handshake_set_state.str1.4,"aMS",@progbits,1
	.align	2
.LC3:
	.string	"handshake state: %d (%s) -> %d (%s)"
	.align	2
.LC4:
	.string	"/home/chandu/sdk/bl602_iot_sdk/components/security/mbedtls-bl602/library/ssl_misc.h"
	.section	.text.mbedtls_ssl_handshake_set_state,"ax",@progbits
	.align	1
	.type	mbedtls_ssl_handshake_set_state, @function
mbedtls_ssl_handshake_set_state:
.LVL15:
.LFB115:
.LM49:
	.cfi_startproc
.LM50:
.LM51:
	addi	sp,sp,-48
	.cfi_def_cfa_offset 48
	sw	ra,44(sp)
	sw	s0,40(sp)
	sw	s1,36(sp)
	.cfi_offset 1, -4
	.cfi_offset 8, -8
	.cfi_offset 9, -12
.LM52:
	lw	a5,4(a0)
.LM53:
	mv	s0,a0
	mv	s1,a1
.LM54:
	andi	a0,a5,0xff
.LVL16:
.LM55:
	sw	a5,28(sp)
	call	mbedtls_ssl_states_str
.LVL17:
.LM56:
	sw	a0,24(sp)
.LM57:
	mv	a0,s1
	call	mbedtls_ssl_states_str
.LVL18:
.LM58:
	lw	a6,24(sp)
	lw	a5,28(sp)
	lui	a4,%hi(.LC3)
	lui	a2,%hi(.LC4)
	sw	a0,0(sp)
	mv	a7,s1
	mv	a0,s0
	addi	a4,a4,%lo(.LC3)
	li	a3,1353
	addi	a2,a2,%lo(.LC4)
	li	a1,3
	call	mbedtls_debug_print_msg
.LVL19:
.LM59:
.LM60:
	sw	s1,4(s0)
.LM61:
	lw	ra,44(sp)
	.cfi_restore 1
	lw	s0,40(sp)
	.cfi_restore 8
.LVL20:
.LM62:
	lw	s1,36(sp)
	.cfi_restore 9
.LVL21:
.LM63:
	addi	sp,sp,48
	.cfi_def_cfa_offset 0
	jr	ra
	.cfi_endproc
.LFE115:
	.size	mbedtls_ssl_handshake_set_state, .-mbedtls_ssl_handshake_set_state
	.section	.text.mbedtls_ssl_handshake_increment_state,"ax",@progbits
	.align	1
	.type	mbedtls_ssl_handshake_increment_state, @function
mbedtls_ssl_handshake_increment_state:
.LVL22:
.LFB116:
.LM64:
	.cfi_startproc
.LM65:
	lw	a1,4(a0)
.LM66:
	addi	a1,a1,1
.LM67:
	andi	a1,a1,0xff
	tail	mbedtls_ssl_handshake_set_state
.LVL23:
.LM68:
	.cfi_endproc
.LFE116:
	.size	mbedtls_ssl_handshake_increment_state, .-mbedtls_ssl_handshake_increment_state
	.section	.text.ssl_conf_has_psk_or_cb,"ax",@progbits
	.align	1
	.type	ssl_conf_has_psk_or_cb, @function
ssl_conf_has_psk_or_cb:
.LVL24:
.LFB168:
.LM69:
	.cfi_startproc
.LM70:
.LM71:
	lw	a5,68(a0)
	bne	a5,zero,.L20
.LM72:
.LM73:
	lw	a4,184(a0)
	beq	a4,zero,.L18
.LM74:
	lw	a4,180(a0)
	beq	a4,zero,.L18
.LVL25:
.LBB95:
.LBI95:
.LM75:
.LBB96:
.LM76:
.LM77:
	lw	a4,172(a0)
	beq	a4,zero,.L18
.LM78:
	lw	a5,176(a0)
	snez	a5,a5
.LVL26:
.L18:
.LM79:
.LBE96:
.LBE95:
.LM80:
	mv	a0,a5
.LVL27:
.LM81:
	ret
.LVL28:
.L20:
.LM82:
	li	a5,1
	j	.L18
	.cfi_endproc
.LFE168:
	.size	ssl_conf_has_psk_or_cb, .-ssl_conf_has_psk_or_cb
	.section	.rodata.ssl_parse_client_psk_identity.str1.4,"aMS",@progbits,1
	.align	2
.LC5:
	.string	"got no pre-shared key"
	.align	2
.LC6:
	.string	"bad client key exchange message"
	.align	2
.LC7:
	.string	"Unknown PSK identity"
	.section	.text.ssl_parse_client_psk_identity,"ax",@progbits
	.align	1
	.type	ssl_parse_client_psk_identity, @function
ssl_parse_client_psk_identity:
.LVL29:
.LFB199:
.LM83:
	.cfi_startproc
.LM84:
.LM85:
.LM86:
.LM87:
	addi	sp,sp,-32
	.cfi_def_cfa_offset 32
	sw	s1,20(sp)
	sw	s2,16(sp)
	sw	ra,28(sp)
	sw	s0,24(sp)
	.cfi_offset 9, -12
	.cfi_offset 18, -16
	.cfi_offset 1, -4
	.cfi_offset 8, -8
.LM88:
	mv	s1,a0
.LM89:
	lw	a0,0(a0)
.LVL30:
.LM90:
	sw	a2,12(sp)
	mv	s2,a1
.LM91:
	call	ssl_conf_has_psk_or_cb
.LVL31:
.LM92:
	lw	a2,12(sp)
	bne	a0,zero,.L25
.LM93:
	lui	a4,%hi(.LC5)
	li	a3,4096
	lui	a2,%hi(.LC2)
	mv	a0,s1
	addi	a4,a4,%lo(.LC5)
	addi	a3,a3,-501
	addi	a2,a2,%lo(.LC2)
	li	a1,1
	call	mbedtls_debug_print_msg
.LVL32:
.LM94:
.LM95:
	li	a0,-28672
	addi	a0,a0,-1536
.LVL33:
.L24:
.LM96:
	lw	ra,28(sp)
	.cfi_remember_state
	.cfi_restore 1
	lw	s0,24(sp)
	.cfi_restore 8
	lw	s1,20(sp)
	.cfi_restore 9
.LVL34:
.LM97:
	lw	s2,16(sp)
	.cfi_restore 18
.LVL35:
.LM98:
	addi	sp,sp,32
	.cfi_def_cfa_offset 0
.LVL36:
.LM99:
	jr	ra
.LVL37:
.L25:
	.cfi_restore_state
.LM100:
.LM101:
	lw	a5,0(s2)
.LM102:
	li	a1,1
.LM103:
	sub	a4,a2,a5
.LM104:
	bgt	a4,a1,.L27
.LM105:
	lui	a4,%hi(.LC6)
	li	a3,4096
	lui	a2,%hi(.LC2)
.LVL38:
.LM106:
	addi	a4,a4,%lo(.LC6)
	addi	a3,a3,-493
	addi	a2,a2,%lo(.LC2)
.L41:
.LM107:
	mv	a0,s1
	call	mbedtls_debug_print_msg
.LVL39:
.LM108:
.LM109:
	li	a0,-28672
	addi	a0,a0,-768
	j	.L24
.LVL40:
.L27:
.LM110:
.LBB97:
.LBI97:
.LM111:
.LBB98:
.LM112:
.LM113:
.LM114:
.LM115:
	lbu	s0,1(a5)
	lbu	a4,0(a5)
.LBE98:
.LBE97:
.LM116:
	addi	a1,a5,2
.LBB100:
.LBB99:
.LM117:
	slli	s0,s0,8
	or	s0,s0,a4
.LM118:
.LVL41:
.LM119:
.LBE99:
.LBE100:
.LM120:
.LM121:
	sw	a1,0(s2)
.LM122:
.LM123:
	beq	s0,zero,.L29
.LM124:
	srli	a5,s0,8
.LVL42:
.LM125:
	andi	s0,s0,255
	slli	s0,s0,8
	or	s0,s0,a5
.LM126:
	sub	a2,a2,a1
.LVL43:
.LM127:
	ble	s0,a2,.L30
.L29:
.LM128:
	lui	a4,%hi(.LC6)
	li	a3,4096
	lui	a2,%hi(.LC2)
	addi	a4,a4,%lo(.LC6)
	addi	a3,a3,-485
	addi	a2,a2,%lo(.LC2)
	li	a1,1
.LVL44:
.LM129:
	j	.L41
.LVL45:
.L30:
.LM130:
.LM131:
	lw	a5,0(s1)
.LM132:
	lw	a4,68(a5)
.LM133:
	beq	a4,zero,.L31
.LM134:
.LM135:
	lw	a0,72(a5)
	mv	a2,a1
	mv	a3,s0
	mv	a1,s1
.LVL46:
.LM136:
	jalr	a4
.LVL47:
.L42:
.LM137:
	beq	a0,zero,.L32
.L33:
.LVL48:
.LM138:
	lw	a5,0(s2)
	lui	a4,%hi(.LC7)
	li	a3,4096
	lui	a2,%hi(.LC2)
	mv	a6,s0
	addi	a4,a4,%lo(.LC7)
	addi	a3,a3,-467
	addi	a2,a2,%lo(.LC2)
	li	a1,3
	mv	a0,s1
	call	mbedtls_debug_print_buf
.LVL49:
.LM139:
	li	a2,115
	li	a1,2
	mv	a0,s1
	call	mbedtls_ssl_send_alert_message
.LVL50:
.LM140:
.LM141:
	li	a0,-28672
	addi	a0,a0,896
	j	.L24
.LVL51:
.L31:
.LM142:
.LM143:
	lw	a4,184(a5)
	bne	a4,s0,.L33
.LM144:
	lw	a0,180(a5)
	mv	a2,s0
	call	mbedtls_ct_memcmp
.LVL52:
.LM145:
	j	.L42
.L32:
.LVL53:
.LM146:
.LM147:
	lw	a5,0(s2)
	add	a5,a5,s0
	sw	a5,0(s2)
.LM148:
.LM149:
	j	.L24
	.cfi_endproc
.LFE199:
	.size	ssl_parse_client_psk_identity, .-ssl_parse_client_psk_identity
	.section	.rodata.ssl_ciphersuite_match.str1.4,"aMS",@progbits,1
	.align	2
.LC8:
	.string	"should never happen"
	.align	2
.LC9:
	.string	"trying ciphersuite: %#04x (%s)"
	.align	2
.LC10:
	.string	"ciphersuite mismatch: version"
	.align	2
.LC11:
	.string	"ciphersuite mismatch: no common elliptic curve"
	.align	2
.LC12:
	.string	"ciphersuite mismatch: no pre-shared key"
	.align	2
.LC13:
	.string	"ciphersuite requires certificate"
	.align	2
.LC14:
	.string	"server has no certificate"
	.align	2
.LC15:
	.string	"candidate certificate chain, certificate"
	.align	2
.LC16:
	.string	"certificate mismatch: key type"
	.align	2
.LC17:
	.string	"certificate mismatch: (extended) key usage extension"
	.align	2
.LC18:
	.string	"certificate mismatch: elliptic curve"
	.align	2
.LC19:
	.string	"ciphersuite mismatch: no suitable certificate"
	.align	2
.LC20:
	.string	"ciphersuite mismatch: no suitable hash algorithm for signature algorithm %u"
	.align	2
.LC21:
	.string	"selected certificate chain, certificate"
	.section	.text.ssl_ciphersuite_match,"ax",@progbits
	.align	1
	.type	ssl_ciphersuite_match, @function
ssl_ciphersuite_match:
.LVL54:
.LFB180:
.LM150:
	.cfi_startproc
.LM151:
.LM152:
.LM153:
.LM154:
	addi	sp,sp,-80
	.cfi_def_cfa_offset 80
	sw	s0,72(sp)
	.cfi_offset 8, -8
	mv	s0,a0
.LM155:
	mv	a0,a1
.LVL55:
.LM156:
	sw	s1,68(sp)
	sw	s9,36(sp)
	sw	ra,76(sp)
	sw	s2,64(sp)
	sw	s3,60(sp)
	sw	s4,56(sp)
	sw	s5,52(sp)
	sw	s6,48(sp)
	sw	s7,44(sp)
	sw	s8,40(sp)
	.cfi_offset 9, -12
	.cfi_offset 25, -44
	.cfi_offset 1, -4
	.cfi_offset 18, -16
	.cfi_offset 19, -20
	.cfi_offset 20, -24
	.cfi_offset 21, -28
	.cfi_offset 22, -32
	.cfi_offset 23, -36
	.cfi_offset 24, -40
.LM157:
	mv	s9,a2
.LM158:
	sw	a1,12(sp)
	call	mbedtls_ssl_ciphersuite_from_id
.LVL56:
.LM159:
.LM160:
	lw	a5,12(sp)
	lui	s1,%hi(.LC2)
	bne	a0,zero,.L44
.LM161:
	lui	a4,%hi(.LC8)
	mv	a0,s0
.LVL57:
.LM162:
	addi	a4,a4,%lo(.LC8)
	li	a3,808
	addi	a2,s1,%lo(.LC2)
	li	a1,1
	call	mbedtls_debug_print_msg
.LVL58:
.LM163:
.LM164:
	li	a0,-28672
	addi	a0,a0,1024
.LVL59:
.L43:
.LM165:
	lw	ra,76(sp)
	.cfi_remember_state
	.cfi_restore 1
	lw	s0,72(sp)
	.cfi_restore 8
.LVL60:
.LM166:
	lw	s1,68(sp)
	.cfi_restore 9
	lw	s2,64(sp)
	.cfi_restore 18
	lw	s3,60(sp)
	.cfi_restore 19
	lw	s4,56(sp)
	.cfi_restore 20
	lw	s5,52(sp)
	.cfi_restore 21
	lw	s6,48(sp)
	.cfi_restore 22
	lw	s7,44(sp)
	.cfi_restore 23
	lw	s8,40(sp)
	.cfi_restore 24
	lw	s9,36(sp)
	.cfi_restore 25
.LVL61:
.LM167:
	addi	sp,sp,80
	.cfi_def_cfa_offset 0
	jr	ra
.LVL62:
.L44:
	.cfi_restore_state
.LM168:
	lw	a6,4(a0)
	lui	a4,%hi(.LC9)
	mv	s3,a0
.LM169:
	addi	a4,a4,%lo(.LC9)
	li	a3,812
	addi	a2,s1,%lo(.LC2)
	li	a1,3
	mv	a0,s0
.LVL63:
.LM170:
	call	mbedtls_debug_print_msg
.LVL64:
.LM171:
.LM172:
	lhu	a5,16(s0)
.LM173:
	lhu	a4,12(s3)
	bgtu	a4,a5,.L46
.LM174:
	lhu	a4,14(s3)
	bgeu	a4,a5,.L47
.L46:
.LM175:
	lui	a4,%hi(.LC10)
	addi	a4,a4,%lo(.LC10)
	li	a3,817
.L83:
.LM176:
	addi	a2,s1,%lo(.LC2)
	li	a1,3
	mv	a0,s0
	call	mbedtls_debug_print_msg
.LVL65:
.LM177:
.L48:
.LM178:
	li	a0,0
	j	.L43
.LVL66:
.L47:
.LM179:
.LM180:
	mv	a0,s3
	call	mbedtls_ssl_ciphersuite_uses_ec
.LVL67:
.LM181:
	beq	a0,zero,.L49
.LM182:
	lw	a5,64(s0)
	lw	a5,404(a5)
.LM183:
	beq	a5,zero,.L50
.LM184:
	lhu	a5,0(a5)
	bne	a5,zero,.L49
.L50:
.LM185:
	lui	a4,%hi(.LC11)
	addi	a4,a4,%lo(.LC11)
	li	a3,836
	j	.L83
.L49:
.LM186:
.LM187:
	mv	a0,s3
	call	mbedtls_ssl_ciphersuite_uses_psk
.LVL68:
.LM188:
	beq	a0,zero,.L51
.LM189:
	lw	a0,0(s0)
	call	ssl_conf_has_psk_or_cb
.LVL69:
.LM190:
	bne	a0,zero,.L51
.LM191:
	lui	a4,%hi(.LC12)
	addi	a4,a4,%lo(.LC12)
	li	a3,847
	j	.L83
.L51:
.LM192:
.LVL70:
.LBB110:
.LBI110:
.LM193:
.LBB111:
.LM194:
.LM195:
.LM196:
	mv	a0,s3
	call	mbedtls_ssl_get_ciphersuite_sig_pk_alg
.LVL71:
.LM197:
	lw	a5,64(s0)
.LM198:
	mv	s4,a0
.LVL72:
.LM199:
.LM200:
.LM201:
	lw	s2,544(a5)
.LM202:
	bne	s2,zero,.L52
.LM203:
.LM204:
	lw	a5,0(s0)
	lw	s2,108(a5)
.L52:
.LVL73:
.LM205:
.LM206:
.LM207:
.LM208:
	beq	s4,zero,.L53
.LM209:
	lui	a4,%hi(.LC13)
	addi	a4,a4,%lo(.LC13)
	li	a3,719
	addi	a2,s1,%lo(.LC2)
	li	a1,3
	mv	a0,s0
	call	mbedtls_debug_print_msg
.LVL74:
.LM210:
.LM211:
	beq	s2,zero,.L81
.LBB112:
.LM212:
	lui	a5,%hi(.LC15)
	addi	s8,a5,%lo(.LC15)
.LM213:
	li	s6,4
.LVL75:
.L54:
.LM214:
.LM215:
	sw	zero,20(sp)
.LM216:
	lw	a5,0(s2)
	lui	a2,%hi(.LC2)
	li	a1,3
	mv	a0,s0
	mv	a4,s8
	li	a3,728
	addi	a2,a2,%lo(.LC2)
	call	mbedtls_debug_print_crt
.LVL76:
.LM217:
.LM218:
.LM219:
	lw	a0,0(s2)
.LM220:
	mv	a1,s4
	addi	a0,a0,204
	call	mbedtls_pk_can_do
.LVL77:
.LM221:
.LM222:
	bne	a0,zero,.L56
.LM223:
	lui	a4,%hi(.LC16)
	addi	a4,a4,%lo(.LC16)
	li	a3,746
.LVL78:
.L85:
.LM224:
	lui	a5,%hi(.LC2)
	addi	a2,a5,%lo(.LC2)
.L84:
.LM225:
	li	a1,3
	mv	a0,s0
	call	mbedtls_debug_print_msg
.LVL79:
.LM226:
.LBE112:
.LM227:
	lw	s2,8(s2)
.LVL80:
.LM228:
	bne	s2,zero,.L54
	j	.L55
.LVL81:
.L81:
.LM229:
	lui	a4,%hi(.LC14)
	addi	a4,a4,%lo(.LC14)
	li	a3,722
	addi	a2,s1,%lo(.LC2)
	li	a1,3
	mv	a0,s0
	call	mbedtls_debug_print_msg
.LVL82:
.LM230:
.L55:
.LM231:
.LBE111:
.LBE110:
.LM232:
	lui	a4,%hi(.LC19)
	addi	a4,a4,%lo(.LC19)
	li	a3,861
	j	.L83
.LVL83:
.L56:
.LBB135:
.LBB133:
.LBB131:
.LM233:
.LM234:
	lw	a0,0(s2)
.LVL84:
.LM235:
	addi	a4,sp,20
	li	a3,771
	li	a2,0
	mv	a1,s3
	call	mbedtls_ssl_check_cert_usage
.LVL85:
.LM236:
	beq	a0,zero,.L58
.LM237:
	lui	a4,%hi(.LC17)
	addi	a4,a4,%lo(.LC17)
	li	a3,762
	j	.L85
.L58:
.LM238:
.LM239:
	bne	s4,s6,.L59
.LM240:
	lw	a5,0(s2)
.LM241:
	lw	a4,64(s0)
.LBB113:
.LBB114:
.LBB115:
.LBB116:
.LBB117:
.LBB118:
.LM242:
	addi	a0,sp,24
.LBE118:
.LBE117:
.LBE116:
.LBE115:
.LBE114:
.LBE113:
.LM243:
	lw	s5,404(a4)
.LVL86:
.LBB128:
.LBI113:
.LM244:
.LBB125:
.LM245:
.LM246:
.LBB123:
.LBI115:
.LM247:
.LBB121:
.LM248:
.LM249:
	lw	a4,204(a5)
	lw	a5,208(a5)
.LVL87:
.LM250:
	sw	a4,24(sp)
.LVL88:
.LM251:
	sw	a5,28(sp)
.LBB120:
.LBI117:
.LM252:
.LBB119:
.LM253:
.LM254:
	call	mbedtls_pk_get_type
.LVL89:
.LM255:
	addi	a0,a0,-2
	li	a5,2
	bgtu	a0,a5,.L60
.LM256:
.LM257:
	lw	a5,28(sp)
.LBE119:
.LBE120:
.LM258:
	lbu	s7,0(a5)
.LM259:
.LVL90:
.LM260:
.LBE121:
.LBE123:
.LM261:
.LM262:
.L61:
.LM263:
.LM264:
	lhu	a0,0(s5)
.LM265:
	bne	a0,zero,.L62
.LVL91:
.LM266:
.LBE125:
.LBE128:
.LM267:
	lui	a4,%hi(.LC18)
	addi	a4,a4,%lo(.LC18)
	li	a3,771
	addi	a2,s1,%lo(.LC2)
	j	.L84
.LVL92:
.L62:
.LBB129:
.LBB126:
.LM268:
.LM269:
	call	mbedtls_ssl_get_ecp_group_id_from_tls_id
.LVL93:
.LM270:
.LM271:
	beq	a0,s7,.L59
.LM272:
.LM273:
	addi	s5,s5,2
.LVL94:
.LM274:
	j	.L61
.LVL95:
.L63:
.LM275:
.LBE126:
.LBE129:
.LBE131:
.LBE133:
.LBE135:
.LM276:
.LM277:
	sw	s3,0(s9)
.LM278:
.LM279:
	j	.L48
.LVL96:
.L60:
.LBB136:
.LBB134:
.LBB132:
.LBB130:
.LBB127:
.LBB124:
.LBB122:
.LM280:
	lbu	a5,0(zero)
	ebreak
.LVL97:
.L59:
.LM281:
.LBE122:
.LBE124:
.LBE127:
.LBE130:
.LBE132:
.LM282:
.LM283:
.LM284:
	lw	a5,64(s0)
.LM285:
	lui	a4,%hi(.LC21)
	addi	a4,a4,%lo(.LC21)
.LM286:
	sw	s2,540(a5)
.LM287:
.LM288:
	lw	a5,64(s0)
.LM289:
	li	a3,783
	addi	a2,s1,%lo(.LC2)
.LM290:
	lw	a5,540(a5)
.LM291:
	li	a1,3
	mv	a0,s0
	lw	a5,0(a5)
	call	mbedtls_debug_print_crt
.LVL98:
.LM292:
.L53:
.LM293:
.LBE134:
.LBE136:
.LM294:
.LM295:
	mv	a0,s3
	call	mbedtls_ssl_get_ciphersuite_sig_alg
.LVL99:
.LM296:
.LM297:
	beq	a0,zero,.L63
	sw	a0,12(sp)
.LVL100:
.LM298:
	call	mbedtls_ssl_sig_from_pk_alg
.LVL101:
.LM299:
	mv	a1,a0
.LM300:
	mv	a0,s0
	call	mbedtls_ssl_tls12_get_preferred_hash_for_sig_alg
.LVL102:
.LM301:
	lw	a5,12(sp)
	bne	a0,zero,.L63
.LM302:
	lui	a4,%hi(.LC20)
	addi	a4,a4,%lo(.LC20)
	li	a3,874
	addi	a2,s1,%lo(.LC2)
	li	a1,3
	mv	a0,s0
	call	mbedtls_debug_print_msg
.LVL103:
.LM303:
.LM304:
	j	.L48
	.cfi_endproc
.LFE180:
	.size	ssl_ciphersuite_match, .-ssl_ciphersuite_match
	.section	.rodata.ssl_parse_client_hello.str1.4,"aMS",@progbits,1
	.align	2
.LC22:
	.string	"=> parse client hello"
	.align	2
.LC23:
	.string	"mbedtls_ssl_fetch_input"
	.align	2
.LC24:
	.string	"record header"
	.align	2
.LC25:
	.string	"client hello, message type: %d"
	.align	2
.LC26:
	.string	"bad client hello message"
	.align	2
.LC27:
	.string	"client hello, message len.: %d"
	.align	2
.LC28:
	.string	"client hello, protocol version: [%d:%d]"
	.align	2
.LC29:
	.string	"replayed record, discarding"
	.align	2
.LC30:
	.string	"record contents"
	.align	2
.LC31:
	.string	"update_checksum"
	.align	2
.LC32:
	.string	"client hello v3, handshake type: %d"
	.align	2
.LC33:
	.string	"bad client hello message_seq: %u (expected %u)"
	.align	2
.LC34:
	.string	"fragment_offset=%u fragment_length=%u length=%u"
	.align	2
.LC35:
	.string	"ClientHello fragmentation not supported"
	.align	2
.LC36:
	.string	"client hello, version"
	.align	2
.LC37:
	.string	"server only supports TLS 1.2"
	.align	2
.LC38:
	.string	"client hello, random bytes"
	.align	2
.LC39:
	.string	"client hello, session id"
	.align	2
.LC40:
	.string	"client hello, cookie"
	.align	2
.LC41:
	.string	"cookie verification failed"
	.align	2
.LC42:
	.string	"cookie verification passed"
	.align	2
.LC43:
	.string	"cookie verification skipped"
	.align	2
.LC44:
	.string	"client hello, ciphersuitelist"
	.align	2
.LC45:
	.string	"client hello, compression"
	.align	2
.LC46:
	.string	"client hello extensions"
	.align	2
.LC47:
	.string	"found ServerName extension"
	.align	2
.LC48:
	.string	"found renegotiation extension"
	.align	2
.LC49:
	.string	"non-matching renegotiation info"
	.align	2
.LC50:
	.string	"non-zero length renegotiation info"
	.align	2
.LC51:
	.string	"found signature_algorithms extension"
	.align	2
.LC52:
	.string	"found supported elliptic curves extension"
	.align	2
.LC53:
	.string	"found supported point formats extension"
	.align	2
.LC54:
	.string	"point format selected: %d"
	.align	2
.LC55:
	.string	"found max fragment length extension"
	.align	2
.LC56:
	.string	"found CID extension"
	.align	2
.LC57:
	.string	"Client sent CID extension, but CID disabled"
	.align	2
.LC58:
	.string	"Use of CID extension negotiated"
	.align	2
.LC59:
	.string	"Client CID"
	.align	2
.LC60:
	.string	"found encrypt then mac extension"
	.align	2
.LC61:
	.string	"found extended master secret extension"
	.align	2
.LC62:
	.string	"found session ticket extension"
	.align	2
.LC63:
	.string	"ticket length: %zu"
	.align	2
.LC64:
	.string	"ticket rejected: renegotiating"
	.align	2
.LC65:
	.string	"ticket is not authentic"
	.align	2
.LC66:
	.string	"ticket is expired"
	.align	2
.LC67:
	.string	"mbedtls_ssl_ticket_parse"
	.align	2
.LC68:
	.string	"session successfully restored from ticket"
	.align	2
.LC69:
	.string	"found alpn extension"
	.align	2
.LC70:
	.string	"found use_srtp extension"
	.align	2
.LC71:
	.string	"found srtp profile: %s"
	.align	2
.LC72:
	.string	"selected srtp profile: %s"
	.align	2
.LC73:
	.string	"using mki"
	.align	2
.LC74:
	.string	"unknown extension found: %u (ignoring)"
	.align	2
.LC75:
	.string	"received TLS_EMPTY_RENEGOTIATION_INFO "
	.align	2
.LC76:
	.string	"received RENEGOTIATION SCSV during renegotiation"
	.align	2
.LC77:
	.string	"legacy renegotiation, breaking off handshake"
	.align	2
.LC78:
	.string	"renegotiation_info extension missing (secure)"
	.align	2
.LC79:
	.string	"legacy renegotiation not allowed"
	.align	2
.LC80:
	.string	"renegotiation_info extension present (legacy)"
	.align	2
.LC81:
	.string	"f_cert_cb"
	.align	2
.LC82:
	.string	"got ciphersuites in common, but none of them usable"
	.align	2
.LC83:
	.string	"got no ciphersuites in common"
	.align	2
.LC84:
	.string	"selected ciphersuite: %s"
	.align	2
.LC85:
	.string	"client hello v3, signature_algorithm ext: %u"
	.align	2
.LC86:
	.string	"no hash algorithm for signature algorithm %u - should not happen"
	.align	2
.LC87:
	.string	"<= parse client hello"
	.section	.text.ssl_parse_client_hello,"ax",@progbits
	.align	1
	.type	ssl_parse_client_hello, @function
ssl_parse_client_hello:
.LVL104:
.LFB181:
.LM305:
	.cfi_startproc
.LM306:
.LM307:
.LM308:
.LM309:
.LM310:
.LM311:
.LM312:
.LM313:
.LM314:
.LM315:
.LM316:
.LM317:
.LM318:
	addi	sp,sp,-240
	.cfi_def_cfa_offset 240
	sw	s1,228(sp)
.LM319:
	lui	a4,%hi(.LC22)
	.cfi_offset 9, -12
	lui	s1,%hi(.LC2)
.LM320:
	sw	s3,220(sp)
	sw	s4,216(sp)
	sw	s5,212(sp)
.LM321:
	addi	a4,a4,%lo(.LC22)
	li	a3,913
	addi	a2,s1,%lo(.LC2)
	li	a1,2
	.cfi_offset 19, -20
	.cfi_offset 20, -24
	.cfi_offset 21, -28
.LM322:
	lui	s3,%hi(.LC24)
.LM323:
	lui	s4,%hi(.LC25)
.LM324:
	lui	s5,%hi(.LC27)
.LM325:
	sw	s0,232(sp)
	sw	ra,236(sp)
	sw	s2,224(sp)
	sw	s6,208(sp)
	sw	s7,204(sp)
	sw	s8,200(sp)
	sw	s9,196(sp)
	sw	s10,192(sp)
	sw	s11,188(sp)
	.cfi_offset 8, -8
	.cfi_offset 1, -4
	.cfi_offset 18, -16
	.cfi_offset 22, -32
	.cfi_offset 23, -36
	.cfi_offset 24, -40
	.cfi_offset 25, -44
	.cfi_offset 26, -48
	.cfi_offset 27, -52
.LM326:
	mv	s0,a0
.LM327:
	addi	s3,s3,%lo(.LC24)
.LM328:
	call	mbedtls_debug_print_msg
.LVL105:
.LM329:
	addi	s4,s4,%lo(.LC25)
.LM330:
	addi	s5,s5,%lo(.LC27)
.L87:
.LM331:
.LM332:
.LVL106:
.LM333:
.LM334:
.LM335:
	lw	a5,8(s0)
	bne	a5,zero,.L88
.LM336:
	lw	a5,176(s0)
	bne	a5,zero,.L88
.LM337:
.LM338:
	li	a1,5
	mv	a0,s0
	call	mbedtls_ssl_fetch_input
.LVL107:
.LM339:
	mv	s10,a0
.LVL108:
.LM340:
	beq	a0,zero,.L88
.LM341:
	lui	a4,%hi(.LC23)
	mv	a5,a0
	addi	a4,a4,%lo(.LC23)
	li	a3,935
.LVL109:
.L310:
.LM342:
	addi	a2,s1,%lo(.LC2)
	li	a1,1
	mv	a0,s0
.LVL110:
.LM343:
	call	mbedtls_debug_print_ret
.LVL111:
.LM344:
.LM345:
	j	.L86
.LVL112:
.L88:
.LM346:
.LBB201:
.LBB202:
.LM347:
	lw	a5,0(s0)
.LBE202:
.LBE201:
.LM348:
	lw	s2,104(s0)
.LVL113:
.LM349:
.LBB204:
.LBI201:
.LM350:
.LBB203:
.LM351:
.LM352:
	li	a6,5
.LM353:
	lbu	a4,5(a5)
	li	a5,1
	bne	a4,a5,.L90
.LM354:
	li	a6,13
.L90:
.LVL114:
.LM355:
.LBE203:
.LBE204:
.LM356:
	mv	a5,s2
	mv	a4,s3
	li	a3,942
	addi	a2,s1,%lo(.LC2)
	li	a1,4
	mv	a0,s0
	call	mbedtls_debug_print_buf
.LVL115:
.LM357:
	lbu	a5,0(s2)
	mv	a4,s4
	li	a3,953
	addi	a2,s1,%lo(.LC2)
	li	a1,3
	mv	a0,s0
	call	mbedtls_debug_print_msg
.LVL116:
.LM358:
.LM359:
	lbu	a4,0(s2)
	li	a5,22
	beq	a4,a5,.L91
.LM360:
	lui	a4,%hi(.LC26)
	addi	a4,a4,%lo(.LC26)
	li	a3,957
	addi	a2,s1,%lo(.LC2)
	li	a1,1
.L297:
.LM361:
	mv	a0,s0
.LM362:
	li	s10,-28672
.LM363:
	call	mbedtls_debug_print_msg
.LVL117:
.LM364:
.LM365:
	addi	s10,s10,-1792
	j	.L86
.L91:
.LM366:
.LVL118:
.LBB205:
.LBI205:
.LM367:
.LBB206:
.LM368:
.LM369:
.LM370:
.LM371:
.LM372:
	lw	a4,112(s0)
.LBE206:
.LBE205:
.LM373:
	addi	a2,s1,%lo(.LC2)
	li	a1,3
.LBB209:
.LBB207:
.LM374:
	lbu	a3,1(a4)
	lbu	a5,0(a4)
.LBE207:
.LBE209:
.LM375:
	mv	a0,s0
.LBB210:
.LBB208:
.LM376:
	slli	a3,a3,8
.LBE208:
.LBE210:
.LM377:
	srli	a3,a3,8
	slli	a5,a5,8
.LM378:
	or	a5,a5,a3
	mv	a4,s5
	li	a3,961
	call	mbedtls_debug_print_msg
.LVL119:
.LM379:
	lbu	a5,1(s2)
	lbu	a6,2(s2)
	lui	a4,%hi(.LC28)
	addi	a4,a4,%lo(.LC28)
	li	a3,964
	addi	a2,s1,%lo(.LC2)
	li	a1,3
	mv	a0,s0
	call	mbedtls_debug_print_msg
.LVL120:
.LM380:
.LM381:
	lw	a5,0(s0)
.LM382:
	lbu	s2,5(a5)
.LVL121:
.LM383:
	li	a5,1
	bne	s2,a5,.L93
.LM384:
	lw	a5,8(s0)
	bne	a5,zero,.L94
.LM385:
.LM386:
	lw	a1,100(s0)
.LM387:
	lbu	a5,0(a1)
	bne	a5,zero,.L95
.LM388:
	lbu	a5,1(a1)
	beq	a5,zero,.L96
.L95:
.LM389:
	lui	a4,%hi(.LC26)
	addi	a4,a4,%lo(.LC26)
	li	a3,977
.L296:
.LM390:
	addi	a2,s1,%lo(.LC2)
	li	a1,1
	mv	a0,s0
	call	mbedtls_debug_print_msg
.LVL122:
.LM391:
.L97:
.LM392:
	li	s10,-24576
	addi	s10,s10,-1536
.LVL123:
.L86:
.LM393:
	lw	ra,236(sp)
	.cfi_remember_state
	.cfi_restore 1
	lw	s0,232(sp)
	.cfi_restore 8
.LVL124:
.LM394:
	lw	s1,228(sp)
	.cfi_restore 9
	lw	s2,224(sp)
	.cfi_restore 18
	lw	s3,220(sp)
	.cfi_restore 19
	lw	s4,216(sp)
	.cfi_restore 20
	lw	s5,212(sp)
	.cfi_restore 21
	lw	s6,208(sp)
	.cfi_restore 22
	lw	s7,204(sp)
	.cfi_restore 23
	lw	s8,200(sp)
	.cfi_restore 24
	lw	s9,196(sp)
	.cfi_restore 25
	lw	s11,188(sp)
	.cfi_restore 27
	mv	a0,s10
	lw	s10,192(sp)
	.cfi_restore 26
	addi	sp,sp,240
	.cfi_def_cfa_offset 0
	jr	ra
.LVL125:
.L96:
	.cfi_restore_state
.LM395:
	li	a2,6
	addi	a1,a1,2
	addi	a0,s0,238
	call	memcpy
.LVL126:
.LM396:
.LM397:
	mv	a0,s0
	call	mbedtls_ssl_dtls_replay_check
.LVL127:
.LM398:
	beq	a0,zero,.L98
.LM399:
	lui	a4,%hi(.LC29)
	addi	a4,a4,%lo(.LC29)
	li	a3,986
	addi	a2,s1,%lo(.LC2)
	mv	a1,s2
	mv	a0,s0
	call	mbedtls_debug_print_msg
.LVL128:
.LM400:
.LM401:
	sw	zero,148(s0)
.LM402:
.LM403:
	sw	zero,136(s0)
.LM404:
	j	.L87
.L98:
.LM405:
	mv	a0,s0
	call	mbedtls_ssl_dtls_replay_update
.LVL129:
.L93:
.LM406:
.LBB211:
.LBI211:
.LM407:
.LBB212:
.LM408:
.LM409:
.LM410:
.LM411:
.LM412:
.LBE212:
.LBE211:
.LM413:
.LM414:
	lw	a5,8(s0)
	beq	a5,zero,.L99
.LVL130:
.L94:
.LM415:
.LM416:
	lw	s3,168(s0)
.LVL131:
.L100:
.LM417:
.LM418:
	lw	s2,120(s0)
.LVL132:
.LM419:
	lui	a4,%hi(.LC30)
	mv	a6,s3
	mv	a5,s2
	addi	a4,a4,%lo(.LC30)
	li	a3,1033
	addi	a2,s1,%lo(.LC2)
	li	a1,4
	mv	a0,s0
	call	mbedtls_debug_print_buf
.LVL133:
.LM420:
.LM421:
	lw	a5,64(s0)
.LM422:
	mv	a2,s3
	mv	a1,s2
	lw	a5,28(a5)
	mv	a0,s0
	jalr	a5
.LVL134:
	mv	s10,a0
.LVL135:
.LM423:
.LM424:
	beq	a0,zero,.L107
.LM425:
	lui	a4,%hi(.LC31)
	mv	a5,a0
	addi	a4,a4,%lo(.LC31)
	li	a3,1037
	j	.L310
.LVL136:
.L99:
.LBB215:
.LBB213:
.LM426:
	lw	a5,112(s0)
	lbu	s3,0(a5)
	lbu	a5,1(a5)
.LBE213:
.LBE215:
.LM427:
	slli	s3,s3,8
.LBB216:
.LBB214:
.LM428:
	slli	a5,a5,8
.LBE214:
.LBE216:
.LM429:
	srli	a5,a5,8
	or	s3,s3,a5
.LM430:
.LM431:
	lw	a5,176(s0)
	beq	a5,zero,.L101
.LM432:
.LM433:
	sw	zero,176(s0)
	j	.L100
.L101:
.LM434:
.LM435:
	li	a5,16384
	bleu	s3,a5,.L103
.LM436:
	lui	a4,%hi(.LC26)
	addi	a4,a4,%lo(.LC26)
	li	a3,1011
	j	.L296
.L103:
.LM437:
.LBB217:
.LBI217:
.LM438:
.LVL137:
.LBB218:
.LM439:
.LM440:
	lw	a5,0(s0)
.LM441:
	li	a1,5
.LM442:
	lbu	a4,5(a5)
	li	a5,1
	bne	a4,a5,.L104
.LM443:
	li	a1,13
.L104:
.LVL138:
.LM444:
.LBE218:
.LBE217:
.LM445:
	add	a1,s3,a1
	mv	a0,s0
	call	mbedtls_ssl_fetch_input
.LVL139:
.LM446:
	mv	s10,a0
.LVL140:
.LM447:
	beq	a0,zero,.L105
.LM448:
	lui	a4,%hi(.LC23)
	mv	a5,a0
	addi	a4,a4,%lo(.LC23)
	li	a3,1017
	j	.L310
.L105:
.LM449:
.LM450:
	lw	a5,0(s0)
.LM451:
	lbu	a4,5(a5)
	li	a5,1
	bne	a4,a5,.L106
.LM452:
.LM453:
	addi	a5,s3,13
.LM454:
	sw	a5,148(s0)
	j	.L100
.L106:
.LM455:
.LM456:
	sw	zero,136(s0)
	j	.L100
.LVL141:
.L107:
.LM457:
.LBB219:
.LBI219:
.LM458:
.LBB220:
.LM459:
.LM460:
	lw	a5,0(s0)
.LM461:
	li	a4,1
	lbu	a3,5(a5)
.LM462:
	li	a5,12
.LM463:
	beq	a3,a4,.L108
.LM464:
	li	a5,4
.L108:
.LVL142:
.LM465:
.LBE220:
.LBE219:
.LM466:
	bgeu	s3,a5,.L109
.LM467:
	lui	a4,%hi(.LC26)
	addi	a4,a4,%lo(.LC26)
	li	a3,1050
.LVL143:
.L301:
.LM468:
	addi	a2,s1,%lo(.LC2)
	li	a1,1
	mv	a0,s0
	call	mbedtls_debug_print_msg
.LVL144:
.LM469:
.LM470:
	j	.L110
.LVL145:
.L109:
.LM471:
	lbu	a5,0(s2)
	lui	a4,%hi(.LC32)
	li	a1,3
	addi	a4,a4,%lo(.LC32)
	li	a3,1054
	addi	a2,s1,%lo(.LC2)
	mv	a0,s0
.LVL146:
.LM472:
	call	mbedtls_debug_print_msg
.LVL147:
.LM473:
.LM474:
	lbu	a5,0(s2)
	li	a1,1
	beq	a5,a1,.L111
.LM475:
	lui	a4,%hi(.LC26)
	addi	a4,a4,%lo(.LC26)
	li	a3,1057
	addi	a2,s1,%lo(.LC2)
	j	.L297
.L111:
.LM476:
.LM477:
	lw	a4,0(s0)
.LM478:
	lbu	a3,5(a4)
	bne	a3,a5,.L112
.LM479:
.LBB221:
.LBB222:
.LBB223:
.LM480:
	lw	a4,120(s0)
.LBE223:
.LBE222:
.LBE221:
.LM481:
	lw	a1,8(s0)
.LBB230:
.LBB227:
.LBB224:
.LM482:
	lbu	a5,4(a4)
	lbu	a4,5(a4)
.LBE224:
.LBE227:
.LM483:
	slli	a5,a5,8
.LBB228:
.LBB225:
.LM484:
	slli	a4,a4,8
.LBE225:
.LBE228:
.LM485:
	srli	a4,a4,8
	or	a5,a5,a4
.LM486:
	lw	a4,64(s0)
.LBE230:
.LM487:
	bne	a1,a3,.L113
.LBB231:
.LM488:
.LVL148:
.LBB229:
.LBI222:
.LM489:
.LBB226:
.LM490:
.LM491:
.LM492:
.LM493:
.LM494:
.LBE226:
.LBE229:
.LM495:
.LM496:
	lw	a6,636(a4)
.LM497:
	beq	a6,a5,.L114
.LM498:
	lui	a4,%hi(.LC33)
	addi	a4,a4,%lo(.LC33)
	li	a3,1072
	addi	a2,s1,%lo(.LC2)
	mv	a0,s0
	call	mbedtls_debug_print_msg
.LVL149:
.LM499:
.L110:
.LM500:
.LBE231:
.LM501:
	li	s10,-28672
	addi	s10,s10,-768
	j	.L86
.LVL150:
.L114:
.LBB232:
.LM502:
.LM503:
	addi	a6,a6,1
	sw	a6,636(a4)
.LVL151:
.L115:
.LM504:
.LBE232:
.LBB233:
.LM505:
.LM506:
.LM507:
	lw	a4,120(s0)
.LM508:
	li	a3,1095
	addi	a2,s1,%lo(.LC2)
.LM509:
	lbu	s6,6(a4)
.LM510:
	lbu	a5,7(a4)
.LM511:
	lbu	s5,9(a4)
.LM512:
	slli	s6,s6,16
.LM513:
	slli	a5,a5,8
.LM514:
	or	s6,s6,a5
.LM515:
	lbu	a5,8(a4)
.LM516:
	slli	s5,s5,16
.LM517:
	lbu	s4,1(a4)
.LM518:
	or	s6,s6,a5
.LVL152:
.LM519:
.LM520:
	lbu	a5,10(a4)
.LM521:
	slli	s4,s4,16
.LM522:
	li	a1,4
.LM523:
	slli	a5,a5,8
.LM524:
	or	s5,s5,a5
.LM525:
	lbu	a5,11(a4)
.LM526:
	mv	a0,s0
.LM527:
	or	s5,s5,a5
.LVL153:
.LM528:
.LM529:
	lbu	a5,2(a4)
.LM530:
	mv	a6,s5
.LM531:
	slli	a5,a5,8
.LM532:
	or	s4,s4,a5
.LM533:
	lbu	a5,3(a4)
.LM534:
	lui	a4,%hi(.LC34)
	addi	a4,a4,%lo(.LC34)
.LM535:
	or	s4,s4,a5
.LVL154:
.LM536:
	mv	a7,s4
	mv	a5,s6
	call	mbedtls_debug_print_msg
.LVL155:
.LM537:
.LM538:
	bne	s6,zero,.L240
	beq	s5,s4,.L116
.L240:
.LM539:
	lui	a4,%hi(.LC35)
	addi	a4,a4,%lo(.LC35)
	li	a3,1100
	addi	a2,s1,%lo(.LC2)
	li	a1,1
	mv	a0,s0
.LM540:
	li	s10,-28672
.LVL156:
.LM541:
	call	mbedtls_debug_print_msg
.LVL157:
.LM542:
.LM543:
	addi	s10,s10,-128
	j	.L86
.LVL158:
.L113:
.LM544:
.LBE233:
.LBB234:
.LM545:
.LM546:
.LM547:
	sw	a5,632(a4)
.LVL159:
.LM548:
.LM549:
	lw	a4,64(s0)
.LM550:
	addi	a5,a5,1
.LM551:
	sw	a5,636(a4)
	j	.L115
.LVL160:
.L116:
.LM552:
.LBE234:
.LM553:
.LBB235:
.LBI235:
.LM554:
.LBB236:
.LM555:
.LM556:
	lw	a5,0(s0)
.LM557:
	li	a4,1
	lbu	a3,5(a5)
.LM558:
	li	a5,12
.LM559:
	beq	a3,a4,.L118
.LVL161:
.L112:
.LM560:
	li	a5,4
.L118:
.LVL162:
.LM561:
.LBE236:
.LBE235:
.LM562:
.LM563:
	sub	s3,s3,a5
.LVL163:
.LM564:
.LM565:
	li	a4,37
	bgtu	s3,a4,.L119
.LM566:
	lui	a4,%hi(.LC26)
	addi	a4,a4,%lo(.LC26)
	li	a3,1132
	j	.L301
.L119:
.LM567:
	add	s2,s2,a5
.LVL164:
.LM568:
	lui	a4,%hi(.LC36)
	addi	a4,a4,%lo(.LC36)
	li	a6,2
	mv	a5,s2
	li	a3,1139
	addi	a2,s1,%lo(.LC2)
	li	a1,3
	mv	a0,s0
	call	mbedtls_debug_print_buf
.LVL165:
.LM569:
.LM570:
	lw	a5,0(s0)
.LM571:
	mv	a0,s2
	lbu	a1,5(a5)
	call	mbedtls_ssl_read_version
.LVL166:
.LM572:
	lw	a5,60(s0)
.LM573:
	sh	a0,16(s0)
.LM574:
.LM575:
	sh	a0,4(a5)
.LM576:
.LM577:
	lw	a4,0(s0)
.LM578:
	lw	a5,60(s0)
.LM579:
	lbu	a4,4(a4)
.LM580:
	sb	a4,2(a5)
.LM581:
.LM582:
	lhu	a4,16(s0)
	li	a5,771
	beq	a4,a5,.L120
.LM583:
	lui	a4,%hi(.LC37)
	addi	a4,a4,%lo(.LC37)
	li	a3,1147
	addi	a2,s1,%lo(.LC2)
	li	a1,1
	mv	a0,s0
	call	mbedtls_debug_print_msg
.LVL167:
.LM584:
	li	a2,70
	li	a1,2
	mv	a0,s0
.LM585:
	li	s10,-28672
.LVL168:
.LM586:
	call	mbedtls_ssl_send_alert_message
.LVL169:
.LM587:
.LM588:
	addi	s10,s10,384
	j	.L86
.LVL170:
.L120:
.LM589:
	lui	a4,%hi(.LC38)
	li	a6,32
	addi	a5,s2,2
	addi	a4,a4,%lo(.LC38)
	li	a3,1156
	addi	a2,s1,%lo(.LC2)
	li	a1,3
	mv	a0,s0
	call	mbedtls_debug_print_buf
.LVL171:
.LM590:
.LM591:
	lw	a0,64(s0)
.LM592:
	li	a2,32
	addi	a1,s2,2
	addi	a0,a0,808
	call	memcpy
.LVL172:
.LM593:
.LM594:
	lbu	s4,34(s2)
.LVL173:
.LM595:
.LM596:
	li	s7,32
	bgtu	s4,s7,.L121
.LM597:
	addi	s5,s4,36
.LM598:
	bleu	s5,s3,.L122
.L121:
.LM599:
	lui	a4,%hi(.LC26)
	addi	a4,a4,%lo(.LC26)
	li	a3,1167
.LVL174:
.L300:
.LBB237:
.LBB238:
.LBB239:
.LM600:
	addi	a2,s1,%lo(.LC2)
	li	a1,1
	j	.L298
.LVL175:
.L122:
.LM601:
.LBE239:
.LBE238:
.LBE237:
.LM602:
	lui	a4,%hi(.LC39)
	mv	a6,s4
	addi	a4,a4,%lo(.LC39)
	li	a3,1173
	addi	a5,s2,35
	addi	a2,s1,%lo(.LC2)
	li	a1,3
	mv	a0,s0
	call	mbedtls_debug_print_buf
.LVL176:
.LM603:
.LM604:
	lw	a5,60(s0)
.LM605:
	mv	a2,s7
	li	a1,0
.LM606:
	sw	s4,12(a5)
.LM607:
.LM608:
	lw	a0,60(s0)
.LM609:
	addi	s4,s4,35
.LVL177:
.LM610:
	addi	a0,a0,16
	call	memset
.LVL178:
.LM611:
.LM612:
	lw	a0,60(s0)
.LM613:
	addi	a1,s2,35
	lw	a2,12(a0)
	addi	a0,a0,16
	call	memcpy
.LVL179:
.LM614:
.LM615:
	lw	a5,0(s0)
.LM616:
	lbu	s7,5(a5)
	li	a5,1
	bne	s7,a5,.L123
.LM617:
.LVL180:
.LM618:
.LM619:
	add	a5,s2,s4
.LM620:
	lbu	s6,0(a5)
.LVL181:
.LM621:
.LM622:
	add	s4,s6,s4
.LVL182:
.LM623:
	addi	a5,s4,3
.LM624:
	bleu	a5,s3,.L124
.LM625:
	lui	a4,%hi(.LC26)
	addi	a4,a4,%lo(.LC26)
	li	a3,1190
	j	.L300
.L124:
.LM626:
	lui	a4,%hi(.LC40)
	add	a5,s2,s5
	mv	a0,s0
	mv	a6,s6
	addi	a4,a4,%lo(.LC40)
	li	a3,1196
	addi	a2,s1,%lo(.LC2)
	li	a1,3
	call	mbedtls_debug_print_buf
.LVL183:
.LM627:
.LM628:
	lw	a0,0(s0)
.LM629:
	lw	a5,80(a0)
.LM630:
	beq	a5,zero,.L125
.LM631:
	lw	a4,8(s0)
	bne	a4,zero,.L125
.LM632:
.LM633:
	lw	a4,520(s0)
	lw	a3,516(s0)
	lw	a0,84(a0)
	mv	a2,s6
	add	a1,s2,s5
	jalr	a5
.LVL184:
.LM634:
	beq	a0,zero,.L126
.LM635:
	lui	a4,%hi(.LC41)
	addi	a4,a4,%lo(.LC41)
	li	a3,1208
	addi	a2,s1,%lo(.LC2)
	li	a1,2
	mv	a0,s0
	call	mbedtls_debug_print_msg
.LVL185:
.LM636:
.LM637:
	lw	a5,64(s0)
.LM638:
	sb	s7,629(a5)
.L127:
.LM639:
.LM640:
	addi	s4,s4,1
.LVL186:
.L123:
.LM641:
.LBB310:
.LBI310:
.LM642:
.LBB311:
.LM643:
.LM644:
.LM645:
.LM646:
	add	a5,s2,s4
.LVL187:
.LM647:
	lbu	s7,0(a5)
	lbu	a5,1(a5)
.LVL188:
.LM648:
.LBE311:
.LBE310:
.LM649:
	li	s6,1
.LBB313:
.LBB312:
.LM650:
	slli	a5,a5,8
	or	a4,a5,s7
.LM651:
.LVL189:
.LM652:
.LBE312:
.LBE313:
.LM653:
	srli	a5,a5,8
	slli	s7,s7,8
	or	s7,s7,a5
.LVL190:
.LM654:
.LM655:
	bleu	s7,s6,.L129
.LM656:
	add	s5,s4,s7
.LVL191:
.LM657:
	addi	s9,s5,3
.LM658:
	bgtu	s9,s3,.L129
.LM659:
	andi	a5,a4,256
	beq	a5,zero,.L130
.L129:
.LM660:
	lui	a4,%hi(.LC26)
	addi	a4,a4,%lo(.LC26)
	li	a3,1240
	j	.L300
.LVL192:
.L126:
.LM661:
	lui	a4,%hi(.LC42)
	addi	a4,a4,%lo(.LC42)
	li	a3,1211
	addi	a2,s1,%lo(.LC2)
	li	a1,2
	mv	a0,s0
	call	mbedtls_debug_print_msg
.LVL193:
.LM662:
.LM663:
	lw	a5,64(s0)
.LM664:
	sb	zero,629(a5)
	j	.L127
.L125:
.LM665:
.LM666:
	beq	s6,zero,.L128
.LM667:
	lui	a4,%hi(.LC26)
	addi	a4,a4,%lo(.LC26)
	li	a3,1220
	j	.L301
.L128:
.LM668:
	lui	a4,%hi(.LC43)
	addi	a4,a4,%lo(.LC43)
	li	a3,1224
	addi	a2,s1,%lo(.LC2)
	li	a1,2
	mv	a0,s0
	call	mbedtls_debug_print_msg
.LVL194:
	j	.L127
.LVL195:
.L130:
.LM669:
.LM670:
	addi	s4,s4,2
.LVL196:
.LM671:
	add	s4,s2,s4
.LVL197:
.LM672:
	lui	a4,%hi(.LC44)
	mv	a6,s7
	mv	a5,s4
	addi	a4,a4,%lo(.LC44)
	li	a3,1246
	addi	a2,s1,%lo(.LC2)
	li	a1,3
	mv	a0,s0
	call	mbedtls_debug_print_buf
.LVL198:
.LM673:
.LM674:
	addi	s5,s5,2
.LVL199:
.LM675:
.LM676:
	add	a5,s2,s5
.LM677:
	lbu	a6,0(a5)
.LVL200:
.LM678:
.LM679:
	li	a5,15
.LM680:
	addi	a4,a6,-1
.LM681:
	bgtu	a4,a5,.L131
.LM682:
	add	s5,s5,a6
.LVL201:
.LM683:
	addi	s8,s5,1
.LM684:
	bleu	s8,s3,.L132
.L131:
.LM685:
	lui	a4,%hi(.LC26)
	addi	a4,a4,%lo(.LC26)
	li	a3,1262
	j	.L300
.L132:
.LM686:
	lui	a4,%hi(.LC45)
	add	a5,s2,s9
	addi	a4,a4,%lo(.LC45)
	li	a3,1268
	addi	a2,s1,%lo(.LC2)
	li	a1,3
	mv	a0,s0
	call	mbedtls_debug_print_buf
.LVL202:
.LM687:
.LM688:
.LM689:
	addi	a5,s5,3
.LM690:
	bgeu	s8,s3,.L237
.LM691:
.LM692:
	bgeu	s3,a5,.L134
.LM693:
	lui	a4,%hi(.LC26)
	addi	a4,a4,%lo(.LC26)
	li	a3,1277
	j	.L300
.L134:
.LM694:
.LVL203:
.LBB314:
.LBI314:
.LM695:
.LBB315:
.LM696:
.LM697:
.LM698:
.LM699:
.LM700:
	add	s8,s2,s8
.LVL204:
.LM701:
	lbu	a4,1(s8)
	lbu	s5,0(s8)
.LVL205:
.LM702:
	slli	a4,a4,8
.LBE315:
.LBE314:
.LM703:
	srli	a4,a4,8
	slli	s5,s5,8
	or	s5,s5,a4
.LVL206:
.LM704:
.LM705:
	add	a4,s5,a5
.LM706:
	beq	a4,s3,.L133
.LM707:
	lui	a4,%hi(.LC26)
	addi	a4,a4,%lo(.LC26)
	li	a3,1286
	j	.L300
.LVL207:
.L237:
.LM708:
	li	s5,0
.LVL208:
.L133:
.LM709:
.LM710:
	add	s2,s2,a5
.LVL209:
.LM711:
	lui	a4,%hi(.LC46)
	mv	a5,s2
.LVL210:
.LM712:
	mv	a6,s5
	addi	a4,a4,%lo(.LC46)
	li	a3,1296
	addi	a2,s1,%lo(.LC2)
	li	a1,3
	mv	a0,s0
	call	mbedtls_debug_print_buf
.LVL211:
.LM713:
.LBB316:
.LM714:
	li	a5,12288
	addi	a5,a5,1536
	sw	a5,28(sp)
	lui	a5,%hi(.L141)
	addi	a5,a5,%lo(.L141)
.LBE316:
.LM715:
	sw	zero,12(sp)
.LM716:
	li	s9,0
.LVL212:
.LM717:
	lui	s6,%hi(.LC2)
.LBB317:
.LM718:
	sw	a5,32(sp)
.LVL213:
.L135:
.LM719:
.LBE317:
.LM720:
	bne	s5,zero,.L206
.LM721:
.LM722:
	lw	a5,12(sp)
	bne	a5,zero,.L207
.LBB318:
.LM723:
.LM724:
	lui	a5,%hi(.LC0)
	addi	a5,a5,%lo(.LC0)
.LM725:
	lw	a0,64(s0)
.LVL214:
.LM726:
.LM727:
	lw	a4,0(a5)
	lhu	a5,4(a5)
.LM728:
	li	a2,6
	addi	a1,sp,56
	addi	a0,a0,44
.LVL215:
.LM729:
	sw	a4,56(sp)
	sh	a5,60(sp)
.LM730:
.LM731:
	call	memcpy
.LVL216:
.L207:
.LM732:
.LBE318:
.LM733:
.LM734:
.LM735:
	mv	a5,s4
.LM736:
	li	a3,255
.LVL217:
.L211:
.LM737:
.LM738:
	lbu	a4,0(a5)
	bne	a4,zero,.L208
.LM739:
	lbu	a4,1(a5)
	bne	a4,a3,.L208
.LM740:
	lui	a4,%hi(.LC75)
	li	a1,3
	addi	a4,a4,%lo(.LC75)
	li	a3,1510
	addi	a2,s1,%lo(.LC2)
	mv	a0,s0
	call	mbedtls_debug_print_msg
.LVL218:
.LM741:
.LM742:
	lw	a1,8(s0)
	li	a5,1
	bne	a1,a5,.L209
.LM743:
	lui	a4,%hi(.LC76)
	addi	a4,a4,%lo(.LC76)
	li	a3,1513
.LVL219:
.L315:
.LM744:
	addi	a2,s1,%lo(.LC2)
.LVL220:
.L307:
.LM745:
	mv	a0,s0
	call	mbedtls_debug_print_msg
.LVL221:
.LM746:
	li	a2,40
	li	a1,2
	mv	a0,s0
.LBB319:
.LM747:
	li	s10,-28672
.LBE319:
.LM748:
	call	mbedtls_ssl_send_alert_message
.LVL222:
.LM749:
.LBB320:
.LM750:
	addi	s10,s10,512
	j	.L86
.LVL223:
.L206:
.LM751:
.LM752:
.LM753:
.LM754:
	li	a5,3
	bgtu	s5,a5,.L136
.LM755:
	lui	a4,%hi(.LC26)
	addi	a4,a4,%lo(.LC26)
	li	a3,1302
	j	.L300
.L136:
.LM756:
.LVL224:
.LBB242:
.LBI242:
.LM757:
.LBB243:
.LM758:
.LM759:
.LM760:
.LM761:
.LM762:
.LBE243:
.LBE242:
.LM763:
.LBB245:
.LBI245:
.LM764:
.LBB246:
.LM765:
.LM766:
.LM767:
.LM768:
.LM769:
	lbu	a5,3(s2)
	lbu	s3,2(s2)
	slli	a5,a5,8
.LBE246:
.LBE245:
.LM770:
	srli	a5,a5,8
	slli	s3,s3,8
	or	s3,s3,a5
.LVL225:
.LM771:
.LM772:
	addi	s8,s3,4
.LM773:
	bleu	s8,s5,.L137
.LM774:
	lui	a4,%hi(.LC26)
	addi	a4,a4,%lo(.LC26)
	li	a3,1311
	j	.L300
.L137:
.LBB247:
.LBB244:
.LM775:
	lbu	a4,1(s2)
	lbu	a5,0(s2)
	slli	a4,a4,8
	or	a3,a4,a5
.LBE244:
.LBE247:
.LM776:
	srli	a4,a4,8
	slli	a5,a5,8
	or	a5,a5,a4
.LM777:
	li	a4,23
	bgtu	a5,a4,.L138
	lw	a3,32(sp)
	slli	a4,a5,2
	add	a4,a4,a3
	lw	a4,0(a4)
	jr	a4
	.section	.rodata.ssl_parse_client_hello,"a",@progbits
	.align	2
	.align	2
.L141:
	.word	.L149
	.word	.L148
	.word	.L139
	.word	.L139
	.word	.L139
	.word	.L139
	.word	.L139
	.word	.L139
	.word	.L139
	.word	.L139
	.word	.L147
	.word	.L146
	.word	.L139
	.word	.L145
	.word	.L144
	.word	.L139
	.word	.L143
	.word	.L139
	.word	.L139
	.word	.L139
	.word	.L139
	.word	.L139
	.word	.L142
	.word	.L140
	.section	.text.ssl_parse_client_hello
.L138:
	lw	a4,28(sp)
	beq	a3,a4,.L150
	li	a4,511
	beq	a3,a4,.L151
	li	a4,8192
	addi	a4,a4,768
	beq	a3,a4,.L152
.L139:
.LM778:
	lui	a4,%hi(.LC74)
	addi	a4,a4,%lo(.LC74)
	li	a3,1468
	addi	a2,s1,%lo(.LC2)
	li	a1,3
	j	.L303
.L149:
.LM779:
	lui	a4,%hi(.LC47)
	addi	a2,s1,%lo(.LC2)
	li	a1,3
	mv	a0,s0
	addi	a4,a4,%lo(.LC47)
	li	a3,1319
	call	mbedtls_debug_print_msg
.LVL226:
.LM780:
.LM781:
	add	a2,s2,s8
	addi	a1,s2,4
	mv	a0,s0
	call	mbedtls_ssl_parse_server_name_ext
.LVL227:
.L312:
.LM782:
	mv	s10,a0
.LVL228:
.LM783:
.LM784:
	beq	a0,zero,.L153
	j	.L86
.LVL229:
.L151:
.LM785:
	lui	a4,%hi(.LC48)
	addi	a4,a4,%lo(.LC48)
	li	a3,1329
	addi	a2,s1,%lo(.LC2)
	li	a1,3
	mv	a0,s0
	call	mbedtls_debug_print_msg
.LVL230:
.LM786:
.LM787:
.LBB248:
.LBI248:
.LM788:
.LBB249:
.LM789:
.LM790:
	lw	a5,8(s0)
	beq	a5,zero,.L154
.LM791:
.LM792:
	lw	a2,528(s0)
.LM793:
	addi	a5,a2,1
.LM794:
	beq	s3,a5,.L155
.L157:
.LM795:
	lui	a4,%hi(.LC49)
	addi	a4,a4,%lo(.LC49)
	li	a3,118
.L316:
.LM796:
	addi	a2,s1,%lo(.LC2)
.LVL231:
.L313:
.LM797:
.LBE249:
.LBE248:
.LBE320:
.LM798:
	li	a1,1
	j	.L307
.LVL232:
.L155:
.LBB321:
.LBB252:
.LBB250:
.LM799:
	lbu	a5,4(s2)
.LM800:
	bne	a2,a5,.L157
.LM801:
	addi	a1,s0,544
	addi	a0,s2,5
	call	mbedtls_ct_memcmp
.LVL233:
.LM802:
	bne	a0,zero,.L157
.LVL234:
.L158:
.LM803:
.LBE250:
.LBE252:
.LM804:
	li	s9,1
.LVL235:
.L153:
.LM805:
	addi	s5,s5,-4
.LVL236:
.LM806:
	sub	s5,s5,s3
.LVL237:
.LM807:
.LM808:
	add	s2,s2,s8
.LVL238:
.LM809:
	j	.L135
.LVL239:
.L154:
.LBB253:
.LBB251:
.LM810:
.LM811:
	li	a5,1
	bne	s3,a5,.L159
.LM812:
	lbu	a5,4(s2)
	beq	a5,zero,.L160
.L159:
.LM813:
	lui	a4,%hi(.LC50)
	addi	a4,a4,%lo(.LC50)
	li	a3,127
	j	.L316
.L160:
.LM814:
.LM815:
	sw	s3,524(s0)
.LVL240:
.LM816:
.LBE251:
.LBE253:
.LM817:
	j	.L158
.LVL241:
.L145:
.LM818:
	lui	a4,%hi(.LC51)
	addi	a4,a4,%lo(.LC51)
	li	a3,1342
	addi	a2,s1,%lo(.LC2)
	li	a1,3
	mv	a0,s0
	call	mbedtls_debug_print_msg
.LVL242:
.LM819:
.LM820:
	add	a2,s2,s8
	addi	a1,s2,4
	mv	a0,s0
	call	mbedtls_ssl_parse_sig_alg_ext
.LVL243:
	mv	s10,a0
.LVL244:
.LM821:
.LM822:
	bne	a0,zero,.L86
.LM823:
	li	a5,1
	sw	a5,12(sp)
.LVL245:
.LM824:
	j	.L153
.LVL246:
.L147:
.LM825:
	lui	a4,%hi(.LC52)
	li	a1,3
	addi	a4,a4,%lo(.LC52)
	li	a3,1357
	addi	a2,s1,%lo(.LC2)
	mv	a0,s0
	call	mbedtls_debug_print_msg
.LVL247:
.LM826:
.LBB254:
.LBI254:
.LM827:
.LBB255:
.LM828:
.LM829:
.LM830:
.LM831:
.LM832:
	li	a1,1
	bgtu	s3,a1,.L161
.LM833:
	lui	a4,%hi(.LC26)
	addi	a4,a4,%lo(.LC26)
	li	a3,190
.LVL248:
.L302:
.LM834:
.LBE255:
.LBE254:
.LBB269:
.LBB270:
.LM835:
	addi	a2,s1,%lo(.LC2)
.LVL249:
.L298:
.LM836:
.LBE270:
.LBE269:
.LBB273:
.LBB240:
.LM837:
	mv	a0,s0
	call	mbedtls_debug_print_msg
.LVL250:
.L299:
.LM838:
	li	a2,50
	li	a1,2
	mv	a0,s0
	call	mbedtls_ssl_send_alert_message
.LVL251:
.LM839:
.LM840:
.LBE240:
.LBE273:
.LM841:
	j	.L110
.LVL252:
.L161:
.LBB274:
.LBB265:
.LM842:
.LBB256:
.LBI256:
.LM843:
.LBB257:
.LM844:
.LM845:
.LM846:
.LM847:
	lbu	a5,5(s2)
	lbu	s10,4(s2)
	slli	a5,a5,8
	or	a4,a5,s10
.LM848:
.LVL253:
.LM849:
.LBE257:
.LBE256:
.LM850:
	srli	a5,a5,8
	slli	s10,s10,8
	or	s10,s10,a5
.LVL254:
.LM851:
.LM852:
	addi	a5,s10,2
.LM853:
	bne	s3,a5,.L162
.LM854:
	andi	a5,a4,256
	beq	a5,zero,.L163
.L162:
.LM855:
	lui	a4,%hi(.LC26)
	addi	a4,a4,%lo(.LC26)
	li	a3,198
	j	.L300
.L163:
.LM856:
.LM857:
	lw	a5,64(s0)
.LM858:
	lw	a5,404(a5)
	beq	a5,zero,.L164
.LM859:
	lui	a4,%hi(.LC26)
	addi	a4,a4,%lo(.LC26)
	li	a3,206
	addi	a2,s1,%lo(.LC2)
.LVL255:
.L294:
.LM860:
.LBE265:
.LBE274:
.LBB275:
.LBB276:
.LM861:
	mv	a0,s0
	call	mbedtls_debug_print_msg
.LVL256:
.LM862:
	li	a2,47
	li	a1,2
	mv	a0,s0
	call	mbedtls_ssl_send_alert_message
.LVL257:
.LM863:
.LM864:
.LBE276:
.LBE275:
.LM865:
	j	.L97
.LVL258:
.L164:
.LBB278:
.LBB266:
.LM866:
.LM867:
.LM868:
	srli	a2,s10,1
.LM869:
	addi	s11,a2,1
.LM870:
	li	a5,14
	bleu	s11,a5,.L165
	mv	s11,a5
.L165:
.LVL259:
.LM871:
.LM872:
	li	a1,2
	mv	a0,s11
	call	calloc
.LVL260:
	mv	a5,a0
.LVL261:
.LM873:
	bne	a0,zero,.L166
.LM874:
	li	a2,80
	li	a1,2
	mv	a0,s0
.LVL262:
.LM875:
.LBE266:
.LBE278:
.LM876:
	li	s10,-32768
.LVL263:
.LBB279:
.LBB267:
.LM877:
	call	mbedtls_ssl_send_alert_message
.LVL264:
.LM878:
.LM879:
.LBE267:
.LBE279:
.LM880:
.LM881:
	addi	s10,s10,256
	j	.L86
.LVL265:
.L166:
.LBB280:
.LBB268:
.LM882:
.LM883:
	lw	a4,64(s0)
.LM884:
	addi	a1,s2,6
.LM885:
	sw	a0,404(a4)
.LM886:
.LVL266:
.LM887:
.L167:
.LM888:
.LM889:
	beq	s10,zero,.L153
.LM890:
	addi	a2,s11,-1
	beq	a2,zero,.L153
.LBB258:
.LBB259:
.LBB260:
.LM891:
	lbu	a3,1(a1)
	lbu	a4,0(a1)
	sw	a5,24(sp)
.LBE260:
.LBE259:
.LM892:
.LVL267:
.LBB263:
.LBI259:
.LM893:
.LBB261:
.LM894:
.LM895:
.LM896:
.LM897:
.LM898:
	slli	a3,a3,8
.LBE261:
.LBE263:
.LM899:
	srli	a3,a3,8
	slli	a4,a4,8
	or	a4,a4,a3
.LVL268:
.LM900:
.LM901:
	mv	a0,a4
.LBB264:
.LBB262:
.LM902:
	sw	a1,20(sp)
	sw	a2,36(sp)
.LBE262:
.LBE264:
.LM903:
	sw	a4,16(sp)
	call	mbedtls_ssl_get_ecp_group_id_from_tls_id
.LVL269:
.LM904:
	lw	a1,20(sp)
	lw	a5,24(sp)
	beq	a0,zero,.L168
.LM905:
.LVL270:
.LM906:
	lw	a4,16(sp)
.LM907:
	lw	s11,36(sp)
.LVL271:
.LM908:
	addi	a5,a5,2
.LVL272:
.LM909:
	sh	a4,-2(a5)
.LM910:
.LVL273:
.L168:
.LM911:
.LM912:
	addi	s10,s10,-2
.LVL274:
.LM913:
.LM914:
	addi	a1,a1,2
	j	.L167
.LVL275:
.L146:
.LM915:
.LBE258:
.LBE268:
.LBE280:
.LM916:
	lui	a4,%hi(.LC53)
	addi	a4,a4,%lo(.LC53)
	li	a3,1366
	addi	a2,s1,%lo(.LC2)
	li	a1,3
	mv	a0,s0
	call	mbedtls_debug_print_msg
.LVL276:
.LM917:
.LM918:
	lw	a4,64(s0)
.LM919:
	lbu	a5,1(a4)
	ori	a5,a5,1
	sb	a5,1(a4)
.LM920:
.LVL277:
.LBB281:
.LBI281:
.LM921:
.LBB282:
.LM922:
.LM923:
.LM924:
.LM925:
	beq	s3,zero,.L172
.LM926:
	lbu	a5,4(s2)
.LM927:
	addi	a4,a5,1
.LM928:
	beq	a4,s3,.L173
.L172:
.LM929:
	lui	a4,%hi(.LC26)
	addi	a4,a4,%lo(.LC26)
	li	a3,254
	j	.L300
.L173:
.LM930:
.LVL278:
.LM931:
.LM932:
	addi	a4,s2,5
.LVL279:
.LM933:
.LM934:
	li	a2,1
.LVL280:
.L174:
.LM935:
	beq	a5,zero,.L153
.LM936:
.LM937:
	lbu	a3,0(a4)
.LM938:
	bgtu	a3,a2,.L175
.LM939:
.LM940:
	lw	a5,64(s0)
.LVL281:
.LM941:
	addi	a2,s6,%lo(.LC2)
	li	a1,4
.LM942:
	sw	a3,324(a5)
.LM943:
	lbu	a5,0(a4)
	lui	a4,%hi(.LC54)
.LVL282:
.LM944:
	addi	a4,a4,%lo(.LC54)
	li	a3,274
.LVL283:
.L303:
.LM945:
.LBE282:
.LBE281:
.LM946:
	mv	a0,s0
	call	mbedtls_debug_print_msg
.LVL284:
	j	.L153
.LVL285:
.L175:
.LBB284:
.LBB283:
.LM947:
.LM948:
	addi	a5,a5,-1
.LVL286:
.LM949:
.LM950:
	addi	a4,a4,1
.LVL287:
.LM951:
	j	.L174
.LVL288:
.L148:
.LM952:
.LBE283:
.LBE284:
.LM953:
	lui	a4,%hi(.LC55)
	addi	a4,a4,%lo(.LC55)
	li	a3,1391
	addi	a2,s1,%lo(.LC2)
	li	a1,3
	mv	a0,s0
	call	mbedtls_debug_print_msg
.LVL289:
.LM954:
.LBB285:
.LBI275:
.LM955:
.LBB277:
.LM956:
.LM957:
	li	a5,1
	bne	s3,a5,.L177
.LM958:
	lbu	a5,4(s2)
.LM959:
	li	a4,4
	bleu	a5,a4,.L178
.L177:
.LM960:
	lui	a4,%hi(.LC26)
	addi	a4,a4,%lo(.LC26)
	li	a3,345
.LVL290:
.L293:
.LM961:
	addi	a2,s1,%lo(.LC2)
.L295:
	li	a1,1
	j	.L294
.LVL291:
.L178:
.LM962:
.LM963:
	lw	a4,60(s0)
.LM964:
	sb	a5,0(a4)
.LM965:
.LVL292:
.LM966:
.LBE277:
.LBE285:
.LM967:
	j	.L153
.LVL293:
.L150:
.LM968:
	lui	a4,%hi(.LC56)
	li	a1,3
	addi	a4,a4,%lo(.LC56)
	li	a3,1402
	addi	a2,s1,%lo(.LC2)
	mv	a0,s0
	call	mbedtls_debug_print_msg
.LVL294:
.LM969:
.LBB286:
.LBI269:
.LM970:
.LBB271:
.LM971:
.LM972:
.LM973:
	lw	a5,0(s0)
.LM974:
	lbu	a1,5(a5)
	li	a5,1
	beq	a1,a5,.L179
.LM975:
	lui	a4,%hi(.LC26)
	addi	a4,a4,%lo(.LC26)
	li	a3,367
	j	.L293
.L179:
.LM976:
.LM977:
	bne	s3,zero,.L180
.LM978:
	lui	a4,%hi(.LC26)
	addi	a4,a4,%lo(.LC26)
	li	a3,380
	j	.L302
.L180:
.LM979:
.LVL295:
.LM980:
	lbu	a6,4(s2)
.LVL296:
.LM981:
.LM982:
.LM983:
	addi	a5,s3,-1
.LVL297:
.LM984:
	beq	a6,a5,.L181
.LM985:
	lui	a4,%hi(.LC26)
	addi	a4,a4,%lo(.LC26)
	li	a3,390
	j	.L302
.L181:
.LM986:
.LM987:
	lbu	a5,589(s0)
.LVL298:
.LM988:
	bne	a5,zero,.L182
.LM989:
	lui	a4,%hi(.LC57)
	addi	a4,a4,%lo(.LC57)
	li	a3,400
	addi	a2,s1,%lo(.LC2)
.LVL299:
.L304:
.LM990:
.LBE271:
.LBE286:
.LBB287:
.LBB288:
.LM991:
	li	a1,3
	mv	a0,s0
	call	mbedtls_debug_print_msg
.LVL300:
.LM992:
.LM993:
	j	.L153
.LVL301:
.L182:
.LM994:
.LBE288:
.LBE287:
.LBB291:
.LBB272:
.LM995:
.LM996:
	li	a5,32
	bleu	a6,a5,.L183
.LM997:
	lui	a4,%hi(.LC26)
	addi	a4,a4,%lo(.LC26)
	li	a3,405
	addi	a2,s6,%lo(.LC2)
	j	.L295
.L183:
.LM998:
	lw	a4,64(s0)
.LM999:
	li	a3,1
.LM1000:
	addi	a5,s2,5
.LM1001:
.LM1002:
	sb	a3,672(a4)
.LM1003:
.LM1004:
	lw	a4,64(s0)
.LM1005:
	mv	a2,a6
	mv	a1,a5
.LM1006:
	sb	a6,705(a4)
.LM1007:
.LM1008:
	lw	a0,64(s0)
.LM1009:
	sw	a6,20(sp)
	sw	a5,16(sp)
	addi	a0,a0,673
	call	memcpy
.LVL302:
.LM1010:
	lui	a4,%hi(.LC58)
	addi	a4,a4,%lo(.LC58)
	li	a3,415
	addi	a2,s6,%lo(.LC2)
	li	a1,3
	mv	a0,s0
	call	mbedtls_debug_print_msg
.LVL303:
.LM1011:
	lw	a6,20(sp)
	lw	a5,16(sp)
	lui	a4,%hi(.LC59)
	addi	a4,a4,%lo(.LC59)
	li	a3,416
.LVL304:
.L305:
.LM1012:
.LBE272:
.LBE291:
.LBB292:
.LBB293:
.LM1013:
	addi	a2,s6,%lo(.LC2)
	li	a1,3
	mv	a0,s0
	call	mbedtls_debug_print_buf
.LVL305:
.LM1014:
.LBE293:
.LBE292:
.LM1015:
	j	.L153
.LVL306:
.L142:
.LM1016:
	lui	a4,%hi(.LC60)
	addi	a4,a4,%lo(.LC60)
	li	a3,1413
	addi	a2,s1,%lo(.LC2)
	li	a1,3
	mv	a0,s0
	call	mbedtls_debug_print_msg
.LVL307:
.LM1017:
.LBB304:
.LBI304:
.LM1018:
.LBB305:
.LM1019:
.LM1020:
	beq	s3,zero,.L184
.LM1021:
	lui	a4,%hi(.LC26)
	addi	a4,a4,%lo(.LC26)
	li	a3,429
	j	.L300
.L184:
.LM1022:
.LM1023:
.LM1024:
	lw	a5,0(s0)
.LM1025:
	li	a4,1
	lbu	a5,9(a5)
	bne	a5,a4,.L153
.LM1026:
.LM1027:
	lw	a4,60(s0)
.LM1028:
	sw	a5,116(a4)
.LVL308:
.LM1029:
.LBE305:
.LBE304:
.LM1030:
	j	.L153
.LVL309:
.L140:
.LM1031:
	lui	a4,%hi(.LC61)
	addi	a4,a4,%lo(.LC61)
	li	a3,1424
	addi	a2,s1,%lo(.LC2)
	li	a1,3
	mv	a0,s0
	call	mbedtls_debug_print_msg
.LVL310:
.LM1032:
.LBB306:
.LBI238:
.LM1033:
.LBB241:
.LM1034:
.LM1035:
	beq	s3,zero,.L185
.LM1036:
	lui	a4,%hi(.LC26)
	addi	a4,a4,%lo(.LC26)
	li	a3,452
	j	.L300
.L185:
.LM1037:
.LM1038:
.LM1039:
	lw	a5,0(s0)
.LM1040:
	li	a4,1
	lbu	a5,10(a5)
	bne	a5,a4,.L153
.LM1041:
.LM1042:
	lw	a4,64(s0)
.LM1043:
	sb	a5,8(a4)
.LVL311:
.LM1044:
.LBE241:
.LBE306:
.LM1045:
	j	.L153
.LVL312:
.L152:
.LM1046:
	lui	a4,%hi(.LC62)
	addi	a4,a4,%lo(.LC62)
	li	a3,1435
	addi	a2,s1,%lo(.LC2)
	li	a1,3
	mv	a0,s0
	call	mbedtls_debug_print_msg
.LVL313:
.LM1047:
.LBB307:
.LBI287:
.LM1048:
.LBB289:
.LM1049:
.LM1050:
.LM1051:
	addi	a0,sp,56
	call	mbedtls_ssl_session_init
.LVL314:
.LM1052:
.LM1053:
	lw	a5,0(s0)
.LM1054:
	lw	a4,92(a5)
	beq	a4,zero,.L153
.LM1055:
	lw	a5,88(a5)
	beq	a5,zero,.L153
.LM1056:
.LM1057:
	lw	a5,64(s0)
.LM1058:
	li	a4,1
.LM1059:
	li	a3,487
.LM1060:
	sb	a4,4(a5)
.LM1061:
	lui	a4,%hi(.LC63)
	mv	a5,s3
	addi	a4,a4,%lo(.LC63)
	addi	a2,s1,%lo(.LC2)
	li	a1,3
	mv	a0,s0
	call	mbedtls_debug_print_msg
.LVL315:
.LM1062:
.LM1063:
	beq	s3,zero,.L153
.LM1064:
.LM1065:
	lw	a5,8(s0)
	beq	a5,zero,.L189
.LM1066:
	lui	a4,%hi(.LC64)
	addi	a4,a4,%lo(.LC64)
	li	a3,495
.LVL316:
.L306:
.LM1067:
	addi	a2,s6,%lo(.LC2)
	j	.L304
.LVL317:
.L189:
.LM1068:
.LM1069:
	lw	a5,0(s0)
.LM1070:
	mv	a3,s3
	addi	a2,s2,4
	lw	a4,92(a5)
	lw	a0,96(a5)
	addi	a1,sp,56
	jalr	a4
.LVL318:
.LM1071:
	beq	a0,zero,.L190
	sw	a0,16(sp)
.LM1072:
	addi	a0,sp,56
.LVL319:
.LM1073:
	call	mbedtls_ssl_session_free
.LVL320:
.LM1074:
.LM1075:
	lw	a5,16(sp)
	li	a4,-28672
	addi	a4,a4,-384
	bne	a5,a4,.L191
.LM1076:
	lui	a4,%hi(.LC65)
	addi	a4,a4,%lo(.LC65)
	li	a3,508
	j	.L306
.L191:
.LM1077:
.LM1078:
	li	a4,-28672
	addi	a4,a4,640
	bne	a5,a4,.L192
.LM1079:
	lui	a4,%hi(.LC66)
	addi	a4,a4,%lo(.LC66)
	li	a3,510
	j	.L306
.L192:
.LM1080:
	lui	a4,%hi(.LC67)
	addi	a4,a4,%lo(.LC67)
	li	a3,512
	addi	a2,s6,%lo(.LC2)
	li	a1,1
	mv	a0,s0
	call	mbedtls_debug_print_ret
.LVL321:
	j	.L153
.LVL322:
.L190:
.LM1081:
.LM1082:
	lw	a1,60(s0)
.LM1083:
	addi	a0,sp,72
.LVL323:
.LM1084:
	lw	a2,12(a1)
.LM1085:
	addi	a1,a1,16
.LM1086:
	sw	a2,68(sp)
.LM1087:
	call	memcpy
.LVL324:
.LM1088:
	lw	a0,60(s0)
	call	mbedtls_ssl_session_free
.LVL325:
.LM1089:
	lw	a0,60(s0)
	li	a2,120
	addi	a1,sp,56
	call	memcpy
.LVL326:
.LM1090:
	li	a1,120
	addi	a0,sp,56
	call	mbedtls_platform_zeroize
.LVL327:
.LM1091:
	lui	a4,%hi(.LC68)
	addi	a4,a4,%lo(.LC68)
	li	a3,531
	addi	a2,s6,%lo(.LC2)
	li	a1,3
	mv	a0,s0
	call	mbedtls_debug_print_msg
.LVL328:
.LM1092:
.LM1093:
	lw	a5,64(s0)
.LM1094:
	li	a4,1
	sb	a4,0(a5)
.LM1095:
.LM1096:
	lw	a5,64(s0)
.LM1097:
	sb	zero,4(a5)
.LM1098:
.LVL329:
.LM1099:
.LBE289:
.LBE307:
.LM1100:
.LBB308:
.LBB290:
.LM1101:
	j	.L153
.LVL330:
.L143:
.LM1102:
.LBE290:
.LBE308:
.LM1103:
	lui	a4,%hi(.LC69)
	addi	a2,s1,%lo(.LC2)
	mv	a0,s0
	addi	a4,a4,%lo(.LC69)
	li	a3,1446
	li	a1,3
	call	mbedtls_debug_print_msg
.LVL331:
.LM1104:
.LM1105:
	add	a2,s2,s8
	addi	a1,s2,4
	mv	a0,s0
	call	mbedtls_ssl_parse_alpn_ext
.LVL332:
	j	.L312
.L144:
.LM1106:
	lui	a4,%hi(.LC70)
	addi	a4,a4,%lo(.LC70)
	li	a3,1458
	addi	a2,s1,%lo(.LC2)
	li	a1,3
	mv	a0,s0
	call	mbedtls_debug_print_msg
.LVL333:
.LM1107:
.LBB309:
.LBI292:
.LM1108:
.LBB303:
.LM1109:
.LM1110:
.LM1111:
.LM1112:
.LM1113:
.LM1114:
.LM1115:
	lw	a5,0(s0)
.LM1116:
	li	a4,1
	lbu	a3,5(a5)
	bne	a3,a4,.L153
.LM1117:
	lw	a4,192(a5)
	beq	a4,zero,.L153
.LM1118:
	lw	a5,196(a5)
	beq	a5,zero,.L153
.LM1119:
.LM1120:
	li	a5,2
	bleu	s3,a5,.L299
.LM1121:
.LM1122:
	sh	zero,256(s0)
.LM1123:
	lbu	a6,5(s2)
	lbu	a5,4(s2)
	slli	a6,a6,8
	or	a5,a6,a5
	slli	a5,a5,8
	srli	a6,a6,8
	add	a6,a6,a5
	slli	s11,a6,16
	srli	s11,s11,16
.LVL334:
.LM1124:
.LM1125:
.LM1126:
	addi	a5,s3,-3
.LM1127:
	bgtu	s11,a5,.L299
.LM1128:
	andi	a5,s11,1
	bne	a5,zero,.L299
.LM1129:
	li	a5,-6
	sub	a5,a5,s2
	sw	a5,16(sp)
.LBB294:
.LM1130:
	lui	a5,%hi(.LC71)
	addi	a5,a5,%lo(.LC71)
	sw	a5,20(sp)
.LM1131:
	lui	a5,%hi(.LC72)
	lui	s10,%hi(CSWTCH.74)
	addi	a5,a5,%lo(.LC72)
	addi	t1,s2,6
.LVL335:
.LM1132:
	addi	s10,s10,%lo(CSWTCH.74)
	sw	a5,24(sp)
.LVL336:
.L195:
.LM1133:
.LBE294:
.LM1134:
	lw	a5,16(sp)
	add	a5,a5,t1
	bgeu	a5,s11,.L205
.LBB300:
.LM1135:
.LM1136:
	lbu	a5,0(t1)
.LM1137:
	lbu	a4,1(t1)
.LM1138:
	slli	a5,a5,8
	or	a5,a5,a4
	slli	a5,a5,16
	srai	a5,a5,16
.LVL337:
.LM1139:
.LBB295:
.LBI295:
.LM1140:
.LBB296:
.LM1141:
	li	a4,2
	bgt	a5,a4,.L196
	bgt	a5,zero,.L197
.LVL338:
.L198:
.LM1142:
.LBE296:
.LBE295:
.LBE300:
.LM1143:
.LM1144:
	addi	t1,t1,2
.LVL339:
.LM1145:
	j	.L195
.LVL340:
.L196:
.LBB301:
.LBB298:
.LBB297:
.LM1146:
	addi	a4,a5,-5
	slli	a4,a4,16
	srli	a4,a4,16
	li	a3,1
	bgtu	a4,a3,.L198
.L197:
.LBE297:
.LBE298:
.LM1147:
	slli	a7,a5,16
	srli	a7,a7,16
.LVL341:
.LM1148:
.LM1149:
.LBB299:
.LBI299:
.LM1150:
.LM1151:
	addi	a5,a7,-1
.LVL342:
.LM1152:
	slli	a5,a5,16
	srli	a5,a5,16
	slli	a5,a5,2
	add	a5,s10,a5
	lw	a5,0(a5)
.LVL343:
.LM1153:
.LBE299:
.LM1154:
	lw	a4,20(sp)
	lui	a2,%hi(.LC2)
	addi	a2,a2,%lo(.LC2)
	li	a1,3
	li	a3,607
	mv	a0,s0
	sw	t1,44(sp)
	sw	a7,40(sp)
	sw	a5,36(sp)
	call	mbedtls_debug_print_msg
.LVL344:
.LM1155:
.LM1156:
	lw	a2,0(s0)
.LM1157:
	lw	a5,36(sp)
	lw	a7,40(sp)
.LM1158:
	lw	a1,196(a2)
.LM1159:
	lw	t1,44(sp)
.LM1160:
	li	a4,0
.LVL345:
.L199:
.LM1161:
	beq	a4,a1,.L201
.LM1162:
.LM1163:
	lw	a3,192(a2)
	slli	a0,a4,1
	add	a3,a3,a0
	lhu	a3,0(a3)
.LM1164:
	bne	a7,a3,.L200
.LM1165:
	lw	a4,24(sp)
.LVL346:
.LM1166:
	sh	a7,256(s0)
.LM1167:
	li	a3,617
	addi	a2,s6,%lo(.LC2)
	li	a1,3
	mv	a0,s0
	sw	t1,36(sp)
.LM1168:
.LM1169:
.LM1170:
	call	mbedtls_debug_print_msg
.LVL347:
.LM1171:
	lw	t1,36(sp)
.L201:
.LM1172:
.LM1173:
	lhu	a5,256(s0)
	beq	a5,zero,.L198
.LVL348:
.L205:
.LM1174:
.LBE301:
.LM1175:
.LM1176:
	addi	a1,s11,6
	add	a1,s2,a1
.LVL349:
.LM1177:
.LM1178:
	lbu	a2,0(a1)
.LVL350:
.LM1179:
.LM1180:
.LM1181:
	addi	a6,s11,3
	add	a6,a6,a2
.LM1182:
	bne	s3,a6,.L299
.LM1183:
.LM1184:
	lw	a5,0(s0)
.LM1185:
	lbu	a5,17(a5)
	addi	a5,a5,-1
.LM1186:
	bne	a5,zero,.L153
	beq	a2,zero,.L153
.LM1187:
.LM1188:
	addi	a5,s0,260
.LM1189:
	mv	a0,a5
.LM1190:
	sh	a2,258(s0)
.LM1191:
	addi	a1,a1,1
.LVL351:
.LM1192:
	sw	a5,16(sp)
	call	memcpy
.LVL352:
.LM1193:
	lui	a4,%hi(.LC73)
	lhu	a6,258(s0)
	lw	a5,16(sp)
	addi	a4,a4,%lo(.LC73)
	li	a3,645
	j	.L305
.LVL353:
.L200:
.LBB302:
.LM1194:
	addi	a4,a4,1
.LVL354:
.LM1195:
	j	.L199
.LVL355:
.L209:
.LM1196:
.LBE302:
.LBE303:
.LBE309:
.LBE321:
.LM1197:
.LM1198:
	sw	a5,524(s0)
.LM1199:
.LVL356:
.L210:
.LM1200:
.LM1201:
	lw	a5,524(s0)
.LM1202:
	li	a1,1
	beq	a5,a1,.L212
.LM1203:
	lw	a4,0(s0)
.LM1204:
	lbu	a3,7(a4)
	li	a4,2
	bne	a3,a4,.L212
.LM1205:
	lui	a4,%hi(.LC77)
	addi	a4,a4,%lo(.LC77)
	li	a3,1530
	j	.L315
.LVL357:
.L208:
.LM1206:
.LM1207:
	addi	a5,a5,2
.LVL358:
.LM1208:
	sub	a4,a5,s4
	bgtu	s7,a4,.L211
	j	.L210
.LVL359:
.L212:
.LM1209:
.LM1210:
	lw	a1,8(s0)
	li	a4,1
	bne	a1,a4,.L214
.LM1211:
	bne	s9,zero,.L215
.LM1212:
	addi	a4,a5,-1
.LM1213:
	bne	a4,zero,.L215
.LM1214:
	lui	a4,%hi(.LC78)
	addi	a4,a4,%lo(.LC78)
	li	a3,1537
	j	.L315
.L215:
.LM1215:
	bne	a5,zero,.L214
.LM1216:
	lw	a5,0(s0)
.LM1217:
	lbu	a5,7(a5)
	bne	a5,zero,.L216
.LM1218:
	lui	a4,%hi(.LC79)
	addi	a4,a4,%lo(.LC79)
	li	a3,1542
.L317:
.LM1219:
	lui	a2,%hi(.LC2)
.LVL360:
.L314:
.LM1220:
	addi	a2,a2,%lo(.LC2)
	j	.L313
.LVL361:
.L216:
.LM1221:
	beq	s9,zero,.L214
.LM1222:
	lui	a4,%hi(.LC80)
	addi	a4,a4,%lo(.LC80)
	li	a3,1547
	j	.L317
.L214:
.LVL362:
.LM1223:
.LM1224:
	lw	a5,0(s0)
	lw	a5,236(a5)
.LM1225:
	beq	a5,zero,.L217
.LM1226:
	mv	a0,s0
	jalr	a5
.LVL363:
	mv	s10,a0
.LVL364:
.LM1227:
	beq	a0,zero,.L217
.LM1228:
	lui	a4,%hi(.LC81)
	mv	a5,a0
	addi	a4,a4,%lo(.LC81)
	li	a3,1562
	j	.L310
.LVL365:
.L217:
.LM1229:
.LM1230:
	lw	a5,64(s0)
.LM1231:
	sw	zero,984(a5)
.LM1232:
.LM1233:
	lw	a5,64(s0)
.LM1234:
	sw	zero,988(a5)
.LM1235:
.LVL366:
.LM1236:
.LM1237:
	lw	a5,0(s0)
.LM1238:
	lw	s2,20(a5)
.LVL367:
.LM1239:
.LM1240:
	sw	zero,56(sp)
.LM1241:
.LM1242:
	lbu	a4,15(a5)
	li	a5,1
	beq	a4,a5,.L238
.LM1243:
	li	a4,0
.LVL368:
.L219:
.LM1244:
	lw	a5,0(s2)
.LM1245:
	mv	s6,s2
.LM1246:
	beq	a5,zero,.L224
.LM1247:
	li	s5,0
.L228:
.LVL369:
.LM1248:
.LBB322:
.LBI322:
.LM1249:
.LBB323:
.LM1250:
.LM1251:
.LM1252:
.LM1253:
.LM1254:
	add	a5,s4,s5
.LVL370:
.LM1255:
	lbu	a1,0(a5)
	lbu	a5,1(a5)
.LVL371:
.LM1256:
.LBE323:
.LBE322:
.LM1257:
	slli	a1,a1,8
.LBB325:
.LBB324:
.LM1258:
	slli	a5,a5,8
.LBE324:
.LBE325:
.LM1259:
	srli	a5,a5,8
	or	a1,a1,a5
.LM1260:
	lw	a5,0(s2)
.LM1261:
	bne	a1,a5,.L226
.LM1262:
.LVL372:
.LM1263:
.LM1264:
	addi	a2,sp,56
	mv	a0,s0
	call	ssl_ciphersuite_match
.LVL373:
.LM1265:
	bne	a0,zero,.L227
.LM1266:
.LM1267:
	lw	s3,56(sp)
.LM1268:
	bne	s3,zero,.L222
.LM1269:
	li	a4,1
.LVL374:
.L226:
.LM1270:
.LM1271:
	addi	s5,s5,2
.LVL375:
.LM1272:
	bgtu	s7,s5,.L228
.LM1273:
	addi	s2,s2,4
	j	.L219
.LVL376:
.L223:
.LM1274:
.LBB326:
.LBI326:
.LM1275:
.LBB327:
.LM1276:
.LM1277:
.LM1278:
.LM1279:
.LM1280:
	lbu	a5,1(s9)
	lbu	a1,0(s9)
	slli	a5,a5,8
.LBE327:
.LBE326:
.LM1281:
	srli	a5,a5,8
	slli	a1,a1,8
	or	a1,a1,a5
.LM1282:
	bne	a1,a3,.L220
.LM1283:
.LVL377:
.LM1284:
.LM1285:
	addi	a2,sp,56
	mv	a0,s0
	call	ssl_ciphersuite_match
.LVL378:
.LM1286:
	beq	a0,zero,.L221
.LVL379:
.L227:
.LM1287:
	li	s10,-28672
	addi	s10,s10,1024
	j	.L86
.LVL380:
.L221:
.LM1288:
.LM1289:
	lw	s3,56(sp)
.LM1290:
	bne	s3,zero,.L222
.LM1291:
	li	a4,1
.LVL381:
.L220:
.LM1292:
	addi	s8,s8,4
.LVL382:
.L225:
.LM1293:
.LM1294:
	lw	a3,0(s8)
	mv	s6,s8
.LM1295:
	bne	a3,zero,.L223
.LM1296:
.LM1297:
	addi	s5,s5,2
.LVL383:
.LM1298:
	bgtu	s7,s5,.L218
.LVL384:
.L224:
.LM1299:
	lui	a2,%hi(.LC2)
.LM1300:
	beq	a4,zero,.L229
.LM1301:
	lui	a4,%hi(.LC82)
.LVL385:
.LM1302:
	addi	a4,a4,%lo(.LC82)
	li	a3,1621
	j	.L314
.LVL386:
.L238:
.LM1303:
	li	a4,0
.LVL387:
.L218:
.LM1304:
	add	s9,s4,s5
.LVL388:
.LM1305:
	mv	s8,s2
	j	.L225
.LVL389:
.L229:
.LM1306:
	lui	a4,%hi(.LC83)
	addi	a4,a4,%lo(.LC83)
	li	a3,1627
	j	.L314
.LVL390:
.L222:
.LM1307:
	lw	a5,4(s3)
	lui	a4,%hi(.LC84)
	addi	a4,a4,%lo(.LC84)
	li	a3,1634
	addi	a2,s1,%lo(.LC2)
	li	a1,2
	mv	a0,s0
.LVL391:
.LM1308:
	call	mbedtls_debug_print_msg
.LVL392:
.LM1309:
.LM1310:
	lw	a5,60(s0)
.LM1311:
	lw	a4,0(s6)
.LM1312:
	mv	a0,s0
.LM1313:
	sw	a4,8(a5)
.LM1314:
.LM1315:
	lw	a5,64(s0)
.LM1316:
	sw	s3,24(a5)
.LM1317:
	call	mbedtls_ssl_handshake_increment_state
.LVL393:
.LM1318:
.LM1319:
	lw	a5,0(s0)
.LM1320:
	lbu	a4,5(a5)
	li	a5,1
	bne	a4,a5,.L230
.LM1321:
	mv	a0,s0
	call	mbedtls_ssl_recv_flight_completed
.LVL394:
.L230:
.LM1322:
.LM1323:
	mv	a0,s3
	call	mbedtls_ssl_get_ciphersuite_sig_alg
.LVL395:
.LM1324:
	lui	s1,%hi(.LC2)
.LM1325:
	beq	a0,zero,.L231
.LBB328:
.LM1326:
.LM1327:
	call	mbedtls_ssl_sig_from_pk_alg
.LVL396:
.LM1328:
	mv	a1,a0
.LM1329:
	mv	a0,s0
	call	mbedtls_ssl_tls12_get_preferred_hash_for_sig_alg
.LVL397:
.LM1330:
	lui	a4,%hi(.LC85)
.LM1331:
	mv	a5,a0
.LVL398:
.LM1332:
	addi	a4,a4,%lo(.LC85)
	li	a3,1654
.LVL399:
.L309:
.LM1333:
.LBE328:
.LM1334:
	addi	a2,s1,%lo(.LC2)
	li	a1,3
	mv	a0,s0
	call	mbedtls_debug_print_msg
.LVL400:
.LM1335:
	lui	a4,%hi(.LC87)
	addi	a4,a4,%lo(.LC87)
	li	a3,1662
	addi	a2,s1,%lo(.LC2)
	li	a1,2
	mv	a0,s0
	call	mbedtls_debug_print_msg
.LVL401:
.LM1336:
.LM1337:
	li	s10,0
	j	.L86
.LVL402:
.L231:
.LM1338:
	lui	a4,%hi(.LC86)
	li	a5,0
	addi	a4,a4,%lo(.LC86)
	li	a3,1657
	j	.L309
	.cfi_endproc
.LFE181:
	.size	ssl_parse_client_hello, .-ssl_parse_client_hello
	.section	.text.mbedtls_ssl_set_client_transport_id,"ax",@progbits
	.align	1
	.globl	mbedtls_ssl_set_client_transport_id
	.type	mbedtls_ssl_set_client_transport_id, @function
mbedtls_ssl_set_client_transport_id:
.LVL403:
.LFB166:
.LM1339:
	.cfi_startproc
.LM1340:
.LM1341:
	addi	sp,sp,-32
	.cfi_def_cfa_offset 32
	sw	ra,28(sp)
	sw	s0,24(sp)
	sw	s1,20(sp)
	sw	s2,16(sp)
	sw	s3,12(sp)
	.cfi_offset 1, -4
	.cfi_offset 8, -8
	.cfi_offset 9, -12
	.cfi_offset 18, -16
	.cfi_offset 19, -20
.LM1342:
	lw	a5,0(a0)
.LM1343:
	lbu	s2,4(a5)
	li	a5,1
	bne	s2,a5,.L320
	mv	s0,a0
.LM1344:
	lw	a0,516(a0)
.LVL404:
.LM1345:
	mv	s1,a2
	mv	s3,a1
	call	free
.LVL405:
.LM1346:
.LM1347:
	mv	a1,s1
	mv	a0,s2
	call	calloc
.LVL406:
.LM1348:
	li	a5,-32768
.LM1349:
	sw	a0,516(s0)
.LM1350:
	addi	a5,a5,256
.LM1351:
	beq	a0,zero,.L318
.LM1352:
	mv	a2,s1
	mv	a1,s3
	call	memcpy
.LVL407:
.LM1353:
.LM1354:
	li	a5,0
.LM1355:
	sw	s1,520(s0)
.LM1356:
.LVL408:
.L318:
.LM1357:
	lw	ra,28(sp)
	.cfi_remember_state
	.cfi_restore 1
	lw	s0,24(sp)
	.cfi_restore 8
	lw	s1,20(sp)
	.cfi_restore 9
	lw	s2,16(sp)
	.cfi_restore 18
	lw	s3,12(sp)
	.cfi_restore 19
	mv	a0,a5
	addi	sp,sp,32
	.cfi_def_cfa_offset 0
	jr	ra
.LVL409:
.L320:
	.cfi_restore_state
.LM1358:
	li	a5,-28672
	addi	a5,a5,-256
	j	.L318
	.cfi_endproc
.LFE166:
	.size	mbedtls_ssl_set_client_transport_id, .-mbedtls_ssl_set_client_transport_id
	.section	.text.mbedtls_ssl_conf_dtls_cookies,"ax",@progbits
	.align	1
	.globl	mbedtls_ssl_conf_dtls_cookies
	.type	mbedtls_ssl_conf_dtls_cookies, @function
mbedtls_ssl_conf_dtls_cookies:
.LVL410:
.LFB167:
.LM1359:
	.cfi_startproc
.LM1360:
.LM1361:
	sw	a1,76(a0)
.LM1362:
.LM1363:
	sw	a2,80(a0)
.LM1364:
.LM1365:
	sw	a3,84(a0)
.LM1366:
	ret
	.cfi_endproc
.LFE167:
	.size	mbedtls_ssl_conf_dtls_cookies, .-mbedtls_ssl_conf_dtls_cookies
	.section	.rodata.mbedtls_ssl_handshake_server_step.str1.4,"aMS",@progbits,1
	.align	2
.LC88:
	.string	"a"
	.align	2
.LC89:
	.string	"no"
	.align	2
.LC90:
	.string	"server state: %d"
	.align	2
.LC91:
	.string	"=> write server hello"
	.align	2
.LC92:
	.string	"client hello was not authenticated"
	.align	2
.LC93:
	.string	"<= write server hello"
	.align	2
.LC94:
	.string	"=> write hello verify request"
	.align	2
.LC95:
	.string	"server version"
	.align	2
.LC96:
	.string	"inconsistent cookie callbacks"
	.align	2
.LC97:
	.string	"f_cookie_write"
	.align	2
.LC98:
	.string	"cookie sent"
	.align	2
.LC99:
	.string	"mbedtls_ssl_write_handshake_msg"
	.align	2
.LC100:
	.string	"mbedtls_ssl_flight_transmit"
	.align	2
.LC101:
	.string	"<= write hello verify request"
	.align	2
.LC102:
	.string	"server hello, chosen version: [%d:%d]"
	.align	2
.LC103:
	.string	"server hello, random bytes"
	.align	2
.LC104:
	.string	"session successfully restored from cache"
	.align	2
.LC105:
	.string	"mbedtls_ssl_derive_keys"
	.align	2
.LC106:
	.string	"server hello, session id len.: %zu"
	.align	2
.LC107:
	.string	"server hello, session id"
	.align	2
.LC108:
	.string	"%s session has been resumed"
	.align	2
.LC109:
	.string	"server hello, chosen ciphersuite: %s"
	.align	2
.LC110:
	.string	"server hello, compress alg.: 0x%02X"
	.align	2
.LC111:
	.string	"server hello, secure renegotiation extension"
	.align	2
.LC112:
	.string	"server hello, max_fragment_length extension"
	.align	2
.LC113:
	.string	"buffer too small"
	.align	2
.LC114:
	.string	"server hello, adding CID extension"
	.align	2
.LC115:
	.string	"server hello, adding encrypt then mac extension"
	.align	2
.LC116:
	.string	"server hello, adding extended master secret extension"
	.align	2
.LC117:
	.string	"server hello, adding session ticket extension"
	.align	2
.LC118:
	.string	"server hello, supported_point_formats extension"
	.align	2
.LC119:
	.string	"server hello, adding use_srtp extension"
	.align	2
.LC120:
	.string	"use_srtp extension invalid profile"
	.align	2
.LC121:
	.string	"server hello, total extension length: %zu"
	.align	2
.LC122:
	.string	"=> write server key exchange"
	.align	2
.LC123:
	.string	"got no server private key"
	.align	2
.LC124:
	.string	"server key not ECDH capable"
	.align	2
.LC125:
	.string	"mbedtls_ecdh_get_params"
	.align	2
.LC126:
	.string	"ssl_get_ecdh_params_from_cert"
	.align	2
.LC127:
	.string	"<= skip write server key exchange"
	.align	2
.LC128:
	.string	"resuming signature operation"
	.align	2
.LC129:
	.string	"no matching curve for ECDHE"
	.align	2
.LC130:
	.string	"ECDHE curve: %s"
	.align	2
.LC131:
	.string	"mbedtls_ecp_group_load"
	.align	2
.LC132:
	.string	"mbedtls_ecdh_make_params"
	.align	2
.LC133:
	.string	"pick hash algorithm %u for signing"
	.align	2
.LC134:
	.string	"parameters hash"
	.align	2
.LC135:
	.string	"f_async_sign_start"
	.align	2
.LC136:
	.string	"got no private key"
	.align	2
.LC137:
	.string	"mbedtls_pk_sign"
	.align	2
.LC138:
	.string	"<= write server key exchange (pending)"
	.align	2
.LC139:
	.string	"my signature"
	.align	2
.LC140:
	.string	"<= write server key exchange"
	.align	2
.LC141:
	.string	"=> write certificate request"
	.align	2
.LC142:
	.string	"<= skip write certificate request"
	.align	2
.LC143:
	.string	"skipping CAs: buffer too short"
	.align	2
.LC144:
	.string	"requested DN"
	.align	2
.LC145:
	.string	"<= write certificate request"
	.align	2
.LC146:
	.string	"=> write server hello done"
	.align	2
.LC147:
	.string	"<= write server hello done"
	.align	2
.LC148:
	.string	"=> parse client key exchange"
	.align	2
.LC149:
	.string	"mbedtls_ssl_read_record"
	.align	2
.LC150:
	.string	"mbedtls_ecdh_read_public"
	.align	2
.LC151:
	.string	"mbedtls_ecdh_calc_secret"
	.align	2
.LC152:
	.string	"ssl_parse_client_psk_identity"
	.align	2
.LC153:
	.string	"bad client key exchange"
	.align	2
.LC154:
	.string	"mbedtls_ssl_psk_derive_premaster"
	.align	2
.LC155:
	.string	"<= parse client key exchange"
	.align	2
.LC156:
	.string	"=> parse certificate verify"
	.align	2
.LC157:
	.string	"<= skip parse certificate verify"
	.align	2
.LC158:
	.string	"bad certificate verify message"
	.align	2
.LC159:
	.string	"peer not adhering to requested sig_alg for verify message"
	.align	2
.LC160:
	.string	"sig_alg doesn't match cert key"
	.align	2
.LC161:
	.string	"calc_verify"
	.align	2
.LC162:
	.string	"mbedtls_pk_verify"
	.align	2
.LC163:
	.string	"mbedtls_ssl_update_handshake_status"
	.align	2
.LC164:
	.string	"<= parse certificate verify"
	.align	2
.LC165:
	.string	"=> write new session ticket"
	.align	2
.LC166:
	.string	"mbedtls_ssl_ticket_write"
	.align	2
.LC167:
	.string	"<= write new session ticket"
	.align	2
.LC168:
	.string	"handshake: done"
	.align	2
.LC169:
	.string	"invalid state %d"
	.section	.text.mbedtls_ssl_handshake_server_step,"ax",@progbits
	.align	1
	.globl	mbedtls_ssl_handshake_server_step
	.type	mbedtls_ssl_handshake_server_step, @function
mbedtls_ssl_handshake_server_step:
.LVL411:
.LFB203:
.LM1367:
	.cfi_startproc
.LM1368:
.LM1369:
.LM1370:
	addi	sp,sp,-208
	.cfi_def_cfa_offset 208
	sw	s0,200(sp)
	sw	s2,192(sp)
	sw	ra,204(sp)
	sw	s1,196(sp)
	sw	s3,188(sp)
	sw	s4,184(sp)
	sw	s5,180(sp)
	sw	s6,176(sp)
	sw	s7,172(sp)
	sw	s8,168(sp)
	sw	s9,164(sp)
	sw	s10,160(sp)
	.cfi_offset 8, -8
	.cfi_offset 18, -16
	.cfi_offset 1, -4
	.cfi_offset 9, -12
	.cfi_offset 19, -20
	.cfi_offset 20, -24
	.cfi_offset 21, -28
	.cfi_offset 22, -32
	.cfi_offset 23, -36
	.cfi_offset 24, -40
	.cfi_offset 25, -44
	.cfi_offset 26, -48
.LM1371:
	lw	a5,4(a0)
	lui	a4,%hi(.LC90)
	li	a3,4096
	lui	s2,%hi(.LC2)
	addi	a4,a4,%lo(.LC90)
	addi	a3,a3,208
	addi	a2,s2,%lo(.LC2)
	li	a1,2
.LM1372:
	mv	s0,a0
.LM1373:
	call	mbedtls_debug_print_msg
.LVL412:
.LM1374:
.LM1375:
	lw	a5,4(s0)
.LM1376:
	li	a4,17
	bgtu	a5,a4,.L325
	lui	a3,%hi(.L327)
	slli	a4,a5,2
	addi	a3,a3,%lo(.L327)
	add	a4,a4,a3
	lw	a4,0(a4)
	jr	a4
	.section	.rodata.mbedtls_ssl_handshake_server_step,"a",@progbits
	.align	2
	.align	2
.L327:
	.word	.L343
	.word	.L342
	.word	.L341
	.word	.L340
	.word	.L339
	.word	.L338
	.word	.L337
	.word	.L336
	.word	.L335
	.word	.L334
	.word	.L333
	.word	.L332
	.word	.L331
	.word	.L330
	.word	.L329
	.word	.L328
	.word	.L325
	.word	.L492
	.section	.text.mbedtls_ssl_handshake_server_step
.L343:
.LM1377:
	li	a1,1
.L593:
.LM1378:
	mv	a0,s0
	call	mbedtls_ssl_handshake_set_state
.LVL413:
.LM1379:
	j	.L344
.L342:
.LM1380:
.LM1381:
	mv	a0,s0
.LM1382:
	lw	s0,200(sp)
	.cfi_remember_state
	.cfi_restore 8
.LVL414:
.LM1383:
	lw	ra,204(sp)
	.cfi_restore 1
	lw	s1,196(sp)
	.cfi_restore 9
	lw	s2,192(sp)
	.cfi_restore 18
	lw	s3,188(sp)
	.cfi_restore 19
	lw	s4,184(sp)
	.cfi_restore 20
	lw	s5,180(sp)
	.cfi_restore 21
	lw	s6,176(sp)
	.cfi_restore 22
	lw	s7,172(sp)
	.cfi_restore 23
	lw	s8,168(sp)
	.cfi_restore 24
	lw	s9,164(sp)
	.cfi_restore 25
	lw	s10,160(sp)
	.cfi_restore 26
	addi	sp,sp,208
	.cfi_def_cfa_offset 0
.LM1384:
	tail	ssl_parse_client_hello
.LVL415:
.L341:
	.cfi_restore_state
.LM1385:
.LBB442:
.LBI442:
.LM1386:
.LBB443:
.LM1387:
.LM1388:
.LM1389:
.LM1390:
	lui	a4,%hi(.LC91)
	li	a3,4096
	addi	a4,a4,%lo(.LC91)
	addi	a3,a3,-1947
	addi	a2,s2,%lo(.LC2)
	li	a1,2
	mv	a0,s0
	call	mbedtls_debug_print_msg
.LVL416:
.LM1391:
.LM1392:
	lw	a5,0(s0)
	lbu	s3,5(a5)
.LM1393:
	li	a5,1
	bne	s3,a5,.L345
.LM1394:
	lw	a5,64(s0)
.LM1395:
	lbu	a5,629(a5)
	beq	a5,zero,.L345
.LM1396:
	lui	a4,%hi(.LC92)
	li	a3,4096
	addi	a4,a4,%lo(.LC92)
	addi	a3,a3,-1942
	addi	a2,s2,%lo(.LC2)
	li	a1,2
	mv	a0,s0
	call	mbedtls_debug_print_msg
.LVL417:
.LM1397:
	lui	a4,%hi(.LC93)
	li	a3,4096
	addi	a4,a4,%lo(.LC93)
	addi	a3,a3,-1941
	addi	a2,s2,%lo(.LC2)
	li	a1,2
	mv	a0,s0
	call	mbedtls_debug_print_msg
.LVL418:
.LM1398:
.LBB444:
.LBI444:
.LM1399:
.LBB445:
.LM1400:
.LM1401:
.LM1402:
	lw	a5,216(s0)
.LM1403:
	lui	a4,%hi(.LC94)
	addi	a4,a4,%lo(.LC94)
.LM1404:
	addi	a5,a5,4
.LM1405:
	li	a3,2028
	addi	a2,s2,%lo(.LC2)
	li	a1,2
	mv	a0,s0
.LM1406:
	sw	a5,40(sp)
.LM1407:
.LM1408:
	call	mbedtls_debug_print_msg
.LVL419:
.LM1409:
.LM1410:
	lw	a5,0(s0)
.LM1411:
	lhu	a2,16(s0)
	lw	a0,40(sp)
	lbu	a1,5(a5)
	call	mbedtls_ssl_write_version
.LVL420:
.LM1412:
	lw	a5,40(sp)
	lui	a4,%hi(.LC95)
	li	a6,2
	mv	a0,s0
	addi	a4,a4,%lo(.LC95)
	li	a3,2040
	addi	a2,s2,%lo(.LC2)
	li	a1,3
	call	mbedtls_debug_print_buf
.LVL421:
.LM1413:
.LM1414:
	lw	s4,40(sp)
.LM1415:
	lw	a0,0(s0)
.LM1416:
	addi	a5,s4,2
	sw	a5,40(sp)
.LM1417:
.LM1418:
	lw	a6,76(a0)
.LM1419:
	bne	a6,zero,.L346
.LM1420:
	lui	a4,%hi(.LC96)
	addi	a4,a4,%lo(.LC96)
	li	a3,2045
.LVL422:
.L594:
.LM1421:
.LBE445:
.LBE444:
.LBE443:
.LBE442:
.LBB556:
.LBB557:
.LM1422:
	addi	a2,s2,%lo(.LC2)
	li	a1,1
	mv	a0,s0
.LM1423:
	li	s1,-28672
.LM1424:
	call	mbedtls_debug_print_msg
.LVL423:
.LM1425:
.LM1426:
	addi	s1,s1,1024
	j	.L324
.LVL424:
.L346:
.LM1427:
.LBE557:
.LBE556:
.LBB565:
.LBB552:
.LBB448:
.LBB446:
.LM1428:
.LM1429:
	addi	a5,s4,3
.LM1430:
	lw	a1,192(s0)
.LM1431:
	sw	a5,40(sp)
.LM1432:
	lw	a4,520(s0)
	lw	a3,516(s0)
	lw	a0,84(a0)
	li	a2,16384
	addi	a2,a2,381
	add	a2,a1,a2
	addi	a1,sp,40
.LM1433:
	sw	a5,28(sp)
.LVL425:
.LM1434:
.LM1435:
	jalr	a6
.LVL426:
.LM1436:
	lw	a5,28(sp)
.LM1437:
	mv	s1,a0
.LVL427:
.LM1438:
	beq	a0,zero,.L348
.LM1439:
	lui	a4,%hi(.LC97)
	li	a3,4096
	mv	a5,a0
	addi	a4,a4,%lo(.LC97)
	addi	a3,a3,-2041
.L595:
.LM1440:
	addi	a2,s2,%lo(.LC2)
	mv	a1,s3
.LVL428:
.L596:
.LM1441:
	mv	a0,s0
	call	mbedtls_debug_print_ret
.LVL429:
.LM1442:
.L324:
.LM1443:
.LBE446:
.LBE448:
.LBE552:
.LBE565:
.LM1444:
	lw	ra,204(sp)
	.cfi_remember_state
	.cfi_restore 1
	lw	s0,200(sp)
	.cfi_restore 8
.LVL430:
.LM1445:
	lw	s2,192(sp)
	.cfi_restore 18
	lw	s3,188(sp)
	.cfi_restore 19
	lw	s4,184(sp)
	.cfi_restore 20
	lw	s5,180(sp)
	.cfi_restore 21
	lw	s6,176(sp)
	.cfi_restore 22
	lw	s7,172(sp)
	.cfi_restore 23
	lw	s8,168(sp)
	.cfi_restore 24
	lw	s9,164(sp)
	.cfi_restore 25
	lw	s10,160(sp)
	.cfi_restore 26
	mv	a0,s1
	lw	s1,196(sp)
	.cfi_restore 9
	addi	sp,sp,208
	.cfi_def_cfa_offset 0
	jr	ra
.LVL431:
.L348:
	.cfi_restore_state
.LBB566:
.LBB553:
.LBB449:
.LBB447:
.LM1446:
.LM1447:
	lw	a6,40(sp)
.LM1448:
	lui	a4,%hi(.LC98)
	li	a3,4096
.LM1449:
	sub	a6,a6,a5
.LM1450:
	addi	a3,a3,-2035
	addi	a2,s2,%lo(.LC2)
.LM1451:
	sb	a6,2(s4)
.LM1452:
	addi	a4,a4,%lo(.LC98)
	andi	a6,a6,0xff
	li	a1,3
	mv	a0,s0
	call	mbedtls_debug_print_buf
.LVL432:
.LM1453:
.LM1454:
	lw	a4,216(s0)
.LM1455:
	lw	a5,40(sp)
.LM1456:
	li	a1,17
	mv	a0,s0
.LM1457:
	sub	a5,a5,a4
.LM1458:
	sw	a5,224(s0)
.LM1459:
.LM1460:
	li	a5,22
	sw	a5,220(s0)
.LM1461:
.LM1462:
	li	a5,3
	sb	a5,0(a4)
.LM1463:
	call	mbedtls_ssl_handshake_set_state
.LVL433:
.LM1464:
.LM1465:
	mv	a0,s0
	call	mbedtls_ssl_write_handshake_msg
.LVL434:
	mv	s1,a0
.LVL435:
.LM1466:
	beq	a0,zero,.L349
.LM1467:
	lui	a4,%hi(.LC99)
	li	a3,4096
	mv	a5,a0
	addi	a4,a4,%lo(.LC99)
	addi	a3,a3,-2026
	j	.L595
.L349:
.LM1468:
.LM1469:
	lw	a5,0(s0)
.LM1470:
	lbu	a1,5(a5)
	bne	a1,s3,.L350
.LM1471:
	mv	a0,s0
	sw	a1,28(sp)
	call	mbedtls_ssl_flight_transmit
.LVL436:
.LM1472:
	lw	a1,28(sp)
	beq	a0,zero,.L350
.LM1473:
	lui	a4,%hi(.LC100)
	li	a3,4096
	mv	a5,a0
	addi	a4,a4,%lo(.LC100)
	addi	a3,a3,-2019
	addi	a2,s2,%lo(.LC2)
.LM1474:
	mv	s1,a0
	j	.L596
.L350:
.LM1475:
	lui	a4,%hi(.LC101)
	li	a3,4096
	addi	a4,a4,%lo(.LC101)
	addi	a3,a3,-2014
.LVL437:
.L597:
.LM1476:
.LBE447:
.LBE449:
.LBE553:
.LBE566:
.LBB567:
.LBB568:
.LM1477:
	addi	a2,s2,%lo(.LC2)
	li	a1,2
	mv	a0,s0
	call	mbedtls_debug_print_msg
.LVL438:
.LM1478:
.LM1479:
	j	.L324
.LVL439:
.L345:
.LM1480:
.LBE568:
.LBE567:
.LBB577:
.LBB554:
.LM1481:
.LM1482:
	lw	s6,216(s0)
.LVL440:
.LM1483:
.LM1484:
	lhu	a2,16(s0)
	mv	a1,s3
	addi	a0,s6,4
.LVL441:
.LM1485:
	call	mbedtls_ssl_write_version
.LVL442:
.LM1486:
.LM1487:
	lbu	a6,5(s6)
	lbu	a5,4(s6)
	lui	a4,%hi(.LC102)
	li	a3,4096
	addi	a4,a4,%lo(.LC102)
	addi	a3,a3,-1922
	addi	a2,s2,%lo(.LC2)
	li	a1,3
	mv	a0,s0
	call	mbedtls_debug_print_msg
.LVL443:
.LM1488:
.LM1489:
	lw	a5,0(s0)
.LM1490:
	li	a2,4
	addi	a1,s6,6
.LVL444:
.LM1491:
	lw	a4,32(a5)
	lw	a0,36(a5)
	jalr	a4
.LVL445:
.LM1492:
	mv	s1,a0
.LVL446:
.LM1493:
	bne	a0,zero,.L324
.LM1494:
.LVL447:
.LM1495:
.LM1496:
	lw	a5,0(s0)
.LM1497:
	li	a2,20
	addi	a1,s6,10
.LVL448:
.LM1498:
	lw	a4,32(a5)
	lw	a0,36(a5)
	jalr	a4
.LVL449:
.LM1499:
	mv	s1,a0
.LVL450:
.LM1500:
	bne	a0,zero,.L324
.LM1501:
.LVL451:
.LM1502:
.LM1503:
	lw	a5,0(s0)
.LM1504:
	li	a2,8
	addi	a1,s6,30
.LVL452:
.LM1505:
	lw	a4,32(a5)
	lw	a0,36(a5)
	jalr	a4
.LVL453:
.LM1506:
	mv	s1,a0
.LVL454:
.LM1507:
	bne	a0,zero,.L324
.LM1508:
.LVL455:
.LM1509:
	lw	a0,64(s0)
	li	a2,32
	addi	a1,s6,6
	addi	a0,a0,840
	call	memcpy
.LVL456:
.LM1510:
	lui	a4,%hi(.LC103)
	li	a3,4096
	addi	a5,s6,6
	li	a6,32
	addi	a4,a4,%lo(.LC103)
	addi	a3,a3,-1870
	addi	a2,s2,%lo(.LC2)
	li	a1,3
	mv	a0,s0
	call	mbedtls_debug_print_buf
.LVL457:
.LM1511:
.LBB450:
.LBI450:
.LM1512:
.LBB451:
.LM1513:
.LM1514:
.LM1515:
.LM1516:
.LM1517:
	lw	a5,64(s0)
.LM1518:
	li	s3,1
	lbu	a5,0(a5)
	beq	a5,s3,.L352
.LM1519:
	lw	s1,60(s0)
.LVL458:
.LM1520:
.LM1521:
	lw	a5,12(s1)
	beq	a5,zero,.L352
.LM1522:
.LM1523:
	lw	a5,0(s0)
.LM1524:
	lw	a5,40(a5)
	beq	a5,zero,.L352
.LM1525:
.LM1526:
	lw	a5,8(s0)
	bne	a5,zero,.L352
.LM1527:
	addi	a0,sp,40
	call	mbedtls_ssl_session_init
.LVL459:
.LM1528:
.LM1529:
	lw	a5,0(s0)
.LM1530:
	lw	a2,12(s1)
	addi	a3,sp,40
	lw	a4,40(a5)
	lw	a0,48(a5)
	addi	a1,s1,16
	jalr	a4
.LVL460:
.LM1531:
.LM1532:
	bne	a0,zero,.L353
.LM1533:
.LM1534:
	lw	a4,8(s1)
	lw	a5,48(sp)
	bne	a4,a5,.L353
.LM1535:
	mv	a0,s1
.LVL461:
.LM1536:
	call	mbedtls_ssl_session_free
.LVL462:
.LM1537:
.LM1538:
	li	a2,120
	addi	a1,sp,40
	mv	a0,s1
	call	memcpy
.LVL463:
.LM1539:
	li	a2,120
	li	a1,0
	addi	a0,sp,40
	call	memset
.LVL464:
.LM1540:
	lui	a4,%hi(.LC104)
	li	a3,4096
	addi	a4,a4,%lo(.LC104)
	addi	a3,a3,-1965
	addi	a2,s2,%lo(.LC2)
	li	a1,3
	mv	a0,s0
	call	mbedtls_debug_print_msg
.LVL465:
.LM1541:
.LM1542:
	lw	a5,64(s0)
.LM1543:
	sb	s3,0(a5)
.L353:
.LM1544:
	addi	a0,sp,40
	call	mbedtls_ssl_session_free
.LVL466:
.L352:
.LM1545:
.LBE451:
.LBE450:
.LM1546:
.LM1547:
	lw	a5,64(s0)
.LM1548:
	lbu	a5,0(a5)
	bne	a5,zero,.L354
.LM1549:
	mv	a0,s0
	call	mbedtls_ssl_handshake_increment_state
.LVL467:
.LM1550:
.LM1551:
	lw	a4,64(s0)
.LM1552:
	lw	a5,60(s0)
.LM1553:
	lbu	a4,4(a4)
	beq	a4,zero,.L355
.LM1554:
.LVL468:
.LM1555:
	sw	zero,12(a5)
.LM1556:
.LM1557:
	lw	a0,60(s0)
.LM1558:
	li	a2,32
	li	a1,0
	addi	a0,a0,16
	call	memset
.LVL469:
.LM1559:
	li	s3,0
.LVL470:
.L356:
.LM1560:
.LM1561:
	lw	a5,60(s0)
.LM1562:
	addi	s1,s6,39
.LVL471:
.LM1563:
	mv	a0,s1
.LM1564:
	lw	a5,12(a5)
	sb	a5,38(s6)
.LM1565:
.LM1566:
	lw	a1,60(s0)
.LM1567:
	lw	a2,12(a1)
	addi	a1,a1,16
	call	memcpy
.LVL472:
.LM1568:
.LM1569:
	lw	a5,60(s0)
.LM1570:
	lui	a4,%hi(.LC106)
	li	a3,4096
.LM1571:
	lw	s4,12(a5)
.LM1572:
	addi	a4,a4,%lo(.LC106)
	mv	a5,s3
	addi	a3,a3,-1817
	addi	a2,s2,%lo(.LC2)
	li	a1,3
	mv	a0,s0
	call	mbedtls_debug_print_msg
.LVL473:
.LM1573:
	lui	a4,%hi(.LC107)
	li	a3,4096
	mv	a5,s1
	mv	a6,s3
	addi	a4,a4,%lo(.LC107)
	addi	a3,a3,-1816
	addi	a2,s2,%lo(.LC2)
	li	a1,3
	mv	a0,s0
	call	mbedtls_debug_print_buf
.LVL474:
.LM1574:
	lw	a5,64(s0)
.LM1575:
	add	s4,s1,s4
.LVL475:
.LM1576:
.LM1577:
.LM1578:
	lbu	a5,0(a5)
	beq	a5,zero,.L493
.LM1579:
	lui	a5,%hi(.LC88)
	addi	a5,a5,%lo(.LC88)
.L357:
.LM1580:
	lui	a4,%hi(.LC108)
	li	a3,4096
	addi	a2,s2,%lo(.LC2)
	li	a1,3
	addi	a4,a4,%lo(.LC108)
	addi	a3,a3,-1815
	mv	a0,s0
	call	mbedtls_debug_print_msg
.LVL476:
.LM1581:
.LM1582:
.LM1583:
	lw	a5,60(s0)
.LM1584:
	addi	s5,s4,3
.LBB452:
.LBB453:
	li	s1,0
.LBE453:
.LBE452:
.LM1585:
	lw	a5,8(a5)
.LM1586:
	sb	zero,2(s4)
.LM1587:
	slli	a3,a5,16
	slli	a4,a5,8
	srli	a5,a3,24
.LVL477:
.LBB462:
.LBI462:
.LM1588:
.LBB463:
.LM1589:
.LM1590:
.LM1591:
	sb	a5,0(s4)
	srli	a5,a4,8
.LVL478:
.LM1592:
	sb	a5,1(s4)
.LVL479:
.LM1593:
.LBE463:
.LBE462:
.LM1594:
.LM1595:
.LM1596:
.LM1597:
.LM1598:
	lw	a5,60(s0)
.LM1599:
	lw	a0,8(a5)
	call	mbedtls_ssl_get_ciphersuite_name
.LVL480:
.LM1600:
	lui	a4,%hi(.LC109)
	li	a3,4096
.LM1601:
	mv	a5,a0
.LM1602:
	addi	a4,a4,%lo(.LC109)
	addi	a3,a3,-1808
	addi	a2,s2,%lo(.LC2)
	li	a1,3
	mv	a0,s0
	call	mbedtls_debug_print_msg
.LVL481:
.LM1603:
	lui	a4,%hi(.LC110)
	li	a3,4096
	li	a5,0
	addi	a4,a4,%lo(.LC110)
	addi	a3,a3,-1806
	addi	a2,s2,%lo(.LC2)
	li	a1,3
	mv	a0,s0
	call	mbedtls_debug_print_msg
.LVL482:
.LM1604:
.LBB464:
.LBI452:
.LM1605:
.LBB458:
.LM1606:
.LM1607:
.LM1608:
	lw	s3,524(s0)
.LVL483:
.LM1609:
	li	a5,1
	bne	s3,a5,.L358
.LM1610:
	lui	a4,%hi(.LC111)
	addi	a4,a4,%lo(.LC111)
	li	a3,1817
	addi	a2,s2,%lo(.LC2)
	li	a1,3
	mv	a0,s0
	call	mbedtls_debug_print_msg
.LVL484:
.LBB454:
.LBB455:
.LM1611:
	li	a5,-1
	sb	a5,5(s4)
	sb	s3,6(s4)
.LBE455:
.LBE454:
.LM1612:
	lw	a5,8(s0)
.LM1613:
	sb	zero,7(s4)
.LBE458:
.LBE464:
.LM1614:
	addi	s7,s4,5
.LVL485:
.LBB465:
.LBB459:
.LM1615:
.LM1616:
.LM1617:
.LBB457:
.LBI454:
.LM1618:
.LBB456:
.LM1619:
.LM1620:
.LM1621:
.LBE456:
.LBE457:
.LM1622:
.LM1623:
.LM1624:
.LM1625:
	addi	s1,s4,10
.LM1626:
	beq	a5,zero,.L359
.LM1627:
.LVL486:
.LM1628:
.LM1629:
	lw	a5,528(s0)
.LM1630:
	addi	a1,s0,544
	mv	a0,s1
.LM1631:
	slli	a5,a5,1
	addi	a5,a5,1
.LM1632:
	sb	a5,8(s4)
.LM1633:
.LVL487:
.LM1634:
	lw	a5,528(s0)
	slli	a5,a5,1
	sb	a5,9(s4)
.LM1635:
	lw	a2,528(s0)
	call	memcpy
.LVL488:
.LM1636:
.LM1637:
	lw	a2,528(s0)
.LM1638:
	addi	a1,s0,532
.LM1639:
	add	s1,s1,a2
.LVL489:
.LM1640:
	mv	a0,s1
	call	memcpy
.LVL490:
.LM1641:
.LM1642:
	lw	a5,528(s0)
	add	s1,s1,a5
.LVL491:
.L360:
.LM1643:
.LM1644:
	sub	s1,s1,s7
.LVL492:
.L358:
.LM1645:
.LBE459:
.LBE465:
.LBB466:
.LBB467:
.LM1646:
	lw	a5,60(s0)
.LBE467:
.LBE466:
.LBB472:
.LBB460:
.LM1647:
	sw	s1,40(sp)
.LVL493:
.LM1648:
.LBE460:
.LBE472:
.LM1649:
.LM1650:
.LBB473:
.LBI466:
.LM1651:
.LBB470:
.LM1652:
.LM1653:
	li	s3,0
.LM1654:
	lbu	a5,0(a5)
	beq	a5,zero,.L361
.LM1655:
	lui	a4,%hi(.LC112)
	addi	a4,a4,%lo(.LC112)
	li	a3,1855
	addi	a2,s2,%lo(.LC2)
	li	a1,3
	mv	a0,s0
	call	mbedtls_debug_print_msg
.LVL494:
.LBE470:
.LBE473:
.LM1656:
	addi	s3,s1,2
.LVL495:
.LM1657:
	add	s3,s5,s3
.LVL496:
.LBB474:
.LBB471:
.LM1658:
.LM1659:
.LM1660:
.LBB468:
.LBI468:
.LM1661:
.LBB469:
.LM1662:
.LM1663:
.LM1664:
	li	a5,1
	sb	zero,0(s3)
	sb	a5,1(s3)
.LVL497:
.LM1665:
.LBE469:
.LBE468:
.LM1666:
.LM1667:
.LM1668:
.LM1669:
	sb	zero,2(s3)
.LM1670:
.LVL498:
.LM1671:
	sb	a5,3(s3)
.LM1672:
.LVL499:
.LM1673:
	lw	a5,60(s0)
	lbu	a5,0(a5)
.LM1674:
	sb	a5,4(s3)
.LM1675:
.LM1676:
	li	s3,5
.LVL500:
.L361:
.LM1677:
.LBE471:
.LBE474:
.LM1678:
.LBB475:
.LBB476:
.LM1679:
	lw	a4,64(s0)
.LM1680:
	sw	zero,40(sp)
.LM1681:
	lw	a5,216(s0)
.LM1682:
	lbu	a4,672(a4)
.LBE476:
.LBE475:
.LM1683:
	add	s3,s3,s1
.LVL501:
.LM1684:
.LBB485:
.LBI475:
.LM1685:
.LBB481:
.LM1686:
.LM1687:
.LM1688:
.LM1689:
.LM1690:
.LM1691:
	beq	a4,zero,.L362
.LBE481:
.LBE485:
.LM1692:
	addi	s1,s3,2
.LVL502:
.LBB486:
.LBB482:
.LM1693:
	li	a4,16384
.LBE482:
.LBE486:
.LM1694:
	add	s1,s5,s1
.LVL503:
.LBB487:
.LBB483:
.LM1695:
	add	a5,a5,a4
.LVL504:
.LM1696:
.LM1697:
	bgtu	s1,a5,.L363
.LM1698:
	lbu	a4,588(s0)
.LM1699:
	sub	a5,a5,s1
.LM1700:
	addi	a4,a4,5
.LM1701:
	bgeu	a5,a4,.L364
.L363:
.LM1702:
	lui	a4,%hi(.LC113)
	addi	a4,a4,%lo(.LC113)
	li	a3,1687
	addi	a2,s2,%lo(.LC2)
	li	a1,1
	mv	a0,s0
	call	mbedtls_debug_print_msg
.LVL505:
.LM1703:
.L362:
.LM1704:
.LBE483:
.LBE487:
.LM1705:
.LM1706:
	lw	a5,40(sp)
	add	s3,s3,a5
.LVL506:
.LM1707:
.LBB488:
.LBI488:
.LM1708:
.LBB489:
.LM1709:
.LM1710:
.LM1711:
.LM1712:
	lw	a5,60(s0)
	lw	a0,8(a5)
	call	mbedtls_ssl_ciphersuite_from_id
.LVL507:
.LM1713:
	lw	a5,60(s0)
.LM1714:
	mv	a1,a0
.LVL508:
.LM1715:
.LM1716:
	bne	a0,zero,.L365
.LVL509:
.L582:
.LBB490:
.LM1717:
.LM1718:
	sw	zero,116(a5)
.L366:
.LBE490:
.LM1719:
.LM1720:
	lw	a5,60(s0)
.LM1721:
	lw	a4,116(a5)
	li	a5,0
	beq	a4,zero,.L367
.LM1722:
	lui	a4,%hi(.LC115)
	addi	a4,a4,%lo(.LC115)
	li	a3,1745
	addi	a2,s2,%lo(.LC2)
	li	a1,3
	mv	a0,s0
	call	mbedtls_debug_print_msg
.LVL510:
.LBE489:
.LBE488:
.LM1723:
	addi	s1,s3,2
.LM1724:
	add	s1,s5,s1
.LBB498:
.LBB496:
.LM1725:
.LM1726:
.LM1727:
.LVL511:
.LBB491:
.LBI491:
.LM1728:
.LBB492:
.LM1729:
.LM1730:
.LM1731:
	li	a5,22
	sb	a5,1(s1)
.LVL512:
.LM1732:
.LBE492:
.LBE491:
.LM1733:
.LM1734:
.LM1735:
.LBB494:
.LBB493:
.LM1736:
	sb	zero,0(s1)
.LBE493:
.LBE494:
.LM1737:
	sb	zero,2(s1)
.LM1738:
.LVL513:
.LM1739:
	sb	zero,3(s1)
.LM1740:
.LM1741:
	li	a5,4
.LVL514:
.L367:
.LM1742:
	sw	a5,40(sp)
.LVL515:
.LM1743:
.LBE496:
.LBE498:
.LM1744:
.LM1745:
	add	s3,s3,a5
.LVL516:
.LM1746:
.LBB499:
.LBI499:
.LM1747:
.LBB500:
.LM1748:
.LM1749:
.LM1750:
	lw	a5,64(s0)
.LM1751:
	lbu	a4,8(a5)
	li	a5,0
	beq	a4,zero,.L368
.LM1752:
	lui	a4,%hi(.LC116)
	addi	a4,a4,%lo(.LC116)
	li	a3,1769
	addi	a2,s2,%lo(.LC2)
	li	a1,3
	mv	a0,s0
	call	mbedtls_debug_print_msg
.LVL517:
.LBE500:
.LBE499:
.LM1753:
	addi	s1,s3,2
.LVL518:
.LM1754:
	add	s1,s5,s1
.LVL519:
.LBB506:
.LBB505:
.LM1755:
.LM1756:
.LM1757:
.LBB501:
.LBI501:
.LM1758:
.LBB502:
.LM1759:
.LM1760:
.LM1761:
	li	a5,23
	sb	a5,1(s1)
.LVL520:
.LM1762:
.LBE502:
.LBE501:
.LM1763:
.LM1764:
.LM1765:
.LBB504:
.LBB503:
.LM1766:
	sb	zero,0(s1)
.LBE503:
.LBE504:
.LM1767:
	sb	zero,2(s1)
.LM1768:
.LVL521:
.LM1769:
	sb	zero,3(s1)
.LM1770:
.LM1771:
	li	a5,4
.LVL522:
.L368:
.LM1772:
	sw	a5,40(sp)
.LVL523:
.LM1773:
.LBE505:
.LBE506:
.LM1774:
.LM1775:
	add	s3,s3,a5
.LVL524:
.LM1776:
.LBB507:
.LBI507:
.LM1777:
.LBB508:
.LM1778:
.LM1779:
.LM1780:
	lw	a5,64(s0)
.LM1781:
	lbu	a4,4(a5)
	li	a5,0
	beq	a4,zero,.L369
.LM1782:
	lui	a4,%hi(.LC117)
	addi	a4,a4,%lo(.LC117)
	li	a3,1794
	addi	a2,s2,%lo(.LC2)
	li	a1,3
	mv	a0,s0
	call	mbedtls_debug_print_msg
.LVL525:
.LBE508:
.LBE507:
.LM1783:
	addi	s1,s3,2
.LVL526:
.LM1784:
	add	s1,s5,s1
.LVL527:
.LBB514:
.LBB513:
.LM1785:
.LM1786:
.LM1787:
.LBB509:
.LBI509:
.LM1788:
.LBB510:
.LM1789:
.LM1790:
.LM1791:
	li	a5,35
	sb	a5,1(s1)
.LVL528:
.LM1792:
.LBE510:
.LBE509:
.LM1793:
.LM1794:
.LM1795:
.LBB512:
.LBB511:
.LM1796:
	sb	zero,0(s1)
.LBE511:
.LBE512:
.LM1797:
	sb	zero,2(s1)
.LM1798:
.LVL529:
.LM1799:
	sb	zero,3(s1)
.LM1800:
.LM1801:
	li	a5,4
.LVL530:
.L369:
.LM1802:
	sw	a5,40(sp)
.LVL531:
.LM1803:
.LBE513:
.LBE514:
.LM1804:
.LM1805:
	add	s3,s3,a5
.LVL532:
.LM1806:
.LM1807:
	lw	a5,60(s0)
	lw	a0,8(a5)
	call	mbedtls_ssl_ciphersuite_from_id
.LVL533:
.LM1808:
.LM1809:
	beq	a0,zero,.L372
.LM1810:
	call	mbedtls_ssl_ciphersuite_uses_ec
.LVL534:
.LM1811:
	beq	a0,zero,.L372
.LM1812:
.LVL535:
.LBB515:
.LBI515:
.LM1813:
.LBB516:
.LM1814:
.LM1815:
.LM1816:
.LM1817:
	lw	a5,64(s0)
.LM1818:
	lbu	a4,1(a5)
	li	a5,0
	andi	a4,a4,1
	beq	a4,zero,.L373
.LM1819:
	lui	a4,%hi(.LC118)
	addi	a4,a4,%lo(.LC118)
	li	a3,1885
	addi	a2,s2,%lo(.LC2)
	li	a1,3
	mv	a0,s0
	call	mbedtls_debug_print_msg
.LVL536:
.LBE516:
.LBE515:
.LM1820:
	addi	s1,s3,2
.LVL537:
.LM1821:
	add	s1,s5,s1
.LVL538:
.LBB522:
.LBB521:
.LM1822:
.LM1823:
.LM1824:
.LBB517:
.LBI517:
.LM1825:
.LBB518:
.LM1826:
.LM1827:
.LM1828:
	li	a5,11
	sb	a5,1(s1)
.LVL539:
.LM1829:
.LBE518:
.LBE517:
.LM1830:
.LM1831:
.LM1832:
.LM1833:
	li	a5,2
	sb	a5,3(s1)
.LM1834:
	li	a5,1
	sb	a5,4(s1)
.LBB520:
.LBB519:
.LM1835:
	sb	zero,0(s1)
.LBE519:
.LBE520:
.LM1836:
	sb	zero,2(s1)
.LM1837:
.LVL540:
.LM1838:
.LM1839:
.LM1840:
	sb	zero,5(s1)
.LM1841:
.LM1842:
	li	a5,6
.LVL541:
.L373:
.LM1843:
	sw	a5,40(sp)
.LVL542:
.LM1844:
.LBE521:
.LBE522:
.LM1845:
.LM1846:
	add	s3,s3,a5
.LVL543:
.L372:
.LM1847:
.LM1848:
.LM1849:
	li	a2,16384
.LM1850:
	addi	a1,s3,2
.LM1851:
	addi	a2,a2,-4
	addi	a3,sp,40
	add	a2,s6,a2
	add	a1,s5,a1
	mv	a0,s0
	call	mbedtls_ssl_write_alpn_ext
.LVL544:
	mv	s1,a0
.LVL545:
.LM1852:
	bne	a0,zero,.L324
.LM1853:
.LM1854:
	lw	a5,40(sp)
.LBB523:
.LBB524:
.LM1855:
	sw	zero,40(sp)
.LM1856:
	lw	s7,216(s0)
.LBE524:
.LBE523:
.LM1857:
	add	s3,s3,a5
.LVL546:
.LM1858:
.LBB542:
.LBI523:
.LM1859:
.LBB539:
.LM1860:
.LM1861:
.LM1862:
.LM1863:
.LM1864:
.LM1865:
	lw	a5,0(s0)
.LM1866:
	lbu	s8,5(a5)
	li	a5,1
	bne	s8,a5,.L374
.LM1867:
	lhu	a5,256(s0)
	beq	a5,zero,.L374
.LM1868:
	lui	a4,%hi(.LC119)
.LM1869:
	li	a5,16384
.LM1870:
	addi	a2,s2,%lo(.LC2)
	addi	a4,a4,%lo(.LC119)
	li	a3,1973
	li	a1,3
	mv	a0,s0
.LM1871:
	add	s7,s7,a5
.LVL547:
.LM1872:
	call	mbedtls_debug_print_msg
.LVL548:
.LM1873:
.LM1874:
	lw	a5,0(s0)
.LBE539:
.LBE542:
.LM1875:
	addi	s1,s3,2
.LVL549:
.LM1876:
	add	s1,s5,s1
.LVL550:
.LBB543:
.LBB540:
.LM1877:
	lbu	a5,17(a5)
.LM1878:
	li	a2,0
.LM1879:
	bne	a5,s8,.L375
.LM1880:
.LM1881:
	lhu	a2,258(s0)
.L375:
.LVL551:
.LM1882:
.LM1883:
	addi	s8,a2,9
.LM1884:
	sub	s7,s7,s1
.LVL552:
.LM1885:
	bgeu	s7,s8,.L376
.LM1886:
	lui	a4,%hi(.LC113)
	addi	a4,a4,%lo(.LC113)
	li	a3,1988
.LVL553:
.L583:
.LM1887:
	addi	a2,s2,%lo(.LC2)
.LVL554:
.LM1888:
	li	a1,1
	mv	a0,s0
	call	mbedtls_debug_print_msg
.LVL555:
.LM1889:
	j	.L374
.LVL556:
.L355:
.LM1890:
.LBE540:
.LBE543:
.LM1891:
.LM1892:
	li	s3,32
	sw	s3,12(a5)
.LM1893:
.LM1894:
	lw	a5,0(s0)
.LM1895:
	lw	a1,60(s0)
.LM1896:
	mv	a2,s3
	lw	a4,32(a5)
	lw	a0,36(a5)
	addi	a1,a1,16
	jalr	a4
.LVL557:
	mv	s1,a0
.LVL558:
.LM1897:
	beq	a0,zero,.L356
	j	.L324
.LVL559:
.L354:
.LM1898:
.LM1899:
	lw	a5,60(s0)
.LM1900:
	li	a1,12
	mv	a0,s0
.LM1901:
	lw	s3,12(a5)
.LVL560:
.LM1902:
	call	mbedtls_ssl_handshake_set_state
.LVL561:
.LM1903:
.LM1904:
	mv	a0,s0
	call	mbedtls_ssl_derive_keys
.LVL562:
	mv	s1,a0
.LVL563:
.LM1905:
	beq	a0,zero,.L356
.LM1906:
	lui	a4,%hi(.LC105)
	li	a3,4096
	mv	a5,a0
	addi	a4,a4,%lo(.LC105)
	addi	a3,a3,-1834
.LVL564:
.L598:
.LM1907:
.LBE554:
.LBE577:
.LBB578:
.LBB575:
.LM1908:
	addi	a2,s2,%lo(.LC2)
	li	a1,1
	j	.L596
.LVL565:
.L493:
.LM1909:
.LBE575:
.LBE578:
.LBB579:
.LBB555:
.LM1910:
	lui	a5,%hi(.LC89)
	addi	a5,a5,%lo(.LC89)
	j	.L357
.LVL566:
.L359:
.LBB544:
.LBB461:
.LM1911:
.LM1912:
.LM1913:
	sb	s3,8(s4)
.LM1914:
.LVL567:
.LM1915:
	sb	zero,9(s4)
	j	.L360
.LVL568:
.L364:
.LM1916:
.LBE461:
.LBE544:
.LBB545:
.LBB484:
.LM1917:
	lui	a4,%hi(.LC114)
	addi	a4,a4,%lo(.LC114)
	li	a3,1691
	addi	a2,s2,%lo(.LC2)
	li	a1,3
	mv	a0,s0
	call	mbedtls_debug_print_msg
.LVL569:
.LM1918:
.LM1919:
.LBB477:
.LBI477:
.LM1920:
.LBB478:
.LM1921:
.LM1922:
.LM1923:
	li	a5,54
	sb	zero,0(s1)
	sb	a5,1(s1)
.LVL570:
.LM1924:
.LBE478:
.LBE477:
.LM1925:
.LM1926:
.LM1927:
.LM1928:
.LM1929:
.LM1930:
	lbu	a5,588(s0)
.LM1931:
	addi	a1,s0,556
	addi	a0,s1,5
.LM1932:
	addi	a5,a5,1
.LM1933:
	slli	a4,a5,8
	srli	a5,a5,8
.LVL571:
.LBB479:
.LBI479:
.LM1934:
.LBB480:
.LM1935:
.LM1936:
.LM1937:
	sb	a5,2(s1)
.LVL572:
.LM1938:
	srli	a5,a4,8
.LVL573:
.LM1939:
	sb	a5,3(s1)
.LVL574:
.LM1940:
.LBE480:
.LBE479:
.LM1941:
.LM1942:
.LM1943:
.LM1944:
	lbu	a2,588(s0)
.LM1945:
	sb	a2,4(s1)
.LM1946:
	call	memcpy
.LVL575:
.LM1947:
.LM1948:
	lbu	a5,588(s0)
.LM1949:
	addi	a5,a5,5
.LM1950:
	sw	a5,40(sp)
	j	.L362
.LVL576:
.L365:
.LM1951:
.LBE484:
.LBE545:
.LBB546:
.LBB497:
.LBB495:
.LM1952:
.LM1953:
	lw	a0,116(a5)
.LVL577:
.LM1954:
	call	mbedtls_ssl_get_mode_from_ciphersuite
.LVL578:
.LM1955:
.LM1956:
	li	a5,2
	beq	a0,a5,.L366
.LM1957:
	lw	a5,60(s0)
	j	.L582
.LVL579:
.L376:
.LM1958:
.LBE495:
.LBE497:
.LBE546:
.LBB547:
.LBB541:
.LM1959:
.LM1960:
.LBB525:
.LBI525:
.LM1961:
.LBB526:
.LM1962:
.LM1963:
.LM1964:
	li	a5,14
	sb	a5,1(s1)
.LVL580:
.LM1965:
.LBE526:
.LBE525:
.LM1966:
.LM1967:
.LM1968:
.LM1969:
.LM1970:
	addi	a5,a2,5
.LVL581:
.LM1971:
	slli	a3,a5,16
	slli	a4,a5,8
	srli	a5,a3,24
.LVL582:
.LBB528:
.LBI528:
.LM1972:
.LBB529:
.LM1973:
.LM1974:
.LM1975:
	sb	a5,2(s1)
	srli	a5,a4,8
.LVL583:
.LM1976:
.LBE529:
.LBE528:
.LM1977:
	li	a4,2
.LVL584:
.LBB531:
.LBB527:
.LM1978:
	sb	zero,0(s1)
.LBE527:
.LBE531:
.LBB532:
.LBB530:
	sb	a5,3(s1)
.LVL585:
.LM1979:
.LBE530:
.LBE532:
.LM1980:
.LM1981:
.LM1982:
	sb	zero,4(s1)
.LM1983:
.LM1984:
	sb	a4,5(s1)
.LM1985:
.LM1986:
	lhu	a5,256(s0)
.LVL586:
.LBB533:
.LBI533:
.LM1987:
.LBB534:
.LM1988:
	bgtu	a5,a4,.L377
	bne	a5,zero,.L378
.L379:
.LM1989:
.LM1990:
.LVL587:
.LM1991:
.LBE534:
.LBE533:
.LM1992:
.LM1993:
	lui	a4,%hi(.LC120)
	addi	a4,a4,%lo(.LC120)
	li	a3,2009
	j	.L583
.LVL588:
.L377:
.LBB536:
.LBB535:
.LM1994:
	addi	a4,a5,-5
	slli	a4,a4,16
	srli	a4,a4,16
	li	a3,1
	bgtu	a4,a3,.L379
.L378:
.LVL589:
.LM1995:
.LBE535:
.LBE536:
.LM1996:
.LM1997:
.LM1998:
.LM1999:
	slli	a4,a5,8
	srli	a5,a5,8
.LVL590:
.LBB537:
.LBI537:
.LM2000:
.LBB538:
.LM2001:
.LM2002:
.LM2003:
	sb	a5,6(s1)
.LVL591:
.LM2004:
	srli	a5,a4,8
.LVL592:
.LM2005:
	sb	a5,7(s1)
.LVL593:
.LM2006:
.LBE538:
.LBE537:
.LM2007:
.LM2008:
.LM2009:
	sb	a2,8(s1)
.LM2010:
	addi	a1,s0,260
	addi	a0,s1,9
	call	memcpy
.LVL594:
.LM2011:
.LM2012:
	sw	s8,40(sp)
.LVL595:
.L374:
.LM2013:
.LBE541:
.LBE547:
.LM2014:
.LM2015:
	lw	a5,40(sp)
.LM2016:
	lui	a4,%hi(.LC121)
	li	a3,4096
.LM2017:
	add	s3,s3,a5
.LVL596:
.LM2018:
	mv	a5,s3
	addi	a4,a4,%lo(.LC121)
	addi	a3,a3,-1741
	addi	a2,s2,%lo(.LC2)
	li	a1,3
	mv	a0,s0
	call	mbedtls_debug_print_msg
.LVL597:
.LM2019:
.LM2020:
	beq	s3,zero,.L380
.LM2021:
.LM2022:
.LM2023:
	slli	a5,s3,8
	slli	a3,s3,16
	srli	a4,a3,24
.LVL598:
.LBB548:
.LBI548:
.LM2024:
.LBB549:
.LM2025:
.LM2026:
.LM2027:
	srli	a5,a5,8
.LVL599:
.LM2028:
.LBE549:
.LBE548:
.LM2029:
	addi	s3,s3,2
.LVL600:
.LBB551:
.LBB550:
.LM2030:
	sb	a4,3(s4)
	sb	a5,4(s4)
.LVL601:
.LM2031:
.LBE550:
.LBE551:
.LM2032:
.LM2033:
.LM2034:
	add	s5,s5,s3
.LVL602:
.L380:
.LM2035:
.LM2036:
	sub	a5,s5,s6
.LM2037:
	sw	a5,224(s0)
.LM2038:
.LM2039:
	li	a5,22
	sw	a5,220(s0)
.LM2040:
.LM2041:
.LM2042:
	lw	a5,216(s0)
.LM2043:
	li	a1,2
.LM2044:
	mv	a0,s0
.LM2045:
	sb	a1,0(a5)
.LM2046:
	call	mbedtls_ssl_write_handshake_msg
.LVL603:
.LM2047:
	lui	a4,%hi(.LC93)
	li	a3,4096
.LM2048:
	mv	s1,a0
.LVL604:
.LM2049:
	addi	a4,a4,%lo(.LC93)
	addi	a3,a3,-1727
	j	.L597
.LVL605:
.L340:
.LM2050:
.LBE555:
.LBE579:
.LM2051:
.LM2052:
	mv	a0,s0
.LM2053:
	lw	s0,200(sp)
	.cfi_remember_state
	.cfi_restore 8
.LVL606:
.LM2054:
	lw	ra,204(sp)
	.cfi_restore 1
	lw	s1,196(sp)
	.cfi_restore 9
	lw	s2,192(sp)
	.cfi_restore 18
	lw	s3,188(sp)
	.cfi_restore 19
	lw	s4,184(sp)
	.cfi_restore 20
	lw	s5,180(sp)
	.cfi_restore 21
	lw	s6,176(sp)
	.cfi_restore 22
	lw	s7,172(sp)
	.cfi_restore 23
	lw	s8,168(sp)
	.cfi_restore 24
	lw	s9,164(sp)
	.cfi_restore 25
	lw	s10,160(sp)
	.cfi_restore 26
	addi	sp,sp,208
	.cfi_def_cfa_offset 0
.LM2055:
	tail	mbedtls_ssl_write_certificate
.LVL607:
.L339:
	.cfi_restore_state
.LM2056:
.LBB580:
.LBI580:
.LM2057:
.LBB581:
.LM2058:
.LM2059:
.LM2060:
	lw	a5,64(s0)
.LM2061:
	lui	a4,%hi(.LC122)
	li	a3,4096
.LM2062:
	lw	s1,24(a5)
.LM2063:
	addi	a4,a4,%lo(.LC122)
	addi	a3,a3,-862
	addi	a2,s2,%lo(.LC2)
	li	a1,2
	mv	a0,s0
.LM2064:
	sw	zero,32(sp)
.LM2065:
.LVL608:
.LM2066:
	call	mbedtls_debug_print_msg
.LVL609:
.LM2067:
	lbu	a5,10(s1)
.LBB582:
.LBI582:
.LM2068:
.LVL610:
.LBB583:
.LM2069:
	li	a4,10
	bgtu	a5,a4,.L381
	li	a4,1698
	srl	a4,a4,a5
	andi	a4,a4,1
	bne	a4,zero,.L382
.L381:
.LM2070:
.LVL611:
.LM2071:
.LBE583:
.LBE582:
.LM2072:
.LM2073:
	lw	a5,64(s0)
.LM2074:
	lbu	a4,9(a5)
	bne	a4,zero,.L383
.LM2075:
.LVL612:
.LBB584:
.LBI584:
.LM2076:
.LBB585:
.LM2077:
.LM2078:
	lw	s3,24(a5)
.LVL613:
.LM2079:
.LM2080:
.LM2081:
.LM2082:
	addi	a4,s0,128
.LM2083:
	li	a5,4
	sw	a5,96(a4)
.LM2084:
	lbu	a5,10(s3)
.LM2085:
	lw	s4,104(a4)
.LM2086:
	lw	s5,88(a4)
.LM2087:
	addi	a5,a5,-6
.LM2088:
	andi	a5,a5,253
.LM2089:
	lw	s6,64(a4)
.LVL614:
.LM2090:
.LM2091:
.LM2092:
	bne	a5,zero,.L393
.LM2093:
.LM2094:
	li	a5,5
	sw	a5,96(a4)
.LM2095:
	sb	zero,4(s5)
.LM2096:
.LM2097:
	lw	a3,96(a4)
.LM2098:
	lw	a5,88(a4)
.LM2099:
	addi	a2,a3,1
	sw	a2,96(a4)
.LM2100:
	add	a5,a5,a3
	sb	zero,0(a5)
.L393:
.LM2101:
	lbu	a5,10(s3)
.LBB586:
.LBI586:
.LM2102:
.LVL615:
.LBB587:
.LM2103:
	li	a4,4
	bgtu	a5,a4,.L394
	li	a4,2
	bgtu	a5,a4,.L395
.L502:
.LM2104:
	li	s1,0
.LVL616:
.LM2105:
	j	.L396
.LVL617:
.L382:
.LM2106:
.LBE587:
.LBE586:
.LBE585:
.LBE584:
.LM2107:
.LBB618:
.LBI618:
.LM2108:
.LBB619:
.LM2109:
	addi	a5,a5,-9
	li	s1,1
.LVL618:
.LM2110:
	bgtu	a5,s1,.L385
.LVL619:
.LM2111:
.LBE619:
.LBE618:
.LM2112:
.LBB620:
.LBI620:
.LM2113:
.LBB621:
.LM2114:
.LM2115:
.LM2116:
	mv	a0,s0
	call	mbedtls_ssl_own_key
.LVL620:
.LM2117:
.LM2118:
	bne	a0,zero,.L386
.LM2119:
	lui	a4,%hi(.LC123)
	li	a3,4096
	mv	a1,s1
	addi	a4,a4,%lo(.LC123)
	addi	a3,a3,-1374
	addi	a2,s2,%lo(.LC2)
	mv	a0,s0
.LVL621:
.LM2120:
	li	s1,-28672
.LM2121:
	call	mbedtls_debug_print_msg
.LVL622:
.LM2122:
.LM2123:
.LBE621:
.LBE620:
.LM2124:
.LBB629:
.LBB626:
.LM2125:
	addi	s1,s1,-1536
.LVL623:
.L387:
.LM2126:
.LBE626:
.LBE629:
.LM2127:
	lui	a4,%hi(.LC126)
	li	a3,4096
	mv	a5,s1
	addi	a4,a4,%lo(.LC126)
	addi	a3,a3,-850
	j	.L598
.LVL624:
.L386:
.LBB630:
.LBB627:
.LM2128:
.LM2129:
	li	a1,2
	call	mbedtls_pk_can_do
.LVL625:
.LM2130:
	bne	a0,zero,.L388
.LM2131:
	lui	a4,%hi(.LC124)
	li	a3,4096
	mv	a1,s1
	addi	a4,a4,%lo(.LC124)
	addi	a3,a3,-1369
	addi	a2,s2,%lo(.LC2)
	mv	a0,s0
.LM2132:
	li	s1,-28672
.LM2133:
	call	mbedtls_debug_print_msg
.LVL626:
.LM2134:
.LM2135:
.LBE627:
.LBE630:
.LM2136:
.LBB631:
.LBB628:
.LM2137:
	addi	s1,s1,768
	j	.L387
.LVL627:
.L388:
.LM2138:
.LM2139:
	mv	a0,s0
	call	mbedtls_ssl_own_key
.LVL628:
	lw	a5,0(a0)
.LM2140:
	lw	s1,64(s0)
	sw	a5,40(sp)
	lw	a5,4(a0)
.LBB622:
.LBB623:
.LM2141:
	addi	a0,sp,40
.LBE623:
.LBE622:
.LM2142:
	addi	s1,s1,164
	sw	a5,44(sp)
.LBB625:
.LBI622:
.LM2143:
.LBB624:
.LM2144:
.LM2145:
	call	mbedtls_pk_get_type
.LVL629:
.LM2146:
	addi	a0,a0,-2
	li	a5,2
.LM2147:
	li	a1,0
.LM2148:
	bgtu	a0,a5,.L389
.LM2149:
.LM2150:
	lw	a1,44(sp)
.L389:
.LM2151:
.LBE624:
.LBE625:
.LM2152:
	mv	a0,s1
	li	a2,0
	call	mbedtls_ecdh_get_params
.LVL630:
	mv	s1,a0
.LVL631:
.LM2153:
	beq	a0,zero,.L385
.LM2154:
	lui	a4,%hi(.LC125)
	li	a3,4096
	mv	a5,a0
	addi	a4,a4,%lo(.LC125)
	addi	a3,a3,-1362
	addi	a2,s2,%lo(.LC2)
	li	a1,1
	mv	a0,s0
	call	mbedtls_debug_print_ret
.LVL632:
.LM2155:
.LM2156:
.LBE628:
.LBE631:
.LM2157:
	j	.L387
.LVL633:
.L385:
.LM2158:
	lui	a4,%hi(.LC127)
	li	a3,4096
	addi	a4,a4,%lo(.LC127)
	addi	a3,a3,-842
.LVL634:
.L589:
.LM2159:
.LBE581:
.LBE580:
.LBB643:
.LBB644:
.LM2160:
	mv	a0,s0
	addi	a2,s2,%lo(.LC2)
	li	a1,2
	call	mbedtls_debug_print_msg
.LVL635:
.LM2161:
	mv	a0,s0
	call	mbedtls_ssl_handshake_increment_state
.LVL636:
.LM2162:
.LM2163:
	j	.L344
.LVL637:
.L383:
.LM2164:
.LBE644:
.LBE643:
.LBB659:
.LBB642:
.LM2165:
	lui	a4,%hi(.LC128)
	li	a3,4096
	addi	a4,a4,%lo(.LC128)
	addi	a3,a3,-831
	addi	a2,s2,%lo(.LC2)
	li	a1,2
	mv	a0,s0
	call	mbedtls_debug_print_msg
.LVL638:
.LM2166:
.L584:
.LBB632:
.LBB608:
.LBB589:
.LM2167:
.LM2168:
	addi	a1,sp,32
	mv	a0,s0
	call	ssl_resume_server_key_exchange
.LVL639:
	mv	s1,a0
.LVL640:
.LM2169:
.LBE589:
.LBE608:
.LBE632:
.LM2170:
.LM2171:
	bne	a0,zero,.L407
.LVL641:
.L424:
.LM2172:
.LM2173:
	lw	a5,32(sp)
.LM2174:
	beq	a5,zero,.L425
.LM2175:
	addi	s1,s0,128
.LM2176:
	lw	a3,96(s1)
.LM2177:
	lw	a4,88(s1)
.LM2178:
.LM2179:
	srli	a5,a5,8
.LM2180:
	addi	a2,a3,1
	sw	a2,96(s1)
.LM2181:
	add	a4,a4,a3
.LM2182:
	sb	a5,0(a4)
.LM2183:
.LM2184:
	lw	a4,96(s1)
.LM2185:
	lw	a5,88(s1)
.LM2186:
	addi	a2,s2,%lo(.LC2)
.LM2187:
	addi	a3,a4,1
.LM2188:
	add	a5,a5,a4
.LM2189:
	lw	a4,32(sp)
.LM2190:
	sw	a3,96(s1)
.LM2191:
	li	a3,4096
.LM2192:
	sb	a4,0(a5)
.LM2193:
.LM2194:
	lw	a4,88(s1)
	lw	a5,96(s1)
.LM2195:
	lw	a6,32(sp)
	addi	a3,a3,-800
	add	a5,a4,a5
	lui	a4,%hi(.LC139)
	addi	a4,a4,%lo(.LC139)
	li	a1,3
	mv	a0,s0
	call	mbedtls_debug_print_buf
.LVL642:
.LM2196:
.LM2197:
	lw	a5,96(s1)
	lw	a4,32(sp)
	add	a5,a5,a4
	sw	a5,96(s1)
.L425:
.LM2198:
.LM2199:
	li	a5,22
	sw	a5,220(s0)
.LM2200:
.LM2201:
	lw	a5,216(s0)
.LM2202:
	li	a4,12
.LM2203:
	mv	a0,s0
.LM2204:
	sb	a4,0(a5)
.LM2205:
	call	mbedtls_ssl_handshake_increment_state
.LVL643:
.LM2206:
.LM2207:
	mv	a0,s0
	call	mbedtls_ssl_write_handshake_msg
.LVL644:
	mv	s1,a0
.LVL645:
.LM2208:
	beq	a0,zero,.L426
.LM2209:
	lui	a4,%hi(.LC99)
	li	a3,4096
	mv	a5,a0
	addi	a4,a4,%lo(.LC99)
	addi	a3,a3,-784
	j	.L598
.LVL646:
.L394:
.LBB633:
.LBB609:
.LBB592:
.LBB588:
.LM2210:
	li	a4,8
	bne	a5,a4,.L502
.L395:
.LVL647:
.LM2211:
.LBE588:
.LBE592:
.LBB593:
.LM2212:
.LM2213:
	lw	a5,64(s0)
	lw	a4,404(a5)
.LVL648:
.LM2214:
.LBB594:
.LBI594:
.LM2215:
.LBB595:
.LM2216:
.LM2217:
	lw	a5,0(s0)
	lw	a5,152(a5)
.LVL649:
.LM2218:
.LBE595:
.LBE594:
.LM2219:
.LM2220:
.LM2221:
	sw	zero,40(sp)
.LM2222:
.LM2223:
	beq	a5,zero,.L397
.LM2224:
	mv	s1,a4
.LVL650:
.LM2225:
	bne	a4,zero,.L398
.L397:
.LVL651:
.LM2226:
.LBE593:
.LBE609:
.LBE633:
.LM2227:
.LM2228:
.LBB634:
.LBB610:
.LBB596:
.LM2229:
	li	s1,-24576
	addi	s1,s1,384
	j	.L403
.LVL652:
.L400:
.LM2230:
.LM2231:
	beq	a2,a3,.L399
.LM2232:
	addi	s1,s1,2
.LVL653:
.L401:
.LM2233:
.LM2234:
	lhu	a2,0(s1)
.LM2235:
	bne	a2,zero,.L400
.LM2236:
	addi	a5,a5,2
.LVL654:
.L398:
.LM2237:
.LM2238:
	lhu	a3,0(a5)
.LM2239:
	bne	a3,zero,.L503
.L399:
.LM2240:
.LM2241:
	lhu	a0,0(s1)
.LM2242:
	bne	a0,zero,.L402
.LM2243:
	lui	a4,%hi(.LC129)
	li	a3,4096
	addi	a4,a4,%lo(.LC129)
	addi	a3,a3,-1129
	addi	a2,s2,%lo(.LC2)
	li	a1,1
	mv	a0,s0
.LM2244:
	li	s1,-28672
.LVL655:
.LM2245:
	call	mbedtls_debug_print_msg
.LVL656:
.LM2246:
.LM2247:
.LBE596:
.LBE610:
.LBE634:
.LM2248:
.LM2249:
.LBB635:
.LBB611:
.LBB597:
.LM2250:
	addi	s1,s1,512
.LVL657:
.L403:
.LM2251:
.LBE597:
.LBE611:
.LBE635:
.LM2252:
.LM2253:
	sw	zero,224(s0)
	j	.L324
.LVL658:
.L503:
.LBB636:
.LBB612:
.LBB598:
.LM2254:
	mv	s1,a4
.LVL659:
.LM2255:
	j	.L401
.LVL660:
.L402:
.LM2256:
	call	mbedtls_ssl_get_curve_name_from_tls_id
.LVL661:
.LM2257:
	lui	a4,%hi(.LC130)
	li	a3,4096
.LM2258:
	mv	a5,a0
.LM2259:
	addi	a4,a4,%lo(.LC130)
	addi	a3,a3,-1125
	addi	a2,s2,%lo(.LC2)
	li	a1,2
	mv	a0,s0
	call	mbedtls_debug_print_msg
.LVL662:
.LM2260:
.LM2261:
	lhu	a0,0(s1)
	call	mbedtls_ssl_get_ecp_group_id_from_tls_id
.LVL663:
	mv	a1,a0
.LVL664:
.LM2262:
.LM2263:
	lw	a0,64(s0)
	addi	a0,a0,164
	call	mbedtls_ecdh_setup
.LVL665:
.LM2264:
	mv	s1,a0
.LVL666:
.LM2265:
	beq	a0,zero,.L404
.LM2266:
	lui	a4,%hi(.LC131)
	li	a3,4096
	mv	a5,a0
	addi	a4,a4,%lo(.LC131)
	addi	a3,a3,-1034
.LVL667:
.L585:
.LM2267:
	addi	a2,s2,%lo(.LC2)
	li	a1,1
	mv	a0,s0
	call	mbedtls_debug_print_ret
.LVL668:
.LM2268:
.L407:
.LM2269:
.LBE598:
.LBE612:
.LBE636:
.LM2270:
.LM2271:
	li	a5,-24576
	addi	a5,a5,-1280
	beq	s1,a5,.L421
	j	.L403
.LVL669:
.L404:
.LBB637:
.LBB613:
.LBB599:
.LM2272:
.LM2273:
	lw	a4,0(s0)
.LM2274:
	lw	a2,224(s0)
.LM2275:
	lw	a1,216(s0)
	lw	a0,64(s0)
	lw	a5,36(a4)
	lw	a4,32(a4)
	li	a3,16384
	sub	a3,a3,a2
	addi	a0,a0,164
	add	a2,a1,a2
	addi	a1,sp,40
	call	mbedtls_ecdh_make_params
.LVL670:
	mv	s1,a0
.LVL671:
.LM2276:
	beq	a0,zero,.L406
.LM2277:
	lui	a4,%hi(.LC132)
	li	a3,4096
	mv	a5,a0
	addi	a4,a4,%lo(.LC132)
	addi	a3,a3,-1025
	j	.L585
.L406:
.LM2278:
.LM2279:
	lw	a4,64(s0)
.LM2280:
	li	a3,4096
	li	a5,0
	addi	a4,a4,164
	addi	a3,a3,-1021
	addi	a2,s2,%lo(.LC2)
	li	a1,3
	mv	a0,s0
	call	mbedtls_debug_printf_ecdh
.LVL672:
.LM2281:
.LM2282:
	addi	a5,s0,128
	lw	a3,96(a5)
.LM2283:
	lw	a4,40(sp)
.LM2284:
	lw	s1,88(a5)
.LVL673:
.LM2285:
	add	a4,a4,a3
.LM2286:
	add	s1,s1,a3
.LVL674:
.LM2287:
.LM2288:
	sw	a4,96(a5)
.LVL675:
.L396:
.LM2289:
.LBE599:
.LM2290:
.LBB600:
.LBI600:
.LM2291:
.LBB601:
.LM2292:
	lbu	a5,10(s3)
	li	a4,2
	addi	a5,a5,-2
	bgtu	a5,a4,.L424
.LVL676:
.LM2293:
.LBE601:
.LBE600:
.LBB602:
.LM2294:
.LM2295:
	bne	s1,zero,.L409
.LM2296:
	lui	a4,%hi(.LC8)
	li	a3,4096
	addi	a4,a4,%lo(.LC8)
	addi	a3,a3,-1000
.LVL677:
.L586:
.LM2297:
	addi	a2,s2,%lo(.LC2)
	li	a1,1
	mv	a0,s0
.LM2298:
	li	s1,-28672
.LVL678:
.LM2299:
	call	mbedtls_debug_print_msg
.LVL679:
.LM2300:
.LM2301:
.LBE602:
.LBE613:
.LBE637:
.LM2302:
.LM2303:
.LBB638:
.LBB614:
.LBB603:
.LM2304:
	addi	s1,s1,1024
	j	.L403
.LVL680:
.L409:
.LM2305:
.LM2306:
	mv	a0,s3
.LM2307:
	lw	s7,216(s0)
.LM2308:
	lw	s8,224(s0)
.LVL681:
.LM2309:
.LM2310:
	sw	zero,36(sp)
.LM2311:
.LM2312:
.LVL682:
.LM2313:
.LM2314:
	call	mbedtls_ssl_get_ciphersuite_sig_pk_alg
.LVL683:
	mv	s9,a0
.LVL684:
.LM2315:
.LM2316:
	call	mbedtls_ssl_sig_from_pk_alg
.LVL685:
	mv	a1,a0
.LM2317:
	mv	a0,s0
	call	mbedtls_ssl_tls12_get_preferred_hash_for_sig_alg
.LVL686:
.LM2318:
.LM2319:
	andi	a0,a0,0xff
.LM2320:
	call	mbedtls_ssl_md_alg_from_hash
.LVL687:
.LM2321:
	mv	s3,a0
.LVL688:
.LM2322:
.LM2323:
	beq	s9,zero,.L509
	bne	a0,zero,.L411
.L509:
.LM2324:
	lui	a4,%hi(.LC8)
	li	a3,4096
	addi	a4,a4,%lo(.LC8)
	addi	a3,a3,-972
	j	.L586
.L411:
.LM2325:
	lui	a4,%hi(.LC133)
	li	a3,4096
	mv	a5,a0
	addi	a4,a4,%lo(.LC133)
	addi	a3,a3,-966
	addi	a2,s2,%lo(.LC2)
	li	a1,3
	mv	a0,s0
.LVL689:
.LM2326:
	call	mbedtls_debug_print_msg
.LVL690:
.LM2327:
.LM2328:
.LM2329:
	add	a4,s7,s8
.LM2330:
	sub	a4,a4,s1
	mv	a3,s1
	mv	a5,s3
	addi	a2,sp,36
	addi	a1,sp,40
	mv	a0,s0
	call	mbedtls_ssl_get_key_exchange_md_tls1_2
.LVL691:
	mv	s1,a0
.LVL692:
.LM2331:
.LM2332:
	bne	a0,zero,.L407
.LM2333:
	lw	a6,36(sp)
	lui	a4,%hi(.LC134)
	li	a3,4096
	addi	a3,a3,-948
	addi	a2,s2,%lo(.LC2)
	li	a1,3
	addi	a5,sp,40
	addi	a4,a4,%lo(.LC134)
	mv	a0,s0
	call	mbedtls_debug_print_buf
.LVL693:
.LM2334:
.LM2335:
	addi	s1,s0,128
.LVL694:
.LM2336:
	lw	a5,96(s1)
.LM2337:
	lw	s7,88(s1)
.LM2338:
	mv	a0,s3
.LM2339:
	addi	a4,a5,1
	sw	a4,96(s1)
.LM2340:
	add	s7,s7,a5
.LM2341:
	call	mbedtls_ssl_hash_from_md_alg
.LVL695:
.LM2342:
	sb	a0,0(s7)
.LM2343:
.LM2344:
	lw	a4,96(s1)
.LM2345:
	lw	a5,88(s1)
.LM2346:
	mv	a0,s9
.LM2347:
	addi	a3,a4,1
	sw	a3,96(s1)
.LM2348:
	add	s1,a5,a4
.LM2349:
	call	mbedtls_ssl_sig_from_pk_alg
.LVL696:
.LM2350:
	sb	a0,0(s1)
.LM2351:
.LM2352:
	lw	a4,0(s0)
.LM2353:
	lw	a5,128(a4)
.LM2354:
	beq	a5,zero,.L414
.LM2355:
.LVL697:
.LBB590:
.LBI590:
.LM2356:
.LBB591:
.LM2357:
.LM2358:
.LM2359:
	lw	a3,64(s0)
.LM2360:
	beq	a3,zero,.L415
.LM2361:
	lw	a1,540(a3)
.LM2362:
	bne	a1,zero,.L416
.L415:
.LM2363:
.LM2364:
	lw	a1,108(a4)
.LVL698:
.LM2365:
.LM2366:
	beq	a1,zero,.L417
.LVL699:
.L416:
.LM2367:
	lw	a1,0(a1)
.L417:
.LVL700:
.LM2368:
.LBE591:
.LBE590:
.LM2369:
	lw	a4,36(sp)
	addi	a3,sp,40
	mv	a2,s3
	mv	a0,s0
	jalr	a5
.LVL701:
.LM2370:
	li	a5,-24576
	addi	a5,a5,-1280
.LM2371:
	mv	s1,a0
.LVL702:
.LM2372:
	beq	a0,a5,.L418
	beq	a0,zero,.L419
	li	a5,-28672
	addi	a5,a5,128
	beq	a0,a5,.L414
.LM2373:
	lui	a4,%hi(.LC135)
	li	a3,4096
	mv	a5,a0
	addi	a4,a4,%lo(.LC135)
	addi	a3,a3,-908
	addi	a2,s2,%lo(.LC2)
	li	a1,1
	mv	a0,s0
	call	mbedtls_debug_print_ret
.LVL703:
.LM2374:
.LM2375:
.LBE603:
.LBE614:
.LBE638:
.LM2376:
.LM2377:
	j	.L403
.LVL704:
.L419:
.LBB639:
.LBB615:
.LBB604:
.LM2378:
.LM2379:
	lw	a5,64(s0)
.LM2380:
	li	a4,1
	sb	a4,9(a5)
	j	.L584
.L418:
.LM2381:
.LM2382:
	lw	a5,64(s0)
.LM2383:
	li	a4,1
	sb	a4,9(a5)
.LM2384:
.LVL705:
.LM2385:
.LBE604:
.LBE615:
.LBE639:
.LM2386:
.LM2387:
.L421:
.LM2388:
	lui	a4,%hi(.LC138)
	li	a3,4096
	addi	a4,a4,%lo(.LC138)
	addi	a3,a3,-815
	addi	a2,s2,%lo(.LC2)
	li	a1,2
	mv	a0,s0
.LM2389:
	li	s1,-24576
.LM2390:
	call	mbedtls_debug_print_msg
.LVL706:
.LM2391:
	addi	s1,s1,-1280
	j	.L324
.LVL707:
.L414:
.LBB640:
.LBB616:
.LBB605:
.LM2392:
.LM2393:
	mv	a0,s0
	call	mbedtls_ssl_own_key
.LVL708:
.LM2394:
	bne	a0,zero,.L422
.LM2395:
	lui	a4,%hi(.LC136)
	li	a3,4096
	addi	a4,a4,%lo(.LC136)
	addi	a3,a3,-901
	addi	a2,s2,%lo(.LC2)
	li	a1,1
	mv	a0,s0
.LM2396:
	li	s1,-28672
.LM2397:
	call	mbedtls_debug_print_msg
.LVL709:
.LM2398:
.LM2399:
.LBE605:
.LBE616:
.LBE640:
.LM2400:
.LM2401:
.LBB641:
.LBB617:
.LBB606:
.LM2402:
	addi	s1,s1,-1536
	j	.L403
.LVL710:
.L422:
.LM2403:
.LM2404:
	lw	a3,0(s0)
.LM2405:
	lw	a4,224(s0)
.LM2406:
	lw	a2,216(s0)
	lw	a7,32(a3)
	lw	a3,36(a3)
	addi	s4,s4,-2
.LVL711:
.LM2407:
	sub	s4,s4,a4
.LVL712:
.LM2408:
	sw	a3,0(sp)
	lw	a3,36(sp)
.LBE606:
.LM2409:
	sub	a5,s5,s6
.LBB607:
.LM2410:
	addi	a4,a4,2
.LM2411:
	add	a4,a2,a4
	addi	a6,sp,32
.LVL713:
.LM2412:
	sub	a5,s4,a5
	addi	a2,sp,40
	mv	a1,s3
	call	mbedtls_pk_sign
.LVL714:
.LM2413:
	mv	s1,a0
.LVL715:
.LM2414:
	beq	a0,zero,.L424
.LM2415:
	lui	a4,%hi(.LC137)
	li	a3,4096
	mv	a5,a0
	addi	a4,a4,%lo(.LC137)
	addi	a3,a3,-885
	j	.L585
.LVL716:
.L426:
.LM2416:
.LBE607:
.LBE617:
.LBE641:
.LM2417:
	lui	a4,%hi(.LC140)
	li	a3,4096
	addi	a4,a4,%lo(.LC140)
	addi	a3,a3,-780
.LVL717:
.L592:
.LM2418:
.LBE642:
.LBE659:
.LBB660:
.LBB661:
.LM2419:
	addi	a2,s2,%lo(.LC2)
	li	a1,2
	mv	a0,s0
	call	mbedtls_debug_print_msg
.LVL718:
.LM2420:
.L344:
.LM2421:
.LBE661:
.LBE660:
.LM2422:
	li	s1,0
	j	.L324
.L338:
.LM2423:
.LVL719:
.LBB663:
.LBI663:
.LM2424:
.LBB664:
.LM2425:
.LM2426:
.LM2427:
	lw	a5,64(s0)
.LM2428:
	lui	a4,%hi(.LC141)
	li	a3,4096
	addi	a4,a4,%lo(.LC141)
	addi	a3,a3,-1690
	addi	a2,s2,%lo(.LC2)
	li	a1,2
	mv	a0,s0
.LM2429:
	lw	s1,24(a5)
.LVL720:
.LM2430:
.LM2431:
.LM2432:
.LM2433:
.LM2434:
	lw	s3,216(s0)
.LVL721:
.LM2435:
.LM2436:
.LM2437:
	call	mbedtls_debug_print_msg
.LVL722:
.LM2438:
	mv	a0,s0
	call	mbedtls_ssl_handshake_increment_state
.LVL723:
.LM2439:
.LM2440:
	lw	a5,64(s0)
	lbu	a4,2(a5)
.LM2441:
	li	a5,3
	bne	a4,a5,.L427
.LM2442:
.LM2443:
	lw	a5,0(s0)
	lbu	a4,6(a5)
.L427:
.LVL724:
.LM2444:
	lbu	a5,10(s1)
.LBB665:
.LBI665:
.LM2445:
.LVL725:
.LBB666:
.LM2446:
	li	a3,4
	bgtu	a5,a3,.L428
	bne	a5,zero,.L429
.LVL726:
.L430:
.LM2447:
.LBE666:
.LBE665:
.LM2448:
	lui	a4,%hi(.LC142)
.LVL727:
.LM2449:
	li	a3,4096
	addi	a4,a4,%lo(.LC142)
	addi	a3,a3,-1677
	j	.L592
.LVL728:
.L428:
.LBB668:
.LBB667:
.LM2450:
	addi	a5,a5,-9
	andi	a5,a5,0xff
	li	a3,1
	bgtu	a5,a3,.L430
.L429:
.LVL729:
.LM2451:
.LBE667:
.LBE668:
.LM2452:
	beq	a4,zero,.L430
.LM2453:
.LM2454:
	lw	s7,216(s0)
.LVL730:
.LM2455:
.LM2456:
.LM2457:
.LM2458:
	li	a5,1
.LM2459:
	li	s1,-24576
.LVL731:
.LM2460:
	sb	a5,5(s7)
.LM2461:
.LVL732:
.LM2462:
	li	a5,64
	sb	a5,6(s7)
.LM2463:
.LVL733:
.LM2464:
	li	a5,2
	sb	a5,4(s7)
.LM2465:
.LVL734:
.LM2466:
.LM2467:
.LBB669:
.LBI669:
.LM2468:
.LBB670:
.LM2469:
.LM2470:
	lw	a5,0(s0)
.LBE670:
.LBE669:
.LM2471:
	addi	s1,s1,384
.LBB672:
.LBB671:
.LM2472:
	lw	s6,148(a5)
.LVL735:
.LM2473:
.LBE671:
.LBE672:
.LM2474:
.LM2475:
	beq	s6,zero,.L324
.LM2476:
	addi	s1,s7,7
.LVL736:
.LM2477:
	li	s5,0
.LBB673:
.LBB674:
.LBB675:
.LM2478:
	li	s8,771
.LBB676:
.LBB677:
.LM2479:
	li	s9,5
.LVL737:
.L432:
.LM2480:
.LBE677:
.LBE676:
.LBE675:
.LBE674:
.LBE673:
.LM2481:
.LM2482:
	lhu	s4,0(s6)
.LM2483:
	bne	s4,zero,.L434
.LM2484:
.LM2485:
.LVL738:
.LBB686:
.LBI686:
.LM2486:
.LBB687:
.LM2487:
.LM2488:
.LBE687:
.LBE686:
.LM2489:
	slli	a3,s5,16
	slli	a5,s5,8
	srli	a4,a3,24
.LBB689:
.LBB688:
.LM2490:
	srli	a5,a5,8
	sb	a4,7(s7)
	sb	a5,8(s7)
.LVL739:
.LM2491:
.LBE688:
.LBE689:
.LM2492:
.LM2493:
.LM2494:
.LM2495:
.LM2496:
	addi	a5,s5,4
	add	s1,s1,a5
.LVL740:
.LM2497:
.LM2498:
.LM2499:
	lw	a5,0(s0)
.LM2500:
	li	a4,1
	lbu	a3,14(a5)
	bne	a3,a4,.L435
.LM2501:
	lw	a4,64(s0)
.LM2502:
	li	s8,16384
	add	s8,s3,s8
.LM2503:
.LM2504:
	lw	s3,992(a4)
.LVL741:
.LM2505:
	bne	s3,zero,.L436
.LM2506:
.LM2507:
	lw	s3,240(a5)
.LM2508:
	bne	s3,zero,.L436
.LM2509:
.LM2510:
	lw	s3,548(a4)
.LM2511:
	bne	s3,zero,.L436
.LM2512:
.LM2513:
	lw	s3,112(a5)
.LVL742:
.L436:
.LM2514:
	lui	a5,%hi(.LC144)
	addi	s9,a5,%lo(.LC144)
.LVL743:
.L437:
.LM2515:
	beq	s3,zero,.L435
.LM2516:
	lw	a5,28(s3)
	beq	a5,zero,.L435
.LM2517:
.LVL744:
.LM2518:
.LM2519:
	bltu	s8,s1,.L438
	lhu	s6,72(s3)
.LM2520:
	sub	a5,s8,s1
.LM2521:
	addi	a4,s6,2
.LM2522:
	bgeu	a5,a4,.L439
.L438:
.LM2523:
	lui	a4,%hi(.LC143)
	li	a3,4096
	addi	a4,a4,%lo(.LC143)
	addi	a3,a3,-1560
	addi	a2,s2,%lo(.LC2)
	li	a1,1
	mv	a0,s0
	call	mbedtls_debug_print_msg
.LVL745:
.LM2524:
.L435:
.LM2525:
.LM2526:
	addi	a4,s0,128
.LM2527:
	li	a5,22
	sw	a5,92(a4)
.LM2528:
	lw	a5,88(a4)
.LM2529:
	sub	s1,s1,s7
.LVL746:
.LM2530:
	sw	s1,96(a4)
.LM2531:
.LM2532:
.LM2533:
	li	a3,13
	sb	a3,0(a5)
.LM2534:
.LM2535:
.LBB690:
.LBB691:
.LM2536:
	lw	a4,88(a4)
.LBE691:
.LBE690:
.LM2537:
	srli	a1,s4,8
	slli	a5,s4,8
	or	a5,a5,a1
.LVL747:
.LBB693:
.LBI690:
.LM2538:
.LBB692:
.LM2539:
.LM2540:
.LM2541:
	add	a4,a4,s5
	srli	a5,a5,8
.LVL748:
.LM2542:
	sb	a1,9(a4)
	sb	a5,10(a4)
.LVL749:
.LM2543:
.LBE692:
.LBE693:
.LM2544:
.LM2545:
.LM2546:
	mv	a0,s0
	call	mbedtls_ssl_write_handshake_msg
.LVL750:
.LM2547:
	lui	a4,%hi(.LC145)
	li	a3,4096
.LM2548:
	mv	s1,a0
.LVL751:
.LM2549:
	addi	a4,a4,%lo(.LC145)
	addi	a3,a3,-1537
	j	.L597
.LVL752:
.L434:
.LBB694:
.LM2550:
.LM2551:
.LM2552:
	srli	a1,s4,8
	mv	a0,s0
	call	mbedtls_ssl_set_calc_verify_md
.LVL753:
.LM2553:
	bne	a0,zero,.L433
.LM2554:
.LVL754:
.LBB682:
.LBI674:
.LM2555:
.LBB680:
.LM2556:
.LM2557:
	lhu	a5,16(s0)
	bne	a5,s8,.L433
.LBE680:
.LBE682:
.LM2558:
	lhu	a5,0(s6)
.LBB683:
.LBB681:
.LM2559:
.LVL755:
.LBB679:
.LBI676:
.LM2560:
.LBB678:
.LM2561:
.LM2562:
.LM2563:
.LM2564:
	srli	a3,a5,8
.LM2565:
	addi	a4,a3,-1
	bgtu	a4,s9,.L433
.LM2566:
	andi	a4,a5,253
	li	a2,1
	bne	a4,a2,.L433
.LVL756:
.LM2567:
.LBE678:
.LBE679:
.LBE681:
.LBE683:
.LM2568:
.LM2569:
	addi	s5,s5,2
.LVL757:
.LM2570:
.LM2571:
.LM2572:
	slli	a5,a5,8
.LVL758:
.LBB684:
.LBI684:
.LM2573:
.LBB685:
.LM2574:
.LM2575:
.LM2576:
	add	a4,s1,s5
.LVL759:
.LM2577:
	srli	a5,a5,8
.LVL760:
.LM2578:
	sb	a3,0(a4)
.LVL761:
.LM2579:
	sb	a5,1(a4)
.LVL762:
.L433:
.LM2580:
.LBE685:
.LBE684:
.LM2581:
.LBE694:
.LM2582:
	addi	s6,s6,2
.LVL763:
.LM2583:
	j	.L432
.LVL764:
.L439:
.LM2584:
.LM2585:
.LM2586:
	slli	a5,s6,8
	srli	a4,s6,8
.LVL765:
.LBB695:
.LBI695:
.LM2587:
.LBB696:
.LM2588:
.LM2589:
.LM2590:
	srli	a5,a5,8
.LVL766:
.LM2591:
	sb	a4,0(s1)
.LVL767:
.LM2592:
	sb	a5,1(s1)
.LVL768:
.LM2593:
.LBE696:
.LBE695:
.LM2594:
.LM2595:
.LM2596:
	lw	a1,76(s3)
.LM2597:
	addi	a5,s1,2
.LVL769:
.LM2598:
	mv	a2,s6
	mv	a0,a5
	sw	a5,28(sp)
	call	memcpy
.LVL770:
.LM2599:
.LM2600:
	lw	a5,28(sp)
.LM2601:
	li	a3,4096
	li	a1,3
	mv	a6,s6
	mv	a4,s9
	addi	a3,a3,-1551
	addi	a2,s2,%lo(.LC2)
	mv	a0,s0
.LM2602:
	add	s1,a5,s6
.LVL771:
.LM2603:
	call	mbedtls_debug_print_buf
.LVL772:
.LM2604:
	addi	a1,s4,2
.LM2605:
	add	a1,a1,s6
	slli	s4,a1,16
.LVL773:
.LM2606:
	lw	s3,400(s3)
.LVL774:
.LM2607:
	srli	s4,s4,16
.LVL775:
.LM2608:
	j	.L437
.LVL776:
.L337:
.LM2609:
.LBE664:
.LBE663:
.LM2610:
.LBB697:
.LBI660:
.LM2611:
.LBB662:
.LM2612:
.LM2613:
	lui	a4,%hi(.LC146)
	li	a3,4096
	addi	a4,a4,%lo(.LC146)
	addi	a3,a3,-771
	addi	a2,s2,%lo(.LC2)
	li	a1,2
	mv	a0,s0
	call	mbedtls_debug_print_msg
.LVL777:
.LM2614:
.LM2615:
	li	a5,4
	sw	a5,224(s0)
.LM2616:
.LM2617:
	li	a5,22
	sw	a5,220(s0)
.LM2618:
.LM2619:
	lw	a5,216(s0)
.LM2620:
	li	a4,14
.LM2621:
	mv	a0,s0
.LM2622:
	sb	a4,0(a5)
.LM2623:
	call	mbedtls_ssl_handshake_increment_state
.LVL778:
.LM2624:
.LM2625:
	lw	a5,0(s0)
.LM2626:
	lbu	a4,5(a5)
	li	a5,1
	bne	a4,a5,.L442
.LM2627:
	mv	a0,s0
	call	mbedtls_ssl_send_flight_completed
.LVL779:
.L442:
.LM2628:
.LM2629:
	mv	a0,s0
	call	mbedtls_ssl_write_handshake_msg
.LVL780:
	mv	s1,a0
.LVL781:
.LM2630:
	beq	a0,zero,.L443
.LM2631:
	lui	a4,%hi(.LC99)
	li	a3,4096
	mv	a5,a0
	addi	a4,a4,%lo(.LC99)
	addi	a3,a3,-756
	j	.L598
.L443:
.LM2632:
.LM2633:
	lw	a5,0(s0)
.LM2634:
	lbu	a1,5(a5)
	li	a5,1
	bne	a1,a5,.L444
.LM2635:
	mv	a0,s0
	sw	a1,28(sp)
	call	mbedtls_ssl_flight_transmit
.LVL782:
.LM2636:
	lw	a1,28(sp)
.LM2637:
	mv	s1,a0
.LVL783:
.LM2638:
	beq	a0,zero,.L444
.LM2639:
	lui	a4,%hi(.LC100)
	li	a3,4096
	mv	a5,a0
	addi	a4,a4,%lo(.LC100)
	addi	a3,a3,-749
	addi	a2,s2,%lo(.LC2)
	j	.L596
.L444:
.LM2640:
	lui	a4,%hi(.LC147)
	li	a3,4096
	addi	a4,a4,%lo(.LC147)
	addi	a3,a3,-744
	j	.L592
.LVL784:
.L336:
.LM2641:
.LBE662:
.LBE697:
.LM2642:
.LM2643:
	mv	a0,s0
.LM2644:
	lw	s0,200(sp)
	.cfi_remember_state
	.cfi_restore 8
.LVL785:
.LM2645:
	lw	ra,204(sp)
	.cfi_restore 1
	lw	s1,196(sp)
	.cfi_restore 9
	lw	s2,192(sp)
	.cfi_restore 18
	lw	s3,188(sp)
	.cfi_restore 19
	lw	s4,184(sp)
	.cfi_restore 20
	lw	s5,180(sp)
	.cfi_restore 21
	lw	s6,176(sp)
	.cfi_restore 22
	lw	s7,172(sp)
	.cfi_restore 23
	lw	s8,168(sp)
	.cfi_restore 24
	lw	s9,164(sp)
	.cfi_restore 25
	lw	s10,160(sp)
	.cfi_restore 26
	addi	sp,sp,208
	.cfi_def_cfa_offset 0
.LM2646:
	tail	mbedtls_ssl_parse_certificate
.LVL786:
.L335:
	.cfi_restore_state
.LM2647:
.LBB698:
.LBI556:
.LM2648:
.LBB562:
.LM2649:
.LM2650:
.LM2651:
.LM2652:
.LM2653:
	lw	a5,64(s0)
.LM2654:
	lui	a4,%hi(.LC148)
	li	a3,4096
	addi	a4,a4,%lo(.LC148)
	addi	a3,a3,-446
	addi	a2,s2,%lo(.LC2)
	li	a1,2
	mv	a0,s0
.LM2655:
	lw	s4,24(a5)
.LVL787:
.LM2656:
	call	mbedtls_debug_print_msg
.LVL788:
.LM2657:
.LM2658:
	li	a1,1
	mv	a0,s0
	call	mbedtls_ssl_read_record
.LVL789:
	mv	s1,a0
.LVL790:
.LM2659:
	beq	a0,zero,.L445
.LM2660:
	lui	a4,%hi(.LC149)
	li	a3,4096
	mv	a5,a0
	addi	a4,a4,%lo(.LC149)
	addi	a3,a3,-431
	j	.L598
.L445:
.LM2661:
.LBB558:
.LBB559:
.LM2662:
	lw	a5,0(s0)
.LBE559:
.LBE558:
.LM2663:
	lw	s3,120(s0)
.LBB561:
.LBI558:
.LM2664:
.LVL791:
.LBB560:
.LM2665:
.LM2666:
	li	a4,12
.LM2667:
	lbu	a3,5(a5)
	li	a5,1
	beq	a3,a5,.L447
.LM2668:
	li	a4,4
.L447:
.LVL792:
.LM2669:
.LBE560:
.LBE561:
.LM2670:
	lw	a3,128(s0)
.LM2671:
	add	a1,s3,a4
.LM2672:
	sw	a1,40(sp)
.LM2673:
.LVL793:
.LM2674:
.LM2675:
	li	a5,22
	beq	a3,a5,.L448
.LM2676:
	lui	a4,%hi(.LC6)
	li	a3,4096
	addi	a4,a4,%lo(.LC6)
	addi	a3,a3,-423
.LVL794:
.L587:
.LM2677:
	addi	a2,s2,%lo(.LC2)
	li	a1,1
	mv	a0,s0
.LM2678:
	li	s1,-28672
.LM2679:
	call	mbedtls_debug_print_msg
.LVL795:
.LM2680:
.LM2681:
	addi	s1,s1,-1792
	j	.L324
.LVL796:
.L448:
.LM2682:
.LM2683:
	lbu	a3,0(s3)
	li	a5,16
	beq	a3,a5,.L450
.LM2684:
	lui	a4,%hi(.LC6)
	li	a3,4096
	addi	a4,a4,%lo(.LC6)
	addi	a3,a3,-418
	j	.L587
.L450:
.LM2685:
	lbu	a5,10(s4)
.LM2686:
	lw	a2,168(s0)
.LM2687:
.LM2688:
	addi	a3,a5,-3
.LM2689:
	sltiu	a3,a3,2
	bne	a3,zero,.L510
.LM2690:
	addi	a3,a5,-9
.LM2691:
	sltiu	a3,a3,2
	beq	a3,zero,.L451
.L510:
.LM2692:
.LM2693:
	lw	a0,64(s0)
	sub	a2,a2,a4
	addi	a0,a0,164
	call	mbedtls_ecdh_read_public
.LVL797:
.LM2694:
	mv	a5,a0
.LVL798:
.LM2695:
	beq	a0,zero,.L453
.LM2696:
	lui	a4,%hi(.LC150)
	li	a3,4096
	addi	a4,a4,%lo(.LC150)
	addi	a3,a3,-318
.L588:
.LM2697:
	addi	a2,s2,%lo(.LC2)
	li	a1,1
	mv	a0,s0
.LVL799:
.LM2698:
	call	mbedtls_debug_print_ret
.LVL800:
.LM2699:
.L476:
.LM2700:
.LBE562:
.LBE698:
.LBB699:
.LBB656:
.LM2701:
	li	s1,-28672
	addi	s1,s1,-768
	j	.L324
.LVL801:
.L453:
.LM2702:
.LBE656:
.LBE699:
.LBB700:
.LBB563:
.LM2703:
.LM2704:
	lw	a4,64(s0)
.LM2705:
	li	a3,4096
	li	a5,1
	addi	a4,a4,164
	addi	a3,a3,-314
	addi	a2,s2,%lo(.LC2)
	li	a1,3
	mv	a0,s0
.LVL802:
.LM2706:
	call	mbedtls_debug_printf_ecdh
.LVL803:
.LM2707:
.LM2708:
	lw	a4,0(s0)
.LM2709:
	lw	a0,64(s0)
.LM2710:
	li	a3,1024
	lw	a5,36(a4)
	lw	a4,32(a4)
	addi	a2,a0,872
	addi	a1,a0,976
	addi	a0,a0,164
	call	mbedtls_ecdh_calc_secret
.LVL804:
	mv	a5,a0
.LVL805:
.LM2711:
	beq	a0,zero,.L455
.LM2712:
	lui	a4,%hi(.LC151)
	li	a3,4096
	addi	a4,a4,%lo(.LC151)
	addi	a3,a3,-306
	j	.L588
.L455:
.LM2713:
.LM2714:
	lw	a4,64(s0)
.LM2715:
	li	a3,4096
	li	a5,2
	addi	a4,a4,164
	addi	a3,a3,-302
	addi	a2,s2,%lo(.LC2)
	li	a1,3
	mv	a0,s0
.LVL806:
.LM2716:
	call	mbedtls_debug_printf_ecdh
.LVL807:
.L456:
.LM2717:
.LM2718:
	mv	a0,s0
	call	mbedtls_ssl_derive_keys
.LVL808:
	mv	s1,a0
.LVL809:
.LM2719:
	beq	a0,zero,.L464
.LM2720:
	lui	a4,%hi(.LC105)
	li	a3,4096
	mv	a5,a0
	addi	a4,a4,%lo(.LC105)
	addi	a3,a3,-45
	j	.L598
.LVL810:
.L451:
.LM2721:
	li	a4,5
.LM2722:
	add	s3,s3,a2
.LVL811:
.LM2723:
.LM2724:
	bne	a5,a4,.L457
.LM2725:
.LM2726:
	mv	a2,s3
	addi	a1,sp,40
	mv	a0,s0
	call	ssl_parse_client_psk_identity
.LVL812:
.LM2727:
	mv	s1,a0
.LVL813:
.LM2728:
	beq	a0,zero,.L458
.LM2729:
	lui	a4,%hi(.LC152)
	li	a3,4096
	mv	a5,a0
	addi	a4,a4,%lo(.LC152)
	addi	a3,a3,-291
	j	.L598
.L458:
.LM2730:
.LM2731:
	lw	a5,40(sp)
	beq	s3,a5,.L459
.LM2732:
	lui	a4,%hi(.LC153)
	li	a3,4096
	addi	a4,a4,%lo(.LC153)
	addi	a3,a3,-286
.LVL814:
.L591:
.LM2733:
.LBE563:
.LBE700:
.LBB701:
.LBB657:
.LM2734:
	addi	a2,s2,%lo(.LC2)
	li	a1,1
	mv	a0,s0
	call	mbedtls_debug_print_msg
.LVL815:
.LM2735:
.LM2736:
	j	.L476
.LVL816:
.L459:
.LM2737:
.LBE657:
.LBE701:
.LBB702:
.LBB564:
.LM2738:
.LM2739:
	lbu	a1,10(s4)
	mv	a0,s0
	call	mbedtls_ssl_psk_derive_premaster
.LVL817:
	mv	s1,a0
.LVL818:
.LM2740:
	beq	a0,zero,.L456
.LM2741:
	lui	a4,%hi(.LC154)
	li	a3,4096
	mv	a5,a0
	addi	a4,a4,%lo(.LC154)
	addi	a3,a3,-278
	j	.L598
.LVL819:
.L457:
.LM2742:
.LM2743:
	li	a4,8
	bne	a5,a4,.L461
.LM2744:
.LM2745:
	mv	a2,s3
	addi	a1,sp,40
	mv	a0,s0
	call	ssl_parse_client_psk_identity
.LVL820:
.LM2746:
	mv	s1,a0
.LVL821:
.LM2747:
	beq	a0,zero,.L462
.LM2748:
	lui	a4,%hi(.LC152)
	li	a3,4096
	mv	a5,a0
	addi	a4,a4,%lo(.LC152)
	addi	a3,a3,-111
	j	.L598
.L462:
.LM2749:
.LM2750:
	lw	a1,40(sp)
	lw	a0,64(s0)
	sub	a2,s3,a1
	addi	a0,a0,164
	call	mbedtls_ecdh_read_public
.LVL822:
	mv	a5,a0
.LVL823:
.LM2751:
	beq	a0,zero,.L463
.LM2752:
	lui	a4,%hi(.LC150)
	li	a3,4096
	addi	a4,a4,%lo(.LC150)
	addi	a3,a3,-105
	j	.L588
.L463:
.LM2753:
.LM2754:
	lw	a4,64(s0)
.LM2755:
	li	a3,4096
	li	a5,1
	addi	a4,a4,164
	addi	a3,a3,-101
	addi	a2,s2,%lo(.LC2)
	li	a1,3
	mv	a0,s0
.LVL824:
.LM2756:
	call	mbedtls_debug_printf_ecdh
.LVL825:
.LM2757:
.LM2758:
	lbu	a1,10(s4)
	mv	a0,s0
	call	mbedtls_ssl_psk_derive_premaster
.LVL826:
	mv	s1,a0
.LVL827:
.LM2759:
	beq	a0,zero,.L456
.LM2760:
	lui	a4,%hi(.LC154)
	li	a3,4096
	mv	a5,a0
	addi	a4,a4,%lo(.LC154)
	addi	a3,a3,-95
	j	.L598
.LVL828:
.L461:
.LM2761:
	lui	a4,%hi(.LC8)
	li	a3,4096
	addi	a4,a4,%lo(.LC8)
	addi	a3,a3,-50
	j	.L594
.LVL829:
.L464:
.LM2762:
	mv	a0,s0
	call	mbedtls_ssl_handshake_increment_state
.LVL830:
.LM2763:
	lui	a4,%hi(.LC155)
	li	a3,4096
	addi	a4,a4,%lo(.LC155)
	addi	a3,a3,-39
	j	.L597
.LVL831:
.L334:
.LM2764:
.LBE564:
.LBE702:
.LM2765:
.LBB703:
.LBI643:
.LM2766:
.LBB658:
.LM2767:
.LM2768:
.LM2769:
.LM2770:
.LM2771:
.LM2772:
.LM2773:
.LM2774:
.LM2775:
	lw	a5,64(s0)
.LM2776:
	lui	a4,%hi(.LC156)
	li	a3,4096
.LM2777:
	lw	s1,24(a5)
.LVL832:
.LM2778:
.LM2779:
	addi	a4,a4,%lo(.LC156)
	addi	a3,a3,-1
	addi	a2,s2,%lo(.LC2)
	li	a1,2
	mv	a0,s0
	call	mbedtls_debug_print_msg
.LVL833:
.LM2780:
	lbu	a5,10(s1)
.LBB645:
.LBI645:
.LM2781:
.LVL834:
.LBB646:
.LM2782:
	li	a4,4
	bgtu	a5,a4,.L465
	bne	a5,zero,.L466
.L467:
.LM2783:
.LVL835:
.LM2784:
.LBE646:
.LBE645:
.LM2785:
	lui	a4,%hi(.LC157)
	li	a3,4096
	addi	a4,a4,%lo(.LC157)
	addi	a3,a3,2
	j	.L589
.LVL836:
.L465:
.LBB648:
.LBB647:
.LM2786:
	addi	a5,a5,-9
	andi	a5,a5,0xff
	li	a4,1
	bgtu	a5,a4,.L467
.L466:
.LVL837:
.LM2787:
.LBE647:
.LBE648:
.LM2788:
.LM2789:
	lw	a5,60(s0)
.LM2790:
	lw	a5,96(a5)
	bne	a5,zero,.L469
.LM2791:
	lui	a4,%hi(.LC157)
	li	a3,4096
	addi	a4,a4,%lo(.LC157)
	addi	a3,a3,9
	j	.L589
.L469:
.LM2792:
.LM2793:
	li	a1,0
	mv	a0,s0
	call	mbedtls_ssl_read_record
.LVL838:
	mv	s1,a0
.LVL839:
.LM2794:
.LM2795:
	beq	a0,zero,.L471
.LM2796:
	lui	a4,%hi(.LC149)
	li	a3,4096
	mv	a5,a0
	addi	a4,a4,%lo(.LC149)
	addi	a3,a3,24
	j	.L598
.L471:
.LM2797:
	mv	a0,s0
	call	mbedtls_ssl_handshake_increment_state
.LVL840:
.LM2798:
.LM2799:
	lw	a4,128(s0)
	li	a5,22
	bne	a4,a5,.L472
.LM2800:
	lw	a5,120(s0)
.LM2801:
	li	a4,15
	lbu	a3,0(a5)
	beq	a3,a4,.L473
.L472:
.LM2802:
	lui	a4,%hi(.LC158)
	li	a3,4096
	addi	a4,a4,%lo(.LC158)
	addi	a3,a3,33
	j	.L587
.L473:
.LM2803:
.LBB649:
.LBI649:
.LM2804:
.LVL841:
.LBB650:
.LM2805:
.LM2806:
	lw	a4,0(s0)
.LM2807:
	li	s3,12
.LM2808:
	lbu	a3,5(a4)
	li	a4,1
	beq	a3,a4,.L474
.LM2809:
	li	s3,4
.L474:
.LVL842:
.LM2810:
.LBE650:
.LBE649:
.LM2811:
.LM2812:
	lw	a4,60(s0)
.LM2813:
	li	s1,-28672
.LVL843:
.LM2814:
	addi	s1,s1,1024
.LM2815:
	lw	s4,96(a4)
.LM2816:
	beq	s4,zero,.L324
.LM2817:
.LVL844:
.LM2818:
.LM2819:
	lw	a4,168(s0)
.LM2820:
	addi	s1,s3,2
.LM2821:
	bleu	s1,a4,.L475
.LM2822:
	lui	a4,%hi(.LC158)
	li	a3,4096
	addi	a4,a4,%lo(.LC158)
	addi	a3,a3,56
	j	.L591
.L475:
.LM2823:
.LM2824:
	add	a5,a5,s3
	lbu	a0,0(a5)
	call	mbedtls_ssl_md_alg_from_hash
.LVL845:
	mv	s5,a0
.LVL846:
.LM2825:
.LM2826:
	bne	a0,zero,.L477
.LVL847:
.L479:
.LM2827:
	lui	a4,%hi(.LC159)
	li	a3,4096
	addi	a4,a4,%lo(.LC159)
	addi	a3,a3,66
.LVL848:
.L590:
.LM2828:
	addi	a2,s2,%lo(.LC2)
	li	a1,1
	mv	a0,s0
.LM2829:
	li	s1,-24576
.LM2830:
	call	mbedtls_debug_print_msg
.LVL849:
.LM2831:
.LM2832:
	addi	s1,s1,-1536
	j	.L324
.LVL850:
.L477:
.LM2833:
	lw	a5,120(s0)
.LM2834:
	mv	a0,s0
.LVL851:
.LM2835:
	add	a5,a5,s3
.LM2836:
	lbu	a1,0(a5)
	call	mbedtls_ssl_set_calc_verify_md
.LVL852:
.LM2837:
	bne	a0,zero,.L479
.LM2838:
.LM2839:
	li	a5,5
.LM2840:
	addi	s6,sp,56
.LM2841:
	beq	s5,a5,.L480
.LM2842:
	addi	s6,sp,40
.LVL853:
.L480:
.LM2843:
.LM2844:
.LM2845:
.LM2846:
	lw	a5,120(s0)
	add	a5,a5,s3
	lbu	a0,1(a5)
	call	mbedtls_ssl_pk_alg_from_sig
.LVL854:
	mv	a1,a0
.LVL855:
.LM2847:
	bne	a0,zero,.L481
.LM2848:
	lui	a4,%hi(.LC159)
	li	a3,4096
	addi	a4,a4,%lo(.LC159)
	addi	a3,a3,87
	j	.L590
.L481:
.LM2849:
.LM2850:
	addi	a0,s4,204
.LVL856:
.LM2851:
	call	mbedtls_pk_can_do
.LVL857:
.LM2852:
	bne	a0,zero,.L482
.LM2853:
	lui	a4,%hi(.LC160)
	li	a3,4096
	addi	a4,a4,%lo(.LC160)
	addi	a3,a3,96
	j	.L590
.L482:
.LM2854:
.LVL858:
.LM2855:
.LM2856:
	lw	a3,168(s0)
.LM2857:
	addi	s3,s3,4
.LM2858:
	bleu	s3,a3,.L483
.LM2859:
	lui	a4,%hi(.LC158)
	li	a3,4096
	addi	a4,a4,%lo(.LC158)
	addi	a3,a3,103
	j	.L591
.L483:
.LM2860:
.LVL859:
.LBB651:
.LBI651:
.LM2861:
.LBB652:
.LM2862:
.LM2863:
.LM2864:
.LM2865:
.LM2866:
	lw	a4,120(s0)
	add	a4,a4,s1
.LVL860:
.LM2867:
	lbu	a5,0(a4)
	lbu	a4,1(a4)
.LVL861:
.LM2868:
.LBE652:
.LBE651:
.LM2869:
	slli	a5,a5,8
.LBB654:
.LBB653:
.LM2870:
	slli	a4,a4,8
.LBE653:
.LBE654:
.LM2871:
	srli	a4,a4,8
	or	a5,a5,a4
.LVL862:
.LM2872:
.LM2873:
.LM2874:
	add	a4,s3,a5
.LM2875:
	beq	a3,a4,.L484
.LM2876:
	lui	a4,%hi(.LC158)
	li	a3,4096
	addi	a4,a4,%lo(.LC158)
	addi	a3,a3,111
	j	.L591
.L484:
.LBB655:
.LM2877:
	lw	a4,64(s0)
.LM2878:
	addi	a2,sp,36
	addi	a1,sp,40
	lw	a4,32(a4)
	mv	a0,s0
	sw	a5,28(sp)
.LM2879:
.LM2880:
.LM2881:
	jalr	a4
.LVL863:
.LM2882:
	lw	a5,28(sp)
.LM2883:
	mv	s1,a0
.LVL864:
.LM2884:
.LM2885:
	beq	a0,zero,.L485
.LM2886:
	lui	a4,%hi(.LC161)
	li	a3,4096
	mv	a5,a0
	addi	a4,a4,%lo(.LC161)
	addi	a3,a3,120
	j	.L598
.L485:
.LM2887:
.LBE655:
.LM2888:
.LM2889:
	lw	a4,120(s0)
.LM2890:
	li	a3,0
	mv	a2,s6
	add	a4,a4,s3
	mv	a1,s5
	addi	a0,s4,204
	call	mbedtls_pk_verify
.LVL865:
	mv	s1,a0
.LVL866:
.LM2891:
	beq	a0,zero,.L486
.LM2892:
	lui	a4,%hi(.LC162)
	li	a3,4096
	mv	a5,a0
	addi	a4,a4,%lo(.LC162)
	addi	a3,a3,128
	j	.L598
.L486:
.LM2893:
.LM2894:
	mv	a0,s0
	call	mbedtls_ssl_update_handshake_status
.LVL867:
	mv	s1,a0
.LVL868:
.LM2895:
.LM2896:
	beq	a0,zero,.L487
.LM2897:
	lui	a4,%hi(.LC163)
	li	a3,4096
	mv	a5,a0
	addi	a4,a4,%lo(.LC163)
	addi	a3,a3,134
	j	.L598
.L487:
.LM2898:
	lui	a4,%hi(.LC164)
	li	a3,4096
	addi	a4,a4,%lo(.LC164)
	addi	a3,a3,138
	j	.L592
.LVL869:
.L333:
.LM2899:
.LBE658:
.LBE703:
.LM2900:
.LM2901:
	mv	a0,s0
.LM2902:
	lw	s0,200(sp)
	.cfi_remember_state
	.cfi_restore 8
.LVL870:
.LM2903:
	lw	ra,204(sp)
	.cfi_restore 1
	lw	s1,196(sp)
	.cfi_restore 9
	lw	s2,192(sp)
	.cfi_restore 18
	lw	s3,188(sp)
	.cfi_restore 19
	lw	s4,184(sp)
	.cfi_restore 20
	lw	s5,180(sp)
	.cfi_restore 21
	lw	s6,176(sp)
	.cfi_restore 22
	lw	s7,172(sp)
	.cfi_restore 23
	lw	s8,168(sp)
	.cfi_restore 24
	lw	s9,164(sp)
	.cfi_restore 25
	lw	s10,160(sp)
	.cfi_restore 26
	addi	sp,sp,208
	.cfi_def_cfa_offset 0
.LM2904:
	tail	mbedtls_ssl_parse_change_cipher_spec
.LVL871:
.L332:
	.cfi_restore_state
.LM2905:
.LM2906:
	mv	a0,s0
.LM2907:
	lw	s0,200(sp)
	.cfi_remember_state
	.cfi_restore 8
.LVL872:
.LM2908:
	lw	ra,204(sp)
	.cfi_restore 1
	lw	s1,196(sp)
	.cfi_restore 9
	lw	s2,192(sp)
	.cfi_restore 18
	lw	s3,188(sp)
	.cfi_restore 19
	lw	s4,184(sp)
	.cfi_restore 20
	lw	s5,180(sp)
	.cfi_restore 21
	lw	s6,176(sp)
	.cfi_restore 22
	lw	s7,172(sp)
	.cfi_restore 23
	lw	s8,168(sp)
	.cfi_restore 24
	lw	s9,164(sp)
	.cfi_restore 25
	lw	s10,160(sp)
	.cfi_restore 26
	addi	sp,sp,208
	.cfi_def_cfa_offset 0
.LM2909:
	tail	mbedtls_ssl_parse_finished
.LVL873:
.L331:
	.cfi_restore_state
.LM2910:
.LM2911:
	lw	a5,64(s0)
.LM2912:
	lbu	a5,4(a5)
	beq	a5,zero,.L488
.LM2913:
.LVL874:
.LBB704:
.LBI567:
.LM2914:
.LBB576:
.LM2915:
.LM2916:
.LM2917:
.LM2918:
	lui	a4,%hi(.LC165)
	li	a3,4096
	addi	a4,a4,%lo(.LC165)
	addi	a3,a3,152
	addi	a2,s2,%lo(.LC2)
	li	a1,2
	mv	a0,s0
	call	mbedtls_debug_print_msg
.LVL875:
.LM2919:
.LM2920:
	addi	a5,s0,128
	li	a4,22
	sw	a4,92(a5)
.LM2921:
.LM2922:
	lw	a4,88(a5)
.LM2923:
	li	a3,4
	sb	a3,0(a4)
.LM2924:
.LM2925:
	lw	a0,0(s0)
.LM2926:
	lw	a2,88(a5)
.LM2927:
	lw	a1,60(s0)
	lw	a6,88(a0)
	lw	a0,96(a0)
	li	a3,16384
	addi	a5,sp,40
	add	a3,a2,a3
	addi	a4,sp,36
	addi	a2,a2,10
	jalr	a6
.LVL876:
	mv	a5,a0
.LVL877:
.LM2928:
	beq	a0,zero,.L489
.LM2929:
	lui	a4,%hi(.LC166)
	li	a3,4096
	addi	a4,a4,%lo(.LC166)
	addi	a3,a3,176
	addi	a2,s2,%lo(.LC2)
	li	a1,1
	mv	a0,s0
.LVL878:
.LM2930:
	call	mbedtls_debug_print_ret
.LVL879:
.LM2931:
.LM2932:
	sw	zero,36(sp)
.L489:
.LM2933:
.LM2934:
.LM2935:
	lw	a0,40(sp)
.LM2936:
	lw	s1,216(s0)
.LM2937:
	call	__bswapsi2
.LVL880:
.LBB569:
.LBI569:
.LM2938:
.LBB570:
.LM2939:
.LM2940:
.LM2941:
	srli	a5,a0,8
	sb	a0,4(s1)
	sb	a5,5(s1)
	srli	a5,a0,16
	srli	a0,a0,24
.LVL881:
.LM2942:
	sb	a0,7(s1)
.LVL882:
.LM2943:
.LBE570:
.LBE569:
.LM2944:
.LM2945:
.LM2946:
.LBB572:
.LBB571:
.LM2947:
	sb	a5,6(s1)
.LBE571:
.LBE572:
.LM2948:
	lw	a5,36(sp)
.LM2949:
	lw	a3,216(s0)
.LM2950:
	mv	a0,s0
.LM2951:
	slli	a1,a5,16
	slli	a4,a5,8
	srli	a2,a1,24
.LVL883:
.LBB573:
.LBI573:
.LM2952:
.LBB574:
.LM2953:
.LM2954:
.LM2955:
	srli	a4,a4,8
.LVL884:
.LM2956:
	sb	a2,8(a3)
	sb	a4,9(a3)
.LVL885:
.LM2957:
.LBE574:
.LBE573:
.LM2958:
.LM2959:
.LM2960:
	addi	a5,a5,10
.LM2961:
	sw	a5,224(s0)
.LM2962:
.LM2963:
	lw	a5,64(s0)
.LM2964:
	sb	zero,4(a5)
.LM2965:
.LM2966:
	call	mbedtls_ssl_write_handshake_msg
.LVL886:
.LM2967:
	mv	s1,a0
.LVL887:
.LM2968:
	beq	a0,zero,.L490
.LM2969:
	lui	a4,%hi(.LC99)
	li	a3,4096
	mv	a5,a0
	addi	a4,a4,%lo(.LC99)
	addi	a3,a3,191
	j	.L598
.L490:
.LM2970:
	lui	a4,%hi(.LC167)
	li	a3,4096
	addi	a4,a4,%lo(.LC167)
	addi	a3,a3,195
	j	.L597
.LVL888:
.L488:
.LM2971:
.LBE576:
.LBE704:
.LM2972:
.LM2973:
	mv	a0,s0
.LM2974:
	lw	s0,200(sp)
	.cfi_remember_state
	.cfi_restore 8
.LVL889:
.LM2975:
	lw	ra,204(sp)
	.cfi_restore 1
	lw	s1,196(sp)
	.cfi_restore 9
	lw	s2,192(sp)
	.cfi_restore 18
	lw	s3,188(sp)
	.cfi_restore 19
	lw	s4,184(sp)
	.cfi_restore 20
	lw	s5,180(sp)
	.cfi_restore 21
	lw	s6,176(sp)
	.cfi_restore 22
	lw	s7,172(sp)
	.cfi_restore 23
	lw	s8,168(sp)
	.cfi_restore 24
	lw	s9,164(sp)
	.cfi_restore 25
	lw	s10,160(sp)
	.cfi_restore 26
	addi	sp,sp,208
	.cfi_def_cfa_offset 0
.LM2976:
	tail	mbedtls_ssl_write_change_cipher_spec
.LVL890:
.L330:
	.cfi_restore_state
.LM2977:
.LM2978:
	mv	a0,s0
.LM2979:
	lw	s0,200(sp)
	.cfi_remember_state
	.cfi_restore 8
.LVL891:
.LM2980:
	lw	ra,204(sp)
	.cfi_restore 1
	lw	s1,196(sp)
	.cfi_restore 9
	lw	s2,192(sp)
	.cfi_restore 18
	lw	s3,188(sp)
	.cfi_restore 19
	lw	s4,184(sp)
	.cfi_restore 20
	lw	s5,180(sp)
	.cfi_restore 21
	lw	s6,176(sp)
	.cfi_restore 22
	lw	s7,172(sp)
	.cfi_restore 23
	lw	s8,168(sp)
	.cfi_restore 24
	lw	s9,164(sp)
	.cfi_restore 25
	lw	s10,160(sp)
	.cfi_restore 26
	addi	sp,sp,208
	.cfi_def_cfa_offset 0
.LM2981:
	tail	mbedtls_ssl_write_finished
.LVL892:
.L329:
	.cfi_restore_state
.LM2982:
	lui	a4,%hi(.LC168)
	li	a3,4096
	li	a1,2
	addi	a4,a4,%lo(.LC168)
	addi	a3,a3,300
	addi	a2,s2,%lo(.LC2)
	mv	a0,s0
	call	mbedtls_debug_print_msg
.LVL893:
.LM2983:
	li	a1,15
	j	.L593
.L328:
.LM2984:
	mv	a0,s0
	call	mbedtls_ssl_handshake_wrapup
.LVL894:
.LM2985:
	j	.L344
.L325:
.LM2986:
	lui	a4,%hi(.LC169)
	li	a3,4096
	addi	a4,a4,%lo(.LC169)
	addi	a3,a3,309
	addi	a2,s2,%lo(.LC2)
	li	a1,1
	mv	a0,s0
.LM2987:
	li	s1,-28672
.LM2988:
	call	mbedtls_debug_print_msg
.LVL895:
.LM2989:
.LM2990:
	addi	s1,s1,-256
	j	.L324
.L492:
.LM2991:
	li	s1,-28672
	addi	s1,s1,1408
	j	.L324
	.cfi_endproc
.LFE203:
	.size	mbedtls_ssl_handshake_server_step, .-mbedtls_ssl_handshake_server_step
	.section	.text.mbedtls_ssl_conf_preference_order,"ax",@progbits
	.align	1
	.globl	mbedtls_ssl_conf_preference_order
	.type	mbedtls_ssl_conf_preference_order, @function
mbedtls_ssl_conf_preference_order:
.LVL896:
.LFB204:
.LM2992:
	.cfi_startproc
.LM2993:
.LM2994:
	sb	a1,15(a0)
.LM2995:
	ret
	.cfi_endproc
.LFE204:
	.size	mbedtls_ssl_conf_preference_order, .-mbedtls_ssl_conf_preference_order
	.section	.rodata.str1.4,"aMS",@progbits,1
	.align	2
.LC170:
	.string	"MBEDTLS_TLS_SRTP_AES128_CM_HMAC_SHA1_80"
	.align	2
.LC171:
	.string	"MBEDTLS_TLS_SRTP_AES128_CM_HMAC_SHA1_32"
	.align	2
.LC172:
	.string	""
	.align	2
.LC173:
	.string	"MBEDTLS_TLS_SRTP_NULL_HMAC_SHA1_80"
	.align	2
.LC174:
	.string	"MBEDTLS_TLS_SRTP_NULL_HMAC_SHA1_32"
	.section	.rodata.CSWTCH.74,"a"
	.align	2
	.type	CSWTCH.74, @object
	.size	CSWTCH.74, 24
CSWTCH.74:
	.word	.LC170
	.word	.LC171
	.word	.LC172
	.word	.LC172
	.word	.LC173
	.word	.LC174
	.section	.srodata,"a"
	.align	2
.LC0:
	.half	515
	.half	513
	.half	0
	.text
.Letext0:
	.section	.note.GNU-stack,"",@progbits
