	.file	"x509_csr.c"
	.option nopic
	.attribute arch, "rv32i2p1_m2p0_f2p2_c2p0_zicsr2p0_zmmul1p0_zca1p0_zcf1p0"
	.attribute unaligned_access, 0
	.attribute stack_align, 16
	.text
.Ltext0:
	.cfi_sections	.debug_frame
	.section	.rodata.mbedtls_x509_csr_info.str1.4,"aMS",@progbits,1
	.align	2
.LC0:
	.string	"%sCSR version   : %d"
	.align	2
.LC1:
	.string	"\n%ssubject name  : "
	.align	2
.LC2:
	.string	"\n%ssigned using  : "
	.align	2
.LC3:
	.string	"\n%s%-14s: %d bits\n"
	.align	2
.LC4:
	.string	"\n%ssubject alt name  :"
	.align	2
.LC5:
	.string	"\n%scert. type        : "
	.align	2
.LC6:
	.string	"\n%skey usage         : "
	.align	2
.LC7:
	.string	"\n"
	.section	.text.mbedtls_x509_csr_info,"ax",@progbits
	.align	1
	.globl	mbedtls_x509_csr_info
	.type	mbedtls_x509_csr_info, @function
mbedtls_x509_csr_info:
.LVL0:
.LFB87:
.LM1:
	.cfi_startproc
.LM2:
.LM3:
.LM4:
.LM5:
.LM6:
.LM7:
	addi	sp,sp,-80
	.cfi_def_cfa_offset 80
	sw	s0,72(sp)
	sw	s1,68(sp)
	sw	s2,64(sp)
	sw	ra,76(sp)
	sw	s3,60(sp)
	sw	s4,56(sp)
	.cfi_offset 8, -8
	.cfi_offset 9, -12
	.cfi_offset 18, -16
	.cfi_offset 1, -4
	.cfi_offset 19, -20
	.cfi_offset 20, -24
.LM8:
	lw	a4,24(a3)
.LM9:
	mv	s2,a2
	mv	s0,a3
.LM10:
	mv	a3,a2
.LVL1:
.LM11:
	lui	a2,%hi(.LC0)
.LVL2:
.LM12:
	addi	a2,a2,%lo(.LC0)
.LM13:
	mv	s1,a1
.LM14:
	sw	a0,28(sp)
.LM15:
.LM16:
	sw	a1,24(sp)
.LM17:
.LM18:
	call	snprintf
.LVL3:
.LM19:
.LM20:
.LM21:
	bge	a0,zero,.L2
.L4:
.LM22:
	li	a0,-12288
.LVL4:
.LM23:
	addi	a0,a0,1664
.LVL5:
.L1:
.LM24:
	lw	ra,76(sp)
	.cfi_remember_state
	.cfi_restore 1
	lw	s0,72(sp)
	.cfi_restore 8
.LVL6:
.LM25:
	lw	s1,68(sp)
	.cfi_restore 9
.LVL7:
.LM26:
	lw	s2,64(sp)
	.cfi_restore 18
.LVL8:
.LM27:
	lw	s3,60(sp)
	.cfi_restore 19
	lw	s4,56(sp)
	.cfi_restore 20
	addi	sp,sp,80
	.cfi_def_cfa_offset 0
	jr	ra
.LVL9:
.L2:
	.cfi_restore_state
.LM28:
	lw	a1,24(sp)
.LM29:
	bgeu	a0,a1,.L4
.LM30:
.LM31:
	lw	a5,28(sp)
.LM32:
	lui	a2,%hi(.LC1)
.LM33:
	sub	a1,a1,a0
.LM34:
	mv	a3,s2
.LM35:
	add	a0,a5,a0
.LVL10:
.LM36:
	addi	a2,a2,%lo(.LC1)
.LM37:
	sw	a1,24(sp)
.LM38:
.LM39:
	sw	a0,28(sp)
.LM40:
.LM41:
.LM42:
	call	snprintf
.LVL11:
.LM43:
.LM44:
.LM45:
	blt	a0,zero,.L4
.LM46:
	lw	a1,24(sp)
.LM47:
	bgeu	a0,a1,.L4
.LM48:
.LM49:
	lw	a5,28(sp)
.LM50:
	sub	a1,a1,a0
.LM51:
	addi	a2,s0,40
.LM52:
	add	a0,a5,a0
.LVL12:
.LM53:
	sw	a1,24(sp)
.LM54:
.LM55:
	sw	a0,28(sp)
.LM56:
.LM57:
.LM58:
	call	mbedtls_x509_dn_gets
.LVL13:
.LM59:
.LM60:
.LM61:
	blt	a0,zero,.L4
.LM62:
	lw	a1,24(sp)
.LM63:
	bgeu	a0,a1,.L4
.LM64:
.LM65:
	lw	a5,28(sp)
.LM66:
	lui	a2,%hi(.LC2)
.LM67:
	sub	a1,a1,a0
.LM68:
	mv	a3,s2
.LM69:
	add	a0,a5,a0
.LVL14:
.LM70:
	addi	a2,a2,%lo(.LC2)
.LM71:
	sw	a1,24(sp)
.LM72:
.LM73:
	sw	a0,28(sp)
.LM74:
.LM75:
.LM76:
	call	snprintf
.LVL15:
.LM77:
.LM78:
.LM79:
	blt	a0,zero,.L4
.LM80:
	lw	a1,24(sp)
.LM81:
	bgeu	a0,a1,.L4
.LM82:
.LM83:
	lw	a5,28(sp)
.LM84:
	sub	a1,a1,a0
.LM85:
	lbu	a4,132(s0)
.LM86:
	add	a0,a5,a0
.LVL16:
.LM87:
	lbu	a3,133(s0)
	lw	a5,136(s0)
	addi	a2,s0,108
.LM88:
	sw	a1,24(sp)
.LM89:
.LM90:
	sw	a0,28(sp)
.LM91:
.LM92:
.LM93:
	call	mbedtls_x509_sig_alg_gets
.LVL17:
.LM94:
.LM95:
.LM96:
	blt	a0,zero,.L4
.LM97:
	lw	a5,24(sp)
.LM98:
	bgeu	a0,a5,.L4
.LM99:
.LM100:
	sub	a5,a5,a0
	sw	a5,24(sp)
.LM101:
.LM102:
	lw	a5,28(sp)
	add	a5,a5,a0
.LM103:
	addi	a0,s0,72
.LVL18:
.LM104:
	sw	a5,28(sp)
.LM105:
.LM106:
.LM107:
	call	mbedtls_pk_get_name
.LVL19:
	mv	a2,a0
.LM108:
	li	a1,14
	addi	a0,sp,32
	call	mbedtls_x509_key_size_helper
.LVL20:
.LM109:
	bne	a0,zero,.L1
.LM110:
.LM111:
	lw	a1,24(sp)
.LM112:
	addi	a0,s0,72
.LVL21:
.LM113:
	lw	s4,28(sp)
	sw	a1,12(sp)
.LM114:
	call	mbedtls_pk_get_bitlen
.LVL22:
.LM115:
	lw	a1,12(sp)
	lui	a2,%hi(.LC3)
.LM116:
	mv	a5,a0
.LM117:
	addi	a4,sp,32
	mv	a3,s2
	addi	a2,a2,%lo(.LC3)
	mv	a0,s4
	call	snprintf
.LVL23:
.LM118:
.LM119:
.LM120:
	blt	a0,zero,.L4
.LM121:
	lw	a1,24(sp)
.LM122:
	bgeu	a0,a1,.L4
.LM123:
.LM124:
	lw	a5,28(sp)
.LM125:
	sub	a1,a1,a0
	sw	a1,24(sp)
.LM126:
.LM127:
	add	a0,a5,a0
.LVL24:
.LM128:
	lw	a5,104(s0)
.LM129:
	sw	a0,28(sp)
.LM130:
.LM131:
.LM132:
	andi	a5,a5,32
.LM133:
	bne	a5,zero,.L5
.LVL25:
.L8:
.LM134:
.LM135:
	lw	a5,104(s0)
.LM136:
	slli	a4,a5,15
	bge	a4,zero,.L7
.LM137:
.LM138:
	lw	a1,24(sp)
	lw	a0,28(sp)
	lui	a2,%hi(.LC5)
	mv	a3,s2
	addi	a2,a2,%lo(.LC5)
	call	snprintf
.LVL26:
.LM139:
.LM140:
.LM141:
	blt	a0,zero,.L4
.LM142:
	lw	a5,24(sp)
.LM143:
	bgeu	a0,a5,.L4
.LM144:
.LM145:
	sub	a5,a5,a0
	sw	a5,24(sp)
.LM146:
.LM147:
	lw	a5,28(sp)
.LM148:
	lbu	a2,84(s0)
	addi	a1,sp,24
.LM149:
	add	a5,a5,a0
.LM150:
	addi	a0,sp,28
.LVL27:
.LM151:
	sw	a5,28(sp)
.LM152:
.LM153:
.LM154:
	call	mbedtls_x509_info_cert_type
.LVL28:
.LM155:
	bne	a0,zero,.L1
.LVL29:
.L7:
.LM156:
.LM157:
	lw	a5,104(s0)
	andi	a5,a5,4
.LM158:
	beq	a5,zero,.L10
.LM159:
.LM160:
	lw	a1,24(sp)
	lw	a0,28(sp)
	lui	a2,%hi(.LC6)
	mv	a3,s2
	addi	a2,a2,%lo(.LC6)
	call	snprintf
.LVL30:
.LM161:
.LM162:
.LM163:
	blt	a0,zero,.L4
.LM164:
	lw	a5,24(sp)
.LM165:
	bgeu	a0,a5,.L4
.LM166:
.LM167:
	sub	a5,a5,a0
	sw	a5,24(sp)
.LM168:
.LM169:
	lw	a5,28(sp)
.LM170:
	lw	a2,80(s0)
	addi	a1,sp,24
.LM171:
	add	a5,a5,a0
.LM172:
	addi	a0,sp,28
.LVL31:
.LM173:
	sw	a5,28(sp)
.LM174:
.LM175:
.LM176:
	call	mbedtls_x509_info_key_usage
.LVL32:
.LM177:
	bne	a0,zero,.L1
.LVL33:
.L10:
.LM178:
.LM179:
	lw	a5,104(s0)
	beq	a5,zero,.L12
.LM180:
.LM181:
	lw	a1,24(sp)
	lw	a0,28(sp)
	lui	a2,%hi(.LC7)
	addi	a2,a2,%lo(.LC7)
	call	snprintf
.LVL34:
.LM182:
.LM183:
.LM184:
	blt	a0,zero,.L4
.LM185:
	lw	a5,24(sp)
.LM186:
	bgeu	a0,a5,.L4
.LM187:
.LM188:
	sub	a5,a5,a0
	sw	a5,24(sp)
.LM189:
.LVL35:
.L12:
.LM190:
.LM191:
.LM192:
	lw	a0,24(sp)
	sub	a0,s1,a0
.LM193:
	j	.L1
.LVL36:
.L5:
.LM194:
.LM195:
	lui	a2,%hi(.LC4)
	mv	a3,s2
	addi	a2,a2,%lo(.LC4)
	call	snprintf
.LVL37:
.LM196:
.LM197:
.LM198:
	blt	a0,zero,.L4
.LM199:
	lw	a5,24(sp)
.LM200:
	bgeu	a0,a5,.L4
.LM201:
.LM202:
	sub	a5,a5,a0
	sw	a5,24(sp)
.LM203:
.LM204:
	lw	a5,28(sp)
.LM205:
	mv	a3,s2
	addi	a2,s0,88
.LM206:
	add	a5,a5,a0
.LM207:
	addi	a1,sp,24
	addi	a0,sp,28
.LVL38:
.LM208:
	sw	a5,28(sp)
.LM209:
.LM210:
.LM211:
	call	mbedtls_x509_info_subject_alt_name
.LVL39:
.LM212:
	beq	a0,zero,.L8
	j	.L1
	.cfi_endproc
.LFE87:
	.size	mbedtls_x509_csr_info, .-mbedtls_x509_csr_info
	.section	.text.mbedtls_x509_csr_init,"ax",@progbits
	.align	1
	.globl	mbedtls_x509_csr_init
	.type	mbedtls_x509_csr_init, @function
mbedtls_x509_csr_init:
.LVL40:
.LFB88:
.LM213:
	.cfi_startproc
.LM214:
	li	a2,140
	li	a1,0
	tail	memset
.LVL41:
.LM215:
	.cfi_endproc
.LFE88:
	.size	mbedtls_x509_csr_init, .-mbedtls_x509_csr_init
	.section	.text.mbedtls_x509_csr_free,"ax",@progbits
	.align	1
	.globl	mbedtls_x509_csr_free
	.type	mbedtls_x509_csr_free, @function
mbedtls_x509_csr_free:
.LVL42:
.LFB89:
.LM216:
	.cfi_startproc
.LM217:
.LM218:
	beq	a0,zero,.L16
.LM219:
	addi	sp,sp,-16
	.cfi_def_cfa_offset 16
	sw	s0,8(sp)
	.cfi_offset 8, -8
	mv	s0,a0
.LVL43:
.LBB46:
.LBI46:
.LM220:
.LBB47:
.LM221:
	addi	a0,a0,72
.LVL44:
.LM222:
.LBE47:
.LBE46:
.LM223:
	sw	ra,12(sp)
	.cfi_offset 1, -4
.LBB51:
.LBB48:
.LM224:
	call	mbedtls_pk_free
.LVL45:
.LM225:
	lw	a0,64(s0)
	call	mbedtls_asn1_free_named_data_list_shallow
.LVL46:
.LM226:
	lw	a0,100(s0)
	call	mbedtls_asn1_sequence_free
.LVL47:
.LM227:
.LM228:
	lw	a0,8(s0)
.LM229:
	beq	a0,zero,.L18
.LM230:
	lw	a1,4(s0)
	call	mbedtls_zeroize_and_free
.LVL48:
.L18:
.LM231:
	mv	a0,s0
.LBE48:
.LBE51:
.LM232:
	lw	s0,8(sp)
	.cfi_restore 8
.LVL49:
.LM233:
	lw	ra,12(sp)
	.cfi_restore 1
.LBB52:
.LBB49:
.LM234:
	li	a1,140
.LBE49:
.LBE52:
.LM235:
	addi	sp,sp,16
	.cfi_def_cfa_offset 0
.LBB53:
.LBB50:
.LM236:
	tail	mbedtls_platform_zeroize
.LVL50:
.L16:
.LM237:
	ret
.LBE50:
.LBE53:
	.cfi_endproc
.LFE89:
	.size	mbedtls_x509_csr_free, .-mbedtls_x509_csr_free
	.section	.rodata.mbedtls_x509_csr_parse_der_internal.str1.4,"aMS",@progbits,1
	.align	2
.LC8:
	.base64	"KoZIhvcNAQkOAA=="
	.section	.text.mbedtls_x509_csr_parse_der_internal,"ax",@progbits
	.align	1
	.type	mbedtls_x509_csr_parse_der_internal, @function
mbedtls_x509_csr_parse_der_internal:
.LVL51:
.LFB83:
.LM238:
	.cfi_startproc
.LM239:
.LM240:
.LM241:
.LM242:
.LM243:
.LM244:
	addi	sp,sp,-128
	.cfi_def_cfa_offset 128
	sw	s1,116(sp)
	sw	s2,112(sp)
	sw	s3,108(sp)
	.cfi_offset 9, -12
	.cfi_offset 18, -16
	.cfi_offset 19, -20
	mv	s2,a2
	mv	s3,a1
	mv	s1,a0
.LM245:
	li	a2,12
.LVL52:
.LM246:
	li	a1,0
.LVL53:
.LM247:
	addi	a0,sp,44
.LVL54:
.LM248:
	sw	s4,104(sp)
	sw	s10,80(sp)
	sw	ra,124(sp)
	.cfi_offset 20, -24
	.cfi_offset 26, -48
	.cfi_offset 1, -4
	mv	s10,a4
	sw	s0,120(sp)
	sw	s5,100(sp)
	sw	s6,96(sp)
	sw	s7,92(sp)
	sw	s8,88(sp)
	sw	s9,84(sp)
	.cfi_offset 8, -8
	.cfi_offset 21, -28
	.cfi_offset 22, -32
	.cfi_offset 23, -36
	.cfi_offset 24, -40
	.cfi_offset 25, -44
.LM249:
	mv	s4,a3
.LM250:
	call	memset
.LVL55:
.LM251:
.LM252:
	seqz	a5,s2
.LM253:
	seqz	a4,s3
.LM254:
	or	a5,a5,a4
	bne	a5,zero,.L73
	beq	s1,zero,.L73
.LM255:
	mv	a0,s1
	call	mbedtls_x509_csr_init
.LVL56:
.LM256:
.LM257:
	mv	a1,s2
	li	a0,1
	sw	s2,16(sp)
	call	calloc
.LVL57:
.LM258:
	li	s0,-12288
.LM259:
	sw	a0,20(sp)
.LM260:
.LM261:
	addi	s0,s0,1920
.LM262:
	beq	a0,zero,.L25
.LM263:
	mv	a2,s2
	mv	a1,s3
	call	memcpy
.LVL58:
.LM264:
.LM265:
	lw	a1,20(sp)
.LM266:
	lw	a5,16(sp)
.LM267:
	li	a3,48
.LM268:
	sw	a1,8(s1)
.LM269:
.LM270:
	sw	a5,4(s1)
.LM271:
.LM272:
	add	a1,a1,a5
.LVL59:
.LM273:
.LM274:
	addi	a2,sp,16
	addi	a0,sp,20
	sw	a1,12(sp)
	call	mbedtls_asn1_get_tag
.LVL60:
.LM275:
	lw	a1,12(sp)
	beq	a0,zero,.L27
.LM276:
	mv	a0,s1
.LVL61:
.LM277:
	li	s0,-8192
.LM278:
	call	mbedtls_x509_csr_free
.LVL62:
.LM279:
.LM280:
	addi	s0,s0,-384
.LVL63:
.L25:
.LM281:
	lw	ra,124(sp)
	.cfi_remember_state
	.cfi_restore 1
	mv	a0,s0
	lw	s0,120(sp)
	.cfi_restore 8
	lw	s1,116(sp)
	.cfi_restore 9
.LVL64:
.LM282:
	lw	s2,112(sp)
	.cfi_restore 18
	lw	s3,108(sp)
	.cfi_restore 19
	lw	s4,104(sp)
	.cfi_restore 20
.LVL65:
.LM283:
	lw	s5,100(sp)
	.cfi_restore 21
	lw	s6,96(sp)
	.cfi_restore 22
	lw	s7,92(sp)
	.cfi_restore 23
	lw	s8,88(sp)
	.cfi_restore 24
	lw	s9,84(sp)
	.cfi_restore 25
	lw	s10,80(sp)
	.cfi_restore 26
.LVL66:
.LM284:
	addi	sp,sp,128
	.cfi_def_cfa_offset 0
	jr	ra
.LVL67:
.L27:
	.cfi_restore_state
.LM285:
.LM286:
	lw	a5,20(sp)
.LM287:
	lw	a4,16(sp)
.LM288:
	sub	a3,a1,a5
.LM289:
	beq	a3,a4,.L28
.LVL68:
.L102:
.LM290:
	mv	a0,s1
.LVL69:
.LM291:
	li	s0,-8192
.LM292:
	call	mbedtls_x509_csr_free
.LVL70:
.LM293:
.LM294:
	addi	s0,s0,-486
	j	.L25
.LVL71:
.L28:
.LM295:
.LM296:
	sw	a5,20(s1)
.LM297:
.LM298:
	li	a3,48
	addi	a2,sp,16
	addi	a0,sp,20
.LVL72:
.LM299:
	call	mbedtls_asn1_get_tag
.LVL73:
	mv	s0,a0
.LVL74:
.LM300:
	beq	a0,zero,.L30
.LVL75:
.L105:
.LM301:
	mv	a0,s1
	call	mbedtls_x509_csr_free
.LVL76:
.LM302:
.LBB86:
.LBI86:
.LM303:
.LBB87:
.LM304:
.LM305:
.LM306:
.LM307:
	li	a5,-8192
	addi	a5,a5,-384
	add	s0,s0,a5
.LVL77:
.LM308:
.LBE87:
.LBE86:
.LM309:
	j	.L25
.LVL78:
.L30:
.LM310:
.LM311:
	lw	a5,16(sp)
	lw	s2,20(sp)
.LVL79:
.LBB88:
.LBB89:
.LM312:
	addi	a2,s1,24
	addi	a0,sp,20
.LBE89:
.LBE88:
.LM313:
	add	s2,s2,a5
.LVL80:
.LM314:
.LM315:
	lw	a5,20(s1)
.LBB95:
.LBB92:
.LM316:
	mv	a1,s2
.LBE92:
.LBE95:
.LM317:
	sub	a5,s2,a5
.LM318:
	sw	a5,16(s1)
.LM319:
.LVL81:
.LBB96:
.LBI88:
.LM320:
.LBB93:
.LM321:
.LM322:
.LM323:
	call	mbedtls_asn1_get_int
.LVL82:
.LM324:
	beq	a0,zero,.L31
.LM325:
.LM326:
	li	a5,-98
	bne	a0,a5,.L32
.LM327:
.LM328:
	sw	zero,24(s1)
.LM329:
.LVL83:
.L31:
.LM330:
.LBE93:
.LBE96:
.LM331:
.LM332:
	lw	a5,24(s1)
	beq	a5,zero,.L33
.LM333:
	mv	a0,s1
.LM334:
	li	s0,-8192
.LM335:
	call	mbedtls_x509_csr_free
.LVL84:
.LM336:
.LM337:
	addi	s0,s0,-1408
	j	.L25
.LVL85:
.L32:
.LBB97:
.LBB94:
.LM338:
.LBB90:
.LBI90:
.LM339:
.LBB91:
.LM340:
.LM341:
.LM342:
.LM343:
	li	a5,-8192
	addi	a5,a5,-512
	add	s0,a0,a5
.LVL86:
.LM344:
.LBE91:
.LBE90:
.LBE94:
.LBE97:
.LM345:
	beq	s0,zero,.L31
.LVL87:
.L106:
.LM346:
	mv	a0,s1
	call	mbedtls_x509_csr_free
.LVL88:
.LM347:
.LM348:
	j	.L25
.LVL89:
.L33:
.LM349:
.LM350:
	li	a5,1
	sw	a5,24(s1)
.LM351:
.LM352:
	lw	a5,20(sp)
.LM353:
	li	a3,48
	addi	a2,sp,16
.LM354:
	sw	a5,36(s1)
.LM355:
.LM356:
	mv	a1,s2
	addi	a0,sp,20
	call	mbedtls_asn1_get_tag
.LVL90:
	mv	s0,a0
.LVL91:
.LM357:
	bne	a0,zero,.L105
.LM358:
.LM359:
	lw	a1,20(sp)
	lw	a5,16(sp)
	addi	a2,s1,40
	addi	a0,sp,20
	add	a1,a1,a5
	call	mbedtls_x509_get_name
.LVL92:
	mv	s0,a0
.LVL93:
.LM360:
	bne	a0,zero,.L106
.LM361:
.LM362:
	lw	a4,36(s1)
	lw	a5,20(sp)
.LM363:
	addi	a2,s1,72
	mv	a1,s2
.LM364:
	sub	a5,a5,a4
.LM365:
	sw	a5,32(s1)
.LM366:
.LM367:
	addi	a0,sp,20
	call	mbedtls_pk_parse_subpubkey
.LVL94:
	mv	s0,a0
.LVL95:
.LM368:
	bne	a0,zero,.L106
.LM369:
.LM370:
	li	a3,160
	addi	a2,sp,16
	mv	a1,s2
	addi	a0,sp,20
	call	mbedtls_asn1_get_tag
.LVL96:
	mv	s0,a0
.LVL97:
.LM371:
	bne	a0,zero,.L105
.LM372:
.LM373:
	lw	s2,20(sp)
.LVL98:
.LM374:
	lw	s3,16(sp)
.LVL99:
.LBB98:
.LBB99:
.LBB100:
.LM375:
	lui	a5,%hi(.LC8)
	sw	s2,24(sp)
.LBE100:
.LBE99:
.LBE98:
.LM376:
	add	s3,s2,s3
.LVL100:
.LBB128:
.LBI98:
.LM377:
.LBB124:
.LM378:
.LM379:
.LM380:
.LM381:
.LM382:
.LBB119:
.LM383:
	li	s6,6
.LM384:
	addi	s9,a5,%lo(.LC8)
.LVL101:
.L38:
.LM385:
.LBE119:
.LM386:
	bgtu	s3,s2,.L68
.LM387:
.LM388:
	beq	s3,s2,.L67
	j	.L65
.L68:
.LBB120:
.LM389:
.LM390:
	li	a3,48
	addi	a2,sp,28
	mv	a1,s3
	addi	a0,sp,24
.LVL102:
.LM391:
	sw	zero,56(sp)
	sw	zero,60(sp)
	sw	zero,64(sp)
.LM392:
.LM393:
	call	mbedtls_asn1_get_tag
.LVL103:
.LM394:
	beq	a0,zero,.L39
.L97:
.LM395:
.LVL104:
.LBB101:
.LBI101:
.LM396:
.LBB102:
.LM397:
.LM398:
.LM399:
.LM400:
	li	a5,-8192
	addi	a5,a5,-1280
	add	s0,a0,a5
.LVL105:
.LM401:
.LBE102:
.LBE101:
.LBE120:
.LBE124:
.LBE128:
.LM402:
	bne	s0,zero,.L106
.LVL106:
.L67:
.LM403:
.LM404:
	lw	a5,20(sp)
	lw	a4,16(sp)
.LM405:
	lw	s2,8(s1)
.LM406:
	addi	a3,sp,44
.LM407:
	add	a5,a5,a4
	sw	a5,20(sp)
.LM408:
.LM409:
	lw	a5,4(s1)
.LM410:
	addi	a2,s1,108
	addi	a0,sp,20
.LM411:
	add	s2,s2,a5
.LVL107:
.LM412:
.LM413:
	mv	a1,s2
	call	mbedtls_x509_get_alg
.LVL108:
	mv	s0,a0
.LVL109:
.LM414:
	bne	a0,zero,.L106
.LM415:
.LM416:
	addi	a4,s1,136
	addi	a3,s1,133
	addi	a2,s1,132
	addi	a1,sp,44
	addi	a0,s1,108
	call	mbedtls_x509_get_sig_alg
.LVL110:
.LM417:
	beq	a0,zero,.L71
.LM418:
	mv	a0,s1
.LVL111:
.LM419:
	li	s0,-8192
.LM420:
	call	mbedtls_x509_csr_free
.LVL112:
.LM421:
.LM422:
	addi	s0,s0,-1536
	j	.L25
.LVL113:
.L39:
.LBB129:
.LBB125:
.LBB121:
.LM423:
.LM424:
	lw	s2,24(sp)
	lw	a5,28(sp)
.LM425:
	li	a3,6
	addi	a2,sp,60
.LM426:
	add	s2,s2,a5
.LVL114:
.LM427:
.LM428:
	mv	a1,s2
	addi	a0,sp,24
.LVL115:
.LM429:
	call	mbedtls_asn1_get_tag
.LVL116:
.LM430:
	bne	a0,zero,.L97
.LM431:
.LM432:
	lw	a1,24(sp)
.LM433:
	lw	a2,60(sp)
.LM434:
	sw	s6,56(sp)
.LM435:
.LM436:
	sw	a1,64(sp)
.LM437:
.LM438:
	add	a5,a1,a2
	sw	a5,24(sp)
.LM439:
.LM440:
	li	a5,9
	beq	a2,a5,.L42
.LVL117:
.L43:
.LM441:
.LM442:
	sw	s2,24(sp)
	j	.L38
.LVL118:
.L42:
.LM443:
	mv	a0,s9
.LVL119:
.LM444:
	call	memcmp
.LVL120:
.LM445:
	bne	a0,zero,.L43
.LM446:
.LM447:
	li	a3,49
	addi	a2,sp,28
	mv	a1,s3
	addi	a0,sp,24
.LVL121:
.LM448:
	call	mbedtls_asn1_get_tag
.LVL122:
.LM449:
	bne	a0,zero,.L97
.LM450:
.LM451:
	li	a3,48
	addi	a2,sp,28
	mv	a1,s3
	addi	a0,sp,24
.LVL123:
.LM452:
	call	mbedtls_asn1_get_tag
.LVL124:
.LM453:
	bne	a0,zero,.L97
.LM454:
.LM455:
	lw	s5,24(sp)
	lw	a5,28(sp)
.LBB103:
.LBB104:
.LBB105:
.LM456:
	li	s7,6
.LBE105:
.LBE104:
.LBE103:
.LM457:
	add	s5,s5,a5
.LVL125:
.LBB115:
.LBI103:
.LM458:
.LBB111:
.LM459:
.LM460:
.LM461:
.LM462:
.L46:
.LM463:
.LM464:
	lw	a5,24(sp)
.LM465:
	bgtu	s5,a5,.L63
.LM466:
.LM467:
	beq	s5,a5,.L62
.LVL126:
.L65:
.LM468:
.LBE111:
.LBE115:
.LBE121:
.LM469:
	li	s0,-8192
	addi	s0,s0,-1382
.LBE125:
.LBE129:
.LM470:
	j	.L106
.LVL127:
.L63:
.LBB130:
.LBB126:
.LBB122:
.LBB116:
.LBB112:
.LBB108:
.LM471:
.LM472:
	li	a3,48
	addi	a2,sp,32
	mv	a1,s5
	addi	a0,sp,24
.LVL128:
.LM473:
	sw	zero,68(sp)
	sw	zero,72(sp)
	sw	zero,76(sp)
.LM474:
.LM475:
	sw	zero,36(sp)
.LM476:
.LM477:
	sw	zero,40(sp)
.LM478:
.LM479:
	call	mbedtls_asn1_get_tag
.LVL129:
.LM480:
	beq	a0,zero,.L47
.L96:
.LM481:
.LVL130:
.LBB106:
.LBI106:
.LM482:
.LBB107:
.LM483:
.LM484:
.LM485:
.LM486:
	li	a5,-8192
	addi	a5,a5,-1280
	add	s0,a0,a5
.LVL131:
.LM487:
.LBE107:
.LBE106:
.LBE108:
.LBE112:
.LBE116:
.LM488:
	bne	s0,zero,.L106
.LVL132:
.L62:
.LM489:
.LM490:
	lw	a5,24(sp)
	beq	s2,a5,.L43
	j	.L65
.LVL133:
.L47:
.LBB117:
.LBB113:
.LBB109:
.LM491:
.LM492:
	lw	s0,24(sp)
	lw	a5,32(sp)
.LM493:
	li	a3,6
	addi	a2,sp,72
.LM494:
	add	s0,s0,a5
.LVL134:
.LM495:
.LM496:
	mv	a1,s0
	addi	a0,sp,24
.LVL135:
.LM497:
	call	mbedtls_asn1_get_tag
.LVL136:
.LM498:
	bne	a0,zero,.L96
.LM499:
.LM500:
	lw	a5,24(sp)
.LM501:
	lw	a4,72(sp)
.LM502:
	addi	a2,sp,36
.LM503:
	sw	a5,76(sp)
.LM504:
	mv	a1,s0
.LM505:
	add	a5,a5,a4
.LM506:
	addi	a0,sp,24
.LVL137:
.LM507:
	sw	s7,68(sp)
.LM508:
.LM509:
.LM510:
	sw	a5,24(sp)
.LM511:
.LM512:
	call	mbedtls_asn1_get_bool
.LVL138:
.LM513:
	beq	a0,zero,.L50
	addi	a5,a0,98
	bne	a5,zero,.L96
.L50:
.LM514:
.LM515:
	li	a3,4
	addi	a2,sp,32
	mv	a1,s0
	addi	a0,sp,24
.LVL139:
.LM516:
	call	mbedtls_asn1_get_tag
.LVL140:
.LM517:
	bne	a0,zero,.L96
.LM518:
.LM519:
	lw	s8,24(sp)
	lw	a5,32(sp)
	add	s8,s8,a5
.LVL141:
.LM520:
.LM521:
	bne	s0,s8,.L65
.LM522:
.LM523:
	addi	a1,sp,40
	addi	a0,sp,68
.LVL142:
.LM524:
	call	mbedtls_oid_get_x509_ext_type
.LVL143:
.LM525:
.LM526:
	beq	a0,zero,.L53
.LM527:
.LM528:
	lw	a3,36(sp)
.LM529:
	beq	s4,zero,.L54
.LM530:
.LM531:
	lw	a4,24(sp)
	mv	a5,s8
	addi	a2,sp,68
	mv	a1,s1
	mv	a0,s10
.LVL144:
.LM532:
	jalr	s4
.LVL145:
	mv	s0,a0
.LVL146:
.LM533:
.LM534:
	beq	a0,zero,.L55
.LM535:
	lw	a5,36(sp)
	bne	a5,zero,.L106
.L55:
.LM536:
.LM537:
	sw	s8,24(sp)
.LM538:
	j	.L46
.LVL147:
.L54:
.LM539:
.LM540:
	sw	s0,24(sp)
.LM541:
.LM542:
	beq	a3,zero,.L46
.LM543:
	li	s0,-8192
.LVL148:
.LM544:
	addi	s0,s0,-1378
	j	.L106
.LVL149:
.L53:
.LM545:
.LM546:
	lw	a4,104(s1)
.LM547:
	lw	a5,40(sp)
	and	a3,a4,a5
.LM548:
	bne	a3,zero,.L77
.LM549:
.LM550:
	or	a4,a4,a5
	sw	a4,104(s1)
.LM551:
	li	a4,32
	beq	a5,a4,.L58
	li	a4,65536
	beq	a5,a4,.L59
	li	a4,4
	bne	a5,a4,.L60
.LM552:
.LM553:
	addi	a2,s1,80
	mv	a1,s0
	addi	a0,sp,24
.LVL150:
.LM554:
	call	mbedtls_x509_get_key_usage
.LVL151:
.L101:
.LM555:
	mv	s0,a0
.LVL152:
.LM556:
	beq	a0,zero,.L46
	j	.L106
.LVL153:
.L58:
.LM557:
.LM558:
	addi	a2,s1,88
	mv	a1,s0
	addi	a0,sp,24
.LVL154:
.LM559:
	call	mbedtls_x509_get_subject_alt_name
.LVL155:
.LM560:
	j	.L101
.LVL156:
.L59:
.LM561:
.LM562:
	addi	a2,s1,84
	mv	a1,s0
	addi	a0,sp,24
.LVL157:
.LM563:
	call	mbedtls_x509_get_ns_cert_type
.LVL158:
.LM564:
	j	.L101
.LVL159:
.L60:
.LM565:
.LM566:
	lw	a5,36(sp)
	bne	a5,zero,.L78
.LM567:
.LM568:
	sw	s0,24(sp)
	j	.L46
.LVL160:
.L71:
.LM569:
.LBE109:
.LBE113:
.LBE117:
.LBE122:
.LBE126:
.LBE130:
.LM570:
.LM571:
	addi	a2,s1,120
	mv	a1,s2
	addi	a0,sp,20
.LVL161:
.LM572:
	call	mbedtls_x509_get_sig
.LVL162:
	mv	s0,a0
.LVL163:
.LM573:
	bne	a0,zero,.L106
.LM574:
.LM575:
	lw	a5,20(sp)
	beq	a5,s2,.L25
	j	.L102
.LVL164:
.L73:
.LM576:
	li	s0,-8192
	addi	s0,s0,-2048
	j	.L25
.LVL165:
.L77:
.LBB131:
.LBB127:
.LBB123:
.LBB118:
.LBB114:
.LBB110:
.LM577:
	li	s0,-8192
.LVL166:
.LM578:
	addi	s0,s0,-1384
	j	.L106
.LVL167:
.L78:
.LM579:
	li	s0,-8192
.LVL168:
.LM580:
	addi	s0,s0,-128
.LVL169:
.LM581:
	j	.L106
.LBE110:
.LBE114:
.LBE118:
.LBE123:
.LBE127:
.LBE131:
	.cfi_endproc
.LFE83:
	.size	mbedtls_x509_csr_parse_der_internal, .-mbedtls_x509_csr_parse_der_internal
	.section	.text.mbedtls_x509_csr_parse_der,"ax",@progbits
	.align	1
	.globl	mbedtls_x509_csr_parse_der
	.type	mbedtls_x509_csr_parse_der, @function
mbedtls_x509_csr_parse_der:
.LVL170:
.LFB84:
.LM582:
	.cfi_startproc
.LM583:
.LM584:
	li	a4,0
	li	a3,0
	tail	mbedtls_x509_csr_parse_der_internal
.LVL171:
.LM585:
	.cfi_endproc
.LFE84:
	.size	mbedtls_x509_csr_parse_der, .-mbedtls_x509_csr_parse_der
	.section	.text.mbedtls_x509_csr_parse,"ax",@progbits
	.align	1
	.globl	mbedtls_x509_csr_parse
	.type	mbedtls_x509_csr_parse, @function
mbedtls_x509_csr_parse:
.LVL172:
.LFB86:
.LM586:
	.cfi_startproc
.LM587:
.LM588:
	seqz	a5,a1
.LM589:
	seqz	a4,a2
	or	a5,a5,a4
	bne	a5,zero,.L109
	beq	a0,zero,.L109
.LM590:
.LM591:
	tail	mbedtls_x509_csr_parse_der
.LVL173:
.L109:
.LM592:
	li	a0,-8192
.LVL174:
.LM593:
	addi	a0,a0,-2048
	ret
	.cfi_endproc
.LFE86:
	.size	mbedtls_x509_csr_parse, .-mbedtls_x509_csr_parse
	.section	.text.mbedtls_x509_csr_parse_der_with_ext_cb,"ax",@progbits
	.align	1
	.globl	mbedtls_x509_csr_parse_der_with_ext_cb
	.type	mbedtls_x509_csr_parse_der_with_ext_cb, @function
mbedtls_x509_csr_parse_der_with_ext_cb:
.LVL175:
.LFB85:
.LM594:
	.cfi_startproc
.LM595:
.LM596:
	tail	mbedtls_x509_csr_parse_der_internal
.LVL176:
.LM597:
	.cfi_endproc
.LFE85:
	.size	mbedtls_x509_csr_parse_der_with_ext_cb, .-mbedtls_x509_csr_parse_der_with_ext_cb
	.text
.Letext0:
	.section	.note.GNU-stack,"",@progbits
