	.file	"platform_device.c"
	.option nopic
	.attribute arch, "rv32i2p1_m2p0_f2p2_c2p0_zicsr2p0_zmmul1p0_zca1p0_zcf1p0"
	.attribute unaligned_access, 0
	.attribute stack_align, 16
	.text
.Ltext0:
	.cfi_sections	.debug_frame
	.file 0 "/home/chandu/sdk/bl602_iot_sdk/customer_app/suas_app_pqkem_gateway/build_out/bl602_std" "/home/chandu/sdk/bl602_iot_sdk/components/bl602/bl602_std/bl602_std/Common/platform_print/platform_device.c"
	.section	.sbss.uart_dbg_disable,"aw",@nobits
	.type	uart_dbg_disable, @object
	.size	uart_dbg_disable, 1
uart_dbg_disable:
	.zero	1
	.section	.rodata.hexTable,"a"
	.align	2
	.type	hexTable, @object
	.size	hexTable, 16
hexTable:
	.ascii	"0123456789ABCDEF"
	.section	.sbss.systick_int_cnt,"aw",@nobits
	.align	2
	.type	systick_int_cnt, @object
	.size	systick_int_cnt, 4
systick_int_cnt:
	.zero	4
	.section	.bss.uartRB,"aw",@nobits
	.align	2
	.type	uartRB, @object
	.size	uartRB, 24
uartRB:
	.zero	24
	.section	.bss.uartBuf,"aw",@nobits
	.align	2
	.type	uartBuf, @object
	.size	uartBuf, 64
uartBuf:
	.zero	64
	.section	.sbss.init_flag,"aw",@nobits
	.align	2
	.type	init_flag, @object
	.size	init_flag, 4
init_flag:
	.zero	4
	.section	.rodata
	.align	2
.LC2:
	.string	"UART Recv Full\r\n"
	.section	.text.UART_RFR_Cbf,"ax",@progbits
	.align	1
	.type	UART_RFR_Cbf, @function
UART_RFR_Cbf:
.LFB8:
	.file 1 "/home/chandu/sdk/bl602_iot_sdk/components/bl602/bl602_std/bl602_std/Common/platform_print/platform_device.c"
	.loc 1 46 1
	.cfi_startproc
	addi	sp,sp,-48
	.cfi_def_cfa_offset 48
	sw	ra,44(sp)
	sw	s0,40(sp)
	.cfi_offset 1, -4
	.cfi_offset 8, -8
	addi	s0,sp,48
	.cfi_def_cfa 8, 0
	.loc 1 48 18
	li	a0,0
	call	UART_GetRxFifoCount
	mv	a5,a0
	.loc 1 48 14 discriminator 1
	sw	a5,-20(s0)
	.loc 1 49 5
	lw	a5,-20(s0)
	slli	a4,a5,16
	srli	a4,a4,16
	li	a3,0
	lui	a5,%hi(UART_ReceiveData)
	addi	a2,a5,%lo(UART_ReceiveData)
	mv	a1,a4
	lui	a5,%hi(uartRB)
	addi	a0,a5,%lo(uartRB)
	call	Ring_Buffer_Write_Callback
	.loc 1 53 9
	li	a0,0
	call	UART_GetRxFifoCount
	mv	a5,a0
	.loc 1 53 8 discriminator 1
	sw	a5,-20(s0)
	.loc 1 54 7
	lw	a5,-20(s0)
	beq	a5,zero,.L4
	.loc 1 54 16 discriminator 1
	lui	a5,%hi(uartRB)
	addi	a0,a5,%lo(uartRB)
	call	Ring_Buffer_Get_Empty_Length
	mv	a5,a0
	.loc 1 54 14 discriminator 2
	bne	a5,zero,.L4
	.loc 1 55 9
	lui	a5,%hi(.LC2)
	addi	a0,a5,%lo(.LC2)
	call	bflb_platform_printf
.L3:
	.loc 1 57 13
	addi	a5,s0,-36
	li	a2,16
	mv	a1,a5
	li	a0,0
	call	UART_ReceiveData
	.loc 1 58 16 discriminator 2
	li	a0,0
	call	UART_GetRxFifoCount
	mv	a5,a0
	bne	a5,zero,.L3
.L4:
	.loc 1 60 1
	nop
	lw	ra,44(sp)
	.cfi_restore 1
	lw	s0,40(sp)
	.cfi_restore 8
	.cfi_def_cfa 2, 48
	addi	sp,sp,48
	.cfi_def_cfa_offset 0
	jr	ra
	.cfi_endproc
.LFE8:
	.size	UART_RFR_Cbf, .-UART_RFR_Cbf
	.section	.text.UART_RTO_Cbf,"ax",@progbits
	.align	1
	.type	UART_RTO_Cbf, @function
UART_RTO_Cbf:
.LFB9:
	.loc 1 73 1
	.cfi_startproc
	addi	sp,sp,-48
	.cfi_def_cfa_offset 48
	sw	ra,44(sp)
	sw	s0,40(sp)
	.cfi_offset 1, -4
	.cfi_offset 8, -8
	addi	s0,sp,48
	.cfi_def_cfa 8, 0
	.loc 1 75 18
	li	a0,0
	call	UART_GetRxFifoCount
	mv	a5,a0
	.loc 1 75 14 discriminator 1
	sw	a5,-20(s0)
	.loc 1 76 5
	lw	a5,-20(s0)
	slli	a4,a5,16
	srli	a4,a4,16
	li	a3,0
	lui	a5,%hi(UART_ReceiveData)
	addi	a2,a5,%lo(UART_ReceiveData)
	mv	a1,a4
	lui	a5,%hi(uartRB)
	addi	a0,a5,%lo(uartRB)
	call	Ring_Buffer_Write_Callback
	.loc 1 80 9
	li	a0,0
	call	UART_GetRxFifoCount
	mv	a5,a0
	.loc 1 80 8 discriminator 1
	sw	a5,-20(s0)
	.loc 1 81 7
	lw	a5,-20(s0)
	beq	a5,zero,.L8
	.loc 1 81 16 discriminator 1
	lui	a5,%hi(uartRB)
	addi	a0,a5,%lo(uartRB)
	call	Ring_Buffer_Get_Empty_Length
	mv	a5,a0
	.loc 1 81 14 discriminator 2
	bne	a5,zero,.L8
	.loc 1 82 9
	lui	a5,%hi(.LC2)
	addi	a0,a5,%lo(.LC2)
	call	bflb_platform_printf
.L7:
	.loc 1 84 13
	addi	a5,s0,-36
	li	a2,16
	mv	a1,a5
	li	a0,0
	call	UART_ReceiveData
	.loc 1 85 16 discriminator 2
	li	a0,0
	call	UART_GetRxFifoCount
	mv	a5,a0
	bne	a5,zero,.L7
.L8:
	.loc 1 87 1
	nop
	lw	ra,44(sp)
	.cfi_restore 1
	lw	s0,40(sp)
	.cfi_restore 8
	.cfi_def_cfa 2, 48
	addi	sp,sp,48
	.cfi_def_cfa_offset 0
	jr	ra
	.cfi_endproc
.LFE9:
	.size	UART_RTO_Cbf, .-UART_RTO_Cbf
	.section	.rodata
	.align	2
.LC0:
	.word	32000000
	.word	2000000
	.byte	3
	.byte	0
	.byte	0
	.byte	0
	.byte	0
	.byte	0
	.byte	0
	.zero	1
	.section	.srodata,"a"
	.align	2
.LC1:
	.byte	16
	.byte	16
	.byte	0
	.byte	0
	.section	.text.bflb_platform_uart_dbg_init,"ax",@progbits
	.align	1
	.globl	bflb_platform_uart_dbg_init
	.type	bflb_platform_uart_dbg_init, @function
bflb_platform_uart_dbg_init:
.LFB10:
	.loc 1 91 1
	.cfi_startproc
	addi	sp,sp,-64
	.cfi_def_cfa_offset 64
	sw	ra,60(sp)
	sw	s0,56(sp)
	.cfi_offset 1, -4
	.cfi_offset 8, -8
	addi	s0,sp,64
	.cfi_def_cfa 8, 0
	sw	a0,-52(s0)
	.loc 1 92 19
	lui	a5,%hi(.LC0)
	addi	a5,a5,%lo(.LC0)
	lw	a2,0(a5)
	lw	a3,4(a5)
	lw	a4,8(a5)
	sw	a2,-32(s0)
	sw	a3,-28(s0)
	sw	a4,-24(s0)
	lw	a5,12(a5)
	sw	a5,-20(s0)
	.loc 1 103 23
	lui	a5,%hi(.LC1)
	lw	a5,%lo(.LC1)(a5)
	sw	a5,-36(s0)
	.loc 1 111 5
	call	bflb_platform_init_uart_debug_gpio
	.loc 1 113 5
	li	a4,0
	li	a3,0
	li	a2,64
	lui	a5,%hi(uartBuf)
	addi	a1,a5,%lo(uartBuf)
	lui	a5,%hi(uartRB)
	addi	a0,a5,%lo(uartRB)
	call	Ring_Buffer_Init
	.loc 1 117 5
	li	a2,0
	li	a1,1
	li	a0,1
	call	GLB_Set_UART_CLK
	.loc 1 118 25
	li	a5,160002048
	addi	a5,a5,-2048
	sw	a5,-32(s0)
	.loc 1 120 7
	lw	a5,-52(s0)
	beq	a5,zero,.L10
	.loc 1 121 30
	lw	a5,-52(s0)
	sw	a5,-28(s0)
.L10:
	.loc 1 124 5
	li	a0,16
	call	GLB_AHB_Slave1_Reset
	.loc 1 127 5
	li	a2,1
	li	a1,8
	li	a0,0
	call	UART_IntMask
	.loc 1 130 5
	li	a1,2
	li	a0,0
	call	UART_Disable
	.loc 1 133 5
	addi	a5,s0,-32
	mv	a1,a5
	li	a0,0
	call	UART_Init
	.loc 1 136 5
	addi	a5,s0,-36
	mv	a1,a5
	li	a0,0
	call	UART_FifoConfig
	.loc 1 140 5
	li	a1,1
	li	a0,0
	call	UART_TxFreeRun
	.loc 1 143 5
	li	a1,80
	li	a0,0
	call	UART_SetRxTimeoutValue
	.loc 1 147 5
	li	a2,0
	li	a1,3
	li	a0,0
	call	UART_IntMask
	.loc 1 148 5
	li	a2,0
	li	a1,4
	li	a0,0
	call	UART_IntMask
	.loc 1 151 5
	lui	a5,%hi(UART_RFR_Cbf)
	addi	a2,a5,%lo(UART_RFR_Cbf)
	li	a1,3
	li	a0,0
	call	UART_Int_Callback_Install
	.loc 1 152 5
	lui	a5,%hi(UART_RTO_Cbf)
	addi	a2,a5,%lo(UART_RTO_Cbf)
	li	a1,4
	li	a0,0
	call	UART_Int_Callback_Install
	.loc 1 155 5
	li	a0,45
	call	clic_enable_interrupt
	.loc 1 158 5
	li	a1,2
	li	a0,0
	call	UART_Enable
	.loc 1 159 1
	nop
	lw	ra,60(sp)
	.cfi_restore 1
	lw	s0,56(sp)
	.cfi_restore 8
	.cfi_def_cfa 2, 64
	addi	sp,sp,64
	.cfi_def_cfa_offset 0
	jr	ra
	.cfi_endproc
.LFE10:
	.size	bflb_platform_uart_dbg_init, .-bflb_platform_uart_dbg_init
	.section	.text.bflb_platform_usart_dbg_send,"ax",@progbits
	.align	1
	.globl	bflb_platform_usart_dbg_send
	.type	bflb_platform_usart_dbg_send, @function
bflb_platform_usart_dbg_send:
.LFB11:
	.loc 1 176 1
	.cfi_startproc
	addi	sp,sp,-32
	.cfi_def_cfa_offset 32
	sw	ra,28(sp)
	sw	s0,24(sp)
	.cfi_offset 1, -4
	.cfi_offset 8, -8
	addi	s0,sp,32
	.cfi_def_cfa 8, 0
	sw	a0,-20(s0)
	sw	a1,-24(s0)
	.loc 1 183 5
	lw	a2,-24(s0)
	lw	a1,-20(s0)
	li	a0,0
	call	UART_SendData
	.loc 1 184 1
	nop
	lw	ra,28(sp)
	.cfi_restore 1
	lw	s0,24(sp)
	.cfi_restore 8
	.cfi_def_cfa 2, 32
	addi	sp,sp,32
	.cfi_def_cfa_offset 0
	jr	ra
	.cfi_endproc
.LFE11:
	.size	bflb_platform_usart_dbg_send, .-bflb_platform_usart_dbg_send
	.section	.text.bflb_platform_uart_dbg_deinit,"ax",@progbits
	.align	1
	.globl	bflb_platform_uart_dbg_deinit
	.type	bflb_platform_uart_dbg_deinit, @function
bflb_platform_uart_dbg_deinit:
.LFB12:
	.loc 1 187 1
	.cfi_startproc
	addi	sp,sp,-16
	.cfi_def_cfa_offset 16
	sw	ra,12(sp)
	sw	s0,8(sp)
	.cfi_offset 1, -4
	.cfi_offset 8, -8
	addi	s0,sp,16
	.cfi_def_cfa 8, 0
	.loc 1 188 5
	li	a1,2
	li	a0,0
	call	UART_Disable
	.loc 1 189 5
	li	a0,16
	call	GLB_AHB_Slave1_Reset
	.loc 1 190 5
	call	bflb_platform_deinit_uart_debug_gpio
	.loc 1 191 1
	nop
	lw	ra,12(sp)
	.cfi_restore 1
	lw	s0,8(sp)
	.cfi_restore 8
	.cfi_def_cfa 2, 16
	addi	sp,sp,16
	.cfi_def_cfa_offset 0
	jr	ra
	.cfi_endproc
.LFE12:
	.size	bflb_platform_uart_dbg_deinit, .-bflb_platform_uart_dbg_deinit
	.section	.text.bflb_platform_printf,"ax",@progbits
	.align	1
	.globl	bflb_platform_printf
	.type	bflb_platform_printf, @function
bflb_platform_printf:
.LFB13:
	.loc 1 194 1
	.cfi_startproc
	addi	sp,sp,-80
	.cfi_def_cfa_offset 80
	sw	ra,44(sp)
	sw	s0,40(sp)
	.cfi_offset 1, -36
	.cfi_offset 8, -40
	addi	s0,sp,48
	.cfi_def_cfa 8, 32
	sw	a0,-36(s0)
	sw	a1,4(s0)
	sw	a2,8(s0)
	sw	a3,12(s0)
	sw	a4,16(s0)
	sw	a5,20(s0)
	sw	a6,24(s0)
	sw	a7,28(s0)
	.loc 1 197 8
	lui	a5,%hi(uart_dbg_disable)
	lbu	a5,%lo(uart_dbg_disable)(a5)
	.loc 1 197 7
	bne	a5,zero,.L15
	.loc 1 198 8
	addi	a5,s0,32
	sw	a5,-40(s0)
	lw	a5,-40(s0)
	addi	a5,a5,-28
	sw	a5,-20(s0)
	.loc 1 199 9
	lw	a5,-20(s0)
	mv	a3,a5
	lw	a2,-36(s0)
	li	a1,127
	lui	a5,%hi(print_buf.0)
	addi	a0,a5,%lo(print_buf.0)
	call	vsnprintf
	.loc 1 201 58
	lui	a5,%hi(print_buf.0)
	addi	a0,a5,%lo(print_buf.0)
	call	strlen
	mv	a5,a0
	.loc 1 201 9 discriminator 1
	mv	a1,a5
	lui	a5,%hi(print_buf.0)
	addi	a0,a5,%lo(print_buf.0)
	call	bflb_platform_usart_dbg_send
.L15:
	.loc 1 203 1
	nop
	lw	ra,44(sp)
	.cfi_restore 1
	lw	s0,40(sp)
	.cfi_restore 8
	.cfi_def_cfa 2, 80
	addi	sp,sp,80
	.cfi_def_cfa_offset 0
	jr	ra
	.cfi_endproc
.LFE13:
	.size	bflb_platform_printf, .-bflb_platform_printf
	.section	.rodata
	.align	2
.LC3:
	.string	"\r\n"
	.align	2
.LC4:
	.string	"%02x "
	.section	.text.bflb_platform_dump,"ax",@progbits
	.align	1
	.globl	bflb_platform_dump
	.type	bflb_platform_dump, @function
bflb_platform_dump:
.LFB14:
	.loc 1 206 1
	.cfi_startproc
	addi	sp,sp,-48
	.cfi_def_cfa_offset 48
	sw	ra,44(sp)
	sw	s0,40(sp)
	.cfi_offset 1, -4
	.cfi_offset 8, -8
	addi	s0,sp,48
	.cfi_def_cfa 8, 0
	sw	a0,-36(s0)
	sw	a1,-40(s0)
	.loc 1 207 14
	sw	zero,-20(s0)
	.loc 1 208 14
	lw	a5,-36(s0)
	sw	a5,-24(s0)
	.loc 1 210 10
	sw	zero,-20(s0)
	.loc 1 210 5
	j	.L17
.L19:
	.loc 1 211 13
	lw	a5,-20(s0)
	andi	a5,a5,15
	.loc 1 211 11
	bne	a5,zero,.L18
	.loc 1 212 13
	lui	a5,%hi(.LC3)
	addi	a0,a5,%lo(.LC3)
	call	bflb_platform_printf
.L18:
	.loc 1 214 39
	lw	a4,-24(s0)
	lw	a5,-20(s0)
	add	a5,a4,a5
	lbu	a5,0(a5)
	.loc 1 214 9
	mv	a1,a5
	lui	a5,%hi(.LC4)
	addi	a0,a5,%lo(.LC4)
	call	bflb_platform_printf
	.loc 1 210 20 discriminator 2
	lw	a5,-20(s0)
	addi	a5,a5,1
	sw	a5,-20(s0)
.L17:
	.loc 1 210 14 discriminator 1
	lw	a4,-20(s0)
	lw	a5,-40(s0)
	bltu	a4,a5,.L19
	.loc 1 216 5
	lui	a5,%hi(.LC3)
	addi	a0,a5,%lo(.LC3)
	call	bflb_platform_printf
	.loc 1 217 1
	nop
	lw	ra,44(sp)
	.cfi_restore 1
	lw	s0,40(sp)
	.cfi_restore 8
	.cfi_def_cfa 2, 48
	addi	sp,sp,48
	.cfi_def_cfa_offset 0
	jr	ra
	.cfi_endproc
.LFE14:
	.size	bflb_platform_dump, .-bflb_platform_dump
	.section	.text.bflb_platform_prints,"ax",@progbits
	.align	1
	.globl	bflb_platform_prints
	.type	bflb_platform_prints, @function
bflb_platform_prints:
.LFB15:
	.loc 1 220 1
	.cfi_startproc
	addi	sp,sp,-32
	.cfi_def_cfa_offset 32
	sw	ra,28(sp)
	sw	s0,24(sp)
	.cfi_offset 1, -4
	.cfi_offset 8, -8
	addi	s0,sp,32
	.cfi_def_cfa 8, 0
	sw	a0,-20(s0)
	.loc 1 221 49
	lw	a0,-20(s0)
	call	strlen
	mv	a5,a0
	.loc 1 221 5 discriminator 1
	mv	a1,a5
	lw	a0,-20(s0)
	call	bflb_platform_usart_dbg_send
	.loc 1 222 1
	nop
	lw	ra,28(sp)
	.cfi_restore 1
	lw	s0,24(sp)
	.cfi_restore 8
	.cfi_def_cfa 2, 32
	addi	sp,sp,32
	.cfi_def_cfa_offset 0
	jr	ra
	.cfi_endproc
.LFE15:
	.size	bflb_platform_prints, .-bflb_platform_prints
	.section	.text.bflb_platform_printx,"ax",@progbits
	.align	1
	.globl	bflb_platform_printx
	.type	bflb_platform_printx, @function
bflb_platform_printx:
.LFB16:
	.loc 1 225 1
	.cfi_startproc
	addi	sp,sp,-48
	.cfi_def_cfa_offset 48
	sw	ra,44(sp)
	sw	s0,40(sp)
	.cfi_offset 1, -4
	.cfi_offset 8, -8
	addi	s0,sp,48
	.cfi_def_cfa 8, 0
	sw	a0,-36(s0)
	.loc 1 228 10
	li	a5,7
	sw	a5,-20(s0)
	.loc 1 228 5
	j	.L22
.L23:
	.loc 1 229 35
	lw	a5,-36(s0)
	andi	a5,a5,15
	.loc 1 229 30
	lui	a4,%hi(hexTable)
	addi	a4,a4,%lo(hexTable)
	add	a5,a4,a5
	lbu	a4,0(a5)
	.loc 1 229 21
	lw	a5,-20(s0)
	addi	a5,a5,-16
	add	a5,a5,s0
	sb	a4,-12(a5)
	.loc 1 230 12
	lw	a5,-36(s0)
	srli	a5,a5,4
	sw	a5,-36(s0)
	.loc 1 228 19 discriminator 3
	lw	a5,-20(s0)
	addi	a5,a5,-1
	sw	a5,-20(s0)
.L22:
	.loc 1 228 14 discriminator 1
	lw	a5,-20(s0)
	bge	a5,zero,.L23
	.loc 1 232 5
	addi	a5,s0,-28
	li	a1,8
	mv	a0,a5
	call	bflb_platform_usart_dbg_send
	.loc 1 233 1
	nop
	lw	ra,44(sp)
	.cfi_restore 1
	lw	s0,40(sp)
	.cfi_restore 8
	.cfi_def_cfa 2, 48
	addi	sp,sp,48
	.cfi_def_cfa_offset 0
	jr	ra
	.cfi_endproc
.LFE16:
	.size	bflb_platform_printx, .-bflb_platform_printx
	.section	.text.bflb_platform_printc,"ax",@progbits
	.align	1
	.globl	bflb_platform_printc
	.type	bflb_platform_printc, @function
bflb_platform_printc:
.LFB17:
	.loc 1 236 1
	.cfi_startproc
	addi	sp,sp,-32
	.cfi_def_cfa_offset 32
	sw	ra,28(sp)
	sw	s0,24(sp)
	.cfi_offset 1, -4
	.cfi_offset 8, -8
	addi	s0,sp,32
	.cfi_def_cfa 8, 0
	mv	a5,a0
	sb	a5,-17(s0)
	.loc 1 237 5
	addi	a5,s0,-17
	li	a2,1
	mv	a1,a5
	li	a0,0
	call	UART_SendData
	.loc 1 238 1
	nop
	lw	ra,28(sp)
	.cfi_restore 1
	lw	s0,24(sp)
	.cfi_restore 8
	.cfi_def_cfa 2, 32
	addi	sp,sp,32
	.cfi_def_cfa_offset 0
	jr	ra
	.cfi_endproc
.LFE17:
	.size	bflb_platform_printc, .-bflb_platform_printc
	.section	.text.bflb_platform_clear_time,"ax",@progbits
	.align	1
	.globl	bflb_platform_clear_time
	.type	bflb_platform_clear_time, @function
bflb_platform_clear_time:
.LFB18:
	.loc 1 241 1
	.cfi_startproc
	addi	sp,sp,-16
	.cfi_def_cfa_offset 16
	sw	ra,12(sp)
	sw	s0,8(sp)
	.cfi_offset 1, -4
	.cfi_offset 8, -8
	addi	s0,sp,16
	.cfi_def_cfa 8, 0
	.loc 1 242 5
	li	a5,33603584
	addi	a5,a5,-8
	.loc 1 242 51
	li	a3,0
	li	a4,0
	sw	a3,0(a5)
	sw	a4,4(a5)
	.loc 1 243 1
	nop
	lw	ra,12(sp)
	.cfi_restore 1
	lw	s0,8(sp)
	.cfi_restore 8
	.cfi_def_cfa 2, 16
	addi	sp,sp,16
	.cfi_def_cfa_offset 0
	jr	ra
	.cfi_endproc
.LFE18:
	.size	bflb_platform_clear_time, .-bflb_platform_clear_time
	.section	.text.bflb_platform_get_time_ms,"ax",@progbits
	.align	1
	.globl	bflb_platform_get_time_ms
	.type	bflb_platform_get_time_ms, @function
bflb_platform_get_time_ms:
.LFB19:
	.loc 1 246 1
	.cfi_startproc
	addi	sp,sp,-96
	.cfi_def_cfa_offset 96
	sw	ra,92(sp)
	sw	s0,88(sp)
	sw	s1,84(sp)
	sw	s2,80(sp)
	sw	s3,76(sp)
	sw	s4,72(sp)
	sw	s5,68(sp)
	sw	s6,64(sp)
	sw	s7,60(sp)
	sw	s8,56(sp)
	sw	s9,52(sp)
	sw	s10,48(sp)
	sw	s11,44(sp)
	.cfi_offset 1, -4
	.cfi_offset 8, -8
	.cfi_offset 9, -12
	.cfi_offset 18, -16
	.cfi_offset 19, -20
	.cfi_offset 20, -24
	.cfi_offset 21, -28
	.cfi_offset 22, -32
	.cfi_offset 23, -36
	.cfi_offset 24, -40
	.cfi_offset 25, -44
	.cfi_offset 26, -48
	.cfi_offset 27, -52
	addi	s0,sp,96
	.cfi_def_cfa 8, 0
	.loc 1 249 14
	sw	zero,-68(s0)
.L27:
	.loc 1 252 19
	li	a5,33603584
	addi	a5,a5,-8
	.loc 1 252 18
	lw	a5,0(a5)
	sw	a5,-72(s0)
	.loc 1 253 20
	li	a5,33603584
	addi	a5,a5,-4
	.loc 1 253 19
	lw	a5,0(a5)
	sw	a5,-76(s0)
	.loc 1 254 20
	li	a5,33603584
	addi	a5,a5,-8
	.loc 1 254 19
	lw	a5,0(a5)
	sw	a5,-80(s0)
	.loc 1 255 21
	li	a5,33603584
	addi	a5,a5,-4
	.loc 1 255 20
	lw	a5,0(a5)
	sw	a5,-84(s0)
	.loc 1 256 12
	lw	a5,-68(s0)
	addi	a5,a5,1
	sw	a5,-68(s0)
	.loc 1 257 11
	lw	a4,-68(s0)
	li	a5,4
	bgtu	a4,a5,.L33
	.loc 1 260 32
	lw	a4,-72(s0)
	lw	a5,-80(s0)
	bgtu	a4,a5,.L27
	.loc 1 260 32 is_stmt 0 discriminator 1
	lw	a4,-76(s0)
	lw	a5,-84(s0)
	bgtu	a4,a5,.L27
	j	.L29
.L33:
	.loc 1 258 13 is_stmt 1
	nop
.L29:
	.loc 1 262 11
	li	a5,1073803264
	addi	a5,a5,264
	lw	s1,0(a5)
	.loc 1 262 49
	call	GLB_Get_BCLK_Div
	mv	a5,a0
	.loc 1 262 67 discriminator 1
	addi	a5,a5,1
	.loc 1 262 8 discriminator 1
	divu	a5,s1,a5
	sw	a5,-88(s0)
	.loc 1 263 13
	lw	a5,-88(s0)
	srli	a4,a5,3
	.loc 1 263 8
	li	a5,274878464
	addi	a5,a5,-557
	mulhu	a5,a4,a5
	srli	a5,a5,6
	sw	a5,-88(s0)
	.loc 1 265 7
	lw	a5,-84(s0)
	bne	a5,zero,.L31
	.loc 1 266 36
	lw	a4,-80(s0)
	lw	a5,-88(s0)
	divu	a5,a4,a5
	.loc 1 266 15
	mv	s8,a5
	li	s9,0
	j	.L32
.L31:
	.loc 1 268 18
	lw	a5,-84(s0)
	mv	s6,a5
	li	s7,0
	.loc 1 268 39
	slli	s3,s6,0
	li	s2,0
	.loc 1 268 44
	lw	a5,-80(s0)
	mv	s4,a5
	li	s5,0
	add	a4,s2,s4
	mv	a3,a4
	sltu	a3,a3,s2
	add	a5,s3,s5
	add	a3,a3,a5
	mv	a5,a3
	.loc 1 268 56
	lw	a3,-88(s0)
	mv	s10,a3
	li	s11,0
	mv	a2,s10
	mv	a3,s11
	mv	a0,a4
	mv	a1,a5
	call	__udivdi3
	mv	a4,a0
	mv	a5,a1
	mv	s8,a4
	mv	s9,a5
.L32:
	.loc 1 270 1
	mv	a4,s8
	mv	a5,s9
	mv	a0,a4
	mv	a1,a5
	lw	ra,92(sp)
	.cfi_restore 1
	lw	s0,88(sp)
	.cfi_restore 8
	.cfi_def_cfa 2, 96
	lw	s1,84(sp)
	.cfi_restore 9
	lw	s2,80(sp)
	.cfi_restore 18
	lw	s3,76(sp)
	.cfi_restore 19
	lw	s4,72(sp)
	.cfi_restore 20
	lw	s5,68(sp)
	.cfi_restore 21
	lw	s6,64(sp)
	.cfi_restore 22
	lw	s7,60(sp)
	.cfi_restore 23
	lw	s8,56(sp)
	.cfi_restore 24
	lw	s9,52(sp)
	.cfi_restore 25
	lw	s10,48(sp)
	.cfi_restore 26
	lw	s11,44(sp)
	.cfi_restore 27
	addi	sp,sp,96
	.cfi_def_cfa_offset 0
	jr	ra
	.cfi_endproc
.LFE19:
	.size	bflb_platform_get_time_ms, .-bflb_platform_get_time_ms
	.section	.text.bflb_platform_start_time,"ax",@progbits
	.align	1
	.globl	bflb_platform_start_time
	.type	bflb_platform_start_time, @function
bflb_platform_start_time:
.LFB20:
	.loc 1 273 1
	.cfi_startproc
	addi	sp,sp,-16
	.cfi_def_cfa_offset 16
	sw	ra,12(sp)
	sw	s0,8(sp)
	.cfi_offset 1, -4
	.cfi_offset 8, -8
	addi	s0,sp,16
	.cfi_def_cfa 8, 0
	.loc 1 274 5
	li	a5,33603584
	addi	a5,a5,-8
	.loc 1 274 51
	li	a3,0
	li	a4,0
	sw	a3,0(a5)
	sw	a4,4(a5)
	.loc 1 275 1
	nop
	lw	ra,12(sp)
	.cfi_restore 1
	lw	s0,8(sp)
	.cfi_restore 8
	.cfi_def_cfa 2, 16
	addi	sp,sp,16
	.cfi_def_cfa_offset 0
	jr	ra
	.cfi_endproc
.LFE20:
	.size	bflb_platform_start_time, .-bflb_platform_start_time
	.section	.text.bflb_platform_stop_time,"ax",@progbits
	.align	1
	.globl	bflb_platform_stop_time
	.type	bflb_platform_stop_time, @function
bflb_platform_stop_time:
.LFB21:
	.loc 1 278 1
	.cfi_startproc
	addi	sp,sp,-16
	.cfi_def_cfa_offset 16
	sw	ra,12(sp)
	sw	s0,8(sp)
	.cfi_offset 1, -4
	.cfi_offset 8, -8
	addi	s0,sp,16
	.cfi_def_cfa 8, 0
	.loc 1 280 1
	nop
	lw	ra,12(sp)
	.cfi_restore 1
	lw	s0,8(sp)
	.cfi_restore 8
	.cfi_def_cfa 2, 16
	addi	sp,sp,16
	.cfi_def_cfa_offset 0
	jr	ra
	.cfi_endproc
.LFE21:
	.size	bflb_platform_stop_time, .-bflb_platform_stop_time
	.section	.text.bflb_platform_set_alarm_time,"ax",@progbits
	.align	1
	.globl	bflb_platform_set_alarm_time
	.type	bflb_platform_set_alarm_time, @function
bflb_platform_set_alarm_time:
.LFB22:
	.loc 1 283 1
	.cfi_startproc
	addi	sp,sp,-64
	.cfi_def_cfa_offset 64
	sw	ra,60(sp)
	sw	s0,56(sp)
	sw	s1,52(sp)
	sw	s2,48(sp)
	sw	s3,44(sp)
	sw	s4,40(sp)
	sw	s5,36(sp)
	.cfi_offset 1, -4
	.cfi_offset 8, -8
	.cfi_offset 9, -12
	.cfi_offset 18, -16
	.cfi_offset 19, -20
	.cfi_offset 20, -24
	.cfi_offset 21, -28
	addi	s0,sp,64
	.cfi_def_cfa 8, 0
	sw	a0,-56(s0)
	sw	a1,-52(s0)
	.loc 1 286 11
	li	a5,1073803264
	addi	a5,a5,264
	lw	s1,0(a5)
	.loc 1 286 49
	call	GLB_Get_BCLK_Div
	mv	a5,a0
	.loc 1 286 67 discriminator 1
	addi	a5,a5,1
	.loc 1 286 8 discriminator 1
	divu	a5,s1,a5
	sw	a5,-36(s0)
	.loc 1 287 13
	lw	a5,-36(s0)
	srli	a4,a5,3
	.loc 1 287 8
	li	a5,274878464
	addi	a5,a5,-557
	mulhu	a5,a4,a5
	srli	a5,a5,6
	sw	a5,-36(s0)
	.loc 1 289 16
	lw	a5,-36(s0)
	mv	s4,a5
	li	s5,0
	.loc 1 289 10
	lw	a5,-52(s0)
	mul	a4,a5,s4
	lw	a5,-56(s0)
	mul	a5,a5,s5
	add	a4,a4,a5
	lw	a5,-56(s0)
	mul	a3,a5,s4
	mulhu	s3,a5,s4
	mv	s2,a3
	add	a5,a4,s3
	mv	s3,a5
	sw	s2,-56(s0)
	sw	s3,-52(s0)
	sw	s2,-56(s0)
	sw	s3,-52(s0)
	.loc 1 291 54
	li	a5,33603584
	addi	a5,a5,-8
	lw	a4,0(a5)
	lw	a5,4(a5)
	.loc 1 291 5
	li	a6,33570816
	.loc 1 291 100
	lw	a0,-56(s0)
	lw	a1,-52(s0)
	add	a2,a4,a0
	mv	a7,a2
	sltu	a7,a7,a4
	add	a3,a5,a1
	add	a5,a7,a3
	mv	a3,a5
	mv	a4,a2
	mv	a5,a3
	.loc 1 291 51
	sw	a4,0(a6)
	sw	a5,4(a6)
	.loc 1 292 5
	li	a0,7
	call	clic_enable_interrupt
	.loc 1 293 1
	nop
	lw	ra,60(sp)
	.cfi_restore 1
	lw	s0,56(sp)
	.cfi_restore 8
	.cfi_def_cfa 2, 64
	lw	s1,52(sp)
	.cfi_restore 9
	lw	s2,48(sp)
	.cfi_restore 18
	lw	s3,44(sp)
	.cfi_restore 19
	lw	s4,40(sp)
	.cfi_restore 20
	lw	s5,36(sp)
	.cfi_restore 21
	addi	sp,sp,64
	.cfi_def_cfa_offset 0
	jr	ra
	.cfi_endproc
.LFE22:
	.size	bflb_platform_set_alarm_time, .-bflb_platform_set_alarm_time
	.section	.text.bflb_platform_init_time,"ax",@progbits
	.align	1
	.globl	bflb_platform_init_time
	.type	bflb_platform_init_time, @function
bflb_platform_init_time:
.LFB23:
	.loc 1 296 1
	.cfi_startproc
	addi	sp,sp,-16
	.cfi_def_cfa_offset 16
	sw	ra,12(sp)
	sw	s0,8(sp)
	.cfi_offset 1, -4
	.cfi_offset 8, -8
	addi	s0,sp,16
	.cfi_def_cfa 8, 0
	.loc 1 297 5
	li	a0,7
	call	clic_disable_interrupt
	.loc 1 300 5
	li	a2,7
	li	a1,0
	li	a0,1
	call	GLB_Set_MTimer_CLK
	.loc 1 302 5
	call	bflb_platform_clear_time
	.loc 1 303 1
	nop
	lw	ra,12(sp)
	.cfi_restore 1
	lw	s0,8(sp)
	.cfi_restore 8
	.cfi_def_cfa 2, 16
	addi	sp,sp,16
	.cfi_def_cfa_offset 0
	jr	ra
	.cfi_endproc
.LFE23:
	.size	bflb_platform_init_time, .-bflb_platform_init_time
	.section	.text.bflb_platform_deinit_time,"ax",@progbits
	.align	1
	.globl	bflb_platform_deinit_time
	.type	bflb_platform_deinit_time, @function
bflb_platform_deinit_time:
.LFB24:
	.loc 1 306 1
	.cfi_startproc
	addi	sp,sp,-16
	.cfi_def_cfa_offset 16
	sw	ra,12(sp)
	sw	s0,8(sp)
	.cfi_offset 1, -4
	.cfi_offset 8, -8
	addi	s0,sp,16
	.cfi_def_cfa 8, 0
	.loc 1 307 5
	li	a0,7
	call	clic_disable_interrupt
	.loc 1 308 5
	call	bflb_platform_stop_time
	.loc 1 309 1
	nop
	lw	ra,12(sp)
	.cfi_restore 1
	lw	s0,8(sp)
	.cfi_restore 8
	.cfi_def_cfa 2, 16
	addi	sp,sp,16
	.cfi_def_cfa_offset 0
	jr	ra
	.cfi_endproc
.LFE24:
	.size	bflb_platform_deinit_time, .-bflb_platform_deinit_time
	.section	.text.bflb_platform_delay_ms,"ax",@progbits
	.align	1
	.globl	bflb_platform_delay_ms
	.type	bflb_platform_delay_ms, @function
bflb_platform_delay_ms:
.LFB25:
	.loc 1 312 1
	.cfi_startproc
	addi	sp,sp,-64
	.cfi_def_cfa_offset 64
	sw	ra,60(sp)
	sw	s0,56(sp)
	sw	s2,52(sp)
	sw	s3,48(sp)
	sw	s4,44(sp)
	sw	s5,40(sp)
	.cfi_offset 1, -4
	.cfi_offset 8, -8
	.cfi_offset 18, -12
	.cfi_offset 19, -16
	.cfi_offset 20, -20
	.cfi_offset 21, -24
	addi	s0,sp,64
	.cfi_def_cfa 8, 0
	sw	a0,-52(s0)
	.loc 1 313 14
	li	a5,0
	li	a6,0
	sw	a5,-40(s0)
	sw	a6,-36(s0)
	.loc 1 314 21
	li	a5,1073803264
	addi	a5,a5,264
	.loc 1 314 14
	lw	a5,0(a5)
	sw	a5,-44(s0)
	.loc 1 316 5
	call	bflb_platform_stop_time
	.loc 1 317 5
	call	bflb_platform_start_time
	.loc 1 318 10
	j	.L40
.L43:
	.loc 1 319 12
	lw	a2,-40(s0)
	lw	a3,-36(s0)
	li	a0,1
	li	a1,0
	add	a4,a2,a0
	mv	a6,a4
	sltu	a6,a6,a2
	add	a5,a3,a1
	add	a3,a6,a5
	mv	a5,a3
	sw	a4,-40(s0)
	sw	a5,-36(s0)
	.loc 1 321 28
	lw	a5,-44(s0)
	srli	a4,a5,15
	.loc 1 321 21
	lw	a5,-52(s0)
	mul	a5,a4,a5
	.loc 1 321 38
	slli	a5,a5,1
	mv	s4,a5
	li	s5,0
	.loc 1 321 11
	lw	a5,-36(s0)
	mv	a4,s5
	bgtu	a5,a4,.L45
	lw	a5,-36(s0)
	mv	a4,s5
	bne	a5,a4,.L40
	lw	a5,-40(s0)
	mv	a4,s4
	bgtu	a5,a4,.L45
.L40:
	.loc 1 318 11
	call	bflb_platform_get_time_ms
	mv	a4,a0
	mv	a5,a1
	.loc 1 318 38 discriminator 1
	lw	a3,-52(s0)
	mv	s2,a3
	li	s3,0
	mv	a2,s3
	mv	a3,a5
	bgtu	a2,a3,.L43
	mv	a2,s3
	mv	a3,a5
	bne	a2,a3,.L46
	mv	a3,s2
	mv	a5,a4
	bgtu	a3,a5,.L43
	.loc 1 325 1
	j	.L46
.L45:
	.loc 1 322 13
	nop
.L46:
	.loc 1 325 1
	nop
	lw	ra,60(sp)
	.cfi_restore 1
	lw	s0,56(sp)
	.cfi_restore 8
	.cfi_def_cfa 2, 64
	lw	s2,52(sp)
	.cfi_restore 18
	lw	s3,48(sp)
	.cfi_restore 19
	lw	s4,44(sp)
	.cfi_restore 20
	lw	s5,40(sp)
	.cfi_restore 21
	addi	sp,sp,64
	.cfi_def_cfa_offset 0
	jr	ra
	.cfi_endproc
.LFE25:
	.size	bflb_platform_delay_ms, .-bflb_platform_delay_ms
	.section	.rodata
	.align	2
.LC5:
	.string	"system clock=%dM\r\n"
	.section	.text.bflb_platform_init,"ax",@progbits
	.align	1
	.globl	bflb_platform_init
	.type	bflb_platform_init, @function
bflb_platform_init:
.LFB26:
	.loc 1 328 1
	.cfi_startproc
	addi	sp,sp,-32
	.cfi_def_cfa_offset 32
	sw	ra,28(sp)
	sw	s0,24(sp)
	.cfi_offset 1, -4
	.cfi_offset 8, -8
	addi	s0,sp,32
	.cfi_def_cfa 8, 0
	sw	a0,-20(s0)
	.loc 1 329 11
	lui	a5,%hi(init_flag)
	lw	a5,%lo(init_flag)(a5)
	.loc 1 329 7
	bne	a5,zero,.L50
	.loc 1 332 15
	lui	a5,%hi(init_flag)
	li	a4,1
	sw	a4,%lo(init_flag)(a5)
	.loc 1 334 5
	call	bflb_platform_init_time
	.loc 1 336 5
	call	Sec_Eng_Trng_Enable
	.loc 1 338 8
	lui	a5,%hi(uart_dbg_disable)
	lbu	a5,%lo(uart_dbg_disable)(a5)
	.loc 1 338 7
	bne	a5,zero,.L47
	.loc 1 339 9
	lw	a0,-20(s0)
	call	bflb_platform_uart_dbg_init
	.loc 1 340 54
	li	a5,1073803264
	addi	a5,a5,264
	lw	a4,0(a5)
	.loc 1 340 9
	li	a5,1125900288
	addi	a5,a5,-381
	mulhu	a5,a4,a5
	srli	a5,a5,18
	mv	a1,a5
	lui	a5,%hi(.LC5)
	addi	a0,a5,%lo(.LC5)
	call	bflb_platform_printf
	j	.L47
.L50:
	.loc 1 330 9
	nop
.L47:
	.loc 1 342 1
	lw	ra,28(sp)
	.cfi_restore 1
	lw	s0,24(sp)
	.cfi_restore 8
	.cfi_def_cfa 2, 32
	addi	sp,sp,32
	.cfi_def_cfa_offset 0
	jr	ra
	.cfi_endproc
.LFE26:
	.size	bflb_platform_init, .-bflb_platform_init
	.section	.text.bflb_platform_deinit,"ax",@progbits
	.align	1
	.globl	bflb_platform_deinit
	.type	bflb_platform_deinit, @function
bflb_platform_deinit:
.LFB27:
	.loc 1 346 1
	.cfi_startproc
	addi	sp,sp,-16
	.cfi_def_cfa_offset 16
	sw	ra,12(sp)
	sw	s0,8(sp)
	.cfi_offset 1, -4
	.cfi_offset 8, -8
	addi	s0,sp,16
	.cfi_def_cfa 8, 0
	.loc 1 347 11
	lui	a5,%hi(init_flag)
	lw	a5,%lo(init_flag)(a5)
	.loc 1 347 7
	beq	a5,zero,.L55
	.loc 1 350 15
	lui	a5,%hi(init_flag)
	sw	zero,%lo(init_flag)(a5)
	.loc 1 352 5
	call	bflb_platform_deinit_time
	.loc 1 354 5
	call	Sec_Eng_Trng_Disable
	.loc 1 356 8
	lui	a5,%hi(uart_dbg_disable)
	lbu	a5,%lo(uart_dbg_disable)(a5)
	.loc 1 356 7
	bne	a5,zero,.L54
	.loc 1 357 9
	call	bflb_platform_uart_dbg_deinit
.L54:
	.loc 1 359 5
	call	bflb_platform_deinit_time
	j	.L51
.L55:
	.loc 1 348 9
	nop
.L51:
	.loc 1 360 1
	lw	ra,12(sp)
	.cfi_restore 1
	lw	s0,8(sp)
	.cfi_restore 8
	.cfi_def_cfa 2, 16
	addi	sp,sp,16
	.cfi_def_cfa_offset 0
	jr	ra
	.cfi_endproc
.LFE27:
	.size	bflb_platform_deinit, .-bflb_platform_deinit
	.section	.text.bflb_platform_print_set,"ax",@progbits
	.align	1
	.globl	bflb_platform_print_set
	.type	bflb_platform_print_set, @function
bflb_platform_print_set:
.LFB28:
	.loc 1 363 1
	.cfi_startproc
	addi	sp,sp,-32
	.cfi_def_cfa_offset 32
	sw	ra,28(sp)
	sw	s0,24(sp)
	.cfi_offset 1, -4
	.cfi_offset 8, -8
	addi	s0,sp,32
	.cfi_def_cfa 8, 0
	mv	a5,a0
	sb	a5,-17(s0)
	.loc 1 364 21
	lui	a5,%hi(uart_dbg_disable)
	lbu	a4,-17(s0)
	sb	a4,%lo(uart_dbg_disable)(a5)
	.loc 1 365 1
	nop
	lw	ra,28(sp)
	.cfi_restore 1
	lw	s0,24(sp)
	.cfi_restore 8
	.cfi_def_cfa 2, 32
	addi	sp,sp,32
	.cfi_def_cfa_offset 0
	jr	ra
	.cfi_endproc
.LFE28:
	.size	bflb_platform_print_set, .-bflb_platform_print_set
	.section	.text.bflb_platform_get_random,"ax",@progbits
	.align	1
	.globl	bflb_platform_get_random
	.type	bflb_platform_get_random, @function
bflb_platform_get_random:
.LFB29:
	.loc 1 368 1
	.cfi_startproc
	addi	sp,sp,-80
	.cfi_def_cfa_offset 80
	sw	ra,76(sp)
	sw	s0,72(sp)
	.cfi_offset 1, -4
	.cfi_offset 8, -8
	addi	s0,sp,80
	.cfi_def_cfa 8, 0
	sw	a0,-68(s0)
	sw	a1,-72(s0)
	.loc 1 370 14
	sw	zero,-20(s0)
	.loc 1 371 14
	sw	zero,-24(s0)
	.loc 1 371 18
	sw	zero,-28(s0)
	.loc 1 373 10
	j	.L58
.L64:
	.loc 1 374 12
	addi	a5,s0,-60
	mv	a0,a5
	call	Sec_Eng_Trng_Read
	mv	a5,a0
	.loc 1 374 11 discriminator 1
	beq	a5,zero,.L59
	.loc 1 375 20
	li	a5,-1
	j	.L65
.L59:
	.loc 1 377 12
	lw	a4,-72(s0)
	lw	a5,-20(s0)
	sub	a5,a4,a5
	sw	a5,-28(s0)
	.loc 1 378 11
	lw	a4,-28(s0)
	li	a5,32
	bleu	a4,a5,.L61
	.loc 1 379 16
	li	a5,32
	sw	a5,-28(s0)
.L61:
	.loc 1 381 14
	sw	zero,-24(s0)
	.loc 1 381 9
	j	.L62
.L63:
	.loc 1 382 25
	lw	a4,-20(s0)
	lw	a5,-24(s0)
	add	a5,a4,a5
	.loc 1 382 17
	lw	a4,-68(s0)
	add	a5,a4,a5
	.loc 1 382 35
	lw	a4,-24(s0)
	addi	a4,a4,-16
	add	a4,a4,s0
	lbu	a4,-44(a4)
	.loc 1 382 28
	sb	a4,0(a5)
	.loc 1 381 24 discriminator 3
	lw	a5,-24(s0)
	addi	a5,a5,1
	sw	a5,-24(s0)
.L62:
	.loc 1 381 18 discriminator 1
	lw	a4,-24(s0)
	lw	a5,-28(s0)
	bltu	a4,a5,.L63
	.loc 1 384 16
	lw	a4,-20(s0)
	lw	a5,-28(s0)
	add	a5,a4,a5
	sw	a5,-20(s0)
.L58:
	.loc 1 373 18
	lw	a4,-20(s0)
	lw	a5,-72(s0)
	bltu	a4,a5,.L64
	.loc 1 387 12
	li	a5,0
.L65:
	.loc 1 388 1
	mv	a0,a5
	lw	ra,76(sp)
	.cfi_restore 1
	lw	s0,72(sp)
	.cfi_restore 8
	.cfi_def_cfa 2, 80
	addi	sp,sp,80
	.cfi_def_cfa_offset 0
	jr	ra
	.cfi_endproc
.LFE29:
	.size	bflb_platform_get_random, .-bflb_platform_get_random
	.section	.text.bflb_platform_get_input,"ax",@progbits
	.align	1
	.globl	bflb_platform_get_input
	.type	bflb_platform_get_input, @function
bflb_platform_get_input:
.LFB30:
	.loc 1 392 1
	.cfi_startproc
	addi	sp,sp,-48
	.cfi_def_cfa_offset 48
	sw	ra,44(sp)
	sw	s0,40(sp)
	.cfi_offset 1, -4
	.cfi_offset 8, -8
	addi	s0,sp,48
	.cfi_def_cfa 8, 0
	sw	a0,-36(s0)
	sw	a1,-40(s0)
	.loc 1 393 21
	lui	a5,%hi(uartRB)
	addi	a0,a5,%lo(uartRB)
	call	Ring_Buffer_Get_Length
	mv	a5,a0
	.loc 1 393 14 discriminator 1
	sw	a5,-20(s0)
	.loc 1 395 7
	lw	a4,-20(s0)
	lw	a5,-40(s0)
	bleu	a4,a5,.L67
	.loc 1 396 15
	lw	a5,-40(s0)
	sw	a5,-20(s0)
.L67:
	.loc 1 399 12
	lw	a5,-20(s0)
	slli	a5,a5,16
	srli	a5,a5,16
	mv	a2,a5
	lw	a1,-36(s0)
	lui	a5,%hi(uartRB)
	addi	a0,a5,%lo(uartRB)
	call	Ring_Buffer_Read
	mv	a5,a0
	.loc 1 400 1
	mv	a0,a5
	lw	ra,44(sp)
	.cfi_restore 1
	lw	s0,40(sp)
	.cfi_restore 8
	.cfi_def_cfa 2, 48
	addi	sp,sp,48
	.cfi_def_cfa_offset 0
	jr	ra
	.cfi_endproc
.LFE30:
	.size	bflb_platform_get_input, .-bflb_platform_get_input
	.section	.bss.print_buf.0,"aw",@nobits
	.align	2
	.type	print_buf.0, @object
	.size	print_buf.0, 128
print_buf.0:
	.zero	128
	.text
.Letext0:
	.file 2 "/home/chandu/sdk/bl602_iot_sdk/toolchain/compiler/lib/gcc/riscv32-unknown-elf/15.1.0/include/stddef.h"
	.file 3 "/home/chandu/sdk/bl602_iot_sdk/toolchain/compiler/lib/gcc/riscv32-unknown-elf/15.1.0/include/stdarg.h"
	.file 4 "/home/chandu/sdk/bl602_iot_sdk/toolchain/compiler/riscv32-unknown-elf/include/stdio.h"
	.file 5 "/home/chandu/sdk/bl602_iot_sdk/toolchain/compiler/lib/gcc/riscv32-unknown-elf/15.1.0/include/stdint-gcc.h"
	.file 6 "/home/chandu/sdk/bl602_iot_sdk/components/bl602/bl602_std/bl602_std/Device/Bouffalo/BL602/Peripherals/bl602.h"
	.file 7 "/home/chandu/sdk/bl602_iot_sdk/components/bl602/bl602_std/bl602_std/StdDriver/Inc/bl602_common.h"
	.file 8 "/home/chandu/sdk/bl602_iot_sdk/components/bl602/bl602_std/bl602_std/StdDriver/Inc/bl602_uart.h"
	.file 9 "/home/chandu/sdk/bl602_iot_sdk/components/bl602/bl602_std/bl602_std/StdDriver/Inc/bl602_hbn.h"
	.file 10 "/home/chandu/sdk/bl602_iot_sdk/components/bl602/bl602_std/bl602_std/StdDriver/Inc/bl602_glb.h"
	.file 11 "/home/chandu/sdk/bl602_iot_sdk/components/bl602/bl602_std/bl602_std/Common/ring_buffer/ring_buffer.h"
	.file 12 "/home/chandu/sdk/bl602_iot_sdk/components/bl602/bl602_std/bl602_std/StdDriver/Inc/bl602_sec_eng.h"
	.file 13 "/home/chandu/sdk/bl602_iot_sdk/toolchain/compiler/riscv32-unknown-elf/include/string.h"
	.file 14 "/home/chandu/sdk/bl602_iot_sdk/components/bl602/bl602_std/bl602_std/Common/platform_print/platform_gpio.h"
	.file 15 "/home/chandu/sdk/bl602_iot_sdk/components/bl602/bl602_std/bl602_std/RISCV/Core/Include/cmsis_compatible_gcc.h"
	.section	.note.GNU-stack,"",@progbits
