	.file	"ethernetif.c"
	.option nopic
	.attribute arch, "rv32i2p1_m2p0_f2p2_c2p0_zicsr2p0_zmmul1p0_zca1p0_zcf1p0"
	.attribute unaligned_access, 0
	.attribute stack_align, 16
	.text
.Ltext0:
	.cfi_sections	.debug_frame
	.file 0 "/home/chandu/sdk/bl602_iot_sdk/customer_app/suas_app_pqkem_gateway/build_out/lwip" "/home/chandu/sdk/bl602_iot_sdk/components/network/lwip/lwip-port/FreeRTOS/ethernetif.c"
	.section	.text.low_level_init,"ax",@progbits
	.align	1
	.type	low_level_init, @function
low_level_init:
.LFB6:
	.file 1 "/home/chandu/sdk/bl602_iot_sdk/components/network/lwip/lwip-port/FreeRTOS/ethernetif.c"
	.loc 1 78 1
	.cfi_startproc
	addi	sp,sp,-32
	.cfi_def_cfa_offset 32
	sw	ra,28(sp)
	sw	s0,24(sp)
	.cfi_offset 1, -4
	.cfi_offset 8, -8
	addi	s0,sp,32
	.cfi_def_cfa 8, 0
	sw	a0,-20(s0)
	.loc 1 80 21
	lw	a5,-20(s0)
	li	a4,6
	sb	a4,68(a5)
	.loc 1 83 20
	lw	a5,-20(s0)
	sb	zero,62(a5)
	.loc 1 84 20
	lw	a5,-20(s0)
	li	a4,80
	sb	a4,63(a5)
	.loc 1 85 20
	lw	a5,-20(s0)
	li	a4,67
	sb	a4,64(a5)
	.loc 1 86 20
	lw	a5,-20(s0)
	li	a4,-55
	sb	a4,65(a5)
	.loc 1 87 20
	lw	a5,-20(s0)
	sb	zero,66(a5)
	.loc 1 88 20
	lw	a5,-20(s0)
	li	a4,1
	sb	a4,67(a5)
	.loc 1 91 14
	lw	a5,-20(s0)
	li	a4,1500
	sh	a4,60(a5)
	.loc 1 94 16
	lw	a5,-20(s0)
	li	a4,10
	sb	a4,69(a5)
	.loc 1 139 1
	nop
	lw	ra,28(sp)
	.cfi_restore 1
	lw	s0,24(sp)
	.cfi_restore 8
	.cfi_def_cfa 2, 32
	addi	sp,sp,32
	.cfi_def_cfa_offset 0
	jr	ra
	.cfi_endproc
.LFE6:
	.size	low_level_init, .-low_level_init
	.section	.rodata
	.align	2
.LC0:
	.string	"---------------Sending packet(%d)\r\n"
	.section	.text.low_level_output,"ax",@progbits
	.align	1
	.type	low_level_output, @function
low_level_output:
.LFB7:
	.loc 1 159 1
	.cfi_startproc
	addi	sp,sp,-32
	.cfi_def_cfa_offset 32
	sw	ra,28(sp)
	sw	s0,24(sp)
	.cfi_offset 1, -4
	.cfi_offset 8, -8
	addi	s0,sp,32
	.cfi_def_cfa 8, 0
	sw	a0,-20(s0)
	sw	a1,-24(s0)
	.loc 1 162 3
	lui	a5,%hi(count.0)
	lw	a5,%lo(count.0)(a5)
	addi	a3,a5,1
	lui	a4,%hi(count.0)
	sw	a3,%lo(count.0)(a4)
	mv	a1,a5
	lui	a5,%hi(.LC0)
	addi	a0,a5,%lo(.LC0)
	call	printf
	.loc 1 163 10
	li	a5,0
	.loc 1 164 1
	mv	a0,a5
	lw	ra,28(sp)
	.cfi_restore 1
	lw	s0,24(sp)
	.cfi_restore 8
	.cfi_def_cfa 2, 32
	addi	sp,sp,32
	.cfi_def_cfa_offset 0
	jr	ra
	.cfi_endproc
.LFE7:
	.size	low_level_output, .-low_level_output
	.section	.rodata
	.align	2
.LC1:
	.string	"lwip"
	.section	.text.ethernetif_init,"ax",@progbits
	.align	1
	.globl	ethernetif_init
	.type	ethernetif_init, @function
ethernetif_init:
.LFB8:
	.loc 1 179 1
	.cfi_startproc
	addi	sp,sp,-32
	.cfi_def_cfa_offset 32
	sw	ra,28(sp)
	sw	s0,24(sp)
	.cfi_offset 1, -4
	.cfi_offset 8, -8
	addi	s0,sp,32
	.cfi_def_cfa 8, 0
	sw	a0,-20(s0)
	.loc 1 184 19
	lw	a5,-20(s0)
	lui	a4,%hi(.LC1)
	addi	a4,a4,%lo(.LC1)
	sw	a4,56(a5)
	.loc 1 187 18
	lw	a5,-20(s0)
	li	a4,115
	sb	a4,70(a5)
	.loc 1 188 18
	lw	a5,-20(s0)
	li	a4,116
	sb	a4,71(a5)
	.loc 1 190 17
	lw	a5,-20(s0)
	lui	a4,%hi(etharp_output)
	addi	a4,a4,%lo(etharp_output)
	sw	a4,20(a5)
	.loc 1 191 21
	lw	a5,-20(s0)
	lui	a4,%hi(low_level_output)
	addi	a4,a4,%lo(low_level_output)
	sw	a4,24(a5)
	.loc 1 194 3
	lw	a0,-20(s0)
	call	low_level_init
	.loc 1 195 10
	li	a5,0
	.loc 1 196 1
	mv	a0,a5
	lw	ra,28(sp)
	.cfi_restore 1
	lw	s0,24(sp)
	.cfi_restore 8
	.cfi_def_cfa 2, 32
	addi	sp,sp,32
	.cfi_def_cfa_offset 0
	jr	ra
	.cfi_endproc
.LFE8:
	.size	ethernetif_init, .-ethernetif_init
	.section	.text.set_if,"ax",@progbits
	.align	1
	.globl	set_if
	.type	set_if, @function
set_if:
.LFB9:
	.loc 1 199 1
	.cfi_startproc
	addi	sp,sp,-48
	.cfi_def_cfa_offset 48
	sw	ra,44(sp)
	sw	s0,40(sp)
	.cfi_offset 1, -4
	.cfi_offset 8, -8
	addi	s0,sp,48
	.cfi_def_cfa 8, 0
	sw	a0,-36(s0)
	sw	a1,-40(s0)
	sw	a2,-44(s0)
	sw	a3,-48(s0)
	.loc 1 203 8
	addi	a5,s0,-24
	sw	a5,-20(s0)
	.loc 1 206 8
	lw	a5,-40(s0)
	beq	a5,zero,.L7
	.loc 1 206 29 discriminator 1
	addi	a5,s0,-24
	mv	a1,a5
	lw	a0,-40(s0)
	call	ip4addr_aton
	mv	a5,a0
	.loc 1 206 26 discriminator 2
	beq	a5,zero,.L7
	.loc 1 207 9
	lw	a1,-20(s0)
	lw	a0,-36(s0)
	call	netif_set_ipaddr
.L7:
	.loc 1 211 8
	lw	a5,-44(s0)
	beq	a5,zero,.L8
	.loc 1 211 29 discriminator 1
	addi	a5,s0,-24
	mv	a1,a5
	lw	a0,-44(s0)
	call	ip4addr_aton
	mv	a5,a0
	.loc 1 211 26 discriminator 2
	beq	a5,zero,.L8
	.loc 1 212 9
	lw	a1,-20(s0)
	lw	a0,-36(s0)
	call	netif_set_gw
.L8:
	.loc 1 216 8
	lw	a5,-48(s0)
	beq	a5,zero,.L10
	.loc 1 216 29 discriminator 1
	addi	a5,s0,-24
	mv	a1,a5
	lw	a0,-48(s0)
	call	ip4addr_aton
	mv	a5,a0
	.loc 1 216 26 discriminator 2
	beq	a5,zero,.L10
	.loc 1 217 9
	lw	a1,-20(s0)
	lw	a0,-36(s0)
	call	netif_set_netmask
.L10:
	.loc 1 219 1
	nop
	lw	ra,44(sp)
	.cfi_restore 1
	lw	s0,40(sp)
	.cfi_restore 8
	.cfi_def_cfa 2, 48
	addi	sp,sp,48
	.cfi_def_cfa_offset 0
	jr	ra
	.cfi_endproc
.LFE9:
	.size	set_if, .-set_if
	.section	.sbss.count.0,"aw",@nobits
	.align	2
	.type	count.0, @object
	.size	count.0, 4
count.0:
	.zero	4
	.text
.Letext0:
	.file 2 "/home/chandu/sdk/bl602_iot_sdk/toolchain/compiler/lib/gcc/riscv32-unknown-elf/15.1.0/include/stdint-gcc.h"
	.file 3 "/home/chandu/sdk/bl602_iot_sdk/components/network/lwip/src/include/lwip/arch.h"
	.file 4 "/home/chandu/sdk/bl602_iot_sdk/components/network/lwip/src/include/lwip/err.h"
	.file 5 "/home/chandu/sdk/bl602_iot_sdk/components/network/lwip/src/include/lwip/pbuf.h"
	.file 6 "/home/chandu/sdk/bl602_iot_sdk/components/network/lwip/src/include/lwip/ip4_addr.h"
	.file 7 "/home/chandu/sdk/bl602_iot_sdk/components/network/lwip/src/include/lwip/ip_addr.h"
	.file 8 "/home/chandu/sdk/bl602_iot_sdk/components/network/lwip/src/include/lwip/netif.h"
	.file 9 "/home/chandu/sdk/bl602_iot_sdk/components/network/lwip/src/include/lwip/etharp.h"
	.file 10 "/home/chandu/sdk/bl602_iot_sdk/toolchain/compiler/riscv32-unknown-elf/include/stdio.h"
	.section	.note.GNU-stack,"",@progbits
