	.file	"fdt.c"
	.option nopic
	.attribute arch, "rv32i2p1_m2p0_f2p2_c2p0_zicsr2p0_zmmul1p0_zca1p0_zcf1p0"
	.attribute unaligned_access, 0
	.attribute stack_align, 16
	.text
.Ltext0:
	.cfi_sections	.debug_frame
	.file 0 "/home/chandu/sdk/bl602_iot_sdk/customer_app/suas_app_pqkem_gateway/build_out/blfdt" "/home/chandu/sdk/bl602_iot_sdk/components/stage/blfdt/src/fdt.c"
	.section	.text.fdt32_to_cpu,"ax",@progbits
	.align	1
	.type	fdt32_to_cpu, @function
fdt32_to_cpu:
.LFB3:
	.file 1 "/home/chandu/sdk/bl602_iot_sdk/components/stage/blfdt/inc/libfdt_env.h"
	.loc 1 121 1
	.cfi_startproc
	addi	sp,sp,-32
	.cfi_def_cfa_offset 32
	sw	ra,28(sp)
	sw	s0,24(sp)
	.cfi_offset 1, -4
	.cfi_offset 8, -8
	addi	s0,sp,32
	.cfi_def_cfa 8, 0
	sw	a0,-20(s0)
	.loc 1 122 58
	addi	a5,s0,-20
	.loc 1 122 61
	lbu	a5,0(a5)
	.loc 1 122 66
	slli	a4,a5,24
	.loc 1 122 112
	addi	a5,s0,-20
	addi	a5,a5,1
	lbu	a5,0(a5)
	.loc 1 122 117
	slli	a5,a5,16
	.loc 1 122 73
	or	a4,a4,a5
	.loc 1 122 163
	addi	a5,s0,-20
	addi	a5,a5,2
	lbu	a5,0(a5)
	.loc 1 122 168
	slli	a5,a5,8
	.loc 1 122 124
	or	a4,a4,a5
	.loc 1 122 212
	addi	a5,s0,-20
	addi	a5,a5,3
	lbu	a5,0(a5)
	.loc 1 122 12
	or	a5,a4,a5
	.loc 1 123 1
	mv	a0,a5
	lw	ra,28(sp)
	.cfi_restore 1
	lw	s0,24(sp)
	.cfi_restore 8
	.cfi_def_cfa 2, 32
	addi	sp,sp,32
	.cfi_def_cfa_offset 0
	jr	ra
	.cfi_endproc
.LFE3:
	.size	fdt32_to_cpu, .-fdt32_to_cpu
	.section	.text.fdt32_ld,"ax",@progbits
	.align	1
	.type	fdt32_ld, @function
fdt32_ld:
.LFB8:
	.file 2 "/home/chandu/sdk/bl602_iot_sdk/components/stage/blfdt/inc/libfdt.h"
	.loc 2 194 1
	.cfi_startproc
	addi	sp,sp,-48
	.cfi_def_cfa_offset 48
	sw	ra,44(sp)
	sw	s0,40(sp)
	.cfi_offset 1, -4
	.cfi_offset 8, -8
	addi	s0,sp,48
	.cfi_def_cfa 8, 0
	sw	a0,-36(s0)
	.loc 2 195 20
	lw	a5,-36(s0)
	sw	a5,-20(s0)
	.loc 2 197 25
	lw	a5,-20(s0)
	lbu	a5,0(a5)
	.loc 2 197 29
	slli	a4,a5,24
	.loc 2 198 24
	lw	a5,-20(s0)
	addi	a5,a5,1
	lbu	a5,0(a5)
	.loc 2 198 28
	slli	a5,a5,16
	.loc 2 198 9
	or	a4,a4,a5
	.loc 2 199 24
	lw	a5,-20(s0)
	addi	a5,a5,2
	lbu	a5,0(a5)
	.loc 2 199 28
	slli	a5,a5,8
	.loc 2 199 9
	or	a5,a4,a5
	.loc 2 200 13
	lw	a4,-20(s0)
	addi	a4,a4,3
	lbu	a4,0(a4)
	.loc 2 200 9
	or	a5,a5,a4
	.loc 2 201 1
	mv	a0,a5
	lw	ra,44(sp)
	.cfi_restore 1
	lw	s0,40(sp)
	.cfi_restore 8
	.cfi_def_cfa 2, 48
	addi	sp,sp,48
	.cfi_def_cfa_offset 0
	jr	ra
	.cfi_endproc
.LFE8:
	.size	fdt32_ld, .-fdt32_ld
	.section	.text.fdt_header_size,"ax",@progbits
	.align	1
	.type	fdt_header_size, @function
fdt_header_size:
.LFB20:
	.loc 2 313 1
	.cfi_startproc
	addi	sp,sp,-32
	.cfi_def_cfa_offset 32
	sw	ra,28(sp)
	sw	s0,24(sp)
	.cfi_offset 1, -4
	.cfi_offset 8, -8
	addi	s0,sp,32
	.cfi_def_cfa 8, 0
	sw	a0,-20(s0)
	.loc 2 314 12
	lw	a5,-20(s0)
	addi	a5,a5,20
	mv	a0,a5
	call	fdt32_ld
	mv	a5,a0
	.loc 2 314 12 is_stmt 0 discriminator 1
	mv	a0,a5
	call	fdt_header_size_
	mv	a5,a0
	.loc 2 315 1 is_stmt 1
	mv	a0,a5
	lw	ra,28(sp)
	.cfi_restore 1
	lw	s0,24(sp)
	.cfi_restore 8
	.cfi_def_cfa 2, 32
	addi	sp,sp,32
	.cfi_def_cfa_offset 0
	jr	ra
	.cfi_endproc
.LFE20:
	.size	fdt_header_size, .-fdt_header_size
	.section	.text.fdt_offset_ptr_,"ax",@progbits
	.align	1
	.type	fdt_offset_ptr_, @function
fdt_offset_ptr_:
.LFB36:
	.file 3 "/home/chandu/sdk/bl602_iot_sdk/components/stage/blfdt/inc/libfdt_internal.h"
	.loc 3 101 1
	.cfi_startproc
	addi	sp,sp,-32
	.cfi_def_cfa_offset 32
	sw	ra,28(sp)
	sw	s0,24(sp)
	.cfi_offset 1, -4
	.cfi_offset 8, -8
	addi	s0,sp,32
	.cfi_def_cfa 8, 0
	sw	a0,-20(s0)
	sw	a1,-24(s0)
	.loc 3 102 34
	lw	a5,-20(s0)
	addi	a5,a5,8
	mv	a0,a5
	call	fdt32_ld
	mv	a4,a0
	.loc 3 102 97 discriminator 1
	lw	a5,-24(s0)
	add	a5,a4,a5
	lw	a4,-20(s0)
	add	a5,a4,a5
	.loc 3 103 1
	mv	a0,a5
	lw	ra,28(sp)
	.cfi_restore 1
	lw	s0,24(sp)
	.cfi_restore 8
	.cfi_def_cfa 2, 32
	addi	sp,sp,32
	.cfi_def_cfa_offset 0
	jr	ra
	.cfi_endproc
.LFE36:
	.size	fdt_offset_ptr_, .-fdt_offset_ptr_
	.section	.text.fdt_ro_probe_,"ax",@progbits
	.align	1
	.globl	fdt_ro_probe_
	.type	fdt_ro_probe_, @function
fdt_ro_probe_:
.LFB40:
	.file 4 "/home/chandu/sdk/bl602_iot_sdk/components/stage/blfdt/src/fdt.c"
	.loc 4 43 1
	.cfi_startproc
	addi	sp,sp,-32
	.cfi_def_cfa_offset 32
	sw	ra,28(sp)
	sw	s0,24(sp)
	.cfi_offset 1, -4
	.cfi_offset 8, -8
	addi	s0,sp,32
	.cfi_def_cfa 8, 0
	sw	a0,-20(s0)
	.loc 4 44 11
	lw	a5,-20(s0)
	mv	a0,a5
	call	fdt32_ld
	mv	a4,a0
	.loc 4 44 8 discriminator 1
	li	a5,-804388864
	addi	a5,a5,-275
	bne	a4,a5,.L10
	.loc 4 46 15
	lw	a5,-20(s0)
	addi	a5,a5,20
	mv	a0,a5
	call	fdt32_ld
	mv	a4,a0
	.loc 4 46 12 discriminator 1
	li	a5,1
	bgtu	a4,a5,.L11
	.loc 4 47 20
	li	a5,-10
	j	.L12
.L11:
	.loc 4 48 15
	lw	a5,-20(s0)
	addi	a5,a5,24
	mv	a0,a5
	call	fdt32_ld
	mv	a4,a0
	.loc 4 48 12 discriminator 1
	li	a5,17
	bleu	a4,a5,.L13
	.loc 4 49 20
	li	a5,-10
	j	.L12
.L10:
	.loc 4 50 18
	lw	a5,-20(s0)
	mv	a0,a5
	call	fdt32_ld
	mv	a4,a0
	.loc 4 50 15 discriminator 1
	li	a5,804388864
	addi	a5,a5,274
	bne	a4,a5,.L14
	.loc 4 52 15
	lw	a5,-20(s0)
	addi	a5,a5,36
	mv	a0,a5
	call	fdt32_ld
	mv	a5,a0
	.loc 4 52 12 discriminator 1
	bne	a5,zero,.L13
	.loc 4 53 20
	li	a5,-7
	j	.L12
.L14:
	.loc 4 55 16
	li	a5,-9
	j	.L12
.L13:
	.loc 4 58 12
	li	a5,0
.L12:
	.loc 4 59 1
	mv	a0,a5
	lw	ra,28(sp)
	.cfi_restore 1
	lw	s0,24(sp)
	.cfi_restore 8
	.cfi_def_cfa 2, 32
	addi	sp,sp,32
	.cfi_def_cfa_offset 0
	jr	ra
	.cfi_endproc
.LFE40:
	.size	fdt_ro_probe_, .-fdt_ro_probe_
	.section	.text.check_off_,"ax",@progbits
	.align	1
	.type	check_off_, @function
check_off_:
.LFB41:
	.loc 4 62 1
	.cfi_startproc
	addi	sp,sp,-32
	.cfi_def_cfa_offset 32
	sw	ra,28(sp)
	sw	s0,24(sp)
	.cfi_offset 1, -4
	.cfi_offset 8, -8
	addi	s0,sp,32
	.cfi_def_cfa 8, 0
	sw	a0,-20(s0)
	sw	a1,-24(s0)
	sw	a2,-28(s0)
	.loc 4 63 29
	lw	a4,-28(s0)
	lw	a5,-20(s0)
	bltu	a4,a5,.L16
	.loc 4 63 29 is_stmt 0 discriminator 1
	lw	a4,-28(s0)
	lw	a5,-24(s0)
	bgtu	a4,a5,.L16
	.loc 4 63 29 discriminator 3
	li	a5,1
	.loc 4 63 29
	j	.L18
.L16:
	.loc 4 63 29 discriminator 4
	li	a5,0
.L18:
	.loc 4 64 1 is_stmt 1
	mv	a0,a5
	lw	ra,28(sp)
	.cfi_restore 1
	lw	s0,24(sp)
	.cfi_restore 8
	.cfi_def_cfa 2, 32
	addi	sp,sp,32
	.cfi_def_cfa_offset 0
	jr	ra
	.cfi_endproc
.LFE41:
	.size	check_off_, .-check_off_
	.section	.text.check_block_,"ax",@progbits
	.align	1
	.type	check_block_, @function
check_block_:
.LFB42:
	.loc 4 68 1
	.cfi_startproc
	addi	sp,sp,-32
	.cfi_def_cfa_offset 32
	sw	ra,28(sp)
	sw	s0,24(sp)
	.cfi_offset 1, -4
	.cfi_offset 8, -8
	addi	s0,sp,32
	.cfi_def_cfa 8, 0
	sw	a0,-20(s0)
	sw	a1,-24(s0)
	sw	a2,-28(s0)
	sw	a3,-32(s0)
	.loc 4 69 10
	lw	a2,-28(s0)
	lw	a1,-24(s0)
	lw	a0,-20(s0)
	call	check_off_
	mv	a5,a0
	.loc 4 69 8 discriminator 1
	bne	a5,zero,.L20
	.loc 4 70 16
	li	a5,0
	j	.L21
.L20:
	.loc 4 71 15
	lw	a4,-28(s0)
	lw	a5,-32(s0)
	add	a5,a4,a5
	.loc 4 71 8
	lw	a4,-28(s0)
	bleu	a4,a5,.L22
	.loc 4 72 16
	li	a5,0
	j	.L21
.L22:
	.loc 4 73 10
	lw	a4,-28(s0)
	lw	a5,-32(s0)
	add	a5,a4,a5
	mv	a2,a5
	lw	a1,-24(s0)
	lw	a0,-20(s0)
	call	check_off_
	mv	a5,a0
	.loc 4 73 8 discriminator 1
	bne	a5,zero,.L23
	.loc 4 74 16
	li	a5,0
	j	.L21
.L23:
	.loc 4 75 12
	li	a5,1
.L21:
	.loc 4 76 1
	mv	a0,a5
	lw	ra,28(sp)
	.cfi_restore 1
	lw	s0,24(sp)
	.cfi_restore 8
	.cfi_def_cfa 2, 32
	addi	sp,sp,32
	.cfi_def_cfa_offset 0
	jr	ra
	.cfi_endproc
.LFE42:
	.size	check_block_, .-check_block_
	.section	.text.fdt_header_size_,"ax",@progbits
	.align	1
	.globl	fdt_header_size_
	.type	fdt_header_size_, @function
fdt_header_size_:
.LFB43:
	.loc 4 79 1
	.cfi_startproc
	addi	sp,sp,-32
	.cfi_def_cfa_offset 32
	sw	ra,28(sp)
	sw	s0,24(sp)
	.cfi_offset 1, -4
	.cfi_offset 8, -8
	addi	s0,sp,32
	.cfi_def_cfa 8, 0
	sw	a0,-20(s0)
	.loc 4 80 8
	lw	a4,-20(s0)
	li	a5,1
	bgtu	a4,a5,.L25
	.loc 4 81 16
	li	a5,28
	j	.L26
.L25:
	.loc 4 82 13
	lw	a4,-20(s0)
	li	a5,2
	bgtu	a4,a5,.L27
	.loc 4 83 16
	li	a5,32
	j	.L26
.L27:
	.loc 4 84 13
	lw	a4,-20(s0)
	li	a5,3
	bgtu	a4,a5,.L28
	.loc 4 85 16
	li	a5,36
	j	.L26
.L28:
	.loc 4 86 13
	lw	a4,-20(s0)
	li	a5,16
	bgtu	a4,a5,.L29
	.loc 4 87 16
	li	a5,36
	j	.L26
.L29:
	.loc 4 89 16
	li	a5,40
.L26:
	.loc 4 90 1
	mv	a0,a5
	lw	ra,28(sp)
	.cfi_restore 1
	lw	s0,24(sp)
	.cfi_restore 8
	.cfi_def_cfa 2, 32
	addi	sp,sp,32
	.cfi_def_cfa_offset 0
	jr	ra
	.cfi_endproc
.LFE43:
	.size	fdt_header_size_, .-fdt_header_size_
	.section	.text.fdt_check_header,"ax",@progbits
	.align	1
	.globl	fdt_check_header
	.type	fdt_check_header, @function
fdt_check_header:
.LFB44:
	.loc 4 93 1
	.cfi_startproc
	addi	sp,sp,-48
	.cfi_def_cfa_offset 48
	sw	ra,44(sp)
	sw	s0,40(sp)
	sw	s1,36(sp)
	sw	s2,32(sp)
	.cfi_offset 1, -4
	.cfi_offset 8, -8
	.cfi_offset 9, -12
	.cfi_offset 18, -16
	addi	s0,sp,48
	.cfi_def_cfa 8, 0
	sw	a0,-36(s0)
	.loc 4 96 11
	lw	a5,-36(s0)
	mv	a0,a5
	call	fdt32_ld
	mv	a4,a0
	.loc 4 96 8 discriminator 1
	li	a5,-804388864
	addi	a5,a5,-275
	beq	a4,a5,.L31
	.loc 4 97 16
	li	a5,-9
	j	.L32
.L31:
	.loc 4 98 15
	lw	a0,-36(s0)
	call	fdt_header_size
	sw	a0,-20(s0)
	.loc 4 99 12
	lw	a5,-36(s0)
	addi	a5,a5,20
	mv	a0,a5
	call	fdt32_ld
	mv	a4,a0
	.loc 4 99 8 discriminator 1
	li	a5,1
	bleu	a4,a5,.L33
	.loc 4 100 15
	lw	a5,-36(s0)
	addi	a5,a5,24
	mv	a0,a5
	call	fdt32_ld
	mv	a4,a0
	.loc 4 100 9 discriminator 1
	li	a5,17
	bleu	a4,a5,.L34
.L33:
	.loc 4 101 16
	li	a5,-10
	j	.L32
.L34:
	.loc 4 102 11
	lw	a5,-36(s0)
	addi	a5,a5,20
	mv	a0,a5
	call	fdt32_ld
	mv	s1,a0
	.loc 4 102 72 discriminator 1
	lw	a5,-36(s0)
	addi	a5,a5,24
	mv	a0,a5
	call	fdt32_ld
	mv	a5,a0
	.loc 4 102 8 discriminator 2
	bgeu	s1,a5,.L35
	.loc 4 103 16
	li	a5,-10
	j	.L32
.L35:
	.loc 4 105 12
	lw	a5,-36(s0)
	addi	a5,a5,4
	mv	a0,a5
	call	fdt32_ld
	mv	a4,a0
	.loc 4 105 8 discriminator 1
	lw	a5,-20(s0)
	bgtu	a5,a4,.L36
	.loc 4 106 15
	lw	a5,-36(s0)
	addi	a5,a5,4
	mv	a0,a5
	call	fdt32_ld
	mv	a5,a0
	.loc 4 106 9 discriminator 1
	bge	a5,zero,.L37
.L36:
	.loc 4 107 16
	li	a5,-8
	j	.L32
.L37:
	.loc 4 110 10
	lw	a5,-36(s0)
	addi	a5,a5,4
	mv	a0,a5
	call	fdt32_ld
	mv	s1,a0
	.loc 4 110 10 is_stmt 0 discriminator 1
	lw	a5,-36(s0)
	addi	a5,a5,16
	mv	a0,a5
	call	fdt32_ld
	mv	a5,a0
	.loc 4 110 10 discriminator 2
	mv	a2,a5
	mv	a1,s1
	lw	a0,-20(s0)
	call	check_off_
	mv	a5,a0
	.loc 4 110 8 is_stmt 1 discriminator 3
	bne	a5,zero,.L38
	.loc 4 111 16
	li	a5,-8
	j	.L32
.L38:
	.loc 4 114 11
	lw	a5,-36(s0)
	addi	a5,a5,20
	mv	a0,a5
	call	fdt32_ld
	mv	a4,a0
	.loc 4 114 8 discriminator 1
	li	a5,16
	bgtu	a4,a5,.L39
	.loc 4 115 14
	lw	a5,-36(s0)
	addi	a5,a5,4
	mv	a0,a5
	call	fdt32_ld
	mv	s1,a0
	.loc 4 115 14 is_stmt 0 discriminator 1
	lw	a5,-36(s0)
	addi	a5,a5,8
	mv	a0,a5
	call	fdt32_ld
	mv	a5,a0
	.loc 4 115 14 discriminator 2
	mv	a2,a5
	mv	a1,s1
	lw	a0,-20(s0)
	call	check_off_
	mv	a5,a0
	.loc 4 115 12 is_stmt 1 discriminator 3
	bne	a5,zero,.L40
	.loc 4 117 20
	li	a5,-8
	j	.L32
.L39:
	.loc 4 119 14
	lw	a5,-36(s0)
	addi	a5,a5,4
	mv	a0,a5
	call	fdt32_ld
	mv	s1,a0
	.loc 4 119 14 is_stmt 0 discriminator 1
	lw	a5,-36(s0)
	addi	a5,a5,8
	mv	a0,a5
	call	fdt32_ld
	mv	s2,a0
	.loc 4 119 14 discriminator 2
	lw	a5,-36(s0)
	addi	a5,a5,36
	mv	a0,a5
	call	fdt32_ld
	mv	a5,a0
	.loc 4 119 14 discriminator 3
	mv	a3,a5
	mv	a2,s2
	mv	a1,s1
	lw	a0,-20(s0)
	call	check_block_
	mv	a5,a0
	.loc 4 119 12 is_stmt 1 discriminator 4
	bne	a5,zero,.L40
	.loc 4 122 20
	li	a5,-8
	j	.L32
.L40:
	.loc 4 126 10
	lw	a5,-36(s0)
	addi	a5,a5,4
	mv	a0,a5
	call	fdt32_ld
	mv	s1,a0
	.loc 4 126 10 is_stmt 0 discriminator 1
	lw	a5,-36(s0)
	addi	a5,a5,12
	mv	a0,a5
	call	fdt32_ld
	mv	s2,a0
	.loc 4 126 10 discriminator 2
	lw	a5,-36(s0)
	addi	a5,a5,32
	mv	a0,a5
	call	fdt32_ld
	mv	a5,a0
	.loc 4 126 10 discriminator 3
	mv	a3,a5
	mv	a2,s2
	mv	a1,s1
	lw	a0,-20(s0)
	call	check_block_
	mv	a5,a0
	.loc 4 126 8 is_stmt 1 discriminator 4
	bne	a5,zero,.L41
	.loc 4 128 16
	li	a5,-8
	j	.L32
.L41:
	.loc 4 130 12
	li	a5,0
.L32:
	.loc 4 131 1
	mv	a0,a5
	lw	ra,44(sp)
	.cfi_restore 1
	lw	s0,40(sp)
	.cfi_restore 8
	.cfi_def_cfa 2, 48
	lw	s1,36(sp)
	.cfi_restore 9
	lw	s2,32(sp)
	.cfi_restore 18
	addi	sp,sp,48
	.cfi_def_cfa_offset 0
	jr	ra
	.cfi_endproc
.LFE44:
	.size	fdt_check_header, .-fdt_check_header
	.section	.text.fdt_offset_ptr,"ax",@progbits
	.align	1
	.globl	fdt_offset_ptr
	.type	fdt_offset_ptr, @function
fdt_offset_ptr:
.LFB45:
	.loc 4 134 1
	.cfi_startproc
	addi	sp,sp,-48
	.cfi_def_cfa_offset 48
	sw	ra,44(sp)
	sw	s0,40(sp)
	sw	s1,36(sp)
	.cfi_offset 1, -4
	.cfi_offset 8, -8
	.cfi_offset 9, -12
	addi	s0,sp,48
	.cfi_def_cfa 8, 0
	sw	a0,-36(s0)
	sw	a1,-40(s0)
	sw	a2,-44(s0)
	.loc 4 135 37
	lw	a5,-36(s0)
	addi	a5,a5,8
	mv	a0,a5
	call	fdt32_ld
	mv	a4,a0
	.loc 4 135 33 discriminator 1
	lw	a5,-40(s0)
	.loc 4 135 14 discriminator 1
	add	a5,a4,a5
	sw	a5,-20(s0)
	.loc 4 137 20
	lw	a5,-40(s0)
	.loc 4 137 8
	lw	a4,-20(s0)
	bltu	a4,a5,.L43
	.loc 4 138 24
	lw	a4,-20(s0)
	lw	a5,-44(s0)
	add	a5,a4,a5
	.loc 4 138 9
	lw	a4,-20(s0)
	bgtu	a4,a5,.L43
	.loc 4 139 23
	lw	a4,-20(s0)
	lw	a5,-44(s0)
	add	s1,a4,a5
	.loc 4 139 34
	lw	a5,-36(s0)
	addi	a5,a5,4
	mv	a0,a5
	call	fdt32_ld
	mv	a5,a0
	.loc 4 139 9 discriminator 1
	bleu	s1,a5,.L44
.L43:
	.loc 4 140 15
	li	a5,0
	j	.L45
.L44:
	.loc 4 142 11
	lw	a5,-36(s0)
	addi	a5,a5,20
	mv	a0,a5
	call	fdt32_ld
	mv	a4,a0
	.loc 4 142 8 discriminator 1
	li	a5,16
	bleu	a4,a5,.L46
	.loc 4 143 22
	lw	a4,-40(s0)
	lw	a5,-44(s0)
	add	a4,a4,a5
	.loc 4 143 29
	lw	a5,-40(s0)
	.loc 4 143 12
	bltu	a4,a5,.L47
	.loc 4 144 25
	lw	a4,-40(s0)
	lw	a5,-44(s0)
	add	s1,a4,a5
	.loc 4 144 36
	lw	a5,-36(s0)
	addi	a5,a5,36
	mv	a0,a5
	call	fdt32_ld
	mv	a5,a0
	.loc 4 144 13 discriminator 1
	bleu	s1,a5,.L46
.L47:
	.loc 4 145 19
	li	a5,0
	j	.L45
.L46:
	.loc 4 147 12
	lw	a1,-40(s0)
	lw	a0,-36(s0)
	call	fdt_offset_ptr_
	mv	a5,a0
.L45:
	.loc 4 148 1
	mv	a0,a5
	lw	ra,44(sp)
	.cfi_restore 1
	lw	s0,40(sp)
	.cfi_restore 8
	.cfi_def_cfa 2, 48
	lw	s1,36(sp)
	.cfi_restore 9
	addi	sp,sp,48
	.cfi_def_cfa_offset 0
	jr	ra
	.cfi_endproc
.LFE45:
	.size	fdt_offset_ptr, .-fdt_offset_ptr
	.section	.text.fdt_next_tag,"ax",@progbits
	.align	1
	.globl	fdt_next_tag
	.type	fdt_next_tag, @function
fdt_next_tag:
.LFB46:
	.loc 4 151 1
	.cfi_startproc
	addi	sp,sp,-64
	.cfi_def_cfa_offset 64
	sw	ra,60(sp)
	sw	s0,56(sp)
	sw	s1,52(sp)
	.cfi_offset 1, -4
	.cfi_offset 8, -8
	.cfi_offset 9, -12
	addi	s0,sp,64
	.cfi_def_cfa 8, 0
	sw	a0,-52(s0)
	sw	a1,-56(s0)
	sw	a2,-60(s0)
	.loc 4 154 9
	lw	a5,-56(s0)
	sw	a5,-20(s0)
	.loc 4 157 17
	lw	a5,-60(s0)
	li	a4,-8
	sw	a4,0(a5)
	.loc 4 158 12
	li	a2,4
	lw	a1,-20(s0)
	lw	a0,-52(s0)
	call	fdt_offset_ptr
	sw	a0,-24(s0)
	.loc 4 159 8
	lw	a5,-24(s0)
	bne	a5,zero,.L49
	.loc 4 160 16
	li	a5,9
	j	.L50
.L49:
	.loc 4 161 11
	lw	a5,-24(s0)
	lw	a5,0(a5)
	mv	a0,a5
	call	fdt32_to_cpu
	sw	a0,-28(s0)
	.loc 4 162 12
	lw	a5,-20(s0)
	addi	a5,a5,4
	sw	a5,-20(s0)
	.loc 4 164 17
	lw	a5,-60(s0)
	li	a4,-11
	sw	a4,0(a5)
	.loc 4 165 5
	lw	a4,-28(s0)
	li	a5,9
	beq	a4,a5,.L61
	lw	a4,-28(s0)
	li	a5,9
	bgtu	a4,a5,.L52
	lw	a4,-28(s0)
	li	a5,4
	beq	a4,a5,.L61
	lw	a4,-28(s0)
	li	a5,4
	bgtu	a4,a5,.L52
	lw	a4,-28(s0)
	li	a5,3
	beq	a4,a5,.L53
	lw	a4,-28(s0)
	li	a5,3
	bgtu	a4,a5,.L52
	lw	a4,-28(s0)
	li	a5,1
	beq	a4,a5,.L54
	lw	a4,-28(s0)
	li	a5,2
	beq	a4,a5,.L61
	j	.L52
.L54:
	.loc 4 169 17
	lw	a5,-20(s0)
	addi	a4,a5,1
	sw	a4,-20(s0)
	li	a2,1
	mv	a1,a5
	lw	a0,-52(s0)
	call	fdt_offset_ptr
	sw	a0,-36(s0)
	.loc 4 170 20 discriminator 2
	lw	a5,-36(s0)
	beq	a5,zero,.L55
	.loc 4 170 24 discriminator 1
	lw	a5,-36(s0)
	lbu	a5,0(a5)
	.loc 4 170 20 discriminator 1
	beq	a5,zero,.L55
	.loc 4 166 5
	nop
	j	.L54
.L55:
	.loc 4 171 12
	lw	a5,-36(s0)
	bne	a5,zero,.L62
	.loc 4 172 20
	li	a5,9
	j	.L50
.L53:
	.loc 4 176 16
	li	a2,4
	lw	a1,-20(s0)
	lw	a0,-52(s0)
	call	fdt_offset_ptr
	sw	a0,-32(s0)
	.loc 4 177 12
	lw	a5,-32(s0)
	bne	a5,zero,.L58
	.loc 4 178 20
	li	a5,9
	j	.L50
.L58:
	.loc 4 181 15
	lw	a5,-32(s0)
	lw	a5,0(a5)
	mv	a0,a5
	call	fdt32_to_cpu
	mv	a5,a0
	.loc 4 181 13 discriminator 1
	addi	a4,a5,8
	.loc 4 180 16
	lw	a5,-20(s0)
	add	a5,a4,a5
	sw	a5,-20(s0)
	.loc 4 182 15
	lw	a5,-52(s0)
	addi	a5,a5,20
	mv	a0,a5
	call	fdt32_ld
	mv	a4,a0
	.loc 4 182 12 discriminator 1
	li	a5,15
	bgtu	a4,a5,.L63
	.loc 4 182 82 discriminator 2
	lw	a5,-32(s0)
	lw	a5,0(a5)
	mv	a0,a5
	call	fdt32_to_cpu
	mv	a4,a0
	.loc 4 182 79 discriminator 3
	li	a5,7
	bleu	a4,a5,.L63
	.loc 4 183 22
	lw	s1,-20(s0)
	.loc 4 183 24
	lw	a5,-32(s0)
	lw	a5,0(a5)
	mv	a0,a5
	call	fdt32_to_cpu
	mv	a5,a0
	.loc 4 183 22 discriminator 1
	sub	a5,s1,a5
	.loc 4 183 45 discriminator 1
	andi	a5,a5,7
	.loc 4 182 107 discriminator 4
	beq	a5,zero,.L63
	.loc 4 184 20
	lw	a5,-20(s0)
	addi	a5,a5,4
	sw	a5,-20(s0)
	.loc 4 185 9
	j	.L63
.L52:
	.loc 4 193 16
	li	a5,9
	j	.L50
.L61:
	.loc 4 190 9
	nop
	j	.L57
.L62:
	.loc 4 173 9
	nop
	j	.L57
.L63:
	.loc 4 185 9
	nop
.L57:
	.loc 4 196 50
	lw	a4,-20(s0)
	lw	a5,-56(s0)
	sub	a5,a4,a5
	.loc 4 196 10
	mv	a2,a5
	lw	a1,-56(s0)
	lw	a0,-52(s0)
	call	fdt_offset_ptr
	mv	a5,a0
	.loc 4 196 8 discriminator 1
	bne	a5,zero,.L60
	.loc 4 197 16
	li	a5,9
	j	.L50
.L60:
	.loc 4 199 53
	lw	a5,-20(s0)
	addi	a5,a5,3
	.loc 4 199 58
	andi	a4,a5,-4
	.loc 4 199 17
	lw	a5,-60(s0)
	sw	a4,0(a5)
	.loc 4 200 12
	lw	a5,-28(s0)
.L50:
	.loc 4 201 1
	mv	a0,a5
	lw	ra,60(sp)
	.cfi_restore 1
	lw	s0,56(sp)
	.cfi_restore 8
	.cfi_def_cfa 2, 64
	lw	s1,52(sp)
	.cfi_restore 9
	addi	sp,sp,64
	.cfi_def_cfa_offset 0
	jr	ra
	.cfi_endproc
.LFE46:
	.size	fdt_next_tag, .-fdt_next_tag
	.section	.text.fdt_check_node_offset_,"ax",@progbits
	.align	1
	.globl	fdt_check_node_offset_
	.type	fdt_check_node_offset_, @function
fdt_check_node_offset_:
.LFB47:
	.loc 4 204 1
	.cfi_startproc
	addi	sp,sp,-32
	.cfi_def_cfa_offset 32
	sw	ra,28(sp)
	sw	s0,24(sp)
	.cfi_offset 1, -4
	.cfi_offset 8, -8
	addi	s0,sp,32
	.cfi_def_cfa 8, 0
	sw	a0,-20(s0)
	sw	a1,-24(s0)
	.loc 4 205 17
	lw	a5,-24(s0)
	.loc 4 205 8
	blt	a5,zero,.L65
	.loc 4 205 33 discriminator 1
	lw	a5,-24(s0)
	andi	a5,a5,3
	.loc 4 205 22 discriminator 1
	bne	a5,zero,.L65
	.loc 4 206 13
	lw	a5,-24(s0)
	addi	a4,s0,-24
	mv	a2,a4
	mv	a1,a5
	lw	a0,-20(s0)
	call	fdt_next_tag
	mv	a4,a0
	.loc 4 206 9 discriminator 1
	li	a5,1
	beq	a4,a5,.L66
.L65:
	.loc 4 207 16
	li	a5,-4
	j	.L67
.L66:
	.loc 4 209 12
	lw	a5,-24(s0)
.L67:
	.loc 4 210 1
	mv	a0,a5
	lw	ra,28(sp)
	.cfi_restore 1
	lw	s0,24(sp)
	.cfi_restore 8
	.cfi_def_cfa 2, 32
	addi	sp,sp,32
	.cfi_def_cfa_offset 0
	jr	ra
	.cfi_endproc
.LFE47:
	.size	fdt_check_node_offset_, .-fdt_check_node_offset_
	.section	.text.fdt_check_prop_offset_,"ax",@progbits
	.align	1
	.globl	fdt_check_prop_offset_
	.type	fdt_check_prop_offset_, @function
fdt_check_prop_offset_:
.LFB48:
	.loc 4 213 1
	.cfi_startproc
	addi	sp,sp,-32
	.cfi_def_cfa_offset 32
	sw	ra,28(sp)
	sw	s0,24(sp)
	.cfi_offset 1, -4
	.cfi_offset 8, -8
	addi	s0,sp,32
	.cfi_def_cfa 8, 0
	sw	a0,-20(s0)
	sw	a1,-24(s0)
	.loc 4 214 17
	lw	a5,-24(s0)
	.loc 4 214 8
	blt	a5,zero,.L69
	.loc 4 214 33 discriminator 1
	lw	a5,-24(s0)
	andi	a5,a5,3
	.loc 4 214 22 discriminator 1
	bne	a5,zero,.L69
	.loc 4 215 13
	lw	a5,-24(s0)
	addi	a4,s0,-24
	mv	a2,a4
	mv	a1,a5
	lw	a0,-20(s0)
	call	fdt_next_tag
	mv	a4,a0
	.loc 4 215 9 discriminator 1
	li	a5,3
	beq	a4,a5,.L70
.L69:
	.loc 4 216 16
	li	a5,-4
	j	.L71
.L70:
	.loc 4 218 12
	lw	a5,-24(s0)
.L71:
	.loc 4 219 1
	mv	a0,a5
	lw	ra,28(sp)
	.cfi_restore 1
	lw	s0,24(sp)
	.cfi_restore 8
	.cfi_def_cfa 2, 32
	addi	sp,sp,32
	.cfi_def_cfa_offset 0
	jr	ra
	.cfi_endproc
.LFE48:
	.size	fdt_check_prop_offset_, .-fdt_check_prop_offset_
	.section	.text.fdt_next_node,"ax",@progbits
	.align	1
	.globl	fdt_next_node
	.type	fdt_next_node, @function
fdt_next_node:
.LFB49:
	.loc 4 222 1
	.cfi_startproc
	addi	sp,sp,-48
	.cfi_def_cfa_offset 48
	sw	ra,44(sp)
	sw	s0,40(sp)
	.cfi_offset 1, -4
	.cfi_offset 8, -8
	addi	s0,sp,48
	.cfi_def_cfa 8, 0
	sw	a0,-36(s0)
	sw	a1,-40(s0)
	sw	a2,-44(s0)
	.loc 4 223 9
	sw	zero,-24(s0)
	.loc 4 226 8
	lw	a5,-40(s0)
	blt	a5,zero,.L84
	.loc 4 227 27
	lw	a1,-40(s0)
	lw	a0,-36(s0)
	call	fdt_check_node_offset_
	mv	a5,a0
	.loc 4 227 25 discriminator 1
	sw	a5,-24(s0)
	lw	a5,-24(s0)
	.loc 4 227 12 discriminator 1
	bge	a5,zero,.L84
	.loc 4 228 20
	lw	a5,-24(s0)
	j	.L85
.L84:
	.loc 4 231 16
	lw	a5,-24(s0)
	sw	a5,-40(s0)
	.loc 4 232 15
	addi	a5,s0,-24
	mv	a2,a5
	lw	a1,-40(s0)
	lw	a0,-36(s0)
	call	fdt_next_tag
	sw	a0,-20(s0)
	.loc 4 234 9
	lw	a4,-20(s0)
	li	a5,9
	beq	a4,a5,.L75
	lw	a4,-20(s0)
	li	a5,9
	bgtu	a4,a5,.L76
	lw	a4,-20(s0)
	li	a5,4
	bgtu	a4,a5,.L76
	lw	a4,-20(s0)
	li	a5,3
	bgeu	a4,a5,.L86
	lw	a4,-20(s0)
	li	a5,1
	beq	a4,a5,.L78
	lw	a4,-20(s0)
	li	a5,2
	beq	a4,a5,.L79
	j	.L76
.L78:
	.loc 4 240 16
	lw	a5,-44(s0)
	beq	a5,zero,.L87
	.loc 4 241 18
	lw	a5,-44(s0)
	lw	a5,0(a5)
	.loc 4 241 25
	addi	a4,a5,1
	lw	a5,-44(s0)
	sw	a4,0(a5)
	.loc 4 242 13
	j	.L87
.L79:
	.loc 4 245 16
	lw	a5,-44(s0)
	beq	a5,zero,.L88
	.loc 4 245 31 discriminator 1
	lw	a5,-44(s0)
	lw	a5,0(a5)
	.loc 4 245 28 discriminator 1
	addi	a4,a5,-1
	.loc 4 245 23 discriminator 1
	lw	a5,-44(s0)
	sw	a4,0(a5)
	.loc 4 245 31 discriminator 1
	lw	a5,-44(s0)
	lw	a5,0(a5)
	.loc 4 245 23 discriminator 1
	bge	a5,zero,.L88
	.loc 4 246 24
	lw	a5,-24(s0)
	j	.L85
.L75:
	.loc 4 250 29
	lw	a5,-24(s0)
	.loc 4 250 16
	bge	a5,zero,.L82
	.loc 4 251 33
	lw	a4,-24(s0)
	.loc 4 251 17
	li	a5,-8
	bne	a4,a5,.L83
	.loc 4 251 40 discriminator 1
	lw	a5,-44(s0)
	bne	a5,zero,.L83
.L82:
	.loc 4 252 24
	li	a5,-1
	j	.L85
.L83:
	.loc 4 254 24
	lw	a5,-24(s0)
	j	.L85
.L86:
	.loc 4 237 13
	nop
	j	.L76
.L87:
	.loc 4 242 13
	nop
	j	.L76
.L88:
	.loc 4 247 13
	nop
.L76:
	.loc 4 256 18
	lw	a4,-20(s0)
	li	a5,1
	bne	a4,a5,.L84
	.loc 4 258 12
	lw	a5,-40(s0)
.L85:
	.loc 4 259 1
	mv	a0,a5
	lw	ra,44(sp)
	.cfi_restore 1
	lw	s0,40(sp)
	.cfi_restore 8
	.cfi_def_cfa 2, 48
	addi	sp,sp,48
	.cfi_def_cfa_offset 0
	jr	ra
	.cfi_endproc
.LFE49:
	.size	fdt_next_node, .-fdt_next_node
	.section	.text.fdt_first_subnode,"ax",@progbits
	.align	1
	.globl	fdt_first_subnode
	.type	fdt_first_subnode, @function
fdt_first_subnode:
.LFB50:
	.loc 4 262 1
	.cfi_startproc
	addi	sp,sp,-48
	.cfi_def_cfa_offset 48
	sw	ra,44(sp)
	sw	s0,40(sp)
	.cfi_offset 1, -4
	.cfi_offset 8, -8
	addi	s0,sp,48
	.cfi_def_cfa 8, 0
	sw	a0,-36(s0)
	sw	a1,-40(s0)
	.loc 4 263 9
	sw	zero,-20(s0)
	.loc 4 265 14
	addi	a5,s0,-20
	mv	a2,a5
	lw	a1,-40(s0)
	lw	a0,-36(s0)
	call	fdt_next_node
	sw	a0,-40(s0)
	.loc 4 266 8
	lw	a5,-40(s0)
	blt	a5,zero,.L90
	.loc 4 266 29 discriminator 1
	lw	a4,-20(s0)
	.loc 4 266 20 discriminator 1
	li	a5,1
	beq	a4,a5,.L91
.L90:
	.loc 4 267 16
	li	a5,-1
	j	.L93
.L91:
	.loc 4 269 12
	lw	a5,-40(s0)
.L93:
	.loc 4 270 1
	mv	a0,a5
	lw	ra,44(sp)
	.cfi_restore 1
	lw	s0,40(sp)
	.cfi_restore 8
	.cfi_def_cfa 2, 48
	addi	sp,sp,48
	.cfi_def_cfa_offset 0
	jr	ra
	.cfi_endproc
.LFE50:
	.size	fdt_first_subnode, .-fdt_first_subnode
	.section	.text.fdt_next_subnode,"ax",@progbits
	.align	1
	.globl	fdt_next_subnode
	.type	fdt_next_subnode, @function
fdt_next_subnode:
.LFB51:
	.loc 4 273 1
	.cfi_startproc
	addi	sp,sp,-48
	.cfi_def_cfa_offset 48
	sw	ra,44(sp)
	sw	s0,40(sp)
	.cfi_offset 1, -4
	.cfi_offset 8, -8
	addi	s0,sp,48
	.cfi_def_cfa 8, 0
	sw	a0,-36(s0)
	sw	a1,-40(s0)
	.loc 4 274 9
	li	a5,1
	sw	a5,-20(s0)
.L98:
	.loc 4 281 18
	addi	a5,s0,-20
	mv	a2,a5
	lw	a1,-40(s0)
	lw	a0,-36(s0)
	call	fdt_next_node
	sw	a0,-40(s0)
	.loc 4 282 12
	lw	a5,-40(s0)
	blt	a5,zero,.L95
	.loc 4 282 33 discriminator 1
	lw	a5,-20(s0)
	.loc 4 282 24 discriminator 1
	bgt	a5,zero,.L96
.L95:
	.loc 4 283 20
	li	a5,-1
	j	.L99
.L96:
	.loc 4 284 20
	lw	a4,-20(s0)
	li	a5,1
	bgt	a4,a5,.L98
	.loc 4 286 12
	lw	a5,-40(s0)
.L99:
	.loc 4 287 1
	mv	a0,a5
	lw	ra,44(sp)
	.cfi_restore 1
	lw	s0,40(sp)
	.cfi_restore 8
	.cfi_def_cfa 2, 48
	addi	sp,sp,48
	.cfi_def_cfa_offset 0
	jr	ra
	.cfi_endproc
.LFE51:
	.size	fdt_next_subnode, .-fdt_next_subnode
	.section	.text.fdt_find_string_,"ax",@progbits
	.align	1
	.globl	fdt_find_string_
	.type	fdt_find_string_, @function
fdt_find_string_:
.LFB52:
	.loc 4 290 1
	.cfi_startproc
	addi	sp,sp,-48
	.cfi_def_cfa_offset 48
	sw	ra,44(sp)
	sw	s0,40(sp)
	.cfi_offset 1, -4
	.cfi_offset 8, -8
	addi	s0,sp,48
	.cfi_def_cfa 8, 0
	sw	a0,-36(s0)
	sw	a1,-40(s0)
	sw	a2,-44(s0)
	.loc 4 291 15
	lw	a0,-44(s0)
	call	strlen
	mv	a5,a0
	.loc 4 291 25 discriminator 1
	addi	a5,a5,1
	.loc 4 291 9 discriminator 1
	sw	a5,-24(s0)
	.loc 4 292 41
	lw	a4,-40(s0)
	lw	a5,-24(s0)
	sub	a5,a4,a5
	.loc 4 292 17
	lw	a4,-36(s0)
	add	a5,a4,a5
	sw	a5,-28(s0)
	.loc 4 295 12
	lw	a5,-36(s0)
	sw	a5,-20(s0)
	.loc 4 295 5
	j	.L101
.L104:
	.loc 4 296 13
	lw	a5,-24(s0)
	mv	a2,a5
	lw	a1,-44(s0)
	lw	a0,-20(s0)
	call	memcmp
	mv	a5,a0
	.loc 4 296 12 discriminator 1
	bne	a5,zero,.L102
	.loc 4 297 20
	lw	a5,-20(s0)
	j	.L103
.L102:
	.loc 4 295 34 discriminator 2
	lw	a5,-20(s0)
	addi	a5,a5,1
	sw	a5,-20(s0)
.L101:
	.loc 4 295 24 discriminator 1
	lw	a4,-20(s0)
	lw	a5,-28(s0)
	bleu	a4,a5,.L104
	.loc 4 298 11
	li	a5,0
.L103:
	.loc 4 299 1
	mv	a0,a5
	lw	ra,44(sp)
	.cfi_restore 1
	lw	s0,40(sp)
	.cfi_restore 8
	.cfi_def_cfa 2, 48
	addi	sp,sp,48
	.cfi_def_cfa_offset 0
	jr	ra
	.cfi_endproc
.LFE52:
	.size	fdt_find_string_, .-fdt_find_string_
	.section	.text.fdt_move,"ax",@progbits
	.align	1
	.globl	fdt_move
	.type	fdt_move, @function
fdt_move:
.LFB53:
	.loc 4 302 1
	.cfi_startproc
	addi	sp,sp,-48
	.cfi_def_cfa_offset 48
	sw	ra,44(sp)
	sw	s0,40(sp)
	.cfi_offset 1, -4
	.cfi_offset 8, -8
	addi	s0,sp,48
	.cfi_def_cfa 8, 0
	sw	a0,-36(s0)
	sw	a1,-40(s0)
	sw	a2,-44(s0)
.LBB2:
	.loc 4 303 29
	lw	a0,-36(s0)
	call	fdt_ro_probe_
	sw	a0,-20(s0)
	.loc 4 303 20 discriminator 1
	lw	a5,-20(s0)
	beq	a5,zero,.L106
	.loc 4 303 62 discriminator 2
	lw	a5,-20(s0)
	.loc 4 303 62 is_stmt 0
	j	.L107
.L106:
.LBE2:
	.loc 4 305 11 is_stmt 1
	lw	a5,-36(s0)
	addi	a5,a5,4
	mv	a0,a5
	call	fdt32_ld
	mv	a4,a0
	.loc 4 305 70 discriminator 1
	lw	a5,-44(s0)
	.loc 4 305 8 discriminator 1
	bleu	a4,a5,.L108
	.loc 4 306 16
	li	a5,-3
	j	.L107
.L108:
	.loc 4 308 25
	lw	a5,-36(s0)
	addi	a5,a5,4
	mv	a0,a5
	call	fdt32_ld
	mv	a5,a0
	.loc 4 308 5 discriminator 1
	mv	a2,a5
	lw	a1,-36(s0)
	lw	a0,-40(s0)
	call	memmove
	.loc 4 309 12
	li	a5,0
.L107:
	.loc 4 310 1
	mv	a0,a5
	lw	ra,44(sp)
	.cfi_restore 1
	lw	s0,40(sp)
	.cfi_restore 8
	.cfi_def_cfa 2, 48
	addi	sp,sp,48
	.cfi_def_cfa_offset 0
	jr	ra
	.cfi_endproc
.LFE53:
	.size	fdt_move, .-fdt_move
	.text
.Letext0:
	.file 5 "/home/chandu/sdk/bl602_iot_sdk/toolchain/compiler/lib/gcc/riscv32-unknown-elf/15.1.0/include/stddef.h"
	.file 6 "/home/chandu/sdk/bl602_iot_sdk/toolchain/compiler/lib/gcc/riscv32-unknown-elf/15.1.0/include/stdint-gcc.h"
	.file 7 "/home/chandu/sdk/bl602_iot_sdk/components/stage/blfdt/inc/fdt.h"
	.file 8 "/home/chandu/sdk/bl602_iot_sdk/toolchain/compiler/riscv32-unknown-elf/include/string.h"
	.section	.note.GNU-stack,"",@progbits
