	.file	"heap_bl602.c"
	.option nopic
	.attribute arch, "rv32i2p1_m2p0_f2p2_c2p0_zicsr2p0_zmmul1p0_zca1p0_zcf1p0"
	.attribute unaligned_access, 0
	.attribute stack_align, 16
	.text
.Ltext0:
	.cfi_sections	.debug_frame
	.file 0 "/home/chandu/sdk/bl602_iot_sdk/customer_app/suas_app_pqkem_gateway/build_out/freertos" "/home/chandu/sdk/bl602_iot_sdk/components/freertos/portable/MemMang/heap_bl602.c"
	.section	.srodata.xHeapStructSize,"a"
	.align	2
	.type	xHeapStructSize, @object
	.size	xHeapStructSize, 4
xHeapStructSize:
	.word	16
	.section	.sbss.xStart,"aw",@nobits
	.align	2
	.type	xStart, @object
	.size	xStart, 8
xStart:
	.zero	8
	.section	.sbss.pxEnd,"aw",@nobits
	.align	2
	.type	pxEnd, @object
	.size	pxEnd, 4
pxEnd:
	.zero	4
	.section	.sbss.xFreeBytesRemaining,"aw",@nobits
	.align	2
	.type	xFreeBytesRemaining, @object
	.size	xFreeBytesRemaining, 4
xFreeBytesRemaining:
	.zero	4
	.section	.sbss.xMinimumEverFreeBytesRemaining,"aw",@nobits
	.align	2
	.type	xMinimumEverFreeBytesRemaining, @object
	.size	xMinimumEverFreeBytesRemaining, 4
xMinimumEverFreeBytesRemaining:
	.zero	4
	.section	.sbss.xNumberOfSuccessfulAllocations,"aw",@nobits
	.align	2
	.type	xNumberOfSuccessfulAllocations, @object
	.size	xNumberOfSuccessfulAllocations, 4
xNumberOfSuccessfulAllocations:
	.zero	4
	.section	.sbss.xNumberOfSuccessfulFrees,"aw",@nobits
	.align	2
	.type	xNumberOfSuccessfulFrees, @object
	.size	xNumberOfSuccessfulFrees, 4
xNumberOfSuccessfulFrees:
	.zero	4
	.section	.sbss.xBlockAllocatedBit,"aw",@nobits
	.align	2
	.type	xBlockAllocatedBit, @object
	.size	xBlockAllocatedBit, 4
xBlockAllocatedBit:
	.zero	4
	.section	.text.pvPortMalloc,"ax",@progbits
	.align	1
	.globl	pvPortMalloc
	.type	pvPortMalloc, @function
pvPortMalloc:
.LFB2:
	.file 1 "/home/chandu/sdk/bl602_iot_sdk/components/freertos/portable/MemMang/heap_bl602.c"
	.loc 1 135 1
	.cfi_startproc
	addi	sp,sp,-48
	.cfi_def_cfa_offset 48
	sw	ra,44(sp)
	sw	s0,40(sp)
	.cfi_offset 1, -4
	.cfi_offset 8, -8
	addi	s0,sp,48
	.cfi_def_cfa 8, 0
	sw	a0,-36(s0)
	.loc 1 137 7
	sw	zero,-28(s0)
	.loc 1 141 16
	lui	a5,%hi(pxEnd)
	lw	a5,%lo(pxEnd)(a5)
	.loc 1 141 4
	bne	a5,zero,.L2
	.loc 1 141 23 discriminator 1
	call	vAssertCalled
.L2:
	.loc 1 143 2
	call	vTaskSuspendAll
	.loc 1 149 21
	lui	a5,%hi(xBlockAllocatedBit)
	lw	a4,%lo(xBlockAllocatedBit)(a5)
	lw	a5,-36(s0)
	and	a5,a4,a5
	.loc 1 149 5
	bne	a5,zero,.L3
	.loc 1 153 15
	lw	a5,-36(s0)
	beq	a5,zero,.L4
	.loc 1 154 33
	li	a4,16
	lw	a5,-36(s0)
	add	a5,a4,a5
	.loc 1 153 37 discriminator 1
	lw	a4,-36(s0)
	bgeu	a4,a5,.L4
	.loc 1 156 17
	li	a5,16
	lw	a4,-36(s0)
	add	a5,a4,a5
	sw	a5,-36(s0)
	.loc 1 159 23
	lw	a5,-36(s0)
	andi	a5,a5,15
	.loc 1 159 7
	beq	a5,zero,.L7
	.loc 1 162 39
	lw	a5,-36(s0)
	andi	a5,a5,-16
	addi	a5,a5,16
	.loc 1 162 23
	lw	a4,-36(s0)
	bgeu	a4,a5,.L6
	.loc 1 165 37
	lw	a5,-36(s0)
	andi	a5,a5,-16
	addi	a5,a5,16
	sw	a5,-36(s0)
	.loc 1 159 7
	j	.L7
.L6:
	.loc 1 169 37
	sw	zero,-36(s0)
	.loc 1 159 7
	j	.L7
.L4:
	.loc 1 179 17
	sw	zero,-36(s0)
.L7:
	.loc 1 182 6
	lw	a5,-36(s0)
	beq	a5,zero,.L3
	.loc 1 182 45 discriminator 1
	lui	a5,%hi(xFreeBytesRemaining)
	lw	a5,%lo(xFreeBytesRemaining)(a5)
	.loc 1 182 28 discriminator 1
	lw	a4,-36(s0)
	bgtu	a4,a5,.L3
	.loc 1 186 21
	lui	a5,%hi(xStart)
	addi	a5,a5,%lo(xStart)
	sw	a5,-24(s0)
	.loc 1 187 13
	lui	a5,%hi(xStart)
	addi	a5,a5,%lo(xStart)
	lw	a5,0(a5)
	sw	a5,-20(s0)
	.loc 1 188 10
	j	.L8
.L10:
	.loc 1 190 22
	lw	a5,-20(s0)
	sw	a5,-24(s0)
	.loc 1 191 14
	lw	a5,-20(s0)
	lw	a5,0(a5)
	sw	a5,-20(s0)
.L8:
	.loc 1 188 21
	lw	a5,-20(s0)
	lw	a5,4(a5)
	.loc 1 188 50
	lw	a4,-36(s0)
	bleu	a4,a5,.L9
	.loc 1 188 62 discriminator 1
	lw	a5,-20(s0)
	lw	a5,0(a5)
	.loc 1 188 50 discriminator 1
	bne	a5,zero,.L10
.L9:
	.loc 1 196 17
	lui	a5,%hi(pxEnd)
	lw	a5,%lo(pxEnd)(a5)
	.loc 1 196 7
	lw	a4,-20(s0)
	beq	a4,a5,.L3
	.loc 1 200 61
	lw	a5,-24(s0)
	lw	a4,0(a5)
	.loc 1 200 17
	li	a5,16
	.loc 1 200 15
	add	a5,a4,a5
	sw	a5,-28(s0)
	.loc 1 204 48
	lw	a5,-20(s0)
	lw	a4,0(a5)
	.loc 1 204 39
	lw	a5,-24(s0)
	sw	a4,0(a5)
	.loc 1 208 19
	lw	a5,-20(s0)
	lw	a4,4(a5)
	.loc 1 208 32
	lw	a5,-36(s0)
	sub	a4,a4,a5
	.loc 1 208 52
	li	a5,16
	slli	a5,a5,1
	.loc 1 208 8
	bleu	a4,a5,.L11
	.loc 1 214 22
	lw	a4,-20(s0)
	lw	a5,-36(s0)
	add	a5,a4,a5
	sw	a5,-32(s0)
	.loc 1 218 43
	lw	a5,-20(s0)
	lw	a4,4(a5)
	.loc 1 218 56
	lw	a5,-36(s0)
	sub	a4,a4,a5
	.loc 1 218 34
	lw	a5,-32(s0)
	sw	a4,4(a5)
	.loc 1 219 27
	lw	a5,-20(s0)
	lw	a4,-36(s0)
	sw	a4,4(a5)
	.loc 1 222 7
	lw	a0,-32(s0)
	call	prvInsertBlockIntoFreeList
.L11:
	.loc 1 229 26
	lui	a5,%hi(xFreeBytesRemaining)
	lw	a4,%lo(xFreeBytesRemaining)(a5)
	.loc 1 229 36
	lw	a5,-20(s0)
	lw	a5,4(a5)
	.loc 1 229 26
	sub	a4,a4,a5
	lui	a5,%hi(xFreeBytesRemaining)
	sw	a4,%lo(xFreeBytesRemaining)(a5)
	.loc 1 231 30
	lui	a5,%hi(xFreeBytesRemaining)
	lw	a4,%lo(xFreeBytesRemaining)(a5)
	lui	a5,%hi(xMinimumEverFreeBytesRemaining)
	lw	a5,%lo(xMinimumEverFreeBytesRemaining)(a5)
	.loc 1 231 8
	bgeu	a4,a5,.L12
	.loc 1 233 38
	lui	a5,%hi(xFreeBytesRemaining)
	lw	a4,%lo(xFreeBytesRemaining)(a5)
	lui	a5,%hi(xMinimumEverFreeBytesRemaining)
	sw	a4,%lo(xMinimumEverFreeBytesRemaining)(a5)
.L12:
	.loc 1 242 13
	lw	a5,-20(s0)
	lw	a4,4(a5)
	.loc 1 242 26
	lui	a5,%hi(xBlockAllocatedBit)
	lw	a5,%lo(xBlockAllocatedBit)(a5)
	or	a4,a4,a5
	lw	a5,-20(s0)
	sw	a4,4(a5)
	.loc 1 243 31
	lw	a5,-20(s0)
	sw	zero,0(a5)
	.loc 1 244 36
	lui	a5,%hi(xNumberOfSuccessfulAllocations)
	lw	a5,%lo(xNumberOfSuccessfulAllocations)(a5)
	addi	a4,a5,1
	lui	a5,%hi(xNumberOfSuccessfulAllocations)
	sw	a4,%lo(xNumberOfSuccessfulAllocations)(a5)
.L3:
	.loc 1 263 11
	call	xTaskResumeAll
	.loc 1 267 5
	lw	a5,-28(s0)
	bne	a5,zero,.L13
.LBB2:
	.loc 1 270 4
	call	vApplicationMallocFailedHook
.L13:
.LBE2:
	.loc 1 279 9
	lw	a5,-28(s0)
	.loc 1 280 1
	mv	a0,a5
	lw	ra,44(sp)
	.cfi_restore 1
	lw	s0,40(sp)
	.cfi_restore 8
	.cfi_def_cfa 2, 48
	addi	sp,sp,48
	.cfi_def_cfa_offset 0
	jr	ra
	.cfi_endproc
.LFE2:
	.size	pvPortMalloc, .-pvPortMalloc
	.section	.text.pvPortCalloc,"ax",@progbits
	.align	1
	.globl	pvPortCalloc
	.type	pvPortCalloc, @function
pvPortCalloc:
.LFB3:
	.loc 1 284 1
	.cfi_startproc
	addi	sp,sp,-48
	.cfi_def_cfa_offset 48
	sw	ra,44(sp)
	sw	s0,40(sp)
	.cfi_offset 1, -4
	.cfi_offset 8, -8
	addi	s0,sp,48
	.cfi_def_cfa 8, 0
	sw	a0,-36(s0)
	sw	a1,-40(s0)
	.loc 1 285 11
	sw	zero,-20(s0)
	.loc 1 287 10
	lw	a4,-36(s0)
	lw	a5,-40(s0)
	mul	a5,a4,a5
	mv	a0,a5
	call	pvPortMalloc
	sw	a0,-20(s0)
	.loc 1 288 7
	lw	a5,-20(s0)
	beq	a5,zero,.L16
	.loc 1 289 9
	lw	a4,-36(s0)
	lw	a5,-40(s0)
	mul	a5,a4,a5
	mv	a2,a5
	li	a1,0
	lw	a0,-20(s0)
	call	memset
.L16:
	.loc 1 291 12
	lw	a5,-20(s0)
	.loc 1 292 1
	mv	a0,a5
	lw	ra,44(sp)
	.cfi_restore 1
	lw	s0,40(sp)
	.cfi_restore 8
	.cfi_def_cfa 2, 48
	addi	sp,sp,48
	.cfi_def_cfa_offset 0
	jr	ra
	.cfi_endproc
.LFE3:
	.size	pvPortCalloc, .-pvPortCalloc
	.section	.text.vPortFree,"ax",@progbits
	.align	1
	.globl	vPortFree
	.type	vPortFree, @function
vPortFree:
.LFB4:
	.loc 1 295 1
	.cfi_startproc
	addi	sp,sp,-48
	.cfi_def_cfa_offset 48
	sw	ra,44(sp)
	sw	s0,40(sp)
	.cfi_offset 1, -4
	.cfi_offset 8, -8
	addi	s0,sp,48
	.cfi_def_cfa 8, 0
	sw	a0,-36(s0)
	.loc 1 296 10
	lw	a5,-36(s0)
	sw	a5,-20(s0)
	.loc 1 299 4
	lw	a5,-36(s0)
	beq	a5,zero,.L22
	.loc 1 303 7
	li	a5,16
	neg	a5,a5
	lw	a4,-20(s0)
	add	a5,a4,a5
	sw	a5,-20(s0)
	.loc 1 306 10
	lw	a5,-20(s0)
	sw	a5,-24(s0)
	.loc 1 309 17
	lw	a5,-24(s0)
	lw	a4,4(a5)
	.loc 1 309 30
	lui	a5,%hi(xBlockAllocatedBit)
	lw	a5,%lo(xBlockAllocatedBit)(a5)
	and	a5,a4,a5
	.loc 1 309 5
	bne	a5,zero,.L20
	.loc 1 309 67 discriminator 1
	call	vAssertCalled
.L20:
	.loc 1 310 15
	lw	a5,-24(s0)
	lw	a5,0(a5)
	.loc 1 310 5
	beq	a5,zero,.L21
	.loc 1 310 11 discriminator 1
	call	vAssertCalled
.L21:
	.loc 1 312 15
	lw	a5,-24(s0)
	lw	a4,4(a5)
	.loc 1 312 28
	lui	a5,%hi(xBlockAllocatedBit)
	lw	a5,%lo(xBlockAllocatedBit)(a5)
	and	a5,a4,a5
	.loc 1 312 5
	beq	a5,zero,.L22
	.loc 1 314 14
	lw	a5,-24(s0)
	lw	a5,0(a5)
	.loc 1 314 6
	bne	a5,zero,.L22
	.loc 1 318 11
	lw	a5,-24(s0)
	lw	a4,4(a5)
	.loc 1 318 27
	lui	a5,%hi(xBlockAllocatedBit)
	lw	a5,%lo(xBlockAllocatedBit)(a5)
	not	a5,a5
	.loc 1 318 24
	and	a4,a4,a5
	lw	a5,-24(s0)
	sw	a4,4(a5)
	.loc 1 320 5
	call	vTaskSuspendAll
	.loc 1 323 35
	lw	a5,-24(s0)
	lw	a4,4(a5)
	.loc 1 323 26
	lui	a5,%hi(xFreeBytesRemaining)
	lw	a5,%lo(xFreeBytesRemaining)(a5)
	add	a4,a4,a5
	lui	a5,%hi(xFreeBytesRemaining)
	sw	a4,%lo(xFreeBytesRemaining)(a5)
	.loc 1 325 6
	lw	a0,-24(s0)
	call	prvInsertBlockIntoFreeList
	.loc 1 326 30
	lui	a5,%hi(xNumberOfSuccessfulFrees)
	lw	a5,%lo(xNumberOfSuccessfulFrees)(a5)
	addi	a4,a5,1
	lui	a5,%hi(xNumberOfSuccessfulFrees)
	sw	a4,%lo(xNumberOfSuccessfulFrees)(a5)
	.loc 1 328 14
	call	xTaskResumeAll
.L22:
	.loc 1 340 1
	nop
	lw	ra,44(sp)
	.cfi_restore 1
	lw	s0,40(sp)
	.cfi_restore 8
	.cfi_def_cfa 2, 48
	addi	sp,sp,48
	.cfi_def_cfa_offset 0
	jr	ra
	.cfi_endproc
.LFE4:
	.size	vPortFree, .-vPortFree
	.section	.text.pvPortRealloc,"ax",@progbits
	.align	1
	.globl	pvPortRealloc
	.type	pvPortRealloc, @function
pvPortRealloc:
.LFB5:
	.loc 1 343 1
	.cfi_startproc
	addi	sp,sp,-64
	.cfi_def_cfa_offset 64
	sw	ra,60(sp)
	sw	s0,56(sp)
	.cfi_offset 1, -4
	.cfi_offset 8, -8
	addi	s0,sp,64
	.cfi_def_cfa 8, 0
	sw	a0,-52(s0)
	sw	a1,-56(s0)
	.loc 1 345 5
	lw	a5,-52(s0)
	beq	a5,zero,.L24
	.loc 1 348 6
	lw	a5,-56(s0)
	bne	a5,zero,.L25
	.loc 1 349 4
	lw	a0,-52(s0)
	call	vPortFree
	.loc 1 350 10
	li	a5,0
	j	.L26
.L25:
.LBB3:
	.loc 1 355 48
	li	a5,16
	neg	a5,a5
	.loc 1 355 13
	lw	a4,-52(s0)
	add	a5,a4,a5
	sw	a5,-20(s0)
	.loc 1 356 17
	lw	a5,-20(s0)
	sw	a5,-24(s0)
	.loc 1 357 32
	lw	a5,-24(s0)
	lw	a4,4(a5)
	.loc 1 357 45
	li	a5,16
	.loc 1 357 11
	sub	a5,a4,a5
	sw	a5,-28(s0)
	.loc 1 360 7
	lw	a4,-56(s0)
	lw	a5,-28(s0)
	bne	a4,a5,.L27
	.loc 1 361 12
	lw	a5,-52(s0)
	j	.L26
.L27:
	.loc 1 364 21
	lui	a5,%hi(xBlockAllocatedBit)
	lw	a4,%lo(xBlockAllocatedBit)(a5)
	lw	a5,-28(s0)
	and	a5,a4,a5
	.loc 1 364 8
	beq	a5,zero,.L28
.LBB4:
	.loc 1 366 20
	lw	a1,-56(s0)
	li	a0,1
	call	pvPortCalloc
	sw	a0,-32(s0)
	.loc 1 369 9
	lw	a5,-32(s0)
	beq	a5,zero,.L29
.LBB5:
	.loc 1 373 14
	lw	a4,-28(s0)
	lw	a5,-56(s0)
	bleu	a5,a4,.L30
	mv	a5,a4
.L30:
	sw	a5,-36(s0)
	.loc 1 376 7
	lw	a2,-36(s0)
	lw	a1,-52(s0)
	lw	a0,-32(s0)
	call	memcpy
	.loc 1 379 7
	lw	a0,-52(s0)
	call	vPortFree
	.loc 1 382 14
	lw	a5,-32(s0)
	j	.L26
.L29:
.LBE5:
	.loc 1 386 13
	li	a5,0
	j	.L26
.L28:
.LBE4:
	.loc 1 390 13
	lw	a1,-56(s0)
	li	a0,1
	call	pvPortCalloc
	mv	a5,a0
	j	.L26
.L24:
.LBE3:
	.loc 1 396 10
	lw	a1,-56(s0)
	li	a0,1
	call	pvPortCalloc
	mv	a5,a0
.L26:
	.loc 1 398 1
	mv	a0,a5
	lw	ra,60(sp)
	.cfi_restore 1
	lw	s0,56(sp)
	.cfi_restore 8
	.cfi_def_cfa 2, 64
	addi	sp,sp,64
	.cfi_def_cfa_offset 0
	jr	ra
	.cfi_endproc
.LFE5:
	.size	pvPortRealloc, .-pvPortRealloc
	.section	.text.xPortGetFreeHeapSize,"ax",@progbits
	.align	1
	.globl	xPortGetFreeHeapSize
	.type	xPortGetFreeHeapSize, @function
xPortGetFreeHeapSize:
.LFB6:
	.loc 1 402 1
	.cfi_startproc
	addi	sp,sp,-16
	.cfi_def_cfa_offset 16
	sw	ra,12(sp)
	sw	s0,8(sp)
	.cfi_offset 1, -4
	.cfi_offset 8, -8
	addi	s0,sp,16
	.cfi_def_cfa 8, 0
	.loc 1 403 9
	lui	a5,%hi(xFreeBytesRemaining)
	lw	a5,%lo(xFreeBytesRemaining)(a5)
	.loc 1 404 1
	mv	a0,a5
	lw	ra,12(sp)
	.cfi_restore 1
	lw	s0,8(sp)
	.cfi_restore 8
	.cfi_def_cfa 2, 16
	addi	sp,sp,16
	.cfi_def_cfa_offset 0
	jr	ra
	.cfi_endproc
.LFE6:
	.size	xPortGetFreeHeapSize, .-xPortGetFreeHeapSize
	.section	.text.xPortGetMinimumEverFreeHeapSize,"ax",@progbits
	.align	1
	.globl	xPortGetMinimumEverFreeHeapSize
	.type	xPortGetMinimumEverFreeHeapSize, @function
xPortGetMinimumEverFreeHeapSize:
.LFB7:
	.loc 1 408 1
	.cfi_startproc
	addi	sp,sp,-16
	.cfi_def_cfa_offset 16
	sw	ra,12(sp)
	sw	s0,8(sp)
	.cfi_offset 1, -4
	.cfi_offset 8, -8
	addi	s0,sp,16
	.cfi_def_cfa 8, 0
	.loc 1 409 9
	lui	a5,%hi(xMinimumEverFreeBytesRemaining)
	lw	a5,%lo(xMinimumEverFreeBytesRemaining)(a5)
	.loc 1 410 1
	mv	a0,a5
	lw	ra,12(sp)
	.cfi_restore 1
	lw	s0,8(sp)
	.cfi_restore 8
	.cfi_def_cfa 2, 16
	addi	sp,sp,16
	.cfi_def_cfa_offset 0
	jr	ra
	.cfi_endproc
.LFE7:
	.size	xPortGetMinimumEverFreeHeapSize, .-xPortGetMinimumEverFreeHeapSize
	.section	.text.prvInsertBlockIntoFreeList,"ax",@progbits
	.align	1
	.type	prvInsertBlockIntoFreeList, @function
prvInsertBlockIntoFreeList:
.LFB8:
	.loc 1 414 1
	.cfi_startproc
	addi	sp,sp,-48
	.cfi_def_cfa_offset 48
	sw	ra,44(sp)
	sw	s0,40(sp)
	.cfi_offset 1, -4
	.cfi_offset 8, -8
	addi	s0,sp,48
	.cfi_def_cfa 8, 0
	sw	a0,-36(s0)
	.loc 1 420 18
	lui	a5,%hi(xStart)
	addi	a5,a5,%lo(xStart)
	sw	a5,-20(s0)
	.loc 1 420 2
	j	.L36
.L37:
	.loc 1 420 87 discriminator 3
	lw	a5,-20(s0)
	lw	a5,0(a5)
	sw	a5,-20(s0)
.L36:
	.loc 1 420 39 discriminator 1
	lw	a5,-20(s0)
	lw	a5,0(a5)
	.loc 1 420 57 discriminator 1
	lw	a4,-36(s0)
	bgtu	a4,a5,.L37
	.loc 1 427 6
	lw	a5,-20(s0)
	sw	a5,-24(s0)
	.loc 1 428 24
	lw	a5,-20(s0)
	lw	a5,4(a5)
	.loc 1 428 12
	lw	a4,-24(s0)
	add	a5,a4,a5
	.loc 1 428 4
	lw	a4,-36(s0)
	bne	a4,a5,.L38
	.loc 1 430 13
	lw	a5,-20(s0)
	lw	a4,4(a5)
	.loc 1 430 44
	lw	a5,-36(s0)
	lw	a5,4(a5)
	.loc 1 430 26
	add	a4,a4,a5
	lw	a5,-20(s0)
	sw	a4,4(a5)
	.loc 1 431 19
	lw	a5,-20(s0)
	sw	a5,-36(s0)
.L38:
	.loc 1 440 6
	lw	a5,-36(s0)
	sw	a5,-24(s0)
	.loc 1 441 29
	lw	a5,-36(s0)
	lw	a5,4(a5)
	.loc 1 441 12
	lw	a4,-24(s0)
	add	a4,a4,a5
	.loc 1 441 71
	lw	a5,-20(s0)
	lw	a5,0(a5)
	.loc 1 441 4
	bne	a4,a5,.L39
	.loc 1 443 17
	lw	a5,-20(s0)
	lw	a4,0(a5)
	.loc 1 443 35
	lui	a5,%hi(pxEnd)
	lw	a5,%lo(pxEnd)(a5)
	.loc 1 443 5
	beq	a4,a5,.L40
	.loc 1 446 19
	lw	a5,-36(s0)
	lw	a4,4(a5)
	.loc 1 446 45
	lw	a5,-20(s0)
	lw	a5,0(a5)
	.loc 1 446 62
	lw	a5,4(a5)
	.loc 1 446 32
	add	a4,a4,a5
	lw	a5,-36(s0)
	sw	a4,4(a5)
	.loc 1 447 49
	lw	a5,-20(s0)
	lw	a5,0(a5)
	.loc 1 447 66
	lw	a4,0(a5)
	.loc 1 447 37
	lw	a5,-36(s0)
	sw	a4,0(a5)
	j	.L41
.L40:
	.loc 1 451 37
	lui	a5,%hi(pxEnd)
	lw	a4,%lo(pxEnd)(a5)
	lw	a5,-36(s0)
	sw	a4,0(a5)
	j	.L41
.L39:
	.loc 1 456 48
	lw	a5,-20(s0)
	lw	a4,0(a5)
	.loc 1 456 36
	lw	a5,-36(s0)
	sw	a4,0(a5)
.L41:
	.loc 1 463 4
	lw	a4,-20(s0)
	lw	a5,-36(s0)
	beq	a4,a5,.L43
	.loc 1 465 31
	lw	a5,-20(s0)
	lw	a4,-36(s0)
	sw	a4,0(a5)
.L43:
	.loc 1 471 1
	nop
	lw	ra,44(sp)
	.cfi_restore 1
	lw	s0,40(sp)
	.cfi_restore 8
	.cfi_def_cfa 2, 48
	addi	sp,sp,48
	.cfi_def_cfa_offset 0
	jr	ra
	.cfi_endproc
.LFE8:
	.size	prvInsertBlockIntoFreeList, .-prvInsertBlockIntoFreeList
	.section	.text.vPortDefineHeapRegions,"ax",@progbits
	.align	1
	.globl	vPortDefineHeapRegions
	.type	vPortDefineHeapRegions, @function
vPortDefineHeapRegions:
.LFB9:
	.loc 1 475 1
	.cfi_startproc
	addi	sp,sp,-64
	.cfi_def_cfa_offset 64
	sw	ra,60(sp)
	sw	s0,56(sp)
	.cfi_offset 1, -4
	.cfi_offset 8, -8
	addi	s0,sp,64
	.cfi_def_cfa 8, 0
	sw	a0,-52(s0)
	.loc 1 476 14
	sw	zero,-40(s0)
	.loc 1 478 26
	sw	zero,-24(s0)
	.loc 1 479 12
	sw	zero,-28(s0)
	.loc 1 484 3
	lui	a5,%hi(pxEnd)
	lw	a5,%lo(pxEnd)(a5)
	.loc 1 484 4
	beq	a5,zero,.L45
	.loc 1 484 10 discriminator 1
	call	vAssertCalled
.L45:
	.loc 1 486 33
	lw	a5,-28(s0)
	slli	a5,a5,3
	.loc 1 486 15
	lw	a4,-52(s0)
	add	a5,a4,a5
	sw	a5,-36(s0)
	.loc 1 488 7
	j	.L46
.L52:
	.loc 1 490 20
	lw	a5,-36(s0)
	lw	a5,4(a5)
	sw	a5,-20(s0)
	.loc 1 493 37
	lw	a5,-36(s0)
	lw	a5,0(a5)
	.loc 1 493 12
	sw	a5,-32(s0)
	.loc 1 494 18
	lw	a5,-32(s0)
	andi	a5,a5,15
	.loc 1 494 5
	beq	a5,zero,.L47
	.loc 1 496 13
	lw	a5,-32(s0)
	addi	a5,a5,15
	sw	a5,-32(s0)
	.loc 1 497 13
	lw	a5,-32(s0)
	andi	a5,a5,-16
	sw	a5,-32(s0)
	.loc 1 500 58
	lw	a5,-36(s0)
	lw	a5,0(a5)
	.loc 1 500 35
	mv	a4,a5
	.loc 1 500 21
	lw	a5,-32(s0)
	sub	a5,a4,a5
	lw	a4,-20(s0)
	add	a5,a4,a5
	sw	a5,-20(s0)
.L47:
	.loc 1 503 16
	lw	a5,-32(s0)
	sw	a5,-44(s0)
	.loc 1 506 5
	lw	a5,-28(s0)
	bne	a5,zero,.L48
	.loc 1 510 29
	lw	a4,-44(s0)
	.loc 1 510 27
	lui	a5,%hi(xStart)
	addi	a5,a5,%lo(xStart)
	sw	a4,0(a5)
	.loc 1 511 22
	lui	a5,%hi(xStart)
	addi	a5,a5,%lo(xStart)
	sw	zero,4(a5)
	j	.L49
.L48:
	.loc 1 517 5
	lui	a5,%hi(pxEnd)
	lw	a5,%lo(pxEnd)(a5)
	.loc 1 517 6
	bne	a5,zero,.L50
	.loc 1 517 12 discriminator 1
	call	vAssertCalled
.L50:
	.loc 1 520 21
	lui	a5,%hi(pxEnd)
	lw	a5,%lo(pxEnd)(a5)
	mv	a4,a5
	.loc 1 520 6
	lw	a5,-32(s0)
	bgtu	a5,a4,.L49
	.loc 1 520 47 discriminator 1
	call	vAssertCalled
.L49:
	.loc 1 525 23
	lui	a5,%hi(pxEnd)
	lw	a5,%lo(pxEnd)(a5)
	sw	a5,-48(s0)
	.loc 1 529 12
	lw	a4,-44(s0)
	lw	a5,-20(s0)
	add	a5,a4,a5
	sw	a5,-32(s0)
	.loc 1 530 12
	li	a5,16
	lw	a4,-32(s0)
	sub	a5,a4,a5
	sw	a5,-32(s0)
	.loc 1 531 12
	lw	a5,-32(s0)
	andi	a5,a5,-16
	sw	a5,-32(s0)
	.loc 1 532 11
	lw	a4,-32(s0)
	.loc 1 532 9
	lui	a5,%hi(pxEnd)
	sw	a4,%lo(pxEnd)(a5)
	.loc 1 533 8
	lui	a5,%hi(pxEnd)
	lw	a5,%lo(pxEnd)(a5)
	.loc 1 533 21
	sw	zero,4(a5)
	.loc 1 534 8
	lui	a5,%hi(pxEnd)
	lw	a5,%lo(pxEnd)(a5)
	.loc 1 534 26
	sw	zero,0(a5)
	.loc 1 539 28
	lw	a5,-44(s0)
	sw	a5,-40(s0)
	.loc 1 540 53
	lw	a5,-40(s0)
	.loc 1 540 51
	lw	a4,-32(s0)
	sub	a4,a4,a5
	.loc 1 540 40
	lw	a5,-40(s0)
	sw	a4,4(a5)
	.loc 1 541 45
	lui	a5,%hi(pxEnd)
	lw	a4,%lo(pxEnd)(a5)
	lw	a5,-40(s0)
	sw	a4,0(a5)
	.loc 1 545 5
	lw	a5,-48(s0)
	beq	a5,zero,.L51
	.loc 1 547 41
	lw	a5,-48(s0)
	lw	a4,-40(s0)
	sw	a4,0(a5)
.L51:
	.loc 1 550 45
	lw	a5,-40(s0)
	lw	a5,4(a5)
	.loc 1 550 18
	lw	a4,-24(s0)
	add	a5,a4,a5
	sw	a5,-24(s0)
	.loc 1 553 18
	lw	a5,-28(s0)
	addi	a5,a5,1
	sw	a5,-28(s0)
	.loc 1 554 34
	lw	a5,-28(s0)
	slli	a5,a5,3
	.loc 1 554 16
	lw	a4,-52(s0)
	add	a5,a4,a5
	sw	a5,-36(s0)
.L46:
	.loc 1 488 21
	lw	a5,-36(s0)
	lw	a5,4(a5)
	.loc 1 488 36
	bne	a5,zero,.L52
	.loc 1 557 33
	lui	a5,%hi(xMinimumEverFreeBytesRemaining)
	lw	a4,-24(s0)
	sw	a4,%lo(xMinimumEverFreeBytesRemaining)(a5)
	.loc 1 558 22
	lui	a5,%hi(xFreeBytesRemaining)
	lw	a4,-24(s0)
	sw	a4,%lo(xFreeBytesRemaining)(a5)
	.loc 1 561 4
	lw	a5,-24(s0)
	bne	a5,zero,.L53
	.loc 1 561 32 discriminator 1
	call	vAssertCalled
.L53:
	.loc 1 564 21
	lui	a5,%hi(xBlockAllocatedBit)
	li	a4,-2147483648
	sw	a4,%lo(xBlockAllocatedBit)(a5)
	.loc 1 565 1
	nop
	lw	ra,60(sp)
	.cfi_restore 1
	lw	s0,56(sp)
	.cfi_restore 8
	.cfi_def_cfa 2, 64
	addi	sp,sp,64
	.cfi_def_cfa_offset 0
	jr	ra
	.cfi_endproc
.LFE9:
	.size	vPortDefineHeapRegions, .-vPortDefineHeapRegions
	.section	.text.vPortGetHeapStats,"ax",@progbits
	.align	1
	.globl	vPortGetHeapStats
	.type	vPortGetHeapStats, @function
vPortGetHeapStats:
.LFB10:
	.loc 1 569 1
	.cfi_startproc
	addi	sp,sp,-48
	.cfi_def_cfa_offset 48
	sw	ra,44(sp)
	sw	s0,40(sp)
	.cfi_offset 1, -4
	.cfi_offset 8, -8
	addi	s0,sp,48
	.cfi_def_cfa 8, 0
	sw	a0,-36(s0)
	.loc 1 571 8
	sw	zero,-24(s0)
	.loc 1 571 21
	sw	zero,-28(s0)
	.loc 1 571 35
	li	a5,-1
	sw	a5,-32(s0)
	.loc 1 573 2
	call	vTaskSuspendAll
	.loc 1 575 11
	lui	a5,%hi(xStart)
	addi	a5,a5,%lo(xStart)
	lw	a5,0(a5)
	sw	a5,-20(s0)
	.loc 1 579 5
	lw	a5,-20(s0)
	beq	a5,zero,.L55
.L58:
	.loc 1 585 12
	lw	a5,-24(s0)
	addi	a5,a5,1
	sw	a5,-24(s0)
	.loc 1 587 16
	lw	a5,-20(s0)
	lw	a5,4(a5)
	.loc 1 587 7
	lw	a4,-28(s0)
	bgeu	a4,a5,.L56
	.loc 1 589 15
	lw	a5,-20(s0)
	lw	a5,4(a5)
	sw	a5,-28(s0)
.L56:
	.loc 1 595 16
	lw	a5,-20(s0)
	lw	a5,4(a5)
	.loc 1 595 7
	beq	a5,zero,.L57
	.loc 1 597 17
	lw	a5,-20(s0)
	lw	a5,4(a5)
	.loc 1 597 8
	lw	a4,-32(s0)
	bleu	a4,a5,.L57
	.loc 1 599 16
	lw	a5,-20(s0)
	lw	a5,4(a5)
	sw	a5,-32(s0)
.L57:
	.loc 1 605 13
	lw	a5,-20(s0)
	lw	a5,0(a5)
	sw	a5,-20(s0)
	.loc 1 606 21
	lui	a5,%hi(pxEnd)
	lw	a5,%lo(pxEnd)(a5)
	lw	a4,-20(s0)
	bne	a4,a5,.L58
.L55:
	.loc 1 609 2
	call	xTaskResumeAll
	.loc 1 611 46
	lw	a5,-36(s0)
	lw	a4,-28(s0)
	sw	a4,4(a5)
	.loc 1 612 47
	lw	a5,-36(s0)
	lw	a4,-32(s0)
	sw	a4,8(a5)
	.loc 1 613 35
	lw	a5,-36(s0)
	lw	a4,-24(s0)
	sw	a4,12(a5)
	.loc 1 615 2
	call	vTaskEnterCritical
	.loc 1 617 43
	lui	a5,%hi(xFreeBytesRemaining)
	lw	a4,%lo(xFreeBytesRemaining)(a5)
	lw	a5,-36(s0)
	sw	a4,0(a5)
	.loc 1 618 47
	lui	a5,%hi(xNumberOfSuccessfulAllocations)
	lw	a4,%lo(xNumberOfSuccessfulAllocations)(a5)
	lw	a5,-36(s0)
	sw	a4,20(a5)
	.loc 1 619 41
	lui	a5,%hi(xNumberOfSuccessfulFrees)
	lw	a4,%lo(xNumberOfSuccessfulFrees)(a5)
	lw	a5,-36(s0)
	sw	a4,24(a5)
	.loc 1 620 47
	lui	a5,%hi(xMinimumEverFreeBytesRemaining)
	lw	a4,%lo(xMinimumEverFreeBytesRemaining)(a5)
	lw	a5,-36(s0)
	sw	a4,16(a5)
	.loc 1 622 2
	call	vTaskExitCritical
	.loc 1 623 1
	nop
	lw	ra,44(sp)
	.cfi_restore 1
	lw	s0,40(sp)
	.cfi_restore 8
	.cfi_def_cfa 2, 48
	addi	sp,sp,48
	.cfi_def_cfa_offset 0
	jr	ra
	.cfi_endproc
.LFE10:
	.size	vPortGetHeapStats, .-vPortGetHeapStats
	.text
.Letext0:
	.file 2 "/home/chandu/sdk/bl602_iot_sdk/toolchain/compiler/lib/gcc/riscv32-unknown-elf/15.1.0/include/stddef.h"
	.file 3 "/home/chandu/sdk/bl602_iot_sdk/toolchain/compiler/lib/gcc/riscv32-unknown-elf/15.1.0/include/stdint-gcc.h"
	.file 4 "/home/chandu/sdk/bl602_iot_sdk/components/freertos/portable/GCC/RISC-V/portmacro.h"
	.file 5 "/home/chandu/sdk/bl602_iot_sdk/components/freertos/include/portable.h"
	.file 6 "/home/chandu/sdk/bl602_iot_sdk/toolchain/compiler/riscv32-unknown-elf/include/string.h"
	.file 7 "/home/chandu/sdk/bl602_iot_sdk/components/freertos/include/task.h"
	.file 8 "/home/chandu/sdk/bl602_iot_sdk/components/freertos/include/FreeRTOSConfig.h"
	.section	.note.GNU-stack,"",@progbits
