	.file	"dhcp_server_raw.c"
	.option nopic
	.attribute arch, "rv32i2p1_m2p0_f2p2_c2p0_zicsr2p0_zmmul1p0_zca1p0_zcf1p0"
	.attribute unaligned_access, 0
	.attribute stack_align, 16
	.text
.Ltext0:
	.cfi_sections	.debug_frame
	.file 0 "/home/chandu/sdk/bl602_iot_sdk/customer_app/suas_app_pqkem_gateway/build_out/lwip_dhcpd" "/home/chandu/sdk/bl602_iot_sdk/components/network/lwip_dhcpd/dhcp_server_raw.c"
	.section	.sbss.lw_dhcp_server,"aw",@nobits
	.align	2
	.type	lw_dhcp_server, @object
	.size	lw_dhcp_server, 4
lw_dhcp_server:
	.zero	4
	.section	.text.dhcp_client_find_by_mac,"ax",@progbits
	.align	1
	.type	dhcp_client_find_by_mac, @function
dhcp_client_find_by_mac:
.LFB6:
	.file 1 "/home/chandu/sdk/bl602_iot_sdk/components/network/lwip_dhcpd/dhcp_server_raw.c"
	.loc 1 112 1
	.cfi_startproc
	addi	sp,sp,-48
	.cfi_def_cfa_offset 48
	sw	ra,44(sp)
	sw	s0,40(sp)
	.cfi_offset 1, -4
	.cfi_offset 8, -8
	addi	s0,sp,48
	.cfi_def_cfa 8, 0
	sw	a0,-36(s0)
	sw	a1,-40(s0)
	mv	a5,a2
	sb	a5,-41(s0)
	.loc 1 115 15
	lw	a5,-36(s0)
	lw	a5,12(a5)
	sw	a5,-20(s0)
	.loc 1 115 5
	j	.L2
.L5:
	.loc 1 117 24
	lw	a5,-20(s0)
	addi	a5,a5,4
	.loc 1 117 13
	lbu	a4,-41(s0)
	mv	a2,a4
	lw	a1,-40(s0)
	mv	a0,a5
	call	memcmp
	mv	a5,a0
	.loc 1 117 12 discriminator 1
	bne	a5,zero,.L3
	.loc 1 119 20
	lw	a5,-20(s0)
	j	.L4
.L3:
	.loc 1 115 58 discriminator 2
	lw	a5,-20(s0)
	lw	a5,0(a5)
	sw	a5,-20(s0)
.L2:
	.loc 1 115 45 discriminator 1
	lw	a5,-20(s0)
	bne	a5,zero,.L5
	.loc 1 123 11
	li	a5,0
.L4:
	.loc 1 124 1
	mv	a0,a5
	lw	ra,44(sp)
	.cfi_restore 1
	lw	s0,40(sp)
	.cfi_restore 8
	.cfi_def_cfa 2, 48
	addi	sp,sp,48
	.cfi_def_cfa_offset 0
	jr	ra
	.cfi_endproc
.LFE6:
	.size	dhcp_client_find_by_mac, .-dhcp_client_find_by_mac
	.section	.text.dhcp_client_find_by_ip,"ax",@progbits
	.align	1
	.type	dhcp_client_find_by_ip, @function
dhcp_client_find_by_ip:
.LFB7:
	.loc 1 136 1
	.cfi_startproc
	addi	sp,sp,-48
	.cfi_def_cfa_offset 48
	sw	ra,44(sp)
	sw	s0,40(sp)
	.cfi_offset 1, -4
	.cfi_offset 8, -8
	addi	s0,sp,48
	.cfi_def_cfa 8, 0
	sw	a0,-36(s0)
	sw	a1,-40(s0)
	.loc 1 142 5
	addi	a5,s0,-28
	li	a2,4
	lw	a1,-40(s0)
	mv	a0,a5
	call	memcpy
	.loc 1 143 22
	lw	a5,-28(s0)
	sw	a5,-24(s0)
	.loc 1 144 15
	lw	a5,-36(s0)
	lw	a5,12(a5)
	sw	a5,-20(s0)
	.loc 1 144 5
	j	.L7
.L10:
	.loc 1 146 29
	lw	a5,-20(s0)
	lw	a4,12(a5)
	.loc 1 146 48
	lw	a5,-24(s0)
	.loc 1 146 12
	bne	a4,a5,.L8
	.loc 1 148 20
	lw	a5,-20(s0)
	j	.L11
.L8:
	.loc 1 144 58 discriminator 2
	lw	a5,-20(s0)
	lw	a5,0(a5)
	sw	a5,-20(s0)
.L7:
	.loc 1 144 45 discriminator 1
	lw	a5,-20(s0)
	bne	a5,zero,.L10
	.loc 1 152 11
	li	a5,0
.L11:
	.loc 1 153 1
	mv	a0,a5
	lw	ra,44(sp)
	.cfi_restore 1
	lw	s0,40(sp)
	.cfi_restore 8
	.cfi_def_cfa 2, 48
	addi	sp,sp,48
	.cfi_def_cfa_offset 0
	jr	ra
	.cfi_endproc
.LFE7:
	.size	dhcp_client_find_by_ip, .-dhcp_client_find_by_ip
	.section	.rodata
	.align	2
.LC0:
	.string	"IP Found, but MAC address is NOT the same\r\n"
	.section	.text.dhcp_client_find,"ax",@progbits
	.align	1
	.type	dhcp_client_find, @function
dhcp_client_find:
.LFB8:
	.loc 1 166 1
	.cfi_startproc
	addi	sp,sp,-48
	.cfi_def_cfa_offset 48
	sw	ra,44(sp)
	sw	s0,40(sp)
	.cfi_offset 1, -4
	.cfi_offset 8, -8
	addi	s0,sp,48
	.cfi_def_cfa 8, 0
	sw	a0,-36(s0)
	sw	a1,-40(s0)
	sw	a2,-44(s0)
	mv	a5,a3
	sh	a5,-46(s0)
	.loc 1 171 51
	lw	a5,-40(s0)
	addi	a4,a5,28
	.loc 1 171 12
	lw	a5,-40(s0)
	lbu	a5,2(a5)
	mv	a2,a5
	mv	a1,a4
	lw	a0,-36(s0)
	call	dhcp_client_find_by_mac
	sw	a0,-20(s0)
	.loc 1 172 8
	lw	a5,-20(s0)
	beq	a5,zero,.L13
	.loc 1 174 16
	lw	a5,-20(s0)
	j	.L14
.L13:
	.loc 1 177 11
	lhu	a5,-46(s0)
	li	a2,50
	mv	a1,a5
	lw	a0,-44(s0)
	call	dhcp_server_option_find
	sw	a0,-24(s0)
	.loc 1 178 8
	lw	a5,-24(s0)
	beq	a5,zero,.L15
	.loc 1 180 51
	lw	a5,-24(s0)
	addi	a5,a5,2
	.loc 1 180 16
	mv	a1,a5
	lw	a0,-36(s0)
	call	dhcp_client_find_by_ip
	sw	a0,-20(s0)
	.loc 1 181 12
	lw	a5,-20(s0)
	beq	a5,zero,.L15
	.loc 1 183 33
	lw	a5,-20(s0)
	addi	a4,a5,4
	.loc 1 183 46
	lw	a5,-40(s0)
	addi	a3,a5,28
	.loc 1 183 59
	lw	a5,-40(s0)
	lbu	a5,2(a5)
	.loc 1 183 22
	mv	a2,a5
	mv	a1,a3
	mv	a0,a4
	call	memcmp
	mv	a5,a0
	.loc 1 183 16 discriminator 1
	bne	a5,zero,.L16
	.loc 1 184 24
	lw	a5,-20(s0)
	j	.L14
.L16:
	.loc 1 186 17
	lui	a5,%hi(.LC0)
	addi	a0,a5,%lo(.LC0)
	call	puts
.L15:
	.loc 1 191 11
	li	a5,0
.L14:
	.loc 1 192 1
	mv	a0,a5
	lw	ra,44(sp)
	.cfi_restore 1
	lw	s0,40(sp)
	.cfi_restore 8
	.cfi_def_cfa 2, 48
	addi	sp,sp,48
	.cfi_def_cfa_offset 0
	jr	ra
	.cfi_endproc
.LFE8:
	.size	dhcp_client_find, .-dhcp_client_find
	.section	.text.dhcp_client_alloc,"ax",@progbits
	.align	1
	.type	dhcp_client_alloc, @function
dhcp_client_alloc:
.LFB9:
	.loc 1 205 1
	.cfi_startproc
	addi	sp,sp,-48
	.cfi_def_cfa_offset 48
	sw	ra,44(sp)
	sw	s0,40(sp)
	.cfi_offset 1, -4
	.cfi_offset 8, -8
	addi	s0,sp,48
	.cfi_def_cfa 8, 0
	sw	a0,-36(s0)
	sw	a1,-40(s0)
	sw	a2,-44(s0)
	mv	a5,a3
	sh	a5,-46(s0)
	.loc 1 210 51
	lw	a5,-40(s0)
	addi	a4,a5,28
	.loc 1 210 12
	lw	a5,-40(s0)
	lbu	a5,2(a5)
	mv	a2,a5
	mv	a1,a4
	lw	a0,-36(s0)
	call	dhcp_client_find_by_mac
	sw	a0,-24(s0)
	.loc 1 211 8
	lw	a5,-24(s0)
	beq	a5,zero,.L18
	.loc 1 213 16
	lw	a5,-24(s0)
	j	.L19
.L18:
	.loc 1 216 11
	lhu	a5,-46(s0)
	li	a2,50
	mv	a1,a5
	lw	a0,-44(s0)
	call	dhcp_server_option_find
	sw	a0,-28(s0)
	.loc 1 217 8
	lw	a5,-28(s0)
	bne	a5,zero,.L20
.L26:
	.loc 1 226 1
	nop
.L21:
	j	.L22
.L20:
	.loc 1 219 51
	lw	a5,-28(s0)
	addi	a5,a5,2
	.loc 1 219 16
	mv	a1,a5
	lw	a0,-36(s0)
	call	dhcp_client_find_by_ip
	sw	a0,-24(s0)
	.loc 1 220 12
	lw	a5,-24(s0)
	beq	a5,zero,.L26
	.loc 1 222 20
	lw	a5,-24(s0)
	j	.L19
.L22:
	.loc 1 227 57
	lw	a5,-36(s0)
	addi	a5,a5,24
	.loc 1 227 12
	mv	a1,a5
	lw	a0,-36(s0)
	call	dhcp_client_find_by_ip
	sw	a0,-24(s0)
	.loc 1 228 8
	lw	a5,-24(s0)
	beq	a5,zero,.L23
	.loc 1 230 19
	lw	a5,-36(s0)
	lw	a5,24(a5)
	mv	a0,a5
	call	lwip_htonl
	mv	a5,a0
	.loc 1 230 16 discriminator 1
	addi	a5,a5,1
	sw	a5,-20(s0)
	.loc 1 231 22
	lw	a5,-36(s0)
	lw	a5,20(a5)
	mv	a0,a5
	call	lwip_htonl
	mv	a4,a0
	.loc 1 231 12 discriminator 1
	lw	a5,-20(s0)
	bleu	a5,a4,.L24
	.loc 1 233 22
	lw	a5,-36(s0)
	lw	a5,16(a5)
	mv	a0,a5
	call	lwip_htonl
	sw	a0,-20(s0)
.L24:
	.loc 1 235 36
	lw	a0,-20(s0)
	call	lwip_htonl
	mv	a4,a0
	.loc 1 235 34 discriminator 1
	lw	a5,-36(s0)
	sw	a4,24(a5)
	.loc 1 236 9
	j	.L22
.L23:
	.loc 1 238 39
	li	a0,20
	call	mem_malloc
	sw	a0,-24(s0)
	.loc 1 239 8
	lw	a5,-24(s0)
	bne	a5,zero,.L25
	.loc 1 241 15
	li	a5,0
	j	.L19
.L25:
	.loc 1 243 16
	lw	a5,-24(s0)
	addi	a4,a5,4
	.loc 1 243 28
	lw	a5,-40(s0)
	addi	a3,a5,28
	.loc 1 243 40
	lw	a5,-40(s0)
	lbu	a5,2(a5)
	.loc 1 243 5
	mv	a2,a5
	mv	a1,a3
	mv	a0,a4
	call	memcpy
	.loc 1 244 18
	lw	a5,-24(s0)
	lw	a4,-36(s0)
	lw	a4,24(a4)
	sw	a4,12(a5)
	.loc 1 246 28
	lw	a5,-36(s0)
	lw	a4,12(a5)
	.loc 1 246 16
	lw	a5,-24(s0)
	sw	a4,0(a5)
	.loc 1 247 27
	lw	a5,-36(s0)
	lw	a4,-24(s0)
	sw	a4,12(a5)
	.loc 1 249 12
	lw	a5,-24(s0)
.L19:
	.loc 1 250 1
	mv	a0,a5
	lw	ra,44(sp)
	.cfi_restore 1
	lw	s0,40(sp)
	.cfi_restore 8
	.cfi_def_cfa 2, 48
	addi	sp,sp,48
	.cfi_def_cfa_offset 0
	jr	ra
	.cfi_endproc
.LFE9:
	.size	dhcp_client_alloc, .-dhcp_client_alloc
	.section	.text.dhcp_server_option_find,"ax",@progbits
	.align	1
	.type	dhcp_server_option_find, @function
dhcp_server_option_find:
.LFB10:
	.loc 1 262 1
	.cfi_startproc
	addi	sp,sp,-48
	.cfi_def_cfa_offset 48
	sw	ra,44(sp)
	sw	s0,40(sp)
	.cfi_offset 1, -4
	.cfi_offset 8, -8
	addi	s0,sp,48
	.cfi_def_cfa 8, 0
	sw	a0,-36(s0)
	mv	a5,a1
	mv	a4,a2
	sh	a5,-38(s0)
	mv	a5,a4
	sb	a5,-39(s0)
	.loc 1 263 21
	lhu	a5,-38(s0)
	.loc 1 263 11
	lw	a4,-36(s0)
	add	a5,a4,a5
	sw	a5,-20(s0)
	.loc 1 264 11
	j	.L28
.L32:
	.loc 1 266 13
	lw	a5,-36(s0)
	lbu	a5,0(a5)
	.loc 1 266 12
	lbu	a4,-39(s0)
	bne	a4,a5,.L29
	.loc 1 268 20
	lw	a5,-36(s0)
	j	.L30
.L29:
	.loc 1 270 20
	lw	a5,-36(s0)
	addi	a5,a5,1
	lbu	a5,0(a5)
	.loc 1 270 13
	addi	a5,a5,2
	lw	a4,-36(s0)
	add	a5,a4,a5
	sw	a5,-36(s0)
.L28:
	.loc 1 264 24
	lw	a4,-36(s0)
	lw	a5,-20(s0)
	bgeu	a4,a5,.L31
	.loc 1 264 28 discriminator 1
	lw	a5,-36(s0)
	lbu	a4,0(a5)
	.loc 1 264 24 discriminator 1
	li	a5,255
	bne	a4,a5,.L32
.L31:
	.loc 1 272 11
	li	a5,0
.L30:
	.loc 1 273 1
	mv	a0,a5
	lw	ra,44(sp)
	.cfi_restore 1
	lw	s0,40(sp)
	.cfi_restore 8
	.cfi_def_cfa 2, 48
	addi	sp,sp,48
	.cfi_def_cfa_offset 0
	jr	ra
	.cfi_endproc
.LFE10:
	.size	dhcp_server_option_find, .-dhcp_server_option_find
	.section	.text.dhcp_server_recv,"ax",@progbits
	.align	1
	.type	dhcp_server_recv, @function
dhcp_server_recv:
.LFB11:
	.loc 1 280 1
	.cfi_startproc
	addi	sp,sp,-96
	.cfi_def_cfa_offset 96
	sw	ra,92(sp)
	sw	s0,88(sp)
	.cfi_offset 1, -4
	.cfi_offset 8, -8
	addi	s0,sp,96
	.cfi_def_cfa 8, 0
	sw	a0,-68(s0)
	sw	a1,-72(s0)
	sw	a2,-76(s0)
	sw	a3,-80(s0)
	mv	a5,a4
	sh	a5,-82(s0)
	.loc 1 281 25
	lw	a5,-68(s0)
	sw	a5,-28(s0)
	.loc 1 289 15
	lw	a5,-80(s0)
	lw	a5,0(a5)
	sw	a5,-56(s0)
	.loc 1 298 10
	lw	a5,-76(s0)
	lhu	a4,10(a5)
	.loc 1 298 8
	li	a5,43
	bgtu	a4,a5,.L34
	.loc 1 301 9
	lw	a0,-76(s0)
	call	pbuf_free
	.loc 1 302 9
	j	.L33
.L34:
	.loc 1 305 9
	li	a2,640
	li	a1,1500
	li	a0,182
	call	pbuf_alloc
	sw	a0,-32(s0)
	.loc 1 306 8
	lw	a5,-32(s0)
	bne	a5,zero,.L36
	.loc 1 309 9
	lw	a0,-76(s0)
	call	pbuf_free
	.loc 1 310 9
	j	.L33
.L36:
	.loc 1 312 10
	lw	a5,-32(s0)
	lhu	a4,8(a5)
	.loc 1 312 23
	lw	a5,-76(s0)
	lhu	a5,8(a5)
	.loc 1 312 8
	bgeu	a4,a5,.L37
	.loc 1 315 9
	lw	a0,-76(s0)
	call	pbuf_free
	.loc 1 316 9
	j	.L33
.L37:
	.loc 1 319 5
	lw	a1,-76(s0)
	lw	a0,-32(s0)
	call	pbuf_copy
	.loc 1 320 5
	lw	a0,-76(s0)
	call	pbuf_free
	.loc 1 322 9
	lw	a5,-32(s0)
	lw	a5,4(a5)
	sw	a5,-36(s0)
	.loc 1 323 12
	lw	a5,-36(s0)
	lbu	a4,0(a5)
	.loc 1 323 8
	li	a5,1
	bne	a4,a5,.L57
	.loc 1 329 12
	lw	a5,-36(s0)
	lbu	a4,236(a5)
	lbu	a3,237(a5)
	slli	a3,a3,8
	or	a4,a3,a4
	lbu	a3,238(a5)
	slli	a3,a3,16
	or	a4,a3,a4
	lbu	a5,239(a5)
	slli	a5,a5,24
	or	a5,a5,a4
	mv	a4,a5
	.loc 1 329 8
	li	a5,1666416640
	addi	a5,a5,611
	bne	a4,a5,.L58
	.loc 1 335 12
	lw	a5,-36(s0)
	lbu	a4,2(a5)
	.loc 1 335 8
	li	a5,6
	bgtu	a4,a5,.L59
	.loc 1 340 13
	lw	a5,-36(s0)
	addi	a5,a5,240
	sw	a5,-40(s0)
	.loc 1 341 15
	lw	a5,-32(s0)
	lhu	a5,8(a5)
	.loc 1 341 12
	addi	a5,a5,-240
	sh	a5,-42(s0)
	.loc 1 342 11
	lhu	a5,-42(s0)
	li	a2,53
	mv	a1,a5
	lw	a0,-40(s0)
	call	dhcp_server_option_find
	sw	a0,-48(s0)
	.loc 1 343 8
	lw	a5,-48(s0)
	beq	a5,zero,.L60
	.loc 1 345 18
	lw	a5,-48(s0)
	lbu	a5,2(a5)
	sb	a5,-49(s0)
	.loc 1 346 12
	lbu	a4,-49(s0)
	li	a5,1
	bne	a4,a5,.L42
	.loc 1 348 20
	lhu	a5,-42(s0)
	mv	a3,a5
	lw	a2,-40(s0)
	lw	a1,-36(s0)
	lw	a0,-28(s0)
	call	dhcp_client_alloc
	sw	a0,-20(s0)
	.loc 1 349 16
	lw	a5,-20(s0)
	beq	a5,zero,.L61
	.loc 1 353 29
	lw	a5,-20(s0)
	li	a4,-2142175232
	addi	a4,a4,256
	sw	a4,16(a5)
	.loc 1 355 21
	lw	a5,-36(s0)
	li	a4,2
	sb	a4,0(a5)
	.loc 1 356 23
	lw	a5,-36(s0)
	sb	zero,3(a5)
	.loc 1 357 23
	lw	a5,-36(s0)
	lbu	a4,8(a5)
	andi	a4,a4,0
	sb	a4,8(a5)
	lbu	a4,9(a5)
	andi	a4,a4,0
	sb	a4,9(a5)
	.loc 1 358 20
	lw	a5,-36(s0)
	addi	a4,a5,20
	.loc 1 358 46
	lw	a5,-28(s0)
	lw	a5,4(a5)
	.loc 1 358 33
	addi	a5,a5,4
	.loc 1 358 13
	li	a2,4
	mv	a1,a5
	mv	a0,a4
	call	memcpy
	.loc 1 359 27
	lw	a5,-36(s0)
	sb	zero,44(a5)
	.loc 1 360 26
	lw	a5,-36(s0)
	sb	zero,108(a5)
	.loc 1 361 25
	lw	a5,-36(s0)
	lbu	a4,236(a5)
	andi	a4,a4,0
	ori	a4,a4,99
	sb	a4,236(a5)
	lbu	a4,237(a5)
	andi	a4,a4,0
	ori	a4,a4,-126
	sb	a4,237(a5)
	lbu	a4,238(a5)
	andi	a4,a4,0
	ori	a4,a4,83
	sb	a4,238(a5)
	lbu	a4,239(a5)
	andi	a4,a4,0
	ori	a4,a4,99
	sb	a4,239(a5)
	.loc 1 362 20
	lw	a5,-36(s0)
	addi	a4,a5,16
	.loc 1 362 33
	lw	a5,-20(s0)
	addi	a5,a5,12
	.loc 1 362 13
	li	a2,4
	mv	a1,a5
	mv	a0,a4
	call	memcpy
	.loc 1 364 21
	lw	a5,-36(s0)
	addi	a5,a5,240
	sw	a5,-40(s0)
	.loc 1 366 21
	lw	a5,-40(s0)
	addi	a4,a5,1
	sw	a4,-40(s0)
	.loc 1 366 24
	li	a4,53
	sb	a4,0(a5)
	.loc 1 367 21
	lw	a5,-40(s0)
	addi	a4,a5,1
	sw	a4,-40(s0)
	.loc 1 367 24
	li	a4,1
	sb	a4,0(a5)
	.loc 1 368 21
	lw	a5,-40(s0)
	addi	a4,a5,1
	sw	a4,-40(s0)
	.loc 1 368 24
	li	a4,2
	sb	a4,0(a5)
	.loc 1 371 21
	lw	a5,-40(s0)
	addi	a4,a5,1
	sw	a4,-40(s0)
	.loc 1 371 24
	li	a4,54
	sb	a4,0(a5)
	.loc 1 372 21
	lw	a5,-40(s0)
	addi	a4,a5,1
	sw	a4,-40(s0)
	.loc 1 372 24
	li	a4,4
	sb	a4,0(a5)
	.loc 1 373 41
	lw	a5,-28(s0)
	lw	a5,4(a5)
	.loc 1 373 28
	addi	a5,a5,4
	.loc 1 373 13
	li	a2,4
	mv	a1,a5
	lw	a0,-40(s0)
	call	memcpy
	.loc 1 374 21
	lw	a5,-40(s0)
	addi	a5,a5,4
	sw	a5,-40(s0)
	.loc 1 377 21
	lw	a5,-40(s0)
	addi	a4,a5,1
	sw	a4,-40(s0)
	.loc 1 377 24
	li	a4,51
	sb	a4,0(a5)
	.loc 1 378 21
	lw	a5,-40(s0)
	addi	a4,a5,1
	sw	a4,-40(s0)
	.loc 1 378 24
	li	a4,4
	sb	a4,0(a5)
	.loc 1 379 17
	li	a5,86016
	addi	a5,a5,384
	sw	a5,-60(s0)
	.loc 1 380 13
	addi	a5,s0,-60
	li	a2,4
	mv	a1,a5
	lw	a0,-40(s0)
	call	memcpy
	.loc 1 381 21
	lw	a5,-40(s0)
	addi	a5,a5,4
	sw	a5,-40(s0)
	.loc 1 384 21
	lw	a5,-40(s0)
	addi	a4,a5,1
	sw	a4,-40(s0)
	.loc 1 384 24
	li	a4,1
	sb	a4,0(a5)
	.loc 1 385 21
	lw	a5,-40(s0)
	addi	a4,a5,1
	sw	a4,-40(s0)
	.loc 1 385 24
	li	a4,4
	sb	a4,0(a5)
	.loc 1 386 42
	lw	a5,-28(s0)
	lw	a5,4(a5)
	.loc 1 386 28
	addi	a5,a5,8
	.loc 1 386 13
	li	a2,4
	mv	a1,a5
	lw	a0,-40(s0)
	call	memcpy
	.loc 1 387 21
	lw	a5,-40(s0)
	addi	a5,a5,4
	sw	a5,-40(s0)
	.loc 1 389 21
	lw	a5,-40(s0)
	addi	a4,a5,1
	sw	a4,-40(s0)
	.loc 1 389 24
	li	a4,6
	sb	a4,0(a5)
	.loc 1 390 21
	lw	a5,-40(s0)
	addi	a4,a5,1
	sw	a4,-40(s0)
	.loc 1 390 24
	li	a4,4
	sb	a4,0(a5)
	.loc 1 399 41
	lw	a5,-28(s0)
	lw	a5,4(a5)
	.loc 1 399 28
	addi	a5,a5,4
	.loc 1 399 13
	li	a2,4
	mv	a1,a5
	lw	a0,-40(s0)
	call	memcpy
	.loc 1 401 21
	lw	a5,-40(s0)
	addi	a5,a5,4
	sw	a5,-40(s0)
	.loc 1 403 21
	lw	a5,-40(s0)
	addi	a4,a5,1
	sw	a4,-40(s0)
	.loc 1 403 24
	li	a4,3
	sb	a4,0(a5)
	.loc 1 404 21
	lw	a5,-40(s0)
	addi	a4,a5,1
	sw	a4,-40(s0)
	.loc 1 404 24
	li	a4,4
	sb	a4,0(a5)
	.loc 1 405 42
	lw	a5,-28(s0)
	lw	a5,4(a5)
	.loc 1 405 28
	addi	a5,a5,4
	.loc 1 405 13
	li	a2,4
	mv	a1,a5
	lw	a0,-40(s0)
	call	memcpy
	.loc 1 406 21
	lw	a5,-40(s0)
	addi	a5,a5,4
	sw	a5,-40(s0)
	.loc 1 409 21
	lw	a5,-40(s0)
	addi	a4,a5,1
	sw	a4,-40(s0)
	.loc 1 409 24
	li	a4,-1
	sb	a4,0(a5)
	.loc 1 411 22
	lw	a4,-40(s0)
	.loc 1 411 39
	lw	a5,-36(s0)
	.loc 1 411 37
	sub	a5,a4,a5
	.loc 1 411 20
	sh	a5,-42(s0)
	.loc 1 412 27
	lw	a5,-32(s0)
	lhu	a5,8(a5)
	.loc 1 412 16
	lhu	a4,-42(s0)
	bgeu	a4,a5,.L44
	.loc 1 414 17
	lhu	a5,-42(s0)
	mv	a1,a5
	lw	a0,-32(s0)
	call	pbuf_realloc
.L44:
	.loc 1 417 27
	li	a5,-1
	sw	a5,-56(s0)
	.loc 1 418 13
	lw	a5,-28(s0)
	lw	a4,4(a5)
	lhu	a3,-82(s0)
	addi	a5,s0,-56
	mv	a2,a5
	lw	a1,-32(s0)
	lw	a0,-72(s0)
	call	udp_sendto_if
	j	.L39
.L42:
	.loc 1 424 20
	lbu	a4,-49(s0)
	li	a5,3
	bne	a4,a5,.L45
	.loc 1 426 28
	lhu	a5,-42(s0)
	mv	a3,a5
	lw	a2,-40(s0)
	lw	a1,-36(s0)
	lw	a0,-28(s0)
	call	dhcp_client_find
	sw	a0,-20(s0)
	.loc 1 427 24
	lw	a5,-20(s0)
	beq	a5,zero,.L46
	.loc 1 430 41
	lw	a5,-20(s0)
	li	a4,-2142175232
	addi	a4,a4,256
	sw	a4,16(a5)
	.loc 1 432 33
	lw	a5,-36(s0)
	li	a4,2
	sb	a4,0(a5)
	.loc 1 433 35
	lw	a5,-36(s0)
	sb	zero,3(a5)
	.loc 1 434 35
	lw	a5,-36(s0)
	lbu	a4,8(a5)
	andi	a4,a4,0
	sb	a4,8(a5)
	lbu	a4,9(a5)
	andi	a4,a4,0
	sb	a4,9(a5)
	.loc 1 435 32
	lw	a5,-36(s0)
	addi	a4,a5,20
	.loc 1 435 58
	lw	a5,-28(s0)
	lw	a5,4(a5)
	.loc 1 435 45
	addi	a5,a5,4
	.loc 1 435 25
	li	a2,4
	mv	a1,a5
	mv	a0,a4
	call	memcpy
	.loc 1 436 39
	lw	a5,-36(s0)
	sb	zero,44(a5)
	.loc 1 437 38
	lw	a5,-36(s0)
	sb	zero,108(a5)
	.loc 1 438 37
	lw	a5,-36(s0)
	lbu	a4,236(a5)
	andi	a4,a4,0
	ori	a4,a4,99
	sb	a4,236(a5)
	lbu	a4,237(a5)
	andi	a4,a4,0
	ori	a4,a4,-126
	sb	a4,237(a5)
	lbu	a4,238(a5)
	andi	a4,a4,0
	ori	a4,a4,83
	sb	a4,238(a5)
	lbu	a4,239(a5)
	andi	a4,a4,0
	ori	a4,a4,99
	sb	a4,239(a5)
	.loc 1 439 32
	lw	a5,-36(s0)
	addi	a4,a5,16
	.loc 1 439 45
	lw	a5,-20(s0)
	addi	a5,a5,12
	.loc 1 439 25
	li	a2,4
	mv	a1,a5
	mv	a0,a4
	call	memcpy
	.loc 1 440 33
	lw	a5,-36(s0)
	addi	a5,a5,240
	sw	a5,-40(s0)
	.loc 1 443 33
	lw	a5,-40(s0)
	addi	a4,a5,1
	sw	a4,-40(s0)
	.loc 1 443 36
	li	a4,53
	sb	a4,0(a5)
	.loc 1 444 33
	lw	a5,-40(s0)
	addi	a4,a5,1
	sw	a4,-40(s0)
	.loc 1 444 36
	li	a4,1
	sb	a4,0(a5)
	.loc 1 445 33
	lw	a5,-40(s0)
	addi	a4,a5,1
	sw	a4,-40(s0)
	.loc 1 445 36
	li	a4,5
	sb	a4,0(a5)
	.loc 1 448 33
	lw	a5,-40(s0)
	addi	a4,a5,1
	sw	a4,-40(s0)
	.loc 1 448 36
	li	a4,54
	sb	a4,0(a5)
	.loc 1 449 33
	lw	a5,-40(s0)
	addi	a4,a5,1
	sw	a4,-40(s0)
	.loc 1 449 36
	li	a4,4
	sb	a4,0(a5)
	.loc 1 450 53
	lw	a5,-28(s0)
	lw	a5,4(a5)
	.loc 1 450 40
	addi	a5,a5,4
	.loc 1 450 25
	li	a2,4
	mv	a1,a5
	lw	a0,-40(s0)
	call	memcpy
	.loc 1 451 33
	lw	a5,-40(s0)
	addi	a5,a5,4
	sw	a5,-40(s0)
	.loc 1 454 33
	lw	a5,-40(s0)
	addi	a4,a5,1
	sw	a4,-40(s0)
	.loc 1 454 36
	li	a4,51
	sb	a4,0(a5)
	.loc 1 455 33
	lw	a5,-40(s0)
	addi	a4,a5,1
	sw	a4,-40(s0)
	.loc 1 455 36
	li	a4,4
	sb	a4,0(a5)
	.loc 1 456 29
	li	a5,86016
	addi	a5,a5,384
	sw	a5,-60(s0)
	.loc 1 457 25
	addi	a5,s0,-60
	li	a2,4
	mv	a1,a5
	lw	a0,-40(s0)
	call	memcpy
	.loc 1 458 33
	lw	a5,-40(s0)
	addi	a5,a5,4
	sw	a5,-40(s0)
	.loc 1 461 33
	lw	a5,-40(s0)
	addi	a4,a5,1
	sw	a4,-40(s0)
	.loc 1 461 36
	li	a4,1
	sb	a4,0(a5)
	.loc 1 462 33
	lw	a5,-40(s0)
	addi	a4,a5,1
	sw	a4,-40(s0)
	.loc 1 462 36
	li	a4,4
	sb	a4,0(a5)
	.loc 1 463 54
	lw	a5,-28(s0)
	lw	a5,4(a5)
	.loc 1 463 40
	addi	a5,a5,8
	.loc 1 463 25
	li	a2,4
	mv	a1,a5
	lw	a0,-40(s0)
	call	memcpy
	.loc 1 464 33
	lw	a5,-40(s0)
	addi	a5,a5,4
	sw	a5,-40(s0)
	.loc 1 466 33
	lw	a5,-40(s0)
	addi	a4,a5,1
	sw	a4,-40(s0)
	.loc 1 466 36
	li	a4,6
	sb	a4,0(a5)
	.loc 1 467 33
	lw	a5,-40(s0)
	addi	a4,a5,1
	sw	a4,-40(s0)
	.loc 1 467 36
	li	a4,4
	sb	a4,0(a5)
	.loc 1 476 53
	lw	a5,-28(s0)
	lw	a5,4(a5)
	.loc 1 476 40
	addi	a5,a5,4
	.loc 1 476 25
	li	a2,4
	mv	a1,a5
	lw	a0,-40(s0)
	call	memcpy
	.loc 1 478 33
	lw	a5,-40(s0)
	addi	a5,a5,4
	sw	a5,-40(s0)
	.loc 1 480 33
	lw	a5,-40(s0)
	addi	a4,a5,1
	sw	a4,-40(s0)
	.loc 1 480 36
	li	a4,3
	sb	a4,0(a5)
	.loc 1 481 33
	lw	a5,-40(s0)
	addi	a4,a5,1
	sw	a4,-40(s0)
	.loc 1 481 36
	li	a4,4
	sb	a4,0(a5)
	.loc 1 482 54
	lw	a5,-28(s0)
	lw	a5,4(a5)
	.loc 1 482 40
	addi	a5,a5,4
	.loc 1 482 25
	li	a2,4
	mv	a1,a5
	lw	a0,-40(s0)
	call	memcpy
	.loc 1 483 33
	lw	a5,-40(s0)
	addi	a5,a5,4
	sw	a5,-40(s0)
	.loc 1 486 33
	lw	a5,-40(s0)
	addi	a4,a5,1
	sw	a4,-40(s0)
	.loc 1 486 36
	li	a4,-1
	sb	a4,0(a5)
	.loc 1 488 34
	lw	a4,-40(s0)
	.loc 1 488 51
	lw	a5,-36(s0)
	.loc 1 488 49
	sub	a5,a4,a5
	.loc 1 488 32
	sh	a5,-42(s0)
	.loc 1 489 39
	lw	a5,-32(s0)
	lhu	a5,8(a5)
	.loc 1 489 28
	lhu	a4,-42(s0)
	bgeu	a4,a5,.L47
	.loc 1 491 29
	lhu	a5,-42(s0)
	mv	a1,a5
	lw	a0,-32(s0)
	call	pbuf_realloc
.L47:
	.loc 1 494 39
	li	a5,-1
	sw	a5,-56(s0)
	.loc 1 495 25
	lw	a5,-28(s0)
	lw	a4,4(a5)
	lhu	a3,-82(s0)
	addi	a5,s0,-56
	mv	a2,a5
	lw	a1,-32(s0)
	lw	a0,-72(s0)
	call	udp_sendto_if
	j	.L39
.L46:
	.loc 1 501 33
	lw	a5,-36(s0)
	li	a4,2
	sb	a4,0(a5)
	.loc 1 502 35
	lw	a5,-36(s0)
	sb	zero,3(a5)
	.loc 1 503 35
	lw	a5,-36(s0)
	lbu	a4,8(a5)
	andi	a4,a4,0
	sb	a4,8(a5)
	lbu	a4,9(a5)
	andi	a4,a4,0
	sb	a4,9(a5)
	.loc 1 504 32
	lw	a5,-36(s0)
	addi	a4,a5,20
	.loc 1 504 58
	lw	a5,-28(s0)
	lw	a5,4(a5)
	.loc 1 504 45
	addi	a5,a5,4
	.loc 1 504 25
	li	a2,4
	mv	a1,a5
	mv	a0,a4
	call	memcpy
	.loc 1 505 39
	lw	a5,-36(s0)
	sb	zero,44(a5)
	.loc 1 506 38
	lw	a5,-36(s0)
	sb	zero,108(a5)
	.loc 1 507 37
	lw	a5,-36(s0)
	lbu	a4,236(a5)
	andi	a4,a4,0
	ori	a4,a4,99
	sb	a4,236(a5)
	lbu	a4,237(a5)
	andi	a4,a4,0
	ori	a4,a4,-126
	sb	a4,237(a5)
	lbu	a4,238(a5)
	andi	a4,a4,0
	ori	a4,a4,83
	sb	a4,238(a5)
	lbu	a4,239(a5)
	andi	a4,a4,0
	ori	a4,a4,99
	sb	a4,239(a5)
	.loc 1 508 32
	lw	a5,-36(s0)
	addi	a5,a5,16
	.loc 1 508 25
	li	a2,4
	li	a1,0
	mv	a0,a5
	call	memset
	.loc 1 509 33
	lw	a5,-36(s0)
	addi	a5,a5,240
	sw	a5,-40(s0)
	.loc 1 512 33
	lw	a5,-40(s0)
	addi	a4,a5,1
	sw	a4,-40(s0)
	.loc 1 512 36
	li	a4,53
	sb	a4,0(a5)
	.loc 1 513 33
	lw	a5,-40(s0)
	addi	a4,a5,1
	sw	a4,-40(s0)
	.loc 1 513 36
	li	a4,1
	sb	a4,0(a5)
	.loc 1 514 33
	lw	a5,-40(s0)
	addi	a4,a5,1
	sw	a4,-40(s0)
	.loc 1 514 36
	li	a4,6
	sb	a4,0(a5)
	.loc 1 517 33
	lw	a5,-40(s0)
	addi	a4,a5,1
	sw	a4,-40(s0)
	.loc 1 517 36
	li	a4,54
	sb	a4,0(a5)
	.loc 1 518 33
	lw	a5,-40(s0)
	addi	a4,a5,1
	sw	a4,-40(s0)
	.loc 1 518 36
	li	a4,4
	sb	a4,0(a5)
	.loc 1 519 53
	lw	a5,-28(s0)
	lw	a5,4(a5)
	.loc 1 519 40
	addi	a5,a5,4
	.loc 1 519 25
	li	a2,4
	mv	a1,a5
	lw	a0,-40(s0)
	call	memcpy
	.loc 1 520 33
	lw	a5,-40(s0)
	addi	a5,a5,4
	sw	a5,-40(s0)
	.loc 1 523 33
	lw	a5,-40(s0)
	addi	a4,a5,1
	sw	a4,-40(s0)
	.loc 1 523 36
	li	a4,-1
	sb	a4,0(a5)
	.loc 1 524 34
	lw	a4,-40(s0)
	.loc 1 524 51
	lw	a5,-36(s0)
	.loc 1 524 49
	sub	a5,a4,a5
	.loc 1 524 32
	sh	a5,-42(s0)
	.loc 1 525 39
	lw	a5,-32(s0)
	lhu	a5,8(a5)
	.loc 1 525 28
	lhu	a4,-42(s0)
	bgeu	a4,a5,.L48
	.loc 1 527 29
	lhu	a5,-42(s0)
	mv	a1,a5
	lw	a0,-32(s0)
	call	pbuf_realloc
.L48:
	.loc 1 530 39
	li	a5,-1
	sw	a5,-56(s0)
	.loc 1 531 25
	lw	a5,-28(s0)
	lw	a4,4(a5)
	lhu	a3,-82(s0)
	addi	a5,s0,-56
	mv	a2,a5
	lw	a1,-32(s0)
	lw	a0,-72(s0)
	call	udp_sendto_if
	j	.L39
.L45:
	.loc 1 534 25
	lbu	a4,-49(s0)
	li	a5,7
	bne	a4,a5,.L39
.LBB2:
	.loc 1 536 46
	sw	zero,-24(s0)
	.loc 1 538 31
	lw	a5,-28(s0)
	lw	a5,12(a5)
	sw	a5,-20(s0)
	.loc 1 538 21
	j	.L50
.L55:
	.loc 1 540 40
	lw	a5,-20(s0)
	addi	a4,a5,4
	.loc 1 540 53
	lw	a5,-36(s0)
	addi	a3,a5,28
	.loc 1 540 66
	lw	a5,-36(s0)
	lbu	a5,2(a5)
	.loc 1 540 29
	mv	a2,a5
	mv	a1,a3
	mv	a0,a4
	call	memcmp
	mv	a5,a0
	.loc 1 540 28 discriminator 1
	bne	a5,zero,.L51
	.loc 1 542 52
	lw	a5,-28(s0)
	lw	a5,12(a5)
	.loc 1 542 32
	lw	a4,-20(s0)
	bne	a4,a5,.L52
	.loc 1 544 62
	lw	a5,-20(s0)
	lw	a4,0(a5)
	.loc 1 544 56
	lw	a5,-28(s0)
	sw	a4,12(a5)
	.loc 1 550 29
	j	.L54
.L52:
	.loc 1 548 55
	lw	a5,-20(s0)
	lw	a4,0(a5)
	.loc 1 548 49
	lw	a5,-24(s0)
	sw	a4,0(a5)
	.loc 1 550 29
	j	.L54
.L51:
	.loc 1 552 35
	lw	a5,-20(s0)
	sw	a5,-24(s0)
	.loc 1 553 30
	lw	a5,-20(s0)
	lw	a5,0(a5)
	sw	a5,-20(s0)
	.loc 1 538 75 discriminator 2
	lw	a5,-20(s0)
	lw	a5,0(a5)
	sw	a5,-20(s0)
.L50:
	.loc 1 538 62 discriminator 1
	lw	a5,-20(s0)
	bne	a5,zero,.L55
.L54:
	.loc 1 556 24
	lw	a5,-20(s0)
	beq	a5,zero,.L39
	.loc 1 558 25
	lw	a0,-20(s0)
	call	mem_free
	j	.L39
.L57:
.LBE2:
	.loc 1 326 9
	nop
	j	.L39
.L58:
	.loc 1 332 9
	nop
	j	.L39
.L59:
	.loc 1 337 9
	nop
	j	.L39
.L60:
	.loc 1 573 1
	nop
	j	.L39
.L61:
	.loc 1 351 17
	nop
.L39:
	.loc 1 574 5
	lw	a0,-32(s0)
	call	pbuf_free
.L33:
	.loc 1 575 1
	lw	ra,92(sp)
	.cfi_restore 1
	lw	s0,88(sp)
	.cfi_restore 8
	.cfi_def_cfa 2, 96
	addi	sp,sp,96
	.cfi_def_cfa_offset 0
	jr	ra
	.cfi_endproc
.LFE11:
	.size	dhcp_server_recv, .-dhcp_server_recv
	.section	.text.dhcp_server_start,"ax",@progbits
	.align	1
	.globl	dhcp_server_start
	.type	dhcp_server_start, @function
dhcp_server_start:
.LFB12:
	.loc 1 589 1
	.cfi_startproc
	addi	sp,sp,-48
	.cfi_def_cfa_offset 48
	sw	ra,44(sp)
	sw	s0,40(sp)
	.cfi_offset 1, -4
	.cfi_offset 8, -8
	addi	s0,sp,48
	.cfi_def_cfa 8, 0
	sw	a0,-36(s0)
	sw	a1,-40(s0)
	sw	a2,-44(s0)
	.loc 1 593 22
	lui	a5,%hi(lw_dhcp_server)
	lw	a5,%lo(lw_dhcp_server)(a5)
	sw	a5,-20(s0)
	.loc 1 593 5
	j	.L63
.L66:
	.loc 1 595 24
	lw	a5,-20(s0)
	lw	a5,4(a5)
	.loc 1 595 12
	lw	a4,-36(s0)
	bne	a4,a5,.L64
	.loc 1 597 32
	lw	a5,-20(s0)
	lw	a4,-40(s0)
	lw	a4,0(a4)
	sw	a4,16(a5)
	.loc 1 598 30
	lw	a5,-20(s0)
	lw	a4,-44(s0)
	lw	a4,0(a4)
	sw	a4,20(a5)
	.loc 1 599 34
	lw	a5,-20(s0)
	lw	a4,-40(s0)
	lw	a4,0(a4)
	sw	a4,24(a5)
	.loc 1 600 20
	li	a5,0
	j	.L65
.L64:
	.loc 1 593 72 discriminator 2
	lw	a5,-20(s0)
	lw	a5,0(a5)
	sw	a5,-20(s0)
.L63:
	.loc 1 593 52 discriminator 1
	lw	a5,-20(s0)
	bne	a5,zero,.L66
	.loc 1 604 17
	sw	zero,-20(s0)
	.loc 1 606 41
	li	a0,28
	call	mem_malloc
	sw	a0,-20(s0)
	.loc 1 607 8
	lw	a5,-20(s0)
	bne	a5,zero,.L67
	.loc 1 610 16
	li	a5,-1
	j	.L65
.L67:
	.loc 1 614 5
	li	a2,28
	li	a1,0
	lw	a0,-20(s0)
	call	memset
	.loc 1 617 23
	lui	a5,%hi(lw_dhcp_server)
	lw	a4,%lo(lw_dhcp_server)(a5)
	lw	a5,-20(s0)
	sw	a4,0(a5)
	.loc 1 618 20
	lui	a5,%hi(lw_dhcp_server)
	lw	a4,-20(s0)
	sw	a4,%lo(lw_dhcp_server)(a5)
	.loc 1 619 24
	lw	a5,-20(s0)
	lw	a4,-36(s0)
	sw	a4,4(a5)
	.loc 1 620 28
	lw	a5,-20(s0)
	sw	zero,12(a5)
	.loc 1 621 24
	lw	a5,-20(s0)
	lw	a4,-40(s0)
	lw	a4,0(a4)
	sw	a4,16(a5)
	.loc 1 622 22
	lw	a5,-20(s0)
	lw	a4,-44(s0)
	lw	a4,0(a4)
	sw	a4,20(a5)
	.loc 1 623 26
	lw	a5,-20(s0)
	lw	a4,-40(s0)
	lw	a4,0(a4)
	sw	a4,24(a5)
	.loc 1 626 24
	call	udp_new
	mv	a4,a0
	.loc 1 626 22 discriminator 1
	lw	a5,-20(s0)
	sw	a4,8(a5)
	.loc 1 627 20
	lw	a5,-20(s0)
	lw	a5,8(a5)
	.loc 1 627 8
	bne	a5,zero,.L68
	.loc 1 630 16
	li	a5,-1
	j	.L65
.L68:
	.loc 1 633 58
	lw	a5,-20(s0)
	lw	a5,8(a5)
	.loc 1 633 64
	lbu	a4,9(a5)
	.loc 1 633 18
	lw	a5,-20(s0)
	lw	a5,8(a5)
	.loc 1 633 39
	ori	a4,a4,32
	andi	a4,a4,0xff
	.loc 1 633 37
	sb	a4,9(a5)
	.loc 1 635 5
	lw	a5,-20(s0)
	lw	a4,8(a5)
	li	a2,67
	lui	a5,%hi(ip_addr_any)
	addi	a1,a5,%lo(ip_addr_any)
	mv	a0,a4
	call	udp_bind
	.loc 1 638 5
	lw	a5,-20(s0)
	lw	a4,8(a5)
	lw	a2,-20(s0)
	lui	a5,%hi(dhcp_server_recv)
	addi	a1,a5,%lo(dhcp_server_recv)
	mv	a0,a4
	call	udp_recv
	.loc 1 641 12
	li	a5,0
.L65:
	.loc 1 642 1
	mv	a0,a5
	lw	ra,44(sp)
	.cfi_restore 1
	lw	s0,40(sp)
	.cfi_restore 8
	.cfi_def_cfa 2, 48
	addi	sp,sp,48
	.cfi_def_cfa_offset 0
	jr	ra
	.cfi_endproc
.LFE12:
	.size	dhcp_server_start, .-dhcp_server_start
	.section	.rodata
	.align	2
.LC1:
	.string	"[DHCP] [DHCPD] CRITICAL: no dhcp_server instance found\r\n"
	.section	.text.dhcp_server_stop,"ax",@progbits
	.align	1
	.globl	dhcp_server_stop
	.type	dhcp_server_stop, @function
dhcp_server_stop:
.LFB13:
	.loc 1 646 1
	.cfi_startproc
	addi	sp,sp,-48
	.cfi_def_cfa_offset 48
	sw	ra,44(sp)
	sw	s0,40(sp)
	.cfi_offset 1, -4
	.cfi_offset 8, -8
	addi	s0,sp,48
	.cfi_def_cfa 8, 0
	sw	a0,-36(s0)
	.loc 1 650 22
	lui	a5,%hi(lw_dhcp_server)
	lw	a5,%lo(lw_dhcp_server)(a5)
	sw	a5,-20(s0)
	.loc 1 650 5
	j	.L70
.L73:
	.loc 1 651 24
	lw	a5,-20(s0)
	lw	a5,4(a5)
	.loc 1 651 12
	lw	a4,-36(s0)
	beq	a4,a5,.L77
	.loc 1 650 72 discriminator 2
	lw	a5,-20(s0)
	lw	a5,0(a5)
	sw	a5,-20(s0)
.L70:
	.loc 1 650 52 discriminator 1
	lw	a5,-20(s0)
	bne	a5,zero,.L73
	j	.L72
.L77:
	.loc 1 652 13
	nop
.L72:
	.loc 1 656 8
	lw	a5,-20(s0)
	bne	a5,zero,.L74
	.loc 1 657 9
	lui	a5,%hi(.LC1)
	addi	a0,a5,%lo(.LC1)
	call	printf
	.loc 1 658 16
	li	a5,-6
	j	.L75
.L74:
	.loc 1 662 20
	lw	a5,-20(s0)
	lw	a5,8(a5)
	.loc 1 662 8
	beq	a5,zero,.L76
	.loc 1 663 9
	lw	a5,-20(s0)
	lw	a5,8(a5)
	mv	a0,a5
	call	udp_remove
.L76:
	.loc 1 667 20
	lui	a5,%hi(lw_dhcp_server)
	sw	zero,%lo(lw_dhcp_server)(a5)
	.loc 1 668 5
	lw	a0,-20(s0)
	call	mem_free
	.loc 1 670 12
	li	a5,0
.L75:
	.loc 1 671 1
	mv	a0,a5
	lw	ra,44(sp)
	.cfi_restore 1
	lw	s0,40(sp)
	.cfi_restore 8
	.cfi_def_cfa 2, 48
	addi	sp,sp,48
	.cfi_def_cfa_offset 0
	jr	ra
	.cfi_endproc
.LFE13:
	.size	dhcp_server_stop, .-dhcp_server_stop
	.section	.rodata
	.align	2
.LC2:
	.string	"255.255.255.0"
	.align	2
.LC3:
	.string	"0.0.0.0"
	.align	2
.LC4:
	.string	"192.168.169.1"
	.align	2
.LC6:
	.string	"[DHCP] DHCPD_SERVER_IP: %s error!\r\n"
	.align	2
.LC7:
	.string	"%d"
	.align	2
.LC8:
	.string	"[DHCP] ip_start: [%s]\r\n"
	.align	2
.LC9:
	.string	"[DHCP] dhcp_server_start res: %d.\r\n"
	.align	2
.LC5:
	.string	"192.168.169.1"
	.zero	6
	.section	.text.dhcpd_start,"ax",@progbits
	.align	1
	.globl	dhcpd_start
	.type	dhcpd_start, @function
dhcpd_start:
.LFB14:
	.loc 1 675 1
	.cfi_startproc
	addi	sp,sp,-80
	.cfi_def_cfa_offset 80
	sw	ra,76(sp)
	sw	s0,72(sp)
	.cfi_offset 1, -4
	.cfi_offset 8, -8
	addi	s0,sp,80
	.cfi_def_cfa 8, 0
	sw	a0,-68(s0)
.LBB3:
	.loc 1 682 9
	lw	a0,-68(s0)
	call	dhcp_stop
	.loc 1 684 9
	lui	a5,%hi(.LC2)
	addi	a3,a5,%lo(.LC2)
	lui	a5,%hi(.LC3)
	addi	a2,a5,%lo(.LC3)
	lui	a5,%hi(.LC4)
	addi	a1,a5,%lo(.LC4)
	lw	a0,-68(s0)
	call	set_if
	.loc 1 686 9
	lw	a0,-68(s0)
	call	netif_set_up
.LBE3:
.LBB4:
	.loc 1 690 14
	lui	a5,%hi(.LC5)
	addi	a5,a5,%lo(.LC5)
	lw	a3,0(a5)
	lw	a4,4(a5)
	sw	a3,-44(s0)
	sw	a4,-40(s0)
	lw	a4,8(a5)
	sw	a4,-36(s0)
	lhu	a5,12(a5)
	sh	a5,-32(s0)
	sh	zero,-30(s0)
	sh	zero,-28(s0)
	sh	zero,-26(s0)
	.loc 1 691 15
	addi	a5,s0,-44
	sw	a5,-20(s0)
	.loc 1 694 13
	addi	a5,s0,-44
	li	a1,46
	mv	a0,a5
	call	strchr
	sw	a0,-20(s0)
	.loc 1 695 12
	lw	a5,-20(s0)
	beq	a5,zero,.L79
	.loc 1 697 26
	lw	a5,-20(s0)
	addi	a5,a5,1
	.loc 1 697 17
	li	a1,46
	mv	a0,a5
	call	strchr
	sw	a0,-20(s0)
	.loc 1 698 16
	lw	a5,-20(s0)
	beq	a5,zero,.L79
	.loc 1 700 30
	lw	a5,-20(s0)
	addi	a5,a5,1
	.loc 1 700 21
	li	a1,46
	mv	a0,a5
	call	strchr
	sw	a0,-20(s0)
.L79:
	.loc 1 703 12
	lw	a5,-20(s0)
	bne	a5,zero,.L80
	.loc 1 705 13
	addi	a5,s0,-44
	mv	a1,a5
	lui	a5,%hi(.LC6)
	addi	a0,a5,%lo(.LC6)
	call	printf
.LBE4:
	.loc 1 726 5
	j	.L84
.L80:
.LBB5:
	.loc 1 708 11
	lw	a5,-20(s0)
	addi	a5,a5,1
	sw	a5,-20(s0)
	.loc 1 710 9
	li	a2,2
	lui	a5,%hi(.LC7)
	addi	a1,a5,%lo(.LC7)
	lw	a0,-20(s0)
	call	sprintf
	.loc 1 711 9
	addi	a4,s0,-48
	addi	a5,s0,-44
	mv	a1,a4
	mv	a0,a5
	call	ip4addr_aton
	.loc 1 712 9
	addi	a5,s0,-44
	mv	a1,a5
	lui	a5,%hi(.LC8)
	addi	a0,a5,%lo(.LC8)
	call	printf
	.loc 1 713 9
	li	a2,254
	lui	a5,%hi(.LC7)
	addi	a1,a5,%lo(.LC7)
	lw	a0,-20(s0)
	call	sprintf
	.loc 1 714 9
	addi	a4,s0,-52
	addi	a5,s0,-44
	mv	a1,a4
	mv	a0,a5
	call	ip4addr_aton
	.loc 1 715 9
	addi	a5,s0,-44
	mv	a1,a5
	lui	a5,%hi(.LC8)
	addi	a0,a5,%lo(.LC8)
	call	printf
	.loc 1 717 15
	addi	a4,s0,-52
	addi	a5,s0,-48
	mv	a2,a4
	mv	a1,a5
	lw	a0,-68(s0)
	call	dhcp_server_start
	mv	a5,a0
	sb	a5,-21(s0)
	.loc 1 718 12
	lb	a5,-21(s0)
	beq	a5,zero,.L84
	.loc 1 720 13
	lb	a5,-21(s0)
	mv	a1,a5
	lui	a5,%hi(.LC9)
	addi	a0,a5,%lo(.LC9)
	call	printf
.LBE5:
	.loc 1 726 5
	nop
.L81:
.L84:
	nop
	.loc 1 727 1
	lw	ra,76(sp)
	.cfi_restore 1
	lw	s0,72(sp)
	.cfi_restore 8
	.cfi_def_cfa 2, 80
	addi	sp,sp,80
	.cfi_def_cfa_offset 0
	jr	ra
	.cfi_endproc
.LFE14:
	.size	dhcpd_start, .-dhcpd_start
	.section	.rodata
	.align	2
.LC10:
	.string	"[DHCP] %s: %s\r\n"
	.align	2
.LC11:
	.string	"[DHCP] network interface name too long!\r\n"
	.align	2
.LC12:
	.string	"[DHCP] network interface: %s not found!\r\n"
	.section	.text.dhcpd_stop,"ax",@progbits
	.align	1
	.globl	dhcpd_stop
	.type	dhcpd_stop, @function
dhcpd_stop:
.LFB15:
	.loc 1 730 1
	.cfi_startproc
	addi	sp,sp,-48
	.cfi_def_cfa_offset 48
	sw	ra,44(sp)
	sw	s0,40(sp)
	.cfi_offset 1, -4
	.cfi_offset 8, -8
	addi	s0,sp,48
	.cfi_def_cfa 8, 0
	sw	a0,-36(s0)
	.loc 1 731 19
	lui	a5,%hi(netif_list)
	lw	a5,%lo(netif_list)(a5)
	sw	a5,-20(s0)
	.loc 1 733 5
	lw	a2,-36(s0)
	lui	a5,%hi(__func__.0)
	addi	a1,a5,%lo(__func__.0)
	lui	a5,%hi(.LC10)
	addi	a0,a5,%lo(.LC10)
	call	printf
	.loc 1 736 9
	lw	a0,-36(s0)
	call	strlen
	mv	a4,a0
	.loc 1 736 8 discriminator 1
	li	a5,2
	bleu	a4,a5,.L88
	.loc 1 737 9
	lui	a5,%hi(.LC11)
	addi	a0,a5,%lo(.LC11)
	call	printf
	.loc 1 738 9
	j	.L87
.L91:
	.loc 1 742 38
	lw	a5,-20(s0)
	addi	a5,a5,70
	.loc 1 742 13
	li	a2,2
	mv	a1,a5
	lw	a0,-36(s0)
	call	strncmp
	mv	a5,a0
	.loc 1 742 12 discriminator 1
	beq	a5,zero,.L94
	.loc 1 745 15
	lw	a5,-20(s0)
	lw	a5,0(a5)
	sw	a5,-20(s0)
	.loc 1 746 12
	lw	a5,-20(s0)
	bne	a5,zero,.L88
	.loc 1 748 13
	lw	a1,-36(s0)
	lui	a5,%hi(.LC12)
	addi	a0,a5,%lo(.LC12)
	call	printf
	.loc 1 749 13
	j	.L90
.L88:
	.loc 1 741 18
	lw	a5,-20(s0)
	bne	a5,zero,.L91
	j	.L90
.L94:
	.loc 1 743 13
	nop
.L90:
	.loc 1 753 8
	lw	a5,-20(s0)
	beq	a5,zero,.L95
	.loc 1 757 5
	lw	a0,-20(s0)
	call	dhcp_server_stop
	.loc 1 761 5
	j	.L87
.L95:
	.loc 1 754 9
	nop
.L87:
	.loc 1 761 5
	nop
	.loc 1 762 1
	lw	ra,44(sp)
	.cfi_restore 1
	lw	s0,40(sp)
	.cfi_restore 8
	.cfi_def_cfa 2, 48
	addi	sp,sp,48
	.cfi_def_cfa_offset 0
	jr	ra
	.cfi_endproc
.LFE15:
	.size	dhcpd_stop, .-dhcpd_stop
	.section	.rodata.__func__.0,"a"
	.align	2
	.type	__func__.0, @object
	.size	__func__.0, 11
__func__.0:
	.string	"dhcpd_stop"
	.text
.Letext0:
	.file 2 "/home/chandu/sdk/bl602_iot_sdk/toolchain/compiler/lib/gcc/riscv32-unknown-elf/15.1.0/include/stddef.h"
	.file 3 "/home/chandu/sdk/bl602_iot_sdk/toolchain/compiler/lib/gcc/riscv32-unknown-elf/15.1.0/include/stdint-gcc.h"
	.file 4 "/home/chandu/sdk/bl602_iot_sdk/components/network/lwip/src/include/lwip/arch.h"
	.file 5 "/home/chandu/sdk/bl602_iot_sdk/components/network/lwip/src/include/lwip/ip4_addr.h"
	.file 6 "/home/chandu/sdk/bl602_iot_sdk/components/network/lwip/src/include/lwip/ip_addr.h"
	.file 7 "/home/chandu/sdk/bl602_iot_sdk/components/network/lwip/src/include/lwip/err.h"
	.file 8 "/home/chandu/sdk/bl602_iot_sdk/components/network/lwip/src/include/lwip/pbuf.h"
	.file 9 "/home/chandu/sdk/bl602_iot_sdk/components/network/lwip/src/include/lwip/mem.h"
	.file 10 "/home/chandu/sdk/bl602_iot_sdk/components/network/lwip/src/include/lwip/memp.h"
	.file 11 "/home/chandu/sdk/bl602_iot_sdk/components/network/lwip/src/include/lwip/netif.h"
	.file 12 "/home/chandu/sdk/bl602_iot_sdk/components/network/lwip/src/include/lwip/acd.h"
	.file 13 "/home/chandu/sdk/bl602_iot_sdk/components/network/lwip/src/include/lwip/prot/ip4.h"
	.file 14 "/home/chandu/sdk/bl602_iot_sdk/components/network/lwip/src/include/lwip/prot/dhcp.h"
	.file 15 "/home/chandu/sdk/bl602_iot_sdk/components/network/lwip/src/include/lwip/udp.h"
	.file 16 "/home/chandu/sdk/bl602_iot_sdk/components/network/lwip/src/include/lwip/prot/acd.h"
	.file 17 "/home/chandu/sdk/bl602_iot_sdk/toolchain/compiler/riscv32-unknown-elf/include/string.h"
	.file 18 "/home/chandu/sdk/bl602_iot_sdk/toolchain/compiler/riscv32-unknown-elf/include/stdio.h"
	.file 19 "/home/chandu/sdk/bl602_iot_sdk/components/network/lwip/src/include/lwip/dhcp.h"
	.file 20 "/home/chandu/sdk/bl602_iot_sdk/components/network/lwip/src/include/lwip/def.h"
	.section	.note.GNU-stack,"",@progbits
