	.file	"stream_buffer.c"
	.option nopic
	.attribute arch, "rv32i2p1_m2p0_f2p2_c2p0_zicsr2p0_zmmul1p0_zca1p0_zcf1p0"
	.attribute unaligned_access, 0
	.attribute stack_align, 16
	.text
.Ltext0:
	.cfi_sections	.debug_frame
	.file 0 "/home/chandu/sdk/bl602_iot_sdk/customer_app/suas_app_pqkem_gateway/build_out/freertos" "/home/chandu/sdk/bl602_iot_sdk/components/freertos/stream_buffer.c"
	.section	.text.xStreamBufferGenericCreate,"ax",@progbits
	.align	1
	.globl	xStreamBufferGenericCreate
	.type	xStreamBufferGenericCreate, @function
xStreamBufferGenericCreate:
.LFB2:
	.file 1 "/home/chandu/sdk/bl602_iot_sdk/components/freertos/stream_buffer.c"
	.loc 1 220 2
	.cfi_startproc
	addi	sp,sp,-48
	.cfi_def_cfa_offset 48
	sw	ra,44(sp)
	sw	s0,40(sp)
	.cfi_offset 1, -4
	.cfi_offset 8, -8
	addi	s0,sp,48
	.cfi_def_cfa 8, 0
	sw	a0,-36(s0)
	sw	a1,-40(s0)
	sw	a2,-44(s0)
	.loc 1 228 5
	lw	a4,-44(s0)
	li	a5,1
	bne	a4,a5,.L2
	.loc 1 231 12
	li	a5,1
	sb	a5,-21(s0)
	.loc 1 232 6
	lw	a4,-36(s0)
	li	a5,4
	bgtu	a4,a5,.L3
	.loc 1 232 59 discriminator 1
	call	vAssertCalled
	j	.L3
.L2:
	.loc 1 237 12
	sb	zero,-21(s0)
	.loc 1 238 6
	lw	a5,-36(s0)
	bne	a5,zero,.L3
	.loc 1 238 40 discriminator 1
	call	vAssertCalled
.L3:
	.loc 1 240 5
	lw	a4,-40(s0)
	lw	a5,-36(s0)
	bleu	a4,a5,.L4
	.loc 1 240 57 discriminator 1
	call	vAssertCalled
.L4:
	.loc 1 244 5
	lw	a5,-40(s0)
	bne	a5,zero,.L5
	.loc 1 246 23
	li	a5,1
	sw	a5,-40(s0)
.L5:
	.loc 1 257 11
	lw	a4,-36(s0)
	li	a5,-38
	bgtu	a4,a5,.L6
	.loc 1 259 29
	lw	a5,-36(s0)
	addi	a5,a5,1
	sw	a5,-36(s0)
	.loc 1 260 48
	lw	a5,-36(s0)
	addi	a5,a5,36
	mv	a0,a5
	call	pvPortMalloc
	sw	a0,-20(s0)
	j	.L7
.L6:
	.loc 1 264 32
	sw	zero,-20(s0)
.L7:
	.loc 1 267 5
	lw	a5,-20(s0)
	beq	a5,zero,.L8
	.loc 1 270 33
	lw	a5,-20(s0)
	addi	a5,a5,36
	.loc 1 269 4
	lbu	a4,-21(s0)
	lw	a3,-40(s0)
	lw	a2,-36(s0)
	mv	a1,a5
	lw	a0,-20(s0)
	call	prvInitialiseNewStreamBuffer
.L8:
	.loc 1 282 10
	lw	a5,-20(s0)
	.loc 1 283 2
	mv	a0,a5
	lw	ra,44(sp)
	.cfi_restore 1
	lw	s0,40(sp)
	.cfi_restore 8
	.cfi_def_cfa 2, 48
	addi	sp,sp,48
	.cfi_def_cfa_offset 0
	jr	ra
	.cfi_endproc
.LFE2:
	.size	xStreamBufferGenericCreate, .-xStreamBufferGenericCreate
	.section	.text.xStreamBufferGenericCreateStatic,"ax",@progbits
	.align	1
	.globl	xStreamBufferGenericCreateStatic
	.type	xStreamBufferGenericCreateStatic, @function
xStreamBufferGenericCreateStatic:
.LFB3:
	.loc 1 295 2
	.cfi_startproc
	addi	sp,sp,-64
	.cfi_def_cfa_offset 64
	sw	ra,60(sp)
	sw	s0,56(sp)
	.cfi_offset 1, -4
	.cfi_offset 8, -8
	addi	s0,sp,64
	.cfi_def_cfa 8, 0
	sw	a0,-36(s0)
	sw	a1,-40(s0)
	sw	a2,-44(s0)
	sw	a3,-48(s0)
	sw	a4,-52(s0)
	.loc 1 296 25
	lw	a5,-52(s0)
	sw	a5,-28(s0)
	.loc 1 300 5
	lw	a5,-48(s0)
	bne	a5,zero,.L11
	.loc 1 300 45 discriminator 1
	call	vAssertCalled
.L11:
	.loc 1 301 5
	lw	a5,-52(s0)
	bne	a5,zero,.L12
	.loc 1 301 39 discriminator 1
	call	vAssertCalled
.L12:
	.loc 1 302 5
	lw	a4,-40(s0)
	lw	a5,-36(s0)
	bleu	a4,a5,.L13
	.loc 1 302 57 discriminator 1
	call	vAssertCalled
.L13:
	.loc 1 306 5
	lw	a5,-40(s0)
	bne	a5,zero,.L14
	.loc 1 308 23
	li	a5,1
	sw	a5,-40(s0)
.L14:
	.loc 1 311 5
	lw	a5,-44(s0)
	beq	a5,zero,.L15
	.loc 1 314 12
	li	a5,3
	sb	a5,-21(s0)
	j	.L16
.L15:
	.loc 1 319 12
	li	a5,2
	sb	a5,-21(s0)
.L16:
	.loc 1 326 5
	lw	a4,-36(s0)
	li	a5,4
	bgtu	a4,a5,.L17
	.loc 1 326 58 discriminator 1
	call	vAssertCalled
.L17:
.LBB2:
	.loc 1 333 20
	li	a5,36
	sw	a5,-32(s0)
	.loc 1 334 46
	lw	a4,-32(s0)
	.loc 1 334 6
	li	a5,36
	beq	a4,a5,.L18
	.loc 1 334 53 discriminator 1
	call	vAssertCalled
.L18:
.LBE2:
	.loc 1 338 5
	lw	a5,-48(s0)
	beq	a5,zero,.L19
	.loc 1 338 45 discriminator 1
	lw	a5,-52(s0)
	beq	a5,zero,.L19
	.loc 1 340 4
	lbu	a5,-21(s0)
	mv	a4,a5
	lw	a3,-40(s0)
	lw	a2,-36(s0)
	lw	a1,-48(s0)
	lw	a0,-28(s0)
	call	prvInitialiseNewStreamBuffer
	.loc 1 348 18
	lw	a5,-28(s0)
	lbu	a5,28(a5)
	.loc 1 348 28
	ori	a5,a5,2
	andi	a4,a5,0xff
	lw	a5,-28(s0)
	sb	a4,28(a5)
	.loc 1 352 12
	lw	a5,-52(s0)
	sw	a5,-20(s0)
	j	.L20
.L19:
	.loc 1 356 12
	sw	zero,-20(s0)
.L20:
	.loc 1 360 10
	lw	a5,-20(s0)
	.loc 1 361 2
	mv	a0,a5
	lw	ra,60(sp)
	.cfi_restore 1
	lw	s0,56(sp)
	.cfi_restore 8
	.cfi_def_cfa 2, 64
	addi	sp,sp,64
	.cfi_def_cfa_offset 0
	jr	ra
	.cfi_endproc
.LFE3:
	.size	xStreamBufferGenericCreateStatic, .-xStreamBufferGenericCreateStatic
	.section	.text.vStreamBufferDelete,"ax",@progbits
	.align	1
	.globl	vStreamBufferDelete
	.type	vStreamBufferDelete, @function
vStreamBufferDelete:
.LFB4:
	.loc 1 367 1
	.cfi_startproc
	addi	sp,sp,-48
	.cfi_def_cfa_offset 48
	sw	ra,44(sp)
	sw	s0,40(sp)
	.cfi_offset 1, -4
	.cfi_offset 8, -8
	addi	s0,sp,48
	.cfi_def_cfa 8, 0
	sw	a0,-36(s0)
	.loc 1 368 18
	lw	a5,-36(s0)
	sw	a5,-20(s0)
	.loc 1 370 4
	lw	a5,-20(s0)
	bne	a5,zero,.L23
	.loc 1 370 32 discriminator 1
	call	vAssertCalled
.L23:
	.loc 1 374 22
	lw	a5,-20(s0)
	lbu	a5,28(a5)
	.loc 1 374 32
	andi	a5,a5,2
	.loc 1 374 4
	bne	a5,zero,.L24
	.loc 1 380 4
	lw	a0,-20(s0)
	call	vPortFree
	.loc 1 396 1
	j	.L26
.L24:
	.loc 1 394 12
	li	a2,36
	li	a1,0
	lw	a0,-20(s0)
	call	memset
.L26:
	.loc 1 396 1
	nop
	lw	ra,44(sp)
	.cfi_restore 1
	lw	s0,40(sp)
	.cfi_restore 8
	.cfi_def_cfa 2, 48
	addi	sp,sp,48
	.cfi_def_cfa_offset 0
	jr	ra
	.cfi_endproc
.LFE4:
	.size	vStreamBufferDelete, .-vStreamBufferDelete
	.section	.text.xStreamBufferReset,"ax",@progbits
	.align	1
	.globl	xStreamBufferReset
	.type	xStreamBufferReset, @function
xStreamBufferReset:
.LFB5:
	.loc 1 400 1
	.cfi_startproc
	addi	sp,sp,-48
	.cfi_def_cfa_offset 48
	sw	ra,44(sp)
	sw	s0,40(sp)
	.cfi_offset 1, -4
	.cfi_offset 8, -8
	addi	s0,sp,48
	.cfi_def_cfa 8, 0
	sw	a0,-36(s0)
	.loc 1 401 24
	lw	a5,-36(s0)
	sw	a5,-24(s0)
	.loc 1 402 12
	sw	zero,-20(s0)
	.loc 1 408 4
	lw	a5,-24(s0)
	bne	a5,zero,.L28
	.loc 1 408 32 discriminator 1
	call	vAssertCalled
.L28:
	.loc 1 414 24
	lw	a5,-24(s0)
	lw	a5,32(a5)
	sw	a5,-28(s0)
	.loc 1 419 2
	call	vTaskEnterCritical
	.loc 1 421 21
	lw	a5,-24(s0)
	lw	a5,16(a5)
	.loc 1 421 5
	bne	a5,zero,.L29
	.loc 1 423 22
	lw	a5,-24(s0)
	lw	a5,20(a5)
	.loc 1 423 6
	bne	a5,zero,.L29
	.loc 1 426 28
	lw	a5,-24(s0)
	lw	a1,24(a5)
	.loc 1 425 5
	lw	a5,-24(s0)
	lw	a2,8(a5)
	lw	a5,-24(s0)
	lw	a3,12(a5)
	lw	a5,-24(s0)
	lbu	a5,28(a5)
	mv	a4,a5
	lw	a0,-24(s0)
	call	prvInitialiseNewStreamBuffer
	.loc 1 430 13
	li	a5,1
	sw	a5,-20(s0)
	.loc 1 434 43
	lw	a5,-24(s0)
	lw	a4,-28(s0)
	sw	a4,32(a5)
.L29:
	.loc 1 442 2
	call	vTaskExitCritical
	.loc 1 444 9
	lw	a5,-20(s0)
	.loc 1 445 1
	mv	a0,a5
	lw	ra,44(sp)
	.cfi_restore 1
	lw	s0,40(sp)
	.cfi_restore 8
	.cfi_def_cfa 2, 48
	addi	sp,sp,48
	.cfi_def_cfa_offset 0
	jr	ra
	.cfi_endproc
.LFE5:
	.size	xStreamBufferReset, .-xStreamBufferReset
	.section	.text.xStreamBufferSetTriggerLevel,"ax",@progbits
	.align	1
	.globl	xStreamBufferSetTriggerLevel
	.type	xStreamBufferSetTriggerLevel, @function
xStreamBufferSetTriggerLevel:
.LFB6:
	.loc 1 449 1
	.cfi_startproc
	addi	sp,sp,-48
	.cfi_def_cfa_offset 48
	sw	ra,44(sp)
	sw	s0,40(sp)
	.cfi_offset 1, -4
	.cfi_offset 8, -8
	addi	s0,sp,48
	.cfi_def_cfa 8, 0
	sw	a0,-36(s0)
	sw	a1,-40(s0)
	.loc 1 450 24
	lw	a5,-36(s0)
	sw	a5,-24(s0)
	.loc 1 453 4
	lw	a5,-24(s0)
	bne	a5,zero,.L32
	.loc 1 453 32 discriminator 1
	call	vAssertCalled
.L32:
	.loc 1 456 4
	lw	a5,-40(s0)
	bne	a5,zero,.L33
	.loc 1 458 17
	li	a5,1
	sw	a5,-40(s0)
.L33:
	.loc 1 463 37
	lw	a5,-24(s0)
	lw	a5,8(a5)
	.loc 1 463 4
	lw	a4,-40(s0)
	bgtu	a4,a5,.L34
	.loc 1 465 38
	lw	a5,-24(s0)
	lw	a4,-40(s0)
	sw	a4,12(a5)
	.loc 1 466 11
	li	a5,1
	sw	a5,-20(s0)
	j	.L35
.L34:
	.loc 1 470 11
	sw	zero,-20(s0)
.L35:
	.loc 1 473 9
	lw	a5,-20(s0)
	.loc 1 474 1
	mv	a0,a5
	lw	ra,44(sp)
	.cfi_restore 1
	lw	s0,40(sp)
	.cfi_restore 8
	.cfi_def_cfa 2, 48
	addi	sp,sp,48
	.cfi_def_cfa_offset 0
	jr	ra
	.cfi_endproc
.LFE6:
	.size	xStreamBufferSetTriggerLevel, .-xStreamBufferSetTriggerLevel
	.section	.text.xStreamBufferSpacesAvailable,"ax",@progbits
	.align	1
	.globl	xStreamBufferSpacesAvailable
	.type	xStreamBufferSpacesAvailable, @function
xStreamBufferSpacesAvailable:
.LFB7:
	.loc 1 478 1
	.cfi_startproc
	addi	sp,sp,-48
	.cfi_def_cfa_offset 48
	sw	ra,44(sp)
	sw	s0,40(sp)
	.cfi_offset 1, -4
	.cfi_offset 8, -8
	addi	s0,sp,48
	.cfi_def_cfa 8, 0
	sw	a0,-36(s0)
	.loc 1 479 30
	lw	a5,-36(s0)
	sw	a5,-24(s0)
	.loc 1 482 4
	lw	a5,-24(s0)
	bne	a5,zero,.L38
	.loc 1 482 32 discriminator 1
	call	vAssertCalled
.L38:
	.loc 1 484 25
	lw	a5,-24(s0)
	lw	a4,8(a5)
	.loc 1 484 51
	lw	a5,-24(s0)
	lw	a5,0(a5)
	.loc 1 484 9
	add	a5,a4,a5
	sw	a5,-20(s0)
	.loc 1 485 26
	lw	a5,-24(s0)
	lw	a5,4(a5)
	.loc 1 485 9
	lw	a4,-20(s0)
	sub	a5,a4,a5
	sw	a5,-20(s0)
	.loc 1 486 9
	lw	a5,-20(s0)
	addi	a5,a5,-1
	sw	a5,-20(s0)
	.loc 1 488 30
	lw	a5,-24(s0)
	lw	a5,8(a5)
	.loc 1 488 4
	lw	a4,-20(s0)
	bltu	a4,a5,.L39
	.loc 1 490 27
	lw	a5,-24(s0)
	lw	a5,8(a5)
	.loc 1 490 10
	lw	a4,-20(s0)
	sub	a5,a4,a5
	sw	a5,-20(s0)
.L39:
	.loc 1 497 9
	lw	a5,-20(s0)
	.loc 1 498 1
	mv	a0,a5
	lw	ra,44(sp)
	.cfi_restore 1
	lw	s0,40(sp)
	.cfi_restore 8
	.cfi_def_cfa 2, 48
	addi	sp,sp,48
	.cfi_def_cfa_offset 0
	jr	ra
	.cfi_endproc
.LFE7:
	.size	xStreamBufferSpacesAvailable, .-xStreamBufferSpacesAvailable
	.section	.text.xStreamBufferBytesAvailable,"ax",@progbits
	.align	1
	.globl	xStreamBufferBytesAvailable
	.type	xStreamBufferBytesAvailable, @function
xStreamBufferBytesAvailable:
.LFB8:
	.loc 1 502 1
	.cfi_startproc
	addi	sp,sp,-48
	.cfi_def_cfa_offset 48
	sw	ra,44(sp)
	sw	s0,40(sp)
	.cfi_offset 1, -4
	.cfi_offset 8, -8
	addi	s0,sp,48
	.cfi_def_cfa 8, 0
	sw	a0,-36(s0)
	.loc 1 503 30
	lw	a5,-36(s0)
	sw	a5,-20(s0)
	.loc 1 506 4
	lw	a5,-20(s0)
	bne	a5,zero,.L42
	.loc 1 506 32 discriminator 1
	call	vAssertCalled
.L42:
	.loc 1 508 12
	lw	a0,-20(s0)
	call	prvBytesInBuffer
	sw	a0,-24(s0)
	.loc 1 509 9
	lw	a5,-24(s0)
	.loc 1 510 1
	mv	a0,a5
	lw	ra,44(sp)
	.cfi_restore 1
	lw	s0,40(sp)
	.cfi_restore 8
	.cfi_def_cfa 2, 48
	addi	sp,sp,48
	.cfi_def_cfa_offset 0
	jr	ra
	.cfi_endproc
.LFE8:
	.size	xStreamBufferBytesAvailable, .-xStreamBufferBytesAvailable
	.section	.text.xStreamBufferSend,"ax",@progbits
	.align	1
	.globl	xStreamBufferSend
	.type	xStreamBufferSend, @function
xStreamBufferSend:
.LFB9:
	.loc 1 517 1
	.cfi_startproc
	addi	sp,sp,-64
	.cfi_def_cfa_offset 64
	sw	ra,60(sp)
	sw	s0,56(sp)
	.cfi_offset 1, -4
	.cfi_offset 8, -8
	addi	s0,sp,64
	.cfi_def_cfa 8, 0
	sw	a0,-52(s0)
	sw	a1,-56(s0)
	sw	a2,-60(s0)
	sw	a3,-64(s0)
	.loc 1 518 24
	lw	a5,-52(s0)
	sw	a5,-28(s0)
	.loc 1 519 17
	sw	zero,-20(s0)
	.loc 1 520 8
	lw	a5,-60(s0)
	sw	a5,-24(s0)
	.loc 1 523 4
	lw	a5,-56(s0)
	bne	a5,zero,.L45
	.loc 1 523 26 discriminator 1
	call	vAssertCalled
.L45:
	.loc 1 524 4
	lw	a5,-28(s0)
	bne	a5,zero,.L46
	.loc 1 524 32 discriminator 1
	call	vAssertCalled
.L46:
	.loc 1 530 22
	lw	a5,-28(s0)
	lbu	a5,28(a5)
	.loc 1 530 32
	andi	a5,a5,1
	.loc 1 530 4
	beq	a5,zero,.L47
	.loc 1 532 18
	lw	a5,-24(s0)
	addi	a5,a5,4
	sw	a5,-24(s0)
	.loc 1 535 5
	lw	a4,-24(s0)
	lw	a5,-60(s0)
	bgtu	a4,a5,.L47
	.loc 1 535 52 discriminator 1
	call	vAssertCalled
.L47:
	.loc 1 542 19
	lw	a5,-64(s0)
	.loc 1 542 4
	beq	a5,zero,.L48
	.loc 1 544 3
	addi	a5,s0,-40
	mv	a0,a5
	call	vTaskSetTimeOutState
.L53:
	.loc 1 550 4
	call	vTaskEnterCritical
	.loc 1 552 14
	lw	a0,-28(s0)
	call	xStreamBufferSpacesAvailable
	sw	a0,-20(s0)
	.loc 1 554 7
	lw	a4,-20(s0)
	lw	a5,-24(s0)
	bgeu	a4,a5,.L49
	.loc 1 557 15
	li	a0,0
	call	xTaskNotifyStateClear
	.loc 1 560 26
	lw	a5,-28(s0)
	lw	a5,20(a5)
	.loc 1 560 8
	beq	a5,zero,.L50
	.loc 1 560 14 discriminator 1
	call	vAssertCalled
.L50:
	.loc 1 561 43
	call	xTaskGetCurrentTaskHandle
	mv	a4,a0
	.loc 1 561 41 discriminator 1
	lw	a5,-28(s0)
	sw	a4,20(a5)
	j	.L58
.L49:
	.loc 1 565 6
	call	vTaskExitCritical
	.loc 1 566 6
	j	.L48
.L58:
	.loc 1 569 4
	call	vTaskExitCritical
	.loc 1 572 4
	lw	a5,-64(s0)
	.loc 1 572 13
	mv	a3,a5
	li	a2,0
	li	a1,0
	li	a0,0
	call	xTaskNotifyWait
	.loc 1 573 39
	lw	a5,-28(s0)
	sw	zero,20(a5)
	.loc 1 575 12
	addi	a4,s0,-64
	addi	a5,s0,-40
	mv	a1,a4
	mv	a0,a5
	call	xTaskCheckForTimeOut
	mv	a5,a0
	.loc 1 575 61 discriminator 1
	beq	a5,zero,.L53
.L48:
	.loc 1 582 4
	lw	a5,-20(s0)
	bne	a5,zero,.L54
	.loc 1 584 12
	lw	a0,-28(s0)
	call	xStreamBufferSpacesAvailable
	sw	a0,-20(s0)
.L54:
	.loc 1 591 12
	lw	a4,-24(s0)
	lw	a3,-20(s0)
	lw	a2,-60(s0)
	lw	a1,-56(s0)
	lw	a0,-28(s0)
	call	prvWriteMessageToBuffer
	sw	a0,-32(s0)
	.loc 1 593 4
	lw	a5,-32(s0)
	beq	a5,zero,.L55
	.loc 1 598 7
	lw	a0,-28(s0)
	call	prvBytesInBuffer
	mv	a4,a0
	.loc 1 598 59 discriminator 1
	lw	a5,-28(s0)
	lw	a5,12(a5)
	.loc 1 598 5 discriminator 1
	bltu	a4,a5,.L55
	.loc 1 600 4
	call	vTaskSuspendAll
	.loc 1 600 47 discriminator 1
	lw	a5,-28(s0)
	lw	a5,16(a5)
	.loc 1 600 27 discriminator 1
	beq	a5,zero,.L56
	.loc 1 600 56 discriminator 2
	lw	a5,-28(s0)
	lw	a5,16(a5)
	.loc 1 600 16 discriminator 2
	li	a3,0
	li	a2,0
	li	a1,0
	mv	a0,a5
	call	xTaskGenericNotify
	.loc 1 600 48 discriminator 4
	lw	a5,-28(s0)
	sw	zero,16(a5)
.L56:
	.loc 1 600 18 discriminator 5
	call	xTaskResumeAll
.L55:
	.loc 1 613 9
	lw	a5,-32(s0)
	.loc 1 614 1
	mv	a0,a5
	lw	ra,60(sp)
	.cfi_restore 1
	lw	s0,56(sp)
	.cfi_restore 8
	.cfi_def_cfa 2, 64
	addi	sp,sp,64
	.cfi_def_cfa_offset 0
	jr	ra
	.cfi_endproc
.LFE9:
	.size	xStreamBufferSend, .-xStreamBufferSend
	.section	.text.xStreamBufferSendFromISR,"ax",@progbits
	.align	1
	.globl	xStreamBufferSendFromISR
	.type	xStreamBufferSendFromISR, @function
xStreamBufferSendFromISR:
.LFB10:
	.loc 1 621 1
	.cfi_startproc
	addi	sp,sp,-64
	.cfi_def_cfa_offset 64
	sw	ra,60(sp)
	sw	s0,56(sp)
	.cfi_offset 1, -4
	.cfi_offset 8, -8
	addi	s0,sp,64
	.cfi_def_cfa 8, 0
	sw	a0,-52(s0)
	sw	a1,-56(s0)
	sw	a2,-60(s0)
	sw	a3,-64(s0)
	.loc 1 622 24
	lw	a5,-52(s0)
	sw	a5,-24(s0)
	.loc 1 624 8
	lw	a5,-60(s0)
	sw	a5,-20(s0)
	.loc 1 626 4
	lw	a5,-56(s0)
	bne	a5,zero,.L60
	.loc 1 626 26 discriminator 1
	call	vAssertCalled
.L60:
	.loc 1 627 4
	lw	a5,-24(s0)
	bne	a5,zero,.L61
	.loc 1 627 32 discriminator 1
	call	vAssertCalled
.L61:
	.loc 1 633 22
	lw	a5,-24(s0)
	lbu	a5,28(a5)
	.loc 1 633 32
	andi	a5,a5,1
	.loc 1 633 4
	beq	a5,zero,.L62
	.loc 1 635 18
	lw	a5,-20(s0)
	addi	a5,a5,4
	sw	a5,-20(s0)
.L62:
	.loc 1 642 11
	lw	a0,-24(s0)
	call	xStreamBufferSpacesAvailable
	sw	a0,-28(s0)
	.loc 1 643 12
	lw	a4,-20(s0)
	lw	a3,-28(s0)
	lw	a2,-60(s0)
	lw	a1,-56(s0)
	lw	a0,-24(s0)
	call	prvWriteMessageToBuffer
	sw	a0,-32(s0)
	.loc 1 645 4
	lw	a5,-32(s0)
	beq	a5,zero,.L63
	.loc 1 648 7
	lw	a0,-24(s0)
	call	prvBytesInBuffer
	mv	a4,a0
	.loc 1 648 59 discriminator 1
	lw	a5,-24(s0)
	lw	a5,12(a5)
	.loc 1 648 5 discriminator 1
	bltu	a4,a5,.L63
.LBB3:
	.loc 1 650 65
	sw	zero,-36(s0)
	.loc 1 650 110
	lw	a5,-24(s0)
	lw	a5,16(a5)
	.loc 1 650 90
	beq	a5,zero,.L63
	.loc 1 650 63 discriminator 1
	lw	a5,-24(s0)
	lw	a5,16(a5)
	.loc 1 650 16 discriminator 1
	lw	a4,-64(s0)
	li	a3,0
	li	a2,0
	li	a1,0
	mv	a0,a5
	call	xTaskGenericNotifyFromISR
	.loc 1 650 80 discriminator 2
	lw	a5,-24(s0)
	sw	zero,16(a5)
.L63:
.LBE3:
	.loc 1 664 9
	lw	a5,-32(s0)
	.loc 1 665 1
	mv	a0,a5
	lw	ra,60(sp)
	.cfi_restore 1
	lw	s0,56(sp)
	.cfi_restore 8
	.cfi_def_cfa 2, 64
	addi	sp,sp,64
	.cfi_def_cfa_offset 0
	jr	ra
	.cfi_endproc
.LFE10:
	.size	xStreamBufferSendFromISR, .-xStreamBufferSendFromISR
	.section	.text.prvWriteMessageToBuffer,"ax",@progbits
	.align	1
	.type	prvWriteMessageToBuffer, @function
prvWriteMessageToBuffer:
.LFB11:
	.loc 1 673 1
	.cfi_startproc
	addi	sp,sp,-64
	.cfi_def_cfa_offset 64
	sw	ra,60(sp)
	sw	s0,56(sp)
	.cfi_offset 1, -4
	.cfi_offset 8, -8
	addi	s0,sp,64
	.cfi_def_cfa 8, 0
	sw	a0,-36(s0)
	sw	a1,-40(s0)
	sw	a2,-44(s0)
	sw	a3,-48(s0)
	sw	a4,-52(s0)
	.loc 1 677 4
	lw	a5,-48(s0)
	bne	a5,zero,.L66
	.loc 1 681 16
	sw	zero,-20(s0)
	j	.L67
.L66:
	.loc 1 683 27
	lw	a5,-36(s0)
	lbu	a5,28(a5)
	.loc 1 683 37
	andi	a5,a5,1
	.loc 1 683 9
	bne	a5,zero,.L68
	.loc 1 688 16
	li	a5,1
	sw	a5,-20(s0)
	.loc 1 689 85
	lw	a4,-44(s0)
	lw	a5,-48(s0)
	bleu	a5,a4,.L69
	mv	a5,a4
.L69:
	.loc 1 689 20
	sw	a5,-44(s0)
	j	.L67
.L68:
	.loc 1 691 9
	lw	a4,-48(s0)
	lw	a5,-52(s0)
	bltu	a4,a5,.L70
	.loc 1 697 16
	li	a5,1
	sw	a5,-20(s0)
	.loc 1 698 12
	addi	a5,s0,-44
	li	a2,4
	mv	a1,a5
	lw	a0,-36(s0)
	call	prvWriteBytesToBuffer
	j	.L67
.L70:
	.loc 1 703 16
	sw	zero,-20(s0)
.L67:
	.loc 1 706 4
	lw	a5,-20(s0)
	beq	a5,zero,.L71
	.loc 1 709 13
	lw	a5,-44(s0)
	mv	a2,a5
	lw	a1,-40(s0)
	lw	a0,-36(s0)
	call	prvWriteBytesToBuffer
	sw	a0,-24(s0)
	j	.L72
.L71:
	.loc 1 713 11
	sw	zero,-24(s0)
.L72:
	.loc 1 716 9
	lw	a5,-24(s0)
	.loc 1 717 1
	mv	a0,a5
	lw	ra,60(sp)
	.cfi_restore 1
	lw	s0,56(sp)
	.cfi_restore 8
	.cfi_def_cfa 2, 64
	addi	sp,sp,64
	.cfi_def_cfa_offset 0
	jr	ra
	.cfi_endproc
.LFE11:
	.size	prvWriteMessageToBuffer, .-prvWriteMessageToBuffer
	.section	.text.xStreamBufferReceive,"ax",@progbits
	.align	1
	.globl	xStreamBufferReceive
	.type	xStreamBufferReceive, @function
xStreamBufferReceive:
.LFB12:
	.loc 1 724 1
	.cfi_startproc
	addi	sp,sp,-48
	.cfi_def_cfa_offset 48
	sw	ra,44(sp)
	sw	s0,40(sp)
	.cfi_offset 1, -4
	.cfi_offset 8, -8
	addi	s0,sp,48
	.cfi_def_cfa 8, 0
	sw	a0,-36(s0)
	sw	a1,-40(s0)
	sw	a2,-44(s0)
	sw	a3,-48(s0)
	.loc 1 725 24
	lw	a5,-36(s0)
	sw	a5,-32(s0)
	.loc 1 726 8
	sw	zero,-20(s0)
	.loc 1 728 4
	lw	a5,-40(s0)
	bne	a5,zero,.L75
	.loc 1 728 26 discriminator 1
	call	vAssertCalled
.L75:
	.loc 1 729 4
	lw	a5,-32(s0)
	bne	a5,zero,.L76
	.loc 1 729 32 discriminator 1
	call	vAssertCalled
.L76:
	.loc 1 736 22
	lw	a5,-32(s0)
	lbu	a5,28(a5)
	.loc 1 736 32
	andi	a5,a5,1
	.loc 1 736 4
	beq	a5,zero,.L77
	.loc 1 738 30
	li	a5,4
	sw	a5,-28(s0)
	j	.L78
.L77:
	.loc 1 742 30
	sw	zero,-28(s0)
.L78:
	.loc 1 745 4
	lw	a5,-48(s0)
	beq	a5,zero,.L79
	.loc 1 749 3
	call	vTaskEnterCritical
	.loc 1 751 22
	lw	a0,-32(s0)
	call	prvBytesInBuffer
	sw	a0,-24(s0)
	.loc 1 758 6
	lw	a4,-24(s0)
	lw	a5,-28(s0)
	bgtu	a4,a5,.L80
	.loc 1 761 14
	li	a0,0
	call	xTaskNotifyStateClear
	.loc 1 764 25
	lw	a5,-32(s0)
	lw	a5,16(a5)
	.loc 1 764 7
	beq	a5,zero,.L81
	.loc 1 764 13 discriminator 1
	call	vAssertCalled
.L81:
	.loc 1 765 45
	call	xTaskGetCurrentTaskHandle
	mv	a4,a0
	.loc 1 765 43 discriminator 1
	lw	a5,-32(s0)
	sw	a4,16(a5)
.L80:
	.loc 1 772 3
	call	vTaskExitCritical
	.loc 1 774 5
	lw	a4,-24(s0)
	lw	a5,-28(s0)
	bgtu	a4,a5,.L82
	.loc 1 778 13
	lw	a3,-48(s0)
	li	a2,0
	li	a1,0
	li	a0,0
	call	xTaskNotifyWait
	.loc 1 779 42
	lw	a5,-32(s0)
	sw	zero,16(a5)
	.loc 1 782 22
	lw	a0,-32(s0)
	call	prvBytesInBuffer
	sw	a0,-24(s0)
	j	.L82
.L79:
	.loc 1 791 21
	lw	a0,-32(s0)
	call	prvBytesInBuffer
	sw	a0,-24(s0)
.L82:
	.loc 1 799 4
	lw	a4,-24(s0)
	lw	a5,-28(s0)
	bleu	a4,a5,.L83
	.loc 1 801 21
	lw	a4,-28(s0)
	lw	a3,-24(s0)
	lw	a2,-44(s0)
	lw	a1,-40(s0)
	lw	a0,-32(s0)
	call	prvReadMessageFromBuffer
	sw	a0,-20(s0)
	.loc 1 804 5
	lw	a5,-20(s0)
	beq	a5,zero,.L83
	.loc 1 807 4
	call	vTaskSuspendAll
	.loc 1 807 47 discriminator 1
	lw	a5,-32(s0)
	lw	a5,20(a5)
	.loc 1 807 27 discriminator 1
	beq	a5,zero,.L84
	.loc 1 807 56 discriminator 2
	lw	a5,-32(s0)
	lw	a5,20(a5)
	.loc 1 807 16 discriminator 2
	li	a3,0
	li	a2,0
	li	a1,0
	mv	a0,a5
	call	xTaskGenericNotify
	.loc 1 807 45 discriminator 4
	lw	a5,-32(s0)
	sw	zero,20(a5)
.L84:
	.loc 1 807 18 discriminator 5
	call	xTaskResumeAll
.L83:
	.loc 1 820 9
	lw	a5,-20(s0)
	.loc 1 821 1
	mv	a0,a5
	lw	ra,44(sp)
	.cfi_restore 1
	lw	s0,40(sp)
	.cfi_restore 8
	.cfi_def_cfa 2, 48
	addi	sp,sp,48
	.cfi_def_cfa_offset 0
	jr	ra
	.cfi_endproc
.LFE12:
	.size	xStreamBufferReceive, .-xStreamBufferReceive
	.section	.text.xStreamBufferNextMessageLengthBytes,"ax",@progbits
	.align	1
	.globl	xStreamBufferNextMessageLengthBytes
	.type	xStreamBufferNextMessageLengthBytes, @function
xStreamBufferNextMessageLengthBytes:
.LFB13:
	.loc 1 825 1
	.cfi_startproc
	addi	sp,sp,-64
	.cfi_def_cfa_offset 64
	sw	ra,60(sp)
	sw	s0,56(sp)
	.cfi_offset 1, -4
	.cfi_offset 8, -8
	addi	s0,sp,64
	.cfi_def_cfa 8, 0
	sw	a0,-52(s0)
	.loc 1 826 24
	lw	a5,-52(s0)
	sw	a5,-24(s0)
	.loc 1 830 4
	lw	a5,-24(s0)
	bne	a5,zero,.L87
	.loc 1 830 32 discriminator 1
	call	vAssertCalled
.L87:
	.loc 1 833 22
	lw	a5,-24(s0)
	lbu	a5,28(a5)
	.loc 1 833 32
	andi	a5,a5,1
	.loc 1 833 4
	beq	a5,zero,.L88
	.loc 1 835 21
	lw	a0,-24(s0)
	call	prvBytesInBuffer
	sw	a0,-28(s0)
	.loc 1 836 5
	lw	a4,-28(s0)
	li	a5,4
	bleu	a4,a5,.L89
	.loc 1 844 18
	lw	a5,-24(s0)
	lw	a5,0(a5)
	sw	a5,-32(s0)
	.loc 1 845 13
	addi	a5,s0,-36
	lw	a3,-28(s0)
	li	a2,4
	mv	a1,a5
	lw	a0,-24(s0)
	call	prvReadBytesFromBuffer
	.loc 1 846 12
	lw	a5,-36(s0)
	sw	a5,-20(s0)
	.loc 1 847 26
	lw	a5,-24(s0)
	lw	a4,-32(s0)
	sw	a4,0(a5)
	j	.L90
.L89:
	.loc 1 855 6
	lw	a5,-28(s0)
	beq	a5,zero,.L91
	.loc 1 855 40 discriminator 1
	call	vAssertCalled
.L91:
	.loc 1 856 12
	sw	zero,-20(s0)
	j	.L90
.L88:
	.loc 1 861 11
	sw	zero,-20(s0)
.L90:
	.loc 1 864 9
	lw	a5,-20(s0)
	.loc 1 865 1
	mv	a0,a5
	lw	ra,60(sp)
	.cfi_restore 1
	lw	s0,56(sp)
	.cfi_restore 8
	.cfi_def_cfa 2, 64
	addi	sp,sp,64
	.cfi_def_cfa_offset 0
	jr	ra
	.cfi_endproc
.LFE13:
	.size	xStreamBufferNextMessageLengthBytes, .-xStreamBufferNextMessageLengthBytes
	.section	.text.xStreamBufferReceiveFromISR,"ax",@progbits
	.align	1
	.globl	xStreamBufferReceiveFromISR
	.type	xStreamBufferReceiveFromISR, @function
xStreamBufferReceiveFromISR:
.LFB14:
	.loc 1 872 1
	.cfi_startproc
	addi	sp,sp,-64
	.cfi_def_cfa_offset 64
	sw	ra,60(sp)
	sw	s0,56(sp)
	.cfi_offset 1, -4
	.cfi_offset 8, -8
	addi	s0,sp,64
	.cfi_def_cfa 8, 0
	sw	a0,-52(s0)
	sw	a1,-56(s0)
	sw	a2,-60(s0)
	sw	a3,-64(s0)
	.loc 1 873 24
	lw	a5,-52(s0)
	sw	a5,-28(s0)
	.loc 1 874 8
	sw	zero,-20(s0)
	.loc 1 876 4
	lw	a5,-56(s0)
	bne	a5,zero,.L94
	.loc 1 876 26 discriminator 1
	call	vAssertCalled
.L94:
	.loc 1 877 4
	lw	a5,-28(s0)
	bne	a5,zero,.L95
	.loc 1 877 32 discriminator 1
	call	vAssertCalled
.L95:
	.loc 1 884 22
	lw	a5,-28(s0)
	lbu	a5,28(a5)
	.loc 1 884 32
	andi	a5,a5,1
	.loc 1 884 4
	beq	a5,zero,.L96
	.loc 1 886 30
	li	a5,4
	sw	a5,-24(s0)
	j	.L97
.L96:
	.loc 1 890 30
	sw	zero,-24(s0)
.L97:
	.loc 1 893 20
	lw	a0,-28(s0)
	call	prvBytesInBuffer
	sw	a0,-32(s0)
	.loc 1 900 4
	lw	a4,-32(s0)
	lw	a5,-24(s0)
	bleu	a4,a5,.L98
	.loc 1 902 21
	lw	a4,-24(s0)
	lw	a3,-32(s0)
	lw	a2,-60(s0)
	lw	a1,-56(s0)
	lw	a0,-28(s0)
	call	prvReadMessageFromBuffer
	sw	a0,-20(s0)
	.loc 1 905 5
	lw	a5,-20(s0)
	beq	a5,zero,.L98
.LBB4:
	.loc 1 907 65
	sw	zero,-36(s0)
	.loc 1 907 110
	lw	a5,-28(s0)
	lw	a5,20(a5)
	.loc 1 907 90
	beq	a5,zero,.L98
	.loc 1 907 63 discriminator 1
	lw	a5,-28(s0)
	lw	a5,20(a5)
	.loc 1 907 16 discriminator 1
	lw	a4,-64(s0)
	li	a3,0
	li	a2,0
	li	a1,0
	mv	a0,a5
	call	xTaskGenericNotifyFromISR
	.loc 1 907 77 discriminator 2
	lw	a5,-28(s0)
	sw	zero,20(a5)
.L98:
.LBE4:
	.loc 1 921 9
	lw	a5,-20(s0)
	.loc 1 922 1
	mv	a0,a5
	lw	ra,60(sp)
	.cfi_restore 1
	lw	s0,56(sp)
	.cfi_restore 8
	.cfi_def_cfa 2, 64
	addi	sp,sp,64
	.cfi_def_cfa_offset 0
	jr	ra
	.cfi_endproc
.LFE14:
	.size	xStreamBufferReceiveFromISR, .-xStreamBufferReceiveFromISR
	.section	.text.prvReadMessageFromBuffer,"ax",@progbits
	.align	1
	.type	prvReadMessageFromBuffer, @function
prvReadMessageFromBuffer:
.LFB15:
	.loc 1 930 1
	.cfi_startproc
	addi	sp,sp,-64
	.cfi_def_cfa_offset 64
	sw	ra,60(sp)
	sw	s0,56(sp)
	.cfi_offset 1, -4
	.cfi_offset 8, -8
	addi	s0,sp,64
	.cfi_def_cfa 8, 0
	sw	a0,-36(s0)
	sw	a1,-40(s0)
	sw	a2,-44(s0)
	sw	a3,-48(s0)
	sw	a4,-52(s0)
	.loc 1 934 4
	lw	a5,-52(s0)
	beq	a5,zero,.L101
	.loc 1 940 17
	lw	a5,-36(s0)
	lw	a5,0(a5)
	sw	a5,-24(s0)
	.loc 1 941 12
	addi	a5,s0,-32
	lw	a3,-48(s0)
	lw	a2,-52(s0)
	mv	a1,a5
	lw	a0,-36(s0)
	call	prvReadBytesFromBuffer
	.loc 1 942 22
	lw	a5,-32(s0)
	sw	a5,-20(s0)
	.loc 1 946 19
	lw	a4,-48(s0)
	lw	a5,-52(s0)
	sub	a5,a4,a5
	sw	a5,-48(s0)
	.loc 1 950 5
	lw	a4,-20(s0)
	lw	a5,-44(s0)
	bleu	a4,a5,.L102
	.loc 1 955 26
	lw	a5,-36(s0)
	lw	a4,-24(s0)
	sw	a4,0(a5)
	.loc 1 956 23
	sw	zero,-20(s0)
	j	.L102
.L101:
	.loc 1 967 22
	lw	a5,-44(s0)
	sw	a5,-20(s0)
.L102:
	.loc 1 971 20
	lw	a3,-48(s0)
	lw	a2,-20(s0)
	lw	a1,-40(s0)
	lw	a0,-36(s0)
	call	prvReadBytesFromBuffer
	sw	a0,-28(s0)
	.loc 1 973 9
	lw	a5,-28(s0)
	.loc 1 974 1
	mv	a0,a5
	lw	ra,60(sp)
	.cfi_restore 1
	lw	s0,56(sp)
	.cfi_restore 8
	.cfi_def_cfa 2, 64
	addi	sp,sp,64
	.cfi_def_cfa_offset 0
	jr	ra
	.cfi_endproc
.LFE15:
	.size	prvReadMessageFromBuffer, .-prvReadMessageFromBuffer
	.section	.text.xStreamBufferIsEmpty,"ax",@progbits
	.align	1
	.globl	xStreamBufferIsEmpty
	.type	xStreamBufferIsEmpty, @function
xStreamBufferIsEmpty:
.LFB16:
	.loc 1 978 1
	.cfi_startproc
	addi	sp,sp,-48
	.cfi_def_cfa_offset 48
	sw	ra,44(sp)
	sw	s0,40(sp)
	.cfi_offset 1, -4
	.cfi_offset 8, -8
	addi	s0,sp,48
	.cfi_def_cfa 8, 0
	sw	a0,-36(s0)
	.loc 1 979 30
	lw	a5,-36(s0)
	sw	a5,-24(s0)
	.loc 1 983 4
	lw	a5,-24(s0)
	bne	a5,zero,.L105
	.loc 1 983 32 discriminator 1
	call	vAssertCalled
.L105:
	.loc 1 986 8
	lw	a5,-24(s0)
	lw	a5,0(a5)
	sw	a5,-28(s0)
	.loc 1 987 20
	lw	a5,-24(s0)
	lw	a5,4(a5)
	.loc 1 987 4
	lw	a4,-28(s0)
	bne	a4,a5,.L106
	.loc 1 989 11
	li	a5,1
	sw	a5,-20(s0)
	j	.L107
.L106:
	.loc 1 993 11
	sw	zero,-20(s0)
.L107:
	.loc 1 996 9
	lw	a5,-20(s0)
	.loc 1 997 1
	mv	a0,a5
	lw	ra,44(sp)
	.cfi_restore 1
	lw	s0,40(sp)
	.cfi_restore 8
	.cfi_def_cfa 2, 48
	addi	sp,sp,48
	.cfi_def_cfa_offset 0
	jr	ra
	.cfi_endproc
.LFE16:
	.size	xStreamBufferIsEmpty, .-xStreamBufferIsEmpty
	.section	.text.xStreamBufferIsFull,"ax",@progbits
	.align	1
	.globl	xStreamBufferIsFull
	.type	xStreamBufferIsFull, @function
xStreamBufferIsFull:
.LFB17:
	.loc 1 1001 1
	.cfi_startproc
	addi	sp,sp,-48
	.cfi_def_cfa_offset 48
	sw	ra,44(sp)
	sw	s0,40(sp)
	.cfi_offset 1, -4
	.cfi_offset 8, -8
	addi	s0,sp,48
	.cfi_def_cfa 8, 0
	sw	a0,-36(s0)
	.loc 1 1004 30
	lw	a5,-36(s0)
	sw	a5,-28(s0)
	.loc 1 1006 4
	lw	a5,-28(s0)
	bne	a5,zero,.L110
	.loc 1 1006 32 discriminator 1
	call	vAssertCalled
.L110:
	.loc 1 1012 22
	lw	a5,-28(s0)
	lbu	a5,28(a5)
	.loc 1 1012 32
	andi	a5,a5,1
	.loc 1 1012 4
	beq	a5,zero,.L111
	.loc 1 1014 30
	li	a5,4
	sw	a5,-24(s0)
	j	.L112
.L111:
	.loc 1 1018 30
	sw	zero,-24(s0)
.L112:
	.loc 1 1022 6
	lw	a0,-36(s0)
	call	xStreamBufferSpacesAvailable
	mv	a4,a0
	.loc 1 1022 4 discriminator 1
	lw	a5,-24(s0)
	bltu	a5,a4,.L113
	.loc 1 1024 11
	li	a5,1
	sw	a5,-20(s0)
	j	.L114
.L113:
	.loc 1 1028 11
	sw	zero,-20(s0)
.L114:
	.loc 1 1031 9
	lw	a5,-20(s0)
	.loc 1 1032 1
	mv	a0,a5
	lw	ra,44(sp)
	.cfi_restore 1
	lw	s0,40(sp)
	.cfi_restore 8
	.cfi_def_cfa 2, 48
	addi	sp,sp,48
	.cfi_def_cfa_offset 0
	jr	ra
	.cfi_endproc
.LFE17:
	.size	xStreamBufferIsFull, .-xStreamBufferIsFull
	.section	.text.xStreamBufferSendCompletedFromISR,"ax",@progbits
	.align	1
	.globl	xStreamBufferSendCompletedFromISR
	.type	xStreamBufferSendCompletedFromISR, @function
xStreamBufferSendCompletedFromISR:
.LFB18:
	.loc 1 1036 1
	.cfi_startproc
	addi	sp,sp,-48
	.cfi_def_cfa_offset 48
	sw	ra,44(sp)
	sw	s0,40(sp)
	.cfi_offset 1, -4
	.cfi_offset 8, -8
	addi	s0,sp,48
	.cfi_def_cfa 8, 0
	sw	a0,-36(s0)
	sw	a1,-40(s0)
	.loc 1 1037 24
	lw	a5,-36(s0)
	sw	a5,-24(s0)
	.loc 1 1041 4
	lw	a5,-24(s0)
	bne	a5,zero,.L117
	.loc 1 1041 32 discriminator 1
	call	vAssertCalled
.L117:
	.loc 1 1043 25
	sw	zero,-28(s0)
	.loc 1 1045 25
	lw	a5,-24(s0)
	lw	a5,16(a5)
	.loc 1 1045 5
	beq	a5,zero,.L118
	.loc 1 1047 60
	lw	a5,-24(s0)
	lw	a5,16(a5)
	.loc 1 1047 13
	lw	a4,-40(s0)
	li	a3,0
	li	a2,0
	li	a1,0
	mv	a0,a5
	call	xTaskGenericNotifyFromISR
	.loc 1 1051 46
	lw	a5,-24(s0)
	sw	zero,16(a5)
	.loc 1 1052 12
	li	a5,1
	sw	a5,-20(s0)
	j	.L119
.L118:
	.loc 1 1056 12
	sw	zero,-20(s0)
.L119:
	.loc 1 1061 9
	lw	a5,-20(s0)
	.loc 1 1062 1
	mv	a0,a5
	lw	ra,44(sp)
	.cfi_restore 1
	lw	s0,40(sp)
	.cfi_restore 8
	.cfi_def_cfa 2, 48
	addi	sp,sp,48
	.cfi_def_cfa_offset 0
	jr	ra
	.cfi_endproc
.LFE18:
	.size	xStreamBufferSendCompletedFromISR, .-xStreamBufferSendCompletedFromISR
	.section	.text.xStreamBufferReceiveCompletedFromISR,"ax",@progbits
	.align	1
	.globl	xStreamBufferReceiveCompletedFromISR
	.type	xStreamBufferReceiveCompletedFromISR, @function
xStreamBufferReceiveCompletedFromISR:
.LFB19:
	.loc 1 1066 1
	.cfi_startproc
	addi	sp,sp,-48
	.cfi_def_cfa_offset 48
	sw	ra,44(sp)
	sw	s0,40(sp)
	.cfi_offset 1, -4
	.cfi_offset 8, -8
	addi	s0,sp,48
	.cfi_def_cfa 8, 0
	sw	a0,-36(s0)
	sw	a1,-40(s0)
	.loc 1 1067 24
	lw	a5,-36(s0)
	sw	a5,-24(s0)
	.loc 1 1071 4
	lw	a5,-24(s0)
	bne	a5,zero,.L122
	.loc 1 1071 32 discriminator 1
	call	vAssertCalled
.L122:
	.loc 1 1073 25
	sw	zero,-28(s0)
	.loc 1 1075 25
	lw	a5,-24(s0)
	lw	a5,20(a5)
	.loc 1 1075 5
	beq	a5,zero,.L123
	.loc 1 1077 60
	lw	a5,-24(s0)
	lw	a5,20(a5)
	.loc 1 1077 13
	lw	a4,-40(s0)
	li	a3,0
	li	a2,0
	li	a1,0
	mv	a0,a5
	call	xTaskGenericNotifyFromISR
	.loc 1 1081 43
	lw	a5,-24(s0)
	sw	zero,20(a5)
	.loc 1 1082 12
	li	a5,1
	sw	a5,-20(s0)
	j	.L124
.L123:
	.loc 1 1086 12
	sw	zero,-20(s0)
.L124:
	.loc 1 1091 9
	lw	a5,-20(s0)
	.loc 1 1092 1
	mv	a0,a5
	lw	ra,44(sp)
	.cfi_restore 1
	lw	s0,40(sp)
	.cfi_restore 8
	.cfi_def_cfa 2, 48
	addi	sp,sp,48
	.cfi_def_cfa_offset 0
	jr	ra
	.cfi_endproc
.LFE19:
	.size	xStreamBufferReceiveCompletedFromISR, .-xStreamBufferReceiveCompletedFromISR
	.section	.text.prvWriteBytesToBuffer,"ax",@progbits
	.align	1
	.type	prvWriteBytesToBuffer, @function
prvWriteBytesToBuffer:
.LFB20:
	.loc 1 1096 1
	.cfi_startproc
	addi	sp,sp,-48
	.cfi_def_cfa_offset 48
	sw	ra,44(sp)
	sw	s0,40(sp)
	.cfi_offset 1, -4
	.cfi_offset 8, -8
	addi	s0,sp,48
	.cfi_def_cfa 8, 0
	sw	a0,-36(s0)
	sw	a1,-40(s0)
	sw	a2,-44(s0)
	.loc 1 1099 4
	lw	a5,-44(s0)
	bne	a5,zero,.L127
	.loc 1 1099 39 discriminator 1
	call	vAssertCalled
.L127:
	.loc 1 1101 12
	lw	a5,-36(s0)
	lw	a5,4(a5)
	sw	a5,-20(s0)
	.loc 1 1106 37
	lw	a5,-36(s0)
	lw	a4,8(a5)
	.loc 1 1106 47
	lw	a5,-20(s0)
	sub	a4,a4,a5
	.loc 1 1106 15
	lw	a5,-44(s0)
	bleu	a5,a4,.L128
	mv	a5,a4
.L128:
	sw	a5,-24(s0)
	.loc 1 1109 20
	lw	a4,-20(s0)
	lw	a5,-24(s0)
	add	a4,a4,a5
	.loc 1 1109 54
	lw	a5,-36(s0)
	lw	a5,8(a5)
	.loc 1 1109 4
	bleu	a4,a5,.L129
	.loc 1 1109 73 discriminator 1
	call	vAssertCalled
.L129:
	.loc 1 1110 48
	lw	a5,-36(s0)
	lw	a4,24(a5)
	.loc 1 1110 31
	lw	a5,-20(s0)
	add	a5,a4,a5
	.loc 1 1110 11
	lw	a2,-24(s0)
	lw	a1,-40(s0)
	mv	a0,a5
	call	memcpy
	.loc 1 1114 4
	lw	a4,-44(s0)
	lw	a5,-24(s0)
	bleu	a4,a5,.L130
	.loc 1 1117 18
	lw	a4,-44(s0)
	lw	a5,-24(s0)
	sub	a4,a4,a5
	.loc 1 1117 52
	lw	a5,-36(s0)
	lw	a5,8(a5)
	.loc 1 1117 5
	bleu	a4,a5,.L131
	.loc 1 1117 71 discriminator 1
	call	vAssertCalled
.L131:
	.loc 1 1118 45
	lw	a5,-36(s0)
	lw	a3,24(a5)
	.loc 1 1118 75
	lw	a4,-40(s0)
	lw	a5,-24(s0)
	add	a1,a4,a5
	.loc 1 1118 12
	lw	a4,-44(s0)
	lw	a5,-24(s0)
	sub	a5,a4,a5
	mv	a2,a5
	mv	a0,a3
	call	memcpy
.L130:
	.loc 1 1125 12
	lw	a4,-20(s0)
	lw	a5,-44(s0)
	add	a5,a4,a5
	sw	a5,-20(s0)
	.loc 1 1126 33
	lw	a5,-36(s0)
	lw	a5,8(a5)
	.loc 1 1126 4
	lw	a4,-20(s0)
	bltu	a4,a5,.L132
	.loc 1 1128 30
	lw	a5,-36(s0)
	lw	a5,8(a5)
	.loc 1 1128 13
	lw	a4,-20(s0)
	sub	a5,a4,a5
	sw	a5,-20(s0)
.L132:
	.loc 1 1135 24
	lw	a5,-36(s0)
	lw	a4,-20(s0)
	sw	a4,4(a5)
	.loc 1 1137 9
	lw	a5,-44(s0)
	.loc 1 1138 1
	mv	a0,a5
	lw	ra,44(sp)
	.cfi_restore 1
	lw	s0,40(sp)
	.cfi_restore 8
	.cfi_def_cfa 2, 48
	addi	sp,sp,48
	.cfi_def_cfa_offset 0
	jr	ra
	.cfi_endproc
.LFE20:
	.size	prvWriteBytesToBuffer, .-prvWriteBytesToBuffer
	.section	.text.prvReadBytesFromBuffer,"ax",@progbits
	.align	1
	.type	prvReadBytesFromBuffer, @function
prvReadBytesFromBuffer:
.LFB21:
	.loc 1 1142 1
	.cfi_startproc
	addi	sp,sp,-48
	.cfi_def_cfa_offset 48
	sw	ra,44(sp)
	sw	s0,40(sp)
	.cfi_offset 1, -4
	.cfi_offset 8, -8
	addi	s0,sp,48
	.cfi_def_cfa 8, 0
	sw	a0,-36(s0)
	sw	a1,-40(s0)
	sw	a2,-44(s0)
	sw	a3,-48(s0)
	.loc 1 1146 9
	lw	a4,-48(s0)
	lw	a5,-44(s0)
	bleu	a5,a4,.L135
	mv	a5,a4
.L135:
	sw	a5,-24(s0)
	.loc 1 1148 4
	lw	a5,-24(s0)
	beq	a5,zero,.L136
	.loc 1 1150 13
	lw	a5,-36(s0)
	lw	a5,0(a5)
	sw	a5,-20(s0)
	.loc 1 1155 38
	lw	a5,-36(s0)
	lw	a4,8(a5)
	.loc 1 1155 48
	lw	a5,-20(s0)
	sub	a4,a4,a5
	.loc 1 1155 16
	lw	a5,-24(s0)
	bleu	a5,a4,.L137
	mv	a5,a4
.L137:
	sw	a5,-28(s0)
	.loc 1 1159 5
	lw	a4,-28(s0)
	lw	a5,-44(s0)
	bleu	a4,a5,.L138
	.loc 1 1159 44 discriminator 1
	call	vAssertCalled
.L138:
	.loc 1 1160 21
	lw	a4,-20(s0)
	lw	a5,-28(s0)
	add	a4,a4,a5
	.loc 1 1160 55
	lw	a5,-36(s0)
	lw	a5,8(a5)
	.loc 1 1160 5
	bleu	a4,a5,.L139
	.loc 1 1160 74 discriminator 1
	call	vAssertCalled
.L139:
	.loc 1 1161 74
	lw	a5,-36(s0)
	lw	a4,24(a5)
	.loc 1 1161 57
	lw	a5,-20(s0)
	add	a5,a4,a5
	.loc 1 1161 12
	lw	a2,-28(s0)
	mv	a1,a5
	lw	a0,-40(s0)
	call	memcpy
	.loc 1 1165 5
	lw	a4,-24(s0)
	lw	a5,-28(s0)
	bleu	a4,a5,.L140
	.loc 1 1168 6
	lw	a4,-24(s0)
	lw	a5,-44(s0)
	bleu	a4,a5,.L141
	.loc 1 1168 39 discriminator 1
	call	vAssertCalled
.L141:
	.loc 1 1169 32
	lw	a4,-40(s0)
	lw	a5,-28(s0)
	add	a3,a4,a5
	.loc 1 1169 89
	lw	a5,-36(s0)
	lw	a1,24(a5)
	.loc 1 1169 13
	lw	a4,-24(s0)
	lw	a5,-28(s0)
	sub	a5,a4,a5
	mv	a2,a5
	mv	a0,a3
	call	memcpy
.L140:
	.loc 1 1178 13
	lw	a4,-20(s0)
	lw	a5,-24(s0)
	add	a5,a4,a5
	sw	a5,-20(s0)
	.loc 1 1180 34
	lw	a5,-36(s0)
	lw	a5,8(a5)
	.loc 1 1180 5
	lw	a4,-20(s0)
	bltu	a4,a5,.L142
	.loc 1 1182 31
	lw	a5,-36(s0)
	lw	a5,8(a5)
	.loc 1 1182 14
	lw	a4,-20(s0)
	sub	a5,a4,a5
	sw	a5,-20(s0)
.L142:
	.loc 1 1185 25
	lw	a5,-36(s0)
	lw	a4,-20(s0)
	sw	a4,0(a5)
.L136:
	.loc 1 1192 9
	lw	a5,-24(s0)
	.loc 1 1193 1
	mv	a0,a5
	lw	ra,44(sp)
	.cfi_restore 1
	lw	s0,40(sp)
	.cfi_restore 8
	.cfi_def_cfa 2, 48
	addi	sp,sp,48
	.cfi_def_cfa_offset 0
	jr	ra
	.cfi_endproc
.LFE21:
	.size	prvReadBytesFromBuffer, .-prvReadBytesFromBuffer
	.section	.text.prvBytesInBuffer,"ax",@progbits
	.align	1
	.type	prvBytesInBuffer, @function
prvBytesInBuffer:
.LFB22:
	.loc 1 1197 1
	.cfi_startproc
	addi	sp,sp,-48
	.cfi_def_cfa_offset 48
	sw	ra,44(sp)
	sw	s0,40(sp)
	.cfi_offset 1, -4
	.cfi_offset 8, -8
	addi	s0,sp,48
	.cfi_def_cfa 8, 0
	sw	a0,-36(s0)
	.loc 1 1201 25
	lw	a5,-36(s0)
	lw	a4,8(a5)
	.loc 1 1201 51
	lw	a5,-36(s0)
	lw	a5,4(a5)
	.loc 1 1201 9
	add	a5,a4,a5
	sw	a5,-20(s0)
	.loc 1 1202 26
	lw	a5,-36(s0)
	lw	a5,0(a5)
	.loc 1 1202 9
	lw	a4,-20(s0)
	sub	a5,a4,a5
	sw	a5,-20(s0)
	.loc 1 1203 31
	lw	a5,-36(s0)
	lw	a5,8(a5)
	.loc 1 1203 5
	lw	a4,-20(s0)
	bltu	a4,a5,.L145
	.loc 1 1205 27
	lw	a5,-36(s0)
	lw	a5,8(a5)
	.loc 1 1205 10
	lw	a4,-20(s0)
	sub	a5,a4,a5
	sw	a5,-20(s0)
.L145:
	.loc 1 1212 9
	lw	a5,-20(s0)
	.loc 1 1213 1
	mv	a0,a5
	lw	ra,44(sp)
	.cfi_restore 1
	lw	s0,40(sp)
	.cfi_restore 8
	.cfi_def_cfa 2, 48
	addi	sp,sp,48
	.cfi_def_cfa_offset 0
	jr	ra
	.cfi_endproc
.LFE22:
	.size	prvBytesInBuffer, .-prvBytesInBuffer
	.section	.text.prvInitialiseNewStreamBuffer,"ax",@progbits
	.align	1
	.type	prvInitialiseNewStreamBuffer, @function
prvInitialiseNewStreamBuffer:
.LFB23:
	.loc 1 1221 1
	.cfi_startproc
	addi	sp,sp,-64
	.cfi_def_cfa_offset 64
	sw	ra,60(sp)
	sw	s0,56(sp)
	.cfi_offset 1, -4
	.cfi_offset 8, -8
	addi	s0,sp,64
	.cfi_def_cfa 8, 0
	sw	a0,-36(s0)
	sw	a1,-40(s0)
	sw	a2,-44(s0)
	sw	a3,-48(s0)
	mv	a5,a4
	sb	a5,-49(s0)
.LBB5:
	.loc 1 1230 20
	li	a5,85
	sw	a5,-20(s0)
	.loc 1 1231 9
	lw	a2,-44(s0)
	lw	a1,-20(s0)
	lw	a0,-40(s0)
	call	memset
	mv	a4,a0
	.loc 1 1231 5 discriminator 1
	lw	a5,-40(s0)
	beq	a5,a4,.L148
	.loc 1 1231 90 discriminator 2
	call	vAssertCalled
.L148:
.LBE5:
	.loc 1 1235 11
	li	a2,36
	li	a1,0
	lw	a0,-36(s0)
	call	memset
	.loc 1 1236 28
	lw	a5,-36(s0)
	lw	a4,-40(s0)
	sw	a4,24(a5)
	.loc 1 1237 26
	lw	a5,-36(s0)
	lw	a4,-44(s0)
	sw	a4,8(a5)
	.loc 1 1238 37
	lw	a5,-36(s0)
	lw	a4,-48(s0)
	sw	a4,12(a5)
	.loc 1 1239 26
	lw	a5,-36(s0)
	lbu	a4,-49(s0)
	sb	a4,28(a5)
	.loc 1 1240 1
	nop
	lw	ra,60(sp)
	.cfi_restore 1
	lw	s0,56(sp)
	.cfi_restore 8
	.cfi_def_cfa 2, 64
	addi	sp,sp,64
	.cfi_def_cfa_offset 0
	jr	ra
	.cfi_endproc
.LFE23:
	.size	prvInitialiseNewStreamBuffer, .-prvInitialiseNewStreamBuffer
	.section	.text.uxStreamBufferGetStreamBufferNumber,"ax",@progbits
	.align	1
	.globl	uxStreamBufferGetStreamBufferNumber
	.type	uxStreamBufferGetStreamBufferNumber, @function
uxStreamBufferGetStreamBufferNumber:
.LFB24:
	.loc 1 1245 2
	.cfi_startproc
	addi	sp,sp,-32
	.cfi_def_cfa_offset 32
	sw	ra,28(sp)
	sw	s0,24(sp)
	.cfi_offset 1, -4
	.cfi_offset 8, -8
	addi	s0,sp,32
	.cfi_def_cfa 8, 0
	sw	a0,-20(s0)
	.loc 1 1246 23
	lw	a5,-20(s0)
	lw	a5,32(a5)
	.loc 1 1247 2
	mv	a0,a5
	lw	ra,28(sp)
	.cfi_restore 1
	lw	s0,24(sp)
	.cfi_restore 8
	.cfi_def_cfa 2, 32
	addi	sp,sp,32
	.cfi_def_cfa_offset 0
	jr	ra
	.cfi_endproc
.LFE24:
	.size	uxStreamBufferGetStreamBufferNumber, .-uxStreamBufferGetStreamBufferNumber
	.section	.text.vStreamBufferSetStreamBufferNumber,"ax",@progbits
	.align	1
	.globl	vStreamBufferSetStreamBufferNumber
	.type	vStreamBufferSetStreamBufferNumber, @function
vStreamBufferSetStreamBufferNumber:
.LFB25:
	.loc 1 1255 2
	.cfi_startproc
	addi	sp,sp,-32
	.cfi_def_cfa_offset 32
	sw	ra,28(sp)
	sw	s0,24(sp)
	.cfi_offset 1, -4
	.cfi_offset 8, -8
	addi	s0,sp,32
	.cfi_def_cfa 8, 0
	sw	a0,-20(s0)
	sw	a1,-24(s0)
	.loc 1 1256 39
	lw	a5,-20(s0)
	lw	a4,-24(s0)
	sw	a4,32(a5)
	.loc 1 1257 2
	nop
	lw	ra,28(sp)
	.cfi_restore 1
	lw	s0,24(sp)
	.cfi_restore 8
	.cfi_def_cfa 2, 32
	addi	sp,sp,32
	.cfi_def_cfa_offset 0
	jr	ra
	.cfi_endproc
.LFE25:
	.size	vStreamBufferSetStreamBufferNumber, .-vStreamBufferSetStreamBufferNumber
	.section	.text.ucStreamBufferGetStreamBufferType,"ax",@progbits
	.align	1
	.globl	ucStreamBufferGetStreamBufferType
	.type	ucStreamBufferGetStreamBufferType, @function
ucStreamBufferGetStreamBufferType:
.LFB26:
	.loc 1 1265 2
	.cfi_startproc
	addi	sp,sp,-32
	.cfi_def_cfa_offset 32
	sw	ra,28(sp)
	sw	s0,24(sp)
	.cfi_offset 1, -4
	.cfi_offset 8, -8
	addi	s0,sp,32
	.cfi_def_cfa 8, 0
	sw	a0,-20(s0)
	.loc 1 1266 25
	lw	a5,-20(s0)
	lbu	a5,28(a5)
	.loc 1 1266 35
	andi	a5,a5,1
	andi	a5,a5,0xff
	.loc 1 1267 2
	mv	a0,a5
	lw	ra,28(sp)
	.cfi_restore 1
	lw	s0,24(sp)
	.cfi_restore 8
	.cfi_def_cfa 2, 32
	addi	sp,sp,32
	.cfi_def_cfa_offset 0
	jr	ra
	.cfi_endproc
.LFE26:
	.size	ucStreamBufferGetStreamBufferType, .-ucStreamBufferGetStreamBufferType
	.text
.Letext0:
	.file 2 "/home/chandu/sdk/bl602_iot_sdk/toolchain/compiler/lib/gcc/riscv32-unknown-elf/15.1.0/include/stdint-gcc.h"
	.file 3 "/home/chandu/sdk/bl602_iot_sdk/toolchain/compiler/lib/gcc/riscv32-unknown-elf/15.1.0/include/stddef.h"
	.file 4 "/home/chandu/sdk/bl602_iot_sdk/components/freertos/portable/GCC/RISC-V/portmacro.h"
	.file 5 "/home/chandu/sdk/bl602_iot_sdk/components/freertos/include/FreeRTOS.h"
	.file 6 "/home/chandu/sdk/bl602_iot_sdk/components/freertos/include/task.h"
	.file 7 "/home/chandu/sdk/bl602_iot_sdk/components/freertos/include/stream_buffer.h"
	.file 8 "/home/chandu/sdk/bl602_iot_sdk/toolchain/compiler/riscv32-unknown-elf/include/string.h"
	.file 9 "/home/chandu/sdk/bl602_iot_sdk/components/freertos/include/portable.h"
	.file 10 "/home/chandu/sdk/bl602_iot_sdk/components/freertos/include/FreeRTOSConfig.h"
	.section	.note.GNU-stack,"",@progbits
