	.file	"timers.c"
	.option nopic
	.attribute arch, "rv32i2p1_m2p0_f2p2_c2p0_zicsr2p0_zmmul1p0_zca1p0_zcf1p0"
	.attribute unaligned_access, 0
	.attribute stack_align, 16
	.text
.Ltext0:
	.cfi_sections	.debug_frame
	.file 0 "/home/chandu/sdk/bl602_iot_sdk/customer_app/suas_app_pqkem_gateway/build_out/freertos" "/home/chandu/sdk/bl602_iot_sdk/components/freertos/timers.c"
	.section	.bss.xActiveTimerList1,"aw",@nobits
	.align	2
	.type	xActiveTimerList1, @object
	.size	xActiveTimerList1, 20
xActiveTimerList1:
	.zero	20
	.section	.bss.xActiveTimerList2,"aw",@nobits
	.align	2
	.type	xActiveTimerList2, @object
	.size	xActiveTimerList2, 20
xActiveTimerList2:
	.zero	20
	.section	.sbss.pxCurrentTimerList,"aw",@nobits
	.align	2
	.type	pxCurrentTimerList, @object
	.size	pxCurrentTimerList, 4
pxCurrentTimerList:
	.zero	4
	.section	.sbss.pxOverflowTimerList,"aw",@nobits
	.align	2
	.type	pxOverflowTimerList, @object
	.size	pxOverflowTimerList, 4
pxOverflowTimerList:
	.zero	4
	.section	.sbss.xTimerQueue,"aw",@nobits
	.align	2
	.type	xTimerQueue, @object
	.size	xTimerQueue, 4
xTimerQueue:
	.zero	4
	.section	.sbss.xTimerTaskHandle,"aw",@nobits
	.align	2
	.type	xTimerTaskHandle, @object
	.size	xTimerTaskHandle, 4
xTimerTaskHandle:
	.zero	4
	.section	.rodata
	.align	2
.LC0:
	.string	"Tmr Svc"
	.section	.text.xTimerCreateTimerTask,"ax",@progbits
	.align	1
	.globl	xTimerCreateTimerTask
	.type	xTimerCreateTimerTask, @function
xTimerCreateTimerTask:
.LFB1:
	.file 1 "/home/chandu/sdk/bl602_iot_sdk/components/freertos/timers.c"
	.loc 1 228 1
	.cfi_startproc
	addi	sp,sp,-32
	.cfi_def_cfa_offset 32
	sw	ra,28(sp)
	sw	s0,24(sp)
	.cfi_offset 1, -4
	.cfi_offset 8, -8
	addi	s0,sp,32
	.cfi_def_cfa 8, 0
	.loc 1 229 12
	sw	zero,-20(s0)
	.loc 1 235 2
	call	prvCheckForValidListAndQueue
	.loc 1 237 18
	lui	a5,%hi(xTimerQueue)
	lw	a5,%lo(xTimerQueue)(a5)
	.loc 1 237 4
	beq	a5,zero,.L2
.LBB2:
	.loc 1 241 18
	sw	zero,-24(s0)
	.loc 1 242 17
	sw	zero,-28(s0)
	.loc 1 245 4
	addi	a3,s0,-32
	addi	a4,s0,-28
	addi	a5,s0,-24
	mv	a2,a3
	mv	a1,a4
	mv	a0,a5
	call	vApplicationGetTimerTaskMemory
	.loc 1 246 23
	lw	a2,-32(s0)
	lw	a5,-28(s0)
	lw	a4,-24(s0)
	mv	a6,a4
	li	a4,31
	li	a3,0
	lui	a1,%hi(.LC0)
	addi	a1,a1,%lo(.LC0)
	lui	a0,%hi(prvTimerTask)
	addi	a0,a0,%lo(prvTimerTask)
	call	xTaskCreateStatic
	mv	a4,a0
	.loc 1 246 21 discriminator 1
	lui	a5,%hi(xTimerTaskHandle)
	sw	a4,%lo(xTimerTaskHandle)(a5)
	.loc 1 254 25
	lui	a5,%hi(xTimerTaskHandle)
	lw	a5,%lo(xTimerTaskHandle)(a5)
	.loc 1 254 6
	beq	a5,zero,.L2
	.loc 1 256 13
	li	a5,1
	sw	a5,-20(s0)
.L2:
.LBE2:
	.loc 1 275 4
	lw	a5,-20(s0)
	bne	a5,zero,.L4
	.loc 1 275 25 discriminator 1
	call	vAssertCalled
.L4:
	.loc 1 276 9
	lw	a5,-20(s0)
	.loc 1 277 1
	mv	a0,a5
	lw	ra,28(sp)
	.cfi_restore 1
	lw	s0,24(sp)
	.cfi_restore 8
	.cfi_def_cfa 2, 32
	addi	sp,sp,32
	.cfi_def_cfa_offset 0
	jr	ra
	.cfi_endproc
.LFE1:
	.size	xTimerCreateTimerTask, .-xTimerCreateTimerTask
	.section	.text.xTimerCreate,"ax",@progbits
	.align	1
	.globl	xTimerCreate
	.type	xTimerCreate, @function
xTimerCreate:
.LFB2:
	.loc 1 287 2
	.cfi_startproc
	addi	sp,sp,-64
	.cfi_def_cfa_offset 64
	sw	ra,60(sp)
	sw	s0,56(sp)
	.cfi_offset 1, -4
	.cfi_offset 8, -8
	addi	s0,sp,64
	.cfi_def_cfa 8, 0
	sw	a0,-36(s0)
	sw	a1,-40(s0)
	sw	a2,-44(s0)
	sw	a3,-48(s0)
	sw	a4,-52(s0)
	.loc 1 290 30
	li	a0,44
	call	pvPortMalloc
	sw	a0,-20(s0)
	.loc 1 292 5
	lw	a5,-20(s0)
	beq	a5,zero,.L7
	.loc 1 297 25
	lw	a5,-20(s0)
	sb	zero,40(a5)
	.loc 1 298 4
	lw	a5,-20(s0)
	lw	a4,-52(s0)
	lw	a3,-48(s0)
	lw	a2,-44(s0)
	lw	a1,-40(s0)
	lw	a0,-36(s0)
	call	prvInitialiseNewTimer
.L7:
	.loc 1 301 10
	lw	a5,-20(s0)
	.loc 1 302 2
	mv	a0,a5
	lw	ra,60(sp)
	.cfi_restore 1
	lw	s0,56(sp)
	.cfi_restore 8
	.cfi_def_cfa 2, 64
	addi	sp,sp,64
	.cfi_def_cfa_offset 0
	jr	ra
	.cfi_endproc
.LFE2:
	.size	xTimerCreate, .-xTimerCreate
	.section	.text.xTimerCreateStatic,"ax",@progbits
	.align	1
	.globl	xTimerCreateStatic
	.type	xTimerCreateStatic, @function
xTimerCreateStatic:
.LFB3:
	.loc 1 315 2
	.cfi_startproc
	addi	sp,sp,-64
	.cfi_def_cfa_offset 64
	sw	ra,60(sp)
	sw	s0,56(sp)
	.cfi_offset 1, -4
	.cfi_offset 8, -8
	addi	s0,sp,64
	.cfi_def_cfa 8, 0
	sw	a0,-36(s0)
	sw	a1,-40(s0)
	sw	a2,-44(s0)
	sw	a3,-48(s0)
	sw	a4,-52(s0)
	sw	a5,-56(s0)
.LBB3:
	.loc 1 323 20
	li	a5,44
	sw	a5,-24(s0)
	.loc 1 324 39
	lw	a4,-24(s0)
	.loc 1 324 6
	li	a5,44
	beq	a4,a5,.L10
	.loc 1 324 46 discriminator 1
	call	vAssertCalled
.L10:
	.loc 1 325 4
	lw	a5,-24(s0)
.LBE3:
	.loc 1 330 5
	lw	a5,-56(s0)
	bne	a5,zero,.L11
	.loc 1 330 32 discriminator 1
	call	vAssertCalled
.L11:
	.loc 1 331 14
	lw	a5,-56(s0)
	sw	a5,-20(s0)
	.loc 1 333 5
	lw	a5,-20(s0)
	beq	a5,zero,.L12
	.loc 1 338 25
	lw	a5,-20(s0)
	li	a4,2
	sb	a4,40(a5)
	.loc 1 340 4
	lw	a5,-20(s0)
	lw	a4,-52(s0)
	lw	a3,-48(s0)
	lw	a2,-44(s0)
	lw	a1,-40(s0)
	lw	a0,-36(s0)
	call	prvInitialiseNewTimer
.L12:
	.loc 1 343 10
	lw	a5,-20(s0)
	.loc 1 344 2
	mv	a0,a5
	lw	ra,60(sp)
	.cfi_restore 1
	lw	s0,56(sp)
	.cfi_restore 8
	.cfi_def_cfa 2, 64
	addi	sp,sp,64
	.cfi_def_cfa_offset 0
	jr	ra
	.cfi_endproc
.LFE3:
	.size	xTimerCreateStatic, .-xTimerCreateStatic
	.section	.text.prvInitialiseNewTimer,"ax",@progbits
	.align	1
	.type	prvInitialiseNewTimer, @function
prvInitialiseNewTimer:
.LFB4:
	.loc 1 355 1
	.cfi_startproc
	addi	sp,sp,-48
	.cfi_def_cfa_offset 48
	sw	ra,44(sp)
	sw	s0,40(sp)
	.cfi_offset 1, -4
	.cfi_offset 8, -8
	addi	s0,sp,48
	.cfi_def_cfa 8, 0
	sw	a0,-20(s0)
	sw	a1,-24(s0)
	sw	a2,-28(s0)
	sw	a3,-32(s0)
	sw	a4,-36(s0)
	sw	a5,-40(s0)
	.loc 1 357 4
	lw	a5,-24(s0)
	bne	a5,zero,.L15
	.loc 1 357 45 discriminator 1
	call	vAssertCalled
.L15:
	.loc 1 359 4
	lw	a5,-40(s0)
	beq	a5,zero,.L17
	.loc 1 363 3
	call	prvCheckForValidListAndQueue
	.loc 1 367 27
	lw	a5,-40(s0)
	lw	a4,-20(s0)
	sw	a4,0(a5)
	.loc 1 368 35
	lw	a5,-40(s0)
	lw	a4,-24(s0)
	sw	a4,24(a5)
	.loc 1 369 25
	lw	a5,-40(s0)
	lw	a4,-32(s0)
	sw	a4,28(a5)
	.loc 1 370 34
	lw	a5,-40(s0)
	lw	a4,-36(s0)
	sw	a4,32(a5)
	.loc 1 371 24
	lw	a5,-40(s0)
	addi	a5,a5,4
	.loc 1 371 3
	mv	a0,a5
	call	vListInitialiseItem
	.loc 1 372 5
	lw	a5,-28(s0)
	beq	a5,zero,.L17
	.loc 1 374 14
	lw	a5,-40(s0)
	lbu	a5,40(a5)
	.loc 1 374 25
	ori	a5,a5,4
	andi	a4,a5,0xff
	lw	a5,-40(s0)
	sb	a4,40(a5)
.L17:
	.loc 1 378 1
	nop
	lw	ra,44(sp)
	.cfi_restore 1
	lw	s0,40(sp)
	.cfi_restore 8
	.cfi_def_cfa 2, 48
	addi	sp,sp,48
	.cfi_def_cfa_offset 0
	jr	ra
	.cfi_endproc
.LFE4:
	.size	prvInitialiseNewTimer, .-prvInitialiseNewTimer
	.section	.text.xTimerGenericCommand,"ax",@progbits
	.align	1
	.globl	xTimerGenericCommand
	.type	xTimerGenericCommand, @function
xTimerGenericCommand:
.LFB5:
	.loc 1 382 1
	.cfi_startproc
	addi	sp,sp,-80
	.cfi_def_cfa_offset 80
	sw	ra,76(sp)
	sw	s0,72(sp)
	.cfi_offset 1, -4
	.cfi_offset 8, -8
	addi	s0,sp,80
	.cfi_def_cfa 8, 0
	sw	a0,-52(s0)
	sw	a1,-56(s0)
	sw	a2,-60(s0)
	sw	a3,-64(s0)
	sw	a4,-68(s0)
	.loc 1 383 12
	sw	zero,-20(s0)
	.loc 1 386 4
	lw	a5,-52(s0)
	bne	a5,zero,.L19
	.loc 1 386 24 discriminator 1
	call	vAssertCalled
.L19:
	.loc 1 390 18
	lui	a5,%hi(xTimerQueue)
	lw	a5,%lo(xTimerQueue)(a5)
	.loc 1 390 4
	beq	a5,zero,.L20
	.loc 1 393 23
	lw	a5,-56(s0)
	sw	a5,-36(s0)
	.loc 1 394 45
	lw	a5,-60(s0)
	sw	a5,-32(s0)
	.loc 1 395 39
	lw	a5,-52(s0)
	sw	a5,-28(s0)
	.loc 1 397 5
	lw	a4,-56(s0)
	li	a5,5
	bgt	a4,a5,.L21
	.loc 1 399 8
	call	xTaskGetSchedulerState
	mv	a4,a0
	.loc 1 399 6 discriminator 1
	li	a5,2
	bne	a4,a5,.L22
	.loc 1 401 15
	lui	a5,%hi(xTimerQueue)
	lw	a5,%lo(xTimerQueue)(a5)
	addi	a4,s0,-36
	li	a3,0
	lw	a2,-68(s0)
	mv	a1,a4
	mv	a0,a5
	call	xQueueGenericSend
	sw	a0,-20(s0)
	j	.L20
.L22:
	.loc 1 405 15
	lui	a5,%hi(xTimerQueue)
	lw	a5,%lo(xTimerQueue)(a5)
	addi	a4,s0,-36
	li	a3,0
	li	a2,0
	mv	a1,a4
	mv	a0,a5
	call	xQueueGenericSend
	sw	a0,-20(s0)
	j	.L20
.L21:
	.loc 1 410 14
	lui	a5,%hi(xTimerQueue)
	lw	a5,%lo(xTimerQueue)(a5)
	addi	a4,s0,-36
	li	a3,0
	lw	a2,-64(s0)
	mv	a1,a4
	mv	a0,a5
	call	xQueueGenericSendFromISR
	sw	a0,-20(s0)
.L20:
	.loc 1 420 9
	lw	a5,-20(s0)
	.loc 1 421 1
	mv	a0,a5
	lw	ra,76(sp)
	.cfi_restore 1
	lw	s0,72(sp)
	.cfi_restore 8
	.cfi_def_cfa 2, 80
	addi	sp,sp,80
	.cfi_def_cfa_offset 0
	jr	ra
	.cfi_endproc
.LFE5:
	.size	xTimerGenericCommand, .-xTimerGenericCommand
	.section	.text.xTimerGetTimerDaemonTaskHandle,"ax",@progbits
	.align	1
	.globl	xTimerGetTimerDaemonTaskHandle
	.type	xTimerGetTimerDaemonTaskHandle, @function
xTimerGetTimerDaemonTaskHandle:
.LFB6:
	.loc 1 425 1
	.cfi_startproc
	addi	sp,sp,-16
	.cfi_def_cfa_offset 16
	sw	ra,12(sp)
	sw	s0,8(sp)
	.cfi_offset 1, -4
	.cfi_offset 8, -8
	addi	s0,sp,16
	.cfi_def_cfa 8, 0
	.loc 1 428 5
	lui	a5,%hi(xTimerTaskHandle)
	lw	a5,%lo(xTimerTaskHandle)(a5)
	.loc 1 428 4
	bne	a5,zero,.L25
	.loc 1 428 12 discriminator 1
	call	vAssertCalled
.L25:
	.loc 1 429 9
	lui	a5,%hi(xTimerTaskHandle)
	lw	a5,%lo(xTimerTaskHandle)(a5)
	.loc 1 430 1
	mv	a0,a5
	lw	ra,12(sp)
	.cfi_restore 1
	lw	s0,8(sp)
	.cfi_restore 8
	.cfi_def_cfa 2, 16
	addi	sp,sp,16
	.cfi_def_cfa_offset 0
	jr	ra
	.cfi_endproc
.LFE6:
	.size	xTimerGetTimerDaemonTaskHandle, .-xTimerGetTimerDaemonTaskHandle
	.section	.text.xTimerGetPeriod,"ax",@progbits
	.align	1
	.globl	xTimerGetPeriod
	.type	xTimerGetPeriod, @function
xTimerGetPeriod:
.LFB7:
	.loc 1 434 1
	.cfi_startproc
	addi	sp,sp,-48
	.cfi_def_cfa_offset 48
	sw	ra,44(sp)
	sw	s0,40(sp)
	.cfi_offset 1, -4
	.cfi_offset 8, -8
	addi	s0,sp,48
	.cfi_def_cfa 8, 0
	sw	a0,-36(s0)
	.loc 1 435 10
	lw	a5,-36(s0)
	sw	a5,-20(s0)
	.loc 1 437 4
	lw	a5,-36(s0)
	bne	a5,zero,.L28
	.loc 1 437 24 discriminator 1
	call	vAssertCalled
.L28:
	.loc 1 438 16
	lw	a5,-20(s0)
	lw	a5,24(a5)
	.loc 1 439 1
	mv	a0,a5
	lw	ra,44(sp)
	.cfi_restore 1
	lw	s0,40(sp)
	.cfi_restore 8
	.cfi_def_cfa 2, 48
	addi	sp,sp,48
	.cfi_def_cfa_offset 0
	jr	ra
	.cfi_endproc
.LFE7:
	.size	xTimerGetPeriod, .-xTimerGetPeriod
	.section	.text.vTimerSetReloadMode,"ax",@progbits
	.align	1
	.globl	vTimerSetReloadMode
	.type	vTimerSetReloadMode, @function
vTimerSetReloadMode:
.LFB8:
	.loc 1 443 1
	.cfi_startproc
	addi	sp,sp,-48
	.cfi_def_cfa_offset 48
	sw	ra,44(sp)
	sw	s0,40(sp)
	.cfi_offset 1, -4
	.cfi_offset 8, -8
	addi	s0,sp,48
	.cfi_def_cfa 8, 0
	sw	a0,-36(s0)
	sw	a1,-40(s0)
	.loc 1 444 11
	lw	a5,-36(s0)
	sw	a5,-20(s0)
	.loc 1 446 4
	lw	a5,-36(s0)
	bne	a5,zero,.L31
	.loc 1 446 24 discriminator 1
	call	vAssertCalled
.L31:
	.loc 1 447 2
	call	vTaskEnterCritical
	.loc 1 449 5
	lw	a5,-40(s0)
	beq	a5,zero,.L32
	.loc 1 451 11
	lw	a5,-20(s0)
	lbu	a5,40(a5)
	.loc 1 451 22
	ori	a5,a5,4
	andi	a4,a5,0xff
	lw	a5,-20(s0)
	sb	a4,40(a5)
	j	.L33
.L32:
	.loc 1 455 11
	lw	a5,-20(s0)
	lbu	a5,40(a5)
	.loc 1 455 22
	andi	a5,a5,-5
	andi	a4,a5,0xff
	lw	a5,-20(s0)
	sb	a4,40(a5)
.L33:
	.loc 1 458 2
	call	vTaskExitCritical
	.loc 1 459 1
	nop
	lw	ra,44(sp)
	.cfi_restore 1
	lw	s0,40(sp)
	.cfi_restore 8
	.cfi_def_cfa 2, 48
	addi	sp,sp,48
	.cfi_def_cfa_offset 0
	jr	ra
	.cfi_endproc
.LFE8:
	.size	vTimerSetReloadMode, .-vTimerSetReloadMode
	.section	.text.uxTimerGetReloadMode,"ax",@progbits
	.align	1
	.globl	uxTimerGetReloadMode
	.type	uxTimerGetReloadMode, @function
uxTimerGetReloadMode:
.LFB9:
	.loc 1 463 1
	.cfi_startproc
	addi	sp,sp,-48
	.cfi_def_cfa_offset 48
	sw	ra,44(sp)
	sw	s0,40(sp)
	.cfi_offset 1, -4
	.cfi_offset 8, -8
	addi	s0,sp,48
	.cfi_def_cfa 8, 0
	sw	a0,-36(s0)
	.loc 1 464 11
	lw	a5,-36(s0)
	sw	a5,-24(s0)
	.loc 1 467 4
	lw	a5,-36(s0)
	bne	a5,zero,.L35
	.loc 1 467 24 discriminator 1
	call	vAssertCalled
.L35:
	.loc 1 468 2
	call	vTaskEnterCritical
	.loc 1 470 16
	lw	a5,-24(s0)
	lbu	a5,40(a5)
	.loc 1 470 27
	andi	a5,a5,4
	.loc 1 470 5
	bne	a5,zero,.L36
	.loc 1 473 13
	sw	zero,-20(s0)
	j	.L37
.L36:
	.loc 1 478 13
	li	a5,1
	sw	a5,-20(s0)
.L37:
	.loc 1 481 2
	call	vTaskExitCritical
	.loc 1 483 9
	lw	a5,-20(s0)
	.loc 1 484 1
	mv	a0,a5
	lw	ra,44(sp)
	.cfi_restore 1
	lw	s0,40(sp)
	.cfi_restore 8
	.cfi_def_cfa 2, 48
	addi	sp,sp,48
	.cfi_def_cfa_offset 0
	jr	ra
	.cfi_endproc
.LFE9:
	.size	uxTimerGetReloadMode, .-uxTimerGetReloadMode
	.section	.text.xTimerGetExpiryTime,"ax",@progbits
	.align	1
	.globl	xTimerGetExpiryTime
	.type	xTimerGetExpiryTime, @function
xTimerGetExpiryTime:
.LFB10:
	.loc 1 488 1
	.cfi_startproc
	addi	sp,sp,-48
	.cfi_def_cfa_offset 48
	sw	ra,44(sp)
	sw	s0,40(sp)
	.cfi_offset 1, -4
	.cfi_offset 8, -8
	addi	s0,sp,48
	.cfi_def_cfa 8, 0
	sw	a0,-36(s0)
	.loc 1 489 11
	lw	a5,-36(s0)
	sw	a5,-20(s0)
	.loc 1 492 4
	lw	a5,-36(s0)
	bne	a5,zero,.L40
	.loc 1 492 24 discriminator 1
	call	vAssertCalled
.L40:
	.loc 1 493 10
	lw	a5,-20(s0)
	lw	a5,4(a5)
	sw	a5,-24(s0)
	.loc 1 494 9
	lw	a5,-24(s0)
	.loc 1 495 1
	mv	a0,a5
	lw	ra,44(sp)
	.cfi_restore 1
	lw	s0,40(sp)
	.cfi_restore 8
	.cfi_def_cfa 2, 48
	addi	sp,sp,48
	.cfi_def_cfa_offset 0
	jr	ra
	.cfi_endproc
.LFE10:
	.size	xTimerGetExpiryTime, .-xTimerGetExpiryTime
	.section	.text.pcTimerGetName,"ax",@progbits
	.align	1
	.globl	pcTimerGetName
	.type	pcTimerGetName, @function
pcTimerGetName:
.LFB11:
	.loc 1 499 1
	.cfi_startproc
	addi	sp,sp,-48
	.cfi_def_cfa_offset 48
	sw	ra,44(sp)
	sw	s0,40(sp)
	.cfi_offset 1, -4
	.cfi_offset 8, -8
	addi	s0,sp,48
	.cfi_def_cfa 8, 0
	sw	a0,-36(s0)
	.loc 1 500 10
	lw	a5,-36(s0)
	sw	a5,-20(s0)
	.loc 1 502 4
	lw	a5,-36(s0)
	bne	a5,zero,.L43
	.loc 1 502 24 discriminator 1
	call	vAssertCalled
.L43:
	.loc 1 503 16
	lw	a5,-20(s0)
	lw	a5,0(a5)
	.loc 1 504 1
	mv	a0,a5
	lw	ra,44(sp)
	.cfi_restore 1
	lw	s0,40(sp)
	.cfi_restore 8
	.cfi_def_cfa 2, 48
	addi	sp,sp,48
	.cfi_def_cfa_offset 0
	jr	ra
	.cfi_endproc
.LFE11:
	.size	pcTimerGetName, .-pcTimerGetName
	.section	.text.prvProcessExpiredTimer,"ax",@progbits
	.align	1
	.type	prvProcessExpiredTimer, @function
prvProcessExpiredTimer:
.LFB12:
	.loc 1 508 1
	.cfi_startproc
	addi	sp,sp,-48
	.cfi_def_cfa_offset 48
	sw	ra,44(sp)
	sw	s0,40(sp)
	.cfi_offset 1, -4
	.cfi_offset 8, -8
	addi	s0,sp,48
	.cfi_def_cfa 8, 0
	sw	a0,-36(s0)
	sw	a1,-40(s0)
	.loc 1 510 69
	lui	a5,%hi(pxCurrentTimerList)
	lw	a5,%lo(pxCurrentTimerList)(a5)
	.loc 1 510 82
	lw	a5,12(a5)
	.loc 1 510 17
	lw	a5,12(a5)
	sw	a5,-20(s0)
	.loc 1 514 25
	lw	a5,-20(s0)
	addi	a5,a5,4
	.loc 1 514 11
	mv	a0,a5
	call	uxListRemove
	.loc 1 519 15
	lw	a5,-20(s0)
	lbu	a5,40(a5)
	.loc 1 519 26
	andi	a5,a5,4
	.loc 1 519 4
	beq	a5,zero,.L46
	.loc 1 524 71
	lw	a5,-20(s0)
	lw	a4,24(a5)
	.loc 1 524 62
	lw	a5,-36(s0)
	add	a5,a4,a5
	.loc 1 524 7
	lw	a3,-36(s0)
	lw	a2,-40(s0)
	mv	a1,a5
	lw	a0,-20(s0)
	call	prvInsertTimerInActiveList
	mv	a5,a0
	.loc 1 524 5 discriminator 1
	beq	a5,zero,.L47
	.loc 1 528 14
	li	a4,0
	li	a3,0
	lw	a2,-36(s0)
	li	a1,0
	lw	a0,-20(s0)
	call	xTimerGenericCommand
	sw	a0,-24(s0)
	.loc 1 529 6
	lw	a5,-24(s0)
	bne	a5,zero,.L47
	.loc 1 529 27 discriminator 1
	call	vAssertCalled
	j	.L47
.L46:
	.loc 1 539 10
	lw	a5,-20(s0)
	lbu	a5,40(a5)
	.loc 1 539 21
	andi	a5,a5,-2
	andi	a4,a5,0xff
	lw	a5,-20(s0)
	sb	a4,40(a5)
.L47:
	.loc 1 544 9
	lw	a5,-20(s0)
	lw	a5,32(a5)
	.loc 1 544 2
	lw	a0,-20(s0)
	jalr	a5
.LVL0:
	.loc 1 545 1
	nop
	lw	ra,44(sp)
	.cfi_restore 1
	lw	s0,40(sp)
	.cfi_restore 8
	.cfi_def_cfa 2, 48
	addi	sp,sp,48
	.cfi_def_cfa_offset 0
	jr	ra
	.cfi_endproc
.LFE12:
	.size	prvProcessExpiredTimer, .-prvProcessExpiredTimer
	.section	.text.prvTimerTask,"ax",@progbits
	.align	1
	.type	prvTimerTask, @function
prvTimerTask:
.LFB13:
	.loc 1 549 1
	.cfi_startproc
	addi	sp,sp,-48
	.cfi_def_cfa_offset 48
	sw	ra,44(sp)
	sw	s0,40(sp)
	.cfi_offset 1, -4
	.cfi_offset 8, -8
	addi	s0,sp,48
	.cfi_def_cfa 8, 0
	sw	a0,-36(s0)
.L49:
	.loc 1 572 21
	addi	a5,s0,-24
	mv	a0,a5
	call	prvGetNextExpireTime
	sw	a0,-20(s0)
	.loc 1 576 3
	lw	a5,-24(s0)
	mv	a1,a5
	lw	a0,-20(s0)
	call	prvProcessTimerOrBlockTask
	.loc 1 579 3 discriminator 2
	call	prvProcessReceivedCommands
	.loc 1 572 19
	nop
	j	.L49
	.cfi_endproc
.LFE13:
	.size	prvTimerTask, .-prvTimerTask
	.section	.text.prvProcessTimerOrBlockTask,"ax",@progbits
	.align	1
	.type	prvProcessTimerOrBlockTask, @function
prvProcessTimerOrBlockTask:
.LFB14:
	.loc 1 585 1
	.cfi_startproc
	addi	sp,sp,-48
	.cfi_def_cfa_offset 48
	sw	ra,44(sp)
	sw	s0,40(sp)
	.cfi_offset 1, -4
	.cfi_offset 8, -8
	addi	s0,sp,48
	.cfi_def_cfa 8, 0
	sw	a0,-36(s0)
	sw	a1,-40(s0)
	.loc 1 589 2
	call	vTaskSuspendAll
	.loc 1 596 14
	addi	a5,s0,-24
	mv	a0,a5
	call	prvSampleTimeNow
	sw	a0,-20(s0)
	.loc 1 597 31
	lw	a5,-24(s0)
	.loc 1 597 5
	bne	a5,zero,.L51
	.loc 1 600 6
	lw	a5,-40(s0)
	bne	a5,zero,.L52
	.loc 1 600 50 discriminator 1
	lw	a4,-36(s0)
	lw	a5,-20(s0)
	bgtu	a4,a5,.L52
	.loc 1 602 14
	call	xTaskResumeAll
	.loc 1 603 5
	lw	a1,-20(s0)
	lw	a0,-36(s0)
	call	prvProcessExpiredTimer
	.loc 1 641 1
	j	.L57
.L52:
	.loc 1 613 7
	lw	a5,-40(s0)
	beq	a5,zero,.L54
	.loc 1 617 49
	lui	a5,%hi(pxOverflowTimerList)
	lw	a5,%lo(pxOverflowTimerList)(a5)
	lw	a5,0(a5)
	.loc 1 617 113
	bne	a5,zero,.L55
	.loc 1 617 20 discriminator 1
	li	a5,1
	sw	a5,-40(s0)
	j	.L54
.L55:
	.loc 1 617 20 is_stmt 0 discriminator 2
	sw	zero,-40(s0)
.L54:
	.loc 1 620 5 is_stmt 1
	lui	a5,%hi(xTimerQueue)
	lw	a3,%lo(xTimerQueue)(a5)
	lw	a4,-36(s0)
	lw	a5,-20(s0)
	sub	a5,a4,a5
	lw	a2,-40(s0)
	mv	a1,a5
	mv	a0,a3
	call	vQueueWaitForMessageRestricted
	.loc 1 622 9
	call	xTaskResumeAll
	mv	a5,a0
	.loc 1 622 7 discriminator 1
	bne	a5,zero,.L57
	.loc 1 628 6
 #APP
# 628 "/home/chandu/sdk/bl602_iot_sdk/components/freertos/timers.c" 1
	ecall
# 0 "" 2
	.loc 1 641 1
 #NO_APP
	j	.L57
.L51:
	.loc 1 638 13
	call	xTaskResumeAll
.L57:
	.loc 1 641 1
	nop
	lw	ra,44(sp)
	.cfi_restore 1
	lw	s0,40(sp)
	.cfi_restore 8
	.cfi_def_cfa 2, 48
	addi	sp,sp,48
	.cfi_def_cfa_offset 0
	jr	ra
	.cfi_endproc
.LFE14:
	.size	prvProcessTimerOrBlockTask, .-prvProcessTimerOrBlockTask
	.section	.text.prvGetNextExpireTime,"ax",@progbits
	.align	1
	.type	prvGetNextExpireTime, @function
prvGetNextExpireTime:
.LFB15:
	.loc 1 645 1
	.cfi_startproc
	addi	sp,sp,-48
	.cfi_def_cfa_offset 48
	sw	ra,44(sp)
	sw	s0,40(sp)
	.cfi_offset 1, -4
	.cfi_offset 8, -8
	addi	s0,sp,48
	.cfi_def_cfa 8, 0
	sw	a0,-36(s0)
	.loc 1 655 46
	lui	a5,%hi(pxCurrentTimerList)
	lw	a5,%lo(pxCurrentTimerList)(a5)
	lw	a5,0(a5)
	.loc 1 655 110
	bne	a5,zero,.L59
	.loc 1 655 110 is_stmt 0 discriminator 1
	li	a5,1
	j	.L60
.L59:
	.loc 1 655 110 discriminator 2
	li	a5,0
.L60:
	.loc 1 655 18 is_stmt 1 discriminator 4
	lw	a4,-36(s0)
	sw	a5,0(a4)
	.loc 1 656 6
	lw	a5,-36(s0)
	lw	a5,0(a5)
	.loc 1 656 4
	bne	a5,zero,.L61
	.loc 1 658 47
	lui	a5,%hi(pxCurrentTimerList)
	lw	a5,%lo(pxCurrentTimerList)(a5)
	.loc 1 658 59
	lw	a5,12(a5)
	.loc 1 658 19
	lw	a5,0(a5)
	sw	a5,-20(s0)
	j	.L62
.L61:
	.loc 1 663 19
	sw	zero,-20(s0)
.L62:
	.loc 1 666 9
	lw	a5,-20(s0)
	.loc 1 667 1
	mv	a0,a5
	lw	ra,44(sp)
	.cfi_restore 1
	lw	s0,40(sp)
	.cfi_restore 8
	.cfi_def_cfa 2, 48
	addi	sp,sp,48
	.cfi_def_cfa_offset 0
	jr	ra
	.cfi_endproc
.LFE15:
	.size	prvGetNextExpireTime, .-prvGetNextExpireTime
	.section	.text.prvSampleTimeNow,"ax",@progbits
	.align	1
	.type	prvSampleTimeNow, @function
prvSampleTimeNow:
.LFB16:
	.loc 1 671 1
	.cfi_startproc
	addi	sp,sp,-48
	.cfi_def_cfa_offset 48
	sw	ra,44(sp)
	sw	s0,40(sp)
	.cfi_offset 1, -4
	.cfi_offset 8, -8
	addi	s0,sp,48
	.cfi_def_cfa 8, 0
	sw	a0,-36(s0)
	.loc 1 675 13
	call	xTaskGetTickCount
	sw	a0,-20(s0)
	.loc 1 677 15
	lui	a5,%hi(xLastTime.2)
	lw	a5,%lo(xLastTime.2)(a5)
	.loc 1 677 4
	lw	a4,-20(s0)
	bgeu	a4,a5,.L65
	.loc 1 679 3
	call	prvSwitchTimerLists
	.loc 1 680 29
	lw	a5,-36(s0)
	li	a4,1
	sw	a4,0(a5)
	j	.L66
.L65:
	.loc 1 684 29
	lw	a5,-36(s0)
	sw	zero,0(a5)
.L66:
	.loc 1 687 12
	lui	a5,%hi(xLastTime.2)
	lw	a4,-20(s0)
	sw	a4,%lo(xLastTime.2)(a5)
	.loc 1 689 9
	lw	a5,-20(s0)
	.loc 1 690 1
	mv	a0,a5
	lw	ra,44(sp)
	.cfi_restore 1
	lw	s0,40(sp)
	.cfi_restore 8
	.cfi_def_cfa 2, 48
	addi	sp,sp,48
	.cfi_def_cfa_offset 0
	jr	ra
	.cfi_endproc
.LFE16:
	.size	prvSampleTimeNow, .-prvSampleTimeNow
	.section	.text.prvInsertTimerInActiveList,"ax",@progbits
	.align	1
	.type	prvInsertTimerInActiveList, @function
prvInsertTimerInActiveList:
.LFB17:
	.loc 1 694 1
	.cfi_startproc
	addi	sp,sp,-48
	.cfi_def_cfa_offset 48
	sw	ra,44(sp)
	sw	s0,40(sp)
	.cfi_offset 1, -4
	.cfi_offset 8, -8
	addi	s0,sp,48
	.cfi_def_cfa 8, 0
	sw	a0,-36(s0)
	sw	a1,-40(s0)
	sw	a2,-44(s0)
	sw	a3,-48(s0)
	.loc 1 695 12
	sw	zero,-20(s0)
	.loc 1 697 49
	lw	a5,-36(s0)
	lw	a4,-40(s0)
	sw	a4,4(a5)
	.loc 1 698 46
	lw	a5,-36(s0)
	lw	a4,-36(s0)
	sw	a4,16(a5)
	.loc 1 700 4
	lw	a4,-40(s0)
	lw	a5,-44(s0)
	bgtu	a4,a5,.L69
	.loc 1 704 35
	lw	a4,-44(s0)
	lw	a5,-48(s0)
	sub	a4,a4,a5
	.loc 1 704 64
	lw	a5,-36(s0)
	lw	a5,24(a5)
	.loc 1 704 5
	bltu	a4,a5,.L70
	.loc 1 708 21
	li	a5,1
	sw	a5,-20(s0)
	j	.L71
.L70:
	.loc 1 712 4
	lui	a5,%hi(pxOverflowTimerList)
	lw	a4,%lo(pxOverflowTimerList)(a5)
	.loc 1 712 38
	lw	a5,-36(s0)
	addi	a5,a5,4
	.loc 1 712 4
	mv	a1,a5
	mv	a0,a4
	call	vListInsert
	j	.L71
.L69:
	.loc 1 717 5
	lw	a4,-44(s0)
	lw	a5,-48(s0)
	bgeu	a4,a5,.L72
	.loc 1 717 35 discriminator 1
	lw	a4,-40(s0)
	lw	a5,-48(s0)
	bltu	a4,a5,.L72
	.loc 1 722 21
	li	a5,1
	sw	a5,-20(s0)
	j	.L71
.L72:
	.loc 1 726 4
	lui	a5,%hi(pxCurrentTimerList)
	lw	a4,%lo(pxCurrentTimerList)(a5)
	.loc 1 726 37
	lw	a5,-36(s0)
	addi	a5,a5,4
	.loc 1 726 4
	mv	a1,a5
	mv	a0,a4
	call	vListInsert
.L71:
	.loc 1 730 9
	lw	a5,-20(s0)
	.loc 1 731 1
	mv	a0,a5
	lw	ra,44(sp)
	.cfi_restore 1
	lw	s0,40(sp)
	.cfi_restore 8
	.cfi_def_cfa 2, 48
	addi	sp,sp,48
	.cfi_def_cfa_offset 0
	jr	ra
	.cfi_endproc
.LFE17:
	.size	prvInsertTimerInActiveList, .-prvInsertTimerInActiveList
	.section	.text.prvProcessReceivedCommands,"ax",@progbits
	.align	1
	.type	prvProcessReceivedCommands, @function
prvProcessReceivedCommands:
.LFB18:
	.loc 1 735 1
	.cfi_startproc
	addi	sp,sp,-64
	.cfi_def_cfa_offset 64
	sw	ra,60(sp)
	sw	s0,56(sp)
	.cfi_offset 1, -4
	.cfi_offset 8, -8
	addi	s0,sp,64
	.cfi_def_cfa 8, 0
	.loc 1 741 7
	j	.L78
.L91:
	.loc 1 747 16
	lw	a5,-48(s0)
	.loc 1 747 6
	bge	a5,zero,.L76
.LBB4:
	.loc 1 749 40
	addi	a5,s0,-48
	addi	a5,a5,4
	sw	a5,-20(s0)
	.loc 1 753 7
	lw	a5,-20(s0)
	bne	a5,zero,.L77
	.loc 1 753 31 discriminator 1
	call	vAssertCalled
.L77:
	.loc 1 756 15
	lw	a5,-20(s0)
	lw	a5,0(a5)
	.loc 1 756 47
	lw	a4,-20(s0)
	lw	a3,4(a4)
	.loc 1 756 73
	lw	a4,-20(s0)
	lw	a4,8(a4)
	.loc 1 756 5
	mv	a1,a4
	mv	a0,a3
	jalr	a5
.LVL1:
.L76:
.LBE4:
	.loc 1 767 15
	lw	a5,-48(s0)
	.loc 1 767 5
	blt	a5,zero,.L78
	.loc 1 771 12
	lw	a5,-40(s0)
	sw	a5,-24(s0)
	.loc 1 773 44
	lw	a5,-24(s0)
	lw	a5,20(a5)
	.loc 1 773 6
	beq	a5,zero,.L79
	.loc 1 776 28
	lw	a5,-24(s0)
	addi	a5,a5,4
	.loc 1 776 14
	mv	a0,a5
	call	uxListRemove
.L79:
	.loc 1 791 15
	addi	a5,s0,-52
	mv	a0,a5
	call	prvSampleTimeNow
	sw	a0,-28(s0)
	.loc 1 793 20
	lw	a5,-48(s0)
	.loc 1 793 4
	li	a4,9
	beq	a5,a4,.L80
	li	a4,9
	bgt	a5,a4,.L92
	li	a4,8
	beq	a5,a4,.L82
	li	a4,8
	bgt	a5,a4,.L92
	li	a4,7
	bgt	a5,a4,.L92
	li	a4,6
	bge	a5,a4,.L83
	li	a4,5
	beq	a5,a4,.L84
	li	a4,5
	bgt	a5,a4,.L92
	li	a4,4
	beq	a5,a4,.L80
	li	a4,4
	bgt	a5,a4,.L92
	li	a4,2
	bgt	a5,a4,.L85
	bge	a5,zero,.L83
	.loc 1 875 6
	j	.L92
.L85:
	.loc 1 793 4
	li	a4,3
	beq	a5,a4,.L82
	.loc 1 875 6
	j	.L92
.L83:
	.loc 1 801 13
	lw	a5,-24(s0)
	lbu	a5,40(a5)
	.loc 1 801 24
	ori	a5,a5,1
	andi	a4,a5,0xff
	lw	a5,-24(s0)
	sb	a4,40(a5)
	.loc 1 802 74
	lw	a4,-44(s0)
	.loc 1 802 98
	lw	a5,-24(s0)
	lw	a5,24(a5)
	.loc 1 802 89
	add	a5,a4,a5
	.loc 1 802 158
	lw	a4,-44(s0)
	.loc 1 802 10
	mv	a3,a4
	lw	a2,-28(s0)
	mv	a1,a5
	lw	a0,-24(s0)
	call	prvInsertTimerInActiveList
	mv	a5,a0
	.loc 1 802 8 discriminator 1
	beq	a5,zero,.L93
	.loc 1 806 14
	lw	a5,-24(s0)
	lw	a5,32(a5)
	.loc 1 806 7
	lw	a0,-24(s0)
	jalr	a5
.LVL2:
	.loc 1 809 20
	lw	a5,-24(s0)
	lbu	a5,40(a5)
	.loc 1 809 31
	andi	a5,a5,4
	.loc 1 809 9
	beq	a5,zero,.L93
	.loc 1 811 98
	lw	a4,-44(s0)
	.loc 1 811 122
	lw	a5,-24(s0)
	lw	a5,24(a5)
	.loc 1 811 113
	add	a5,a4,a5
	.loc 1 811 18
	li	a4,0
	li	a3,0
	mv	a2,a5
	li	a1,0
	lw	a0,-24(s0)
	call	xTimerGenericCommand
	sw	a0,-32(s0)
	.loc 1 812 10
	lw	a5,-32(s0)
	bne	a5,zero,.L93
	.loc 1 812 31 discriminator 1
	call	vAssertCalled
	.loc 1 824 6
	j	.L93
.L82:
	.loc 1 829 13
	lw	a5,-24(s0)
	lbu	a5,40(a5)
	.loc 1 829 24
	andi	a5,a5,-2
	andi	a4,a5,0xff
	lw	a5,-24(s0)
	sb	a4,40(a5)
	.loc 1 830 6
	j	.L78
.L80:
	.loc 1 834 13
	lw	a5,-24(s0)
	lbu	a5,40(a5)
	.loc 1 834 24
	ori	a5,a5,1
	andi	a4,a5,0xff
	lw	a5,-24(s0)
	sb	a4,40(a5)
	.loc 1 835 64
	lw	a4,-44(s0)
	.loc 1 835 35
	lw	a5,-24(s0)
	sw	a4,24(a5)
	.loc 1 836 21
	lw	a5,-24(s0)
	lw	a5,24(a5)
	.loc 1 836 8
	bne	a5,zero,.L88
	.loc 1 836 58 discriminator 1
	call	vAssertCalled
.L88:
	.loc 1 844 72
	lw	a5,-24(s0)
	lw	a4,24(a5)
	.loc 1 844 63
	lw	a5,-28(s0)
	add	a5,a4,a5
	.loc 1 844 15
	lw	a3,-28(s0)
	lw	a2,-28(s0)
	mv	a1,a5
	lw	a0,-24(s0)
	call	prvInsertTimerInActiveList
	.loc 1 845 6
	j	.L78
.L84:
	.loc 1 853 20
	lw	a5,-24(s0)
	lbu	a5,40(a5)
	.loc 1 853 31
	andi	a5,a5,2
	.loc 1 853 9
	bne	a5,zero,.L89
	.loc 1 855 8
	lw	a0,-24(s0)
	call	vPortFree
	.loc 1 871 6
	j	.L78
.L89:
	.loc 1 859 15
	lw	a5,-24(s0)
	lbu	a5,40(a5)
	.loc 1 859 26
	andi	a5,a5,-2
	andi	a4,a5,0xff
	lw	a5,-24(s0)
	sb	a4,40(a5)
	.loc 1 871 6
	j	.L78
.L92:
	.loc 1 875 6
	nop
	j	.L78
.L93:
	.loc 1 824 6
	nop
.L78:
	.loc 1 741 9
	lui	a5,%hi(xTimerQueue)
	lw	a5,%lo(xTimerQueue)(a5)
	addi	a4,s0,-48
	li	a2,0
	mv	a1,a4
	mv	a0,a5
	call	xQueueReceive
	mv	a5,a0
	.loc 1 741 68 discriminator 1
	bne	a5,zero,.L91
	.loc 1 879 1
	nop
	nop
	lw	ra,60(sp)
	.cfi_restore 1
	lw	s0,56(sp)
	.cfi_restore 8
	.cfi_def_cfa 2, 64
	addi	sp,sp,64
	.cfi_def_cfa_offset 0
	jr	ra
	.cfi_endproc
.LFE18:
	.size	prvProcessReceivedCommands, .-prvProcessReceivedCommands
	.section	.text.prvSwitchTimerLists,"ax",@progbits
	.align	1
	.type	prvSwitchTimerLists, @function
prvSwitchTimerLists:
.LFB19:
	.loc 1 883 1
	.cfi_startproc
	addi	sp,sp,-48
	.cfi_def_cfa_offset 48
	sw	ra,44(sp)
	sw	s0,40(sp)
	.cfi_offset 1, -4
	.cfi_offset 8, -8
	addi	s0,sp,48
	.cfi_def_cfa 8, 0
	.loc 1 893 7
	j	.L96
.L99:
	.loc 1 895 47
	lui	a5,%hi(pxCurrentTimerList)
	lw	a5,%lo(pxCurrentTimerList)(a5)
	.loc 1 895 59
	lw	a5,12(a5)
	.loc 1 895 19
	lw	a5,0(a5)
	sw	a5,-24(s0)
	.loc 1 898 55
	lui	a5,%hi(pxCurrentTimerList)
	lw	a5,%lo(pxCurrentTimerList)(a5)
	.loc 1 898 68
	lw	a5,12(a5)
	.loc 1 898 11
	lw	a5,12(a5)
	sw	a5,-28(s0)
	.loc 1 899 26
	lw	a5,-28(s0)
	addi	a5,a5,4
	.loc 1 899 12
	mv	a0,a5
	call	uxListRemove
	.loc 1 905 10
	lw	a5,-28(s0)
	lw	a5,32(a5)
	.loc 1 905 3
	lw	a0,-28(s0)
	jalr	a5
.LVL3:
	.loc 1 907 16
	lw	a5,-28(s0)
	lbu	a5,40(a5)
	.loc 1 907 27
	andi	a5,a5,4
	.loc 1 907 5
	beq	a5,zero,.L96
	.loc 1 915 45
	lw	a5,-28(s0)
	lw	a5,24(a5)
	.loc 1 915 16
	lw	a4,-24(s0)
	add	a5,a4,a5
	sw	a5,-32(s0)
	.loc 1 916 6
	lw	a4,-32(s0)
	lw	a5,-24(s0)
	bleu	a4,a5,.L97
	.loc 1 918 52
	lw	a5,-28(s0)
	lw	a4,-32(s0)
	sw	a4,4(a5)
	.loc 1 919 49
	lw	a5,-28(s0)
	lw	a4,-28(s0)
	sw	a4,16(a5)
	.loc 1 920 5
	lui	a5,%hi(pxCurrentTimerList)
	lw	a4,%lo(pxCurrentTimerList)(a5)
	.loc 1 920 38
	lw	a5,-28(s0)
	addi	a5,a5,4
	.loc 1 920 5
	mv	a1,a5
	mv	a0,a4
	call	vListInsert
	j	.L96
.L97:
	.loc 1 924 15
	li	a4,0
	li	a3,0
	lw	a2,-24(s0)
	li	a1,0
	lw	a0,-28(s0)
	call	xTimerGenericCommand
	sw	a0,-36(s0)
	.loc 1 925 7
	lw	a5,-36(s0)
	bne	a5,zero,.L96
	.loc 1 925 28 discriminator 1
	call	vAssertCalled
.L96:
	.loc 1 893 35
	lui	a5,%hi(pxCurrentTimerList)
	lw	a5,%lo(pxCurrentTimerList)(a5)
	lw	a5,0(a5)
	.loc 1 893 124
	bne	a5,zero,.L99
	.loc 1 935 9
	lui	a5,%hi(pxCurrentTimerList)
	lw	a5,%lo(pxCurrentTimerList)(a5)
	sw	a5,-20(s0)
	.loc 1 936 21
	lui	a5,%hi(pxOverflowTimerList)
	lw	a4,%lo(pxOverflowTimerList)(a5)
	lui	a5,%hi(pxCurrentTimerList)
	sw	a4,%lo(pxCurrentTimerList)(a5)
	.loc 1 937 22
	lui	a5,%hi(pxOverflowTimerList)
	lw	a4,-20(s0)
	sw	a4,%lo(pxOverflowTimerList)(a5)
	.loc 1 938 1
	nop
	lw	ra,44(sp)
	.cfi_restore 1
	lw	s0,40(sp)
	.cfi_restore 8
	.cfi_def_cfa 2, 48
	addi	sp,sp,48
	.cfi_def_cfa_offset 0
	jr	ra
	.cfi_endproc
.LFE19:
	.size	prvSwitchTimerLists, .-prvSwitchTimerLists
	.section	.rodata
	.align	2
.LC1:
	.string	"TmrQ"
	.section	.text.prvCheckForValidListAndQueue,"ax",@progbits
	.align	1
	.type	prvCheckForValidListAndQueue, @function
prvCheckForValidListAndQueue:
.LFB20:
	.loc 1 942 1
	.cfi_startproc
	addi	sp,sp,-16
	.cfi_def_cfa_offset 16
	sw	ra,12(sp)
	sw	s0,8(sp)
	.cfi_offset 1, -4
	.cfi_offset 8, -8
	addi	s0,sp,16
	.cfi_def_cfa 8, 0
	.loc 1 946 2
	call	vTaskEnterCritical
	.loc 1 948 19
	lui	a5,%hi(xTimerQueue)
	lw	a5,%lo(xTimerQueue)(a5)
	.loc 1 948 5
	bne	a5,zero,.L101
	.loc 1 950 4
	lui	a5,%hi(xActiveTimerList1)
	addi	a0,a5,%lo(xActiveTimerList1)
	call	vListInitialise
	.loc 1 951 4
	lui	a5,%hi(xActiveTimerList2)
	addi	a0,a5,%lo(xActiveTimerList2)
	call	vListInitialise
	.loc 1 952 23
	lui	a5,%hi(pxCurrentTimerList)
	lui	a4,%hi(xActiveTimerList1)
	addi	a4,a4,%lo(xActiveTimerList1)
	sw	a4,%lo(pxCurrentTimerList)(a5)
	.loc 1 953 24
	lui	a5,%hi(pxOverflowTimerList)
	lui	a4,%hi(xActiveTimerList2)
	addi	a4,a4,%lo(xActiveTimerList2)
	sw	a4,%lo(pxOverflowTimerList)(a5)
.LBB5:
	.loc 1 962 19
	li	a4,0
	lui	a5,%hi(xStaticTimerQueue.0)
	addi	a3,a5,%lo(xStaticTimerQueue.0)
	lui	a5,%hi(ucStaticTimerQueueStorage.1)
	addi	a2,a5,%lo(ucStaticTimerQueueStorage.1)
	li	a1,16
	li	a0,4
	call	xQueueGenericCreateStatic
	mv	a4,a0
	.loc 1 962 17 discriminator 1
	lui	a5,%hi(xTimerQueue)
	sw	a4,%lo(xTimerQueue)(a5)
.LBE5:
	.loc 1 972 21
	lui	a5,%hi(xTimerQueue)
	lw	a5,%lo(xTimerQueue)(a5)
	.loc 1 972 7
	beq	a5,zero,.L101
	.loc 1 974 6
	lui	a5,%hi(xTimerQueue)
	lw	a4,%lo(xTimerQueue)(a5)
	lui	a5,%hi(.LC1)
	addi	a1,a5,%lo(.LC1)
	mv	a0,a4
	call	vQueueAddToRegistry
.L101:
	.loc 1 988 2
	call	vTaskExitCritical
	.loc 1 989 1
	nop
	lw	ra,12(sp)
	.cfi_restore 1
	lw	s0,8(sp)
	.cfi_restore 8
	.cfi_def_cfa 2, 16
	addi	sp,sp,16
	.cfi_def_cfa_offset 0
	jr	ra
	.cfi_endproc
.LFE20:
	.size	prvCheckForValidListAndQueue, .-prvCheckForValidListAndQueue
	.section	.text.xTimerIsTimerActive,"ax",@progbits
	.align	1
	.globl	xTimerIsTimerActive
	.type	xTimerIsTimerActive, @function
xTimerIsTimerActive:
.LFB21:
	.loc 1 993 1
	.cfi_startproc
	addi	sp,sp,-48
	.cfi_def_cfa_offset 48
	sw	ra,44(sp)
	sw	s0,40(sp)
	.cfi_offset 1, -4
	.cfi_offset 8, -8
	addi	s0,sp,48
	.cfi_def_cfa 8, 0
	sw	a0,-36(s0)
	.loc 1 995 10
	lw	a5,-36(s0)
	sw	a5,-24(s0)
	.loc 1 997 4
	lw	a5,-36(s0)
	bne	a5,zero,.L103
	.loc 1 997 24 discriminator 1
	call	vAssertCalled
.L103:
	.loc 1 1000 2
	call	vTaskEnterCritical
	.loc 1 1002 16
	lw	a5,-24(s0)
	lbu	a5,40(a5)
	.loc 1 1002 27
	andi	a5,a5,1
	.loc 1 1002 5
	bne	a5,zero,.L104
	.loc 1 1004 12
	sw	zero,-20(s0)
	j	.L105
.L104:
	.loc 1 1008 12
	li	a5,1
	sw	a5,-20(s0)
.L105:
	.loc 1 1011 2
	call	vTaskExitCritical
	.loc 1 1013 9
	lw	a5,-20(s0)
	.loc 1 1014 1
	mv	a0,a5
	lw	ra,44(sp)
	.cfi_restore 1
	lw	s0,40(sp)
	.cfi_restore 8
	.cfi_def_cfa 2, 48
	addi	sp,sp,48
	.cfi_def_cfa_offset 0
	jr	ra
	.cfi_endproc
.LFE21:
	.size	xTimerIsTimerActive, .-xTimerIsTimerActive
	.section	.text.pvTimerGetTimerID,"ax",@progbits
	.align	1
	.globl	pvTimerGetTimerID
	.type	pvTimerGetTimerID, @function
pvTimerGetTimerID:
.LFB22:
	.loc 1 1018 1
	.cfi_startproc
	addi	sp,sp,-48
	.cfi_def_cfa_offset 48
	sw	ra,44(sp)
	sw	s0,40(sp)
	.cfi_offset 1, -4
	.cfi_offset 8, -8
	addi	s0,sp,48
	.cfi_def_cfa 8, 0
	sw	a0,-36(s0)
	.loc 1 1019 17
	lw	a5,-36(s0)
	sw	a5,-20(s0)
	.loc 1 1022 4
	lw	a5,-36(s0)
	bne	a5,zero,.L108
	.loc 1 1022 24 discriminator 1
	call	vAssertCalled
.L108:
	.loc 1 1024 2
	call	vTaskEnterCritical
	.loc 1 1026 12
	lw	a5,-20(s0)
	lw	a5,28(a5)
	sw	a5,-24(s0)
	.loc 1 1028 2
	call	vTaskExitCritical
	.loc 1 1030 9
	lw	a5,-24(s0)
	.loc 1 1031 1
	mv	a0,a5
	lw	ra,44(sp)
	.cfi_restore 1
	lw	s0,40(sp)
	.cfi_restore 8
	.cfi_def_cfa 2, 48
	addi	sp,sp,48
	.cfi_def_cfa_offset 0
	jr	ra
	.cfi_endproc
.LFE22:
	.size	pvTimerGetTimerID, .-pvTimerGetTimerID
	.section	.text.vTimerSetTimerID,"ax",@progbits
	.align	1
	.globl	vTimerSetTimerID
	.type	vTimerSetTimerID, @function
vTimerSetTimerID:
.LFB23:
	.loc 1 1035 1
	.cfi_startproc
	addi	sp,sp,-48
	.cfi_def_cfa_offset 48
	sw	ra,44(sp)
	sw	s0,40(sp)
	.cfi_offset 1, -4
	.cfi_offset 8, -8
	addi	s0,sp,48
	.cfi_def_cfa 8, 0
	sw	a0,-36(s0)
	sw	a1,-40(s0)
	.loc 1 1036 17
	lw	a5,-36(s0)
	sw	a5,-20(s0)
	.loc 1 1038 4
	lw	a5,-36(s0)
	bne	a5,zero,.L111
	.loc 1 1038 24 discriminator 1
	call	vAssertCalled
.L111:
	.loc 1 1040 2
	call	vTaskEnterCritical
	.loc 1 1042 22
	lw	a5,-20(s0)
	lw	a4,-40(s0)
	sw	a4,28(a5)
	.loc 1 1044 2
	call	vTaskExitCritical
	.loc 1 1045 1
	nop
	lw	ra,44(sp)
	.cfi_restore 1
	lw	s0,40(sp)
	.cfi_restore 8
	.cfi_def_cfa 2, 48
	addi	sp,sp,48
	.cfi_def_cfa_offset 0
	jr	ra
	.cfi_endproc
.LFE23:
	.size	vTimerSetTimerID, .-vTimerSetTimerID
	.section	.text.xTimerPendFunctionCallFromISR,"ax",@progbits
	.align	1
	.globl	xTimerPendFunctionCallFromISR
	.type	xTimerPendFunctionCallFromISR, @function
xTimerPendFunctionCallFromISR:
.LFB24:
	.loc 1 1051 2
	.cfi_startproc
	addi	sp,sp,-64
	.cfi_def_cfa_offset 64
	sw	ra,60(sp)
	sw	s0,56(sp)
	.cfi_offset 1, -4
	.cfi_offset 8, -8
	addi	s0,sp,64
	.cfi_def_cfa 8, 0
	sw	a0,-52(s0)
	sw	a1,-56(s0)
	sw	a2,-60(s0)
	sw	a3,-64(s0)
	.loc 1 1057 23
	li	a5,-2
	sw	a5,-36(s0)
	.loc 1 1058 53
	lw	a5,-52(s0)
	sw	a5,-32(s0)
	.loc 1 1059 47
	lw	a5,-56(s0)
	sw	a5,-28(s0)
	.loc 1 1060 47
	lw	a5,-60(s0)
	sw	a5,-24(s0)
	.loc 1 1062 13
	lui	a5,%hi(xTimerQueue)
	lw	a5,%lo(xTimerQueue)(a5)
	addi	a4,s0,-36
	li	a3,0
	lw	a2,-64(s0)
	mv	a1,a4
	mv	a0,a5
	call	xQueueGenericSendFromISR
	sw	a0,-20(s0)
	.loc 1 1066 10
	lw	a5,-20(s0)
	.loc 1 1067 2
	mv	a0,a5
	lw	ra,60(sp)
	.cfi_restore 1
	lw	s0,56(sp)
	.cfi_restore 8
	.cfi_def_cfa 2, 64
	addi	sp,sp,64
	.cfi_def_cfa_offset 0
	jr	ra
	.cfi_endproc
.LFE24:
	.size	xTimerPendFunctionCallFromISR, .-xTimerPendFunctionCallFromISR
	.section	.text.xTimerPendFunctionCall,"ax",@progbits
	.align	1
	.globl	xTimerPendFunctionCall
	.type	xTimerPendFunctionCall, @function
xTimerPendFunctionCall:
.LFB25:
	.loc 1 1075 2
	.cfi_startproc
	addi	sp,sp,-64
	.cfi_def_cfa_offset 64
	sw	ra,60(sp)
	sw	s0,56(sp)
	.cfi_offset 1, -4
	.cfi_offset 8, -8
	addi	s0,sp,64
	.cfi_def_cfa 8, 0
	sw	a0,-52(s0)
	sw	a1,-56(s0)
	sw	a2,-60(s0)
	sw	a3,-64(s0)
	.loc 1 1082 23
	lui	a5,%hi(xTimerQueue)
	lw	a5,%lo(xTimerQueue)(a5)
	.loc 1 1082 5
	bne	a5,zero,.L115
	.loc 1 1082 30 discriminator 1
	call	vAssertCalled
.L115:
	.loc 1 1086 23
	li	a5,-1
	sw	a5,-36(s0)
	.loc 1 1087 53
	lw	a5,-52(s0)
	sw	a5,-32(s0)
	.loc 1 1088 47
	lw	a5,-56(s0)
	sw	a5,-28(s0)
	.loc 1 1089 47
	lw	a5,-60(s0)
	sw	a5,-24(s0)
	.loc 1 1091 13
	lui	a5,%hi(xTimerQueue)
	lw	a5,%lo(xTimerQueue)(a5)
	addi	a4,s0,-36
	li	a3,0
	lw	a2,-64(s0)
	mv	a1,a4
	mv	a0,a5
	call	xQueueGenericSend
	sw	a0,-20(s0)
	.loc 1 1095 10
	lw	a5,-20(s0)
	.loc 1 1096 2
	mv	a0,a5
	lw	ra,60(sp)
	.cfi_restore 1
	lw	s0,56(sp)
	.cfi_restore 8
	.cfi_def_cfa 2, 64
	addi	sp,sp,64
	.cfi_def_cfa_offset 0
	jr	ra
	.cfi_endproc
.LFE25:
	.size	xTimerPendFunctionCall, .-xTimerPendFunctionCall
	.section	.text.uxTimerGetTimerNumber,"ax",@progbits
	.align	1
	.globl	uxTimerGetTimerNumber
	.type	uxTimerGetTimerNumber, @function
uxTimerGetTimerNumber:
.LFB26:
	.loc 1 1104 2
	.cfi_startproc
	addi	sp,sp,-32
	.cfi_def_cfa_offset 32
	sw	ra,28(sp)
	sw	s0,24(sp)
	.cfi_offset 1, -4
	.cfi_offset 8, -8
	addi	s0,sp,32
	.cfi_def_cfa 8, 0
	sw	a0,-20(s0)
	.loc 1 1105 34
	lw	a5,-20(s0)
	lw	a5,36(a5)
	.loc 1 1106 2
	mv	a0,a5
	lw	ra,28(sp)
	.cfi_restore 1
	lw	s0,24(sp)
	.cfi_restore 8
	.cfi_def_cfa 2, 32
	addi	sp,sp,32
	.cfi_def_cfa_offset 0
	jr	ra
	.cfi_endproc
.LFE26:
	.size	uxTimerGetTimerNumber, .-uxTimerGetTimerNumber
	.section	.text.vTimerSetTimerNumber,"ax",@progbits
	.align	1
	.globl	vTimerSetTimerNumber
	.type	vTimerSetTimerNumber, @function
vTimerSetTimerNumber:
.LFB27:
	.loc 1 1114 2
	.cfi_startproc
	addi	sp,sp,-32
	.cfi_def_cfa_offset 32
	sw	ra,28(sp)
	sw	s0,24(sp)
	.cfi_offset 1, -4
	.cfi_offset 8, -8
	addi	s0,sp,32
	.cfi_def_cfa 8, 0
	sw	a0,-20(s0)
	sw	a1,-24(s0)
	.loc 1 1115 43
	lw	a5,-20(s0)
	lw	a4,-24(s0)
	sw	a4,36(a5)
	.loc 1 1116 2
	nop
	lw	ra,28(sp)
	.cfi_restore 1
	lw	s0,24(sp)
	.cfi_restore 8
	.cfi_def_cfa 2, 32
	addi	sp,sp,32
	.cfi_def_cfa_offset 0
	jr	ra
	.cfi_endproc
.LFE27:
	.size	vTimerSetTimerNumber, .-vTimerSetTimerNumber
	.section	.sbss.xLastTime.2,"aw",@nobits
	.align	2
	.type	xLastTime.2, @object
	.size	xLastTime.2, 4
xLastTime.2:
	.zero	4
	.section	.bss.ucStaticTimerQueueStorage.1,"aw",@nobits
	.align	2
	.type	ucStaticTimerQueueStorage.1, @object
	.size	ucStaticTimerQueueStorage.1, 64
ucStaticTimerQueueStorage.1:
	.zero	64
	.section	.bss.xStaticTimerQueue.0,"aw",@nobits
	.align	2
	.type	xStaticTimerQueue.0, @object
	.size	xStaticTimerQueue.0, 80
xStaticTimerQueue.0:
	.zero	80
	.text
.Letext0:
	.file 2 "/home/chandu/sdk/bl602_iot_sdk/toolchain/compiler/lib/gcc/riscv32-unknown-elf/15.1.0/include/stddef.h"
	.file 3 "/home/chandu/sdk/bl602_iot_sdk/toolchain/compiler/lib/gcc/riscv32-unknown-elf/15.1.0/include/stdint-gcc.h"
	.file 4 "/home/chandu/sdk/bl602_iot_sdk/components/freertos/include/projdefs.h"
	.file 5 "/home/chandu/sdk/bl602_iot_sdk/components/freertos/portable/GCC/RISC-V/portmacro.h"
	.file 6 "/home/chandu/sdk/bl602_iot_sdk/components/freertos/include/FreeRTOS.h"
	.file 7 "/home/chandu/sdk/bl602_iot_sdk/components/freertos/include/list.h"
	.file 8 "/home/chandu/sdk/bl602_iot_sdk/components/freertos/include/task.h"
	.file 9 "/home/chandu/sdk/bl602_iot_sdk/components/freertos/include/queue.h"
	.file 10 "/home/chandu/sdk/bl602_iot_sdk/components/freertos/include/timers.h"
	.file 11 "/home/chandu/sdk/bl602_iot_sdk/components/freertos/include/portable.h"
	.file 12 "/home/chandu/sdk/bl602_iot_sdk/components/freertos/include/FreeRTOSConfig.h"
	.section	.note.GNU-stack,"",@progbits
