	.file	"dns_server.c"
	.option nopic
	.attribute arch, "rv32i2p1_m2p0_f2p2_c2p0_zicsr2p0_zmmul1p0_zca1p0_zcf1p0"
	.attribute unaligned_access, 0
	.attribute stack_align, 16
	.text
.Ltext0:
	.cfi_sections	.debug_frame
	.file 0 "/home/chandu/sdk/bl602_iot_sdk/customer_app/suas_app_pqkem_gateway/build_out/dns_server" "/home/chandu/sdk/bl602_iot_sdk/components/network/dns_server/src/dns_server.c"
	.section	.rodata
	.align	2
.LC0:
	.half	0
	.half	-32384
	.half	1
	.half	1
	.half	0
	.half	0
	.half	1
	.half	1
	.half	-16372
	.half	1
	.half	1
	.half	0
	.word	3932164
	.word	-1062688511
	.section	.text.dns_server_send,"ax",@progbits
	.align	1
	.type	dns_server_send, @function
dns_server_send:
.LFB6:
	.file 1 "/home/chandu/sdk/bl602_iot_sdk/components/network/dns_server/src/dns_server.c"
	.loc 1 75 1
	.cfi_startproc
	addi	sp,sp,-128
	.cfi_def_cfa_offset 128
	sw	ra,124(sp)
	sw	s0,120(sp)
	.cfi_offset 1, -4
	.cfi_offset 8, -8
	addi	s0,sp,128
	.cfi_def_cfa 8, 0
	sw	a0,-116(s0)
	.loc 1 76 18
	sw	zero,-28(s0)
	.loc 1 82 28
	lui	a5,%hi(.LC0)
	addi	a5,a5,%lo(.LC0)
	lw	a7,0(a5)
	lw	a6,4(a5)
	lw	a0,8(a5)
	lw	a1,12(a5)
	lw	a2,16(a5)
	lw	a3,20(a5)
	lw	a4,24(a5)
	sw	a7,-104(s0)
	sw	a6,-100(s0)
	sw	a0,-96(s0)
	sw	a1,-92(s0)
	sw	a2,-88(s0)
	sw	a3,-84(s0)
	sw	a4,-80(s0)
	lw	a5,28(a5)
	sw	a5,-76(s0)
	.loc 1 98 29
	addi	a5,s0,-104
	sw	a5,-32(s0)
	.loc 1 100 10
	li	a2,640
	li	a1,512
	li	a0,182
	call	pbuf_alloc
	sw	a0,-28(s0)
	.loc 1 101 8
	lw	a5,-28(s0)
	beq	a5,zero,.L7
	.loc 1 102 9
	addi	a5,s0,-52
	li	a2,12
	li	a1,0
	mv	a0,a5
	call	memset
	.loc 1 104 36
	lw	a5,-116(s0)
	lhu	a5,256(a5)
	.loc 1 104 18
	mv	a0,a5
	call	lwip_htons
	mv	a5,a0
	.loc 1 104 16 discriminator 1
	sh	a5,-52(s0)
	.loc 1 105 36
	lw	a5,-32(s0)
	lhu	a5,2(a5)
	.loc 1 105 20
	mv	a0,a5
	call	lwip_htons
	mv	a5,a0
	.loc 1 105 18 discriminator 1
	sh	a5,-50(s0)
	.loc 1 106 44
	lw	a5,-32(s0)
	lhu	a5,4(a5)
	.loc 1 106 28
	mv	a0,a5
	call	lwip_htons
	mv	a5,a0
	.loc 1 106 26 discriminator 1
	sh	a5,-48(s0)
	.loc 1 107 42
	lw	a5,-32(s0)
	lhu	a5,6(a5)
	.loc 1 107 26
	mv	a0,a5
	call	lwip_htons
	mv	a5,a0
	.loc 1 107 24 discriminator 1
	sh	a5,-46(s0)
	.loc 1 108 41
	lw	a5,-32(s0)
	lhu	a5,8(a5)
	.loc 1 108 25
	mv	a0,a5
	call	lwip_htons
	mv	a5,a0
	.loc 1 108 23 discriminator 1
	sh	a5,-44(s0)
	.loc 1 109 42
	lw	a5,-32(s0)
	lhu	a5,10(a5)
	.loc 1 109 26
	mv	a0,a5
	call	lwip_htons
	mv	a5,a0
	.loc 1 109 24 discriminator 1
	sh	a5,-42(s0)
	.loc 1 110 9
	addi	a5,s0,-52
	li	a2,12
	mv	a1,a5
	lw	a0,-28(s0)
	call	pbuf_take
	.loc 1 112 18
	lw	a5,-116(s0)
	sw	a5,-24(s0)
	.loc 1 113 9
	lw	a5,-24(s0)
	addi	a5,a5,-1
	sw	a5,-24(s0)
	.loc 1 114 19
	li	a5,12
	sh	a5,-20(s0)
.L6:
	.loc 1 116 13
	lw	a5,-24(s0)
	addi	a5,a5,1
	sw	a5,-24(s0)
	.loc 1 117 27
	lw	a5,-24(s0)
	sw	a5,-36(s0)
	.loc 1 118 20
	sb	zero,-17(s0)
	.loc 1 118 13
	j	.L3
.L5:
	.loc 1 119 17
	lbu	a5,-17(s0)
	addi	a5,a5,1
	sb	a5,-17(s0)
	.loc 1 118 61 discriminator 4
	lw	a5,-24(s0)
	addi	a5,a5,1
	sw	a5,-24(s0)
.L3:
	.loc 1 118 25 discriminator 1
	lw	a5,-24(s0)
	lbu	a4,0(a5)
	.loc 1 118 42 discriminator 1
	li	a5,46
	beq	a4,a5,.L4
	.loc 1 118 45 discriminator 3
	lw	a5,-24(s0)
	lbu	a5,0(a5)
	.loc 1 118 42 discriminator 3
	bne	a5,zero,.L5
.L4:
	.loc 1 121 41
	lw	a4,-24(s0)
	lw	a5,-36(s0)
	sub	a5,a4,a5
	.loc 1 121 22
	sh	a5,-38(s0)
	.loc 1 122 13
	lbu	a4,-17(s0)
	lhu	a5,-20(s0)
	mv	a2,a4
	mv	a1,a5
	lw	a0,-28(s0)
	call	pbuf_put_at
	.loc 1 123 13
	lhu	a5,-20(s0)
	addi	a5,a5,1
	slli	a4,a5,16
	srli	a4,a4,16
	lhu	a5,-38(s0)
	mv	a3,a4
	mv	a2,a5
	lw	a1,-36(s0)
	lw	a0,-28(s0)
	call	pbuf_take_at
	.loc 1 124 23
	lbu	a5,-17(s0)
	slli	a5,a5,16
	srli	a5,a5,16
	lhu	a4,-20(s0)
	add	a5,a5,a4
	slli	a5,a5,16
	srli	a5,a5,16
	addi	a5,a5,1
	sh	a5,-20(s0)
	.loc 1 125 18
	lw	a5,-24(s0)
	lbu	a5,0(a5)
	.loc 1 125 28
	bne	a5,zero,.L6
	.loc 1 126 9
	lhu	a5,-20(s0)
	li	a2,0
	mv	a1,a5
	lw	a0,-28(s0)
	call	pbuf_put_at
	.loc 1 127 18
	lhu	a5,-20(s0)
	addi	a5,a5,1
	sh	a5,-20(s0)
	.loc 1 129 35
	lw	a5,-32(s0)
	lhu	a5,12(a5)
	.loc 1 129 19
	mv	a0,a5
	call	lwip_htons
	mv	a5,a0
	.loc 1 129 17 discriminator 1
	sh	a5,-72(s0)
	.loc 1 130 35
	lw	a5,-32(s0)
	lhu	a5,14(a5)
	.loc 1 130 19
	mv	a0,a5
	call	lwip_htons
	mv	a5,a0
	.loc 1 130 17 discriminator 1
	sh	a5,-70(s0)
	.loc 1 131 37
	lw	a5,-32(s0)
	lhu	a5,16(a5)
	.loc 1 131 21
	mv	a0,a5
	call	lwip_htons
	mv	a5,a0
	.loc 1 131 19 discriminator 1
	sh	a5,-68(s0)
	.loc 1 132 37
	lw	a5,-32(s0)
	lhu	a5,18(a5)
	.loc 1 132 21
	mv	a0,a5
	call	lwip_htons
	mv	a5,a0
	.loc 1 132 19 discriminator 1
	sh	a5,-66(s0)
	.loc 1 133 38
	lw	a5,-32(s0)
	lhu	a5,20(a5)
	.loc 1 133 22
	mv	a0,a5
	call	lwip_htons
	mv	a5,a0
	.loc 1 133 20 discriminator 1
	sh	a5,-64(s0)
	.loc 1 134 35
	lw	a5,-32(s0)
	lhu	a5,22(a5)
	.loc 1 134 19
	mv	a0,a5
	call	lwip_htons
	mv	a5,a0
	.loc 1 134 17 discriminator 1
	sh	a5,-62(s0)
	.loc 1 135 36
	lw	a5,-32(s0)
	lw	a5,24(a5)
	.loc 1 135 20
	mv	a0,a5
	call	lwip_htonl
	mv	a5,a0
	.loc 1 135 18 discriminator 1
	sw	a5,-60(s0)
	.loc 1 136 36
	lw	a5,-32(s0)
	lw	a5,28(a5)
	.loc 1 136 20
	mv	a0,a5
	call	lwip_htonl
	mv	a5,a0
	.loc 1 136 18 discriminator 1
	sw	a5,-56(s0)
	.loc 1 137 9
	lhu	a4,-20(s0)
	addi	a5,s0,-72
	mv	a3,a4
	li	a2,20
	mv	a1,a5
	lw	a0,-28(s0)
	call	pbuf_take_at
	.loc 1 139 9
	lhu	a5,-20(s0)
	addi	a5,a5,20
	slli	a5,a5,16
	srli	a5,a5,16
	mv	a1,a5
	lw	a0,-28(s0)
	call	pbuf_realloc
	.loc 1 140 9
	lw	a5,-116(s0)
	lw	a4,264(a5)
	lw	a5,-116(s0)
	lw	a2,268(a5)
	lw	a5,-116(s0)
	lhu	a5,272(a5)
	mv	a3,a5
	lw	a1,-28(s0)
	mv	a0,a4
	call	udp_sendto
	.loc 1 141 9
	lw	a0,-28(s0)
	call	pbuf_free
.L7:
	.loc 1 143 1
	nop
	lw	ra,124(sp)
	.cfi_restore 1
	lw	s0,120(sp)
	.cfi_restore 8
	.cfi_def_cfa 2, 128
	addi	sp,sp,128
	.cfi_def_cfa_offset 0
	jr	ra
	.cfi_endproc
.LFE6:
	.size	dns_server_send, .-dns_server_send
	.section	.text.get_dns_request,"ax",@progbits
	.align	1
	.globl	get_dns_request
	.type	get_dns_request, @function
get_dns_request:
.LFB7:
	.loc 1 146 1
	.cfi_startproc
	addi	sp,sp,-80
	.cfi_def_cfa_offset 80
	sw	ra,76(sp)
	sw	s0,72(sp)
	.cfi_offset 1, -4
	.cfi_offset 8, -8
	addi	s0,sp,80
	.cfi_def_cfa 8, 0
	sw	a0,-52(s0)
	sw	a1,-56(s0)
	sw	a2,-60(s0)
	sw	a3,-64(s0)
	mv	a5,a4
	sh	a5,-66(s0)
	.loc 1 148 28
	lw	a5,-52(s0)
	sw	a5,-20(s0)
	.loc 1 151 20
	lw	a5,-20(s0)
	lw	a4,-56(s0)
	sw	a4,264(a5)
	.loc 1 152 20
	lw	a5,-20(s0)
	lw	a4,-64(s0)
	sw	a4,268(a5)
	.loc 1 153 20
	lw	a5,-20(s0)
	lhu	a4,-66(s0)
	sh	a4,272(a5)
	.loc 1 155 10
	lw	a5,-60(s0)
	lhu	a4,8(a5)
	.loc 1 155 8
	li	a5,11
	bleu	a4,a5,.L9
	.loc 1 159 9
	addi	a5,s0,-32
	li	a3,0
	li	a2,12
	mv	a1,a5
	lw	a0,-60(s0)
	call	pbuf_copy_partial
	.loc 1 160 39
	lhu	a5,-32(s0)
	.loc 1 160 25
	mv	a0,a5
	call	lwip_htons
	mv	a5,a0
	mv	a4,a5
	.loc 1 160 23 discriminator 1
	lw	a5,-20(s0)
	sh	a4,256(a5)
	.loc 1 161 45
	lhu	a5,-28(s0)
	.loc 1 161 31
	mv	a0,a5
	call	lwip_htons
	mv	a5,a0
	mv	a4,a5
	.loc 1 161 29 discriminator 1
	lw	a5,-20(s0)
	sh	a4,258(a5)
	.loc 1 164 20
	lw	a1,-20(s0)
	.loc 1 165 20
	lw	a5,-60(s0)
	lhu	a5,8(a5)
	.loc 1 165 86
	slli	a3,a5,16
	srli	a3,a3,16
	li	a4,255
	bleu	a3,a4,.L10
	li	a5,255
.L10:
	slli	a5,a5,16
	srli	a5,a5,16
	.loc 1 165 17
	sw	a5,-36(s0)
	lw	a5,-36(s0)
	.loc 1 162 9
	slli	a5,a5,16
	srli	a5,a5,16
	li	a3,12
	mv	a2,a5
	lw	a0,-60(s0)
	call	pbuf_copy_partial
	.loc 1 168 46
	lw	a5,-20(s0)
	.loc 1 168 61
	lw	a4,-20(s0)
	.loc 1 168 18
	addi	a3,s0,-36
	mv	a2,a3
	mv	a1,a4
	mv	a0,a5
	call	utils_dns_domain_get
	mv	a5,a0
	.loc 1 168 12 discriminator 1
	bne	a5,zero,.L9
	.loc 1 169 21
	lw	a5,-36(s0)
	.loc 1 169 16
	ble	a5,zero,.L11
	.loc 1 169 53 discriminator 1
	lw	a5,-36(s0)
	addi	a5,a5,-1
	.loc 1 169 48 discriminator 1
	lw	a4,-20(s0)
	add	a5,a4,a5
	lbu	a4,0(a5)
	.loc 1 169 25 discriminator 1
	li	a5,46
	bne	a4,a5,.L11
	.loc 1 170 20
	lw	a5,-36(s0)
	addi	a5,a5,-1
	sw	a5,-36(s0)
.L11:
	.loc 1 172 26
	lw	a5,-36(s0)
	.loc 1 172 32
	lw	a4,-20(s0)
	add	a5,a4,a5
	sb	zero,0(a5)
.L9:
	.loc 1 175 5
	lw	a0,-60(s0)
	call	pbuf_free
	.loc 1 177 5
	lw	a0,-20(s0)
	call	dns_server_send
	.loc 1 178 1
	nop
	lw	ra,76(sp)
	.cfi_restore 1
	lw	s0,72(sp)
	.cfi_restore 8
	.cfi_def_cfa 2, 80
	addi	sp,sp,80
	.cfi_def_cfa_offset 0
	jr	ra
	.cfi_endproc
.LFE7:
	.size	get_dns_request, .-get_dns_request
	.section	.text.dns_server_init,"ax",@progbits
	.align	1
	.globl	dns_server_init
	.type	dns_server_init, @function
dns_server_init:
.LFB8:
	.loc 1 181 1
	.cfi_startproc
	addi	sp,sp,-32
	.cfi_def_cfa_offset 32
	sw	ra,28(sp)
	sw	s0,24(sp)
	.cfi_offset 1, -4
	.cfi_offset 8, -8
	addi	s0,sp,32
	.cfi_def_cfa 8, 0
	.loc 1 186 12
	call	udp_new
	sw	a0,-20(s0)
	.loc 1 187 8
	lw	a5,-20(s0)
	beq	a5,zero,.L21
	.loc 1 190 11
	li	a2,53
	lui	a5,%hi(ip_addr_any)
	addi	a1,a5,%lo(ip_addr_any)
	lw	a0,-20(s0)
	call	udp_bind
	mv	a5,a0
	sb	a5,-21(s0)
	.loc 1 191 8
	lb	a5,-21(s0)
	bne	a5,zero,.L22
	.loc 1 194 15
	li	a0,276
	call	pvPortMalloc
	sw	a0,-28(s0)
	.loc 1 195 8
	lw	a5,-28(s0)
	beq	a5,zero,.L23
	.loc 1 198 5
	li	a2,4
	li	a1,0
	lw	a0,-28(s0)
	call	memset
	.loc 1 199 5
	lw	a2,-28(s0)
	lui	a5,%hi(get_dns_request)
	addi	a1,a5,%lo(get_dns_request)
	lw	a0,-20(s0)
	call	udp_recv
	.loc 1 200 5
	j	.L12
.L18:
.L22:
	.loc 1 192 9
	nop
	j	.L16
.L23:
	.loc 1 196 9
	nop
.L16:
	.loc 1 204 5
	lw	a0,-20(s0)
	call	udp_remove
	.loc 1 206 5
	j	.L24
.L21:
	.loc 1 188 9
	nop
.L14:
.L24:
	.loc 1 206 5
	nop
.L12:
	.loc 1 207 1
	lw	ra,28(sp)
	.cfi_restore 1
	lw	s0,24(sp)
	.cfi_restore 8
	.cfi_def_cfa 2, 32
	addi	sp,sp,32
	.cfi_def_cfa_offset 0
	jr	ra
	.cfi_endproc
.LFE8:
	.size	dns_server_init, .-dns_server_init
	.text
.Letext0:
	.file 2 "/home/chandu/sdk/bl602_iot_sdk/toolchain/compiler/lib/gcc/riscv32-unknown-elf/15.1.0/include/stddef.h"
	.file 3 "/home/chandu/sdk/bl602_iot_sdk/toolchain/compiler/lib/gcc/riscv32-unknown-elf/15.1.0/include/stdint-gcc.h"
	.file 4 "/home/chandu/sdk/bl602_iot_sdk/components/network/lwip/src/include/lwip/arch.h"
	.file 5 "/home/chandu/sdk/bl602_iot_sdk/components/network/lwip/src/include/lwip/err.h"
	.file 6 "/home/chandu/sdk/bl602_iot_sdk/components/network/lwip/src/include/lwip/pbuf.h"
	.file 7 "/home/chandu/sdk/bl602_iot_sdk/components/network/lwip/src/include/lwip/ip4_addr.h"
	.file 8 "/home/chandu/sdk/bl602_iot_sdk/components/network/lwip/src/include/lwip/ip_addr.h"
	.file 9 "/home/chandu/sdk/bl602_iot_sdk/components/network/lwip/src/include/lwip/udp.h"
	.file 10 "/home/chandu/sdk/bl602_iot_sdk/components/freertos/include/portable.h"
	.file 11 "/home/chandu/sdk/bl602_iot_sdk/components/utils/include/utils_dns.h"
	.file 12 "/home/chandu/sdk/bl602_iot_sdk/components/network/lwip/src/include/lwip/def.h"
	.file 13 "/home/chandu/sdk/bl602_iot_sdk/toolchain/compiler/riscv32-unknown-elf/include/string.h"
	.section	.note.GNU-stack,"",@progbits
