	.file	"web_server.c"
	.option nopic
	.attribute arch, "rv32i2p1_m2p0_f2p2_c2p0_zicsr2p0_zmmul1p0_zca1p0_zcf1p0"
	.attribute unaligned_access, 0
	.attribute stack_align, 16
	.text
.Ltext0:
	.cfi_sections	.debug_frame
	.file 0 "/home/chandu/sdk/bl602_iot_sdk/customer_app/suas_app_pqkem_gateway/build_out/dns_server" "/home/chandu/sdk/bl602_iot_sdk/components/network/dns_server/src/web_server.c"
	.section	.rodata.http_html_hdr,"a"
	.align	2
	.type	http_html_hdr, @object
	.size	http_html_hdr, 45
http_html_hdr:
	.string	"HTTP/1.1 200 OK\r\nContent-type: text/html\r\n\r\n"
	.section	.rodata.http_index_hml,"a"
	.align	2
	.type	http_index_hml, @object
	.size	http_index_hml, 352
http_index_hml:
	.ascii	"<!DOCTYPE html><html>\n<head>\n  <meta name=\"viewport\" con"
	.ascii	"tent=\"width=device-width, initial-scale"
	.string	"=1\">\n  <style type=\"text/css\">\n    html, body, iframe { margin: 0; padding: 0; height: 100%; }\n    iframe { display: block; width: 100%; border: none; }\n  </style>\n<title>HELLO BL602</title>\n</head>\n<body>\n<h1>Hello World, from BL602!</h1>\n</body>\n</html>\n"
	.section	.rodata
	.align	2
.LC0:
	.string	"the received data:\n%s\n"
	.section	.text.web_http_server,"ax",@progbits
	.align	1
	.type	web_http_server, @function
web_http_server:
.LFB6:
	.file 1 "/home/chandu/sdk/bl602_iot_sdk/components/network/dns_server/src/web_server.c"
	.loc 1 47 1
	.cfi_startproc
	addi	sp,sp,-48
	.cfi_def_cfa_offset 48
	sw	ra,44(sp)
	sw	s0,40(sp)
	.cfi_offset 1, -4
	.cfi_offset 8, -8
	addi	s0,sp,48
	.cfi_def_cfa 8, 0
	sw	a0,-36(s0)
	.loc 1 53 9
	addi	a5,s0,-24
	mv	a1,a5
	lw	a0,-36(s0)
	call	netconn_recv
	mv	a5,a0
	sb	a5,-17(s0)
	.loc 1 54 6
	lb	a5,-17(s0)
	bne	a5,zero,.L2
	.loc 1 55 5
	lw	a5,-24(s0)
	addi	a3,s0,-30
	addi	a4,s0,-28
	mv	a2,a3
	mv	a1,a4
	mv	a0,a5
	call	netbuf_data
	.loc 1 56 5
	lw	a5,-28(s0)
	mv	a1,a5
	lui	a5,%hi(.LC0)
	addi	a0,a5,%lo(.LC0)
	call	printf
	.loc 1 58 16
	lhu	a4,-30(s0)
	.loc 1 58 8
	li	a5,4
	bleu	a4,a5,.L2
	.loc 1 58 27 discriminator 1
	lw	a5,-28(s0)
	lbu	a4,0(a5)
	.loc 1 58 21 discriminator 1
	li	a5,71
	bne	a4,a5,.L2
	.loc 1 58 44 discriminator 2
	lw	a5,-28(s0)
	addi	a5,a5,1
	lbu	a4,0(a5)
	.loc 1 58 38 discriminator 2
	li	a5,69
	bne	a4,a5,.L2
	.loc 1 58 61 discriminator 3
	lw	a5,-28(s0)
	addi	a5,a5,2
	lbu	a4,0(a5)
	.loc 1 58 55 discriminator 3
	li	a5,84
	bne	a4,a5,.L2
	.loc 1 58 78 discriminator 4
	lw	a5,-28(s0)
	addi	a5,a5,3
	lbu	a4,0(a5)
	.loc 1 58 72 discriminator 4
	li	a5,32
	bne	a4,a5,.L2
	.loc 1 58 95 discriminator 5
	lw	a5,-28(s0)
	addi	a5,a5,4
	lbu	a4,0(a5)
	.loc 1 58 89 discriminator 5
	li	a5,47
	bne	a4,a5,.L2
	.loc 1 59 7
	li	a4,0
	li	a3,0
	li	a2,44
	lui	a5,%hi(http_html_hdr)
	addi	a1,a5,%lo(http_html_hdr)
	lw	a0,-36(s0)
	call	netconn_write_partly
	.loc 1 61 13
	lw	a5,-28(s0)
	addi	a5,a5,5
	lbu	a4,0(a5)
	.loc 1 61 9
	li	a5,104
	bne	a4,a5,.L3
	.loc 1 62 9
	li	a4,0
	li	a3,0
	li	a2,351
	lui	a5,%hi(http_index_hml)
	addi	a1,a5,%lo(http_index_hml)
	lw	a0,-36(s0)
	call	netconn_write_partly
	j	.L2
.L3:
	.loc 1 64 18
	lw	a5,-28(s0)
	addi	a5,a5,5
	lbu	a4,0(a5)
	.loc 1 64 14
	li	a5,108
	bne	a4,a5,.L4
	.loc 1 65 9
	li	a4,0
	li	a3,0
	li	a2,351
	lui	a5,%hi(http_index_hml)
	addi	a1,a5,%lo(http_index_hml)
	lw	a0,-36(s0)
	call	netconn_write_partly
	j	.L2
.L4:
	.loc 1 71 11
	li	a4,0
	li	a3,0
	li	a2,351
	lui	a5,%hi(http_index_hml)
	addi	a1,a5,%lo(http_index_hml)
	lw	a0,-36(s0)
	call	netconn_write_partly
.L2:
	.loc 1 75 3
	lw	a0,-36(s0)
	call	netconn_close
	.loc 1 76 3
	lw	a5,-24(s0)
	mv	a0,a5
	call	netbuf_delete
	.loc 1 77 1
	nop
	lw	ra,44(sp)
	.cfi_restore 1
	lw	s0,40(sp)
	.cfi_restore 8
	.cfi_def_cfa 2, 48
	addi	sp,sp,48
	.cfi_def_cfa_offset 0
	jr	ra
	.cfi_endproc
.LFE6:
	.size	web_http_server, .-web_http_server
	.section	.text.web_server2,"ax",@progbits
	.align	1
	.globl	web_server2
	.type	web_server2, @function
web_server2:
.LFB7:
	.loc 1 81 1
	.cfi_startproc
	addi	sp,sp,-48
	.cfi_def_cfa_offset 48
	sw	ra,44(sp)
	sw	s0,40(sp)
	.cfi_offset 1, -4
	.cfi_offset 8, -8
	addi	s0,sp,48
	.cfi_def_cfa 8, 0
	sw	a0,-36(s0)
	.loc 1 84 10
	li	a2,0
	li	a1,0
	li	a0,16
	call	netconn_new_with_proto_and_callback
	sw	a0,-20(s0)
	.loc 1 85 3
	li	a2,80
	li	a1,0
	lw	a0,-20(s0)
	call	netconn_bind
	.loc 1 86 3
	li	a1,255
	lw	a0,-20(s0)
	call	netconn_listen_with_backlog
.L9:
	.loc 1 88 11
	addi	a5,s0,-28
	mv	a1,a5
	lw	a0,-20(s0)
	call	netconn_accept
	mv	a5,a0
	sb	a5,-21(s0)
	.loc 1 89 8
	lb	a5,-21(s0)
	bne	a5,zero,.L6
	.loc 1 90 7
	lw	a5,-28(s0)
	mv	a0,a5
	call	web_http_server
	.loc 1 91 7
	lw	a5,-28(s0)
	mv	a0,a5
	call	netconn_delete
	j	.L9
.L6:
	.loc 1 94 7
	lw	a0,-20(s0)
	call	netconn_close
	.loc 1 95 7
	lw	a0,-20(s0)
	call	netconn_delete
	.loc 1 96 7
	nop
	.loc 1 99 1
	nop
	lw	ra,44(sp)
	.cfi_restore 1
	lw	s0,40(sp)
	.cfi_restore 8
	.cfi_def_cfa 2, 48
	addi	sp,sp,48
	.cfi_def_cfa_offset 0
	jr	ra
	.cfi_endproc
.LFE7:
	.size	web_server2, .-web_server2
	.text
.Letext0:
	.file 2 "/home/chandu/sdk/bl602_iot_sdk/toolchain/compiler/lib/gcc/riscv32-unknown-elf/15.1.0/include/stddef.h"
	.file 3 "/home/chandu/sdk/bl602_iot_sdk/toolchain/compiler/lib/gcc/riscv32-unknown-elf/15.1.0/include/stdint-gcc.h"
	.file 4 "/home/chandu/sdk/bl602_iot_sdk/components/network/lwip/src/include/lwip/arch.h"
	.file 5 "/home/chandu/sdk/bl602_iot_sdk/components/network/lwip/src/include/lwip/err.h"
	.file 6 "/home/chandu/sdk/bl602_iot_sdk/components/freertos/include/queue.h"
	.file 7 "/home/chandu/sdk/bl602_iot_sdk/components/freertos/include/semphr.h"
	.file 8 "/home/chandu/sdk/bl602_iot_sdk/components/network/lwip/lwip-port/arch/sys_arch.h"
	.file 9 "/home/chandu/sdk/bl602_iot_sdk/components/network/lwip/src/include/lwip/ip4_addr.h"
	.file 10 "/home/chandu/sdk/bl602_iot_sdk/components/network/lwip/src/include/lwip/ip_addr.h"
	.file 11 "/home/chandu/sdk/bl602_iot_sdk/components/network/lwip/src/include/lwip/pbuf.h"
	.file 12 "/home/chandu/sdk/bl602_iot_sdk/components/network/lwip/src/include/lwip/memp.h"
	.file 13 "/home/chandu/sdk/bl602_iot_sdk/components/network/lwip/src/include/lwip/netbuf.h"
	.file 14 "/home/chandu/sdk/bl602_iot_sdk/components/network/lwip/src/include/lwip/netif.h"
	.file 15 "/home/chandu/sdk/bl602_iot_sdk/components/network/lwip/src/include/lwip/api.h"
	.file 16 "/home/chandu/sdk/bl602_iot_sdk/toolchain/compiler/riscv32-unknown-elf/include/stdio.h"
	.section	.note.GNU-stack,"",@progbits
